EXPORTS
  ?$TSS0@?1??getMaxAgeInSeconds@OnlineServiceData@BingOnlineServices@@QBE?BIXZ@4HA=C:\Windows\SysWOW64\BingOnlineServices.?$TSS0@?1??getMaxAgeInSeconds@OnlineServiceData@BingOnlineServices@@QBE?BIXZ@4HA
  ??0BoundingBox@BingOnlineServices@@QAE@NNNN@Z=C:\Windows\SysWOW64\BingOnlineServices.??0BoundingBox@BingOnlineServices@@QAE@NNNN@Z
  ??0CopyrightData@BingOnlineServices@@QAE@$$QAV01@@Z=C:\Windows\SysWOW64\BingOnlineServices.??0CopyrightData@BingOnlineServices@@QAE@$$QAV01@@Z
  ??0CopyrightData@BingOnlineServices@@QAE@ABV01@@Z=C:\Windows\SysWOW64\BingOnlineServices.??0CopyrightData@BingOnlineServices@@QAE@ABV01@@Z
  ??0CopyrightData@BingOnlineServices@@QAE@XZ=C:\Windows\SysWOW64\BingOnlineServices.??0CopyrightData@BingOnlineServices@@QAE@XZ
  ??0CopyrightDataImpl@BingOnlineServices@@QAE@$$QAV01@@Z=C:\Windows\SysWOW64\BingOnlineServices.??0CopyrightDataImpl@BingOnlineServices@@QAE@$$QAV01@@Z
  ??0CopyrightDataImpl@BingOnlineServices@@QAE@ABV01@@Z=C:\Windows\SysWOW64\BingOnlineServices.??0CopyrightDataImpl@BingOnlineServices@@QAE@ABV01@@Z
  ??0CopyrightDataImpl@BingOnlineServices@@QAE@XZ=C:\Windows\SysWOW64\BingOnlineServices.??0CopyrightDataImpl@BingOnlineServices@@QAE@XZ
  ??0CopyrightRequest@BingOnlineServices@@QAE@$$QAV01@@Z=C:\Windows\SysWOW64\BingOnlineServices.??0CopyrightRequest@BingOnlineServices@@QAE@$$QAV01@@Z
  ??0CopyrightRequest@BingOnlineServices@@QAE@ABV01@@Z=C:\Windows\SysWOW64\BingOnlineServices.??0CopyrightRequest@BingOnlineServices@@QAE@ABV01@@Z
  ??0CopyrightRequest@BingOnlineServices@@QAE@ABV?$basic_string@GU?$char_traits@G@std@@V?$allocator@G@2@@std@@0_N@Z=C:\Windows\SysWOW64\BingOnlineServices.??0CopyrightRequest@BingOnlineServices@@QAE@ABV?$basic_string@GU?$char_traits@G@std@@V?$allocator@G@2@@std@@0_N@Z
  ??0Geopoint@BingOnlineServices@@QAE@NNN@Z=C:\Windows\SysWOW64\BingOnlineServices.??0Geopoint@BingOnlineServices@@QAE@NNN@Z
  ??0Geoposition@BingOnlineServices@@QAE@NNN@Z=C:\Windows\SysWOW64\BingOnlineServices.??0Geoposition@BingOnlineServices@@QAE@NNN@Z
  ??0OnlineServiceData@BingOnlineServices@@QAE@ABV01@@Z=C:\Windows\SysWOW64\BingOnlineServices.??0OnlineServiceData@BingOnlineServices@@QAE@ABV01@@Z
  ??0OnlineServiceData@BingOnlineServices@@QAE@XZ=C:\Windows\SysWOW64\BingOnlineServices.??0OnlineServiceData@BingOnlineServices@@QAE@XZ
  ??0OnlineServiceResponse@BingOnlineServices@@QAE@$$QAU01@@Z=C:\Windows\SysWOW64\BingOnlineServices.??0OnlineServiceResponse@BingOnlineServices@@QAE@$$QAU01@@Z
  ??0OnlineServiceResponse@BingOnlineServices@@QAE@ABU01@@Z=C:\Windows\SysWOW64\BingOnlineServices.??0OnlineServiceResponse@BingOnlineServices@@QAE@ABU01@@Z
  ??0OnlineServiceResponse@BingOnlineServices@@QAE@XZ=C:\Windows\SysWOW64\BingOnlineServices.??0OnlineServiceResponse@BingOnlineServices@@QAE@XZ
  ??0_file_info@details@streams@Concurrency@@QAE@HI@Z=C:\Windows\SysWOW64\BingOnlineServices.??0_file_info@details@streams@Concurrency@@QAE@HI@Z
  ??0_http_request@details@http@web@@QAE@V?$basic_string@GU?$char_traits@G@std@@V?$allocator@G@2@@std@@@Z=C:\Windows\SysWOW64\BingOnlineServices.??0_http_request@details@http@web@@QAE@V?$basic_string@GU?$char_traits@G@std@@V?$allocator@G@2@@std@@@Z
  ??0_http_request@details@http@web@@QAE@V?$unique_ptr@V_http_server_context@details@http@web@@U?$default_delete@V_http_server_context@details@http@web@@@std@@@std@@@Z=C:\Windows\SysWOW64\BingOnlineServices.??0_http_request@details@http@web@@QAE@V?$unique_ptr@V_http_server_context@details@http@web@@U?$default_delete@V_http_server_context@details@http@web@@@std@@@std@@@Z
  ??0critical_section_impl@details@pplx@@QAE@XZ=C:\Windows\SysWOW64\BingOnlineServices.??0critical_section_impl@details@pplx@@QAE@XZ
  ??0event_impl@details@pplx@@QAE@XZ=C:\Windows\SysWOW64\BingOnlineServices.??0event_impl@details@pplx@@QAE@XZ
  ??0http_client@client@http@web@@QAE@ABVuri@3@@Z=C:\Windows\SysWOW64\BingOnlineServices.??0http_client@client@http@web@@QAE@ABVuri@3@@Z
  ??0http_client@client@http@web@@QAE@ABVuri@3@ABVhttp_client_config@123@@Z=C:\Windows\SysWOW64\BingOnlineServices.??0http_client@client@http@web@@QAE@ABVuri@3@ABVhttp_client_config@123@@Z
  ??0http_msg_base@details@http@web@@QAE@XZ=C:\Windows\SysWOW64\BingOnlineServices.??0http_msg_base@details@http@web@@QAE@XZ
  ??0reader_writer_lock_impl@details@pplx@@QAE@XZ=C:\Windows\SysWOW64\BingOnlineServices.??0reader_writer_lock_impl@details@pplx@@QAE@XZ
  ??0scoped_c_thread_locale@details@utility@@QAE@XZ=C:\Windows\SysWOW64\BingOnlineServices.??0scoped_c_thread_locale@details@utility@@QAE@XZ
  ??0uri@web@@QAE@ABV?$basic_string@GU?$char_traits@G@std@@V?$allocator@G@2@@std@@@Z=C:\Windows\SysWOW64\BingOnlineServices.??0uri@web@@QAE@ABV?$basic_string@GU?$char_traits@G@std@@V?$allocator@G@2@@std@@@Z
  ??0uri@web@@QAE@PBG@Z=C:\Windows\SysWOW64\BingOnlineServices.??0uri@web@@QAE@PBG@Z
  ??0value@json@web@@QAE@$$QAV012@@Z=C:\Windows\SysWOW64\BingOnlineServices.??0value@json@web@@QAE@$$QAV012@@Z
  ??0value@json@web@@QAE@ABV012@@Z=C:\Windows\SysWOW64\BingOnlineServices.??0value@json@web@@QAE@ABV012@@Z
  ??0value@json@web@@QAE@H@Z=C:\Windows\SysWOW64\BingOnlineServices.??0value@json@web@@QAE@H@Z
  ??0value@json@web@@QAE@I@Z=C:\Windows\SysWOW64\BingOnlineServices.??0value@json@web@@QAE@I@Z
  ??0value@json@web@@QAE@N@Z=C:\Windows\SysWOW64\BingOnlineServices.??0value@json@web@@QAE@N@Z
  ??0value@json@web@@QAE@PBG@Z=C:\Windows\SysWOW64\BingOnlineServices.??0value@json@web@@QAE@PBG@Z
  ??0value@json@web@@QAE@PBG_N@Z=C:\Windows\SysWOW64\BingOnlineServices.??0value@json@web@@QAE@PBG_N@Z
  ??0value@json@web@@QAE@V?$basic_string@GU?$char_traits@G@std@@V?$allocator@G@2@@std@@@Z=C:\Windows\SysWOW64\BingOnlineServices.??0value@json@web@@QAE@V?$basic_string@GU?$char_traits@G@std@@V?$allocator@G@2@@std@@@Z
  ??0value@json@web@@QAE@V?$basic_string@GU?$char_traits@G@std@@V?$allocator@G@2@@std@@_N@Z=C:\Windows\SysWOW64\BingOnlineServices.??0value@json@web@@QAE@V?$basic_string@GU?$char_traits@G@std@@V?$allocator@G@2@@std@@_N@Z
  ??0value@json@web@@QAE@XZ=C:\Windows\SysWOW64\BingOnlineServices.??0value@json@web@@QAE@XZ
  ??0value@json@web@@QAE@_J@Z=C:\Windows\SysWOW64\BingOnlineServices.??0value@json@web@@QAE@_J@Z
  ??0value@json@web@@QAE@_K@Z=C:\Windows\SysWOW64\BingOnlineServices.??0value@json@web@@QAE@_K@Z
  ??0value@json@web@@QAE@_N@Z=C:\Windows\SysWOW64\BingOnlineServices.??0value@json@web@@QAE@_N@Z
  ??0win32_encryption@details@web@@QAE@ABV?$basic_string@GU?$char_traits@G@std@@V?$allocator@G@2@@std@@@Z=C:\Windows\SysWOW64\BingOnlineServices.??0win32_encryption@details@web@@QAE@ABV?$basic_string@GU?$char_traits@G@std@@V?$allocator@G@2@@std@@@Z
  ??1CopyrightData@BingOnlineServices@@UAE@XZ=C:\Windows\SysWOW64\BingOnlineServices.??1CopyrightData@BingOnlineServices@@UAE@XZ
  ??1CopyrightDataImpl@BingOnlineServices@@UAE@XZ=C:\Windows\SysWOW64\BingOnlineServices.??1CopyrightDataImpl@BingOnlineServices@@UAE@XZ
  ??1CopyrightRequest@BingOnlineServices@@QAE@XZ=C:\Windows\SysWOW64\BingOnlineServices.??1CopyrightRequest@BingOnlineServices@@QAE@XZ
  ??1OnlineServiceData@BingOnlineServices@@UAE@XZ=C:\Windows\SysWOW64\BingOnlineServices.??1OnlineServiceData@BingOnlineServices@@UAE@XZ
  ??1OnlineServiceResponse@BingOnlineServices@@QAE@XZ=C:\Windows\SysWOW64\BingOnlineServices.??1OnlineServiceResponse@BingOnlineServices@@QAE@XZ
  ??1critical_section_impl@details@pplx@@QAE@XZ=C:\Windows\SysWOW64\BingOnlineServices.??1critical_section_impl@details@pplx@@QAE@XZ
  ??1event_impl@details@pplx@@QAE@XZ=C:\Windows\SysWOW64\BingOnlineServices.??1event_impl@details@pplx@@QAE@XZ
  ??1scoped_c_thread_locale@details@utility@@QAE@XZ=C:\Windows\SysWOW64\BingOnlineServices.??1scoped_c_thread_locale@details@utility@@QAE@XZ
  ??1win32_encryption@details@web@@QAE@XZ=C:\Windows\SysWOW64\BingOnlineServices.??1win32_encryption@details@web@@QAE@XZ
  ??4BoundingBox@BingOnlineServices@@QAEAAU01@$$QAU01@@Z=C:\Windows\SysWOW64\BingOnlineServices.??4BoundingBox@BingOnlineServices@@QAEAAU01@$$QAU01@@Z
  ??4BoundingBox@BingOnlineServices@@QAEAAU01@ABU01@@Z=C:\Windows\SysWOW64\BingOnlineServices.??4BoundingBox@BingOnlineServices@@QAEAAU01@ABU01@@Z
  ??4CopyrightData@BingOnlineServices@@QAEAAV01@$$QAV01@@Z=C:\Windows\SysWOW64\BingOnlineServices.??4CopyrightData@BingOnlineServices@@QAEAAV01@$$QAV01@@Z
  ??4CopyrightData@BingOnlineServices@@QAEAAV01@ABV01@@Z=C:\Windows\SysWOW64\BingOnlineServices.??4CopyrightData@BingOnlineServices@@QAEAAV01@ABV01@@Z
  ??4CopyrightDataImpl@BingOnlineServices@@QAEAAV01@$$QAV01@@Z=C:\Windows\SysWOW64\BingOnlineServices.??4CopyrightDataImpl@BingOnlineServices@@QAEAAV01@$$QAV01@@Z
  ??4CopyrightDataImpl@BingOnlineServices@@QAEAAV01@ABV01@@Z=C:\Windows\SysWOW64\BingOnlineServices.??4CopyrightDataImpl@BingOnlineServices@@QAEAAV01@ABV01@@Z
  ??4CopyrightRequest@BingOnlineServices@@QAEAAV01@$$QAV01@@Z=C:\Windows\SysWOW64\BingOnlineServices.??4CopyrightRequest@BingOnlineServices@@QAEAAV01@$$QAV01@@Z
  ??4CopyrightRequest@BingOnlineServices@@QAEAAV01@ABV01@@Z=C:\Windows\SysWOW64\BingOnlineServices.??4CopyrightRequest@BingOnlineServices@@QAEAAV01@ABV01@@Z
  ??4Geopoint@BingOnlineServices@@QAEAAU01@$$QAU01@@Z=C:\Windows\SysWOW64\BingOnlineServices.??4Geopoint@BingOnlineServices@@QAEAAU01@$$QAU01@@Z
  ??4Geopoint@BingOnlineServices@@QAEAAU01@ABU01@@Z=C:\Windows\SysWOW64\BingOnlineServices.??4Geopoint@BingOnlineServices@@QAEAAU01@ABU01@@Z
  ??4Geoposition@BingOnlineServices@@QAEAAU01@$$QAU01@@Z=C:\Windows\SysWOW64\BingOnlineServices.??4Geoposition@BingOnlineServices@@QAEAAU01@$$QAU01@@Z
  ??4Geoposition@BingOnlineServices@@QAEAAU01@ABU01@@Z=C:\Windows\SysWOW64\BingOnlineServices.??4Geoposition@BingOnlineServices@@QAEAAU01@ABU01@@Z
  ??4OnlineServiceData@BingOnlineServices@@QAEAAV01@ABV01@@Z=C:\Windows\SysWOW64\BingOnlineServices.??4OnlineServiceData@BingOnlineServices@@QAEAAV01@ABV01@@Z
  ??4OnlineServiceResponse@BingOnlineServices@@QAEAAU01@$$QAU01@@Z=C:\Windows\SysWOW64\BingOnlineServices.??4OnlineServiceResponse@BingOnlineServices@@QAEAAU01@$$QAU01@@Z
  ??4OnlineServiceResponse@BingOnlineServices@@QAEAAU01@ABU01@@Z=C:\Windows\SysWOW64\BingOnlineServices.??4OnlineServiceResponse@BingOnlineServices@@QAEAAU01@ABU01@@Z
  ??4ServiceDataHelper@BingOnlineServices@@QAEAAV01@$$QAV01@@Z=C:\Windows\SysWOW64\BingOnlineServices.??4ServiceDataHelper@BingOnlineServices@@QAEAAV01@$$QAV01@@Z
  ??4ServiceDataHelper@BingOnlineServices@@QAEAAV01@ABV01@@Z=C:\Windows\SysWOW64\BingOnlineServices.??4ServiceDataHelper@BingOnlineServices@@QAEAAV01@ABV01@@Z
  ??4ServiceRequestHelper@BingOnlineServices@@QAEAAV01@$$QAV01@@Z=C:\Windows\SysWOW64\BingOnlineServices.??4ServiceRequestHelper@BingOnlineServices@@QAEAAV01@$$QAV01@@Z
  ??4ServiceRequestHelper@BingOnlineServices@@QAEAAV01@ABV01@@Z=C:\Windows\SysWOW64\BingOnlineServices.??4ServiceRequestHelper@BingOnlineServices@@QAEAAV01@ABV01@@Z
  ??4value@json@web@@QAEAAV012@$$QAV012@@Z=C:\Windows\SysWOW64\BingOnlineServices.??4value@json@web@@QAEAAV012@$$QAV012@@Z
  ??4value@json@web@@QAEAAV012@ABV012@@Z=C:\Windows\SysWOW64\BingOnlineServices.??4value@json@web@@QAEAAV012@ABV012@@Z
  ??5json@web@@YAAAV?$basic_istream@GU?$char_traits@G@std@@@std@@AAV23@AAVvalue@01@@Z=C:\Windows\SysWOW64\BingOnlineServices.??5json@web@@YAAAV?$basic_istream@GU?$char_traits@G@std@@@std@@AAV23@AAVvalue@01@@Z
  ??6json@web@@YAAAV?$basic_ostream@GU?$char_traits@G@std@@@std@@AAV23@ABVvalue@01@@Z=C:\Windows\SysWOW64\BingOnlineServices.??6json@web@@YAAAV?$basic_ostream@GU?$char_traits@G@std@@@std@@AAV23@ABVvalue@01@@Z
  ??8uri@web@@QBE_NABV01@@Z=C:\Windows\SysWOW64\BingOnlineServices.??8uri@web@@QBE_NABV01@@Z
  ??8value@json@web@@QBE_NABV012@@Z=C:\Windows\SysWOW64\BingOnlineServices.??8value@json@web@@QBE_NABV012@@Z
  ??Avalue@json@web@@AAEAAV012@ABV?$basic_string@DU?$char_traits@D@std@@V?$allocator@D@2@@std@@@Z=C:\Windows\SysWOW64\BingOnlineServices.??Avalue@json@web@@AAEAAV012@ABV?$basic_string@DU?$char_traits@D@std@@V?$allocator@D@2@@std@@@Z
  ??Avalue@json@web@@QAEAAV012@ABV?$basic_string@GU?$char_traits@G@std@@V?$allocator@G@2@@std@@@Z=C:\Windows\SysWOW64\BingOnlineServices.??Avalue@json@web@@QAEAAV012@ABV?$basic_string@GU?$char_traits@G@std@@V?$allocator@G@2@@std@@@Z
  ??Avalue@json@web@@QAEAAV012@I@Z=C:\Windows\SysWOW64\BingOnlineServices.??Avalue@json@web@@QAEAAV012@I@Z
  ??Rzero_memory_deleter@details@web@@QBEXPAV?$basic_string@GU?$char_traits@G@std@@V?$allocator@G@2@@std@@@Z=C:\Windows\SysWOW64\BingOnlineServices.??Rzero_memory_deleter@details@web@@QBEXPAV?$basic_string@GU?$char_traits@G@std@@V?$allocator@G@2@@std@@@Z
  ??_7CopyrightData@BingOnlineServices@@6B@=C:\Windows\SysWOW64\BingOnlineServices.??_7CopyrightData@BingOnlineServices@@6B@
  ??_7CopyrightDataImpl@BingOnlineServices@@6B@=C:\Windows\SysWOW64\BingOnlineServices.??_7CopyrightDataImpl@BingOnlineServices@@6B@
  ??_7OnlineServiceData@BingOnlineServices@@6B@=C:\Windows\SysWOW64\BingOnlineServices.??_7OnlineServiceData@BingOnlineServices@@6B@
  ??_FBoundingBox@BingOnlineServices@@QAEXXZ=C:\Windows\SysWOW64\BingOnlineServices.??_FBoundingBox@BingOnlineServices@@QAEXXZ
  ??_FGeopoint@BingOnlineServices@@QAEXXZ=C:\Windows\SysWOW64\BingOnlineServices.??_FGeopoint@BingOnlineServices@@QAEXXZ
  ??_FGeoposition@BingOnlineServices@@QAEXXZ=C:\Windows\SysWOW64\BingOnlineServices.??_FGeoposition@BingOnlineServices@@QAEXXZ
  ?CONNECT@methods@http@web@@2V?$basic_string@GU?$char_traits@G@std@@V?$allocator@G@2@@std@@B=C:\Windows\SysWOW64\BingOnlineServices.?CONNECT@methods@http@web@@2V?$basic_string@GU?$char_traits@G@std@@V?$allocator@G@2@@std@@B
  ?CaptureCallstack@platform@details@pplx@@YAIPAPAXII@Z=C:\Windows\SysWOW64\BingOnlineServices.?CaptureCallstack@platform@details@pplx@@YAIPAPAXII@Z
  ?CheckHResultThrowAtFailed@CopyrightRequest@BingOnlineServices@@AAEXJPBD@Z=C:\Windows\SysWOW64\BingOnlineServices.?CheckHResultThrowAtFailed@CopyrightRequest@BingOnlineServices@@AAEXJPBD@Z
  ?CompareValueCaseInsensitive@ServiceDataHelper@BingOnlineServices@@SG?B_NABV?$basic_string@GU?$char_traits@G@std@@V?$allocator@G@2@@std@@0@Z=C:\Windows\SysWOW64\BingOnlineServices.?CompareValueCaseInsensitive@ServiceDataHelper@BingOnlineServices@@SG?B_NABV?$basic_string@GU?$char_traits@G@std@@V?$allocator@G@2@@std@@0@Z
  ?CompareValueCaseInsensitive@ServiceDataHelper@BingOnlineServices@@SG?B_NABVvalue@json@web@@ABV?$basic_string@GU?$char_traits@G@std@@V?$allocator@G@2@@std@@@Z=C:\Windows\SysWOW64\BingOnlineServices.?CompareValueCaseInsensitive@ServiceDataHelper@BingOnlineServices@@SG?B_NABVvalue@json@web@@ABV?$basic_string@GU?$char_traits@G@std@@V?$allocator@G@2@@std@@@Z
  ?DEFAULT_BOOL@ServiceDataHelper@BingOnlineServices@@2_NA=C:\Windows\SysWOW64\BingOnlineServices.?DEFAULT_BOOL@ServiceDataHelper@BingOnlineServices@@2_NA
  ?DEFAULT_DOUBLE@ServiceDataHelper@BingOnlineServices@@2NA=C:\Windows\SysWOW64\BingOnlineServices.?DEFAULT_DOUBLE@ServiceDataHelper@BingOnlineServices@@2NA
  ?DEFAULT_INT@ServiceDataHelper@BingOnlineServices@@2HA=C:\Windows\SysWOW64\BingOnlineServices.?DEFAULT_INT@ServiceDataHelper@BingOnlineServices@@2HA
  ?DEFAULT_STRING@ServiceDataHelper@BingOnlineServices@@2V?$basic_string@GU?$char_traits@G@std@@V?$allocator@G@2@@std@@A=C:\Windows\SysWOW64\BingOnlineServices.?DEFAULT_STRING@ServiceDataHelper@BingOnlineServices@@2V?$basic_string@GU?$char_traits@G@std@@V?$allocator@G@2@@std@@A
  ?DEL@methods@http@web@@2V?$basic_string@GU?$char_traits@G@std@@V?$allocator@G@2@@std@@B=C:\Windows\SysWOW64\BingOnlineServices.?DEL@methods@http@web@@2V?$basic_string@GU?$char_traits@G@std@@V?$allocator@G@2@@std@@B
  ?ExecuteAsync@CopyrightRequest@BingOnlineServices@@QAE?AV?$task@VCopyrightData@BingOnlineServices@@@pplx@@ABV?$basic_string@GU?$char_traits@G@std@@V?$allocator@G@2@@std@@ABUBoundingBox@2@I@Z=C:\Windows\SysWOW64\BingOnlineServices.?ExecuteAsync@CopyrightRequest@BingOnlineServices@@QAE?AV?$task@VCopyrightData@BingOnlineServices@@@pplx@@ABV?$basic_string@GU?$char_traits@G@std@@V?$allocator@G@2@@std@@ABUBoundingBox@2@I@Z
  ?ExecuteAsync@CopyrightRequest@BingOnlineServices@@QAE?AV?$task@VCopyrightData@BingOnlineServices@@@pplx@@ABV?$vector@HV?$allocator@H@std@@@std@@@Z=C:\Windows\SysWOW64\BingOnlineServices.?ExecuteAsync@CopyrightRequest@BingOnlineServices@@QAE?AV?$task@VCopyrightData@BingOnlineServices@@@pplx@@ABV?$vector@HV?$allocator@H@std@@@std@@@Z
  ?ExtractCookies@ServiceRequestHelper@BingOnlineServices@@SG?BV?$basic_string@GU?$char_traits@G@std@@V?$allocator@G@2@@std@@ABV34@@Z=C:\Windows\SysWOW64\BingOnlineServices.?ExtractCookies@ServiceRequestHelper@BingOnlineServices@@SG?BV?$basic_string@GU?$char_traits@G@std@@V?$allocator@G@2@@std@@ABV34@@Z
  ?GET@methods@http@web@@2V?$basic_string@GU?$char_traits@G@std@@V?$allocator@G@2@@std@@B=C:\Windows\SysWOW64\BingOnlineServices.?GET@methods@http@web@@2V?$basic_string@GU?$char_traits@G@std@@V?$allocator@G@2@@std@@B
  ?GetCurrentThreadId@platform@details@pplx@@YAJXZ=C:\Windows\SysWOW64\BingOnlineServices.?GetCurrentThreadId@platform@details@pplx@@YAJXZ
  ?GetJsonBoolValueForPath@ServiceDataHelper@BingOnlineServices@@SG?B_NABVvalue@json@web@@ABV?$basic_string@GU?$char_traits@G@std@@V?$allocator@G@2@@std@@_N@Z=C:\Windows\SysWOW64\BingOnlineServices.?GetJsonBoolValueForPath@ServiceDataHelper@BingOnlineServices@@SG?B_NABVvalue@json@web@@ABV?$basic_string@GU?$char_traits@G@std@@V?$allocator@G@2@@std@@_N@Z
  ?GetJsonDoubleValueForPath@ServiceDataHelper@BingOnlineServices@@SG?BNABVvalue@json@web@@ABV?$basic_string@GU?$char_traits@G@std@@V?$allocator@G@2@@std@@N@Z=C:\Windows\SysWOW64\BingOnlineServices.?GetJsonDoubleValueForPath@ServiceDataHelper@BingOnlineServices@@SG?BNABVvalue@json@web@@ABV?$basic_string@GU?$char_traits@G@std@@V?$allocator@G@2@@std@@N@Z
  ?GetJsonIntValueForPath@ServiceDataHelper@BingOnlineServices@@SG?BHABVvalue@json@web@@ABV?$basic_string@GU?$char_traits@G@std@@V?$allocator@G@2@@std@@H@Z=C:\Windows\SysWOW64\BingOnlineServices.?GetJsonIntValueForPath@ServiceDataHelper@BingOnlineServices@@SG?BHABVvalue@json@web@@ABV?$basic_string@GU?$char_traits@G@std@@V?$allocator@G@2@@std@@H@Z
  ?GetJsonStringValueForPath@ServiceDataHelper@BingOnlineServices@@SG?BV?$basic_string@GU?$char_traits@G@std@@V?$allocator@G@2@@std@@ABVvalue@json@web@@ABV34@V34@@Z=C:\Windows\SysWOW64\BingOnlineServices.?GetJsonStringValueForPath@ServiceDataHelper@BingOnlineServices@@SG?BV?$basic_string@GU?$char_traits@G@std@@V?$allocator@G@2@@std@@ABVvalue@json@web@@ABV34@V34@@Z
  ?GetSystemLocaleInfo@CopyrightRequest@BingOnlineServices@@AAEXPAV?$basic_string@GU?$char_traits@G@std@@V?$allocator@G@2@@std@@0@Z=C:\Windows\SysWOW64\BingOnlineServices.?GetSystemLocaleInfo@CopyrightRequest@BingOnlineServices@@AAEXPAV?$basic_string@GU?$char_traits@G@std@@V?$allocator@G@2@@std@@0@Z
  ?GetValueFromConfig@CopyrightRequest@BingOnlineServices@@AAE?AV?$basic_string@GU?$char_traits@G@std@@V?$allocator@G@2@@std@@W4ConfigurationManagerKeys@@@Z=C:\Windows\SysWOW64\BingOnlineServices.?GetValueFromConfig@CopyrightRequest@BingOnlineServices@@AAE?AV?$basic_string@GU?$char_traits@G@std@@V?$allocator@G@2@@std@@W4ConfigurationManagerKeys@@@Z
  ?HEAD@methods@http@web@@2V?$basic_string@GU?$char_traits@G@std@@V?$allocator@G@2@@std@@B=C:\Windows\SysWOW64\BingOnlineServices.?HEAD@methods@http@web@@2V?$basic_string@GU?$char_traits@G@std@@V?$allocator@G@2@@std@@B
  ?IsValid@BoundingBox@BingOnlineServices@@SG_NU12@@Z=C:\Windows\SysWOW64\BingOnlineServices.?IsValid@BoundingBox@BingOnlineServices@@SG_NU12@@Z
  ?IsValid@Geopoint@BingOnlineServices@@SG_NU12@@Z=C:\Windows\SysWOW64\BingOnlineServices.?IsValid@Geopoint@BingOnlineServices@@SG_NU12@@Z
  ?IsValid@Geoposition@BingOnlineServices@@SG_NU12@@Z=C:\Windows\SysWOW64\BingOnlineServices.?IsValid@Geoposition@BingOnlineServices@@SG_NU12@@Z
  ?MERGE@methods@http@web@@2V?$basic_string@GU?$char_traits@G@std@@V?$allocator@G@2@@std@@B=C:\Windows\SysWOW64\BingOnlineServices.?MERGE@methods@http@web@@2V?$basic_string@GU?$char_traits@G@std@@V?$allocator@G@2@@std@@B
  ?MakeJsonRequestAsync@ServiceRequestHelper@BingOnlineServices@@SG?AV?$task@UOnlineServiceResponse@BingOnlineServices@@@pplx@@ABV?$basic_string@GU?$char_traits@G@std@@V?$allocator@G@2@@std@@0ABV?$map@V?$basic_string@GU?$char_traits@G@std@@V?$allocator@G@2@@std@@V12@U?$less@V?$basic_string@GU?$char_traits@G@std@@V?$allocator@G@2@@std@@@2@V?$allocator@U?$pair@$$CBV?$basic_string@GU?$char_traits@G@std@@V?$allocator@G@2@@std@@V12@@std@@@2@@6@1@Z=C:\Windows\SysWOW64\BingOnlineServices.?MakeJsonRequestAsync@ServiceRequestHelper@BingOnlineServices@@SG?AV?$task@UOnlineServiceResponse@BingOnlineServices@@@pplx@@ABV?$basic_string@GU?$char_traits@G@std@@V?$allocator@G@2@@std@@0ABV?$map@V?$basic_string@GU?$char_traits@G@std@@V?$allocator@G@2@@std@@V12@U?$less@V?$basic_string@GU?$char_traits@G@std@@V?$allocator@G@2@@std@@@2@V?$allocator@U?$pair@$$CBV?$basic_string@GU?$char_traits@G@std@@V?$allocator@G@2@@std@@V12@@std@@@2@@6@1@Z
  ?MakeJsonRequestAsync@ServiceRequestHelper@BingOnlineServices@@SG?AV?$task@UOnlineServiceResponse@BingOnlineServices@@@pplx@@ABV?$basic_string@GU?$char_traits@G@std@@V?$allocator@G@2@@std@@@Z=C:\Windows\SysWOW64\BingOnlineServices.?MakeJsonRequestAsync@ServiceRequestHelper@BingOnlineServices@@SG?AV?$task@UOnlineServiceResponse@BingOnlineServices@@@pplx@@ABV?$basic_string@GU?$char_traits@G@std@@V?$allocator@G@2@@std@@@Z
  ?OPTIONS@methods@http@web@@2V?$basic_string@GU?$char_traits@G@std@@V?$allocator@G@2@@std@@B=C:\Windows\SysWOW64\BingOnlineServices.?OPTIONS@methods@http@web@@2V?$basic_string@GU?$char_traits@G@std@@V?$allocator@G@2@@std@@B
  ?PATCH@methods@http@web@@2V?$basic_string@GU?$char_traits@G@std@@V?$allocator@G@2@@std@@B=C:\Windows\SysWOW64\BingOnlineServices.?PATCH@methods@http@web@@2V?$basic_string@GU?$char_traits@G@std@@V?$allocator@G@2@@std@@B
  ?POST@methods@http@web@@2V?$basic_string@GU?$char_traits@G@std@@V?$allocator@G@2@@std@@B=C:\Windows\SysWOW64\BingOnlineServices.?POST@methods@http@web@@2V?$basic_string@GU?$char_traits@G@std@@V?$allocator@G@2@@std@@B
  ?PUT@methods@http@web@@2V?$basic_string@GU?$char_traits@G@std@@V?$allocator@G@2@@std@@B=C:\Windows\SysWOW64\BingOnlineServices.?PUT@methods@http@web@@2V?$basic_string@GU?$char_traits@G@std@@V?$allocator@G@2@@std@@B
  ?ParseCopyrightResponse@CopyrightDataImpl@BingOnlineServices@@QAEXABVvalue@json@web@@@Z=C:\Windows\SysWOW64\BingOnlineServices.?ParseCopyrightResponse@CopyrightDataImpl@BingOnlineServices@@QAEXABVvalue@json@web@@@Z
  ?ProcessResponse@ServiceRequestHelper@BingOnlineServices@@SG?AV?$task@UOnlineServiceResponse@BingOnlineServices@@@pplx@@ABVhttp_response@http@web@@@Z=C:\Windows\SysWOW64\BingOnlineServices.?ProcessResponse@ServiceRequestHelper@BingOnlineServices@@SG?AV?$task@UOnlineServiceResponse@BingOnlineServices@@@pplx@@ABVhttp_response@http@web@@@Z
  ?ReplaceFragmentUri@ServiceRequestHelper@BingOnlineServices@@SG?BV?$basic_string@GU?$char_traits@G@std@@V?$allocator@G@2@@std@@ABV34@000@Z=C:\Windows\SysWOW64\BingOnlineServices.?ReplaceFragmentUri@ServiceRequestHelper@BingOnlineServices@@SG?BV?$basic_string@GU?$char_traits@G@std@@V?$allocator@G@2@@std@@ABV34@000@Z
  ?ReplaceFragmentUri@ServiceRequestHelper@BingOnlineServices@@SG?BV?$basic_string@GU?$char_traits@G@std@@V?$allocator@G@2@@std@@ABV34@000ABUBoundingBox@2@I@Z=C:\Windows\SysWOW64\BingOnlineServices.?ReplaceFragmentUri@ServiceRequestHelper@BingOnlineServices@@SG?BV?$basic_string@GU?$char_traits@G@std@@V?$allocator@G@2@@std@@ABV34@000ABUBoundingBox@2@I@Z
  ?SetHttpResponseData@OnlineServiceData@BingOnlineServices@@QAEXH_JV?$basic_string@GU?$char_traits@G@std@@V?$allocator@G@2@@std@@11@Z=C:\Windows\SysWOW64\BingOnlineServices.?SetHttpResponseData@OnlineServiceData@BingOnlineServices@@QAEXH_JV?$basic_string@GU?$char_traits@G@std@@V?$allocator@G@2@@std@@11@Z
  ?SetRunningInService@ServiceRequestHelper@BingOnlineServices@@SGXXZ=C:\Windows\SysWOW64\BingOnlineServices.?SetRunningInService@ServiceRequestHelper@BingOnlineServices@@SGXXZ
  ?TRCE@methods@http@web@@2V?$basic_string@GU?$char_traits@G@std@@V?$allocator@G@2@@std@@B=C:\Windows\SysWOW64\BingOnlineServices.?TRCE@methods@http@web@@2V?$basic_string@GU?$char_traits@G@std@@V?$allocator@G@2@@std@@B
  ?Teardown@ServiceRequestHelper@BingOnlineServices@@SGXXZ=C:\Windows\SysWOW64\BingOnlineServices.?Teardown@ServiceRequestHelper@BingOnlineServices@@SGXXZ
  ?TryGetJsonArrayForPath@ServiceDataHelper@BingOnlineServices@@SG_NABVvalue@json@web@@ABV?$basic_string@GU?$char_traits@G@std@@V?$allocator@G@2@@std@@AAV345@@Z=C:\Windows\SysWOW64\BingOnlineServices.?TryGetJsonArrayForPath@ServiceDataHelper@BingOnlineServices@@SG_NABVvalue@json@web@@ABV?$basic_string@GU?$char_traits@G@std@@V?$allocator@G@2@@std@@AAV345@@Z
  ?TryGetJsonNodeForPath@ServiceDataHelper@BingOnlineServices@@SG_NABVvalue@json@web@@ABV?$basic_string@GU?$char_traits@G@std@@V?$allocator@G@2@@std@@AAV345@@Z=C:\Windows\SysWOW64\BingOnlineServices.?TryGetJsonNodeForPath@ServiceDataHelper@BingOnlineServices@@SG_NABVvalue@json@web@@ABV?$basic_string@GU?$char_traits@G@std@@V?$allocator@G@2@@std@@AAV345@@Z
  ?YieldExecution@platform@details@pplx@@YAXXZ=C:\Windows\SysWOW64\BingOnlineServices.?YieldExecution@platform@details@pplx@@YAXXZ
  ?_authenticate_request@oauth1_config@experimental@oauth1@http@web@@AAEXAAVhttp_request@45@Voauth1_state@details@345@@Z=C:\Windows\SysWOW64\BingOnlineServices.?_authenticate_request@oauth1_config@experimental@oauth1@http@web@@AAEXAAVhttp_request@45@Voauth1_state@details@345@@Z
  ?_build_signature_base_string@oauth1_config@experimental@oauth1@http@web@@QBE?AV?$basic_string@GU?$char_traits@G@std@@V?$allocator@G@2@@std@@Vhttp_request@45@Voauth1_state@details@345@@Z=C:\Windows\SysWOW64\BingOnlineServices.?_build_signature_base_string@oauth1_config@experimental@oauth1@http@web@@QBE?AV?$basic_string@GU?$char_traits@G@std@@V?$allocator@G@2@@std@@Vhttp_request@45@Voauth1_state@details@345@@Z
  ?_complete@http_msg_base@details@http@web@@UAEX_KABVexception_ptr@std@@@Z=C:\Windows\SysWOW64\BingOnlineServices.?_complete@http_msg_base@details@http@web@@UAEX_KABVexception_ptr@std@@@Z
  ?_extract_json@http_msg_base@details@http@web@@QAE?AVvalue@json@4@_N@Z=C:\Windows\SysWOW64\BingOnlineServices.?_extract_json@http_msg_base@details@http@web@@QAE?AVvalue@json@4@_N@Z
  ?_extract_vector@http_msg_base@details@http@web@@QAE?AV?$vector@EV?$allocator@E@std@@@std@@XZ=C:\Windows\SysWOW64\BingOnlineServices.?_extract_vector@http_msg_base@details@http@web@@QAE?AV?$vector@EV?$allocator@E@std@@@std@@XZ
  ?_get_content_length@http_msg_base@details@http@web@@QAEIXZ=C:\Windows\SysWOW64\BingOnlineServices.?_get_content_length@http_msg_base@details@http@web@@QAEIXZ
  ?_hmac_sha1@oauth1_config@experimental@oauth1@http@web@@CA?AV?$vector@EV?$allocator@E@std@@@std@@ABV?$basic_string@GU?$char_traits@G@std@@V?$allocator@G@2@@7@0@Z=C:\Windows\SysWOW64\BingOnlineServices.?_hmac_sha1@oauth1_config@experimental@oauth1@http@web@@CA?AV?$vector@EV?$allocator@E@std@@@std@@ABV?$basic_string@GU?$char_traits@G@std@@V?$allocator@G@2@@7@0@Z
  ?_prepare_to_receive_data@http_msg_base@details@http@web@@QAEXXZ=C:\Windows\SysWOW64\BingOnlineServices.?_prepare_to_receive_data@http_msg_base@details@http@web@@QAEXXZ
  ?_request_token@oauth1_config@experimental@oauth1@http@web@@AAE?AV?$task@X@pplx@@Voauth1_state@details@345@_N@Z=C:\Windows\SysWOW64\BingOnlineServices.?_request_token@oauth1_config@experimental@oauth1@http@web@@AAE?AV?$task@X@pplx@@Voauth1_state@details@345@_N@Z
  ?absolute_uri@_http_request@details@http@web@@QBE?AVuri@4@XZ=C:\Windows\SysWOW64\BingOnlineServices.?absolute_uri@_http_request@details@http@web@@QBE?AVuri@4@XZ
  ?accept@header_names@http@web@@2V?$basic_string@GU?$char_traits@G@std@@V?$allocator@G@2@@std@@B=C:\Windows\SysWOW64\BingOnlineServices.?accept@header_names@http@web@@2V?$basic_string@GU?$char_traits@G@std@@V?$allocator@G@2@@std@@B
  ?accept_charset@header_names@http@web@@2V?$basic_string@GU?$char_traits@G@std@@V?$allocator@G@2@@std@@B=C:\Windows\SysWOW64\BingOnlineServices.?accept_charset@header_names@http@web@@2V?$basic_string@GU?$char_traits@G@std@@V?$allocator@G@2@@std@@B
  ?accept_encoding@header_names@http@web@@2V?$basic_string@GU?$char_traits@G@std@@V?$allocator@G@2@@std@@B=C:\Windows\SysWOW64\BingOnlineServices.?accept_encoding@header_names@http@web@@2V?$basic_string@GU?$char_traits@G@std@@V?$allocator@G@2@@std@@B
  ?accept_language@header_names@http@web@@2V?$basic_string@GU?$char_traits@G@std@@V?$allocator@G@2@@std@@B=C:\Windows\SysWOW64\BingOnlineServices.?accept_language@header_names@http@web@@2V?$basic_string@GU?$char_traits@G@std@@V?$allocator@G@2@@std@@B
  ?accept_ranges@header_names@http@web@@2V?$basic_string@GU?$char_traits@G@std@@V?$allocator@G@2@@std@@B=C:\Windows\SysWOW64\BingOnlineServices.?accept_ranges@header_names@http@web@@2V?$basic_string@GU?$char_traits@G@std@@V?$allocator@G@2@@std@@B
  ?add_chunked_delimiters@chunked_encoding@details@http@web@@YAIPAEII@Z=C:\Windows\SysWOW64\BingOnlineServices.?add_chunked_delimiters@chunked_encoding@details@http@web@@YAIPAEII@Z
  ?age@header_names@http@web@@2V?$basic_string@GU?$char_traits@G@std@@V?$allocator@G@2@@std@@B=C:\Windows\SysWOW64\BingOnlineServices.?age@header_names@http@web@@2V?$basic_string@GU?$char_traits@G@std@@V?$allocator@G@2@@std@@B
  ?allow@header_names@http@web@@2V?$basic_string@GU?$char_traits@G@std@@V?$allocator@G@2@@std@@B=C:\Windows\SysWOW64\BingOnlineServices.?allow@header_names@http@web@@2V?$basic_string@GU?$char_traits@G@std@@V?$allocator@G@2@@std@@B
  ?append@uri_builder@web@@QAEAAV12@ABVuri@2@@Z=C:\Windows\SysWOW64\BingOnlineServices.?append@uri_builder@web@@QAEAAV12@ABVuri@2@@Z
  ?append_path@uri_builder@web@@QAEAAV12@ABV?$basic_string@GU?$char_traits@G@std@@V?$allocator@G@2@@std@@_N@Z=C:\Windows\SysWOW64\BingOnlineServices.?append_path@uri_builder@web@@QAEAAV12@ABV?$basic_string@GU?$char_traits@G@std@@V?$allocator@G@2@@std@@_N@Z
  ?append_query@uri_builder@web@@QAEAAV12@ABV?$basic_string@GU?$char_traits@G@std@@V?$allocator@G@2@@std@@_N@Z=C:\Windows\SysWOW64\BingOnlineServices.?append_query@uri_builder@web@@QAEAAV12@ABV?$basic_string@GU?$char_traits@G@std@@V?$allocator@G@2@@std@@_N@Z
  ?application_atom_xml@mime_types@details@http@web@@2V?$basic_string@GU?$char_traits@G@std@@V?$allocator@G@2@@std@@B=C:\Windows\SysWOW64\BingOnlineServices.?application_atom_xml@mime_types@details@http@web@@2V?$basic_string@GU?$char_traits@G@std@@V?$allocator@G@2@@std@@B
  ?application_http@mime_types@details@http@web@@2V?$basic_string@GU?$char_traits@G@std@@V?$allocator@G@2@@std@@B=C:\Windows\SysWOW64\BingOnlineServices.?application_http@mime_types@details@http@web@@2V?$basic_string@GU?$char_traits@G@std@@V?$allocator@G@2@@std@@B
  ?application_javascript@mime_types@details@http@web@@2V?$basic_string@GU?$char_traits@G@std@@V?$allocator@G@2@@std@@B=C:\Windows\SysWOW64\BingOnlineServices.?application_javascript@mime_types@details@http@web@@2V?$basic_string@GU?$char_traits@G@std@@V?$allocator@G@2@@std@@B
  ?application_json@mime_types@details@http@web@@2V?$basic_string@GU?$char_traits@G@std@@V?$allocator@G@2@@std@@B=C:\Windows\SysWOW64\BingOnlineServices.?application_json@mime_types@details@http@web@@2V?$basic_string@GU?$char_traits@G@std@@V?$allocator@G@2@@std@@B
  ?application_octetstream@mime_types@details@http@web@@2V?$basic_string@GU?$char_traits@G@std@@V?$allocator@G@2@@std@@B=C:\Windows\SysWOW64\BingOnlineServices.?application_octetstream@mime_types@details@http@web@@2V?$basic_string@GU?$char_traits@G@std@@V?$allocator@G@2@@std@@B
  ?application_x_www_form_urlencoded@mime_types@details@http@web@@2V?$basic_string@GU?$char_traits@G@std@@V?$allocator@G@2@@std@@B=C:\Windows\SysWOW64\BingOnlineServices.?application_x_www_form_urlencoded@mime_types@details@http@web@@2V?$basic_string@GU?$char_traits@G@std@@V?$allocator@G@2@@std@@B
  ?application_xjavascript@mime_types@details@http@web@@2V?$basic_string@GU?$char_traits@G@std@@V?$allocator@G@2@@std@@B=C:\Windows\SysWOW64\BingOnlineServices.?application_xjavascript@mime_types@details@http@web@@2V?$basic_string@GU?$char_traits@G@std@@V?$allocator@G@2@@std@@B
  ?application_xjson@mime_types@details@http@web@@2V?$basic_string@GU?$char_traits@G@std@@V?$allocator@G@2@@std@@B=C:\Windows\SysWOW64\BingOnlineServices.?application_xjson@mime_types@details@http@web@@2V?$basic_string@GU?$char_traits@G@std@@V?$allocator@G@2@@std@@B
  ?application_xml@mime_types@details@http@web@@2V?$basic_string@GU?$char_traits@G@std@@V?$allocator@G@2@@std@@B=C:\Windows\SysWOW64\BingOnlineServices.?application_xml@mime_types@details@http@web@@2V?$basic_string@GU?$char_traits@G@std@@V?$allocator@G@2@@std@@B
  ?array@value@json@web@@SA?AV123@I@Z=C:\Windows\SysWOW64\BingOnlineServices.?array@value@json@web@@SA?AV123@I@Z
  ?array@value@json@web@@SA?AV123@V?$vector@Vvalue@json@web@@V?$allocator@Vvalue@json@web@@@std@@@std@@@Z=C:\Windows\SysWOW64\BingOnlineServices.?array@value@json@web@@SA?AV123@V?$vector@Vvalue@json@web@@V?$allocator@Vvalue@json@web@@@std@@@std@@@Z
  ?array@value@json@web@@SA?AV123@XZ=C:\Windows\SysWOW64\BingOnlineServices.?array@value@json@web@@SA?AV123@XZ
  ?as_array@value@json@web@@QAEAAVarray@23@XZ=C:\Windows\SysWOW64\BingOnlineServices.?as_array@value@json@web@@QAEAAVarray@23@XZ
  ?as_array@value@json@web@@QBEABVarray@23@XZ=C:\Windows\SysWOW64\BingOnlineServices.?as_array@value@json@web@@QBEABVarray@23@XZ
  ?as_bool@value@json@web@@QBE_NXZ=C:\Windows\SysWOW64\BingOnlineServices.?as_bool@value@json@web@@QBE_NXZ
  ?as_double@value@json@web@@QBENXZ=C:\Windows\SysWOW64\BingOnlineServices.?as_double@value@json@web@@QBENXZ
  ?as_integer@value@json@web@@QBEHXZ=C:\Windows\SysWOW64\BingOnlineServices.?as_integer@value@json@web@@QBEHXZ
  ?as_number@value@json@web@@QBEABVnumber@23@XZ=C:\Windows\SysWOW64\BingOnlineServices.?as_number@value@json@web@@QBEABVnumber@23@XZ
  ?as_object@value@json@web@@QAEAAVobject@23@XZ=C:\Windows\SysWOW64\BingOnlineServices.?as_object@value@json@web@@QAEAAVobject@23@XZ
  ?as_object@value@json@web@@QBEABVobject@23@XZ=C:\Windows\SysWOW64\BingOnlineServices.?as_object@value@json@web@@QBEABVobject@23@XZ
  ?as_string@value@json@web@@QBEABV?$basic_string@GU?$char_traits@G@std@@V?$allocator@G@2@@std@@XZ=C:\Windows\SysWOW64\BingOnlineServices.?as_string@value@json@web@@QBEABV?$basic_string@GU?$char_traits@G@std@@V?$allocator@G@2@@std@@XZ
  ?ascii@charset_types@details@http@web@@2V?$basic_string@GU?$char_traits@G@std@@V?$allocator@G@2@@std@@B=C:\Windows\SysWOW64\BingOnlineServices.?ascii@charset_types@details@http@web@@2V?$basic_string@GU?$char_traits@G@std@@V?$allocator@G@2@@std@@B
  ?at@value@json@web@@QAEAAV123@ABV?$basic_string@GU?$char_traits@G@std@@V?$allocator@G@2@@std@@@Z=C:\Windows\SysWOW64\BingOnlineServices.?at@value@json@web@@QAEAAV123@ABV?$basic_string@GU?$char_traits@G@std@@V?$allocator@G@2@@std@@@Z
  ?at@value@json@web@@QAEAAV123@I@Z=C:\Windows\SysWOW64\BingOnlineServices.?at@value@json@web@@QAEAAV123@I@Z
  ?at@value@json@web@@QBEABV123@ABV?$basic_string@GU?$char_traits@G@std@@V?$allocator@G@2@@std@@@Z=C:\Windows\SysWOW64\BingOnlineServices.?at@value@json@web@@QBEABV123@ABV?$basic_string@GU?$char_traits@G@std@@V?$allocator@G@2@@std@@@Z
  ?at@value@json@web@@QBEABV123@I@Z=C:\Windows\SysWOW64\BingOnlineServices.?at@value@json@web@@QBEABV123@I@Z
  ?authority@uri@web@@QBE?AV12@XZ=C:\Windows\SysWOW64\BingOnlineServices.?authority@uri@web@@QBE?AV12@XZ
  ?authorization@header_names@http@web@@2V?$basic_string@GU?$char_traits@G@std@@V?$allocator@G@2@@std@@B=C:\Windows\SysWOW64\BingOnlineServices.?authorization@header_names@http@web@@2V?$basic_string@GU?$char_traits@G@std@@V?$allocator@G@2@@std@@B
  ?base_uri@http_client@client@http@web@@QBEABVuri@4@XZ=C:\Windows\SysWOW64\BingOnlineServices.?base_uri@http_client@client@http@web@@QBEABVuri@4@XZ
  ?boolean@value@json@web@@SA?AV123@_N@Z=C:\Windows\SysWOW64\BingOnlineServices.?boolean@value@json@web@@SA?AV123@_N@Z
  ?boundary@mime_types@details@http@web@@2V?$basic_string@GU?$char_traits@G@std@@V?$allocator@G@2@@std@@B=C:\Windows\SysWOW64\BingOnlineServices.?boundary@mime_types@details@http@web@@2V?$basic_string@GU?$char_traits@G@std@@V?$allocator@G@2@@std@@B
  ?build_authorization_uri@oauth1_config@experimental@oauth1@http@web@@QAE?AV?$task@V?$basic_string@GU?$char_traits@G@std@@V?$allocator@G@2@@std@@@pplx@@XZ=C:\Windows\SysWOW64\BingOnlineServices.?build_authorization_uri@oauth1_config@experimental@oauth1@http@web@@QAE?AV?$task@V?$basic_string@GU?$char_traits@G@std@@V?$allocator@G@2@@std@@@pplx@@XZ
  ?c_locale@scoped_c_thread_locale@details@utility@@SAPAU__crt_locale_pointers@@XZ=C:\Windows\SysWOW64\BingOnlineServices.?c_locale@scoped_c_thread_locale@details@utility@@SAPAU__crt_locale_pointers@@XZ
  ?cache_control@header_names@http@web@@2V?$basic_string@GU?$char_traits@G@std@@V?$allocator@G@2@@std@@B=C:\Windows\SysWOW64\BingOnlineServices.?cache_control@header_names@http@web@@2V?$basic_string@GU?$char_traits@G@std@@V?$allocator@G@2@@std@@B
  ?cache_control@http_headers@http@web@@QBE?AV?$basic_string@GU?$char_traits@G@std@@V?$allocator@G@2@@std@@XZ=C:\Windows\SysWOW64\BingOnlineServices.?cache_control@http_headers@http@web@@QBE?AV?$basic_string@GU?$char_traits@G@std@@V?$allocator@G@2@@std@@XZ
  ?callback@oauth1_strings@details@oauth1@http@web@@2V?$basic_string@GU?$char_traits@G@std@@V?$allocator@G@2@@std@@B=C:\Windows\SysWOW64\BingOnlineServices.?callback@oauth1_strings@details@oauth1@http@web@@2V?$basic_string@GU?$char_traits@G@std@@V?$allocator@G@2@@std@@B
  ?callback_confirmed@oauth1_strings@details@oauth1@http@web@@2V?$basic_string@GU?$char_traits@G@std@@V?$allocator@G@2@@std@@B=C:\Windows\SysWOW64\BingOnlineServices.?callback_confirmed@oauth1_strings@details@oauth1@http@web@@2V?$basic_string@GU?$char_traits@G@std@@V?$allocator@G@2@@std@@B
  ?client_config@http_client@client@http@web@@QBEABVhttp_client_config@234@XZ=C:\Windows\SysWOW64\BingOnlineServices.?client_config@http_client@client@http@web@@QBEABVhttp_client_config@234@XZ
  ?connection@header_names@http@web@@2V?$basic_string@GU?$char_traits@G@std@@V?$allocator@G@2@@std@@B=C:\Windows\SysWOW64\BingOnlineServices.?connection@header_names@http@web@@2V?$basic_string@GU?$char_traits@G@std@@V?$allocator@G@2@@std@@B
  ?consumer_key@oauth1_strings@details@oauth1@http@web@@2V?$basic_string@GU?$char_traits@G@std@@V?$allocator@G@2@@std@@B=C:\Windows\SysWOW64\BingOnlineServices.?consumer_key@oauth1_strings@details@oauth1@http@web@@2V?$basic_string@GU?$char_traits@G@std@@V?$allocator@G@2@@std@@B
  ?content_disposition@header_names@http@web@@2V?$basic_string@GU?$char_traits@G@std@@V?$allocator@G@2@@std@@B=C:\Windows\SysWOW64\BingOnlineServices.?content_disposition@header_names@http@web@@2V?$basic_string@GU?$char_traits@G@std@@V?$allocator@G@2@@std@@B
  ?content_encoding@header_names@http@web@@2V?$basic_string@GU?$char_traits@G@std@@V?$allocator@G@2@@std@@B=C:\Windows\SysWOW64\BingOnlineServices.?content_encoding@header_names@http@web@@2V?$basic_string@GU?$char_traits@G@std@@V?$allocator@G@2@@std@@B
  ?content_language@header_names@http@web@@2V?$basic_string@GU?$char_traits@G@std@@V?$allocator@G@2@@std@@B=C:\Windows\SysWOW64\BingOnlineServices.?content_language@header_names@http@web@@2V?$basic_string@GU?$char_traits@G@std@@V?$allocator@G@2@@std@@B
  ?content_length@header_names@http@web@@2V?$basic_string@GU?$char_traits@G@std@@V?$allocator@G@2@@std@@B=C:\Windows\SysWOW64\BingOnlineServices.?content_length@header_names@http@web@@2V?$basic_string@GU?$char_traits@G@std@@V?$allocator@G@2@@std@@B
  ?content_length@http_headers@http@web@@QBE_KXZ=C:\Windows\SysWOW64\BingOnlineServices.?content_length@http_headers@http@web@@QBE_KXZ
  ?content_location@header_names@http@web@@2V?$basic_string@GU?$char_traits@G@std@@V?$allocator@G@2@@std@@B=C:\Windows\SysWOW64\BingOnlineServices.?content_location@header_names@http@web@@2V?$basic_string@GU?$char_traits@G@std@@V?$allocator@G@2@@std@@B
  ?content_md5@header_names@http@web@@2V?$basic_string@GU?$char_traits@G@std@@V?$allocator@G@2@@std@@B=C:\Windows\SysWOW64\BingOnlineServices.?content_md5@header_names@http@web@@2V?$basic_string@GU?$char_traits@G@std@@V?$allocator@G@2@@std@@B
  ?content_range@header_names@http@web@@2V?$basic_string@GU?$char_traits@G@std@@V?$allocator@G@2@@std@@B=C:\Windows\SysWOW64\BingOnlineServices.?content_range@header_names@http@web@@2V?$basic_string@GU?$char_traits@G@std@@V?$allocator@G@2@@std@@B
  ?content_type@header_names@http@web@@2V?$basic_string@GU?$char_traits@G@std@@V?$allocator@G@2@@std@@B=C:\Windows\SysWOW64\BingOnlineServices.?content_type@header_names@http@web@@2V?$basic_string@GU?$char_traits@G@std@@V?$allocator@G@2@@std@@B
  ?content_type@http_headers@http@web@@QBE?AV?$basic_string@GU?$char_traits@G@std@@V?$allocator@G@2@@std@@XZ=C:\Windows\SysWOW64\BingOnlineServices.?content_type@http_headers@http@web@@QBE?AV?$basic_string@GU?$char_traits@G@std@@V?$allocator@G@2@@std@@XZ
  ?date@header_names@http@web@@2V?$basic_string@GU?$char_traits@G@std@@V?$allocator@G@2@@std@@B=C:\Windows\SysWOW64\BingOnlineServices.?date@header_names@http@web@@2V?$basic_string@GU?$char_traits@G@std@@V?$allocator@G@2@@std@@B
  ?date@http_headers@http@web@@QBE?AV?$basic_string@GU?$char_traits@G@std@@V?$allocator@G@2@@std@@XZ=C:\Windows\SysWOW64\BingOnlineServices.?date@http_headers@http@web@@QBE?AV?$basic_string@GU?$char_traits@G@std@@V?$allocator@G@2@@std@@XZ
  ?decode@uri@web@@SA?AV?$basic_string@GU?$char_traits@G@std@@V?$allocator@G@2@@std@@ABV34@@Z=C:\Windows\SysWOW64\BingOnlineServices.?decode@uri@web@@SA?AV?$basic_string@GU?$char_traits@G@std@@V?$allocator@G@2@@std@@ABV34@@Z
  ?decrypt@win32_encryption@details@web@@QBE?AV?$unique_ptr@V?$basic_string@GU?$char_traits@G@std@@V?$allocator@G@2@@std@@Vzero_memory_deleter@details@web@@@std@@XZ=C:\Windows\SysWOW64\BingOnlineServices.?decrypt@win32_encryption@details@web@@QBE?AV?$unique_ptr@V?$basic_string@GU?$char_traits@G@std@@V?$allocator@G@2@@std@@Vzero_memory_deleter@details@web@@@std@@XZ
  ?default_error_condition@windows_category_impl@details@utility@@UBE?AVerror_condition@std@@H@Z=C:\Windows\SysWOW64\BingOnlineServices.?default_error_condition@windows_category_impl@details@utility@@UBE?AVerror_condition@std@@H@Z
  ?encode_data_string@uri@web@@SA?AV?$basic_string@GU?$char_traits@G@std@@V?$allocator@G@2@@std@@ABV34@@Z=C:\Windows\SysWOW64\BingOnlineServices.?encode_data_string@uri@web@@SA?AV?$basic_string@GU?$char_traits@G@std@@V?$allocator@G@2@@std@@ABV34@@Z
  ?encode_impl@uri@web@@CA?AV?$basic_string@GU?$char_traits@G@std@@V?$allocator@G@2@@std@@ABV34@ABV?$function@$$A6A_NH@Z@4@@Z=C:\Windows\SysWOW64\BingOnlineServices.?encode_impl@uri@web@@CA?AV?$basic_string@GU?$char_traits@G@std@@V?$allocator@G@2@@std@@ABV34@ABV?$function@$$A6A_NH@Z@4@@Z
  ?encode_uri@uri@web@@SA?AV?$basic_string@GU?$char_traits@G@std@@V?$allocator@G@2@@std@@ABV34@W4component@components@12@@Z=C:\Windows\SysWOW64\BingOnlineServices.?encode_uri@uri@web@@SA?AV?$basic_string@GU?$char_traits@G@std@@V?$allocator@G@2@@std@@ABV34@W4component@components@12@@Z
  ?erase@value@json@web@@QAEXABV?$basic_string@GU?$char_traits@G@std@@V?$allocator@G@2@@std@@@Z=C:\Windows\SysWOW64\BingOnlineServices.?erase@value@json@web@@QAEXABV?$basic_string@GU?$char_traits@G@std@@V?$allocator@G@2@@std@@@Z
  ?erase@value@json@web@@QAEXI@Z=C:\Windows\SysWOW64\BingOnlineServices.?erase@value@json@web@@QAEXI@Z
  ?etag@header_names@http@web@@2V?$basic_string@GU?$char_traits@G@std@@V?$allocator@G@2@@std@@B=C:\Windows\SysWOW64\BingOnlineServices.?etag@header_names@http@web@@2V?$basic_string@GU?$char_traits@G@std@@V?$allocator@G@2@@std@@B
  ?expect@header_names@http@web@@2V?$basic_string@GU?$char_traits@G@std@@V?$allocator@G@2@@std@@B=C:\Windows\SysWOW64\BingOnlineServices.?expect@header_names@http@web@@2V?$basic_string@GU?$char_traits@G@std@@V?$allocator@G@2@@std@@B
  ?expires@header_names@http@web@@2V?$basic_string@GU?$char_traits@G@std@@V?$allocator@G@2@@std@@B=C:\Windows\SysWOW64\BingOnlineServices.?expires@header_names@http@web@@2V?$basic_string@GU?$char_traits@G@std@@V?$allocator@G@2@@std@@B
  ?extract_string@http_msg_base@details@http@web@@QAE?AV?$basic_string@GU?$char_traits@G@std@@V?$allocator@G@2@@std@@_N@Z=C:\Windows\SysWOW64\BingOnlineServices.?extract_string@http_msg_base@details@http@web@@QAE?AV?$basic_string@GU?$char_traits@G@std@@V?$allocator@G@2@@std@@_N@Z
  ?extract_utf16string@http_msg_base@details@http@web@@QAE?AV?$basic_string@GU?$char_traits@G@std@@V?$allocator@G@2@@std@@_N@Z=C:\Windows\SysWOW64\BingOnlineServices.?extract_utf16string@http_msg_base@details@http@web@@QAE?AV?$basic_string@GU?$char_traits@G@std@@V?$allocator@G@2@@std@@_N@Z
  ?extract_utf8string@http_msg_base@details@http@web@@QAE?AV?$basic_string@DU?$char_traits@D@std@@V?$allocator@D@2@@std@@_N@Z=C:\Windows\SysWOW64\BingOnlineServices.?extract_utf8string@http_msg_base@details@http@web@@QAE?AV?$basic_string@DU?$char_traits@D@std@@V?$allocator@D@2@@std@@_N@Z
  ?form_data@mime_types@details@http@web@@2V?$basic_string@GU?$char_traits@G@std@@V?$allocator@G@2@@std@@B=C:\Windows\SysWOW64\BingOnlineServices.?form_data@mime_types@details@http@web@@2V?$basic_string@GU?$char_traits@G@std@@V?$allocator@G@2@@std@@B
  ?format@value@json@web@@ABEXAAV?$basic_string@DU?$char_traits@D@std@@V?$allocator@D@2@@std@@@Z=C:\Windows\SysWOW64\BingOnlineServices.?format@value@json@web@@ABEXAAV?$basic_string@DU?$char_traits@D@std@@V?$allocator@D@2@@std@@@Z
  ?format@value@json@web@@ABEXAAV?$basic_string@GU?$char_traits@G@std@@V?$allocator@G@2@@std@@@Z=C:\Windows\SysWOW64\BingOnlineServices.?format@value@json@web@@ABEXAAV?$basic_string@GU?$char_traits@G@std@@V?$allocator@G@2@@std@@@Z
  ?from@header_names@http@web@@2V?$basic_string@GU?$char_traits@G@std@@V?$allocator@G@2@@std@@B=C:\Windows\SysWOW64\BingOnlineServices.?from@header_names@http@web@@2V?$basic_string@GU?$char_traits@G@std@@V?$allocator@G@2@@std@@B
  ?from_base64@conversions@utility@@YA?AV?$vector@EV?$allocator@E@std@@@std@@ABV?$basic_string@GU?$char_traits@G@std@@V?$allocator@G@2@@4@@Z=C:\Windows\SysWOW64\BingOnlineServices.?from_base64@conversions@utility@@YA?AV?$vector@EV?$allocator@E@std@@@std@@ABV?$basic_string@GU?$char_traits@G@std@@V?$allocator@G@2@@4@@Z
  ?from_string@datetime@utility@@SA?AV12@ABV?$basic_string@GU?$char_traits@G@std@@V?$allocator@G@2@@std@@W4date_format@12@@Z=C:\Windows\SysWOW64\BingOnlineServices.?from_string@datetime@utility@@SA?AV12@ABV?$basic_string@GU?$char_traits@G@std@@V?$allocator@G@2@@std@@W4date_format@12@@Z
  ?generate@nonce_generator@utility@@QAE?AV?$basic_string@GU?$char_traits@G@std@@V?$allocator@G@2@@std@@XZ=C:\Windows\SysWOW64\BingOnlineServices.?generate@nonce_generator@utility@@QAE?AV?$basic_string@GU?$char_traits@G@std@@V?$allocator@G@2@@std@@XZ
  ?getCacheControl@OnlineServiceData@BingOnlineServices@@QBEABV?$basic_string@GU?$char_traits@G@std@@V?$allocator@G@2@@std@@XZ=C:\Windows\SysWOW64\BingOnlineServices.?getCacheControl@OnlineServiceData@BingOnlineServices@@QBEABV?$basic_string@GU?$char_traits@G@std@@V?$allocator@G@2@@std@@XZ
  ?getContentLength@OnlineServiceData@BingOnlineServices@@QBE?B_JXZ=C:\Windows\SysWOW64\BingOnlineServices.?getContentLength@OnlineServiceData@BingOnlineServices@@QBE?B_JXZ
  ?getContentType@OnlineServiceData@BingOnlineServices@@QBEABV?$basic_string@GU?$char_traits@G@std@@V?$allocator@G@2@@std@@XZ=C:\Windows\SysWOW64\BingOnlineServices.?getContentType@OnlineServiceData@BingOnlineServices@@QBEABV?$basic_string@GU?$char_traits@G@std@@V?$allocator@G@2@@std@@XZ
  ?getCookies@OnlineServiceData@BingOnlineServices@@QBEABV?$basic_string@GU?$char_traits@G@std@@V?$allocator@G@2@@std@@XZ=C:\Windows\SysWOW64\BingOnlineServices.?getCookies@OnlineServiceData@BingOnlineServices@@QBEABV?$basic_string@GU?$char_traits@G@std@@V?$allocator@G@2@@std@@XZ
  ?getHttpStatus@OnlineServiceData@BingOnlineServices@@QBE?BHXZ=C:\Windows\SysWOW64\BingOnlineServices.?getHttpStatus@OnlineServiceData@BingOnlineServices@@QBE?BHXZ
  ?getImageryProviders@CopyrightData@BingOnlineServices@@QBEABV?$vector@V?$basic_string@GU?$char_traits@G@std@@V?$allocator@G@2@@std@@V?$allocator@V?$basic_string@GU?$char_traits@G@std@@V?$allocator@G@2@@std@@@2@@std@@XZ=C:\Windows\SysWOW64\BingOnlineServices.?getImageryProviders@CopyrightData@BingOnlineServices@@QBEABV?$vector@V?$basic_string@GU?$char_traits@G@std@@V?$allocator@G@2@@std@@V?$allocator@V?$basic_string@GU?$char_traits@G@std@@V?$allocator@G@2@@std@@@2@@std@@XZ
  ?getMaxAgeInSeconds@OnlineServiceData@BingOnlineServices@@QBE?BIXZ=C:\Windows\SysWOW64\BingOnlineServices.?getMaxAgeInSeconds@OnlineServiceData@BingOnlineServices@@QBE?BIXZ
  ?get_ambient_scheduler@pplx@@YA?AV?$shared_ptr@Uscheduler_interface@pplx@@@std@@XZ=C:\Windows\SysWOW64\BingOnlineServices.?get_ambient_scheduler@pplx@@YA?AV?$shared_ptr@Uscheduler_interface@pplx@@@std@@XZ
  ?hmac_sha1@oauth1_methods@experimental@oauth1@http@web@@2V?$basic_string@GU?$char_traits@G@std@@V?$allocator@G@2@@std@@B=C:\Windows\SysWOW64\BingOnlineServices.?hmac_sha1@oauth1_methods@experimental@oauth1@http@web@@2V?$basic_string@GU?$char_traits@G@std@@V?$allocator@G@2@@std@@B
  ?host@header_names@http@web@@2V?$basic_string@GU?$char_traits@G@std@@V?$allocator@G@2@@std@@B=C:\Windows\SysWOW64\BingOnlineServices.?host@header_names@http@web@@2V?$basic_string@GU?$char_traits@G@std@@V?$allocator@G@2@@std@@B
  ?if_match@header_names@http@web@@2V?$basic_string@GU?$char_traits@G@std@@V?$allocator@G@2@@std@@B=C:\Windows\SysWOW64\BingOnlineServices.?if_match@header_names@http@web@@2V?$basic_string@GU?$char_traits@G@std@@V?$allocator@G@2@@std@@B
  ?if_modified_since@header_names@http@web@@2V?$basic_string@GU?$char_traits@G@std@@V?$allocator@G@2@@std@@B=C:\Windows\SysWOW64\BingOnlineServices.?if_modified_since@header_names@http@web@@2V?$basic_string@GU?$char_traits@G@std@@V?$allocator@G@2@@std@@B
  ?if_none_match@header_names@http@web@@2V?$basic_string@GU?$char_traits@G@std@@V?$allocator@G@2@@std@@B=C:\Windows\SysWOW64\BingOnlineServices.?if_none_match@header_names@http@web@@2V?$basic_string@GU?$char_traits@G@std@@V?$allocator@G@2@@std@@B
  ?if_range@header_names@http@web@@2V?$basic_string@GU?$char_traits@G@std@@V?$allocator@G@2@@std@@B=C:\Windows\SysWOW64\BingOnlineServices.?if_range@header_names@http@web@@2V?$basic_string@GU?$char_traits@G@std@@V?$allocator@G@2@@std@@B
  ?if_unmodified_since@header_names@http@web@@2V?$basic_string@GU?$char_traits@G@std@@V?$allocator@G@2@@std@@B=C:\Windows\SysWOW64\BingOnlineServices.?if_unmodified_since@header_names@http@web@@2V?$basic_string@GU?$char_traits@G@std@@V?$allocator@G@2@@std@@B
  ?is_double@value@json@web@@QBE_NXZ=C:\Windows\SysWOW64\BingOnlineServices.?is_double@value@json@web@@QBE_NXZ
  ?is_int32@number@json@web@@QBE_NXZ=C:\Windows\SysWOW64\BingOnlineServices.?is_int32@number@json@web@@QBE_NXZ
  ?is_int64@number@json@web@@QBE_NXZ=C:\Windows\SysWOW64\BingOnlineServices.?is_int64@number@json@web@@QBE_NXZ
  ?is_integer@value@json@web@@QBE_NXZ=C:\Windows\SysWOW64\BingOnlineServices.?is_integer@value@json@web@@QBE_NXZ
  ?is_uint32@number@json@web@@QBE_NXZ=C:\Windows\SysWOW64\BingOnlineServices.?is_uint32@number@json@web@@QBE_NXZ
  ?is_valid@uri_builder@web@@QAE_NXZ=C:\Windows\SysWOW64\BingOnlineServices.?is_valid@uri_builder@web@@QAE_NXZ
  ?join@uri_components@details@web@@QAE?AV?$basic_string@GU?$char_traits@G@std@@V?$allocator@G@2@@std@@XZ=C:\Windows\SysWOW64\BingOnlineServices.?join@uri_components@details@web@@QAE?AV?$basic_string@GU?$char_traits@G@std@@V?$allocator@G@2@@std@@XZ
  ?keep_object_element_order@json@web@@YAX_N@Z=C:\Windows\SysWOW64\BingOnlineServices.?keep_object_element_order@json@web@@YAX_N@Z
  ?last_modified@header_names@http@web@@2V?$basic_string@GU?$char_traits@G@std@@V?$allocator@G@2@@std@@B=C:\Windows\SysWOW64\BingOnlineServices.?last_modified@header_names@http@web@@2V?$basic_string@GU?$char_traits@G@std@@V?$allocator@G@2@@std@@B
  ?latin1@charset_types@details@http@web@@2V?$basic_string@GU?$char_traits@G@std@@V?$allocator@G@2@@std@@B=C:\Windows\SysWOW64\BingOnlineServices.?latin1@charset_types@details@http@web@@2V?$basic_string@GU?$char_traits@G@std@@V?$allocator@G@2@@std@@B
  ?latin1_to_utf16@conversions@utility@@YA?AV?$basic_string@GU?$char_traits@G@std@@V?$allocator@G@2@@std@@ABV?$basic_string@DU?$char_traits@D@std@@V?$allocator@D@2@@4@@Z=C:\Windows\SysWOW64\BingOnlineServices.?latin1_to_utf16@conversions@utility@@YA?AV?$basic_string@GU?$char_traits@G@std@@V?$allocator@G@2@@std@@ABV?$basic_string@DU?$char_traits@D@std@@V?$allocator@D@2@@4@@Z
  ?latin1_to_utf8@conversions@utility@@YA?AV?$basic_string@DU?$char_traits@D@std@@V?$allocator@D@2@@std@@ABV34@@Z=C:\Windows\SysWOW64\BingOnlineServices.?latin1_to_utf8@conversions@utility@@YA?AV?$basic_string@DU?$char_traits@D@std@@V?$allocator@D@2@@std@@ABV34@@Z
  ?location@header_names@http@web@@2V?$basic_string@GU?$char_traits@G@std@@V?$allocator@G@2@@std@@B=C:\Windows\SysWOW64\BingOnlineServices.?location@header_names@http@web@@2V?$basic_string@GU?$char_traits@G@std@@V?$allocator@G@2@@std@@B
  ?lock@critical_section_impl@details@pplx@@QAEXXZ=C:\Windows\SysWOW64\BingOnlineServices.?lock@critical_section_impl@details@pplx@@QAEXXZ
  ?lock@reader_writer_lock_impl@details@pplx@@QAEXXZ=C:\Windows\SysWOW64\BingOnlineServices.?lock@reader_writer_lock_impl@details@pplx@@QAEXXZ
  ?lock_read@reader_writer_lock_impl@details@pplx@@QAEXXZ=C:\Windows\SysWOW64\BingOnlineServices.?lock_read@reader_writer_lock_impl@details@pplx@@QAEXXZ
  ?ltrim_whitespace@details@http@web@@YAXAAV?$basic_string@GU?$char_traits@G@std@@V?$allocator@G@2@@std@@@Z=C:\Windows\SysWOW64\BingOnlineServices.?ltrim_whitespace@details@http@web@@YAXAAV?$basic_string@GU?$char_traits@G@std@@V?$allocator@G@2@@std@@@Z
  ?max_forwards@header_names@http@web@@2V?$basic_string@GU?$char_traits@G@std@@V?$allocator@G@2@@std@@B=C:\Windows\SysWOW64\BingOnlineServices.?max_forwards@header_names@http@web@@2V?$basic_string@GU?$char_traits@G@std@@V?$allocator@G@2@@std@@B
  ?message@windows_category_impl@details@utility@@UBE?AV?$basic_string@DU?$char_traits@D@std@@V?$allocator@D@2@@std@@H@Z=C:\Windows\SysWOW64\BingOnlineServices.?message@windows_category_impl@details@utility@@UBE?AV?$basic_string@DU?$char_traits@D@std@@V?$allocator@D@2@@std@@H@Z
  ?message_http@mime_types@details@http@web@@2V?$basic_string@GU?$char_traits@G@std@@V?$allocator@G@2@@std@@B=C:\Windows\SysWOW64\BingOnlineServices.?message_http@mime_types@details@http@web@@2V?$basic_string@GU?$char_traits@G@std@@V?$allocator@G@2@@std@@B
  ?multipart_form_data@mime_types@details@http@web@@2V?$basic_string@GU?$char_traits@G@std@@V?$allocator@G@2@@std@@B=C:\Windows\SysWOW64\BingOnlineServices.?multipart_form_data@mime_types@details@http@web@@2V?$basic_string@GU?$char_traits@G@std@@V?$allocator@G@2@@std@@B
  ?nonce@oauth1_strings@details@oauth1@http@web@@2V?$basic_string@GU?$char_traits@G@std@@V?$allocator@G@2@@std@@B=C:\Windows\SysWOW64\BingOnlineServices.?nonce@oauth1_strings@details@oauth1@http@web@@2V?$basic_string@GU?$char_traits@G@std@@V?$allocator@G@2@@std@@B
  ?null@value@json@web@@SA?AV123@XZ=C:\Windows\SysWOW64\BingOnlineServices.?null@value@json@web@@SA?AV123@XZ
  ?number@value@json@web@@SA?AV123@H@Z=C:\Windows\SysWOW64\BingOnlineServices.?number@value@json@web@@SA?AV123@H@Z
  ?number@value@json@web@@SA?AV123@I@Z=C:\Windows\SysWOW64\BingOnlineServices.?number@value@json@web@@SA?AV123@I@Z
  ?number@value@json@web@@SA?AV123@N@Z=C:\Windows\SysWOW64\BingOnlineServices.?number@value@json@web@@SA?AV123@N@Z
  ?number@value@json@web@@SA?AV123@_J@Z=C:\Windows\SysWOW64\BingOnlineServices.?number@value@json@web@@SA?AV123@_J@Z
  ?number@value@json@web@@SA?AV123@_K@Z=C:\Windows\SysWOW64\BingOnlineServices.?number@value@json@web@@SA?AV123@_K@Z
  ?object@value@json@web@@SA?AV123@V?$vector@U?$pair@V?$basic_string@GU?$char_traits@G@std@@V?$allocator@G@2@@std@@Vvalue@json@web@@@std@@V?$allocator@U?$pair@V?$basic_string@GU?$char_traits@G@std@@V?$allocator@G@2@@std@@Vvalue@json@web@@@std@@@2@@std@@_N@Z=C:\Windows\SysWOW64\BingOnlineServices.?object@value@json@web@@SA?AV123@V?$vector@U?$pair@V?$basic_string@GU?$char_traits@G@std@@V?$allocator@G@2@@std@@Vvalue@json@web@@@std@@V?$allocator@U?$pair@V?$basic_string@GU?$char_traits@G@std@@V?$allocator@G@2@@std@@Vvalue@json@web@@@std@@@2@@std@@_N@Z
  ?object@value@json@web@@SA?AV123@_N@Z=C:\Windows\SysWOW64\BingOnlineServices.?object@value@json@web@@SA?AV123@_N@Z
  ?parse@value@json@web@@SA?AV123@AAV?$basic_istream@DU?$char_traits@D@std@@@std@@@Z=C:\Windows\SysWOW64\BingOnlineServices.?parse@value@json@web@@SA?AV123@AAV?$basic_istream@DU?$char_traits@D@std@@@std@@@Z
  ?parse@value@json@web@@SA?AV123@AAV?$basic_istream@DU?$char_traits@D@std@@@std@@AAVerror_code@5@@Z=C:\Windows\SysWOW64\BingOnlineServices.?parse@value@json@web@@SA?AV123@AAV?$basic_istream@DU?$char_traits@D@std@@@std@@AAVerror_code@5@@Z
  ?parse@value@json@web@@SA?AV123@AAV?$basic_istream@GU?$char_traits@G@std@@@std@@@Z=C:\Windows\SysWOW64\BingOnlineServices.?parse@value@json@web@@SA?AV123@AAV?$basic_istream@GU?$char_traits@G@std@@@std@@@Z
  ?parse@value@json@web@@SA?AV123@AAV?$basic_istream@GU?$char_traits@G@std@@@std@@AAVerror_code@5@@Z=C:\Windows\SysWOW64\BingOnlineServices.?parse@value@json@web@@SA?AV123@AAV?$basic_istream@GU?$char_traits@G@std@@@std@@AAVerror_code@5@@Z
  ?parse@value@json@web@@SA?AV123@ABV?$basic_string@GU?$char_traits@G@std@@V?$allocator@G@2@@std@@@Z=C:\Windows\SysWOW64\BingOnlineServices.?parse@value@json@web@@SA?AV123@ABV?$basic_string@GU?$char_traits@G@std@@V?$allocator@G@2@@std@@@Z
  ?parse@value@json@web@@SA?AV123@ABV?$basic_string@GU?$char_traits@G@std@@V?$allocator@G@2@@std@@AAVerror_code@5@@Z=C:\Windows\SysWOW64\BingOnlineServices.?parse@value@json@web@@SA?AV123@ABV?$basic_string@GU?$char_traits@G@std@@V?$allocator@G@2@@std@@AAVerror_code@5@@Z
  ?plaintext@oauth1_methods@experimental@oauth1@http@web@@2V?$basic_string@GU?$char_traits@G@std@@V?$allocator@G@2@@std@@B=C:\Windows\SysWOW64\BingOnlineServices.?plaintext@oauth1_methods@experimental@oauth1@http@web@@2V?$basic_string@GU?$char_traits@G@std@@V?$allocator@G@2@@std@@B
  ?platform_category@details@utility@@YAABVerror_category@std@@XZ=C:\Windows\SysWOW64\BingOnlineServices.?platform_category@details@utility@@YAABVerror_category@std@@XZ
  ?pragma@header_names@http@web@@2V?$basic_string@GU?$char_traits@G@std@@V?$allocator@G@2@@std@@B=C:\Windows\SysWOW64\BingOnlineServices.?pragma@header_names@http@web@@2V?$basic_string@GU?$char_traits@G@std@@V?$allocator@G@2@@std@@B
  ?proxy_authenticate@header_names@http@web@@2V?$basic_string@GU?$char_traits@G@std@@V?$allocator@G@2@@std@@B=C:\Windows\SysWOW64\BingOnlineServices.?proxy_authenticate@header_names@http@web@@2V?$basic_string@GU?$char_traits@G@std@@V?$allocator@G@2@@std@@B
  ?proxy_authorization@header_names@http@web@@2V?$basic_string@GU?$char_traits@G@std@@V?$allocator@G@2@@std@@B=C:\Windows\SysWOW64\BingOnlineServices.?proxy_authorization@header_names@http@web@@2V?$basic_string@GU?$char_traits@G@std@@V?$allocator@G@2@@std@@B
  ?range@header_names@http@web@@2V?$basic_string@GU?$char_traits@G@std@@V?$allocator@G@2@@std@@B=C:\Windows\SysWOW64\BingOnlineServices.?range@header_names@http@web@@2V?$basic_string@GU?$char_traits@G@std@@V?$allocator@G@2@@std@@B
  ?realm@oauth1_strings@details@oauth1@http@web@@2V?$basic_string@GU?$char_traits@G@std@@V?$allocator@G@2@@std@@B=C:\Windows\SysWOW64\BingOnlineServices.?realm@oauth1_strings@details@oauth1@http@web@@2V?$basic_string@GU?$char_traits@G@std@@V?$allocator@G@2@@std@@B
  ?referer@header_names@http@web@@2V?$basic_string@GU?$char_traits@G@std@@V?$allocator@G@2@@std@@B=C:\Windows\SysWOW64\BingOnlineServices.?referer@header_names@http@web@@2V?$basic_string@GU?$char_traits@G@std@@V?$allocator@G@2@@std@@B
  ?relative_uri@_http_request@details@http@web@@QBE?AVuri@4@XZ=C:\Windows\SysWOW64\BingOnlineServices.?relative_uri@_http_request@details@http@web@@QBE?AVuri@4@XZ
  ?request@http_client@client@http@web@@QAE?AV?$task@Vhttp_response@http@web@@@pplx@@Vhttp_request@34@ABVcancellation_token@6@@Z=C:\Windows\SysWOW64\BingOnlineServices.?request@http_client@client@http@web@@QAE?AV?$task@Vhttp_response@http@web@@@pplx@@Vhttp_request@34@ABVcancellation_token@6@@Z
  ?reset@event_impl@details@pplx@@QAEXXZ=C:\Windows\SysWOW64\BingOnlineServices.?reset@event_impl@details@pplx@@QAEXXZ
  ?resource@uri@web@@QBE?AV12@XZ=C:\Windows\SysWOW64\BingOnlineServices.?resource@uri@web@@QBE?AV12@XZ
  ?retry_after@header_names@http@web@@2V?$basic_string@GU?$char_traits@G@std@@V?$allocator@G@2@@std@@B=C:\Windows\SysWOW64\BingOnlineServices.?retry_after@header_names@http@web@@2V?$basic_string@GU?$char_traits@G@std@@V?$allocator@G@2@@std@@B
  ?rtrim_whitespace@details@http@web@@YAXAAV?$basic_string@GU?$char_traits@G@std@@V?$allocator@G@2@@std@@@Z=C:\Windows\SysWOW64\BingOnlineServices.?rtrim_whitespace@details@http@web@@YAXAAV?$basic_string@GU?$char_traits@G@std@@V?$allocator@G@2@@std@@@Z
  ?s_cancellationToken@ServiceRequestHelper@BingOnlineServices@@0Vcancellation_token_source@pplx@@A=C:\Windows\SysWOW64\BingOnlineServices.?s_cancellationToken@ServiceRequestHelper@BingOnlineServices@@0Vcancellation_token_source@pplx@@A
  ?s_runningInService@ServiceRequestHelper@BingOnlineServices@@0_NA=C:\Windows\SysWOW64\BingOnlineServices.?s_runningInService@ServiceRequestHelper@BingOnlineServices@@0_NA
  ?sc_maxAgeRegex@?1??getMaxAgeInSeconds@OnlineServiceData@BingOnlineServices@@QBE?BIXZ@4V?$basic_regex@GV?$regex_traits@G@std@@@std@@B=C:\Windows\SysWOW64\BingOnlineServices.?sc_maxAgeRegex@?1??getMaxAgeInSeconds@OnlineServiceData@BingOnlineServices@@QBE?BIXZ@4V?$basic_regex@GV?$regex_traits@G@std@@@std@@B
  ?schedule@windows_scheduler@details@pplx@@UAEXP6AXPAX@Z0@Z=C:\Windows\SysWOW64\BingOnlineServices.?schedule@windows_scheduler@details@pplx@@UAEXP6AXPAX@Z0@Z
  ?seconds_to_xml_duration@timespan@utility@@YA?AV?$basic_string@GU?$char_traits@G@std@@V?$allocator@G@2@@std@@V?$duration@_JU?$ratio@$00$00@std@@@chrono@4@@Z=C:\Windows\SysWOW64\BingOnlineServices.?seconds_to_xml_duration@timespan@utility@@YA?AV?$basic_string@GU?$char_traits@G@std@@V?$allocator@G@2@@std@@V?$duration@_JU?$ratio@$00$00@std@@@chrono@4@@Z
  ?serialize@value@json@web@@QBE?AV?$basic_string@GU?$char_traits@G@std@@V?$allocator@G@2@@std@@XZ=C:\Windows\SysWOW64\BingOnlineServices.?serialize@value@json@web@@QBE?AV?$basic_string@GU?$char_traits@G@std@@V?$allocator@G@2@@std@@XZ
  ?serialize@value@json@web@@QBEXAAV?$basic_ostream@DU?$char_traits@D@std@@@std@@@Z=C:\Windows\SysWOW64\BingOnlineServices.?serialize@value@json@web@@QBEXAAV?$basic_ostream@DU?$char_traits@D@std@@@std@@@Z
  ?serialize@value@json@web@@QBEXAAV?$basic_ostream@GU?$char_traits@G@std@@@std@@@Z=C:\Windows\SysWOW64\BingOnlineServices.?serialize@value@json@web@@QBEXAAV?$basic_ostream@GU?$char_traits@G@std@@@std@@@Z
  ?server@header_names@http@web@@2V?$basic_string@GU?$char_traits@G@std@@V?$allocator@G@2@@std@@B=C:\Windows\SysWOW64\BingOnlineServices.?server@header_names@http@web@@2V?$basic_string@GU?$char_traits@G@std@@V?$allocator@G@2@@std@@B
  ?set@event_impl@details@pplx@@QAEXXZ=C:\Windows\SysWOW64\BingOnlineServices.?set@event_impl@details@pplx@@QAEXXZ
  ?set_ambient_scheduler@pplx@@YAXV?$shared_ptr@Uscheduler_interface@pplx@@@std@@@Z=C:\Windows\SysWOW64\BingOnlineServices.?set_ambient_scheduler@pplx@@YAXV?$shared_ptr@Uscheduler_interface@pplx@@@std@@@Z
  ?set_body@http_msg_base@details@http@web@@QAEXABV?$basic_istream@E@streams@Concurrency@@ABV?$basic_string@DU?$char_traits@D@std@@V?$allocator@D@2@@std@@@Z=C:\Windows\SysWOW64\BingOnlineServices.?set_body@http_msg_base@details@http@web@@QAEXABV?$basic_istream@E@streams@Concurrency@@ABV?$basic_string@DU?$char_traits@D@std@@V?$allocator@D@2@@std@@@Z
  ?set_body@http_msg_base@details@http@web@@QAEXABV?$basic_istream@E@streams@Concurrency@@ABV?$basic_string@GU?$char_traits@G@std@@V?$allocator@G@2@@std@@@Z=C:\Windows\SysWOW64\BingOnlineServices.?set_body@http_msg_base@details@http@web@@QAEXABV?$basic_istream@E@streams@Concurrency@@ABV?$basic_string@GU?$char_traits@G@std@@V?$allocator@G@2@@std@@@Z
  ?set_body@http_msg_base@details@http@web@@QAEXABV?$basic_istream@E@streams@Concurrency@@_KABV?$basic_string@DU?$char_traits@D@std@@V?$allocator@D@2@@std@@@Z=C:\Windows\SysWOW64\BingOnlineServices.?set_body@http_msg_base@details@http@web@@QAEXABV?$basic_istream@E@streams@Concurrency@@_KABV?$basic_string@DU?$char_traits@D@std@@V?$allocator@D@2@@std@@@Z
  ?set_body@http_msg_base@details@http@web@@QAEXABV?$basic_istream@E@streams@Concurrency@@_KABV?$basic_string@GU?$char_traits@G@std@@V?$allocator@G@2@@std@@@Z=C:\Windows\SysWOW64\BingOnlineServices.?set_body@http_msg_base@details@http@web@@QAEXABV?$basic_istream@E@streams@Concurrency@@_KABV?$basic_string@GU?$char_traits@G@std@@V?$allocator@G@2@@std@@@Z
  ?set_cache_control@http_headers@http@web@@QAEXV?$basic_string@GU?$char_traits@G@std@@V?$allocator@G@2@@std@@@Z=C:\Windows\SysWOW64\BingOnlineServices.?set_cache_control@http_headers@http@web@@QAEXV?$basic_string@GU?$char_traits@G@std@@V?$allocator@G@2@@std@@@Z
  ?set_content_length@http_headers@http@web@@QAEX_K@Z=C:\Windows\SysWOW64\BingOnlineServices.?set_content_length@http_headers@http@web@@QAEX_K@Z
  ?set_content_type@http_headers@http@web@@QAEXV?$basic_string@GU?$char_traits@G@std@@V?$allocator@G@2@@std@@@Z=C:\Windows\SysWOW64\BingOnlineServices.?set_content_type@http_headers@http@web@@QAEXV?$basic_string@GU?$char_traits@G@std@@V?$allocator@G@2@@std@@@Z
  ?set_date@http_headers@http@web@@QAEXABVdatetime@utility@@@Z=C:\Windows\SysWOW64\BingOnlineServices.?set_date@http_headers@http@web@@QAEXABVdatetime@utility@@@Z
  ?set_request_uri@_http_request@details@http@web@@QAEXABVuri@4@@Z=C:\Windows\SysWOW64\BingOnlineServices.?set_request_uri@_http_request@details@http@web@@QAEXABVuri@4@@Z
  ?signature@oauth1_strings@details@oauth1@http@web@@2V?$basic_string@GU?$char_traits@G@std@@V?$allocator@G@2@@std@@B=C:\Windows\SysWOW64\BingOnlineServices.?signature@oauth1_strings@details@oauth1@http@web@@2V?$basic_string@GU?$char_traits@G@std@@V?$allocator@G@2@@std@@B
  ?signature_method@oauth1_strings@details@oauth1@http@web@@2V?$basic_string@GU?$char_traits@G@std@@V?$allocator@G@2@@std@@B=C:\Windows\SysWOW64\BingOnlineServices.?signature_method@oauth1_strings@details@oauth1@http@web@@2V?$basic_string@GU?$char_traits@G@std@@V?$allocator@G@2@@std@@B
  ?split_path@uri@web@@SA?AV?$vector@V?$basic_string@GU?$char_traits@G@std@@V?$allocator@G@2@@std@@V?$allocator@V?$basic_string@GU?$char_traits@G@std@@V?$allocator@G@2@@std@@@2@@std@@ABV?$basic_string@GU?$char_traits@G@std@@V?$allocator@G@2@@4@@Z=C:\Windows\SysWOW64\BingOnlineServices.?split_path@uri@web@@SA?AV?$vector@V?$basic_string@GU?$char_traits@G@std@@V?$allocator@G@2@@std@@V?$allocator@V?$basic_string@GU?$char_traits@G@std@@V?$allocator@G@2@@std@@@2@@std@@ABV?$basic_string@GU?$char_traits@G@std@@V?$allocator@G@2@@4@@Z
  ?split_query@uri@web@@SA?AV?$map@V?$basic_string@GU?$char_traits@G@std@@V?$allocator@G@2@@std@@V12@U?$less@V?$basic_string@GU?$char_traits@G@std@@V?$allocator@G@2@@std@@@2@V?$allocator@U?$pair@$$CBV?$basic_string@GU?$char_traits@G@std@@V?$allocator@G@2@@std@@V12@@std@@@2@@std@@ABV?$basic_string@GU?$char_traits@G@std@@V?$allocator@G@2@@4@@Z=C:\Windows\SysWOW64\BingOnlineServices.?split_query@uri@web@@SA?AV?$map@V?$basic_string@GU?$char_traits@G@std@@V?$allocator@G@2@@std@@V12@U?$less@V?$basic_string@GU?$char_traits@G@std@@V?$allocator@G@2@@std@@@2@V?$allocator@U?$pair@$$CBV?$basic_string@GU?$char_traits@G@std@@V?$allocator@G@2@@std@@V12@@std@@@2@@std@@ABV?$basic_string@GU?$char_traits@G@std@@V?$allocator@G@2@@4@@Z
  ?string@value@json@web@@CA?AV123@ABV?$basic_string@DU?$char_traits@D@std@@V?$allocator@D@2@@std@@@Z=C:\Windows\SysWOW64\BingOnlineServices.?string@value@json@web@@CA?AV123@ABV?$basic_string@DU?$char_traits@D@std@@V?$allocator@D@2@@std@@@Z
  ?string@value@json@web@@SA?AV123@V?$basic_string@GU?$char_traits@G@std@@V?$allocator@G@2@@std@@@Z=C:\Windows\SysWOW64\BingOnlineServices.?string@value@json@web@@SA?AV123@V?$basic_string@GU?$char_traits@G@std@@V?$allocator@G@2@@std@@@Z
  ?string@value@json@web@@SA?AV123@V?$basic_string@GU?$char_traits@G@std@@V?$allocator@G@2@@std@@_N@Z=C:\Windows\SysWOW64\BingOnlineServices.?string@value@json@web@@SA?AV123@V?$basic_string@GU?$char_traits@G@std@@V?$allocator@G@2@@std@@_N@Z
  ?system_type_to_datetime@datetime@utility@@CA_NPAX_KPAV12@@Z=C:\Windows\SysWOW64\BingOnlineServices.?system_type_to_datetime@datetime@utility@@CA_NPAX_KPAV12@@Z
  ?te@header_names@http@web@@2V?$basic_string@GU?$char_traits@G@std@@V?$allocator@G@2@@std@@B=C:\Windows\SysWOW64\BingOnlineServices.?te@header_names@http@web@@2V?$basic_string@GU?$char_traits@G@std@@V?$allocator@G@2@@std@@B
  ?text@mime_types@details@http@web@@2V?$basic_string@GU?$char_traits@G@std@@V?$allocator@G@2@@std@@B=C:\Windows\SysWOW64\BingOnlineServices.?text@mime_types@details@http@web@@2V?$basic_string@GU?$char_traits@G@std@@V?$allocator@G@2@@std@@B
  ?text_javascript@mime_types@details@http@web@@2V?$basic_string@GU?$char_traits@G@std@@V?$allocator@G@2@@std@@B=C:\Windows\SysWOW64\BingOnlineServices.?text_javascript@mime_types@details@http@web@@2V?$basic_string@GU?$char_traits@G@std@@V?$allocator@G@2@@std@@B
  ?text_json@mime_types@details@http@web@@2V?$basic_string@GU?$char_traits@G@std@@V?$allocator@G@2@@std@@B=C:\Windows\SysWOW64\BingOnlineServices.?text_json@mime_types@details@http@web@@2V?$basic_string@GU?$char_traits@G@std@@V?$allocator@G@2@@std@@B
  ?text_plain@mime_types@details@http@web@@2V?$basic_string@GU?$char_traits@G@std@@V?$allocator@G@2@@std@@B=C:\Windows\SysWOW64\BingOnlineServices.?text_plain@mime_types@details@http@web@@2V?$basic_string@GU?$char_traits@G@std@@V?$allocator@G@2@@std@@B
  ?text_plain_utf16@mime_types@details@http@web@@2V?$basic_string@GU?$char_traits@G@std@@V?$allocator@G@2@@std@@B=C:\Windows\SysWOW64\BingOnlineServices.?text_plain_utf16@mime_types@details@http@web@@2V?$basic_string@GU?$char_traits@G@std@@V?$allocator@G@2@@std@@B
  ?text_plain_utf16le@mime_types@details@http@web@@2V?$basic_string@GU?$char_traits@G@std@@V?$allocator@G@2@@std@@B=C:\Windows\SysWOW64\BingOnlineServices.?text_plain_utf16le@mime_types@details@http@web@@2V?$basic_string@GU?$char_traits@G@std@@V?$allocator@G@2@@std@@B
  ?text_plain_utf8@mime_types@details@http@web@@2V?$basic_string@GU?$char_traits@G@std@@V?$allocator@G@2@@std@@B=C:\Windows\SysWOW64\BingOnlineServices.?text_plain_utf8@mime_types@details@http@web@@2V?$basic_string@GU?$char_traits@G@std@@V?$allocator@G@2@@std@@B
  ?text_xjavascript@mime_types@details@http@web@@2V?$basic_string@GU?$char_traits@G@std@@V?$allocator@G@2@@std@@B=C:\Windows\SysWOW64\BingOnlineServices.?text_xjavascript@mime_types@details@http@web@@2V?$basic_string@GU?$char_traits@G@std@@V?$allocator@G@2@@std@@B
  ?text_xjson@mime_types@details@http@web@@2V?$basic_string@GU?$char_traits@G@std@@V?$allocator@G@2@@std@@B=C:\Windows\SysWOW64\BingOnlineServices.?text_xjson@mime_types@details@http@web@@2V?$basic_string@GU?$char_traits@G@std@@V?$allocator@G@2@@std@@B
  ?timestamp@oauth1_strings@details@oauth1@http@web@@2V?$basic_string@GU?$char_traits@G@std@@V?$allocator@G@2@@std@@B=C:\Windows\SysWOW64\BingOnlineServices.?timestamp@oauth1_strings@details@oauth1@http@web@@2V?$basic_string@GU?$char_traits@G@std@@V?$allocator@G@2@@std@@B
  ?to_base64@conversions@utility@@YA?AV?$basic_string@GU?$char_traits@G@std@@V?$allocator@G@2@@std@@ABV?$vector@EV?$allocator@E@std@@@4@@Z=C:\Windows\SysWOW64\BingOnlineServices.?to_base64@conversions@utility@@YA?AV?$basic_string@GU?$char_traits@G@std@@V?$allocator@G@2@@std@@ABV?$vector@EV?$allocator@E@std@@@4@@Z
  ?to_base64@conversions@utility@@YA?AV?$basic_string@GU?$char_traits@G@std@@V?$allocator@G@2@@std@@_K@Z=C:\Windows\SysWOW64\BingOnlineServices.?to_base64@conversions@utility@@YA?AV?$basic_string@GU?$char_traits@G@std@@V?$allocator@G@2@@std@@_K@Z
  ?to_string@_http_request@details@http@web@@UBE?AV?$basic_string@GU?$char_traits@G@std@@V?$allocator@G@2@@std@@XZ=C:\Windows\SysWOW64\BingOnlineServices.?to_string@_http_request@details@http@web@@UBE?AV?$basic_string@GU?$char_traits@G@std@@V?$allocator@G@2@@std@@XZ
  ?to_string@_http_response@details@http@web@@UBE?AV?$basic_string@GU?$char_traits@G@std@@V?$allocator@G@2@@std@@XZ=C:\Windows\SysWOW64\BingOnlineServices.?to_string@_http_response@details@http@web@@UBE?AV?$basic_string@GU?$char_traits@G@std@@V?$allocator@G@2@@std@@XZ
  ?to_string@datetime@utility@@QBE?AV?$basic_string@GU?$char_traits@G@std@@V?$allocator@G@2@@std@@W4date_format@12@@Z=C:\Windows\SysWOW64\BingOnlineServices.?to_string@datetime@utility@@QBE?AV?$basic_string@GU?$char_traits@G@std@@V?$allocator@G@2@@std@@W4date_format@12@@Z
  ?to_string@http_msg_base@details@http@web@@UBE?AV?$basic_string@GU?$char_traits@G@std@@V?$allocator@G@2@@std@@XZ=C:\Windows\SysWOW64\BingOnlineServices.?to_string@http_msg_base@details@http@web@@UBE?AV?$basic_string@GU?$char_traits@G@std@@V?$allocator@G@2@@std@@XZ
  ?to_string@uri_builder@web@@QAE?AV?$basic_string@GU?$char_traits@G@std@@V?$allocator@G@2@@std@@XZ=C:\Windows\SysWOW64\BingOnlineServices.?to_string@uri_builder@web@@QAE?AV?$basic_string@GU?$char_traits@G@std@@V?$allocator@G@2@@std@@XZ
  ?to_string@value@json@web@@QBE?AV?$basic_string@GU?$char_traits@G@std@@V?$allocator@G@2@@std@@XZ=C:\Windows\SysWOW64\BingOnlineServices.?to_string@value@json@web@@QBE?AV?$basic_string@GU?$char_traits@G@std@@V?$allocator@G@2@@std@@XZ
  ?to_string_t@conversions@utility@@YA?AV?$basic_string@GU?$char_traits@G@std@@V?$allocator@G@2@@std@@$$QAV34@@Z=C:\Windows\SysWOW64\BingOnlineServices.?to_string_t@conversions@utility@@YA?AV?$basic_string@GU?$char_traits@G@std@@V?$allocator@G@2@@std@@$$QAV34@@Z
  ?to_string_t@conversions@utility@@YA?AV?$basic_string@GU?$char_traits@G@std@@V?$allocator@G@2@@std@@$$QAV?$basic_string@DU?$char_traits@D@std@@V?$allocator@D@2@@4@@Z=C:\Windows\SysWOW64\BingOnlineServices.?to_string_t@conversions@utility@@YA?AV?$basic_string@GU?$char_traits@G@std@@V?$allocator@G@2@@std@@$$QAV?$basic_string@DU?$char_traits@D@std@@V?$allocator@D@2@@4@@Z
  ?to_string_t@conversions@utility@@YA?AV?$basic_string@GU?$char_traits@G@std@@V?$allocator@G@2@@std@@ABV34@@Z=C:\Windows\SysWOW64\BingOnlineServices.?to_string_t@conversions@utility@@YA?AV?$basic_string@GU?$char_traits@G@std@@V?$allocator@G@2@@std@@ABV34@@Z
  ?to_string_t@conversions@utility@@YA?AV?$basic_string@GU?$char_traits@G@std@@V?$allocator@G@2@@std@@ABV?$basic_string@DU?$char_traits@D@std@@V?$allocator@D@2@@4@@Z=C:\Windows\SysWOW64\BingOnlineServices.?to_string_t@conversions@utility@@YA?AV?$basic_string@GU?$char_traits@G@std@@V?$allocator@G@2@@std@@ABV?$basic_string@DU?$char_traits@D@std@@V?$allocator@D@2@@4@@Z
  ?to_uri@uri_builder@web@@QAE?AVuri@2@XZ=C:\Windows\SysWOW64\BingOnlineServices.?to_uri@uri_builder@web@@QAE?AVuri@2@XZ
  ?to_utf16string@conversions@utility@@YA?AV?$basic_string@GU?$char_traits@G@std@@V?$allocator@G@2@@std@@ABV?$basic_string@DU?$char_traits@D@std@@V?$allocator@D@2@@4@@Z=C:\Windows\SysWOW64\BingOnlineServices.?to_utf16string@conversions@utility@@YA?AV?$basic_string@GU?$char_traits@G@std@@V?$allocator@G@2@@std@@ABV?$basic_string@DU?$char_traits@D@std@@V?$allocator@D@2@@4@@Z
  ?to_utf16string@conversions@utility@@YA?AV?$basic_string@GU?$char_traits@G@std@@V?$allocator@G@2@@std@@V34@@Z=C:\Windows\SysWOW64\BingOnlineServices.?to_utf16string@conversions@utility@@YA?AV?$basic_string@GU?$char_traits@G@std@@V?$allocator@G@2@@std@@V34@@Z
  ?to_utf8string@conversions@utility@@YA?AV?$basic_string@DU?$char_traits@D@std@@V?$allocator@D@2@@std@@ABV?$basic_string@GU?$char_traits@G@std@@V?$allocator@G@2@@4@@Z=C:\Windows\SysWOW64\BingOnlineServices.?to_utf8string@conversions@utility@@YA?AV?$basic_string@DU?$char_traits@D@std@@V?$allocator@D@2@@std@@ABV?$basic_string@GU?$char_traits@G@std@@V?$allocator@G@2@@4@@Z
  ?to_utf8string@conversions@utility@@YA?AV?$basic_string@DU?$char_traits@D@std@@V?$allocator@D@2@@std@@V34@@Z=C:\Windows\SysWOW64\BingOnlineServices.?to_utf8string@conversions@utility@@YA?AV?$basic_string@DU?$char_traits@D@std@@V?$allocator@D@2@@std@@V34@@Z
  ?token@oauth1_config@experimental@oauth1@http@web@@QBEABVoauth1_token@2345@XZ=C:\Windows\SysWOW64\BingOnlineServices.?token@oauth1_config@experimental@oauth1@http@web@@QBEABVoauth1_token@2345@XZ
  ?token@oauth1_strings@details@oauth1@http@web@@2V?$basic_string@GU?$char_traits@G@std@@V?$allocator@G@2@@std@@B=C:\Windows\SysWOW64\BingOnlineServices.?token@oauth1_strings@details@oauth1@http@web@@2V?$basic_string@GU?$char_traits@G@std@@V?$allocator@G@2@@std@@B
  ?token_from_redirected_uri@oauth1_config@experimental@oauth1@http@web@@QAE?AV?$task@X@pplx@@ABVuri@5@@Z=C:\Windows\SysWOW64\BingOnlineServices.?token_from_redirected_uri@oauth1_config@experimental@oauth1@http@web@@QAE?AV?$task@X@pplx@@ABVuri@5@@Z
  ?token_secret@oauth1_strings@details@oauth1@http@web@@2V?$basic_string@GU?$char_traits@G@std@@V?$allocator@G@2@@std@@B=C:\Windows\SysWOW64\BingOnlineServices.?token_secret@oauth1_strings@details@oauth1@http@web@@2V?$basic_string@GU?$char_traits@G@std@@V?$allocator@G@2@@std@@B
  ?trailer@header_names@http@web@@2V?$basic_string@GU?$char_traits@G@std@@V?$allocator@G@2@@std@@B=C:\Windows\SysWOW64\BingOnlineServices.?trailer@header_names@http@web@@2V?$basic_string@GU?$char_traits@G@std@@V?$allocator@G@2@@std@@B
  ?transfer_encoding@header_names@http@web@@2V?$basic_string@GU?$char_traits@G@std@@V?$allocator@G@2@@std@@B=C:\Windows\SysWOW64\BingOnlineServices.?transfer_encoding@header_names@http@web@@2V?$basic_string@GU?$char_traits@G@std@@V?$allocator@G@2@@std@@B
  ?trim_whitespace@details@http@web@@YAXAAV?$basic_string@GU?$char_traits@G@std@@V?$allocator@G@2@@std@@@Z=C:\Windows\SysWOW64\BingOnlineServices.?trim_whitespace@details@http@web@@YAXAAV?$basic_string@GU?$char_traits@G@std@@V?$allocator@G@2@@std@@@Z
  ?type@value@json@web@@QBE?AW4value_type@123@XZ=C:\Windows\SysWOW64\BingOnlineServices.?type@value@json@web@@QBE?AW4value_type@123@XZ
  ?unlock@critical_section_impl@details@pplx@@QAEXXZ=C:\Windows\SysWOW64\BingOnlineServices.?unlock@critical_section_impl@details@pplx@@QAEXXZ
  ?unlock@reader_writer_lock_impl@details@pplx@@QAEXXZ=C:\Windows\SysWOW64\BingOnlineServices.?unlock@reader_writer_lock_impl@details@pplx@@QAEXXZ
  ?upgrade@header_names@http@web@@2V?$basic_string@GU?$char_traits@G@std@@V?$allocator@G@2@@std@@B=C:\Windows\SysWOW64\BingOnlineServices.?upgrade@header_names@http@web@@2V?$basic_string@GU?$char_traits@G@std@@V?$allocator@G@2@@std@@B
  ?usascii@charset_types@details@http@web@@2V?$basic_string@GU?$char_traits@G@std@@V?$allocator@G@2@@std@@B=C:\Windows\SysWOW64\BingOnlineServices.?usascii@charset_types@details@http@web@@2V?$basic_string@GU?$char_traits@G@std@@V?$allocator@G@2@@std@@B
  ?usascii_to_utf16@conversions@utility@@YA?AV?$basic_string@GU?$char_traits@G@std@@V?$allocator@G@2@@std@@ABV?$basic_string@DU?$char_traits@D@std@@V?$allocator@D@2@@4@@Z=C:\Windows\SysWOW64\BingOnlineServices.?usascii_to_utf16@conversions@utility@@YA?AV?$basic_string@GU?$char_traits@G@std@@V?$allocator@G@2@@std@@ABV?$basic_string@DU?$char_traits@D@std@@V?$allocator@D@2@@4@@Z
  ?user_agent@header_names@http@web@@2V?$basic_string@GU?$char_traits@G@std@@V?$allocator@G@2@@std@@B=C:\Windows\SysWOW64\BingOnlineServices.?user_agent@header_names@http@web@@2V?$basic_string@GU?$char_traits@G@std@@V?$allocator@G@2@@std@@B
  ?utc_now@datetime@utility@@SA?AV12@XZ=C:\Windows\SysWOW64\BingOnlineServices.?utc_now@datetime@utility@@SA?AV12@XZ
  ?utf16@charset_types@details@http@web@@2V?$basic_string@GU?$char_traits@G@std@@V?$allocator@G@2@@std@@B=C:\Windows\SysWOW64\BingOnlineServices.?utf16@charset_types@details@http@web@@2V?$basic_string@GU?$char_traits@G@std@@V?$allocator@G@2@@std@@B
  ?utf16_to_utf8@conversions@utility@@YA?AV?$basic_string@DU?$char_traits@D@std@@V?$allocator@D@2@@std@@ABV?$basic_string@GU?$char_traits@G@std@@V?$allocator@G@2@@4@@Z=C:\Windows\SysWOW64\BingOnlineServices.?utf16_to_utf8@conversions@utility@@YA?AV?$basic_string@DU?$char_traits@D@std@@V?$allocator@D@2@@std@@ABV?$basic_string@GU?$char_traits@G@std@@V?$allocator@G@2@@4@@Z
  ?utf16be@charset_types@details@http@web@@2V?$basic_string@GU?$char_traits@G@std@@V?$allocator@G@2@@std@@B=C:\Windows\SysWOW64\BingOnlineServices.?utf16be@charset_types@details@http@web@@2V?$basic_string@GU?$char_traits@G@std@@V?$allocator@G@2@@std@@B
  ?utf16le@charset_types@details@http@web@@2V?$basic_string@GU?$char_traits@G@std@@V?$allocator@G@2@@std@@B=C:\Windows\SysWOW64\BingOnlineServices.?utf16le@charset_types@details@http@web@@2V?$basic_string@GU?$char_traits@G@std@@V?$allocator@G@2@@std@@B
  ?utf8@charset_types@details@http@web@@2V?$basic_string@GU?$char_traits@G@std@@V?$allocator@G@2@@std@@B=C:\Windows\SysWOW64\BingOnlineServices.?utf8@charset_types@details@http@web@@2V?$basic_string@GU?$char_traits@G@std@@V?$allocator@G@2@@std@@B
  ?utf8_to_utf16@conversions@utility@@YA?AV?$basic_string@GU?$char_traits@G@std@@V?$allocator@G@2@@std@@ABV?$basic_string@DU?$char_traits@D@std@@V?$allocator@D@2@@4@@Z=C:\Windows\SysWOW64\BingOnlineServices.?utf8_to_utf16@conversions@utility@@YA?AV?$basic_string@GU?$char_traits@G@std@@V?$allocator@G@2@@std@@ABV?$basic_string@DU?$char_traits@D@std@@V?$allocator@D@2@@4@@Z
  ?validate@uri@web@@SA_NABV?$basic_string@GU?$char_traits@G@std@@V?$allocator@G@2@@std@@@Z=C:\Windows\SysWOW64\BingOnlineServices.?validate@uri@web@@SA_NABV?$basic_string@GU?$char_traits@G@std@@V?$allocator@G@2@@std@@@Z
  ?vary@header_names@http@web@@2V?$basic_string@GU?$char_traits@G@std@@V?$allocator@G@2@@std@@B=C:\Windows\SysWOW64\BingOnlineServices.?vary@header_names@http@web@@2V?$basic_string@GU?$char_traits@G@std@@V?$allocator@G@2@@std@@B
  ?verifier@oauth1_strings@details@oauth1@http@web@@2V?$basic_string@GU?$char_traits@G@std@@V?$allocator@G@2@@std@@B=C:\Windows\SysWOW64\BingOnlineServices.?verifier@oauth1_strings@details@oauth1@http@web@@2V?$basic_string@GU?$char_traits@G@std@@V?$allocator@G@2@@std@@B
  ?version@oauth1_strings@details@oauth1@http@web@@2V?$basic_string@GU?$char_traits@G@std@@V?$allocator@G@2@@std@@B=C:\Windows\SysWOW64\BingOnlineServices.?version@oauth1_strings@details@oauth1@http@web@@2V?$basic_string@GU?$char_traits@G@std@@V?$allocator@G@2@@std@@B
  ?via@header_names@http@web@@2V?$basic_string@GU?$char_traits@G@std@@V?$allocator@G@2@@std@@B=C:\Windows\SysWOW64\BingOnlineServices.?via@header_names@http@web@@2V?$basic_string@GU?$char_traits@G@std@@V?$allocator@G@2@@std@@B
  ?wait@event_impl@details@pplx@@QAEII@Z=C:\Windows\SysWOW64\BingOnlineServices.?wait@event_impl@details@pplx@@QAEII@Z
  ?warning@header_names@http@web@@2V?$basic_string@GU?$char_traits@G@std@@V?$allocator@G@2@@std@@B=C:\Windows\SysWOW64\BingOnlineServices.?warning@header_names@http@web@@2V?$basic_string@GU?$char_traits@G@std@@V?$allocator@G@2@@std@@B
  ?windows_category@details@utility@@YAABVerror_category@std@@XZ=C:\Windows\SysWOW64\BingOnlineServices.?windows_category@details@utility@@YAABVerror_category@std@@XZ
  ?www_authenticate@header_names@http@web@@2V?$basic_string@GU?$char_traits@G@std@@V?$allocator@G@2@@std@@B=C:\Windows\SysWOW64\BingOnlineServices.?www_authenticate@header_names@http@web@@2V?$basic_string@GU?$char_traits@G@std@@V?$allocator@G@2@@std@@B
  ?xml_duration_to_seconds@timespan@utility@@YA?AV?$duration@_JU?$ratio@$00$00@std@@@chrono@std@@ABV?$basic_string@GU?$char_traits@G@std@@V?$allocator@G@2@@5@@Z=C:\Windows\SysWOW64\BingOnlineServices.?xml_duration_to_seconds@timespan@utility@@YA?AV?$duration@_JU?$ratio@$00$00@std@@@chrono@std@@ABV?$basic_string@GU?$char_traits@G@std@@V?$allocator@G@2@@5@@Z
