EXPORTS
  ??0CComPlusComponent@@QAE@$$QAV0@@Z=C:\Windows\SysWOW64\catsrvut.??0CComPlusComponent@@QAE@$$QAV0@@Z
  ??0CComPlusComponent@@QAE@ABV0@@Z=C:\Windows\SysWOW64\catsrvut.??0CComPlusComponent@@QAE@ABV0@@Z
  ??0CComPlusInterface@@QAE@$$QAV0@@Z=C:\Windows\SysWOW64\catsrvut.??0CComPlusInterface@@QAE@$$QAV0@@Z
  ??0CComPlusInterface@@QAE@ABV0@@Z=C:\Windows\SysWOW64\catsrvut.??0CComPlusInterface@@QAE@ABV0@@Z
  ??0CComPlusMethod@@QAE@ABV0@@Z=C:\Windows\SysWOW64\catsrvut.??0CComPlusMethod@@QAE@ABV0@@Z
  ??0CComPlusObject@@QAE@ABV0@@Z=C:\Windows\SysWOW64\catsrvut.??0CComPlusObject@@QAE@ABV0@@Z
  ??1CComPlusComponent@@UAE@XZ=C:\Windows\SysWOW64\catsrvut.??1CComPlusComponent@@UAE@XZ
  ??1CComPlusInterface@@UAE@XZ=C:\Windows\SysWOW64\catsrvut.??1CComPlusInterface@@UAE@XZ
  ??4CComPlusComponent@@QAEAAV0@$$QAV0@@Z=C:\Windows\SysWOW64\catsrvut.??4CComPlusComponent@@QAEAAV0@$$QAV0@@Z
  ??4CComPlusComponent@@QAEAAV0@ABV0@@Z=C:\Windows\SysWOW64\catsrvut.??4CComPlusComponent@@QAEAAV0@ABV0@@Z
  ??4CComPlusInterface@@QAEAAV0@$$QAV0@@Z=C:\Windows\SysWOW64\catsrvut.??4CComPlusInterface@@QAEAAV0@$$QAV0@@Z
  ??4CComPlusInterface@@QAEAAV0@ABV0@@Z=C:\Windows\SysWOW64\catsrvut.??4CComPlusInterface@@QAEAAV0@ABV0@@Z
  ??4CComPlusMethod@@QAEAAV0@ABV0@@Z=C:\Windows\SysWOW64\catsrvut.??4CComPlusMethod@@QAEAAV0@ABV0@@Z
  ??4CComPlusObject@@QAEAAV0@ABV0@@Z=C:\Windows\SysWOW64\catsrvut.??4CComPlusObject@@QAEAAV0@ABV0@@Z
  ??4CComPlusTypelib@@QAEAAV0@ABV0@@Z=C:\Windows\SysWOW64\catsrvut.??4CComPlusTypelib@@QAEAAV0@ABV0@@Z
  ??_7CComPlusComponent@@6B@=C:\Windows\SysWOW64\catsrvut.??_7CComPlusComponent@@6B@
  ??_7CComPlusInterface@@6B@=C:\Windows\SysWOW64\catsrvut.??_7CComPlusInterface@@6B@
  ??_7CComPlusMethod@@6B@=C:\Windows\SysWOW64\catsrvut.??_7CComPlusMethod@@6B@
  ??_7CComPlusObject@@6B@=C:\Windows\SysWOW64\catsrvut.??_7CComPlusObject@@6B@
  ?GetITypeLib@CComPlusTypelib@@QAEPAUITypeLib@@XZ=C:\Windows\SysWOW64\catsrvut.?GetITypeLib@CComPlusTypelib@@QAEPAUITypeLib@@XZ
  CGMIsAdministrator=C:\Windows\SysWOW64\catsrvut.CGMIsAdministrator
  COMPlusUninstallActionW=C:\Windows\SysWOW64\catsrvut.COMPlusUninstallActionW
  CreateComRegDBWriter=C:\Windows\SysWOW64\catsrvut.CreateComRegDBWriter
  DestroyComRegDBWriter=C:\Windows\SysWOW64\catsrvut.DestroyComRegDBWriter
  DllCanUnloadNow=C:\Windows\SysWOW64\catsrvut.DllCanUnloadNow
  DllGetClassObject=C:\Windows\SysWOW64\catsrvut.DllGetClassObject
  DllRegisterServer=C:\Windows\SysWOW64\catsrvut.DllRegisterServer
  DllUnregisterServer=C:\Windows\SysWOW64\catsrvut.DllUnregisterServer
  FindAssemblyModulesW=C:\Windows\SysWOW64\catsrvut.FindAssemblyModulesW
  ManagedRequestW=C:\Windows\SysWOW64\catsrvut.ManagedRequestW
  QueryUserDllW=C:\Windows\SysWOW64\catsrvut.QueryUserDllW
  RegDBBackup=C:\Windows\SysWOW64\catsrvut.RegDBBackup
  RegDBRestore=C:\Windows\SysWOW64\catsrvut.RegDBRestore
  RunMTSToCom=C:\Windows\SysWOW64\catsrvut.RunMTSToCom
  StartMTSTOCOM=C:\Windows\SysWOW64\catsrvut.StartMTSTOCOM
  SysprepComplus=C:\Windows\SysWOW64\catsrvut.SysprepComplus
  SysprepComplus2=C:\Windows\SysWOW64\catsrvut.SysprepComplus2
  WinlogonHandlePendingInfOperations=C:\Windows\SysWOW64\catsrvut.WinlogonHandlePendingInfOperations
