EXPORTS
  ?AddRuntimeVirtualKeysToContainer@container@@YGXPAXKPAU_WC_VKEY_INFO@@@Z=C:\Windows\SysWOW64\container.?AddRuntimeVirtualKeysToContainer@container@@YGXPAXKPAU_WC_VKEY_INFO@@@Z
  ?CleanupContainer@container@@YGXPAXPBG@Z=C:\Windows\SysWOW64\container.?CleanupContainer@container@@YGXPAXPBG@Z
  ?CreateContainer@container@@YGXPAXABUContainer@DefinitionFile@1@_N0@Z=C:\Windows\SysWOW64\container.?CreateContainer@container@@YGXPAXABUContainer@DefinitionFile@1@_N0@Z
  ?GetComRegistryRoot@container@@YGPAXPAX@Z=C:\Windows\SysWOW64\container.?GetComRegistryRoot@container@@YGPAXPAX@Z
  ?GetContainerIdentifierString@container@@YG?AV?$basic_string@GU?$char_traits@G@std@@V?$allocator@G@2@@std@@PAX@Z=C:\Windows\SysWOW64\container.?GetContainerIdentifierString@container@@YG?AV?$basic_string@GU?$char_traits@G@std@@V?$allocator@G@2@@std@@PAX@Z
  ?GetContainerObjectRootPath@container@@YGXPAXAAV?$basic_string@GU?$char_traits@G@std@@V?$allocator@G@2@@std@@@Z=C:\Windows\SysWOW64\container.?GetContainerObjectRootPath@container@@YGXPAXAAV?$basic_string@GU?$char_traits@G@std@@V?$allocator@G@2@@std@@@Z
  ?GetRegistryRootPath@container@@YGXPAXABV?$basic_string@GU?$char_traits@G@std@@V?$allocator@G@2@@std@@AAV23@@Z=C:\Windows\SysWOW64\container.?GetRegistryRootPath@container@@YGXPAXABV?$basic_string@GU?$char_traits@G@std@@V?$allocator@G@2@@std@@AAV23@@Z
  ?IsContainerQuiescent@container@@YGEPAX@Z=C:\Windows\SysWOW64\container.?IsContainerQuiescent@container@@YGEPAX@Z
  ?LaunchApplicationContainer@container@@YGPAXPAXPBGK@Z=C:\Windows\SysWOW64\container.?LaunchApplicationContainer@container@@YGPAXPAXPBGK@Z
  ?LaunchContainer@container@@YGXPAX@Z=C:\Windows\SysWOW64\container.?LaunchContainer@container@@YGXPAX@Z
  ?RegisterForContainerTerminationNotification@container@@YGPAU_WC_CONTAINER_NOTIFICATION@@PAXP6GX0W4_WC_CONTAINER_TERMINATION_REASON@@PAU2@0@Z0@Z=C:\Windows\SysWOW64\container.?RegisterForContainerTerminationNotification@container@@YGPAU_WC_CONTAINER_NOTIFICATION@@PAXP6GX0W4_WC_CONTAINER_TERMINATION_REASON@@PAU2@0@Z0@Z
  ?ReleaseContainerTerminationNotification@container@@YGXPAU_WC_CONTAINER_NOTIFICATION@@@Z=C:\Windows\SysWOW64\container.?ReleaseContainerTerminationNotification@container@@YGXPAU_WC_CONTAINER_NOTIFICATION@@@Z
  ?SetRegistryFlushState@container@@YGXPAXE@Z=C:\Windows\SysWOW64\container.?SetRegistryFlushState@container@@YGXPAXE@Z
  ?ShutdownAppContainer@container@@YG_NPAX@Z=C:\Windows\SysWOW64\container.?ShutdownAppContainer@container@@YG_NPAX@Z
  ?WaitForContainerTerminationNotification@container@@YGXPAU_WC_CONTAINER_NOTIFICATION@@@Z=C:\Windows\SysWOW64\container.?WaitForContainerTerminationNotification@container@@YGXPAU_WC_CONTAINER_NOTIFICATION@@@Z
  _WcAddRuntimeVirtualKeysToContainer@12=C:\Windows\SysWOW64\container._WcAddRuntimeVirtualKeysToContainer@12
  _WcCleanupContainer@8=C:\Windows\SysWOW64\container._WcCleanupContainer@8
  _WcCreateContainer@16=C:\Windows\SysWOW64\container._WcCreateContainer@16
  _WcCreateDescriptionFromXml@8=C:\Windows\SysWOW64\container._WcCreateDescriptionFromXml@8
  _WcDestroyDescription@4=C:\Windows\SysWOW64\container._WcDestroyDescription@4
  _WcGetComRegistryRoot@8=C:\Windows\SysWOW64\container._WcGetComRegistryRoot@8
  _WcGetContainerIdentifier@8=C:\Windows\SysWOW64\container._WcGetContainerIdentifier@8
  _WcGetContainerObjectRootPath@12=C:\Windows\SysWOW64\container._WcGetContainerObjectRootPath@12
  _WcGetContainerRegistryRootPath@16=C:\Windows\SysWOW64\container._WcGetContainerRegistryRootPath@16
  _WcIsContainerQuiescent@8=C:\Windows\SysWOW64\container._WcIsContainerQuiescent@8
  _WcLaunchApplicationContainer@16=C:\Windows\SysWOW64\container._WcLaunchApplicationContainer@16
  _WcLaunchContainer@4=C:\Windows\SysWOW64\container._WcLaunchContainer@4
  _WcRegisterForContainerTerminationNotification@16=C:\Windows\SysWOW64\container._WcRegisterForContainerTerminationNotification@16
  _WcReleaseContainerTerminationNotification@4=C:\Windows\SysWOW64\container._WcReleaseContainerTerminationNotification@4
  _WcSetRegistryFlushState@8=C:\Windows\SysWOW64\container._WcSetRegistryFlushState@8
  _WcShutdownAppContainer@4=C:\Windows\SysWOW64\container._WcShutdownAppContainer@4
  _WcWaitForContainerTerminationNotification@4=C:\Windows\SysWOW64\container._WcWaitForContainerTerminationNotification@4
