EXPORTS
  ??0CDataCache@@QAE@XZ=C:\Windows\SysWOW64\dmdskmgr.??0CDataCache@@QAE@XZ
  ??1CDMNodeObj@@QAE@XZ=C:\Windows\SysWOW64\dmdskmgr.??1CDMNodeObj@@QAE@XZ
  ??1CDataCache@@UAE@XZ=C:\Windows\SysWOW64\dmdskmgr.??1CDataCache@@UAE@XZ
  ?AddFileSystemInfoToCache@CDataCache@@QAEXKPAUfilesysteminfo@@@Z=C:\Windows\SysWOW64\dmdskmgr.?AddFileSystemInfoToCache@CDataCache@@QAEXKPAUfilesysteminfo@@@Z
  ?AddFileSystemInfoToListAndMap@CDataCache@@QAEXKPAUfilesysteminfo@@@Z=C:\Windows\SysWOW64\dmdskmgr.?AddFileSystemInfoToListAndMap@CDataCache@@QAEXKPAUfilesysteminfo@@@Z
  ?AddLDMObjMapEntry@CDataCache@@QAEXPAU_LDM_OBJ_MAP_ENTRY@@@Z=C:\Windows\SysWOW64\dmdskmgr.?AddLDMObjMapEntry@CDataCache@@QAEXPAU_LDM_OBJ_MAP_ENTRY@@@Z
  ?AddRegionToVolumeMemberList@CDataCache@@QAEXPAVCDMNodeObj@@@Z=C:\Windows\SysWOW64\dmdskmgr.?AddRegionToVolumeMemberList@CDataCache@@QAEXPAVCDMNodeObj@@@Z
  ?AddRow@CDMComponentData@@QAEXPAVCDMScopeNode@@J@Z=C:\Windows\SysWOW64\dmdskmgr.?AddRow@CDMComponentData@@QAEXPAVCDMScopeNode@@J@Z
  ?AdjustRegionCountInLegendList@CDataCache@@QAEXW4_REGIONTYPE@@HPAVCTaskData@@@Z=C:\Windows\SysWOW64\dmdskmgr.?AdjustRegionCountInLegendList@CDataCache@@QAEXW4_REGIONTYPE@@HPAVCTaskData@@@Z
  ?AdjustVolumeCountInLegendList@CDataCache@@QAEXW4_VOLUMELAYOUT@@HPAVCTaskData@@@Z=C:\Windows\SysWOW64\dmdskmgr.?AdjustVolumeCountInLegendList@CDataCache@@QAEXW4_VOLUMELAYOUT@@HPAVCTaskData@@@Z
  ?CanHaveGPT@CDMNodeObj@@QAEHXZ=C:\Windows\SysWOW64\dmdskmgr.?CanHaveGPT@CDMNodeObj@@QAEHXZ
  ?ChangeRow@CDMComponentData@@QAEXPAVCDMScopeNode@@J@Z=C:\Windows\SysWOW64\dmdskmgr.?ChangeRow@CDMComponentData@@QAEXPAVCDMScopeNode@@J@Z
  ?Command@CContextMenu@@QAEJJPAUIDataObject@@J@Z=C:\Windows\SysWOW64\dmdskmgr.?Command@CContextMenu@@QAEJJPAUIDataObject@@J@Z
  ?ContainsActivePartition@CDMNodeObj@@QAEHXZ=C:\Windows\SysWOW64\dmdskmgr.?ContainsActivePartition@CDMNodeObj@@QAEHXZ
  ?ContainsBootIniPartition@CDMNodeObj@@QAEHXZ=C:\Windows\SysWOW64\dmdskmgr.?ContainsBootIniPartition@CDMNodeObj@@QAEHXZ
  ?ContainsBootIniPartitionForWolfpack@CDMNodeObj@@QAEHXZ=C:\Windows\SysWOW64\dmdskmgr.?ContainsBootIniPartitionForWolfpack@CDMNodeObj@@QAEHXZ
  ?ContainsBootVolumesNumberChange@CDMNodeObj@@QAEH_JPAH@Z=C:\Windows\SysWOW64\dmdskmgr.?ContainsBootVolumesNumberChange@CDMNodeObj@@QAEH_JPAH@Z
  ?ContainsESPPartition@CDMNodeObj@@QAEHXZ=C:\Windows\SysWOW64\dmdskmgr.?ContainsESPPartition@CDMNodeObj@@QAEHXZ
  ?ContainsFVEPartition@CDMNodeObj@@QAEHXZ=C:\Windows\SysWOW64\dmdskmgr.?ContainsFVEPartition@CDMNodeObj@@QAEHXZ
  ?ContainsLogicalDrvBootPartition@CDMNodeObj@@QAEHXZ=C:\Windows\SysWOW64\dmdskmgr.?ContainsLogicalDrvBootPartition@CDMNodeObj@@QAEHXZ
  ?ContainsPageFile@CDMNodeObj@@QAEHXZ=C:\Windows\SysWOW64\dmdskmgr.?ContainsPageFile@CDMNodeObj@@QAEHXZ
  ?ContainsRealSystemPartition@CDMNodeObj@@QAEHXZ=C:\Windows\SysWOW64\dmdskmgr.?ContainsRealSystemPartition@CDMNodeObj@@QAEHXZ
  ?ContainsSubDiskNeedResync@CDMNodeObj@@QAEHXZ=C:\Windows\SysWOW64\dmdskmgr.?ContainsSubDiskNeedResync@CDMNodeObj@@QAEHXZ
  ?ContainsSystemInformation@CDMNodeObj@@QAEHXZ=C:\Windows\SysWOW64\dmdskmgr.?ContainsSystemInformation@CDMNodeObj@@QAEHXZ
  ?ContainsSystemPartition@CDMNodeObj@@QAEHXZ=C:\Windows\SysWOW64\dmdskmgr.?ContainsSystemPartition@CDMNodeObj@@QAEHXZ
  ?CreateDiskList@CDataCache@@QAEXXZ=C:\Windows\SysWOW64\dmdskmgr.?CreateDiskList@CDataCache@@QAEXXZ
  ?CreateNodeObjAndAddToMap@CDataCache@@QAEPAVCDMNodeObj@@HW4_NODEOBJ_TYPES@@PAV1@PAX_J@Z=C:\Windows\SysWOW64\dmdskmgr.?CreateNodeObjAndAddToMap@CDataCache@@QAEPAVCDMNodeObj@@HW4_NODEOBJ_TYPES@@PAV1@PAX_J@Z
  ?CreateRegionNodeObj@CDataCache@@QAEPAVCDMNodeObj@@PAV2@PAUregioninfoex@@@Z=C:\Windows\SysWOW64\dmdskmgr.?CreateRegionNodeObj@CDataCache@@QAEPAVCDMNodeObj@@PAV2@PAUregioninfoex@@@Z
  ?CreateShortDiskName@CDataCache@@QAEXAAUdiskinfoex@@@Z=C:\Windows\SysWOW64\dmdskmgr.?CreateShortDiskName@CDataCache@@QAEXAAUdiskinfoex@@@Z
  ?CreateVolumeList@CDataCache@@QAEXXZ=C:\Windows\SysWOW64\dmdskmgr.?CreateVolumeList@CDataCache@@QAEXXZ
  ?DeleteDiskGroupData@CDataCache@@QAEXPAUDISK_GROUP_DATA@@@Z=C:\Windows\SysWOW64\dmdskmgr.?DeleteDiskGroupData@CDataCache@@QAEXPAUDISK_GROUP_DATA@@@Z
  ?DeleteEncapsulateData@CDataCache@@QAEXPAUENCAPSULATE_DATA@@@Z=C:\Windows\SysWOW64\dmdskmgr.?DeleteEncapsulateData@CDataCache@@QAEXPAUENCAPSULATE_DATA@@@Z
  ?DeleteLists@CDataCache@@QAEXXZ=C:\Windows\SysWOW64\dmdskmgr.?DeleteLists@CDataCache@@QAEXXZ
  ?DeleteRegionFromVolumeMemberList@CDataCache@@QAEXPAVCDMNodeObj@@@Z=C:\Windows\SysWOW64\dmdskmgr.?DeleteRegionFromVolumeMemberList@CDataCache@@QAEXPAVCDMNodeObj@@@Z
  ?DeleteRow@CDMComponentData@@QAEXPAVCDMScopeNode@@J@Z=C:\Windows\SysWOW64\dmdskmgr.?DeleteRow@CDMComponentData@@QAEXPAVCDMScopeNode@@J@Z
  ?DoDelete@CContextMenu@@QAEXJ@Z=C:\Windows\SysWOW64\dmdskmgr.?DoDelete@CContextMenu@@QAEXJ@Z
  ?DoRevertToNT4@CContextMenu@@QAEXJH@Z=C:\Windows\SysWOW64\dmdskmgr.?DoRevertToNT4@CContextMenu@@QAEXJH@Z
  ?EmptyOcxViewData@CDMComponentData@@QAEXPAVCDMScopeNode@@@Z=C:\Windows\SysWOW64\dmdskmgr.?EmptyOcxViewData@CDMComponentData@@QAEXPAVCDMScopeNode@@@Z
  ?EnhancedIsUpgradeable@CDMNodeObj@@QAEHPAVCTaskData@@@Z=C:\Windows\SysWOW64\dmdskmgr.?EnhancedIsUpgradeable@CDMNodeObj@@QAEHPAVCTaskData@@@Z
  ?EnumDiskRegions@CDMNodeObj@@QAEXPAPAJAAJ@Z=C:\Windows\SysWOW64\dmdskmgr.?EnumDiskRegions@CDMNodeObj@@QAEXPAPAJAAJ@Z
  ?EnumDisks@CTaskData@@QAEXAAKPAPAJ@Z=C:\Windows\SysWOW64\dmdskmgr.?EnumDisks@CTaskData@@QAEXAAKPAPAJ@Z
  ?EnumFirstVolumeMember@CDMNodeObj@@QAEXAAJ0@Z=C:\Windows\SysWOW64\dmdskmgr.?EnumFirstVolumeMember@CDMNodeObj@@QAEXAAJ0@Z
  ?EnumNTFSwithDriveLetter@CDataCache@@QAEXPAHPAPAG@Z=C:\Windows\SysWOW64\dmdskmgr.?EnumNTFSwithDriveLetter@CDataCache@@QAEXPAHPAPAG@Z
  ?EnumNTFSwithDriveLetter@CTaskData@@QAEXPAHPAPAG@Z=C:\Windows\SysWOW64\dmdskmgr.?EnumNTFSwithDriveLetter@CTaskData@@QAEXPAHPAPAG@Z
  ?EnumVolumeMembers@CDMNodeObj@@QAEXPAPAJAAJ@Z=C:\Windows\SysWOW64\dmdskmgr.?EnumVolumeMembers@CDMNodeObj@@QAEXPAPAJAAJ@Z
  ?EnumVolumes@CTaskData@@QAEXAAKPAPAJ@Z=C:\Windows\SysWOW64\dmdskmgr.?EnumVolumes@CTaskData@@QAEXAAKPAPAJ@Z
  ?FillDeviceInstanceId@CDataCache@@QAEXPAG0@Z=C:\Windows\SysWOW64\dmdskmgr.?FillDeviceInstanceId@CDataCache@@QAEXPAG0@Z
  ?FilterCookiesBigEnoughForFTRepair@CTaskData@@QAEXAAKPAJPAPAJ_JPAVCDMNodeObj@@@Z=C:\Windows\SysWOW64\dmdskmgr.?FilterCookiesBigEnoughForFTRepair@CTaskData@@QAEXAAKPAJPAPAJ_JPAVCDMNodeObj@@@Z
  ?FilterCookiesBigEnoughForRAID5Repair@CTaskData@@QAEXAAKPAJPAPAJ_JPAVCDMNodeObj@@@Z=C:\Windows\SysWOW64\dmdskmgr.?FilterCookiesBigEnoughForRAID5Repair@CTaskData@@QAEXAAKPAJPAPAJ_JPAVCDMNodeObj@@@Z
  ?FindCookieAndRemoveFromList@CDataCache@@QAEHJPAV?$CList@PAVCDMNodeObj@@PAV1@@@@Z=C:\Windows\SysWOW64\dmdskmgr.?FindCookieAndRemoveFromList@CDataCache@@QAEHJPAV?$CList@PAVCDMNodeObj@@PAV1@@@@Z
  ?FindDeviceInstanceId@CDataCache@@QAEPAG_J@Z=C:\Windows\SysWOW64\dmdskmgr.?FindDeviceInstanceId@CDataCache@@QAEPAG_J@Z
  ?FindDiskPtrFromDiskId@CDataCache@@QAEH_JPAPAVCDMNodeObj@@@Z=C:\Windows\SysWOW64\dmdskmgr.?FindDiskPtrFromDiskId@CDataCache@@QAEH_JPAPAVCDMNodeObj@@@Z
  ?FindDriveLetter@CDataCache@@QAEH_JAAG@Z=C:\Windows\SysWOW64\dmdskmgr.?FindDriveLetter@CDataCache@@QAEH_JAAG@Z
  ?FindDriveLetter@CTaskData@@QAEX_JAAG@Z=C:\Windows\SysWOW64\dmdskmgr.?FindDriveLetter@CTaskData@@QAEX_JAAG@Z
  ?FindFileSystem@CDataCache@@QAEH_JAAUfilesysteminfo@@@Z=C:\Windows\SysWOW64\dmdskmgr.?FindFileSystem@CDataCache@@QAEH_JAAUfilesysteminfo@@@Z
  ?FindFileSystem@CTaskData@@QAEH_JAAUfilesysteminfo@@@Z=C:\Windows\SysWOW64\dmdskmgr.?FindFileSystem@CTaskData@@QAEH_JAAUfilesysteminfo@@@Z
  ?FindRegionPtrFromRegionId@CDataCache@@QAEH_JPAPAVCDMNodeObj@@@Z=C:\Windows\SysWOW64\dmdskmgr.?FindRegionPtrFromRegionId@CDataCache@@QAEH_JPAPAVCDMNodeObj@@@Z
  ?FindRegionPtrFromRegionId@CTaskData@@QAEH_JPAPAVCDMNodeObj@@@Z=C:\Windows\SysWOW64\dmdskmgr.?FindRegionPtrFromRegionId@CTaskData@@QAEH_JPAPAVCDMNodeObj@@@Z
  ?FindRegionPtrOnDiskFromRegionId@CDataCache@@QAEHPAVCDMNodeObj@@_JPAPAV2@AAPAU__POSITION@@@Z=C:\Windows\SysWOW64\dmdskmgr.?FindRegionPtrOnDiskFromRegionId@CDataCache@@QAEHPAVCDMNodeObj@@_JPAPAV2@AAPAU__POSITION@@@Z
  ?GetAssignedDriveLetter@CTaskData@@QAEHJAAG@Z=C:\Windows\SysWOW64\dmdskmgr.?GetAssignedDriveLetter@CTaskData@@QAEHJAAG@Z
  ?GetBootPort@CDataCache@@QAEHXZ=C:\Windows\SysWOW64\dmdskmgr.?GetBootPort@CDataCache@@QAEHXZ
  ?GetBootPort@CTaskData@@QAEHXZ=C:\Windows\SysWOW64\dmdskmgr.?GetBootPort@CTaskData@@QAEHXZ
  ?GetColorRef@CDMNodeObj@@QAEKXZ=C:\Windows\SysWOW64\dmdskmgr.?GetColorRef@CDMNodeObj@@QAEKXZ
  ?GetComponentData@CDataCache@@QAEPAVCDMComponentData@@XZ=C:\Windows\SysWOW64\dmdskmgr.?GetComponentData@CDataCache@@QAEPAVCDMComponentData@@XZ
  ?GetDMDataObjPtrFromId@CTaskData@@QAEPAVCDMNodeObj@@_J@Z=C:\Windows\SysWOW64\dmdskmgr.?GetDMDataObjPtrFromId@CTaskData@@QAEPAVCDMNodeObj@@_J@Z
  ?GetDeviceAttributes@CDMNodeObj@@QAEKXZ=C:\Windows\SysWOW64\dmdskmgr.?GetDeviceAttributes@CDMNodeObj@@QAEKXZ
  ?GetDeviceState@CDMNodeObj@@QAEKXZ=C:\Windows\SysWOW64\dmdskmgr.?GetDeviceState@CDMNodeObj@@QAEKXZ
  ?GetDeviceType@CDMNodeObj@@QAEKXZ=C:\Windows\SysWOW64\dmdskmgr.?GetDeviceType@CDMNodeObj@@QAEKXZ
  ?GetDiskCookies@CDataCache@@IAEXAAKPAPAJ@Z=C:\Windows\SysWOW64\dmdskmgr.?GetDiskCookies@CDataCache@@IAEXAAKPAPAJ@Z
  ?GetDiskCookies@CTaskData@@QAEXAAKPAPAJHKH@Z=C:\Windows\SysWOW64\dmdskmgr.?GetDiskCookies@CTaskData@@QAEXAAKPAPAJHKH@Z
  ?GetDiskCookiesForAddMirror@CTaskData@@QAEXJAAKPAPAJ@Z=C:\Windows\SysWOW64\dmdskmgr.?GetDiskCookiesForAddMirror@CTaskData@@QAEXJAAKPAPAJ@Z
  ?GetDiskCookiesForCreateVolume@CTaskData@@QAEXAAKPAPAJ@Z=C:\Windows\SysWOW64\dmdskmgr.?GetDiskCookiesForCreateVolume@CTaskData@@QAEXAAKPAPAJ@Z
  ?GetDiskCookiesForExtendVolume@CTaskData@@QAEXJAAKPAPAJ@Z=C:\Windows\SysWOW64\dmdskmgr.?GetDiskCookiesForExtendVolume@CTaskData@@QAEXJAAKPAPAJ@Z
  ?GetDiskCookiesForSig@CTaskData@@QAEXAAKPAPAJ@Z=C:\Windows\SysWOW64\dmdskmgr.?GetDiskCookiesForSig@CTaskData@@QAEXAAKPAPAJ@Z
  ?GetDiskCookiesForUpgrade@CTaskData@@QAEXAAKPAPAJ@Z=C:\Windows\SysWOW64\dmdskmgr.?GetDiskCookiesForUpgrade@CTaskData@@QAEXAAKPAPAJ@Z
  ?GetDiskCookiesToEncap@CTaskData@@QAEXAAKPAPAJ@Z=C:\Windows\SysWOW64\dmdskmgr.?GetDiskCookiesToEncap@CTaskData@@QAEXAAKPAPAJ@Z
  ?GetDiskCookiesWithFreeSpace@CTaskData@@QAEXAAKPAPAJ@Z=C:\Windows\SysWOW64\dmdskmgr.?GetDiskCookiesWithFreeSpace@CTaskData@@QAEXAAKPAPAJ@Z
  ?GetDiskCount@CDataCache@@QAEKXZ=C:\Windows\SysWOW64\dmdskmgr.?GetDiskCount@CDataCache@@QAEKXZ
  ?GetDiskInfo@CDMNodeObj@@QAEHAAUdiskinfoex@@@Z=C:\Windows\SysWOW64\dmdskmgr.?GetDiskInfo@CDMNodeObj@@QAEHAAUdiskinfoex@@@Z
  ?GetDiskInfoFromVolCookie@CTaskData@@QAEXJAAHAAKPAPAJKH@Z=C:\Windows\SysWOW64\dmdskmgr.?GetDiskInfoFromVolCookie@CTaskData@@QAEXJAAHAAKPAPAJKH@Z
  ?GetDiskSpec@CDMNodeObj@@QAEHAAUdiskspec@@@Z=C:\Windows\SysWOW64\dmdskmgr.?GetDiskSpec@CDMNodeObj@@QAEHAAUdiskspec@@@Z
  ?GetDiskStatus@CDMNodeObj@@QAEHAAVCString@@@Z=C:\Windows\SysWOW64\dmdskmgr.?GetDiskStatus@CDMNodeObj@@QAEHAAVCString@@@Z
  ?GetDiskTypeName@CDMNodeObj@@QAEXAAVCString@@@Z=C:\Windows\SysWOW64\dmdskmgr.?GetDiskTypeName@CDMNodeObj@@QAEXAAVCString@@@Z
  ?GetDriveLetter@CDMNodeObj@@QAEXAAG@Z=C:\Windows\SysWOW64\dmdskmgr.?GetDriveLetter@CDMNodeObj@@QAEXAAG@Z
  ?GetDriveLetters@CDataCache@@IAEXAAFPAPAGG@Z=C:\Windows\SysWOW64\dmdskmgr.?GetDriveLetters@CDataCache@@IAEXAAFPAPAGG@Z
  ?GetDriveLetters@CTaskData@@QAEXAAFPAPAGG@Z=C:\Windows\SysWOW64\dmdskmgr.?GetDriveLetters@CTaskData@@QAEXAAFPAPAGG@Z
  ?GetExtendedRegionColor@CDMNodeObj@@QAEKXZ=C:\Windows\SysWOW64\dmdskmgr.?GetExtendedRegionColor@CDMNodeObj@@QAEKXZ
  ?GetExtraRegionStatus@CDMNodeObj@@QAEHAAVCString@@H@Z=C:\Windows\SysWOW64\dmdskmgr.?GetExtraRegionStatus@CDMNodeObj@@QAEHAAVCString@@H@Z
  ?GetFileSystemLabel@CDMNodeObj@@QAEXAAVCString@@@Z=C:\Windows\SysWOW64\dmdskmgr.?GetFileSystemLabel@CDMNodeObj@@QAEXAAVCString@@@Z
  ?GetFileSystemName@CDMNodeObj@@QAEXAAVCString@@@Z=C:\Windows\SysWOW64\dmdskmgr.?GetFileSystemName@CDMNodeObj@@QAEXAAVCString@@@Z
  ?GetFileSystemSize@CDMNodeObj@@QAEXAAJ@Z=C:\Windows\SysWOW64\dmdskmgr.?GetFileSystemSize@CDMNodeObj@@QAEXAAJ@Z
  ?GetFileSystemType@CDMNodeObj@@QAEHXZ=C:\Windows\SysWOW64\dmdskmgr.?GetFileSystemType@CDMNodeObj@@QAEHXZ
  ?GetFileSystemTypes@CDataCache@@QAEXAAKPAPAUifilesysteminfo@@@Z=C:\Windows\SysWOW64\dmdskmgr.?GetFileSystemTypes@CDataCache@@QAEXAAKPAPAUifilesysteminfo@@@Z
  ?GetFileSystemTypes@CTaskData@@QAEXAAKPAPAUifilesysteminfo@@@Z=C:\Windows\SysWOW64\dmdskmgr.?GetFileSystemTypes@CTaskData@@QAEXAAKPAPAUifilesysteminfo@@@Z
  ?GetFlags@CDMNodeObj@@QAEJXZ=C:\Windows\SysWOW64\dmdskmgr.?GetFlags@CDMNodeObj@@QAEJXZ
  ?GetIVolumeClientVersion@CDMNodeObj@@QAEFXZ=C:\Windows\SysWOW64\dmdskmgr.?GetIVolumeClientVersion@CDMNodeObj@@QAEFXZ
  ?GetIVolumeClientVersion@CTaskData@@QAEFXZ=C:\Windows\SysWOW64\dmdskmgr.?GetIVolumeClientVersion@CTaskData@@QAEFXZ
  ?GetIconId@CDMNodeObj@@QAEIH@Z=C:\Windows\SysWOW64\dmdskmgr.?GetIconId@CDMNodeObj@@QAEIH@Z
  ?GetImageNum@CDMNodeObj@@QAEHXZ=C:\Windows\SysWOW64\dmdskmgr.?GetImageNum@CDMNodeObj@@QAEHXZ
  ?GetLastKnownState@CDataCache@@QAE_J_J@Z=C:\Windows\SysWOW64\dmdskmgr.?GetLastKnownState@CDataCache@@QAE_J_J@Z
  ?GetLayoutType@CDMNodeObj@@QAE?AW4_LAYOUT_TYPES@@XZ=C:\Windows\SysWOW64\dmdskmgr.?GetLayoutType@CDMNodeObj@@QAE?AW4_LAYOUT_TYPES@@XZ
  ?GetLdmObjectId@CDMNodeObj@@QAE_JXZ=C:\Windows\SysWOW64\dmdskmgr.?GetLdmObjectId@CDMNodeObj@@QAE_JXZ
  ?GetLogicalDriveCount@CDMNodeObj@@QAEKXZ=C:\Windows\SysWOW64\dmdskmgr.?GetLogicalDriveCount@CDMNodeObj@@QAEKXZ
  ?GetLongName@CDMNodeObj@@QAEXAAVCString@@H@Z=C:\Windows\SysWOW64\dmdskmgr.?GetLongName@CDMNodeObj@@QAEXAAVCString@@H@Z
  ?GetMMCWindow@CDMComponentData@@QAEPAUHWND__@@XZ=C:\Windows\SysWOW64\dmdskmgr.?GetMMCWindow@CDMComponentData@@QAEPAUHWND__@@XZ
  ?GetMaxAdjustedFreeSize@CDMNodeObj@@QAEXAA_J@Z=C:\Windows\SysWOW64\dmdskmgr.?GetMaxAdjustedFreeSize@CDMNodeObj@@QAEXAA_J@Z
  ?GetMaxPartitionCount@CDMNodeObj@@QAEKXZ=C:\Windows\SysWOW64\dmdskmgr.?GetMaxPartitionCount@CDMNodeObj@@QAEKXZ
  ?GetMinMaxPartitionSizes@CDataCache@@IAEXJAA_J0@Z=C:\Windows\SysWOW64\dmdskmgr.?GetMinMaxPartitionSizes@CDataCache@@IAEXJAA_J0@Z
  ?GetMinMaxPartitionSizes@CTaskData@@QAEXJAA_J0@Z=C:\Windows\SysWOW64\dmdskmgr.?GetMinMaxPartitionSizes@CTaskData@@QAEXJAA_J0@Z
  ?GetName@CDMNodeObj@@QAEXAAVCString@@@Z=C:\Windows\SysWOW64\dmdskmgr.?GetName@CDMNodeObj@@QAEXAAVCString@@@Z
  ?GetNumMembers@CDMNodeObj@@QAEKXZ=C:\Windows\SysWOW64\dmdskmgr.?GetNumMembers@CDMNodeObj@@QAEKXZ
  ?GetNumRegions@CDMNodeObj@@QAEKXZ=C:\Windows\SysWOW64\dmdskmgr.?GetNumRegions@CDMNodeObj@@QAEKXZ
  ?GetObjectId@CDMNodeObj@@QAEXAA_J@Z=C:\Windows\SysWOW64\dmdskmgr.?GetObjectId@CDMNodeObj@@QAEXAA_J@Z
  ?GetOcxFrameCWndPtr@CTaskData@@QAEPAVCWnd@@XZ=C:\Windows\SysWOW64\dmdskmgr.?GetOcxFrameCWndPtr@CTaskData@@QAEPAVCWnd@@XZ
  ?GetOfflineReasonText@CDMNodeObj@@QAEHAAVCString@@@Z=C:\Windows\SysWOW64\dmdskmgr.?GetOfflineReasonText@CDMNodeObj@@QAEHAAVCString@@@Z
  ?GetOtherDisksFromVolCookie@CTaskData@@QAEXJAAKPAPAJ@Z=C:\Windows\SysWOW64\dmdskmgr.?GetOtherDisksFromVolCookie@CTaskData@@QAEXJAAKPAPAJ@Z
  ?GetParentDiskPtr@CDMNodeObj@@QAEPAV1@XZ=C:\Windows\SysWOW64\dmdskmgr.?GetParentDiskPtr@CDMNodeObj@@QAEPAV1@XZ
  ?GetParentVolumePtr@CDMNodeObj@@QAEPAV1@XZ=C:\Windows\SysWOW64\dmdskmgr.?GetParentVolumePtr@CDMNodeObj@@QAEPAV1@XZ
  ?GetPartitionStyle@CDMNodeObj@@QAE?AW4_PARTITIONSTYLE@@XZ=C:\Windows\SysWOW64\dmdskmgr.?GetPartitionStyle@CDMNodeObj@@QAE?AW4_PARTITIONSTYLE@@XZ
  ?GetPartitionStyleString@CDMNodeObj@@QAEXAAVCString@@H@Z=C:\Windows\SysWOW64\dmdskmgr.?GetPartitionStyleString@CDMNodeObj@@QAEXAAVCString@@H@Z
  ?GetPatternRef@CDMNodeObj@@QAEHXZ=C:\Windows\SysWOW64\dmdskmgr.?GetPatternRef@CDMNodeObj@@QAEHXZ
  ?GetPort@CDMNodeObj@@QAEHXZ=C:\Windows\SysWOW64\dmdskmgr.?GetPort@CDMNodeObj@@QAEHXZ
  ?GetPrimaryPartitionCount@CDMNodeObj@@QAEKXZ=C:\Windows\SysWOW64\dmdskmgr.?GetPrimaryPartitionCount@CDMNodeObj@@QAEKXZ
  ?GetRegionByOffset@CDMNodeObj@@QAEPAV1@_J@Z=C:\Windows\SysWOW64\dmdskmgr.?GetRegionByOffset@CDMNodeObj@@QAEPAV1@_J@Z
  ?GetRegionColorStructPtr@CTaskData@@QAEXPAPAU_REGION_COLORS@@AAH@Z=C:\Windows\SysWOW64\dmdskmgr.?GetRegionColorStructPtr@CTaskData@@QAEXPAPAU_REGION_COLORS@@AAH@Z
  ?GetRegionInfo@CDMNodeObj@@QAEHAAUregioninfoex@@@Z=C:\Windows\SysWOW64\dmdskmgr.?GetRegionInfo@CDMNodeObj@@QAEHAAUregioninfoex@@@Z
  ?GetResultPane@CDMSnapin@@QAEHJPAPAVCDMResultPane@@@Z=C:\Windows\SysWOW64\dmdskmgr.?GetResultPane@CDMSnapin@@QAEHJPAPAVCDMResultPane@@@Z
  ?GetResultStringArray@CDMNodeObj@@QAEHAAVCStringArray@@@Z=C:\Windows\SysWOW64\dmdskmgr.?GetResultStringArray@CDMNodeObj@@QAEHAAVCStringArray@@@Z
  ?GetScopeNode@CDMScopeNodeCollection@@QAEHJPAPAVCDMScopeNode@@@Z=C:\Windows\SysWOW64\dmdskmgr.?GetScopeNode@CDMScopeNodeCollection@@QAEHJPAPAVCDMScopeNode@@@Z
  ?GetScopeNodeForResultPane@CDMComponentData@@QAEHJPAPAVCDMScopeNode@@@Z=C:\Windows\SysWOW64\dmdskmgr.?GetScopeNodeForResultPane@CDMComponentData@@QAEHJPAPAVCDMScopeNode@@@Z
  ?GetServerName@CDataCache@@QAE?AVCString@@XZ=C:\Windows\SysWOW64\dmdskmgr.?GetServerName@CDataCache@@QAE?AVCString@@XZ
  ?GetServerName@CTaskData@@QAE?AVCString@@XZ=C:\Windows\SysWOW64\dmdskmgr.?GetServerName@CTaskData@@QAE?AVCString@@XZ
  ?GetShortName@CDMNodeObj@@QAEXAAVCString@@@Z=C:\Windows\SysWOW64\dmdskmgr.?GetShortName@CDMNodeObj@@QAEXAAVCString@@@Z
  ?GetShrinkableSizeInMB@CDMNodeObj@@QAE_JXZ=C:\Windows\SysWOW64\dmdskmgr.?GetShrinkableSizeInMB@CDMNodeObj@@QAE_JXZ
  ?GetSize@CDMNodeObj@@QAEXAA_JH@Z=C:\Windows\SysWOW64\dmdskmgr.?GetSize@CDMNodeObj@@QAEXAA_JH@Z
  ?GetSizeMB@CDMNodeObj@@QAEXAA_J@Z=C:\Windows\SysWOW64\dmdskmgr.?GetSizeMB@CDMNodeObj@@QAEXAA_J@Z
  ?GetSizeString@CDMNodeObj@@QAEXAAVCString@@@Z=C:\Windows\SysWOW64\dmdskmgr.?GetSizeString@CDMNodeObj@@QAEXAAVCString@@@Z
  ?GetStartOffset@CDMNodeObj@@QAE_JXZ=C:\Windows\SysWOW64\dmdskmgr.?GetStartOffset@CDMNodeObj@@QAE_JXZ
  ?GetStatus@CDMNodeObj@@QAEHXZ=C:\Windows\SysWOW64\dmdskmgr.?GetStatus@CDMNodeObj@@QAEHXZ
  ?GetStorageType@CDMNodeObj@@QAE?AW4_STORAGE_TYPES@@XZ=C:\Windows\SysWOW64\dmdskmgr.?GetStorageType@CDMNodeObj@@QAE?AW4_STORAGE_TYPES@@XZ
  ?GetStorageType@CDMNodeObj@@QAEXAAVCString@@H@Z=C:\Windows\SysWOW64\dmdskmgr.?GetStorageType@CDMNodeObj@@QAEXAAVCString@@H@Z
  ?GetUIState@CTaskData@@QAEKXZ=C:\Windows\SysWOW64\dmdskmgr.?GetUIState@CTaskData@@QAEKXZ
  ?GetUnallocSpace@CDMNodeObj@@QAE_JH@Z=C:\Windows\SysWOW64\dmdskmgr.?GetUnallocSpace@CDMNodeObj@@QAE_JH@Z
  ?GetUsableContiguousSpaceInMB@CDMNodeObj@@QAE_JXZ=C:\Windows\SysWOW64\dmdskmgr.?GetUsableContiguousSpaceInMB@CDMNodeObj@@QAE_JXZ
  ?GetVolumeCookies@CDataCache@@IAEXAAKPAPAJ@Z=C:\Windows\SysWOW64\dmdskmgr.?GetVolumeCookies@CDataCache@@IAEXAAKPAPAJ@Z
  ?GetVolumeCount@CDataCache@@QAEKXZ=C:\Windows\SysWOW64\dmdskmgr.?GetVolumeCount@CDataCache@@QAEKXZ
  ?GetVolumeFileSystemTypes@CDMNodeObj@@QAEJAAKPAPAUilhfilesysteminfo@@@Z=C:\Windows\SysWOW64\dmdskmgr.?GetVolumeFileSystemTypes@CDMNodeObj@@QAEJAAKPAPAUilhfilesysteminfo@@@Z
  ?GetVolumeInfo@CDMNodeObj@@QAEHAAUvolumeinfo@@@Z=C:\Windows\SysWOW64\dmdskmgr.?GetVolumeInfo@CDMNodeObj@@QAEHAAUvolumeinfo@@@Z
  ?GetVolumeStatus@CDMNodeObj@@QAEHAAVCString@@@Z=C:\Windows\SysWOW64\dmdskmgr.?GetVolumeStatus@CDMNodeObj@@QAEHAAVCString@@@Z
  ?GetVolumeTotalSizeMB@CDMNodeObj@@QAE_JXZ=C:\Windows\SysWOW64\dmdskmgr.?GetVolumeTotalSizeMB@CDMNodeObj@@QAE_JXZ
  ?HasExtendedPartition@CDMNodeObj@@QAEHXZ=C:\Windows\SysWOW64\dmdskmgr.?HasExtendedPartition@CDMNodeObj@@QAEHXZ
  ?HasNTFSwithDriveLetter@CDataCache@@QAEHXZ=C:\Windows\SysWOW64\dmdskmgr.?HasNTFSwithDriveLetter@CDataCache@@QAEHXZ
  ?HasNTFSwithDriveLetter@CTaskData@@QAEHXZ=C:\Windows\SysWOW64\dmdskmgr.?HasNTFSwithDriveLetter@CTaskData@@QAEHXZ
  ?HasVMDisk@CDataCache@@QAEHXZ=C:\Windows\SysWOW64\dmdskmgr.?HasVMDisk@CDataCache@@QAEHXZ
  ?IsActive@CDMNodeObj@@QAEHXZ=C:\Windows\SysWOW64\dmdskmgr.?IsActive@CDMNodeObj@@QAEHXZ
  ?IsAlpha@CDataCache@@QAEHXZ=C:\Windows\SysWOW64\dmdskmgr.?IsAlpha@CDataCache@@QAEHXZ
  ?IsAlpha@CTaskData@@QAEHXZ=C:\Windows\SysWOW64\dmdskmgr.?IsAlpha@CTaskData@@QAEHXZ
  ?IsConvertSuccess@CDMNodeObj@@QAEJH@Z=C:\Windows\SysWOW64\dmdskmgr.?IsConvertSuccess@CDMNodeObj@@QAEJH@Z
  ?IsCurrBootVolume@CDMNodeObj@@QAEHXZ=C:\Windows\SysWOW64\dmdskmgr.?IsCurrBootVolume@CDMNodeObj@@QAEHXZ
  ?IsCurrSystemVolume@CDMNodeObj@@QAEHXZ=C:\Windows\SysWOW64\dmdskmgr.?IsCurrSystemVolume@CDMNodeObj@@QAEHXZ
  ?IsDiskEmpty@CDMNodeObj@@QAEHXZ=C:\Windows\SysWOW64\dmdskmgr.?IsDiskEmpty@CDMNodeObj@@QAEHXZ
  ?IsDiskOffline@CDMNodeObj@@QAEHXZ=C:\Windows\SysWOW64\dmdskmgr.?IsDiskOffline@CDMNodeObj@@QAEHXZ
  ?IsDiskReadOnly@CDMNodeObj@@QAEHXZ=C:\Windows\SysWOW64\dmdskmgr.?IsDiskReadOnly@CDMNodeObj@@QAEHXZ
  ?IsDynamic1394@CDataCache@@QAEHXZ=C:\Windows\SysWOW64\dmdskmgr.?IsDynamic1394@CDataCache@@QAEHXZ
  ?IsEECoveredGPTDisk@CDMNodeObj@@QAEHXZ=C:\Windows\SysWOW64\dmdskmgr.?IsEECoveredGPTDisk@CDMNodeObj@@QAEHXZ
  ?IsESPPartition@CDMNodeObj@@QAEHXZ=C:\Windows\SysWOW64\dmdskmgr.?IsESPPartition@CDMNodeObj@@QAEHXZ
  ?IsEfi@CDataCache@@QAEHXZ=C:\Windows\SysWOW64\dmdskmgr.?IsEfi@CDataCache@@QAEHXZ
  ?IsEfi@CTaskData@@QAEHXZ=C:\Windows\SysWOW64\dmdskmgr.?IsEfi@CTaskData@@QAEHXZ
  ?IsExtendedPartitionCreated@CDMNodeObj@@QAEJXZ=C:\Windows\SysWOW64\dmdskmgr.?IsExtendedPartitionCreated@CDMNodeObj@@QAEJXZ
  ?IsFTVolume@CDMNodeObj@@QAEHXZ=C:\Windows\SysWOW64\dmdskmgr.?IsFTVolume@CDMNodeObj@@QAEHXZ
  ?IsFakeVolume@CDMNodeObj@@QAEHXZ=C:\Windows\SysWOW64\dmdskmgr.?IsFakeVolume@CDMNodeObj@@QAEHXZ
  ?IsFirstFreeRegion@CDMNodeObj@@QAEHXZ=C:\Windows\SysWOW64\dmdskmgr.?IsFirstFreeRegion@CDMNodeObj@@QAEHXZ
  ?IsFreeSpaceFollowed@CDMNodeObj@@QAEH_J@Z=C:\Windows\SysWOW64\dmdskmgr.?IsFreeSpaceFollowed@CDMNodeObj@@QAEH_J@Z
  ?IsHiddenRegion@CDMNodeObj@@QAEHXZ=C:\Windows\SysWOW64\dmdskmgr.?IsHiddenRegion@CDMNodeObj@@QAEHXZ
  ?IsInFlux@CDMNodeObj@@QAEHXZ=C:\Windows\SysWOW64\dmdskmgr.?IsInFlux@CDMNodeObj@@QAEHXZ
  ?IsLocalMachine@CTaskData@@QAEHXZ=C:\Windows\SysWOW64\dmdskmgr.?IsLocalMachine@CTaskData@@QAEHXZ
  ?IsMbrEEPartition@CDMNodeObj@@QAEHXZ=C:\Windows\SysWOW64\dmdskmgr.?IsMbrEEPartition@CDMNodeObj@@QAEHXZ
  ?IsMember@CDMNodeObj@@QAEHPAV1@@Z=C:\Windows\SysWOW64\dmdskmgr.?IsMember@CDMNodeObj@@QAEHPAV1@@Z
  ?IsNEC_98Disk@CDMNodeObj@@QAEHXZ=C:\Windows\SysWOW64\dmdskmgr.?IsNEC_98Disk@CDMNodeObj@@QAEHXZ
  ?IsNEC_98Server@CDataCache@@QAEHXZ=C:\Windows\SysWOW64\dmdskmgr.?IsNEC_98Server@CDataCache@@QAEHXZ
  ?IsNEC_98Server@CTaskData@@QAEHXZ=C:\Windows\SysWOW64\dmdskmgr.?IsNEC_98Server@CTaskData@@QAEHXZ
  ?IsNTServer@CTaskData@@QAEHXZ=C:\Windows\SysWOW64\dmdskmgr.?IsNTServer@CTaskData@@QAEHXZ
  ?IsOemPartition@CDMNodeObj@@QAEHXZ=C:\Windows\SysWOW64\dmdskmgr.?IsOemPartition@CDMNodeObj@@QAEHXZ
  ?IsPersonalOrLapTopServer@CDataCache@@QAEHXZ=C:\Windows\SysWOW64\dmdskmgr.?IsPersonalOrLapTopServer@CDataCache@@QAEHXZ
  ?IsPostLonghornVdsVersion@CDataCache@@QAEHXZ=C:\Windows\SysWOW64\dmdskmgr.?IsPostLonghornVdsVersion@CDataCache@@QAEHXZ
  ?IsPostLonghornVdsVersion@CTaskData@@QAEHXZ=C:\Windows\SysWOW64\dmdskmgr.?IsPostLonghornVdsVersion@CTaskData@@QAEHXZ
  ?IsPreLonghornVdsVersion@CDataCache@@QAEHXZ=C:\Windows\SysWOW64\dmdskmgr.?IsPreLonghornVdsVersion@CDataCache@@QAEHXZ
  ?IsPreLonghornVdsVersion@CTaskData@@QAEHXZ=C:\Windows\SysWOW64\dmdskmgr.?IsPreLonghornVdsVersion@CTaskData@@QAEHXZ
  ?IsRevertable@CDMNodeObj@@QAEHXZ=C:\Windows\SysWOW64\dmdskmgr.?IsRevertable@CDMNodeObj@@QAEHXZ
  ?IsSecureSystemPartition@CTaskData@@QAEHXZ=C:\Windows\SysWOW64\dmdskmgr.?IsSecureSystemPartition@CTaskData@@QAEHXZ
  ?IsSpacesProtectivePartition@CDMNodeObj@@QAEHXZ=C:\Windows\SysWOW64\dmdskmgr.?IsSpacesProtectivePartition@CDMNodeObj@@QAEHXZ
  ?IsUnknownPartition@CDMNodeObj@@QAEHXZ=C:\Windows\SysWOW64\dmdskmgr.?IsUnknownPartition@CDMNodeObj@@QAEHXZ
  ?IsUpgradeable@CDMNodeObj@@QAEHXZ=C:\Windows\SysWOW64\dmdskmgr.?IsUpgradeable@CDMNodeObj@@QAEHXZ
  ?IsVolumeArrived@CDMNodeObj@@QAEJ_JW4_LAYOUT_TYPES@@@Z=C:\Windows\SysWOW64\dmdskmgr.?IsVolumeArrived@CDMNodeObj@@QAEJ_JW4_LAYOUT_TYPES@@@Z
  ?IsVolumeSimple@CDMNodeObj@@QAEHXZ=C:\Windows\SysWOW64\dmdskmgr.?IsVolumeSimple@CDMNodeObj@@QAEHXZ
  ?IsWolfpack@CDataCache@@QAEHXZ=C:\Windows\SysWOW64\dmdskmgr.?IsWolfpack@CDataCache@@QAEHXZ
  ?IsWolfpack@CTaskData@@QAEHXZ=C:\Windows\SysWOW64\dmdskmgr.?IsWolfpack@CTaskData@@QAEHXZ
  ?LoadData@CDMComponentData@@QAEXPAVCDMScopeNode@@J@Z=C:\Windows\SysWOW64\dmdskmgr.?LoadData@CDMComponentData@@QAEXPAVCDMScopeNode@@J@Z
  ?MarkDiskForLastVolume@CDMNodeObj@@QAEXPAV1@@Z=C:\Windows\SysWOW64\dmdskmgr.?MarkDiskForLastVolume@CDMNodeObj@@QAEXPAV1@@Z
  ?MarkDisksForLastVolume@CDMNodeObj@@QAEXXZ=C:\Windows\SysWOW64\dmdskmgr.?MarkDisksForLastVolume@CDMNodeObj@@QAEXXZ
  ?OnlyContiguousExtendAllowed@CDMNodeObj@@QAEHXZ=C:\Windows\SysWOW64\dmdskmgr.?OnlyContiguousExtendAllowed@CDMNodeObj@@QAEHXZ
  ?PopUpInit@CContextMenu@@QAEXPAVCDMNodeObj@@AAH1H@Z=C:\Windows\SysWOW64\dmdskmgr.?PopUpInit@CContextMenu@@QAEXPAVCDMNodeObj@@AAH1H@Z
  ?PopulateDiskGroupData@CDataCache@@QAEXPAUDISK_GROUP_DATA@@@Z=C:\Windows\SysWOW64\dmdskmgr.?PopulateDiskGroupData@CDataCache@@QAEXPAUDISK_GROUP_DATA@@@Z
  ?PopulateEncapsulateData@CDataCache@@QAEXPAUENCAPSULATE_DATA@@@Z=C:\Windows\SysWOW64\dmdskmgr.?PopulateEncapsulateData@CDataCache@@QAEXPAUENCAPSULATE_DATA@@@Z
  ?RecalculateSpace@CDMNodeObj@@QAEXXZ=C:\Windows\SysWOW64\dmdskmgr.?RecalculateSpace@CDMNodeObj@@QAEXXZ
  ?RefreshDiskView@CDMComponentData@@QAEXPAVCDMScopeNode@@@Z=C:\Windows\SysWOW64\dmdskmgr.?RefreshDiskView@CDMComponentData@@QAEXPAVCDMScopeNode@@@Z
  ?RefreshFileSys@CContextMenu@@QAEXJ@Z=C:\Windows\SysWOW64\dmdskmgr.?RefreshFileSys@CContextMenu@@QAEXJ@Z
  ?ReloadData@CDMComponentData@@QAEXPAVCDMScopeNode@@@Z=C:\Windows\SysWOW64\dmdskmgr.?ReloadData@CDMComponentData@@QAEXPAVCDMScopeNode@@@Z
  ?SetDescriptionBarText@CDMSnapin@@QAEXJ@Z=C:\Windows\SysWOW64\dmdskmgr.?SetDescriptionBarText@CDMSnapin@@QAEXJ@Z
  ?SetDiskList@CDataCache@@QAEXPAUdiskinfoex@@K@Z=C:\Windows\SysWOW64\dmdskmgr.?SetDiskList@CDataCache@@QAEXPAUdiskinfoex@@K@Z
  ?SetDriveLetterInUse@CDataCache@@QAEXGH@Z=C:\Windows\SysWOW64\dmdskmgr.?SetDriveLetterInUse@CDataCache@@QAEXGH@Z
  ?SetFSId@CDMNodeObj@@QAEX_J@Z=C:\Windows\SysWOW64\dmdskmgr.?SetFSId@CDMNodeObj@@QAEX_J@Z
  ?SetOcxViewType@CDMComponentData@@QAEXPAVCDMScopeNode@@@Z=C:\Windows\SysWOW64\dmdskmgr.?SetOcxViewType@CDMComponentData@@QAEXPAVCDMScopeNode@@@Z
  ?SetOcxViewTypeForce@CDMComponentData@@QAEXPAVCDMScopeNode@@@Z=C:\Windows\SysWOW64\dmdskmgr.?SetOcxViewTypeForce@CDMComponentData@@QAEXPAVCDMScopeNode@@@Z
  ?SetUIState@CTaskData@@QAEXK@Z=C:\Windows\SysWOW64\dmdskmgr.?SetUIState@CTaskData@@QAEXK@Z
  ?SetVolumeList@CDataCache@@QAEXPAUvolumeinfo@@KPAVCTaskData@@@Z=C:\Windows\SysWOW64\dmdskmgr.?SetVolumeList@CDataCache@@QAEXPAUvolumeinfo@@KPAVCTaskData@@@Z
  ?ShowContextMenu@CContextMenu@@QAEJPAVCWnd@@JJJ@Z=C:\Windows\SysWOW64\dmdskmgr.?ShowContextMenu@CContextMenu@@QAEJPAVCWnd@@JJJ@Z
  ?SupportGpt@CDataCache@@QAEHXZ=C:\Windows\SysWOW64\dmdskmgr.?SupportGpt@CDataCache@@QAEHXZ
  ?SupportGpt@CTaskData@@QAEHXZ=C:\Windows\SysWOW64\dmdskmgr.?SupportGpt@CTaskData@@QAEHXZ
  ?SupportMirror@CDataCache@@QAEHXZ=C:\Windows\SysWOW64\dmdskmgr.?SupportMirror@CDataCache@@QAEHXZ
  ?SupportRaid5@CDataCache@@QAEHXZ=C:\Windows\SysWOW64\dmdskmgr.?SupportRaid5@CDataCache@@QAEHXZ
  ?UIStateChange@CDMComponentData@@QAEXPAVCDMScopeNode@@K@Z=C:\Windows\SysWOW64\dmdskmgr.?UIStateChange@CDMComponentData@@QAEXPAVCDMScopeNode@@K@Z
  ?UpDateConsoleView@CDMSnapin@@QAEXJ@Z=C:\Windows\SysWOW64\dmdskmgr.?UpDateConsoleView@CDMSnapin@@QAEXJ@Z
  ?VolumeContainsActiveRegion@CDMNodeObj@@QAEHXZ=C:\Windows\SysWOW64\dmdskmgr.?VolumeContainsActiveRegion@CDMNodeObj@@QAEHXZ
  CompareDiskNames=C:\Windows\SysWOW64\dmdskmgr.CompareDiskNames
  CookieSort=C:\Windows\SysWOW64\dmdskmgr.CookieSort
  DllCanUnloadNow=C:\Windows\SysWOW64\dmdskmgr.DllCanUnloadNow
  DllGetClassObject=C:\Windows\SysWOW64\dmdskmgr.DllGetClassObject
  DllRegisterServer=C:\Windows\SysWOW64\dmdskmgr.DllRegisterServer
  GetPropertyPageData=C:\Windows\SysWOW64\dmdskmgr.GetPropertyPageData
  IsRequestPending=C:\Windows\SysWOW64\dmdskmgr.IsRequestPending
  LoadPropertyPageData=C:\Windows\SysWOW64\dmdskmgr.LoadPropertyPageData
  namecmp=C:\Windows\SysWOW64\dmdskmgr.namecmp
