EXPORTS
  ??0CCollection@@QAE@XZ=C:\Windows\SysWOW64\hhsetup.??0CCollection@@QAE@XZ
  ??0CFIFOString@@QAE@XZ=C:\Windows\SysWOW64\hhsetup.??0CFIFOString@@QAE@XZ
  ??0CFolder@@QAE@XZ=C:\Windows\SysWOW64\hhsetup.??0CFolder@@QAE@XZ
  ??0CLocation@@QAE@XZ=C:\Windows\SysWOW64\hhsetup.??0CLocation@@QAE@XZ
  ??0CPointerList@@QAE@XZ=C:\Windows\SysWOW64\hhsetup.??0CPointerList@@QAE@XZ
  ??0CTitle@@QAE@XZ=C:\Windows\SysWOW64\hhsetup.??0CTitle@@QAE@XZ
  ??1CCollection@@QAE@XZ=C:\Windows\SysWOW64\hhsetup.??1CCollection@@QAE@XZ
  ??1CFIFOString@@QAE@XZ=C:\Windows\SysWOW64\hhsetup.??1CFIFOString@@QAE@XZ
  ??1CFolder@@QAE@XZ=C:\Windows\SysWOW64\hhsetup.??1CFolder@@QAE@XZ
  ??1CLocation@@QAE@XZ=C:\Windows\SysWOW64\hhsetup.??1CLocation@@QAE@XZ
  ??1CPointerList@@QAE@XZ=C:\Windows\SysWOW64\hhsetup.??1CPointerList@@QAE@XZ
  ??1CTitle@@QAE@XZ=C:\Windows\SysWOW64\hhsetup.??1CTitle@@QAE@XZ
  ??4CCollection@@QAEAAV0@ABV0@@Z=C:\Windows\SysWOW64\hhsetup.??4CCollection@@QAEAAV0@ABV0@@Z
  ??4CFIFOString@@QAEAAV0@ABV0@@Z=C:\Windows\SysWOW64\hhsetup.??4CFIFOString@@QAEAAV0@ABV0@@Z
  ??4CFolder@@QAEAAV0@ABV0@@Z=C:\Windows\SysWOW64\hhsetup.??4CFolder@@QAEAAV0@ABV0@@Z
  ??4CLocation@@QAEAAV0@ABV0@@Z=C:\Windows\SysWOW64\hhsetup.??4CLocation@@QAEAAV0@ABV0@@Z
  ??4CPointerList@@QAEAAV0@ABV0@@Z=C:\Windows\SysWOW64\hhsetup.??4CPointerList@@QAEAAV0@ABV0@@Z
  ??4CTitle@@QAEAAV0@ABV0@@Z=C:\Windows\SysWOW64\hhsetup.??4CTitle@@QAEAAV0@ABV0@@Z
  ?Add@CPointerList@@QAEPAUListItem@@PAX@Z=C:\Windows\SysWOW64\hhsetup.?Add@CPointerList@@QAEPAUListItem@@PAX@Z
  ?AddChildFolder@CFolder@@QAEKPAV1@@Z=C:\Windows\SysWOW64\hhsetup.?AddChildFolder@CFolder@@QAEKPAV1@@Z
  ?AddChildFolder@CFolder@@QAEPAV1@PBDKPAKG@Z=C:\Windows\SysWOW64\hhsetup.?AddChildFolder@CFolder@@QAEPAV1@PBDKPAKG@Z
  ?AddChildFolder@CFolder@@QAEPAV1@PBGKPAKG@Z=C:\Windows\SysWOW64\hhsetup.?AddChildFolder@CFolder@@QAEPAV1@PBGKPAKG@Z
  ?AddCollection@CCollection@@QAEPAVCColList@@XZ=C:\Windows\SysWOW64\hhsetup.?AddCollection@CCollection@@QAEPAVCColList@@XZ
  ?AddFolder@CCollection@@QAEPAVCFolder@@PBDKPAKG@Z=C:\Windows\SysWOW64\hhsetup.?AddFolder@CCollection@@QAEPAVCFolder@@PBDKPAKG@Z
  ?AddFolder@CCollection@@QAEPAVCFolder@@PBGKPAKG@Z=C:\Windows\SysWOW64\hhsetup.?AddFolder@CCollection@@QAEPAVCFolder@@PBGKPAKG@Z
  ?AddLocation@CCollection@@QAEPAVCLocation@@PBD000PAK@Z=C:\Windows\SysWOW64\hhsetup.?AddLocation@CCollection@@QAEPAVCLocation@@PBD000PAK@Z
  ?AddLocation@CCollection@@QAEPAVCLocation@@PBG000PAK@Z=C:\Windows\SysWOW64\hhsetup.?AddLocation@CCollection@@QAEPAVCLocation@@PBG000PAK@Z
  ?AddLocationHistory@CTitle@@QAEKKPBD00PBVCLocation@@00H@Z=C:\Windows\SysWOW64\hhsetup.?AddLocationHistory@CTitle@@QAEKKPBD00PBVCLocation@@00H@Z
  ?AddLocationHistory@CTitle@@QAEKKPBG00PBVCLocation@@00H@Z=C:\Windows\SysWOW64\hhsetup.?AddLocationHistory@CTitle@@QAEKKPBG00PBVCLocation@@00H@Z
  ?AddRef@CCollection@@QAEXXZ=C:\Windows\SysWOW64\hhsetup.?AddRef@CCollection@@QAEXXZ
  ?AddRefedTitle@CCollection@@AAEKPAVCFolder@@@Z=C:\Windows\SysWOW64\hhsetup.?AddRefedTitle@CCollection@@AAEKPAVCFolder@@@Z
  ?AddTail@CFIFOString@@QAEKPAD@Z=C:\Windows\SysWOW64\hhsetup.?AddTail@CFIFOString@@QAEKPAD@Z
  ?AddTitle@CCollection@@QAEPAVCTitle@@PBD0000GIPAVCLocation@@PAKH0@Z=C:\Windows\SysWOW64\hhsetup.?AddTitle@CCollection@@QAEPAVCTitle@@PBD0000GIPAVCLocation@@PAKH0@Z
  ?AddTitle@CCollection@@QAEPAVCTitle@@PBG0000GIPAVCLocation@@PAKH0@Z=C:\Windows\SysWOW64\hhsetup.?AddTitle@CCollection@@QAEPAVCTitle@@PBG0000GIPAVCLocation@@PAKH0@Z
  ?AllocCopyValue@CCollection@@AAEKPAVCParseXML@@PADPAPAD@Z=C:\Windows\SysWOW64\hhsetup.?AllocCopyValue@CCollection@@AAEKPAVCParseXML@@PADPAPAD@Z
  ?AllocSetValue@@YGKPBDPAPAD@Z=C:\Windows\SysWOW64\hhsetup.?AllocSetValue@@YGKPBDPAPAD@Z
  ?CheckTitleRef@CCollection@@AAEKPBDG@Z=C:\Windows\SysWOW64\hhsetup.?CheckTitleRef@CCollection@@AAEKPBDG@Z
  ?CheckTitleRef@CCollection@@AAEKPBGG@Z=C:\Windows\SysWOW64\hhsetup.?CheckTitleRef@CCollection@@AAEKPBGG@Z
  ?Close@CCollection@@QAEKXZ=C:\Windows\SysWOW64\hhsetup.?Close@CCollection@@QAEKXZ
  ?ConfirmTitles@CCollection@@QAEXXZ=C:\Windows\SysWOW64\hhsetup.?ConfirmTitles@CCollection@@QAEXXZ
  ?DecrementRefTitleCount@CCollection@@QAEXXZ=C:\Windows\SysWOW64\hhsetup.?DecrementRefTitleCount@CCollection@@QAEXXZ
  ?DeleteChildren@CCollection@@AAEXPAPAVCFolder@@@Z=C:\Windows\SysWOW64\hhsetup.?DeleteChildren@CCollection@@AAEXPAPAVCFolder@@@Z
  ?DeleteFolder@CCollection@@QAEKPAVCFolder@@@Z=C:\Windows\SysWOW64\hhsetup.?DeleteFolder@CCollection@@QAEKPAVCFolder@@@Z
  ?DeleteFolders@CCollection@@AAEXPAPAVCFolder@@@Z=C:\Windows\SysWOW64\hhsetup.?DeleteFolders@CCollection@@AAEXPAPAVCFolder@@@Z
  ?DeleteLocalFiles@CCollection@@AAEXPAULocationHistory@@PAVCTitle@@@Z=C:\Windows\SysWOW64\hhsetup.?DeleteLocalFiles@CCollection@@AAEXPAULocationHistory@@PAVCTitle@@@Z
  ?DeleteLocation@CCollection@@AAEKPAVCLocation@@@Z=C:\Windows\SysWOW64\hhsetup.?DeleteLocation@CCollection@@AAEKPAVCLocation@@@Z
  ?DeleteTitle@CCollection@@AAEKPAVCTitle@@@Z=C:\Windows\SysWOW64\hhsetup.?DeleteTitle@CCollection@@AAEKPAVCTitle@@@Z
  ?Dirty@CCollection@@QAEXXZ=C:\Windows\SysWOW64\hhsetup.?Dirty@CCollection@@QAEXXZ
  ?FindCollection@CCollection@@QAEPAVCColList@@PBD@Z=C:\Windows\SysWOW64\hhsetup.?FindCollection@CCollection@@QAEPAVCColList@@PBD@Z
  ?FindLocation@CCollection@@QAEPAVCLocation@@PBDPAI@Z=C:\Windows\SysWOW64\hhsetup.?FindLocation@CCollection@@QAEPAVCLocation@@PBDPAI@Z
  ?FindLocation@CCollection@@QAEPAVCLocation@@PBGPAI@Z=C:\Windows\SysWOW64\hhsetup.?FindLocation@CCollection@@QAEPAVCLocation@@PBGPAI@Z
  ?FindTitle@CCollection@@QAEPAVCTitle@@PBDG@Z=C:\Windows\SysWOW64\hhsetup.?FindTitle@CCollection@@QAEPAVCTitle@@PBDG@Z
  ?FindTitle@CCollection@@QAEPAVCTitle@@PBGG@Z=C:\Windows\SysWOW64\hhsetup.?FindTitle@CCollection@@QAEPAVCTitle@@PBGG@Z
  ?First@CPointerList@@QAEPAUListItem@@XZ=C:\Windows\SysWOW64\hhsetup.?First@CPointerList@@QAEPAUListItem@@XZ
  ?FirstLocation@CCollection@@QAEPAVCLocation@@XZ=C:\Windows\SysWOW64\hhsetup.?FirstLocation@CCollection@@QAEPAVCLocation@@XZ
  ?GetColNo@CCollection@@QAEKXZ=C:\Windows\SysWOW64\hhsetup.?GetColNo@CCollection@@QAEKXZ
  ?GetCollectionFileName@CCollection@@QAEPBDXZ=C:\Windows\SysWOW64\hhsetup.?GetCollectionFileName@CCollection@@QAEPBDXZ
  ?GetCollectionFileNameW@CCollection@@QAEPBGXZ=C:\Windows\SysWOW64\hhsetup.?GetCollectionFileNameW@CCollection@@QAEPBGXZ
  ?GetFindMergedCHMS@CCollection@@QAEHXZ=C:\Windows\SysWOW64\hhsetup.?GetFindMergedCHMS@CCollection@@QAEHXZ
  ?GetFirstChildFolder@CFolder@@QAEPAV1@XZ=C:\Windows\SysWOW64\hhsetup.?GetFirstChildFolder@CFolder@@QAEPAV1@XZ
  ?GetFirstTitle@CCollection@@QAEPAVCTitle@@XZ=C:\Windows\SysWOW64\hhsetup.?GetFirstTitle@CCollection@@QAEPAVCTitle@@XZ
  ?GetId@CLocation@@QBEPADXZ=C:\Windows\SysWOW64\hhsetup.?GetId@CLocation@@QBEPADXZ
  ?GetId@CTitle@@QAEPADXZ=C:\Windows\SysWOW64\hhsetup.?GetId@CTitle@@QAEPADXZ
  ?GetIdW@CLocation@@QAEPBGXZ=C:\Windows\SysWOW64\hhsetup.?GetIdW@CLocation@@QAEPBGXZ
  ?GetIdW@CTitle@@QAEPBGXZ=C:\Windows\SysWOW64\hhsetup.?GetIdW@CTitle@@QAEPBGXZ
  ?GetLangId@CCollection@@QAEGPBD@Z=C:\Windows\SysWOW64\hhsetup.?GetLangId@CCollection@@QAEGPBD@Z
  ?GetLangId@CCollection@@QAEGPBG@Z=C:\Windows\SysWOW64\hhsetup.?GetLangId@CCollection@@QAEGPBG@Z
  ?GetLanguage@CFolder@@QAEGXZ=C:\Windows\SysWOW64\hhsetup.?GetLanguage@CFolder@@QAEGXZ
  ?GetLanguage@CTitle@@QAEGXZ=C:\Windows\SysWOW64\hhsetup.?GetLanguage@CTitle@@QAEGXZ
  ?GetLocation@CTitle@@QAEPAULocationHistory@@K@Z=C:\Windows\SysWOW64\hhsetup.?GetLocation@CTitle@@QAEPAULocationHistory@@K@Z
  ?GetMasterCHM@CCollection@@QAEHPAPADPAG@Z=C:\Windows\SysWOW64\hhsetup.?GetMasterCHM@CCollection@@QAEHPAPADPAG@Z
  ?GetMasterCHM@CCollection@@QAEHPAPAGPAG@Z=C:\Windows\SysWOW64\hhsetup.?GetMasterCHM@CCollection@@QAEHPAPAGPAG@Z
  ?GetNextFolder@CFolder@@QAEPAV1@XZ=C:\Windows\SysWOW64\hhsetup.?GetNextFolder@CFolder@@QAEPAV1@XZ
  ?GetNextLocation@CLocation@@QAEPAV1@XZ=C:\Windows\SysWOW64\hhsetup.?GetNextLocation@CLocation@@QAEPAV1@XZ
  ?GetNextTitle@CTitle@@QAEPAV1@XZ=C:\Windows\SysWOW64\hhsetup.?GetNextTitle@CTitle@@QAEPAV1@XZ
  ?GetOrder@CFolder@@QAEKXZ=C:\Windows\SysWOW64\hhsetup.?GetOrder@CFolder@@QAEKXZ
  ?GetParent@CFolder@@QAEPAV1@XZ=C:\Windows\SysWOW64\hhsetup.?GetParent@CFolder@@QAEPAV1@XZ
  ?GetPath@CLocation@@QAEPADXZ=C:\Windows\SysWOW64\hhsetup.?GetPath@CLocation@@QAEPADXZ
  ?GetPathW@CLocation@@QAEPBGXZ=C:\Windows\SysWOW64\hhsetup.?GetPathW@CLocation@@QAEPBGXZ
  ?GetRefTitleCount@CCollection@@QAEKXZ=C:\Windows\SysWOW64\hhsetup.?GetRefTitleCount@CCollection@@QAEKXZ
  ?GetRootFolder@CCollection@@QAEPAVCFolder@@XZ=C:\Windows\SysWOW64\hhsetup.?GetRootFolder@CCollection@@QAEPAVCFolder@@XZ
  ?GetSampleLocation@CCollection@@QAEPADXZ=C:\Windows\SysWOW64\hhsetup.?GetSampleLocation@CCollection@@QAEPADXZ
  ?GetSampleLocationW@CCollection@@QAEPBGXZ=C:\Windows\SysWOW64\hhsetup.?GetSampleLocationW@CCollection@@QAEPBGXZ
  ?GetTail@CFIFOString@@QAEKPAPAD@Z=C:\Windows\SysWOW64\hhsetup.?GetTail@CFIFOString@@QAEKPAPAD@Z
  ?GetTitle@CFolder@@QAEPADXZ=C:\Windows\SysWOW64\hhsetup.?GetTitle@CFolder@@QAEPADXZ
  ?GetTitle@CLocation@@QAEPADXZ=C:\Windows\SysWOW64\hhsetup.?GetTitle@CLocation@@QAEPADXZ
  ?GetTitleW@CFolder@@QAEPBGXZ=C:\Windows\SysWOW64\hhsetup.?GetTitleW@CFolder@@QAEPBGXZ
  ?GetTitleW@CLocation@@QAEPBGXZ=C:\Windows\SysWOW64\hhsetup.?GetTitleW@CLocation@@QAEPBGXZ
  ?GetVersion@CCollection@@QAEKXZ=C:\Windows\SysWOW64\hhsetup.?GetVersion@CCollection@@QAEKXZ
  ?GetVisableRootFolder@CCollection@@QAEPAVCFolder@@XZ=C:\Windows\SysWOW64\hhsetup.?GetVisableRootFolder@CCollection@@QAEPAVCFolder@@XZ
  ?GetVolume@CLocation@@QAEPADXZ=C:\Windows\SysWOW64\hhsetup.?GetVolume@CLocation@@QAEPADXZ
  ?GetVolumeW@CLocation@@QAEPBGXZ=C:\Windows\SysWOW64\hhsetup.?GetVolumeW@CLocation@@QAEPBGXZ
  ?HandleCollection@CCollection@@AAEKPAVCParseXML@@PAD@Z=C:\Windows\SysWOW64\hhsetup.?HandleCollection@CCollection@@AAEKPAVCParseXML@@PAD@Z
  ?HandleCollectionEntry@CCollection@@AAEKPAVCParseXML@@PAD@Z=C:\Windows\SysWOW64\hhsetup.?HandleCollectionEntry@CCollection@@AAEKPAVCParseXML@@PAD@Z
  ?HandleFolder@CCollection@@AAEKPAVCParseXML@@PAD@Z=C:\Windows\SysWOW64\hhsetup.?HandleFolder@CCollection@@AAEKPAVCParseXML@@PAD@Z
  ?HandleLocation@CCollection@@AAEKPAVCParseXML@@PAD@Z=C:\Windows\SysWOW64\hhsetup.?HandleLocation@CCollection@@AAEKPAVCParseXML@@PAD@Z
  ?HandleTitle@CCollection@@AAEKPAVCParseXML@@PAD@Z=C:\Windows\SysWOW64\hhsetup.?HandleTitle@CCollection@@AAEKPAVCParseXML@@PAD@Z
  ?IncrementRefTitleCount@CCollection@@QAEXXZ=C:\Windows\SysWOW64\hhsetup.?IncrementRefTitleCount@CCollection@@QAEXXZ
  ?IsDirty@CCollection@@QAEHXZ=C:\Windows\SysWOW64\hhsetup.?IsDirty@CCollection@@QAEHXZ
  ?MergeKeywords@CCollection@@QAEHPAD@Z=C:\Windows\SysWOW64\hhsetup.?MergeKeywords@CCollection@@QAEHPAD@Z
  ?MergeKeywords@CCollection@@QAEHPAG@Z=C:\Windows\SysWOW64\hhsetup.?MergeKeywords@CCollection@@QAEHPAG@Z
  ?NewLocation@CCollection@@AAEPAVCLocation@@XZ=C:\Windows\SysWOW64\hhsetup.?NewLocation@CCollection@@AAEPAVCLocation@@XZ
  ?NewLocationHistory@CTitle@@QAEPAULocationHistory@@XZ=C:\Windows\SysWOW64\hhsetup.?NewLocationHistory@CTitle@@QAEPAULocationHistory@@XZ
  ?NewTitle@CCollection@@AAEPAVCTitle@@XZ=C:\Windows\SysWOW64\hhsetup.?NewTitle@CCollection@@AAEPAVCTitle@@XZ
  ?Next@CPointerList@@QAEPAUListItem@@PAU2@@Z=C:\Windows\SysWOW64\hhsetup.?Next@CPointerList@@QAEPAUListItem@@PAU2@@Z
  ?Open@CCollection@@QAEKPBD@Z=C:\Windows\SysWOW64\hhsetup.?Open@CCollection@@QAEKPBD@Z
  ?Open@CCollection@@QAEKPBG@Z=C:\Windows\SysWOW64\hhsetup.?Open@CCollection@@QAEKPBG@Z
  ?ParseFile@CCollection@@AAEKPBD@Z=C:\Windows\SysWOW64\hhsetup.?ParseFile@CCollection@@AAEKPBD@Z
  ?Release@CCollection@@AAEKXZ=C:\Windows\SysWOW64\hhsetup.?Release@CCollection@@AAEKXZ
  ?RemoveAll@CFIFOString@@QAEXXZ=C:\Windows\SysWOW64\hhsetup.?RemoveAll@CFIFOString@@QAEXXZ
  ?RemoveAll@CPointerList@@QAEXXZ=C:\Windows\SysWOW64\hhsetup.?RemoveAll@CPointerList@@QAEXXZ
  ?RemoveCollection@CCollection@@QAEKH@Z=C:\Windows\SysWOW64\hhsetup.?RemoveCollection@CCollection@@QAEKH@Z
  ?RemoveCollectionEntry@CCollection@@QAEXPBD@Z=C:\Windows\SysWOW64\hhsetup.?RemoveCollectionEntry@CCollection@@QAEXPBD@Z
  ?Save@CCollection@@QAEKXZ=C:\Windows\SysWOW64\hhsetup.?Save@CCollection@@QAEKXZ
  ?SetExTitlePtr@CFolder@@QAEXPAVCExTitle@@@Z=C:\Windows\SysWOW64\hhsetup.?SetExTitlePtr@CFolder@@QAEXPAVCExTitle@@@Z
  ?SetFindMergedCHMS@CCollection@@QAEXH@Z=C:\Windows\SysWOW64\hhsetup.?SetFindMergedCHMS@CCollection@@QAEXH@Z
  ?SetFirstChildFolder@CFolder@@QAEXPAV1@@Z=C:\Windows\SysWOW64\hhsetup.?SetFirstChildFolder@CFolder@@QAEXPAV1@@Z
  ?SetId@CLocation@@QAEXPBD@Z=C:\Windows\SysWOW64\hhsetup.?SetId@CLocation@@QAEXPBD@Z
  ?SetId@CLocation@@QAEXPBG@Z=C:\Windows\SysWOW64\hhsetup.?SetId@CLocation@@QAEXPBG@Z
  ?SetId@CTitle@@QAEXPBD@Z=C:\Windows\SysWOW64\hhsetup.?SetId@CTitle@@QAEXPBD@Z
  ?SetId@CTitle@@QAEXPBG@Z=C:\Windows\SysWOW64\hhsetup.?SetId@CTitle@@QAEXPBG@Z
  ?SetLanguage@CFolder@@QAEXG@Z=C:\Windows\SysWOW64\hhsetup.?SetLanguage@CFolder@@QAEXG@Z
  ?SetLanguage@CTitle@@QAEXG@Z=C:\Windows\SysWOW64\hhsetup.?SetLanguage@CTitle@@QAEXG@Z
  ?SetMasterCHM@CCollection@@QAEXPBDG@Z=C:\Windows\SysWOW64\hhsetup.?SetMasterCHM@CCollection@@QAEXPBDG@Z
  ?SetMasterCHM@CCollection@@QAEXPBGG@Z=C:\Windows\SysWOW64\hhsetup.?SetMasterCHM@CCollection@@QAEXPBGG@Z
  ?SetNextFolder@CFolder@@QAEXPAV1@@Z=C:\Windows\SysWOW64\hhsetup.?SetNextFolder@CFolder@@QAEXPAV1@@Z
  ?SetNextLocation@CLocation@@QAEXPAV1@@Z=C:\Windows\SysWOW64\hhsetup.?SetNextLocation@CLocation@@QAEXPAV1@@Z
  ?SetNextTitle@CTitle@@QAEXPAV1@@Z=C:\Windows\SysWOW64\hhsetup.?SetNextTitle@CTitle@@QAEXPAV1@@Z
  ?SetOrder@CFolder@@QAEXK@Z=C:\Windows\SysWOW64\hhsetup.?SetOrder@CFolder@@QAEXK@Z
  ?SetParent@CFolder@@QAEXPAV1@@Z=C:\Windows\SysWOW64\hhsetup.?SetParent@CFolder@@QAEXPAV1@@Z
  ?SetPath@CLocation@@QAEXPBD@Z=C:\Windows\SysWOW64\hhsetup.?SetPath@CLocation@@QAEXPBD@Z
  ?SetPath@CLocation@@QAEXPBG@Z=C:\Windows\SysWOW64\hhsetup.?SetPath@CLocation@@QAEXPBG@Z
  ?SetSampleLocation@CCollection@@QAEXPBD@Z=C:\Windows\SysWOW64\hhsetup.?SetSampleLocation@CCollection@@QAEXPBD@Z
  ?SetSampleLocation@CCollection@@QAEXPBG@Z=C:\Windows\SysWOW64\hhsetup.?SetSampleLocation@CCollection@@QAEXPBG@Z
  ?SetTitle@CFolder@@QAEXPBD@Z=C:\Windows\SysWOW64\hhsetup.?SetTitle@CFolder@@QAEXPBD@Z
  ?SetTitle@CFolder@@QAEXPBG@Z=C:\Windows\SysWOW64\hhsetup.?SetTitle@CFolder@@QAEXPBG@Z
  ?SetTitle@CLocation@@QAEXPBD@Z=C:\Windows\SysWOW64\hhsetup.?SetTitle@CLocation@@QAEXPBD@Z
  ?SetTitle@CLocation@@QAEXPBG@Z=C:\Windows\SysWOW64\hhsetup.?SetTitle@CLocation@@QAEXPBG@Z
  ?SetVersion@CCollection@@QAEXK@Z=C:\Windows\SysWOW64\hhsetup.?SetVersion@CCollection@@QAEXK@Z
  ?SetVolume@CLocation@@QAEXPBD@Z=C:\Windows\SysWOW64\hhsetup.?SetVolume@CLocation@@QAEXPBD@Z
  ?SetVolume@CLocation@@QAEXPBG@Z=C:\Windows\SysWOW64\hhsetup.?SetVolume@CLocation@@QAEXPBG@Z
  ?WriteFolder@CCollection@@AAEHPAPAVCFolder@@@Z=C:\Windows\SysWOW64\hhsetup.?WriteFolder@CCollection@@AAEHPAPAVCFolder@@@Z
  ?WriteFolders@CCollection@@AAEHPAPAVCFolder@@@Z=C:\Windows\SysWOW64\hhsetup.?WriteFolders@CCollection@@AAEHPAPAVCFolder@@@Z
  ?bIsVisable@CFolder@@QAEHXZ=C:\Windows\SysWOW64\hhsetup.?bIsVisable@CFolder@@QAEHXZ
  ?wssResetNextColNum@CCollection@@AAEXXZ=C:\Windows\SysWOW64\hhsetup.?wssResetNextColNum@CCollection@@AAEXXZ
