EXPORTS
  ??0CDynLib@@IAE@XZ=C:\Windows\SysWOW64\migisol.??0CDynLib@@IAE@XZ
  ??0CIlAdvapi32@@QAE@$$QAV0@@Z=C:\Windows\SysWOW64\migisol.??0CIlAdvapi32@@QAE@$$QAV0@@Z
  ??0CIlAdvapi32@@QAE@ABV0@@Z=C:\Windows\SysWOW64\migisol.??0CIlAdvapi32@@QAE@ABV0@@Z
  ??0CIlAdvapi32@@QAE@XZ=C:\Windows\SysWOW64\migisol.??0CIlAdvapi32@@QAE@XZ
  ??0CIlDeplorch@@QAE@$$QAV0@@Z=C:\Windows\SysWOW64\migisol.??0CIlDeplorch@@QAE@$$QAV0@@Z
  ??0CIlDeplorch@@QAE@ABV0@@Z=C:\Windows\SysWOW64\migisol.??0CIlDeplorch@@QAE@ABV0@@Z
  ??0CIlDeplorch@@QAE@XZ=C:\Windows\SysWOW64\migisol.??0CIlDeplorch@@QAE@XZ
  ??0CIlIphlpapi@@QAE@$$QAV0@@Z=C:\Windows\SysWOW64\migisol.??0CIlIphlpapi@@QAE@$$QAV0@@Z
  ??0CIlIphlpapi@@QAE@ABV0@@Z=C:\Windows\SysWOW64\migisol.??0CIlIphlpapi@@QAE@ABV0@@Z
  ??0CIlIphlpapi@@QAE@XZ=C:\Windows\SysWOW64\migisol.??0CIlIphlpapi@@QAE@XZ
  ??0CIlKernel32@@QAE@ABV0@@Z=C:\Windows\SysWOW64\migisol.??0CIlKernel32@@QAE@ABV0@@Z
  ??0CIlKernel32@@QAE@XZ=C:\Windows\SysWOW64\migisol.??0CIlKernel32@@QAE@XZ
  ??0CIlMuisetupapi@@QAE@$$QAV0@@Z=C:\Windows\SysWOW64\migisol.??0CIlMuisetupapi@@QAE@$$QAV0@@Z
  ??0CIlMuisetupapi@@QAE@ABV0@@Z=C:\Windows\SysWOW64\migisol.??0CIlMuisetupapi@@QAE@ABV0@@Z
  ??0CIlMuisetupapi@@QAE@XZ=C:\Windows\SysWOW64\migisol.??0CIlMuisetupapi@@QAE@XZ
  ??0CIlNt4Advapi32@@QAE@$$QAV0@@Z=C:\Windows\SysWOW64\migisol.??0CIlNt4Advapi32@@QAE@$$QAV0@@Z
  ??0CIlNt4Advapi32@@QAE@ABV0@@Z=C:\Windows\SysWOW64\migisol.??0CIlNt4Advapi32@@QAE@ABV0@@Z
  ??0CIlNt4Advapi32@@QAE@XZ=C:\Windows\SysWOW64\migisol.??0CIlNt4Advapi32@@QAE@XZ
  ??0CIlNt4Kernel32@@QAE@$$QAV0@@Z=C:\Windows\SysWOW64\migisol.??0CIlNt4Kernel32@@QAE@$$QAV0@@Z
  ??0CIlNt4Kernel32@@QAE@ABV0@@Z=C:\Windows\SysWOW64\migisol.??0CIlNt4Kernel32@@QAE@ABV0@@Z
  ??0CIlNt4Kernel32@@QAE@XZ=C:\Windows\SysWOW64\migisol.??0CIlNt4Kernel32@@QAE@XZ
  ??0CIlNt4Netapi32@@QAE@$$QAV0@@Z=C:\Windows\SysWOW64\migisol.??0CIlNt4Netapi32@@QAE@$$QAV0@@Z
  ??0CIlNt4Netapi32@@QAE@ABV0@@Z=C:\Windows\SysWOW64\migisol.??0CIlNt4Netapi32@@QAE@ABV0@@Z
  ??0CIlNt4Netapi32@@QAE@XZ=C:\Windows\SysWOW64\migisol.??0CIlNt4Netapi32@@QAE@XZ
  ??0CIlNt4Setupapi@@QAE@$$QAV0@@Z=C:\Windows\SysWOW64\migisol.??0CIlNt4Setupapi@@QAE@$$QAV0@@Z
  ??0CIlNt4Setupapi@@QAE@ABV0@@Z=C:\Windows\SysWOW64\migisol.??0CIlNt4Setupapi@@QAE@ABV0@@Z
  ??0CIlNt4Setupapi@@QAE@XZ=C:\Windows\SysWOW64\migisol.??0CIlNt4Setupapi@@QAE@XZ
  ??0CIlNt4User32@@QAE@$$QAV0@@Z=C:\Windows\SysWOW64\migisol.??0CIlNt4User32@@QAE@$$QAV0@@Z
  ??0CIlNt4User32@@QAE@ABV0@@Z=C:\Windows\SysWOW64\migisol.??0CIlNt4User32@@QAE@ABV0@@Z
  ??0CIlNt4User32@@QAE@XZ=C:\Windows\SysWOW64\migisol.??0CIlNt4User32@@QAE@XZ
  ??0CIlNt4Userenv@@QAE@$$QAV0@@Z=C:\Windows\SysWOW64\migisol.??0CIlNt4Userenv@@QAE@$$QAV0@@Z
  ??0CIlNt4Userenv@@QAE@ABV0@@Z=C:\Windows\SysWOW64\migisol.??0CIlNt4Userenv@@QAE@ABV0@@Z
  ??0CIlNt4Userenv@@QAE@XZ=C:\Windows\SysWOW64\migisol.??0CIlNt4Userenv@@QAE@XZ
  ??0CIlNt6Userenv@@QAE@$$QAV0@@Z=C:\Windows\SysWOW64\migisol.??0CIlNt6Userenv@@QAE@$$QAV0@@Z
  ??0CIlNt6Userenv@@QAE@ABV0@@Z=C:\Windows\SysWOW64\migisol.??0CIlNt6Userenv@@QAE@ABV0@@Z
  ??0CIlNt6Userenv@@QAE@XZ=C:\Windows\SysWOW64\migisol.??0CIlNt6Userenv@@QAE@XZ
  ??0CIlOle32@@QAE@$$QAV0@@Z=C:\Windows\SysWOW64\migisol.??0CIlOle32@@QAE@$$QAV0@@Z
  ??0CIlOle32@@QAE@ABV0@@Z=C:\Windows\SysWOW64\migisol.??0CIlOle32@@QAE@ABV0@@Z
  ??0CIlOle32@@QAE@XZ=C:\Windows\SysWOW64\migisol.??0CIlOle32@@QAE@XZ
  ??0CIlOleaut32@@QAE@$$QAV0@@Z=C:\Windows\SysWOW64\migisol.??0CIlOleaut32@@QAE@$$QAV0@@Z
  ??0CIlOleaut32@@QAE@ABV0@@Z=C:\Windows\SysWOW64\migisol.??0CIlOleaut32@@QAE@ABV0@@Z
  ??0CIlOleaut32@@QAE@XZ=C:\Windows\SysWOW64\migisol.??0CIlOleaut32@@QAE@XZ
  ??0CIlSetupapi@@QAE@$$QAV0@@Z=C:\Windows\SysWOW64\migisol.??0CIlSetupapi@@QAE@$$QAV0@@Z
  ??0CIlSetupapi@@QAE@ABV0@@Z=C:\Windows\SysWOW64\migisol.??0CIlSetupapi@@QAE@ABV0@@Z
  ??0CIlSetupapi@@QAE@XZ=C:\Windows\SysWOW64\migisol.??0CIlSetupapi@@QAE@XZ
  ??0CIlShell32@@QAE@$$QAV0@@Z=C:\Windows\SysWOW64\migisol.??0CIlShell32@@QAE@$$QAV0@@Z
  ??0CIlShell32@@QAE@ABV0@@Z=C:\Windows\SysWOW64\migisol.??0CIlShell32@@QAE@ABV0@@Z
  ??0CIlShell32@@QAE@XZ=C:\Windows\SysWOW64\migisol.??0CIlShell32@@QAE@XZ
  ??0CIlUser32@@QAE@$$QAV0@@Z=C:\Windows\SysWOW64\migisol.??0CIlUser32@@QAE@$$QAV0@@Z
  ??0CIlUser32@@QAE@ABV0@@Z=C:\Windows\SysWOW64\migisol.??0CIlUser32@@QAE@ABV0@@Z
  ??0CIlUser32@@QAE@XZ=C:\Windows\SysWOW64\migisol.??0CIlUser32@@QAE@XZ
  ??0CIlVersion@@QAE@$$QAV0@@Z=C:\Windows\SysWOW64\migisol.??0CIlVersion@@QAE@$$QAV0@@Z
  ??0CIlVersion@@QAE@ABV0@@Z=C:\Windows\SysWOW64\migisol.??0CIlVersion@@QAE@ABV0@@Z
  ??0CIlVersion@@QAE@XZ=C:\Windows\SysWOW64\migisol.??0CIlVersion@@QAE@XZ
  ??0CIlW2kDynWs2_32@@QAE@$$QAV0@@Z=C:\Windows\SysWOW64\migisol.??0CIlW2kDynWs2_32@@QAE@$$QAV0@@Z
  ??0CIlW2kDynWs2_32@@QAE@ABV0@@Z=C:\Windows\SysWOW64\migisol.??0CIlW2kDynWs2_32@@QAE@ABV0@@Z
  ??0CIlW2kDynWs2_32@@QAE@XZ=C:\Windows\SysWOW64\migisol.??0CIlW2kDynWs2_32@@QAE@XZ
  ??0CIlWimgapi@@QAE@$$QAV0@@Z=C:\Windows\SysWOW64\migisol.??0CIlWimgapi@@QAE@$$QAV0@@Z
  ??0CIlWimgapi@@QAE@ABV0@@Z=C:\Windows\SysWOW64\migisol.??0CIlWimgapi@@QAE@ABV0@@Z
  ??0CIlWimgapi@@QAE@XZ=C:\Windows\SysWOW64\migisol.??0CIlWimgapi@@QAE@XZ
  ??0CIlWs2_32@@QAE@$$QAV0@@Z=C:\Windows\SysWOW64\migisol.??0CIlWs2_32@@QAE@$$QAV0@@Z
  ??0CIlWs2_32@@QAE@ABV0@@Z=C:\Windows\SysWOW64\migisol.??0CIlWs2_32@@QAE@ABV0@@Z
  ??0CIlWs2_32@@QAE@XZ=C:\Windows\SysWOW64\migisol.??0CIlWs2_32@@QAE@XZ
  ??1CIlKernel32@@QAE@XZ=C:\Windows\SysWOW64\migisol.??1CIlKernel32@@QAE@XZ
  ??4CDynLib@@QAEAAV0@$$QAV0@@Z=C:\Windows\SysWOW64\migisol.??4CDynLib@@QAEAAV0@$$QAV0@@Z
  ??4CDynLib@@QAEAAV0@ABV0@@Z=C:\Windows\SysWOW64\migisol.??4CDynLib@@QAEAAV0@ABV0@@Z
  ??4CIlAdvapi32@@QAEAAV0@$$QAV0@@Z=C:\Windows\SysWOW64\migisol.??4CIlAdvapi32@@QAEAAV0@$$QAV0@@Z
  ??4CIlAdvapi32@@QAEAAV0@ABV0@@Z=C:\Windows\SysWOW64\migisol.??4CIlAdvapi32@@QAEAAV0@ABV0@@Z
  ??4CIlDeplorch@@QAEAAV0@$$QAV0@@Z=C:\Windows\SysWOW64\migisol.??4CIlDeplorch@@QAEAAV0@$$QAV0@@Z
  ??4CIlDeplorch@@QAEAAV0@ABV0@@Z=C:\Windows\SysWOW64\migisol.??4CIlDeplorch@@QAEAAV0@ABV0@@Z
  ??4CIlIphlpapi@@QAEAAV0@$$QAV0@@Z=C:\Windows\SysWOW64\migisol.??4CIlIphlpapi@@QAEAAV0@$$QAV0@@Z
  ??4CIlIphlpapi@@QAEAAV0@ABV0@@Z=C:\Windows\SysWOW64\migisol.??4CIlIphlpapi@@QAEAAV0@ABV0@@Z
  ??4CIlKernel32@@QAEAAV0@ABV0@@Z=C:\Windows\SysWOW64\migisol.??4CIlKernel32@@QAEAAV0@ABV0@@Z
  ??4CIlMuisetupapi@@QAEAAV0@$$QAV0@@Z=C:\Windows\SysWOW64\migisol.??4CIlMuisetupapi@@QAEAAV0@$$QAV0@@Z
  ??4CIlMuisetupapi@@QAEAAV0@ABV0@@Z=C:\Windows\SysWOW64\migisol.??4CIlMuisetupapi@@QAEAAV0@ABV0@@Z
  ??4CIlNt4Advapi32@@QAEAAV0@$$QAV0@@Z=C:\Windows\SysWOW64\migisol.??4CIlNt4Advapi32@@QAEAAV0@$$QAV0@@Z
  ??4CIlNt4Advapi32@@QAEAAV0@ABV0@@Z=C:\Windows\SysWOW64\migisol.??4CIlNt4Advapi32@@QAEAAV0@ABV0@@Z
  ??4CIlNt4Kernel32@@QAEAAV0@$$QAV0@@Z=C:\Windows\SysWOW64\migisol.??4CIlNt4Kernel32@@QAEAAV0@$$QAV0@@Z
  ??4CIlNt4Kernel32@@QAEAAV0@ABV0@@Z=C:\Windows\SysWOW64\migisol.??4CIlNt4Kernel32@@QAEAAV0@ABV0@@Z
  ??4CIlNt4Netapi32@@QAEAAV0@$$QAV0@@Z=C:\Windows\SysWOW64\migisol.??4CIlNt4Netapi32@@QAEAAV0@$$QAV0@@Z
  ??4CIlNt4Netapi32@@QAEAAV0@ABV0@@Z=C:\Windows\SysWOW64\migisol.??4CIlNt4Netapi32@@QAEAAV0@ABV0@@Z
  ??4CIlNt4Setupapi@@QAEAAV0@$$QAV0@@Z=C:\Windows\SysWOW64\migisol.??4CIlNt4Setupapi@@QAEAAV0@$$QAV0@@Z
  ??4CIlNt4Setupapi@@QAEAAV0@ABV0@@Z=C:\Windows\SysWOW64\migisol.??4CIlNt4Setupapi@@QAEAAV0@ABV0@@Z
  ??4CIlNt4User32@@QAEAAV0@$$QAV0@@Z=C:\Windows\SysWOW64\migisol.??4CIlNt4User32@@QAEAAV0@$$QAV0@@Z
  ??4CIlNt4User32@@QAEAAV0@ABV0@@Z=C:\Windows\SysWOW64\migisol.??4CIlNt4User32@@QAEAAV0@ABV0@@Z
  ??4CIlNt4Userenv@@QAEAAV0@$$QAV0@@Z=C:\Windows\SysWOW64\migisol.??4CIlNt4Userenv@@QAEAAV0@$$QAV0@@Z
  ??4CIlNt4Userenv@@QAEAAV0@ABV0@@Z=C:\Windows\SysWOW64\migisol.??4CIlNt4Userenv@@QAEAAV0@ABV0@@Z
  ??4CIlNt6Userenv@@QAEAAV0@$$QAV0@@Z=C:\Windows\SysWOW64\migisol.??4CIlNt6Userenv@@QAEAAV0@$$QAV0@@Z
  ??4CIlNt6Userenv@@QAEAAV0@ABV0@@Z=C:\Windows\SysWOW64\migisol.??4CIlNt6Userenv@@QAEAAV0@ABV0@@Z
  ??4CIlOle32@@QAEAAV0@$$QAV0@@Z=C:\Windows\SysWOW64\migisol.??4CIlOle32@@QAEAAV0@$$QAV0@@Z
  ??4CIlOle32@@QAEAAV0@ABV0@@Z=C:\Windows\SysWOW64\migisol.??4CIlOle32@@QAEAAV0@ABV0@@Z
  ??4CIlOleaut32@@QAEAAV0@$$QAV0@@Z=C:\Windows\SysWOW64\migisol.??4CIlOleaut32@@QAEAAV0@$$QAV0@@Z
  ??4CIlOleaut32@@QAEAAV0@ABV0@@Z=C:\Windows\SysWOW64\migisol.??4CIlOleaut32@@QAEAAV0@ABV0@@Z
  ??4CIlSetupapi@@QAEAAV0@$$QAV0@@Z=C:\Windows\SysWOW64\migisol.??4CIlSetupapi@@QAEAAV0@$$QAV0@@Z
  ??4CIlSetupapi@@QAEAAV0@ABV0@@Z=C:\Windows\SysWOW64\migisol.??4CIlSetupapi@@QAEAAV0@ABV0@@Z
  ??4CIlShell32@@QAEAAV0@$$QAV0@@Z=C:\Windows\SysWOW64\migisol.??4CIlShell32@@QAEAAV0@$$QAV0@@Z
  ??4CIlShell32@@QAEAAV0@ABV0@@Z=C:\Windows\SysWOW64\migisol.??4CIlShell32@@QAEAAV0@ABV0@@Z
  ??4CIlUser32@@QAEAAV0@$$QAV0@@Z=C:\Windows\SysWOW64\migisol.??4CIlUser32@@QAEAAV0@$$QAV0@@Z
  ??4CIlUser32@@QAEAAV0@ABV0@@Z=C:\Windows\SysWOW64\migisol.??4CIlUser32@@QAEAAV0@ABV0@@Z
  ??4CIlVersion@@QAEAAV0@$$QAV0@@Z=C:\Windows\SysWOW64\migisol.??4CIlVersion@@QAEAAV0@$$QAV0@@Z
  ??4CIlVersion@@QAEAAV0@ABV0@@Z=C:\Windows\SysWOW64\migisol.??4CIlVersion@@QAEAAV0@ABV0@@Z
  ??4CIlW2kDynWs2_32@@QAEAAV0@$$QAV0@@Z=C:\Windows\SysWOW64\migisol.??4CIlW2kDynWs2_32@@QAEAAV0@$$QAV0@@Z
  ??4CIlW2kDynWs2_32@@QAEAAV0@ABV0@@Z=C:\Windows\SysWOW64\migisol.??4CIlW2kDynWs2_32@@QAEAAV0@ABV0@@Z
  ??4CIlWimgapi@@QAEAAV0@$$QAV0@@Z=C:\Windows\SysWOW64\migisol.??4CIlWimgapi@@QAEAAV0@$$QAV0@@Z
  ??4CIlWimgapi@@QAEAAV0@ABV0@@Z=C:\Windows\SysWOW64\migisol.??4CIlWimgapi@@QAEAAV0@ABV0@@Z
  ??4CIlWs2_32@@QAEAAV0@$$QAV0@@Z=C:\Windows\SysWOW64\migisol.??4CIlWs2_32@@QAEAAV0@$$QAV0@@Z
  ??4CIlWs2_32@@QAEAAV0@ABV0@@Z=C:\Windows\SysWOW64\migisol.??4CIlWs2_32@@QAEAAV0@ABV0@@Z
  ??_7CIlAdvapi32@@6B@=C:\Windows\SysWOW64\migisol.??_7CIlAdvapi32@@6B@
  ??_7CIlDeplorch@@6B@=C:\Windows\SysWOW64\migisol.??_7CIlDeplorch@@6B@
  ??_7CIlIphlpapi@@6B@=C:\Windows\SysWOW64\migisol.??_7CIlIphlpapi@@6B@
  ??_7CIlKernel32@@6B@=C:\Windows\SysWOW64\migisol.??_7CIlKernel32@@6B@
  ??_7CIlMuisetupapi@@6B@=C:\Windows\SysWOW64\migisol.??_7CIlMuisetupapi@@6B@
  ??_7CIlNt4Advapi32@@6B@=C:\Windows\SysWOW64\migisol.??_7CIlNt4Advapi32@@6B@
  ??_7CIlNt4Kernel32@@6B@=C:\Windows\SysWOW64\migisol.??_7CIlNt4Kernel32@@6B@
  ??_7CIlNt4Netapi32@@6B@=C:\Windows\SysWOW64\migisol.??_7CIlNt4Netapi32@@6B@
  ??_7CIlNt4Setupapi@@6B@=C:\Windows\SysWOW64\migisol.??_7CIlNt4Setupapi@@6B@
  ??_7CIlNt4User32@@6B@=C:\Windows\SysWOW64\migisol.??_7CIlNt4User32@@6B@
  ??_7CIlNt4Userenv@@6B@=C:\Windows\SysWOW64\migisol.??_7CIlNt4Userenv@@6B@
  ??_7CIlNt6Userenv@@6B@=C:\Windows\SysWOW64\migisol.??_7CIlNt6Userenv@@6B@
  ??_7CIlOle32@@6B@=C:\Windows\SysWOW64\migisol.??_7CIlOle32@@6B@
  ??_7CIlOleaut32@@6B@=C:\Windows\SysWOW64\migisol.??_7CIlOleaut32@@6B@
  ??_7CIlSetupapi@@6B@=C:\Windows\SysWOW64\migisol.??_7CIlSetupapi@@6B@
  ??_7CIlShell32@@6B@=C:\Windows\SysWOW64\migisol.??_7CIlShell32@@6B@
  ??_7CIlUser32@@6B@=C:\Windows\SysWOW64\migisol.??_7CIlUser32@@6B@
  ??_7CIlVersion@@6B@=C:\Windows\SysWOW64\migisol.??_7CIlVersion@@6B@
  ??_7CIlW2kDynWs2_32@@6B@=C:\Windows\SysWOW64\migisol.??_7CIlW2kDynWs2_32@@6B@
  ??_7CIlWimgapi@@6B@=C:\Windows\SysWOW64\migisol.??_7CIlWimgapi@@6B@
  ??_7CIlWs2_32@@6B@=C:\Windows\SysWOW64\migisol.??_7CIlWs2_32@@6B@
  ?AdjustTokenPrivileges@CIlAdvapi32@@UAEHPAXHPAU_TOKEN_PRIVILEGES@@K1PAK@Z=C:\Windows\SysWOW64\migisol.?AdjustTokenPrivileges@CIlAdvapi32@@UAEHPAXHPAU_TOKEN_PRIVILEGES@@K1PAK@Z
  ?AllocateAndInitializeSid@CIlAdvapi32@@UAEHPAU_SID_IDENTIFIER_AUTHORITY@@EKKKKKKKKPAPAX@Z=C:\Windows\SysWOW64\migisol.?AllocateAndInitializeSid@CIlAdvapi32@@UAEHPAU_SID_IDENTIFIER_AUTHORITY@@EKKKKKKKKPAPAX@Z
  ?ChangeServiceConfigW@CIlNt4Advapi32@@UAEHPAUSC_HANDLE__@@KKKPBG1PAK1111@Z=C:\Windows\SysWOW64\migisol.?ChangeServiceConfigW@CIlNt4Advapi32@@UAEHPAUSC_HANDLE__@@KKKPBG1PAK1111@Z
  ?CloseHandle@CIlKernel32@@UAEHPAX@Z=C:\Windows\SysWOW64\migisol.?CloseHandle@CIlKernel32@@UAEHPAX@Z
  ?CloseServiceHandle@CIlNt4Advapi32@@UAEHPAUSC_HANDLE__@@@Z=C:\Windows\SysWOW64\migisol.?CloseServiceHandle@CIlNt4Advapi32@@UAEHPAUSC_HANDLE__@@@Z
  ?CoCreateInstance@CIlOle32@@UAEJABU_GUID@@PAUIUnknown@@K0PAPAX@Z=C:\Windows\SysWOW64\migisol.?CoCreateInstance@CIlOle32@@UAEJABU_GUID@@PAUIUnknown@@K0PAPAX@Z
  ?CoInitialize@CIlOle32@@UAEJPAX@Z=C:\Windows\SysWOW64\migisol.?CoInitialize@CIlOle32@@UAEJPAX@Z
  ?CoInitializeEx@CIlOle32@@UAEJPAXK@Z=C:\Windows\SysWOW64\migisol.?CoInitializeEx@CIlOle32@@UAEJPAXK@Z
  ?CoTaskMemAlloc@CIlOle32@@UAEPAXK@Z=C:\Windows\SysWOW64\migisol.?CoTaskMemAlloc@CIlOle32@@UAEPAXK@Z
  ?CoTaskMemFree@CIlOle32@@UAEXPAX@Z=C:\Windows\SysWOW64\migisol.?CoTaskMemFree@CIlOle32@@UAEXPAX@Z
  ?CoUninitialize@CIlOle32@@UAEXXZ=C:\Windows\SysWOW64\migisol.?CoUninitialize@CIlOle32@@UAEXXZ
  ?ConvertSecurityDescriptorToStringSecurityDescriptorW@CIlNt4Advapi32@@UAEHPAXKKPAPAGPAK@Z=C:\Windows\SysWOW64\migisol.?ConvertSecurityDescriptorToStringSecurityDescriptorW@CIlNt4Advapi32@@UAEHPAXKKPAPAGPAK@Z
  ?ConvertSidToStringSidW@CIlNt4Advapi32@@UAEHPAXPAPAG@Z=C:\Windows\SysWOW64\migisol.?ConvertSidToStringSidW@CIlNt4Advapi32@@UAEHPAXPAPAG@Z
  ?ConvertStringSecurityDescriptorToSecurityDescriptorW@CIlNt4Advapi32@@UAEHPBGKPAPAXPAK@Z=C:\Windows\SysWOW64\migisol.?ConvertStringSecurityDescriptorToSecurityDescriptorW@CIlNt4Advapi32@@UAEHPBGKPAPAXPAK@Z
  ?ConvertStringSidToSidW@CIlNt4Advapi32@@UAEHPAGPAPAX@Z=C:\Windows\SysWOW64\migisol.?ConvertStringSidToSidW@CIlNt4Advapi32@@UAEHPAGPAPAX@Z
  ?CopyFileW@CIlKernel32@@UAEHPBG0H@Z=C:\Windows\SysWOW64\migisol.?CopyFileW@CIlKernel32@@UAEHPBG0H@Z
  ?CreateDirectoryW@CIlKernel32@@UAEHPBGPAU_SECURITY_ATTRIBUTES@@@Z=C:\Windows\SysWOW64\migisol.?CreateDirectoryW@CIlKernel32@@UAEHPBGPAU_SECURITY_ATTRIBUTES@@@Z
  ?CreateEventW@CIlKernel32@@UAEPAXPAU_SECURITY_ATTRIBUTES@@HHPBG@Z=C:\Windows\SysWOW64\migisol.?CreateEventW@CIlKernel32@@UAEPAXPAU_SECURITY_ATTRIBUTES@@HHPBG@Z
  ?CreateFileMappingW@CIlKernel32@@UAEPAXPAXPAU_SECURITY_ATTRIBUTES@@KKKPBG@Z=C:\Windows\SysWOW64\migisol.?CreateFileMappingW@CIlKernel32@@UAEPAXPAXPAU_SECURITY_ATTRIBUTES@@KKKPBG@Z
  ?CreateFileW@CIlKernel32@@UAEPAXPBGKKPAU_SECURITY_ATTRIBUTES@@KKPAX@Z=C:\Windows\SysWOW64\migisol.?CreateFileW@CIlKernel32@@UAEPAXPBGKKPAU_SECURITY_ATTRIBUTES@@KKPAX@Z
  ?CreateProcessA@CIlKernel32@@UAEHPBDPADPAU_SECURITY_ATTRIBUTES@@2HKPAX0PAU_STARTUPINFOA@@PAU_PROCESS_INFORMATION@@@Z=C:\Windows\SysWOW64\migisol.?CreateProcessA@CIlKernel32@@UAEHPBDPADPAU_SECURITY_ATTRIBUTES@@2HKPAX0PAU_STARTUPINFOA@@PAU_PROCESS_INFORMATION@@@Z
  ?CreateProcessW@CIlKernel32@@UAEHPBGPAGPAU_SECURITY_ATTRIBUTES@@2HKPAX0PAU_STARTUPINFOW@@PAU_PROCESS_INFORMATION@@@Z=C:\Windows\SysWOW64\migisol.?CreateProcessW@CIlKernel32@@UAEHPBGPAGPAU_SECURITY_ATTRIBUTES@@2HKPAX0PAU_STARTUPINFOW@@PAU_PROCESS_INFORMATION@@@Z
  ?CreateProfile@CIlNt6Userenv@@UAEJPBG0PAGK@Z=C:\Windows\SysWOW64\migisol.?CreateProfile@CIlNt6Userenv@@UAEJPBG0PAGK@Z
  ?CreateServiceW@CIlNt4Advapi32@@UAEPAUSC_HANDLE__@@PAU2@PBG1KKKK11PAK111@Z=C:\Windows\SysWOW64\migisol.?CreateServiceW@CIlNt4Advapi32@@UAEPAUSC_HANDLE__@@PAU2@PBG1KKKK11PAK111@Z
  ?CreateStreamOnHGlobal@CIlOle32@@UAEJPAXHPAPAUIStream@@@Z=C:\Windows\SysWOW64\migisol.?CreateStreamOnHGlobal@CIlOle32@@UAEJPAXHPAPAUIStream@@@Z
  ?CreateThread@CIlKernel32@@UAEPAXPAU_SECURITY_ATTRIBUTES@@KP6GKPAX@Z1KPAK@Z=C:\Windows\SysWOW64\migisol.?CreateThread@CIlKernel32@@UAEPAXPAU_SECURITY_ATTRIBUTES@@KP6GKPAX@Z1KPAK@Z
  ?CreateToolhelp32Snapshot@CIlNt4Kernel32@@UAEPAXKK@Z=C:\Windows\SysWOW64\migisol.?CreateToolhelp32Snapshot@CIlNt4Kernel32@@UAEPAXKK@Z
  ?CreateUserProfileExW@CIlNt4Userenv@@UAEHPAXPBG1PAGKH@Z=C:\Windows\SysWOW64\migisol.?CreateUserProfileExW@CIlNt4Userenv@@UAEHPAXPBG1PAGKH@Z
  ?CreateWellKnownSid@CIlNt4Advapi32@@UAEHW4WELL_KNOWN_SID_TYPE@@PAX1PAK@Z=C:\Windows\SysWOW64\migisol.?CreateWellKnownSid@CIlNt4Advapi32@@UAEHW4WELL_KNOWN_SID_TYPE@@PAX1PAK@Z
  ?CryptAcquireContextW@CIlAdvapi32@@UAEHPAKPBG1KK@Z=C:\Windows\SysWOW64\migisol.?CryptAcquireContextW@CIlAdvapi32@@UAEHPAKPBG1KK@Z
  ?CryptCreateHash@CIlAdvapi32@@UAEHKIKKPAK@Z=C:\Windows\SysWOW64\migisol.?CryptCreateHash@CIlAdvapi32@@UAEHKIKKPAK@Z
  ?CryptDecrypt@CIlAdvapi32@@UAEHKKHKPAEPAK@Z=C:\Windows\SysWOW64\migisol.?CryptDecrypt@CIlAdvapi32@@UAEHKKHKPAEPAK@Z
  ?CryptDeriveKey@CIlAdvapi32@@UAEHKIKKPAK@Z=C:\Windows\SysWOW64\migisol.?CryptDeriveKey@CIlAdvapi32@@UAEHKIKKPAK@Z
  ?CryptDestroyHash@CIlAdvapi32@@UAEHK@Z=C:\Windows\SysWOW64\migisol.?CryptDestroyHash@CIlAdvapi32@@UAEHK@Z
  ?CryptDestroyKey@CIlAdvapi32@@UAEHK@Z=C:\Windows\SysWOW64\migisol.?CryptDestroyKey@CIlAdvapi32@@UAEHK@Z
  ?CryptDuplicateHash@CIlAdvapi32@@UAEHKPAKK0@Z=C:\Windows\SysWOW64\migisol.?CryptDuplicateHash@CIlAdvapi32@@UAEHKPAKK0@Z
  ?CryptDuplicateKey@CIlAdvapi32@@UAEHKPAKK0@Z=C:\Windows\SysWOW64\migisol.?CryptDuplicateKey@CIlAdvapi32@@UAEHKPAKK0@Z
  ?CryptEncrypt@CIlAdvapi32@@UAEHKKHKPAEPAKK@Z=C:\Windows\SysWOW64\migisol.?CryptEncrypt@CIlAdvapi32@@UAEHKKHKPAEPAKK@Z
  ?CryptGenRandom@CIlAdvapi32@@UAEHKKPAE@Z=C:\Windows\SysWOW64\migisol.?CryptGenRandom@CIlAdvapi32@@UAEHKKPAE@Z
  ?CryptGetHashParam@CIlAdvapi32@@UAEHKKPAEPAKK@Z=C:\Windows\SysWOW64\migisol.?CryptGetHashParam@CIlAdvapi32@@UAEHKKPAEPAKK@Z
  ?CryptGetKeyParam@CIlAdvapi32@@UAEHKKPAEPAKK@Z=C:\Windows\SysWOW64\migisol.?CryptGetKeyParam@CIlAdvapi32@@UAEHKKPAEPAKK@Z
  ?CryptHashData@CIlAdvapi32@@UAEHKPBEKK@Z=C:\Windows\SysWOW64\migisol.?CryptHashData@CIlAdvapi32@@UAEHKPBEKK@Z
  ?CryptReleaseContext@CIlAdvapi32@@UAEHKK@Z=C:\Windows\SysWOW64\migisol.?CryptReleaseContext@CIlAdvapi32@@UAEHKK@Z
  ?CryptSetKeyParam@CIlAdvapi32@@UAEHKKPBEK@Z=C:\Windows\SysWOW64\migisol.?CryptSetKeyParam@CIlAdvapi32@@UAEHKKPBEK@Z
  ?DebugBreak@CIlKernel32@@UAEXXZ=C:\Windows\SysWOW64\migisol.?DebugBreak@CIlKernel32@@UAEXXZ
  ?DeleteCriticalSection@CIlKernel32@@UAEXPAU_RTL_CRITICAL_SECTION@@@Z=C:\Windows\SysWOW64\migisol.?DeleteCriticalSection@CIlKernel32@@UAEXPAU_RTL_CRITICAL_SECTION@@@Z
  ?DeleteFileW@CIlKernel32@@UAEHPBG@Z=C:\Windows\SysWOW64\migisol.?DeleteFileW@CIlKernel32@@UAEHPBG@Z
  ?DuplicateHandle@CIlKernel32@@UAEHPAX00PAPAXKHK@Z=C:\Windows\SysWOW64\migisol.?DuplicateHandle@CIlKernel32@@UAEHPAX00PAPAXKHK@Z
  ?EncryptFileW@CIlNt4Advapi32@@UAEHPBG@Z=C:\Windows\SysWOW64\migisol.?EncryptFileW@CIlNt4Advapi32@@UAEHPBG@Z
  ?EnterCriticalSection@CIlKernel32@@UAEXPAU_RTL_CRITICAL_SECTION@@@Z=C:\Windows\SysWOW64\migisol.?EnterCriticalSection@CIlKernel32@@UAEXPAU_RTL_CRITICAL_SECTION@@@Z
  ?EnumServicesStatusExW@CIlNt4Advapi32@@UAEHPAUSC_HANDLE__@@W4_SC_ENUM_TYPE@@KKPAEKPAK33PBG@Z=C:\Windows\SysWOW64\migisol.?EnumServicesStatusExW@CIlNt4Advapi32@@UAEHPAUSC_HANDLE__@@W4_SC_ENUM_TYPE@@KKPAEKPAK33PBG@Z
  ?EqualSid@CIlAdvapi32@@UAEHPAX0@Z=C:\Windows\SysWOW64\migisol.?EqualSid@CIlAdvapi32@@UAEHPAX0@Z
  ?ExitProcess@CIlKernel32@@UAEXI@Z=C:\Windows\SysWOW64\migisol.?ExitProcess@CIlKernel32@@UAEXI@Z
  ?ExpandEnvironmentStringsW@CIlKernel32@@UAEKPBGPAGK@Z=C:\Windows\SysWOW64\migisol.?ExpandEnvironmentStringsW@CIlKernel32@@UAEKPBGPAGK@Z
  ?ExtractIconExW@CIlShell32@@UAEIPBGHPAPAUHICON__@@1I@Z=C:\Windows\SysWOW64\migisol.?ExtractIconExW@CIlShell32@@UAEIPBGHPAPAUHICON__@@1I@Z
  ?FindClose@CIlKernel32@@UAEHPAX@Z=C:\Windows\SysWOW64\migisol.?FindClose@CIlKernel32@@UAEHPAX@Z
  ?FindFirstFileW@CIlKernel32@@UAEPAXPBGPAU_WIN32_FIND_DATAW@@@Z=C:\Windows\SysWOW64\migisol.?FindFirstFileW@CIlKernel32@@UAEPAXPBGPAU_WIN32_FIND_DATAW@@@Z
  ?FindNextFileW@CIlKernel32@@UAEHPAXPAU_WIN32_FIND_DATAW@@@Z=C:\Windows\SysWOW64\migisol.?FindNextFileW@CIlKernel32@@UAEHPAXPAU_WIN32_FIND_DATAW@@@Z
  ?FreeLibrary@CIlKernel32@@UAEHPAUHINSTANCE__@@@Z=C:\Windows\SysWOW64\migisol.?FreeLibrary@CIlKernel32@@UAEHPAUHINSTANCE__@@@Z
  ?FreeSid@CIlAdvapi32@@UAEPAXPAX@Z=C:\Windows\SysWOW64\migisol.?FreeSid@CIlAdvapi32@@UAEPAXPAX@Z
  ?GetCommandLineW@CIlKernel32@@UAEPAGXZ=C:\Windows\SysWOW64\migisol.?GetCommandLineW@CIlKernel32@@UAEPAGXZ
  ?GetComputerNameW@CIlKernel32@@UAEHPAGPAK@Z=C:\Windows\SysWOW64\migisol.?GetComputerNameW@CIlKernel32@@UAEHPAGPAK@Z
  ?GetCurrentProcess@CIlKernel32@@UAEPAXXZ=C:\Windows\SysWOW64\migisol.?GetCurrentProcess@CIlKernel32@@UAEPAXXZ
  ?GetCurrentThreadId@CIlKernel32@@UAEKXZ=C:\Windows\SysWOW64\migisol.?GetCurrentThreadId@CIlKernel32@@UAEKXZ
  ?GetDiskFreeSpaceExW@CIlKernel32@@UAEHPBGPAT_ULARGE_INTEGER@@11@Z=C:\Windows\SysWOW64\migisol.?GetDiskFreeSpaceExW@CIlKernel32@@UAEHPBGPAT_ULARGE_INTEGER@@11@Z
  ?GetDiskFreeSpaceW@CIlKernel32@@UAEHPBGPAK111@Z=C:\Windows\SysWOW64\migisol.?GetDiskFreeSpaceW@CIlKernel32@@UAEHPBGPAK111@Z
  ?GetDriveTypeW@CIlKernel32@@UAEIPBG@Z=C:\Windows\SysWOW64\migisol.?GetDriveTypeW@CIlKernel32@@UAEIPBG@Z
  ?GetExitCodeProcess@CIlKernel32@@UAEHPAXPAK@Z=C:\Windows\SysWOW64\migisol.?GetExitCodeProcess@CIlKernel32@@UAEHPAXPAK@Z
  ?GetFileAttributesW@CIlKernel32@@UAEKPBG@Z=C:\Windows\SysWOW64\migisol.?GetFileAttributesW@CIlKernel32@@UAEKPBG@Z
  ?GetFileSize@CIlKernel32@@UAEKPAXPAK@Z=C:\Windows\SysWOW64\migisol.?GetFileSize@CIlKernel32@@UAEKPAXPAK@Z
  ?GetFileType@CIlKernel32@@UAEKPAX@Z=C:\Windows\SysWOW64\migisol.?GetFileType@CIlKernel32@@UAEKPAX@Z
  ?GetFileVersionInfoSizeW@CIlVersion@@UAEKPBGPAK@Z=C:\Windows\SysWOW64\migisol.?GetFileVersionInfoSizeW@CIlVersion@@UAEKPBGPAK@Z
  ?GetFileVersionInfoW@CIlVersion@@UAEHPBGKKPAX@Z=C:\Windows\SysWOW64\migisol.?GetFileVersionInfoW@CIlVersion@@UAEHPBGKKPAX@Z
  ?GetFullPathNameW@CIlKernel32@@UAEKPBGKPAGPAPAG@Z=C:\Windows\SysWOW64\migisol.?GetFullPathNameW@CIlKernel32@@UAEKPBGKPAGPAPAG@Z
  ?GetHGlobalFromStream@CIlOle32@@UAEJPAUIStream@@PAPAX@Z=C:\Windows\SysWOW64\migisol.?GetHGlobalFromStream@CIlOle32@@UAEJPAUIStream@@PAPAX@Z
  ?GetIlProc@CDynLib@@IAEP6GHXZPBGPBDP6GHXZAAP6GHXZAAK@Z=C:\Windows\SysWOW64\migisol.?GetIlProc@CDynLib@@IAEP6GHXZPBGPBDP6GHXZAAP6GHXZAAK@Z
  ?GetIpAddrTable@CIlIphlpapi@@UAEKPAU_MIB_IPADDRTABLE@@PAKH@Z=C:\Windows\SysWOW64\migisol.?GetIpAddrTable@CIlIphlpapi@@UAEKPAU_MIB_IPADDRTABLE@@PAKH@Z
  ?GetLastError@CIlKernel32@@UAEKXZ=C:\Windows\SysWOW64\migisol.?GetLastError@CIlKernel32@@UAEKXZ
  ?GetLocaleInfoW@CIlKernel32@@UAEHKKPAGH@Z=C:\Windows\SysWOW64\migisol.?GetLocaleInfoW@CIlKernel32@@UAEHKKPAGH@Z
  ?GetLogicalDriveStringsW@CIlKernel32@@UAEKKPAG@Z=C:\Windows\SysWOW64\migisol.?GetLogicalDriveStringsW@CIlKernel32@@UAEKKPAG@Z
  ?GetLogicalDrives@CIlKernel32@@UAEKXZ=C:\Windows\SysWOW64\migisol.?GetLogicalDrives@CIlKernel32@@UAEKXZ
  ?GetOverlappedResult@CIlKernel32@@UAEHPAXPAU_OVERLAPPED@@PAKH@Z=C:\Windows\SysWOW64\migisol.?GetOverlappedResult@CIlKernel32@@UAEHPAXPAU_OVERLAPPED@@PAKH@Z
  ?GetPrivateProfileStringW@CIlKernel32@@UAEKPBG00PAGK0@Z=C:\Windows\SysWOW64\migisol.?GetPrivateProfileStringW@CIlKernel32@@UAEKPBG00PAGK0@Z
  ?GetProcAddress@CIlKernel32@@UAEP6GHXZPAUHINSTANCE__@@PBD@Z=C:\Windows\SysWOW64\migisol.?GetProcAddress@CIlKernel32@@UAEP6GHXZPAUHINSTANCE__@@PBD@Z
  ?GetProcessHeap@CIlKernel32@@UAEPAXXZ=C:\Windows\SysWOW64\migisol.?GetProcessHeap@CIlKernel32@@UAEPAXXZ
  ?GetSecurityDescriptorDacl@CIlAdvapi32@@UAEHPAXPAHPAPAU_ACL@@1@Z=C:\Windows\SysWOW64\migisol.?GetSecurityDescriptorDacl@CIlAdvapi32@@UAEHPAXPAHPAPAU_ACL@@1@Z
  ?GetSecurityDescriptorGroup@CIlAdvapi32@@UAEHPAXPAPAXPAH@Z=C:\Windows\SysWOW64\migisol.?GetSecurityDescriptorGroup@CIlAdvapi32@@UAEHPAXPAPAXPAH@Z
  ?GetSecurityDescriptorOwner@CIlAdvapi32@@UAEHPAXPAPAXPAH@Z=C:\Windows\SysWOW64\migisol.?GetSecurityDescriptorOwner@CIlAdvapi32@@UAEHPAXPAPAXPAH@Z
  ?GetSecurityDescriptorSacl@CIlAdvapi32@@UAEHPAXPAHPAPAU_ACL@@1@Z=C:\Windows\SysWOW64\migisol.?GetSecurityDescriptorSacl@CIlAdvapi32@@UAEHPAXPAHPAPAU_ACL@@1@Z
  ?GetSecurityInfo@CIlAdvapi32@@UAEKPAXW4_SE_OBJECT_TYPE@@KPAPAX2PAPAU_ACL@@32@Z=C:\Windows\SysWOW64\migisol.?GetSecurityInfo@CIlAdvapi32@@UAEKPAXW4_SE_OBJECT_TYPE@@KPAPAX2PAPAU_ACL@@32@Z
  ?GetShortPathNameW@CIlKernel32@@UAEKPBGPAGK@Z=C:\Windows\SysWOW64\migisol.?GetShortPathNameW@CIlKernel32@@UAEKPBGPAGK@Z
  ?GetSystemInfo@CIlKernel32@@UAEXPAU_SYSTEM_INFO@@@Z=C:\Windows\SysWOW64\migisol.?GetSystemInfo@CIlKernel32@@UAEXPAU_SYSTEM_INFO@@@Z
  ?GetSystemWindowsDirectoryW@CIlNt4Kernel32@@UAEIPAGI@Z=C:\Windows\SysWOW64\migisol.?GetSystemWindowsDirectoryW@CIlNt4Kernel32@@UAEIPAGI@Z
  ?GetTempFileNameW@CIlKernel32@@UAEIPBG0IPAG@Z=C:\Windows\SysWOW64\migisol.?GetTempFileNameW@CIlKernel32@@UAEIPBG0IPAG@Z
  ?GetTempPathW@CIlKernel32@@UAEKKPAG@Z=C:\Windows\SysWOW64\migisol.?GetTempPathW@CIlKernel32@@UAEKKPAG@Z
  ?GetTickCount@CIlKernel32@@UAEKXZ=C:\Windows\SysWOW64\migisol.?GetTickCount@CIlKernel32@@UAEKXZ
  ?GetTokenInformation@CIlAdvapi32@@UAEHPAXW4_TOKEN_INFORMATION_CLASS@@0KPAK@Z=C:\Windows\SysWOW64\migisol.?GetTokenInformation@CIlAdvapi32@@UAEHPAXW4_TOKEN_INFORMATION_CLASS@@0KPAK@Z
  ?GetUpgradeLanguage@CIlMuisetupapi@@UAEKPAGII@Z=C:\Windows\SysWOW64\migisol.?GetUpgradeLanguage@CIlMuisetupapi@@UAEKPAGII@Z
  ?GetUpgradeLanguageEx@CIlMuisetupapi@@UAEKPAGIIPBG@Z=C:\Windows\SysWOW64\migisol.?GetUpgradeLanguageEx@CIlMuisetupapi@@UAEKPAGIIPBG@Z
  ?GetUserNameW@CIlAdvapi32@@UAEHPAGPAK@Z=C:\Windows\SysWOW64\migisol.?GetUserNameW@CIlAdvapi32@@UAEHPAGPAK@Z
  ?GetVersionExA@CIlKernel32@@UAEHPAU_OSVERSIONINFOA@@@Z=C:\Windows\SysWOW64\migisol.?GetVersionExA@CIlKernel32@@UAEHPAU_OSVERSIONINFOA@@@Z
  ?GetVersionExW@CIlKernel32@@UAEHPAU_OSVERSIONINFOW@@@Z=C:\Windows\SysWOW64\migisol.?GetVersionExW@CIlKernel32@@UAEHPAU_OSVERSIONINFOW@@@Z
  ?GetVolumeInformationW@CIlKernel32@@UAEHPBGPAGKPAK221K@Z=C:\Windows\SysWOW64\migisol.?GetVolumeInformationW@CIlKernel32@@UAEHPBGPAGKPAK221K@Z
  ?GetWindowsDirectoryW@CIlKernel32@@UAEIPAGI@Z=C:\Windows\SysWOW64\migisol.?GetWindowsDirectoryW@CIlKernel32@@UAEIPAGI@Z
  ?GlobalAlloc@CIlKernel32@@UAEPAXIK@Z=C:\Windows\SysWOW64\migisol.?GlobalAlloc@CIlKernel32@@UAEPAXIK@Z
  ?GlobalFree@CIlKernel32@@UAEPAXPAX@Z=C:\Windows\SysWOW64\migisol.?GlobalFree@CIlKernel32@@UAEPAXPAX@Z
  ?GlobalLock@CIlKernel32@@UAEPAXPAX@Z=C:\Windows\SysWOW64\migisol.?GlobalLock@CIlKernel32@@UAEPAXPAX@Z
  ?GlobalMemoryStatus@CIlKernel32@@UAEXPAU_MEMORYSTATUS@@@Z=C:\Windows\SysWOW64\migisol.?GlobalMemoryStatus@CIlKernel32@@UAEXPAU_MEMORYSTATUS@@@Z
  ?GlobalMemoryStatusEx@CIlNt4Kernel32@@UAEHPAU_MEMORYSTATUSEX@@@Z=C:\Windows\SysWOW64\migisol.?GlobalMemoryStatusEx@CIlNt4Kernel32@@UAEHPAU_MEMORYSTATUSEX@@@Z
  ?GlobalSize@CIlKernel32@@UAEKPAX@Z=C:\Windows\SysWOW64\migisol.?GlobalSize@CIlKernel32@@UAEKPAX@Z
  ?GlobalUnlock@CIlKernel32@@UAEHPAX@Z=C:\Windows\SysWOW64\migisol.?GlobalUnlock@CIlKernel32@@UAEHPAX@Z
  ?HeapAlloc@CIlKernel32@@UAEPAXPAXKK@Z=C:\Windows\SysWOW64\migisol.?HeapAlloc@CIlKernel32@@UAEPAXPAXKK@Z
  ?HeapCompact@CIlKernel32@@UAEKPAXK@Z=C:\Windows\SysWOW64\migisol.?HeapCompact@CIlKernel32@@UAEKPAXK@Z
  ?HeapCreate@CIlKernel32@@UAEPAXKKK@Z=C:\Windows\SysWOW64\migisol.?HeapCreate@CIlKernel32@@UAEPAXKKK@Z
  ?HeapDestroy@CIlKernel32@@UAEHPAX@Z=C:\Windows\SysWOW64\migisol.?HeapDestroy@CIlKernel32@@UAEHPAX@Z
  ?HeapFree@CIlKernel32@@UAEHPAXK0@Z=C:\Windows\SysWOW64\migisol.?HeapFree@CIlKernel32@@UAEHPAXK0@Z
  ?HeapReAlloc@CIlKernel32@@UAEPAXPAXK0K@Z=C:\Windows\SysWOW64\migisol.?HeapReAlloc@CIlKernel32@@UAEPAXPAXK0K@Z
  ?HeapValidate@CIlKernel32@@UAEHPAXKPBX@Z=C:\Windows\SysWOW64\migisol.?HeapValidate@CIlKernel32@@UAEHPAXKPBX@Z
  ?HeapWalk@CIlKernel32@@UAEHPAXPAU_PROCESS_HEAP_ENTRY@@@Z=C:\Windows\SysWOW64\migisol.?HeapWalk@CIlKernel32@@UAEHPAXPAU_PROCESS_HEAP_ENTRY@@@Z
  ?IlAdvapi32@@3VCIlAdvapi32@@A=C:\Windows\SysWOW64\migisol.?IlAdvapi32@@3VCIlAdvapi32@@A
  ?IlChangeServiceConfigW@CIlNt4Advapi32@@CGHPAUSC_HANDLE__@@KKKPBG1PAK1111@Z=C:\Windows\SysWOW64\migisol.?IlChangeServiceConfigW@CIlNt4Advapi32@@CGHPAUSC_HANDLE__@@KKKPBG1PAK1111@Z
  ?IlCloseServiceHandle@CIlNt4Advapi32@@CGHPAUSC_HANDLE__@@@Z=C:\Windows\SysWOW64\migisol.?IlCloseServiceHandle@CIlNt4Advapi32@@CGHPAUSC_HANDLE__@@@Z
  ?IlConvertSecurityDescriptorToStringSecurityDescriptorW@CIlNt4Advapi32@@CGHPAXKKPAPAGPAK@Z=C:\Windows\SysWOW64\migisol.?IlConvertSecurityDescriptorToStringSecurityDescriptorW@CIlNt4Advapi32@@CGHPAXKKPAPAGPAK@Z
  ?IlConvertSidToStringSidW@CIlNt4Advapi32@@CGHPAXPAPAG@Z=C:\Windows\SysWOW64\migisol.?IlConvertSidToStringSidW@CIlNt4Advapi32@@CGHPAXPAPAG@Z
  ?IlConvertStringSecurityDescriptorToSecurityDescriptorW@CIlNt4Advapi32@@CGHPBGKPAPAXPAK@Z=C:\Windows\SysWOW64\migisol.?IlConvertStringSecurityDescriptorToSecurityDescriptorW@CIlNt4Advapi32@@CGHPBGKPAPAXPAK@Z
  ?IlConvertStringSidToSidW@CIlNt4Advapi32@@CGHPAGPAPAX@Z=C:\Windows\SysWOW64\migisol.?IlConvertStringSidToSidW@CIlNt4Advapi32@@CGHPAGPAPAX@Z
  ?IlCreateProfile@CIlNt6Userenv@@CGJPBG0PAGK@Z=C:\Windows\SysWOW64\migisol.?IlCreateProfile@CIlNt6Userenv@@CGJPBG0PAGK@Z
  ?IlCreateServiceW@CIlNt4Advapi32@@CGPAUSC_HANDLE__@@PAU2@PBG1KKKK11PAK111@Z=C:\Windows\SysWOW64\migisol.?IlCreateServiceW@CIlNt4Advapi32@@CGPAUSC_HANDLE__@@PAU2@PBG1KKKK11PAK111@Z
  ?IlCreateToolhelp32Snapshot@CIlNt4Kernel32@@CGPAXKK@Z=C:\Windows\SysWOW64\migisol.?IlCreateToolhelp32Snapshot@CIlNt4Kernel32@@CGPAXKK@Z
  ?IlCreateUserProfileExW@CIlNt4Userenv@@CGHPAXPBG1PAGKH@Z=C:\Windows\SysWOW64\migisol.?IlCreateUserProfileExW@CIlNt4Userenv@@CGHPAXPBG1PAGKH@Z
  ?IlCreateWellKnownSid@CIlNt4Advapi32@@CGHW4WELL_KNOWN_SID_TYPE@@PAX1PAK@Z=C:\Windows\SysWOW64\migisol.?IlCreateWellKnownSid@CIlNt4Advapi32@@CGHW4WELL_KNOWN_SID_TYPE@@PAX1PAK@Z
  ?IlDeplorch@@3VCIlDeplorch@@A=C:\Windows\SysWOW64\migisol.?IlDeplorch@@3VCIlDeplorch@@A
  ?IlEncryptFileW@CIlNt4Advapi32@@CGHPBG@Z=C:\Windows\SysWOW64\migisol.?IlEncryptFileW@CIlNt4Advapi32@@CGHPBG@Z
  ?IlEnumServicesStatusExW@CIlNt4Advapi32@@CGHPAUSC_HANDLE__@@W4_SC_ENUM_TYPE@@KKPAEKPAK33PBG@Z=C:\Windows\SysWOW64\migisol.?IlEnumServicesStatusExW@CIlNt4Advapi32@@CGHPAUSC_HANDLE__@@W4_SC_ENUM_TYPE@@KKPAEKPAK33PBG@Z
  ?IlGetSystemWindowsDirectoryW@CIlNt4Kernel32@@CGIPAGI@Z=C:\Windows\SysWOW64\migisol.?IlGetSystemWindowsDirectoryW@CIlNt4Kernel32@@CGIPAGI@Z
  ?IlGlobalMemoryStatusEx@CIlNt4Kernel32@@CGHPAU_MEMORYSTATUSEX@@@Z=C:\Windows\SysWOW64\migisol.?IlGlobalMemoryStatusEx@CIlNt4Kernel32@@CGHPAU_MEMORYSTATUSEX@@@Z
  ?IlInitiateSystemShutdownExW@CIlNt4Advapi32@@CGHPAG0KHHK@Z=C:\Windows\SysWOW64\migisol.?IlInitiateSystemShutdownExW@CIlNt4Advapi32@@CGHPAG0KHHK@Z
  ?IlIphlpapi@@3VCIlIphlpapi@@A=C:\Windows\SysWOW64\migisol.?IlIphlpapi@@3VCIlIphlpapi@@A
  ?IlKernel32@@3VCIlKernel32@@A=C:\Windows\SysWOW64\migisol.?IlKernel32@@3VCIlKernel32@@A
  ?IlLockServiceDatabase@CIlNt4Advapi32@@CGPAXPAUSC_HANDLE__@@@Z=C:\Windows\SysWOW64\migisol.?IlLockServiceDatabase@CIlNt4Advapi32@@CGPAXPAUSC_HANDLE__@@@Z
  ?IlLockSetForegroundWindow@CIlNt4User32@@CGHI@Z=C:\Windows\SysWOW64\migisol.?IlLockSetForegroundWindow@CIlNt4User32@@CGHI@Z
  ?IlMuisetupapi@@3VCIlMuisetupapi@@A=C:\Windows\SysWOW64\migisol.?IlMuisetupapi@@3VCIlMuisetupapi@@A
  ?IlNetApiBufferFree@CIlNt4Netapi32@@CGKPAX@Z=C:\Windows\SysWOW64\migisol.?IlNetApiBufferFree@CIlNt4Netapi32@@CGKPAX@Z
  ?IlNetLocalGroupAdd@CIlNt4Netapi32@@CGKPBGKPAEPAK@Z=C:\Windows\SysWOW64\migisol.?IlNetLocalGroupAdd@CIlNt4Netapi32@@CGKPBGKPAEPAK@Z
  ?IlNetLocalGroupAddMembers@CIlNt4Netapi32@@CGKPBG0KPAEK@Z=C:\Windows\SysWOW64\migisol.?IlNetLocalGroupAddMembers@CIlNt4Netapi32@@CGKPBG0KPAEK@Z
  ?IlNetLocalGroupEnum@CIlNt4Netapi32@@CGKPBGKPAPAEKPAK22@Z=C:\Windows\SysWOW64\migisol.?IlNetLocalGroupEnum@CIlNt4Netapi32@@CGKPBGKPAPAEKPAK22@Z
  ?IlNetUserAdd@CIlNt4Netapi32@@CGKPBGKPAEPAK@Z=C:\Windows\SysWOW64\migisol.?IlNetUserAdd@CIlNt4Netapi32@@CGKPBGKPAEPAK@Z
  ?IlNetUserDel@CIlNt4Netapi32@@CGKPBG0@Z=C:\Windows\SysWOW64\migisol.?IlNetUserDel@CIlNt4Netapi32@@CGKPBG0@Z
  ?IlNetUserEnum@CIlNt4Netapi32@@CGKPBGKKPAPAEKPAK22@Z=C:\Windows\SysWOW64\migisol.?IlNetUserEnum@CIlNt4Netapi32@@CGKPBGKKPAPAEKPAK22@Z
  ?IlNetUserGetLocalGroups@CIlNt4Netapi32@@CGKPBG0KKPAPAEKPAK2@Z=C:\Windows\SysWOW64\migisol.?IlNetUserGetLocalGroups@CIlNt4Netapi32@@CGKPBG0KKPAPAEKPAK2@Z
  ?IlNetWkstaGetInfo@CIlNt4Netapi32@@CGKPAGKPAPAE@Z=C:\Windows\SysWOW64\migisol.?IlNetWkstaGetInfo@CIlNt4Netapi32@@CGKPAGKPAPAE@Z
  ?IlNt4Advapi32@@3VCIlNt4Advapi32@@A=C:\Windows\SysWOW64\migisol.?IlNt4Advapi32@@3VCIlNt4Advapi32@@A
  ?IlNt4Kernel32@@3VCIlNt4Kernel32@@A=C:\Windows\SysWOW64\migisol.?IlNt4Kernel32@@3VCIlNt4Kernel32@@A
  ?IlNt4Netapi32@@3VCIlNt4Netapi32@@A=C:\Windows\SysWOW64\migisol.?IlNt4Netapi32@@3VCIlNt4Netapi32@@A
  ?IlNt4Setupapi@@3VCIlNt4Setupapi@@A=C:\Windows\SysWOW64\migisol.?IlNt4Setupapi@@3VCIlNt4Setupapi@@A
  ?IlNt4User32@@3VCIlNt4User32@@A=C:\Windows\SysWOW64\migisol.?IlNt4User32@@3VCIlNt4User32@@A
  ?IlNt4Userenv@@3VCIlNt4Userenv@@A=C:\Windows\SysWOW64\migisol.?IlNt4Userenv@@3VCIlNt4Userenv@@A
  ?IlNt6Userenv@@3VCIlNt6Userenv@@A=C:\Windows\SysWOW64\migisol.?IlNt6Userenv@@3VCIlNt6Userenv@@A
  ?IlOle32@@3VCIlOle32@@A=C:\Windows\SysWOW64\migisol.?IlOle32@@3VCIlOle32@@A
  ?IlOleaut32@@3VCIlOleaut32@@A=C:\Windows\SysWOW64\migisol.?IlOleaut32@@3VCIlOleaut32@@A
  ?IlOpenSCManagerW@CIlNt4Advapi32@@CGPAUSC_HANDLE__@@PBG0K@Z=C:\Windows\SysWOW64\migisol.?IlOpenSCManagerW@CIlNt4Advapi32@@CGPAUSC_HANDLE__@@PBG0K@Z
  ?IlOpenServiceW@CIlNt4Advapi32@@CGPAUSC_HANDLE__@@PAU2@PBGK@Z=C:\Windows\SysWOW64\migisol.?IlOpenServiceW@CIlNt4Advapi32@@CGPAUSC_HANDLE__@@PAU2@PBGK@Z
  ?IlProcess32FirstW@CIlNt4Kernel32@@CGHPAXPAUtagPROCESSENTRY32W@@@Z=C:\Windows\SysWOW64\migisol.?IlProcess32FirstW@CIlNt4Kernel32@@CGHPAXPAUtagPROCESSENTRY32W@@@Z
  ?IlProcess32NextW@CIlNt4Kernel32@@CGHPAXPAUtagPROCESSENTRY32W@@@Z=C:\Windows\SysWOW64\migisol.?IlProcess32NextW@CIlNt4Kernel32@@CGHPAXPAUtagPROCESSENTRY32W@@@Z
  ?IlQueryServiceConfigW@CIlNt4Advapi32@@CGHPAUSC_HANDLE__@@PAU_QUERY_SERVICE_CONFIGW@@KPAK@Z=C:\Windows\SysWOW64\migisol.?IlQueryServiceConfigW@CIlNt4Advapi32@@CGHPAUSC_HANDLE__@@PAU_QUERY_SERVICE_CONFIGW@@KPAK@Z
  ?IlRegisterWaitForSingleObject@CIlNt4Kernel32@@CGHPAPAXPAXP6GX1E@Z1KK@Z=C:\Windows\SysWOW64\migisol.?IlRegisterWaitForSingleObject@CIlNt4Kernel32@@CGHPAPAXPAXP6GX1E@Z1KK@Z
  ?IlSetupCloseFileQueue@CIlNt4Setupapi@@CGHPAX@Z=C:\Windows\SysWOW64\migisol.?IlSetupCloseFileQueue@CIlNt4Setupapi@@CGHPAX@Z
  ?IlSetupDiBuildDriverInfoList@CIlNt4Setupapi@@CGHPAXPAU_SP_DEVINFO_DATA@@K@Z=C:\Windows\SysWOW64\migisol.?IlSetupDiBuildDriverInfoList@CIlNt4Setupapi@@CGHPAXPAU_SP_DEVINFO_DATA@@K@Z
  ?IlSetupDiCallClassInstaller@CIlNt4Setupapi@@CGHIPAXPAU_SP_DEVINFO_DATA@@@Z=C:\Windows\SysWOW64\migisol.?IlSetupDiCallClassInstaller@CIlNt4Setupapi@@CGHIPAXPAU_SP_DEVINFO_DATA@@@Z
  ?IlSetupDiCreateDeviceInfoListExW@CIlNt4Setupapi@@CGPAXPBU_GUID@@PAUHWND__@@PBGPAX@Z=C:\Windows\SysWOW64\migisol.?IlSetupDiCreateDeviceInfoListExW@CIlNt4Setupapi@@CGPAXPBU_GUID@@PAUHWND__@@PBGPAX@Z
  ?IlSetupDiDestroyDeviceInfoList@CIlNt4Setupapi@@CGHPAX@Z=C:\Windows\SysWOW64\migisol.?IlSetupDiDestroyDeviceInfoList@CIlNt4Setupapi@@CGHPAX@Z
  ?IlSetupDiDestroyDriverInfoList@CIlNt4Setupapi@@CGHPAXPAU_SP_DEVINFO_DATA@@K@Z=C:\Windows\SysWOW64\migisol.?IlSetupDiDestroyDriverInfoList@CIlNt4Setupapi@@CGHPAXPAU_SP_DEVINFO_DATA@@K@Z
  ?IlSetupDiEnumDeviceInfo@CIlNt4Setupapi@@CGHPAXKPAU_SP_DEVINFO_DATA@@@Z=C:\Windows\SysWOW64\migisol.?IlSetupDiEnumDeviceInfo@CIlNt4Setupapi@@CGHPAXKPAU_SP_DEVINFO_DATA@@@Z
  ?IlSetupDiEnumDeviceInterfaces@CIlNt4Setupapi@@CGHPAXPAU_SP_DEVINFO_DATA@@PBU_GUID@@KPAU_SP_DEVICE_INTERFACE_DATA@@@Z=C:\Windows\SysWOW64\migisol.?IlSetupDiEnumDeviceInterfaces@CIlNt4Setupapi@@CGHPAXPAU_SP_DEVINFO_DATA@@PBU_GUID@@KPAU_SP_DEVICE_INTERFACE_DATA@@@Z
  ?IlSetupDiEnumDriverInfoW@CIlNt4Setupapi@@CGHPAXPAU_SP_DEVINFO_DATA@@KKPAU_SP_DRVINFO_DATA_V2_W@@@Z=C:\Windows\SysWOW64\migisol.?IlSetupDiEnumDriverInfoW@CIlNt4Setupapi@@CGHPAXPAU_SP_DEVINFO_DATA@@KKPAU_SP_DRVINFO_DATA_V2_W@@@Z
  ?IlSetupDiGetClassDevsExW@CIlNt4Setupapi@@CGPAXPBU_GUID@@PBGPAUHWND__@@KPAX13@Z=C:\Windows\SysWOW64\migisol.?IlSetupDiGetClassDevsExW@CIlNt4Setupapi@@CGPAXPBU_GUID@@PBGPAUHWND__@@KPAX13@Z
  ?IlSetupDiGetClassDevsW@CIlNt4Setupapi@@CGPAXPBU_GUID@@PBGPAUHWND__@@K@Z=C:\Windows\SysWOW64\migisol.?IlSetupDiGetClassDevsW@CIlNt4Setupapi@@CGPAXPBU_GUID@@PBGPAUHWND__@@K@Z
  ?IlSetupDiGetDeviceInstallParamsW@CIlNt4Setupapi@@CGHPAXPAU_SP_DEVINFO_DATA@@PAU_SP_DEVINSTALL_PARAMS_W@@@Z=C:\Windows\SysWOW64\migisol.?IlSetupDiGetDeviceInstallParamsW@CIlNt4Setupapi@@CGHPAXPAU_SP_DEVINFO_DATA@@PAU_SP_DEVINSTALL_PARAMS_W@@@Z
  ?IlSetupDiGetDeviceInterfaceDetailW@CIlNt4Setupapi@@CGHPAXPAU_SP_DEVICE_INTERFACE_DATA@@PAU_SP_DEVICE_INTERFACE_DETAIL_DATA_W@@KPAKPAU_SP_DEVINFO_DATA@@@Z=C:\Windows\SysWOW64\migisol.?IlSetupDiGetDeviceInterfaceDetailW@CIlNt4Setupapi@@CGHPAXPAU_SP_DEVICE_INTERFACE_DATA@@PAU_SP_DEVICE_INTERFACE_DETAIL_DATA_W@@KPAKPAU_SP_DEVINFO_DATA@@@Z
  ?IlSetupDiGetDeviceRegistryPropertyW@CIlNt4Setupapi@@CGHPAXPAU_SP_DEVINFO_DATA@@KPAKPAEK2@Z=C:\Windows\SysWOW64\migisol.?IlSetupDiGetDeviceRegistryPropertyW@CIlNt4Setupapi@@CGHPAXPAU_SP_DEVINFO_DATA@@KPAKPAEK2@Z
  ?IlSetupDiGetDriverInfoDetailW@CIlNt4Setupapi@@CGHPAXPAU_SP_DEVINFO_DATA@@PAU_SP_DRVINFO_DATA_V2_W@@PAU_SP_DRVINFO_DETAIL_DATA_W@@KPAK@Z=C:\Windows\SysWOW64\migisol.?IlSetupDiGetDriverInfoDetailW@CIlNt4Setupapi@@CGHPAXPAU_SP_DEVINFO_DATA@@PAU_SP_DRVINFO_DATA_V2_W@@PAU_SP_DRVINFO_DETAIL_DATA_W@@KPAK@Z
  ?IlSetupDiOpenDevRegKey@CIlNt4Setupapi@@CGPAUHKEY__@@PAXPAU_SP_DEVINFO_DATA@@KKKK@Z=C:\Windows\SysWOW64\migisol.?IlSetupDiOpenDevRegKey@CIlNt4Setupapi@@CGPAUHKEY__@@PAXPAU_SP_DEVINFO_DATA@@KKKK@Z
  ?IlSetupDiOpenDeviceInfoW@CIlNt4Setupapi@@CGHPAXPBGPAUHWND__@@KPAU_SP_DEVINFO_DATA@@@Z=C:\Windows\SysWOW64\migisol.?IlSetupDiOpenDeviceInfoW@CIlNt4Setupapi@@CGHPAXPBGPAUHWND__@@KPAU_SP_DEVINFO_DATA@@@Z
  ?IlSetupDiSetDeviceInstallParamsW@CIlNt4Setupapi@@CGHPAXPAU_SP_DEVINFO_DATA@@PAU_SP_DEVINSTALL_PARAMS_W@@@Z=C:\Windows\SysWOW64\migisol.?IlSetupDiSetDeviceInstallParamsW@CIlNt4Setupapi@@CGHPAXPAU_SP_DEVINFO_DATA@@PAU_SP_DEVINSTALL_PARAMS_W@@@Z
  ?IlSetupDiSetSelectedDriverW@CIlNt4Setupapi@@CGHPAXPAU_SP_DEVINFO_DATA@@PAU_SP_DRVINFO_DATA_V2_W@@@Z=C:\Windows\SysWOW64\migisol.?IlSetupDiSetSelectedDriverW@CIlNt4Setupapi@@CGHPAXPAU_SP_DEVINFO_DATA@@PAU_SP_DRVINFO_DATA_V2_W@@@Z
  ?IlSetupGetInfInformationW@CIlNt4Setupapi@@CGHPBXKPAU_SP_INF_INFORMATION@@KPAK@Z=C:\Windows\SysWOW64\migisol.?IlSetupGetInfInformationW@CIlNt4Setupapi@@CGHPBXKPAU_SP_INF_INFORMATION@@KPAK@Z
  ?IlSetupOpenFileQueue@CIlNt4Setupapi@@CGPAXXZ=C:\Windows\SysWOW64\migisol.?IlSetupOpenFileQueue@CIlNt4Setupapi@@CGPAXXZ
  ?IlSetupQueryInfOriginalFileInformationW@CIlNt4Setupapi@@CGHPAU_SP_INF_INFORMATION@@IPAU_SP_ALTPLATFORM_INFO_V2@@PAU_SP_ORIGINAL_FILE_INFO_W@@@Z=C:\Windows\SysWOW64\migisol.?IlSetupQueryInfOriginalFileInformationW@CIlNt4Setupapi@@CGHPAU_SP_INF_INFORMATION@@IPAU_SP_ALTPLATFORM_INFO_V2@@PAU_SP_ORIGINAL_FILE_INFO_W@@@Z
  ?IlSetupScanFileQueueW@CIlNt4Setupapi@@CGHPAXKPAUHWND__@@P6GI0III@Z0PAK@Z=C:\Windows\SysWOW64\migisol.?IlSetupScanFileQueueW@CIlNt4Setupapi@@CGHPAXKPAUHWND__@@P6GI0III@Z0PAK@Z
  ?IlSetupapi@@3VCIlSetupapi@@A=C:\Windows\SysWOW64\migisol.?IlSetupapi@@3VCIlSetupapi@@A
  ?IlShell32@@3VCIlShell32@@A=C:\Windows\SysWOW64\migisol.?IlShell32@@3VCIlShell32@@A
  ?IlStartServiceW@CIlNt4Advapi32@@CGHPAUSC_HANDLE__@@KPAPBG@Z=C:\Windows\SysWOW64\migisol.?IlStartServiceW@CIlNt4Advapi32@@CGHPAUSC_HANDLE__@@KPAPBG@Z
  ?IlUnlockServiceDatabase@CIlNt4Advapi32@@CGHPAX@Z=C:\Windows\SysWOW64\migisol.?IlUnlockServiceDatabase@CIlNt4Advapi32@@CGHPAX@Z
  ?IlUser32@@3VCIlUser32@@A=C:\Windows\SysWOW64\migisol.?IlUser32@@3VCIlUser32@@A
  ?IlVersion@@3VCIlVersion@@A=C:\Windows\SysWOW64\migisol.?IlVersion@@3VCIlVersion@@A
  ?IlW2kDynWs2_32@@3VCIlW2kDynWs2_32@@A=C:\Windows\SysWOW64\migisol.?IlW2kDynWs2_32@@3VCIlW2kDynWs2_32@@A
  ?IlWimgapi@@3VCIlWimgapi@@A=C:\Windows\SysWOW64\migisol.?IlWimgapi@@3VCIlWimgapi@@A
  ?IlWs2_32@@3VCIlWs2_32@@A=C:\Windows\SysWOW64\migisol.?IlWs2_32@@3VCIlWs2_32@@A
  ?Ilfreeaddrinfo@CIlW2kDynWs2_32@@CGXPAUaddrinfo@@@Z=C:\Windows\SysWOW64\migisol.?Ilfreeaddrinfo@CIlW2kDynWs2_32@@CGXPAUaddrinfo@@@Z
  ?Ilgetaddrinfo@CIlW2kDynWs2_32@@CGHPBD0PBUaddrinfo@@PAPAU2@@Z=C:\Windows\SysWOW64\migisol.?Ilgetaddrinfo@CIlW2kDynWs2_32@@CGHPBD0PBUaddrinfo@@PAPAU2@@Z
  ?Ilgetnameinfo@CIlW2kDynWs2_32@@CGHPBUsockaddr@@HPADK1KH@Z=C:\Windows\SysWOW64\migisol.?Ilgetnameinfo@CIlW2kDynWs2_32@@CGHPBUsockaddr@@HPADK1KH@Z
  ?InitializeCriticalSection@CIlKernel32@@UAEXPAU_RTL_CRITICAL_SECTION@@@Z=C:\Windows\SysWOW64\migisol.?InitializeCriticalSection@CIlKernel32@@UAEXPAU_RTL_CRITICAL_SECTION@@@Z
  ?InitializeSecurityDescriptor@CIlAdvapi32@@UAEHPAXK@Z=C:\Windows\SysWOW64\migisol.?InitializeSecurityDescriptor@CIlAdvapi32@@UAEHPAXK@Z
  ?InitiateSystemShutdownExW@CIlNt4Advapi32@@UAEHPAG0KHHK@Z=C:\Windows\SysWOW64\migisol.?InitiateSystemShutdownExW@CIlNt4Advapi32@@UAEHPAG0KHHK@Z
  ?IsValidSid@CIlAdvapi32@@UAEHPAX@Z=C:\Windows\SysWOW64\migisol.?IsValidSid@CIlAdvapi32@@UAEHPAX@Z
  ?LeaveCriticalSection@CIlKernel32@@UAEXPAU_RTL_CRITICAL_SECTION@@@Z=C:\Windows\SysWOW64\migisol.?LeaveCriticalSection@CIlKernel32@@UAEXPAU_RTL_CRITICAL_SECTION@@@Z
  ?LoadIconW@CIlUser32@@UAEPAUHICON__@@PAUHINSTANCE__@@PBG@Z=C:\Windows\SysWOW64\migisol.?LoadIconW@CIlUser32@@UAEPAUHICON__@@PAUHINSTANCE__@@PBG@Z
  ?LoadLibraryW@CIlKernel32@@UAEPAUHINSTANCE__@@PBG@Z=C:\Windows\SysWOW64\migisol.?LoadLibraryW@CIlKernel32@@UAEPAUHINSTANCE__@@PBG@Z
  ?LockServiceDatabase@CIlNt4Advapi32@@UAEPAXPAUSC_HANDLE__@@@Z=C:\Windows\SysWOW64\migisol.?LockServiceDatabase@CIlNt4Advapi32@@UAEPAXPAUSC_HANDLE__@@@Z
  ?LockSetForegroundWindow@CIlNt4User32@@UAEHI@Z=C:\Windows\SysWOW64\migisol.?LockSetForegroundWindow@CIlNt4User32@@UAEHI@Z
  ?LookupAccountNameW@CIlAdvapi32@@UAEHPBG0PAXPAKPAG2PAW4_SID_NAME_USE@@@Z=C:\Windows\SysWOW64\migisol.?LookupAccountNameW@CIlAdvapi32@@UAEHPBG0PAXPAKPAG2PAW4_SID_NAME_USE@@@Z
  ?LookupAccountSidW@CIlAdvapi32@@UAEHPBGPAXPAGPAK23PAW4_SID_NAME_USE@@@Z=C:\Windows\SysWOW64\migisol.?LookupAccountSidW@CIlAdvapi32@@UAEHPBGPAXPAGPAK23PAW4_SID_NAME_USE@@@Z
  ?LookupPrivilegeValueW@CIlAdvapi32@@UAEHPBG0PAU_LUID@@@Z=C:\Windows\SysWOW64\migisol.?LookupPrivilegeValueW@CIlAdvapi32@@UAEHPBG0PAU_LUID@@@Z
  ?MapViewOfFile@CIlKernel32@@UAEPAXPAXKKKK@Z=C:\Windows\SysWOW64\migisol.?MapViewOfFile@CIlKernel32@@UAEPAXPAXKKKK@Z
  ?MessageBoxA@CIlUser32@@UAEHPAUHWND__@@PBD1I@Z=C:\Windows\SysWOW64\migisol.?MessageBoxA@CIlUser32@@UAEHPAUHWND__@@PBD1I@Z
  ?MessageBoxW@CIlUser32@@UAEHPAUHWND__@@PBG1I@Z=C:\Windows\SysWOW64\migisol.?MessageBoxW@CIlUser32@@UAEHPAUHWND__@@PBG1I@Z
  ?MoveFileExW@CIlKernel32@@UAEHPBG0K@Z=C:\Windows\SysWOW64\migisol.?MoveFileExW@CIlKernel32@@UAEHPBG0K@Z
  ?MoveFileW@CIlKernel32@@UAEHPBG0@Z=C:\Windows\SysWOW64\migisol.?MoveFileW@CIlKernel32@@UAEHPBG0@Z
  ?NetApiBufferFree@CIlNt4Netapi32@@UAEKPAX@Z=C:\Windows\SysWOW64\migisol.?NetApiBufferFree@CIlNt4Netapi32@@UAEKPAX@Z
  ?NetLocalGroupAdd@CIlNt4Netapi32@@UAEKPBGKPAEPAK@Z=C:\Windows\SysWOW64\migisol.?NetLocalGroupAdd@CIlNt4Netapi32@@UAEKPBGKPAEPAK@Z
  ?NetLocalGroupAddMembers@CIlNt4Netapi32@@UAEKPBG0KPAEK@Z=C:\Windows\SysWOW64\migisol.?NetLocalGroupAddMembers@CIlNt4Netapi32@@UAEKPBG0KPAEK@Z
  ?NetLocalGroupEnum@CIlNt4Netapi32@@UAEKPBGKPAPAEKPAK22@Z=C:\Windows\SysWOW64\migisol.?NetLocalGroupEnum@CIlNt4Netapi32@@UAEKPBGKPAPAEKPAK22@Z
  ?NetUserAdd@CIlNt4Netapi32@@UAEKPBGKPAEPAK@Z=C:\Windows\SysWOW64\migisol.?NetUserAdd@CIlNt4Netapi32@@UAEKPBGKPAEPAK@Z
  ?NetUserDel@CIlNt4Netapi32@@UAEKPBG0@Z=C:\Windows\SysWOW64\migisol.?NetUserDel@CIlNt4Netapi32@@UAEKPBG0@Z
  ?NetUserEnum@CIlNt4Netapi32@@UAEKPBGKKPAPAEKPAK22@Z=C:\Windows\SysWOW64\migisol.?NetUserEnum@CIlNt4Netapi32@@UAEKPBGKKPAPAEKPAK22@Z
  ?NetUserGetLocalGroups@CIlNt4Netapi32@@UAEKPBG0KKPAPAEKPAK2@Z=C:\Windows\SysWOW64\migisol.?NetUserGetLocalGroups@CIlNt4Netapi32@@UAEKPBG0KKPAPAEKPAK2@Z
  ?NetWkstaGetInfo@CIlNt4Netapi32@@UAEKPAGKPAPAE@Z=C:\Windows\SysWOW64\migisol.?NetWkstaGetInfo@CIlNt4Netapi32@@UAEKPAGKPAPAE@Z
  ?OpenEventW@CIlKernel32@@UAEPAXKHPBG@Z=C:\Windows\SysWOW64\migisol.?OpenEventW@CIlKernel32@@UAEPAXKHPBG@Z
  ?OpenProcess@CIlKernel32@@UAEPAXKHK@Z=C:\Windows\SysWOW64\migisol.?OpenProcess@CIlKernel32@@UAEPAXKHK@Z
  ?OpenProcessToken@CIlAdvapi32@@UAEHPAXKPAPAX@Z=C:\Windows\SysWOW64\migisol.?OpenProcessToken@CIlAdvapi32@@UAEHPAXKPAPAX@Z
  ?OpenSCManagerW@CIlNt4Advapi32@@UAEPAUSC_HANDLE__@@PBG0K@Z=C:\Windows\SysWOW64\migisol.?OpenSCManagerW@CIlNt4Advapi32@@UAEPAUSC_HANDLE__@@PBG0K@Z
  ?OpenServiceW@CIlNt4Advapi32@@UAEPAUSC_HANDLE__@@PAU2@PBGK@Z=C:\Windows\SysWOW64\migisol.?OpenServiceW@CIlNt4Advapi32@@UAEPAUSC_HANDLE__@@PAU2@PBGK@Z
  ?PostMessageW@CIlUser32@@UAEHPAUHWND__@@IIJ@Z=C:\Windows\SysWOW64\migisol.?PostMessageW@CIlUser32@@UAEHPAUHWND__@@IIJ@Z
  ?Process32FirstW@CIlNt4Kernel32@@UAEHPAXPAUtagPROCESSENTRY32W@@@Z=C:\Windows\SysWOW64\migisol.?Process32FirstW@CIlNt4Kernel32@@UAEHPAXPAUtagPROCESSENTRY32W@@@Z
  ?Process32NextW@CIlNt4Kernel32@@UAEHPAXPAUtagPROCESSENTRY32W@@@Z=C:\Windows\SysWOW64\migisol.?Process32NextW@CIlNt4Kernel32@@UAEHPAXPAUtagPROCESSENTRY32W@@@Z
  ?QueryServiceConfigW@CIlNt4Advapi32@@UAEHPAUSC_HANDLE__@@PAU_QUERY_SERVICE_CONFIGW@@KPAK@Z=C:\Windows\SysWOW64\migisol.?QueryServiceConfigW@CIlNt4Advapi32@@UAEHPAUSC_HANDLE__@@PAU_QUERY_SERVICE_CONFIGW@@KPAK@Z
  ?RaiseException@CIlKernel32@@UAEXKKKPBK@Z=C:\Windows\SysWOW64\migisol.?RaiseException@CIlKernel32@@UAEXKKKPBK@Z
  ?ReadFile@CIlKernel32@@UAEHPAX0KPAKPAU_OVERLAPPED@@@Z=C:\Windows\SysWOW64\migisol.?ReadFile@CIlKernel32@@UAEHPAX0KPAKPAU_OVERLAPPED@@@Z
  ?RegCloseKey@CIlAdvapi32@@UAEJPAUHKEY__@@@Z=C:\Windows\SysWOW64\migisol.?RegCloseKey@CIlAdvapi32@@UAEJPAUHKEY__@@@Z
  ?RegCreateKeyExW@CIlAdvapi32@@UAEJPAUHKEY__@@PBGKPAGKKPAU_SECURITY_ATTRIBUTES@@PAPAU2@PAK@Z=C:\Windows\SysWOW64\migisol.?RegCreateKeyExW@CIlAdvapi32@@UAEJPAUHKEY__@@PBGKPAGKKPAU_SECURITY_ATTRIBUTES@@PAPAU2@PAK@Z
  ?RegDeleteKeyW@CIlAdvapi32@@UAEJPAUHKEY__@@PBG@Z=C:\Windows\SysWOW64\migisol.?RegDeleteKeyW@CIlAdvapi32@@UAEJPAUHKEY__@@PBG@Z
  ?RegDeleteValueW@CIlAdvapi32@@UAEJPAUHKEY__@@PBG@Z=C:\Windows\SysWOW64\migisol.?RegDeleteValueW@CIlAdvapi32@@UAEJPAUHKEY__@@PBG@Z
  ?RegEnumKeyExW@CIlAdvapi32@@UAEJPAUHKEY__@@KPAGPAK212PAU_FILETIME@@@Z=C:\Windows\SysWOW64\migisol.?RegEnumKeyExW@CIlAdvapi32@@UAEJPAUHKEY__@@KPAGPAK212PAU_FILETIME@@@Z
  ?RegEnumValueW@CIlAdvapi32@@UAEJPAUHKEY__@@KPAGPAK22PAE2@Z=C:\Windows\SysWOW64\migisol.?RegEnumValueW@CIlAdvapi32@@UAEJPAUHKEY__@@KPAGPAK22PAE2@Z
  ?RegFlushKey@CIlAdvapi32@@UAEJPAUHKEY__@@@Z=C:\Windows\SysWOW64\migisol.?RegFlushKey@CIlAdvapi32@@UAEJPAUHKEY__@@@Z
  ?RegLoadKeyW@CIlAdvapi32@@UAEJPAUHKEY__@@PBG1@Z=C:\Windows\SysWOW64\migisol.?RegLoadKeyW@CIlAdvapi32@@UAEJPAUHKEY__@@PBG1@Z
  ?RegOpenKeyExW@CIlAdvapi32@@UAEJPAUHKEY__@@PBGKKPAPAU2@@Z=C:\Windows\SysWOW64\migisol.?RegOpenKeyExW@CIlAdvapi32@@UAEJPAUHKEY__@@PBGKKPAPAU2@@Z
  ?RegQueryInfoKeyW@CIlAdvapi32@@UAEJPAUHKEY__@@PAGPAK22222222PAU_FILETIME@@@Z=C:\Windows\SysWOW64\migisol.?RegQueryInfoKeyW@CIlAdvapi32@@UAEJPAUHKEY__@@PAGPAK22222222PAU_FILETIME@@@Z
  ?RegQueryValueExW@CIlAdvapi32@@UAEJPAUHKEY__@@PBGPAK2PAE2@Z=C:\Windows\SysWOW64\migisol.?RegQueryValueExW@CIlAdvapi32@@UAEJPAUHKEY__@@PBGPAK2PAE2@Z
  ?RegSetKeySecurity@CIlAdvapi32@@UAEJPAUHKEY__@@KPAX@Z=C:\Windows\SysWOW64\migisol.?RegSetKeySecurity@CIlAdvapi32@@UAEJPAUHKEY__@@KPAX@Z
  ?RegSetValueExW@CIlAdvapi32@@UAEJPAUHKEY__@@PBGKKPBEK@Z=C:\Windows\SysWOW64\migisol.?RegSetValueExW@CIlAdvapi32@@UAEJPAUHKEY__@@PBGKKPBEK@Z
  ?RegUnLoadKeyW@CIlAdvapi32@@UAEJPAUHKEY__@@PBG@Z=C:\Windows\SysWOW64\migisol.?RegUnLoadKeyW@CIlAdvapi32@@UAEJPAUHKEY__@@PBG@Z
  ?RegisterWaitForSingleObject@CIlNt4Kernel32@@UAEHPAPAXPAXP6GX1E@Z1KK@Z=C:\Windows\SysWOW64\migisol.?RegisterWaitForSingleObject@CIlNt4Kernel32@@UAEHPAPAXPAXP6GX1E@Z1KK@Z
  ?ReleaseProc@CDynLib@@IAEXAAP6GHXZAAK@Z=C:\Windows\SysWOW64\migisol.?ReleaseProc@CDynLib@@IAEXAAP6GHXZAAK@Z
  ?RemoveDirectoryW@CIlKernel32@@UAEHPBG@Z=C:\Windows\SysWOW64\migisol.?RemoveDirectoryW@CIlKernel32@@UAEHPBG@Z
  ?ResetEvent@CIlKernel32@@UAEHPAX@Z=C:\Windows\SysWOW64\migisol.?ResetEvent@CIlKernel32@@UAEHPAX@Z
  ?SetEndOfFile@CIlKernel32@@UAEHPAX@Z=C:\Windows\SysWOW64\migisol.?SetEndOfFile@CIlKernel32@@UAEHPAX@Z
  ?SetErrorMode@CIlKernel32@@UAEII@Z=C:\Windows\SysWOW64\migisol.?SetErrorMode@CIlKernel32@@UAEII@Z
  ?SetEvent@CIlKernel32@@UAEHPAX@Z=C:\Windows\SysWOW64\migisol.?SetEvent@CIlKernel32@@UAEHPAX@Z
  ?SetFileAttributesW@CIlKernel32@@UAEHPBGK@Z=C:\Windows\SysWOW64\migisol.?SetFileAttributesW@CIlKernel32@@UAEHPBGK@Z
  ?SetFilePointer@CIlKernel32@@UAEKPAXJPAJK@Z=C:\Windows\SysWOW64\migisol.?SetFilePointer@CIlKernel32@@UAEKPAXJPAJK@Z
  ?SetFileTime@CIlKernel32@@UAEHPAXPBU_FILETIME@@11@Z=C:\Windows\SysWOW64\migisol.?SetFileTime@CIlKernel32@@UAEHPAXPBU_FILETIME@@11@Z
  ?SetLastError@CIlKernel32@@UAEXK@Z=C:\Windows\SysWOW64\migisol.?SetLastError@CIlKernel32@@UAEXK@Z
  ?SetNamedSecurityInfoW@CIlAdvapi32@@UAEKPAGW4_SE_OBJECT_TYPE@@KPAX2PAU_ACL@@3@Z=C:\Windows\SysWOW64\migisol.?SetNamedSecurityInfoW@CIlAdvapi32@@UAEKPAGW4_SE_OBJECT_TYPE@@KPAX2PAU_ACL@@3@Z
  ?SetSecurityDescriptorOwner@CIlAdvapi32@@UAEHPAX0H@Z=C:\Windows\SysWOW64\migisol.?SetSecurityDescriptorOwner@CIlAdvapi32@@UAEHPAX0H@Z
  ?SetSecurityInfo@CIlAdvapi32@@UAEKPAXW4_SE_OBJECT_TYPE@@K00PAU_ACL@@2@Z=C:\Windows\SysWOW64\migisol.?SetSecurityInfo@CIlAdvapi32@@UAEKPAXW4_SE_OBJECT_TYPE@@K00PAU_ACL@@2@Z
  ?SetupCloseFileQueue@CIlNt4Setupapi@@UAEHPAX@Z=C:\Windows\SysWOW64\migisol.?SetupCloseFileQueue@CIlNt4Setupapi@@UAEHPAX@Z
  ?SetupCloseInfFile@CIlSetupapi@@UAEXPAX@Z=C:\Windows\SysWOW64\migisol.?SetupCloseInfFile@CIlSetupapi@@UAEXPAX@Z
  ?SetupDiBuildDriverInfoList@CIlNt4Setupapi@@UAEHPAXPAU_SP_DEVINFO_DATA@@K@Z=C:\Windows\SysWOW64\migisol.?SetupDiBuildDriverInfoList@CIlNt4Setupapi@@UAEHPAXPAU_SP_DEVINFO_DATA@@K@Z
  ?SetupDiCallClassInstaller@CIlNt4Setupapi@@UAEHIPAXPAU_SP_DEVINFO_DATA@@@Z=C:\Windows\SysWOW64\migisol.?SetupDiCallClassInstaller@CIlNt4Setupapi@@UAEHIPAXPAU_SP_DEVINFO_DATA@@@Z
  ?SetupDiCreateDeviceInfoListExW@CIlNt4Setupapi@@UAEPAXPBU_GUID@@PAUHWND__@@PBGPAX@Z=C:\Windows\SysWOW64\migisol.?SetupDiCreateDeviceInfoListExW@CIlNt4Setupapi@@UAEPAXPBU_GUID@@PAUHWND__@@PBGPAX@Z
  ?SetupDiDestroyDeviceInfoList@CIlNt4Setupapi@@UAEHPAX@Z=C:\Windows\SysWOW64\migisol.?SetupDiDestroyDeviceInfoList@CIlNt4Setupapi@@UAEHPAX@Z
  ?SetupDiDestroyDriverInfoList@CIlNt4Setupapi@@UAEHPAXPAU_SP_DEVINFO_DATA@@K@Z=C:\Windows\SysWOW64\migisol.?SetupDiDestroyDriverInfoList@CIlNt4Setupapi@@UAEHPAXPAU_SP_DEVINFO_DATA@@K@Z
  ?SetupDiEnumDeviceInfo@CIlNt4Setupapi@@UAEHPAXKPAU_SP_DEVINFO_DATA@@@Z=C:\Windows\SysWOW64\migisol.?SetupDiEnumDeviceInfo@CIlNt4Setupapi@@UAEHPAXKPAU_SP_DEVINFO_DATA@@@Z
  ?SetupDiEnumDeviceInterfaces@CIlNt4Setupapi@@UAEHPAXPAU_SP_DEVINFO_DATA@@PBU_GUID@@KPAU_SP_DEVICE_INTERFACE_DATA@@@Z=C:\Windows\SysWOW64\migisol.?SetupDiEnumDeviceInterfaces@CIlNt4Setupapi@@UAEHPAXPAU_SP_DEVINFO_DATA@@PBU_GUID@@KPAU_SP_DEVICE_INTERFACE_DATA@@@Z
  ?SetupDiEnumDriverInfoW@CIlNt4Setupapi@@UAEHPAXPAU_SP_DEVINFO_DATA@@KKPAU_SP_DRVINFO_DATA_V2_W@@@Z=C:\Windows\SysWOW64\migisol.?SetupDiEnumDriverInfoW@CIlNt4Setupapi@@UAEHPAXPAU_SP_DEVINFO_DATA@@KKPAU_SP_DRVINFO_DATA_V2_W@@@Z
  ?SetupDiGetClassDevsExW@CIlNt4Setupapi@@UAEPAXPBU_GUID@@PBGPAUHWND__@@KPAX13@Z=C:\Windows\SysWOW64\migisol.?SetupDiGetClassDevsExW@CIlNt4Setupapi@@UAEPAXPBU_GUID@@PBGPAUHWND__@@KPAX13@Z
  ?SetupDiGetClassDevsW@CIlNt4Setupapi@@UAEPAXPBU_GUID@@PBGPAUHWND__@@K@Z=C:\Windows\SysWOW64\migisol.?SetupDiGetClassDevsW@CIlNt4Setupapi@@UAEPAXPBU_GUID@@PBGPAUHWND__@@K@Z
  ?SetupDiGetDeviceInstallParamsW@CIlNt4Setupapi@@UAEHPAXPAU_SP_DEVINFO_DATA@@PAU_SP_DEVINSTALL_PARAMS_W@@@Z=C:\Windows\SysWOW64\migisol.?SetupDiGetDeviceInstallParamsW@CIlNt4Setupapi@@UAEHPAXPAU_SP_DEVINFO_DATA@@PAU_SP_DEVINSTALL_PARAMS_W@@@Z
  ?SetupDiGetDeviceInterfaceDetailW@CIlNt4Setupapi@@UAEHPAXPAU_SP_DEVICE_INTERFACE_DATA@@PAU_SP_DEVICE_INTERFACE_DETAIL_DATA_W@@KPAKPAU_SP_DEVINFO_DATA@@@Z=C:\Windows\SysWOW64\migisol.?SetupDiGetDeviceInterfaceDetailW@CIlNt4Setupapi@@UAEHPAXPAU_SP_DEVICE_INTERFACE_DATA@@PAU_SP_DEVICE_INTERFACE_DETAIL_DATA_W@@KPAKPAU_SP_DEVINFO_DATA@@@Z
  ?SetupDiGetDeviceRegistryPropertyW@CIlNt4Setupapi@@UAEHPAXPAU_SP_DEVINFO_DATA@@KPAKPAEK2@Z=C:\Windows\SysWOW64\migisol.?SetupDiGetDeviceRegistryPropertyW@CIlNt4Setupapi@@UAEHPAXPAU_SP_DEVINFO_DATA@@KPAKPAEK2@Z
  ?SetupDiGetDriverInfoDetailW@CIlNt4Setupapi@@UAEHPAXPAU_SP_DEVINFO_DATA@@PAU_SP_DRVINFO_DATA_V2_W@@PAU_SP_DRVINFO_DETAIL_DATA_W@@KPAK@Z=C:\Windows\SysWOW64\migisol.?SetupDiGetDriverInfoDetailW@CIlNt4Setupapi@@UAEHPAXPAU_SP_DEVINFO_DATA@@PAU_SP_DRVINFO_DATA_V2_W@@PAU_SP_DRVINFO_DETAIL_DATA_W@@KPAK@Z
  ?SetupDiOpenDevRegKey@CIlNt4Setupapi@@UAEPAUHKEY__@@PAXPAU_SP_DEVINFO_DATA@@KKKK@Z=C:\Windows\SysWOW64\migisol.?SetupDiOpenDevRegKey@CIlNt4Setupapi@@UAEPAUHKEY__@@PAXPAU_SP_DEVINFO_DATA@@KKKK@Z
  ?SetupDiOpenDeviceInfoW@CIlNt4Setupapi@@UAEHPAXPBGPAUHWND__@@KPAU_SP_DEVINFO_DATA@@@Z=C:\Windows\SysWOW64\migisol.?SetupDiOpenDeviceInfoW@CIlNt4Setupapi@@UAEHPAXPBGPAUHWND__@@KPAU_SP_DEVINFO_DATA@@@Z
  ?SetupDiSetDeviceInstallParamsW@CIlNt4Setupapi@@UAEHPAXPAU_SP_DEVINFO_DATA@@PAU_SP_DEVINSTALL_PARAMS_W@@@Z=C:\Windows\SysWOW64\migisol.?SetupDiSetDeviceInstallParamsW@CIlNt4Setupapi@@UAEHPAXPAU_SP_DEVINFO_DATA@@PAU_SP_DEVINSTALL_PARAMS_W@@@Z
  ?SetupDiSetSelectedDriverW@CIlNt4Setupapi@@UAEHPAXPAU_SP_DEVINFO_DATA@@PAU_SP_DRVINFO_DATA_V2_W@@@Z=C:\Windows\SysWOW64\migisol.?SetupDiSetSelectedDriverW@CIlNt4Setupapi@@UAEHPAXPAU_SP_DEVINFO_DATA@@PAU_SP_DRVINFO_DATA_V2_W@@@Z
  ?SetupFindFirstLineW@CIlSetupapi@@UAEHPAXPBG1PAU_INFCONTEXT@@@Z=C:\Windows\SysWOW64\migisol.?SetupFindFirstLineW@CIlSetupapi@@UAEHPAXPBG1PAU_INFCONTEXT@@@Z
  ?SetupFindNextLine@CIlSetupapi@@UAEHPAU_INFCONTEXT@@0@Z=C:\Windows\SysWOW64\migisol.?SetupFindNextLine@CIlSetupapi@@UAEHPAU_INFCONTEXT@@0@Z
  ?SetupGetInfInformationW@CIlNt4Setupapi@@UAEHPBXKPAU_SP_INF_INFORMATION@@KPAK@Z=C:\Windows\SysWOW64\migisol.?SetupGetInfInformationW@CIlNt4Setupapi@@UAEHPBXKPAU_SP_INF_INFORMATION@@KPAK@Z
  ?SetupGetLineTextW@CIlSetupapi@@UAEHPAU_INFCONTEXT@@PAXPBG2PAGKPAK@Z=C:\Windows\SysWOW64\migisol.?SetupGetLineTextW@CIlSetupapi@@UAEHPAU_INFCONTEXT@@PAXPBG2PAGKPAK@Z
  ?SetupGetStringFieldW@CIlSetupapi@@UAEHPAU_INFCONTEXT@@KPAGKPAK@Z=C:\Windows\SysWOW64\migisol.?SetupGetStringFieldW@CIlSetupapi@@UAEHPAU_INFCONTEXT@@KPAGKPAK@Z
  ?SetupOpenFileQueue@CIlNt4Setupapi@@UAEPAXXZ=C:\Windows\SysWOW64\migisol.?SetupOpenFileQueue@CIlNt4Setupapi@@UAEPAXXZ
  ?SetupOpenInfFileW@CIlSetupapi@@UAEPAXPBG0KPAI@Z=C:\Windows\SysWOW64\migisol.?SetupOpenInfFileW@CIlSetupapi@@UAEPAXPBG0KPAI@Z
  ?SetupQueryInfOriginalFileInformationW@CIlNt4Setupapi@@UAEHPAU_SP_INF_INFORMATION@@IPAU_SP_ALTPLATFORM_INFO_V2@@PAU_SP_ORIGINAL_FILE_INFO_W@@@Z=C:\Windows\SysWOW64\migisol.?SetupQueryInfOriginalFileInformationW@CIlNt4Setupapi@@UAEHPAU_SP_INF_INFORMATION@@IPAU_SP_ALTPLATFORM_INFO_V2@@PAU_SP_ORIGINAL_FILE_INFO_W@@@Z
  ?SetupScanFileQueueW@CIlNt4Setupapi@@UAEHPAXKPAUHWND__@@P6GI0III@Z0PAK@Z=C:\Windows\SysWOW64\migisol.?SetupScanFileQueueW@CIlNt4Setupapi@@UAEHPAXKPAUHWND__@@P6GI0III@Z0PAK@Z
  ?ShellExecuteExW@CIlShell32@@UAEHPAU_SHELLEXECUTEINFOW@@@Z=C:\Windows\SysWOW64\migisol.?ShellExecuteExW@CIlShell32@@UAEHPAU_SHELLEXECUTEINFOW@@@Z
  ?Sleep@CIlKernel32@@UAEXK@Z=C:\Windows\SysWOW64\migisol.?Sleep@CIlKernel32@@UAEXK@Z
  ?StartServiceW@CIlNt4Advapi32@@UAEHPAUSC_HANDLE__@@KPAPBG@Z=C:\Windows\SysWOW64\migisol.?StartServiceW@CIlNt4Advapi32@@UAEHPAUSC_HANDLE__@@KPAPBG@Z
  ?SysprepIsStagedOS@CIlDeplorch@@UAEHXZ=C:\Windows\SysWOW64\migisol.?SysprepIsStagedOS@CIlDeplorch@@UAEHXZ
  ?TerminateProcess@CIlKernel32@@UAEHPAXI@Z=C:\Windows\SysWOW64\migisol.?TerminateProcess@CIlKernel32@@UAEHPAXI@Z
  ?UnlockServiceDatabase@CIlNt4Advapi32@@UAEHPAX@Z=C:\Windows\SysWOW64\migisol.?UnlockServiceDatabase@CIlNt4Advapi32@@UAEHPAX@Z
  ?UnmapViewOfFile@CIlKernel32@@UAEHPBX@Z=C:\Windows\SysWOW64\migisol.?UnmapViewOfFile@CIlKernel32@@UAEHPBX@Z
  ?VariantClear@CIlOleaut32@@UAEJPAUtagVARIANT@@@Z=C:\Windows\SysWOW64\migisol.?VariantClear@CIlOleaut32@@UAEJPAUtagVARIANT@@@Z
  ?VerQueryValueW@CIlVersion@@UAEHQAXPBGPAPAXPAI@Z=C:\Windows\SysWOW64\migisol.?VerQueryValueW@CIlVersion@@UAEHQAXPBGPAPAXPAI@Z
  ?VirtualAlloc@CIlKernel32@@UAEPAXPAXKKK@Z=C:\Windows\SysWOW64\migisol.?VirtualAlloc@CIlKernel32@@UAEPAXPAXKKK@Z
  ?VirtualFree@CIlKernel32@@UAEHPAXKK@Z=C:\Windows\SysWOW64\migisol.?VirtualFree@CIlKernel32@@UAEHPAXKK@Z
  ?WIMApplyImage@CIlWimgapi@@UAEHPAXPAGK@Z=C:\Windows\SysWOW64\migisol.?WIMApplyImage@CIlWimgapi@@UAEHPAXPAGK@Z
  ?WIMCloseHandle@CIlWimgapi@@UAEHPAX@Z=C:\Windows\SysWOW64\migisol.?WIMCloseHandle@CIlWimgapi@@UAEHPAX@Z
  ?WIMCreateFile@CIlWimgapi@@UAEPAXPAGKKKKPAK@Z=C:\Windows\SysWOW64\migisol.?WIMCreateFile@CIlWimgapi@@UAEPAXPAGKKKKPAK@Z
  ?WIMLoadImage@CIlWimgapi@@UAEPAXPAXK@Z=C:\Windows\SysWOW64\migisol.?WIMLoadImage@CIlWimgapi@@UAEPAXPAXK@Z
  ?WIMRegisterMessageCallback@CIlWimgapi@@UAEKPAXP6GHXZ0@Z=C:\Windows\SysWOW64\migisol.?WIMRegisterMessageCallback@CIlWimgapi@@UAEKPAXP6GHXZ0@Z
  ?WIMSetTemporaryPath@CIlWimgapi@@UAEHPAXPAG@Z=C:\Windows\SysWOW64\migisol.?WIMSetTemporaryPath@CIlWimgapi@@UAEHPAXPAG@Z
  ?WIMUnregisterMessageCallback@CIlWimgapi@@UAEHPAXP6GHXZ@Z=C:\Windows\SysWOW64\migisol.?WIMUnregisterMessageCallback@CIlWimgapi@@UAEHPAXP6GHXZ@Z
  ?WSACleanup@CIlWs2_32@@UAEHXZ=C:\Windows\SysWOW64\migisol.?WSACleanup@CIlWs2_32@@UAEHXZ
  ?WSAGetLastError@CIlWs2_32@@UAEHXZ=C:\Windows\SysWOW64\migisol.?WSAGetLastError@CIlWs2_32@@UAEHXZ
  ?WSAIoctl@CIlWs2_32@@UAEHIKPAXK0KPAKPAU_OVERLAPPED@@P6GXKK2K@Z@Z=C:\Windows\SysWOW64\migisol.?WSAIoctl@CIlWs2_32@@UAEHIKPAXK0KPAKPAU_OVERLAPPED@@P6GXKK2K@Z@Z
  ?WSAStartup@CIlWs2_32@@UAEHGPAUWSAData@@@Z=C:\Windows\SysWOW64\migisol.?WSAStartup@CIlWs2_32@@UAEHGPAUWSAData@@@Z
  ?WaitForMultipleObjects@CIlKernel32@@UAEKKPBQAXHK@Z=C:\Windows\SysWOW64\migisol.?WaitForMultipleObjects@CIlKernel32@@UAEKKPBQAXHK@Z
  ?WaitForSingleObject@CIlKernel32@@UAEKPAXK@Z=C:\Windows\SysWOW64\migisol.?WaitForSingleObject@CIlKernel32@@UAEKPAXK@Z
  ?WriteFile@CIlKernel32@@UAEHPAXPBXKPAKPAU_OVERLAPPED@@@Z=C:\Windows\SysWOW64\migisol.?WriteFile@CIlKernel32@@UAEHPAXPBXKPAKPAU_OVERLAPPED@@@Z
  ?__WSAFDIsSet@CIlWs2_32@@UAEHIPAUfd_set@@@Z=C:\Windows\SysWOW64\migisol.?__WSAFDIsSet@CIlWs2_32@@UAEHIPAUfd_set@@@Z
  ?accept@CIlWs2_32@@UAEIIPAUsockaddr@@PAH@Z=C:\Windows\SysWOW64\migisol.?accept@CIlWs2_32@@UAEIIPAUsockaddr@@PAH@Z
  ?bind@CIlWs2_32@@UAEHIPBUsockaddr@@H@Z=C:\Windows\SysWOW64\migisol.?bind@CIlWs2_32@@UAEHIPBUsockaddr@@H@Z
  ?closesocket@CIlWs2_32@@UAEHI@Z=C:\Windows\SysWOW64\migisol.?closesocket@CIlWs2_32@@UAEHI@Z
  ?connect@CIlWs2_32@@UAEHIPBUsockaddr@@H@Z=C:\Windows\SysWOW64\migisol.?connect@CIlWs2_32@@UAEHIPBUsockaddr@@H@Z
  ?freeaddrinfo@CIlW2kDynWs2_32@@UAEXPAUaddrinfo@@@Z=C:\Windows\SysWOW64\migisol.?freeaddrinfo@CIlW2kDynWs2_32@@UAEXPAUaddrinfo@@@Z
  ?g_Advapi32@@3PAUIAdvapi32Interface@@A=C:\Windows\SysWOW64\migisol.?g_Advapi32@@3PAUIAdvapi32Interface@@A
  ?g_Deplorch@@3PAUIDeplorchInterface@@A=C:\Windows\SysWOW64\migisol.?g_Deplorch@@3PAUIDeplorchInterface@@A
  ?g_Iphlpapi@@3PAUIIphlpapiInterface@@A=C:\Windows\SysWOW64\migisol.?g_Iphlpapi@@3PAUIIphlpapiInterface@@A
  ?g_Kernel32@@3PAUIKernel32Interface@@A=C:\Windows\SysWOW64\migisol.?g_Kernel32@@3PAUIKernel32Interface@@A
  ?g_Muisetupapi@@3PAUIMuisetupapiInterface@@A=C:\Windows\SysWOW64\migisol.?g_Muisetupapi@@3PAUIMuisetupapiInterface@@A
  ?g_Nt4Advapi32@@3PAUIW2kAdvapi32Interface@@A=C:\Windows\SysWOW64\migisol.?g_Nt4Advapi32@@3PAUIW2kAdvapi32Interface@@A
  ?g_Nt4Kernel32@@3PAUIW2kKernel32Interface@@A=C:\Windows\SysWOW64\migisol.?g_Nt4Kernel32@@3PAUIW2kKernel32Interface@@A
  ?g_Nt4Netapi32@@3PAUIW2kNetapi32Interface@@A=C:\Windows\SysWOW64\migisol.?g_Nt4Netapi32@@3PAUIW2kNetapi32Interface@@A
  ?g_Nt4Setupapi@@3PAUIW2kSetupapiInterface@@A=C:\Windows\SysWOW64\migisol.?g_Nt4Setupapi@@3PAUIW2kSetupapiInterface@@A
  ?g_Nt4User32@@3PAUIW2kUser32Interface@@A=C:\Windows\SysWOW64\migisol.?g_Nt4User32@@3PAUIW2kUser32Interface@@A
  ?g_Nt4Userenv@@3PAUIW2kUserenvInterface@@A=C:\Windows\SysWOW64\migisol.?g_Nt4Userenv@@3PAUIW2kUserenvInterface@@A
  ?g_Nt6Userenv@@3PAUINt6UserenvInterface@@A=C:\Windows\SysWOW64\migisol.?g_Nt6Userenv@@3PAUINt6UserenvInterface@@A
  ?g_Ole32@@3PAUIOle32Interface@@A=C:\Windows\SysWOW64\migisol.?g_Ole32@@3PAUIOle32Interface@@A
  ?g_Oleaut32@@3PAUIOleaut32Interface@@A=C:\Windows\SysWOW64\migisol.?g_Oleaut32@@3PAUIOleaut32Interface@@A
  ?g_Setupapi@@3PAUISetupapiInterface@@A=C:\Windows\SysWOW64\migisol.?g_Setupapi@@3PAUISetupapiInterface@@A
  ?g_Shell32@@3PAUIShell32Interface@@A=C:\Windows\SysWOW64\migisol.?g_Shell32@@3PAUIShell32Interface@@A
  ?g_User32@@3PAUIUser32Interface@@A=C:\Windows\SysWOW64\migisol.?g_User32@@3PAUIUser32Interface@@A
  ?g_Version@@3PAUIVersionInterface@@A=C:\Windows\SysWOW64\migisol.?g_Version@@3PAUIVersionInterface@@A
  ?g_W2kWs2_32@@3PAUIlW2kDynWs2_32Interface@@A=C:\Windows\SysWOW64\migisol.?g_W2kWs2_32@@3PAUIlW2kDynWs2_32Interface@@A
  ?g_Wimgapi@@3PAUIWimgapiInterface@@A=C:\Windows\SysWOW64\migisol.?g_Wimgapi@@3PAUIWimgapiInterface@@A
  ?g_Ws2_32@@3PAUIWs2_32Interface@@A=C:\Windows\SysWOW64\migisol.?g_Ws2_32@@3PAUIWs2_32Interface@@A
  ?get_ChangeServiceConfigW@CIlNt4Advapi32@@QAEP6GHPAUSC_HANDLE__@@KKKPBG1PAK1111@ZXZ=C:\Windows\SysWOW64\migisol.?get_ChangeServiceConfigW@CIlNt4Advapi32@@QAEP6GHPAUSC_HANDLE__@@KKKPBG1PAK1111@ZXZ
  ?get_CloseServiceHandle@CIlNt4Advapi32@@QAEP6GHPAUSC_HANDLE__@@@ZXZ=C:\Windows\SysWOW64\migisol.?get_CloseServiceHandle@CIlNt4Advapi32@@QAEP6GHPAUSC_HANDLE__@@@ZXZ
  ?get_ConvertSecurityDescriptorToStringSecurityDescriptorW@CIlNt4Advapi32@@QAEP6GHPAXKKPAPAGPAK@ZXZ=C:\Windows\SysWOW64\migisol.?get_ConvertSecurityDescriptorToStringSecurityDescriptorW@CIlNt4Advapi32@@QAEP6GHPAXKKPAPAGPAK@ZXZ
  ?get_ConvertSidToStringSidW@CIlNt4Advapi32@@QAEP6GHPAXPAPAG@ZXZ=C:\Windows\SysWOW64\migisol.?get_ConvertSidToStringSidW@CIlNt4Advapi32@@QAEP6GHPAXPAPAG@ZXZ
  ?get_ConvertStringSecurityDescriptorToSecurityDescriptorW@CIlNt4Advapi32@@QAEP6GHPBGKPAPAXPAK@ZXZ=C:\Windows\SysWOW64\migisol.?get_ConvertStringSecurityDescriptorToSecurityDescriptorW@CIlNt4Advapi32@@QAEP6GHPBGKPAPAXPAK@ZXZ
  ?get_ConvertStringSidToSidW@CIlNt4Advapi32@@QAEP6GHPAGPAPAX@ZXZ=C:\Windows\SysWOW64\migisol.?get_ConvertStringSidToSidW@CIlNt4Advapi32@@QAEP6GHPAGPAPAX@ZXZ
  ?get_CreateProfile@CIlNt6Userenv@@QAEP6GJPBG0PAGK@ZXZ=C:\Windows\SysWOW64\migisol.?get_CreateProfile@CIlNt6Userenv@@QAEP6GJPBG0PAGK@ZXZ
  ?get_CreateServiceW@CIlNt4Advapi32@@QAEP6GPAUSC_HANDLE__@@PAU2@PBG1KKKK11PAK111@ZXZ=C:\Windows\SysWOW64\migisol.?get_CreateServiceW@CIlNt4Advapi32@@QAEP6GPAUSC_HANDLE__@@PAU2@PBG1KKKK11PAK111@ZXZ
  ?get_CreateToolhelp32Snapshot@CIlNt4Kernel32@@QAEP6GPAXKK@ZXZ=C:\Windows\SysWOW64\migisol.?get_CreateToolhelp32Snapshot@CIlNt4Kernel32@@QAEP6GPAXKK@ZXZ
  ?get_CreateUserProfileExW@CIlNt4Userenv@@QAEP6GHPAXPBG1PAGKH@ZXZ=C:\Windows\SysWOW64\migisol.?get_CreateUserProfileExW@CIlNt4Userenv@@QAEP6GHPAXPBG1PAGKH@ZXZ
  ?get_CreateWellKnownSid@CIlNt4Advapi32@@QAEP6GHW4WELL_KNOWN_SID_TYPE@@PAX1PAK@ZXZ=C:\Windows\SysWOW64\migisol.?get_CreateWellKnownSid@CIlNt4Advapi32@@QAEP6GHW4WELL_KNOWN_SID_TYPE@@PAX1PAK@ZXZ
  ?get_EncryptFileW@CIlNt4Advapi32@@QAEP6GHPBG@ZXZ=C:\Windows\SysWOW64\migisol.?get_EncryptFileW@CIlNt4Advapi32@@QAEP6GHPBG@ZXZ
  ?get_EnumServicesStatusExW@CIlNt4Advapi32@@QAEP6GHPAUSC_HANDLE__@@W4_SC_ENUM_TYPE@@KKPAEKPAK33PBG@ZXZ=C:\Windows\SysWOW64\migisol.?get_EnumServicesStatusExW@CIlNt4Advapi32@@QAEP6GHPAUSC_HANDLE__@@W4_SC_ENUM_TYPE@@KKPAEKPAK33PBG@ZXZ
  ?get_GetSystemWindowsDirectoryW@CIlNt4Kernel32@@QAEP6GIPAGI@ZXZ=C:\Windows\SysWOW64\migisol.?get_GetSystemWindowsDirectoryW@CIlNt4Kernel32@@QAEP6GIPAGI@ZXZ
  ?get_GlobalMemoryStatusEx@CIlNt4Kernel32@@QAEP6GHPAU_MEMORYSTATUSEX@@@ZXZ=C:\Windows\SysWOW64\migisol.?get_GlobalMemoryStatusEx@CIlNt4Kernel32@@QAEP6GHPAU_MEMORYSTATUSEX@@@ZXZ
  ?get_InitiateSystemShutdownExW@CIlNt4Advapi32@@QAEP6GHPAG0KHHK@ZXZ=C:\Windows\SysWOW64\migisol.?get_InitiateSystemShutdownExW@CIlNt4Advapi32@@QAEP6GHPAG0KHHK@ZXZ
  ?get_LockServiceDatabase@CIlNt4Advapi32@@QAEP6GPAXPAUSC_HANDLE__@@@ZXZ=C:\Windows\SysWOW64\migisol.?get_LockServiceDatabase@CIlNt4Advapi32@@QAEP6GPAXPAUSC_HANDLE__@@@ZXZ
  ?get_LockSetForegroundWindow@CIlNt4User32@@QAEP6GHI@ZXZ=C:\Windows\SysWOW64\migisol.?get_LockSetForegroundWindow@CIlNt4User32@@QAEP6GHI@ZXZ
  ?get_NetApiBufferFree@CIlNt4Netapi32@@QAEP6GKPAX@ZXZ=C:\Windows\SysWOW64\migisol.?get_NetApiBufferFree@CIlNt4Netapi32@@QAEP6GKPAX@ZXZ
  ?get_NetLocalGroupAdd@CIlNt4Netapi32@@QAEP6GKPBGKPAEPAK@ZXZ=C:\Windows\SysWOW64\migisol.?get_NetLocalGroupAdd@CIlNt4Netapi32@@QAEP6GKPBGKPAEPAK@ZXZ
  ?get_NetLocalGroupAddMembers@CIlNt4Netapi32@@QAEP6GKPBG0KPAEK@ZXZ=C:\Windows\SysWOW64\migisol.?get_NetLocalGroupAddMembers@CIlNt4Netapi32@@QAEP6GKPBG0KPAEK@ZXZ
  ?get_NetLocalGroupEnum@CIlNt4Netapi32@@QAEP6GKPBGKPAPAEKPAK22@ZXZ=C:\Windows\SysWOW64\migisol.?get_NetLocalGroupEnum@CIlNt4Netapi32@@QAEP6GKPBGKPAPAEKPAK22@ZXZ
  ?get_NetUserAdd@CIlNt4Netapi32@@QAEP6GKPBGKPAEPAK@ZXZ=C:\Windows\SysWOW64\migisol.?get_NetUserAdd@CIlNt4Netapi32@@QAEP6GKPBGKPAEPAK@ZXZ
  ?get_NetUserDel@CIlNt4Netapi32@@QAEP6GKPBG0@ZXZ=C:\Windows\SysWOW64\migisol.?get_NetUserDel@CIlNt4Netapi32@@QAEP6GKPBG0@ZXZ
  ?get_NetUserEnum@CIlNt4Netapi32@@QAEP6GKPBGKKPAPAEKPAK22@ZXZ=C:\Windows\SysWOW64\migisol.?get_NetUserEnum@CIlNt4Netapi32@@QAEP6GKPBGKKPAPAEKPAK22@ZXZ
  ?get_NetUserGetLocalGroups@CIlNt4Netapi32@@QAEP6GKPBG0KKPAPAEKPAK2@ZXZ=C:\Windows\SysWOW64\migisol.?get_NetUserGetLocalGroups@CIlNt4Netapi32@@QAEP6GKPBG0KKPAPAEKPAK2@ZXZ
  ?get_NetWkstaGetInfo@CIlNt4Netapi32@@QAEP6GKPAGKPAPAE@ZXZ=C:\Windows\SysWOW64\migisol.?get_NetWkstaGetInfo@CIlNt4Netapi32@@QAEP6GKPAGKPAPAE@ZXZ
  ?get_OpenSCManagerW@CIlNt4Advapi32@@QAEP6GPAUSC_HANDLE__@@PBG0K@ZXZ=C:\Windows\SysWOW64\migisol.?get_OpenSCManagerW@CIlNt4Advapi32@@QAEP6GPAUSC_HANDLE__@@PBG0K@ZXZ
  ?get_OpenServiceW@CIlNt4Advapi32@@QAEP6GPAUSC_HANDLE__@@PAU2@PBGK@ZXZ=C:\Windows\SysWOW64\migisol.?get_OpenServiceW@CIlNt4Advapi32@@QAEP6GPAUSC_HANDLE__@@PAU2@PBGK@ZXZ
  ?get_Process32FirstW@CIlNt4Kernel32@@QAEP6GHPAXPAUtagPROCESSENTRY32W@@@ZXZ=C:\Windows\SysWOW64\migisol.?get_Process32FirstW@CIlNt4Kernel32@@QAEP6GHPAXPAUtagPROCESSENTRY32W@@@ZXZ
  ?get_Process32NextW@CIlNt4Kernel32@@QAEP6GHPAXPAUtagPROCESSENTRY32W@@@ZXZ=C:\Windows\SysWOW64\migisol.?get_Process32NextW@CIlNt4Kernel32@@QAEP6GHPAXPAUtagPROCESSENTRY32W@@@ZXZ
  ?get_QueryServiceConfigW@CIlNt4Advapi32@@QAEP6GHPAUSC_HANDLE__@@PAU_QUERY_SERVICE_CONFIGW@@KPAK@ZXZ=C:\Windows\SysWOW64\migisol.?get_QueryServiceConfigW@CIlNt4Advapi32@@QAEP6GHPAUSC_HANDLE__@@PAU_QUERY_SERVICE_CONFIGW@@KPAK@ZXZ
  ?get_RegisterWaitForSingleObject@CIlNt4Kernel32@@QAEP6GHPAPAXPAXP6GX1E@Z1KK@ZXZ=C:\Windows\SysWOW64\migisol.?get_RegisterWaitForSingleObject@CIlNt4Kernel32@@QAEP6GHPAPAXPAXP6GX1E@Z1KK@ZXZ
  ?get_SetupCloseFileQueue@CIlNt4Setupapi@@QAEP6GHPAX@ZXZ=C:\Windows\SysWOW64\migisol.?get_SetupCloseFileQueue@CIlNt4Setupapi@@QAEP6GHPAX@ZXZ
  ?get_SetupDiBuildDriverInfoList@CIlNt4Setupapi@@QAEP6GHPAXPAU_SP_DEVINFO_DATA@@K@ZXZ=C:\Windows\SysWOW64\migisol.?get_SetupDiBuildDriverInfoList@CIlNt4Setupapi@@QAEP6GHPAXPAU_SP_DEVINFO_DATA@@K@ZXZ
  ?get_SetupDiCallClassInstaller@CIlNt4Setupapi@@QAEP6GHIPAXPAU_SP_DEVINFO_DATA@@@ZXZ=C:\Windows\SysWOW64\migisol.?get_SetupDiCallClassInstaller@CIlNt4Setupapi@@QAEP6GHIPAXPAU_SP_DEVINFO_DATA@@@ZXZ
  ?get_SetupDiCreateDeviceInfoListExW@CIlNt4Setupapi@@QAEP6GPAXPBU_GUID@@PAUHWND__@@PBGPAX@ZXZ=C:\Windows\SysWOW64\migisol.?get_SetupDiCreateDeviceInfoListExW@CIlNt4Setupapi@@QAEP6GPAXPBU_GUID@@PAUHWND__@@PBGPAX@ZXZ
  ?get_SetupDiDestroyDeviceInfoList@CIlNt4Setupapi@@QAEP6GHPAX@ZXZ=C:\Windows\SysWOW64\migisol.?get_SetupDiDestroyDeviceInfoList@CIlNt4Setupapi@@QAEP6GHPAX@ZXZ
  ?get_SetupDiDestroyDriverInfoList@CIlNt4Setupapi@@QAEP6GHPAXPAU_SP_DEVINFO_DATA@@K@ZXZ=C:\Windows\SysWOW64\migisol.?get_SetupDiDestroyDriverInfoList@CIlNt4Setupapi@@QAEP6GHPAXPAU_SP_DEVINFO_DATA@@K@ZXZ
  ?get_SetupDiEnumDeviceInfo@CIlNt4Setupapi@@QAEP6GHPAXKPAU_SP_DEVINFO_DATA@@@ZXZ=C:\Windows\SysWOW64\migisol.?get_SetupDiEnumDeviceInfo@CIlNt4Setupapi@@QAEP6GHPAXKPAU_SP_DEVINFO_DATA@@@ZXZ
  ?get_SetupDiEnumDeviceInterfaces@CIlNt4Setupapi@@QAEP6GHPAXPAU_SP_DEVINFO_DATA@@PBU_GUID@@KPAU_SP_DEVICE_INTERFACE_DATA@@@ZXZ=C:\Windows\SysWOW64\migisol.?get_SetupDiEnumDeviceInterfaces@CIlNt4Setupapi@@QAEP6GHPAXPAU_SP_DEVINFO_DATA@@PBU_GUID@@KPAU_SP_DEVICE_INTERFACE_DATA@@@ZXZ
  ?get_SetupDiEnumDriverInfoW@CIlNt4Setupapi@@QAEP6GHPAXPAU_SP_DEVINFO_DATA@@KKPAU_SP_DRVINFO_DATA_V2_W@@@ZXZ=C:\Windows\SysWOW64\migisol.?get_SetupDiEnumDriverInfoW@CIlNt4Setupapi@@QAEP6GHPAXPAU_SP_DEVINFO_DATA@@KKPAU_SP_DRVINFO_DATA_V2_W@@@ZXZ
  ?get_SetupDiGetClassDevsExW@CIlNt4Setupapi@@QAEP6GPAXPBU_GUID@@PBGPAUHWND__@@KPAX13@ZXZ=C:\Windows\SysWOW64\migisol.?get_SetupDiGetClassDevsExW@CIlNt4Setupapi@@QAEP6GPAXPBU_GUID@@PBGPAUHWND__@@KPAX13@ZXZ
  ?get_SetupDiGetClassDevsW@CIlNt4Setupapi@@QAEP6GPAXPBU_GUID@@PBGPAUHWND__@@K@ZXZ=C:\Windows\SysWOW64\migisol.?get_SetupDiGetClassDevsW@CIlNt4Setupapi@@QAEP6GPAXPBU_GUID@@PBGPAUHWND__@@K@ZXZ
  ?get_SetupDiGetDeviceInstallParamsW@CIlNt4Setupapi@@QAEP6GHPAXPAU_SP_DEVINFO_DATA@@PAU_SP_DEVINSTALL_PARAMS_W@@@ZXZ=C:\Windows\SysWOW64\migisol.?get_SetupDiGetDeviceInstallParamsW@CIlNt4Setupapi@@QAEP6GHPAXPAU_SP_DEVINFO_DATA@@PAU_SP_DEVINSTALL_PARAMS_W@@@ZXZ
  ?get_SetupDiGetDeviceInterfaceDetailW@CIlNt4Setupapi@@QAEP6GHPAXPAU_SP_DEVICE_INTERFACE_DATA@@PAU_SP_DEVICE_INTERFACE_DETAIL_DATA_W@@KPAKPAU_SP_DEVINFO_DATA@@@ZXZ=C:\Windows\SysWOW64\migisol.?get_SetupDiGetDeviceInterfaceDetailW@CIlNt4Setupapi@@QAEP6GHPAXPAU_SP_DEVICE_INTERFACE_DATA@@PAU_SP_DEVICE_INTERFACE_DETAIL_DATA_W@@KPAKPAU_SP_DEVINFO_DATA@@@ZXZ
  ?get_SetupDiGetDeviceRegistryPropertyW@CIlNt4Setupapi@@QAEP6GHPAXPAU_SP_DEVINFO_DATA@@KPAKPAEK2@ZXZ=C:\Windows\SysWOW64\migisol.?get_SetupDiGetDeviceRegistryPropertyW@CIlNt4Setupapi@@QAEP6GHPAXPAU_SP_DEVINFO_DATA@@KPAKPAEK2@ZXZ
  ?get_SetupDiGetDriverInfoDetailW@CIlNt4Setupapi@@QAEP6GHPAXPAU_SP_DEVINFO_DATA@@PAU_SP_DRVINFO_DATA_V2_W@@PAU_SP_DRVINFO_DETAIL_DATA_W@@KPAK@ZXZ=C:\Windows\SysWOW64\migisol.?get_SetupDiGetDriverInfoDetailW@CIlNt4Setupapi@@QAEP6GHPAXPAU_SP_DEVINFO_DATA@@PAU_SP_DRVINFO_DATA_V2_W@@PAU_SP_DRVINFO_DETAIL_DATA_W@@KPAK@ZXZ
  ?get_SetupDiOpenDevRegKey@CIlNt4Setupapi@@QAEP6GPAUHKEY__@@PAXPAU_SP_DEVINFO_DATA@@KKKK@ZXZ=C:\Windows\SysWOW64\migisol.?get_SetupDiOpenDevRegKey@CIlNt4Setupapi@@QAEP6GPAUHKEY__@@PAXPAU_SP_DEVINFO_DATA@@KKKK@ZXZ
  ?get_SetupDiOpenDeviceInfoW@CIlNt4Setupapi@@QAEP6GHPAXPBGPAUHWND__@@KPAU_SP_DEVINFO_DATA@@@ZXZ=C:\Windows\SysWOW64\migisol.?get_SetupDiOpenDeviceInfoW@CIlNt4Setupapi@@QAEP6GHPAXPBGPAUHWND__@@KPAU_SP_DEVINFO_DATA@@@ZXZ
  ?get_SetupDiSetDeviceInstallParamsW@CIlNt4Setupapi@@QAEP6GHPAXPAU_SP_DEVINFO_DATA@@PAU_SP_DEVINSTALL_PARAMS_W@@@ZXZ=C:\Windows\SysWOW64\migisol.?get_SetupDiSetDeviceInstallParamsW@CIlNt4Setupapi@@QAEP6GHPAXPAU_SP_DEVINFO_DATA@@PAU_SP_DEVINSTALL_PARAMS_W@@@ZXZ
  ?get_SetupDiSetSelectedDriverW@CIlNt4Setupapi@@QAEP6GHPAXPAU_SP_DEVINFO_DATA@@PAU_SP_DRVINFO_DATA_V2_W@@@ZXZ=C:\Windows\SysWOW64\migisol.?get_SetupDiSetSelectedDriverW@CIlNt4Setupapi@@QAEP6GHPAXPAU_SP_DEVINFO_DATA@@PAU_SP_DRVINFO_DATA_V2_W@@@ZXZ
  ?get_SetupGetInfInformationW@CIlNt4Setupapi@@QAEP6GHPBXKPAU_SP_INF_INFORMATION@@KPAK@ZXZ=C:\Windows\SysWOW64\migisol.?get_SetupGetInfInformationW@CIlNt4Setupapi@@QAEP6GHPBXKPAU_SP_INF_INFORMATION@@KPAK@ZXZ
  ?get_SetupOpenFileQueue@CIlNt4Setupapi@@QAEP6GPAXXZXZ=C:\Windows\SysWOW64\migisol.?get_SetupOpenFileQueue@CIlNt4Setupapi@@QAEP6GPAXXZXZ
  ?get_SetupQueryInfOriginalFileInformationW@CIlNt4Setupapi@@QAEP6GHPAU_SP_INF_INFORMATION@@IPAU_SP_ALTPLATFORM_INFO_V2@@PAU_SP_ORIGINAL_FILE_INFO_W@@@ZXZ=C:\Windows\SysWOW64\migisol.?get_SetupQueryInfOriginalFileInformationW@CIlNt4Setupapi@@QAEP6GHPAU_SP_INF_INFORMATION@@IPAU_SP_ALTPLATFORM_INFO_V2@@PAU_SP_ORIGINAL_FILE_INFO_W@@@ZXZ
  ?get_SetupScanFileQueueW@CIlNt4Setupapi@@QAEP6GHPAXKPAUHWND__@@P6GI0III@Z0PAK@ZXZ=C:\Windows\SysWOW64\migisol.?get_SetupScanFileQueueW@CIlNt4Setupapi@@QAEP6GHPAXKPAUHWND__@@P6GI0III@Z0PAK@ZXZ
  ?get_StartServiceW@CIlNt4Advapi32@@QAEP6GHPAUSC_HANDLE__@@KPAPBG@ZXZ=C:\Windows\SysWOW64\migisol.?get_StartServiceW@CIlNt4Advapi32@@QAEP6GHPAUSC_HANDLE__@@KPAPBG@ZXZ
  ?get_UnlockServiceDatabase@CIlNt4Advapi32@@QAEP6GHPAX@ZXZ=C:\Windows\SysWOW64\migisol.?get_UnlockServiceDatabase@CIlNt4Advapi32@@QAEP6GHPAX@ZXZ
  ?get_freeaddrinfo@CIlW2kDynWs2_32@@UAEP6GXPAUaddrinfo@@@ZXZ=C:\Windows\SysWOW64\migisol.?get_freeaddrinfo@CIlW2kDynWs2_32@@UAEP6GXPAUaddrinfo@@@ZXZ
  ?get_getaddrinfo@CIlW2kDynWs2_32@@UAEP6GHPBD0PBUaddrinfo@@PAPAU2@@ZXZ=C:\Windows\SysWOW64\migisol.?get_getaddrinfo@CIlW2kDynWs2_32@@UAEP6GHPBD0PBUaddrinfo@@PAPAU2@@ZXZ
  ?get_getnameinfo@CIlW2kDynWs2_32@@UAEP6GHPBUsockaddr@@HPADK1KH@ZXZ=C:\Windows\SysWOW64\migisol.?get_getnameinfo@CIlW2kDynWs2_32@@UAEP6GHPBUsockaddr@@HPADK1KH@ZXZ
  ?getaddrinfo@CIlW2kDynWs2_32@@UAEHPBD0PBUaddrinfo@@PAPAU2@@Z=C:\Windows\SysWOW64\migisol.?getaddrinfo@CIlW2kDynWs2_32@@UAEHPBD0PBUaddrinfo@@PAPAU2@@Z
  ?gethostbyname@CIlWs2_32@@UAEPAUhostent@@PBD@Z=C:\Windows\SysWOW64\migisol.?gethostbyname@CIlWs2_32@@UAEPAUhostent@@PBD@Z
  ?gethostname@CIlWs2_32@@UAEHPADH@Z=C:\Windows\SysWOW64\migisol.?gethostname@CIlWs2_32@@UAEHPADH@Z
  ?getnameinfo@CIlW2kDynWs2_32@@UAEHPBUsockaddr@@HPADK1KH@Z=C:\Windows\SysWOW64\migisol.?getnameinfo@CIlW2kDynWs2_32@@UAEHPBUsockaddr@@HPADK1KH@Z
  ?getsockname@CIlWs2_32@@UAEHIPAUsockaddr@@PAH@Z=C:\Windows\SysWOW64\migisol.?getsockname@CIlWs2_32@@UAEHIPAUsockaddr@@PAH@Z
  ?getsockopt@CIlWs2_32@@UAEHIHHPADPAH@Z=C:\Windows\SysWOW64\migisol.?getsockopt@CIlWs2_32@@UAEHIHHPADPAH@Z
  ?htonl@CIlWs2_32@@UAEKK@Z=C:\Windows\SysWOW64\migisol.?htonl@CIlWs2_32@@UAEKK@Z
  ?htons@CIlWs2_32@@UAEGG@Z=C:\Windows\SysWOW64\migisol.?htons@CIlWs2_32@@UAEGG@Z
  ?inet_addr@CIlWs2_32@@UAEKPBD@Z=C:\Windows\SysWOW64\migisol.?inet_addr@CIlWs2_32@@UAEKPBD@Z
  ?inet_ntoa@CIlWs2_32@@UAEPADUin_addr@@@Z=C:\Windows\SysWOW64\migisol.?inet_ntoa@CIlWs2_32@@UAEPADUin_addr@@@Z
  ?ioctlsocket@CIlWs2_32@@UAEHIJPAK@Z=C:\Windows\SysWOW64\migisol.?ioctlsocket@CIlWs2_32@@UAEHIJPAK@Z
  ?listen@CIlWs2_32@@UAEHIH@Z=C:\Windows\SysWOW64\migisol.?listen@CIlWs2_32@@UAEHIH@Z
  ?m_ChangeServiceConfigW@CIlNt4Advapi32@@0P6GHPAUSC_HANDLE__@@KKKPBG1PAK1111@ZA=C:\Windows\SysWOW64\migisol.?m_ChangeServiceConfigW@CIlNt4Advapi32@@0P6GHPAUSC_HANDLE__@@KKKPBG1PAK1111@ZA
  ?m_CloseServiceHandle@CIlNt4Advapi32@@0P6GHPAUSC_HANDLE__@@@ZA=C:\Windows\SysWOW64\migisol.?m_CloseServiceHandle@CIlNt4Advapi32@@0P6GHPAUSC_HANDLE__@@@ZA
  ?m_ConvertSecurityDescriptorToStringSecurityDescriptorW@CIlNt4Advapi32@@0P6GHPAXKKPAPAGPAK@ZA=C:\Windows\SysWOW64\migisol.?m_ConvertSecurityDescriptorToStringSecurityDescriptorW@CIlNt4Advapi32@@0P6GHPAXKKPAPAGPAK@ZA
  ?m_ConvertSidToStringSidW@CIlNt4Advapi32@@0P6GHPAXPAPAG@ZA=C:\Windows\SysWOW64\migisol.?m_ConvertSidToStringSidW@CIlNt4Advapi32@@0P6GHPAXPAPAG@ZA
  ?m_ConvertStringSecurityDescriptorToSecurityDescriptorW@CIlNt4Advapi32@@0P6GHPBGKPAPAXPAK@ZA=C:\Windows\SysWOW64\migisol.?m_ConvertStringSecurityDescriptorToSecurityDescriptorW@CIlNt4Advapi32@@0P6GHPBGKPAPAXPAK@ZA
  ?m_ConvertStringSidToSidW@CIlNt4Advapi32@@0P6GHPAGPAPAX@ZA=C:\Windows\SysWOW64\migisol.?m_ConvertStringSidToSidW@CIlNt4Advapi32@@0P6GHPAGPAPAX@ZA
  ?m_CreateProfile@CIlNt6Userenv@@0P6GJPBG0PAGK@ZA=C:\Windows\SysWOW64\migisol.?m_CreateProfile@CIlNt6Userenv@@0P6GJPBG0PAGK@ZA
  ?m_CreateServiceW@CIlNt4Advapi32@@0P6GPAUSC_HANDLE__@@PAU2@PBG1KKKK11PAK111@ZA=C:\Windows\SysWOW64\migisol.?m_CreateServiceW@CIlNt4Advapi32@@0P6GPAUSC_HANDLE__@@PAU2@PBG1KKKK11PAK111@ZA
  ?m_CreateToolhelp32Snapshot@CIlNt4Kernel32@@0P6GPAXKK@ZA=C:\Windows\SysWOW64\migisol.?m_CreateToolhelp32Snapshot@CIlNt4Kernel32@@0P6GPAXKK@ZA
  ?m_CreateUserProfileExW@CIlNt4Userenv@@0P6GHPAXPBG1PAGKH@ZA=C:\Windows\SysWOW64\migisol.?m_CreateUserProfileExW@CIlNt4Userenv@@0P6GHPAXPBG1PAGKH@ZA
  ?m_CreateWellKnownSid@CIlNt4Advapi32@@0P6GHW4WELL_KNOWN_SID_TYPE@@PAX1PAK@ZA=C:\Windows\SysWOW64\migisol.?m_CreateWellKnownSid@CIlNt4Advapi32@@0P6GHW4WELL_KNOWN_SID_TYPE@@PAX1PAK@ZA
  ?m_EncryptFileW@CIlNt4Advapi32@@0P6GHPBG@ZA=C:\Windows\SysWOW64\migisol.?m_EncryptFileW@CIlNt4Advapi32@@0P6GHPBG@ZA
  ?m_EnumServicesStatusExW@CIlNt4Advapi32@@0P6GHPAUSC_HANDLE__@@W4_SC_ENUM_TYPE@@KKPAEKPAK33PBG@ZA=C:\Windows\SysWOW64\migisol.?m_EnumServicesStatusExW@CIlNt4Advapi32@@0P6GHPAUSC_HANDLE__@@W4_SC_ENUM_TYPE@@KKPAEKPAK33PBG@ZA
  ?m_GetSystemWindowsDirectoryW@CIlNt4Kernel32@@0P6GIPAGI@ZA=C:\Windows\SysWOW64\migisol.?m_GetSystemWindowsDirectoryW@CIlNt4Kernel32@@0P6GIPAGI@ZA
  ?m_GlobalMemoryStatusEx@CIlNt4Kernel32@@0P6GHPAU_MEMORYSTATUSEX@@@ZA=C:\Windows\SysWOW64\migisol.?m_GlobalMemoryStatusEx@CIlNt4Kernel32@@0P6GHPAU_MEMORYSTATUSEX@@@ZA
  ?m_InitiateSystemShutdownExW@CIlNt4Advapi32@@0P6GHPAG0KHHK@ZA=C:\Windows\SysWOW64\migisol.?m_InitiateSystemShutdownExW@CIlNt4Advapi32@@0P6GHPAG0KHHK@ZA
  ?m_LockServiceDatabase@CIlNt4Advapi32@@0P6GPAXPAUSC_HANDLE__@@@ZA=C:\Windows\SysWOW64\migisol.?m_LockServiceDatabase@CIlNt4Advapi32@@0P6GPAXPAUSC_HANDLE__@@@ZA
  ?m_LockSetForegroundWindow@CIlNt4User32@@0P6GHI@ZA=C:\Windows\SysWOW64\migisol.?m_LockSetForegroundWindow@CIlNt4User32@@0P6GHI@ZA
  ?m_NetApiBufferFree@CIlNt4Netapi32@@0P6GKPAX@ZA=C:\Windows\SysWOW64\migisol.?m_NetApiBufferFree@CIlNt4Netapi32@@0P6GKPAX@ZA
  ?m_NetLocalGroupAdd@CIlNt4Netapi32@@0P6GKPBGKPAEPAK@ZA=C:\Windows\SysWOW64\migisol.?m_NetLocalGroupAdd@CIlNt4Netapi32@@0P6GKPBGKPAEPAK@ZA
  ?m_NetLocalGroupAddMembers@CIlNt4Netapi32@@0P6GKPBG0KPAEK@ZA=C:\Windows\SysWOW64\migisol.?m_NetLocalGroupAddMembers@CIlNt4Netapi32@@0P6GKPBG0KPAEK@ZA
  ?m_NetLocalGroupEnum@CIlNt4Netapi32@@0P6GKPBGKPAPAEKPAK22@ZA=C:\Windows\SysWOW64\migisol.?m_NetLocalGroupEnum@CIlNt4Netapi32@@0P6GKPBGKPAPAEKPAK22@ZA
  ?m_NetUserAdd@CIlNt4Netapi32@@0P6GKPBGKPAEPAK@ZA=C:\Windows\SysWOW64\migisol.?m_NetUserAdd@CIlNt4Netapi32@@0P6GKPBGKPAEPAK@ZA
  ?m_NetUserDel@CIlNt4Netapi32@@0P6GKPBG0@ZA=C:\Windows\SysWOW64\migisol.?m_NetUserDel@CIlNt4Netapi32@@0P6GKPBG0@ZA
  ?m_NetUserEnum@CIlNt4Netapi32@@0P6GKPBGKKPAPAEKPAK22@ZA=C:\Windows\SysWOW64\migisol.?m_NetUserEnum@CIlNt4Netapi32@@0P6GKPBGKKPAPAEKPAK22@ZA
  ?m_NetUserGetLocalGroups@CIlNt4Netapi32@@0P6GKPBG0KKPAPAEKPAK2@ZA=C:\Windows\SysWOW64\migisol.?m_NetUserGetLocalGroups@CIlNt4Netapi32@@0P6GKPBG0KKPAPAEKPAK2@ZA
  ?m_NetWkstaGetInfo@CIlNt4Netapi32@@0P6GKPAGKPAPAE@ZA=C:\Windows\SysWOW64\migisol.?m_NetWkstaGetInfo@CIlNt4Netapi32@@0P6GKPAGKPAPAE@ZA
  ?m_OpenSCManagerW@CIlNt4Advapi32@@0P6GPAUSC_HANDLE__@@PBG0K@ZA=C:\Windows\SysWOW64\migisol.?m_OpenSCManagerW@CIlNt4Advapi32@@0P6GPAUSC_HANDLE__@@PBG0K@ZA
  ?m_OpenServiceW@CIlNt4Advapi32@@0P6GPAUSC_HANDLE__@@PAU2@PBGK@ZA=C:\Windows\SysWOW64\migisol.?m_OpenServiceW@CIlNt4Advapi32@@0P6GPAUSC_HANDLE__@@PAU2@PBGK@ZA
  ?m_Process32FirstW@CIlNt4Kernel32@@0P6GHPAXPAUtagPROCESSENTRY32W@@@ZA=C:\Windows\SysWOW64\migisol.?m_Process32FirstW@CIlNt4Kernel32@@0P6GHPAXPAUtagPROCESSENTRY32W@@@ZA
  ?m_Process32NextW@CIlNt4Kernel32@@0P6GHPAXPAUtagPROCESSENTRY32W@@@ZA=C:\Windows\SysWOW64\migisol.?m_Process32NextW@CIlNt4Kernel32@@0P6GHPAXPAUtagPROCESSENTRY32W@@@ZA
  ?m_QueryServiceConfigW@CIlNt4Advapi32@@0P6GHPAUSC_HANDLE__@@PAU_QUERY_SERVICE_CONFIGW@@KPAK@ZA=C:\Windows\SysWOW64\migisol.?m_QueryServiceConfigW@CIlNt4Advapi32@@0P6GHPAUSC_HANDLE__@@PAU_QUERY_SERVICE_CONFIGW@@KPAK@ZA
  ?m_RefCountChangeServiceConfigW@CIlNt4Advapi32@@0KA=C:\Windows\SysWOW64\migisol.?m_RefCountChangeServiceConfigW@CIlNt4Advapi32@@0KA
  ?m_RefCountCloseServiceHandle@CIlNt4Advapi32@@0KA=C:\Windows\SysWOW64\migisol.?m_RefCountCloseServiceHandle@CIlNt4Advapi32@@0KA
  ?m_RefCountConvertSecurityDescriptorToStringSecurityDescriptorW@CIlNt4Advapi32@@0KA=C:\Windows\SysWOW64\migisol.?m_RefCountConvertSecurityDescriptorToStringSecurityDescriptorW@CIlNt4Advapi32@@0KA
  ?m_RefCountConvertSidToStringSidW@CIlNt4Advapi32@@0KA=C:\Windows\SysWOW64\migisol.?m_RefCountConvertSidToStringSidW@CIlNt4Advapi32@@0KA
  ?m_RefCountConvertStringSecurityDescriptorToSecurityDescriptorW@CIlNt4Advapi32@@0KA=C:\Windows\SysWOW64\migisol.?m_RefCountConvertStringSecurityDescriptorToSecurityDescriptorW@CIlNt4Advapi32@@0KA
  ?m_RefCountConvertStringSidToSidW@CIlNt4Advapi32@@0KA=C:\Windows\SysWOW64\migisol.?m_RefCountConvertStringSidToSidW@CIlNt4Advapi32@@0KA
  ?m_RefCountCreateProfile@CIlNt6Userenv@@0KA=C:\Windows\SysWOW64\migisol.?m_RefCountCreateProfile@CIlNt6Userenv@@0KA
  ?m_RefCountCreateServiceW@CIlNt4Advapi32@@0KA=C:\Windows\SysWOW64\migisol.?m_RefCountCreateServiceW@CIlNt4Advapi32@@0KA
  ?m_RefCountCreateToolhelp32Snapshot@CIlNt4Kernel32@@0KA=C:\Windows\SysWOW64\migisol.?m_RefCountCreateToolhelp32Snapshot@CIlNt4Kernel32@@0KA
  ?m_RefCountCreateUserProfileExW@CIlNt4Userenv@@0KA=C:\Windows\SysWOW64\migisol.?m_RefCountCreateUserProfileExW@CIlNt4Userenv@@0KA
  ?m_RefCountCreateWellKnownSid@CIlNt4Advapi32@@0KA=C:\Windows\SysWOW64\migisol.?m_RefCountCreateWellKnownSid@CIlNt4Advapi32@@0KA
  ?m_RefCountEncryptFileW@CIlNt4Advapi32@@0KA=C:\Windows\SysWOW64\migisol.?m_RefCountEncryptFileW@CIlNt4Advapi32@@0KA
  ?m_RefCountEnumServicesStatusExW@CIlNt4Advapi32@@0KA=C:\Windows\SysWOW64\migisol.?m_RefCountEnumServicesStatusExW@CIlNt4Advapi32@@0KA
  ?m_RefCountGetSystemWindowsDirectoryW@CIlNt4Kernel32@@0KA=C:\Windows\SysWOW64\migisol.?m_RefCountGetSystemWindowsDirectoryW@CIlNt4Kernel32@@0KA
  ?m_RefCountGlobalMemoryStatusEx@CIlNt4Kernel32@@0KA=C:\Windows\SysWOW64\migisol.?m_RefCountGlobalMemoryStatusEx@CIlNt4Kernel32@@0KA
  ?m_RefCountInitiateSystemShutdownExW@CIlNt4Advapi32@@0KA=C:\Windows\SysWOW64\migisol.?m_RefCountInitiateSystemShutdownExW@CIlNt4Advapi32@@0KA
  ?m_RefCountLockServiceDatabase@CIlNt4Advapi32@@0KA=C:\Windows\SysWOW64\migisol.?m_RefCountLockServiceDatabase@CIlNt4Advapi32@@0KA
  ?m_RefCountLockSetForegroundWindow@CIlNt4User32@@0KA=C:\Windows\SysWOW64\migisol.?m_RefCountLockSetForegroundWindow@CIlNt4User32@@0KA
  ?m_RefCountNetApiBufferFree@CIlNt4Netapi32@@0KA=C:\Windows\SysWOW64\migisol.?m_RefCountNetApiBufferFree@CIlNt4Netapi32@@0KA
  ?m_RefCountNetLocalGroupAdd@CIlNt4Netapi32@@0KA=C:\Windows\SysWOW64\migisol.?m_RefCountNetLocalGroupAdd@CIlNt4Netapi32@@0KA
  ?m_RefCountNetLocalGroupAddMembers@CIlNt4Netapi32@@0KA=C:\Windows\SysWOW64\migisol.?m_RefCountNetLocalGroupAddMembers@CIlNt4Netapi32@@0KA
  ?m_RefCountNetLocalGroupEnum@CIlNt4Netapi32@@0KA=C:\Windows\SysWOW64\migisol.?m_RefCountNetLocalGroupEnum@CIlNt4Netapi32@@0KA
  ?m_RefCountNetUserAdd@CIlNt4Netapi32@@0KA=C:\Windows\SysWOW64\migisol.?m_RefCountNetUserAdd@CIlNt4Netapi32@@0KA
  ?m_RefCountNetUserDel@CIlNt4Netapi32@@0KA=C:\Windows\SysWOW64\migisol.?m_RefCountNetUserDel@CIlNt4Netapi32@@0KA
  ?m_RefCountNetUserEnum@CIlNt4Netapi32@@0KA=C:\Windows\SysWOW64\migisol.?m_RefCountNetUserEnum@CIlNt4Netapi32@@0KA
  ?m_RefCountNetUserGetLocalGroups@CIlNt4Netapi32@@0KA=C:\Windows\SysWOW64\migisol.?m_RefCountNetUserGetLocalGroups@CIlNt4Netapi32@@0KA
  ?m_RefCountNetWkstaGetInfo@CIlNt4Netapi32@@0KA=C:\Windows\SysWOW64\migisol.?m_RefCountNetWkstaGetInfo@CIlNt4Netapi32@@0KA
  ?m_RefCountOpenSCManagerW@CIlNt4Advapi32@@0KA=C:\Windows\SysWOW64\migisol.?m_RefCountOpenSCManagerW@CIlNt4Advapi32@@0KA
  ?m_RefCountOpenServiceW@CIlNt4Advapi32@@0KA=C:\Windows\SysWOW64\migisol.?m_RefCountOpenServiceW@CIlNt4Advapi32@@0KA
  ?m_RefCountProcess32FirstW@CIlNt4Kernel32@@0KA=C:\Windows\SysWOW64\migisol.?m_RefCountProcess32FirstW@CIlNt4Kernel32@@0KA
  ?m_RefCountProcess32NextW@CIlNt4Kernel32@@0KA=C:\Windows\SysWOW64\migisol.?m_RefCountProcess32NextW@CIlNt4Kernel32@@0KA
  ?m_RefCountQueryServiceConfigW@CIlNt4Advapi32@@0KA=C:\Windows\SysWOW64\migisol.?m_RefCountQueryServiceConfigW@CIlNt4Advapi32@@0KA
  ?m_RefCountRegisterWaitForSingleObject@CIlNt4Kernel32@@0KA=C:\Windows\SysWOW64\migisol.?m_RefCountRegisterWaitForSingleObject@CIlNt4Kernel32@@0KA
  ?m_RefCountSetupCloseFileQueue@CIlNt4Setupapi@@0KA=C:\Windows\SysWOW64\migisol.?m_RefCountSetupCloseFileQueue@CIlNt4Setupapi@@0KA
  ?m_RefCountSetupDiBuildDriverInfoList@CIlNt4Setupapi@@0KA=C:\Windows\SysWOW64\migisol.?m_RefCountSetupDiBuildDriverInfoList@CIlNt4Setupapi@@0KA
  ?m_RefCountSetupDiCallClassInstaller@CIlNt4Setupapi@@0KA=C:\Windows\SysWOW64\migisol.?m_RefCountSetupDiCallClassInstaller@CIlNt4Setupapi@@0KA
  ?m_RefCountSetupDiCreateDeviceInfoListExW@CIlNt4Setupapi@@0KA=C:\Windows\SysWOW64\migisol.?m_RefCountSetupDiCreateDeviceInfoListExW@CIlNt4Setupapi@@0KA
  ?m_RefCountSetupDiDestroyDeviceInfoList@CIlNt4Setupapi@@0KA=C:\Windows\SysWOW64\migisol.?m_RefCountSetupDiDestroyDeviceInfoList@CIlNt4Setupapi@@0KA
  ?m_RefCountSetupDiDestroyDriverInfoList@CIlNt4Setupapi@@0KA=C:\Windows\SysWOW64\migisol.?m_RefCountSetupDiDestroyDriverInfoList@CIlNt4Setupapi@@0KA
  ?m_RefCountSetupDiEnumDeviceInfo@CIlNt4Setupapi@@0KA=C:\Windows\SysWOW64\migisol.?m_RefCountSetupDiEnumDeviceInfo@CIlNt4Setupapi@@0KA
  ?m_RefCountSetupDiEnumDeviceInterfaces@CIlNt4Setupapi@@0KA=C:\Windows\SysWOW64\migisol.?m_RefCountSetupDiEnumDeviceInterfaces@CIlNt4Setupapi@@0KA
  ?m_RefCountSetupDiEnumDriverInfoW@CIlNt4Setupapi@@0KA=C:\Windows\SysWOW64\migisol.?m_RefCountSetupDiEnumDriverInfoW@CIlNt4Setupapi@@0KA
  ?m_RefCountSetupDiGetClassDevsExW@CIlNt4Setupapi@@0KA=C:\Windows\SysWOW64\migisol.?m_RefCountSetupDiGetClassDevsExW@CIlNt4Setupapi@@0KA
  ?m_RefCountSetupDiGetClassDevsW@CIlNt4Setupapi@@0KA=C:\Windows\SysWOW64\migisol.?m_RefCountSetupDiGetClassDevsW@CIlNt4Setupapi@@0KA
  ?m_RefCountSetupDiGetDeviceInstallParamsW@CIlNt4Setupapi@@0KA=C:\Windows\SysWOW64\migisol.?m_RefCountSetupDiGetDeviceInstallParamsW@CIlNt4Setupapi@@0KA
  ?m_RefCountSetupDiGetDeviceInterfaceDetailW@CIlNt4Setupapi@@0KA=C:\Windows\SysWOW64\migisol.?m_RefCountSetupDiGetDeviceInterfaceDetailW@CIlNt4Setupapi@@0KA
  ?m_RefCountSetupDiGetDeviceRegistryPropertyW@CIlNt4Setupapi@@0KA=C:\Windows\SysWOW64\migisol.?m_RefCountSetupDiGetDeviceRegistryPropertyW@CIlNt4Setupapi@@0KA
  ?m_RefCountSetupDiGetDriverInfoDetailW@CIlNt4Setupapi@@0KA=C:\Windows\SysWOW64\migisol.?m_RefCountSetupDiGetDriverInfoDetailW@CIlNt4Setupapi@@0KA
  ?m_RefCountSetupDiOpenDevRegKey@CIlNt4Setupapi@@0KA=C:\Windows\SysWOW64\migisol.?m_RefCountSetupDiOpenDevRegKey@CIlNt4Setupapi@@0KA
  ?m_RefCountSetupDiOpenDeviceInfoW@CIlNt4Setupapi@@0KA=C:\Windows\SysWOW64\migisol.?m_RefCountSetupDiOpenDeviceInfoW@CIlNt4Setupapi@@0KA
  ?m_RefCountSetupDiSetDeviceInstallParamsW@CIlNt4Setupapi@@0KA=C:\Windows\SysWOW64\migisol.?m_RefCountSetupDiSetDeviceInstallParamsW@CIlNt4Setupapi@@0KA
  ?m_RefCountSetupDiSetSelectedDriverW@CIlNt4Setupapi@@0KA=C:\Windows\SysWOW64\migisol.?m_RefCountSetupDiSetSelectedDriverW@CIlNt4Setupapi@@0KA
  ?m_RefCountSetupGetInfInformationW@CIlNt4Setupapi@@0KA=C:\Windows\SysWOW64\migisol.?m_RefCountSetupGetInfInformationW@CIlNt4Setupapi@@0KA
  ?m_RefCountSetupOpenFileQueue@CIlNt4Setupapi@@0KA=C:\Windows\SysWOW64\migisol.?m_RefCountSetupOpenFileQueue@CIlNt4Setupapi@@0KA
  ?m_RefCountSetupQueryInfOriginalFileInformationW@CIlNt4Setupapi@@0KA=C:\Windows\SysWOW64\migisol.?m_RefCountSetupQueryInfOriginalFileInformationW@CIlNt4Setupapi@@0KA
  ?m_RefCountSetupScanFileQueueW@CIlNt4Setupapi@@0KA=C:\Windows\SysWOW64\migisol.?m_RefCountSetupScanFileQueueW@CIlNt4Setupapi@@0KA
  ?m_RefCountStartServiceW@CIlNt4Advapi32@@0KA=C:\Windows\SysWOW64\migisol.?m_RefCountStartServiceW@CIlNt4Advapi32@@0KA
  ?m_RefCountUnlockServiceDatabase@CIlNt4Advapi32@@0KA=C:\Windows\SysWOW64\migisol.?m_RefCountUnlockServiceDatabase@CIlNt4Advapi32@@0KA
  ?m_RefCountfreeaddrinfo@CIlW2kDynWs2_32@@0KA=C:\Windows\SysWOW64\migisol.?m_RefCountfreeaddrinfo@CIlW2kDynWs2_32@@0KA
  ?m_RefCountgetaddrinfo@CIlW2kDynWs2_32@@0KA=C:\Windows\SysWOW64\migisol.?m_RefCountgetaddrinfo@CIlW2kDynWs2_32@@0KA
  ?m_RefCountgetnameinfo@CIlW2kDynWs2_32@@0KA=C:\Windows\SysWOW64\migisol.?m_RefCountgetnameinfo@CIlW2kDynWs2_32@@0KA
  ?m_RegisterWaitForSingleObject@CIlNt4Kernel32@@0P6GHPAPAXPAXP6GX1E@Z1KK@ZA=C:\Windows\SysWOW64\migisol.?m_RegisterWaitForSingleObject@CIlNt4Kernel32@@0P6GHPAPAXPAXP6GX1E@Z1KK@ZA
  ?m_SetupCloseFileQueue@CIlNt4Setupapi@@0P6GHPAX@ZA=C:\Windows\SysWOW64\migisol.?m_SetupCloseFileQueue@CIlNt4Setupapi@@0P6GHPAX@ZA
  ?m_SetupDiBuildDriverInfoList@CIlNt4Setupapi@@0P6GHPAXPAU_SP_DEVINFO_DATA@@K@ZA=C:\Windows\SysWOW64\migisol.?m_SetupDiBuildDriverInfoList@CIlNt4Setupapi@@0P6GHPAXPAU_SP_DEVINFO_DATA@@K@ZA
  ?m_SetupDiCallClassInstaller@CIlNt4Setupapi@@0P6GHIPAXPAU_SP_DEVINFO_DATA@@@ZA=C:\Windows\SysWOW64\migisol.?m_SetupDiCallClassInstaller@CIlNt4Setupapi@@0P6GHIPAXPAU_SP_DEVINFO_DATA@@@ZA
  ?m_SetupDiCreateDeviceInfoListExW@CIlNt4Setupapi@@0P6GPAXPBU_GUID@@PAUHWND__@@PBGPAX@ZA=C:\Windows\SysWOW64\migisol.?m_SetupDiCreateDeviceInfoListExW@CIlNt4Setupapi@@0P6GPAXPBU_GUID@@PAUHWND__@@PBGPAX@ZA
  ?m_SetupDiDestroyDeviceInfoList@CIlNt4Setupapi@@0P6GHPAX@ZA=C:\Windows\SysWOW64\migisol.?m_SetupDiDestroyDeviceInfoList@CIlNt4Setupapi@@0P6GHPAX@ZA
  ?m_SetupDiDestroyDriverInfoList@CIlNt4Setupapi@@0P6GHPAXPAU_SP_DEVINFO_DATA@@K@ZA=C:\Windows\SysWOW64\migisol.?m_SetupDiDestroyDriverInfoList@CIlNt4Setupapi@@0P6GHPAXPAU_SP_DEVINFO_DATA@@K@ZA
  ?m_SetupDiEnumDeviceInfo@CIlNt4Setupapi@@0P6GHPAXKPAU_SP_DEVINFO_DATA@@@ZA=C:\Windows\SysWOW64\migisol.?m_SetupDiEnumDeviceInfo@CIlNt4Setupapi@@0P6GHPAXKPAU_SP_DEVINFO_DATA@@@ZA
  ?m_SetupDiEnumDeviceInterfaces@CIlNt4Setupapi@@0P6GHPAXPAU_SP_DEVINFO_DATA@@PBU_GUID@@KPAU_SP_DEVICE_INTERFACE_DATA@@@ZA=C:\Windows\SysWOW64\migisol.?m_SetupDiEnumDeviceInterfaces@CIlNt4Setupapi@@0P6GHPAXPAU_SP_DEVINFO_DATA@@PBU_GUID@@KPAU_SP_DEVICE_INTERFACE_DATA@@@ZA
  ?m_SetupDiEnumDriverInfoW@CIlNt4Setupapi@@0P6GHPAXPAU_SP_DEVINFO_DATA@@KKPAU_SP_DRVINFO_DATA_V2_W@@@ZA=C:\Windows\SysWOW64\migisol.?m_SetupDiEnumDriverInfoW@CIlNt4Setupapi@@0P6GHPAXPAU_SP_DEVINFO_DATA@@KKPAU_SP_DRVINFO_DATA_V2_W@@@ZA
  ?m_SetupDiGetClassDevsExW@CIlNt4Setupapi@@0P6GPAXPBU_GUID@@PBGPAUHWND__@@KPAX13@ZA=C:\Windows\SysWOW64\migisol.?m_SetupDiGetClassDevsExW@CIlNt4Setupapi@@0P6GPAXPBU_GUID@@PBGPAUHWND__@@KPAX13@ZA
  ?m_SetupDiGetClassDevsW@CIlNt4Setupapi@@0P6GPAXPBU_GUID@@PBGPAUHWND__@@K@ZA=C:\Windows\SysWOW64\migisol.?m_SetupDiGetClassDevsW@CIlNt4Setupapi@@0P6GPAXPBU_GUID@@PBGPAUHWND__@@K@ZA
  ?m_SetupDiGetDeviceInstallParamsW@CIlNt4Setupapi@@0P6GHPAXPAU_SP_DEVINFO_DATA@@PAU_SP_DEVINSTALL_PARAMS_W@@@ZA=C:\Windows\SysWOW64\migisol.?m_SetupDiGetDeviceInstallParamsW@CIlNt4Setupapi@@0P6GHPAXPAU_SP_DEVINFO_DATA@@PAU_SP_DEVINSTALL_PARAMS_W@@@ZA
  ?m_SetupDiGetDeviceInterfaceDetailW@CIlNt4Setupapi@@0P6GHPAXPAU_SP_DEVICE_INTERFACE_DATA@@PAU_SP_DEVICE_INTERFACE_DETAIL_DATA_W@@KPAKPAU_SP_DEVINFO_DATA@@@ZA=C:\Windows\SysWOW64\migisol.?m_SetupDiGetDeviceInterfaceDetailW@CIlNt4Setupapi@@0P6GHPAXPAU_SP_DEVICE_INTERFACE_DATA@@PAU_SP_DEVICE_INTERFACE_DETAIL_DATA_W@@KPAKPAU_SP_DEVINFO_DATA@@@ZA
  ?m_SetupDiGetDeviceRegistryPropertyW@CIlNt4Setupapi@@0P6GHPAXPAU_SP_DEVINFO_DATA@@KPAKPAEK2@ZA=C:\Windows\SysWOW64\migisol.?m_SetupDiGetDeviceRegistryPropertyW@CIlNt4Setupapi@@0P6GHPAXPAU_SP_DEVINFO_DATA@@KPAKPAEK2@ZA
  ?m_SetupDiGetDriverInfoDetailW@CIlNt4Setupapi@@0P6GHPAXPAU_SP_DEVINFO_DATA@@PAU_SP_DRVINFO_DATA_V2_W@@PAU_SP_DRVINFO_DETAIL_DATA_W@@KPAK@ZA=C:\Windows\SysWOW64\migisol.?m_SetupDiGetDriverInfoDetailW@CIlNt4Setupapi@@0P6GHPAXPAU_SP_DEVINFO_DATA@@PAU_SP_DRVINFO_DATA_V2_W@@PAU_SP_DRVINFO_DETAIL_DATA_W@@KPAK@ZA
  ?m_SetupDiOpenDevRegKey@CIlNt4Setupapi@@0P6GPAUHKEY__@@PAXPAU_SP_DEVINFO_DATA@@KKKK@ZA=C:\Windows\SysWOW64\migisol.?m_SetupDiOpenDevRegKey@CIlNt4Setupapi@@0P6GPAUHKEY__@@PAXPAU_SP_DEVINFO_DATA@@KKKK@ZA
  ?m_SetupDiOpenDeviceInfoW@CIlNt4Setupapi@@0P6GHPAXPBGPAUHWND__@@KPAU_SP_DEVINFO_DATA@@@ZA=C:\Windows\SysWOW64\migisol.?m_SetupDiOpenDeviceInfoW@CIlNt4Setupapi@@0P6GHPAXPBGPAUHWND__@@KPAU_SP_DEVINFO_DATA@@@ZA
  ?m_SetupDiSetDeviceInstallParamsW@CIlNt4Setupapi@@0P6GHPAXPAU_SP_DEVINFO_DATA@@PAU_SP_DEVINSTALL_PARAMS_W@@@ZA=C:\Windows\SysWOW64\migisol.?m_SetupDiSetDeviceInstallParamsW@CIlNt4Setupapi@@0P6GHPAXPAU_SP_DEVINFO_DATA@@PAU_SP_DEVINSTALL_PARAMS_W@@@ZA
  ?m_SetupDiSetSelectedDriverW@CIlNt4Setupapi@@0P6GHPAXPAU_SP_DEVINFO_DATA@@PAU_SP_DRVINFO_DATA_V2_W@@@ZA=C:\Windows\SysWOW64\migisol.?m_SetupDiSetSelectedDriverW@CIlNt4Setupapi@@0P6GHPAXPAU_SP_DEVINFO_DATA@@PAU_SP_DRVINFO_DATA_V2_W@@@ZA
  ?m_SetupGetInfInformationW@CIlNt4Setupapi@@0P6GHPBXKPAU_SP_INF_INFORMATION@@KPAK@ZA=C:\Windows\SysWOW64\migisol.?m_SetupGetInfInformationW@CIlNt4Setupapi@@0P6GHPBXKPAU_SP_INF_INFORMATION@@KPAK@ZA
  ?m_SetupOpenFileQueue@CIlNt4Setupapi@@0P6GPAXXZA=C:\Windows\SysWOW64\migisol.?m_SetupOpenFileQueue@CIlNt4Setupapi@@0P6GPAXXZA
  ?m_SetupQueryInfOriginalFileInformationW@CIlNt4Setupapi@@0P6GHPAU_SP_INF_INFORMATION@@IPAU_SP_ALTPLATFORM_INFO_V2@@PAU_SP_ORIGINAL_FILE_INFO_W@@@ZA=C:\Windows\SysWOW64\migisol.?m_SetupQueryInfOriginalFileInformationW@CIlNt4Setupapi@@0P6GHPAU_SP_INF_INFORMATION@@IPAU_SP_ALTPLATFORM_INFO_V2@@PAU_SP_ORIGINAL_FILE_INFO_W@@@ZA
  ?m_SetupScanFileQueueW@CIlNt4Setupapi@@0P6GHPAXKPAUHWND__@@P6GI0III@Z0PAK@ZA=C:\Windows\SysWOW64\migisol.?m_SetupScanFileQueueW@CIlNt4Setupapi@@0P6GHPAXKPAUHWND__@@P6GI0III@Z0PAK@ZA
  ?m_StartServiceW@CIlNt4Advapi32@@0P6GHPAUSC_HANDLE__@@KPAPBG@ZA=C:\Windows\SysWOW64\migisol.?m_StartServiceW@CIlNt4Advapi32@@0P6GHPAUSC_HANDLE__@@KPAPBG@ZA
  ?m_UnlockServiceDatabase@CIlNt4Advapi32@@0P6GHPAX@ZA=C:\Windows\SysWOW64\migisol.?m_UnlockServiceDatabase@CIlNt4Advapi32@@0P6GHPAX@ZA
  ?m_freeaddrinfo@CIlW2kDynWs2_32@@0P6GXPAUaddrinfo@@@ZA=C:\Windows\SysWOW64\migisol.?m_freeaddrinfo@CIlW2kDynWs2_32@@0P6GXPAUaddrinfo@@@ZA
  ?m_getaddrinfo@CIlW2kDynWs2_32@@0P6GHPBD0PBUaddrinfo@@PAPAU2@@ZA=C:\Windows\SysWOW64\migisol.?m_getaddrinfo@CIlW2kDynWs2_32@@0P6GHPBD0PBUaddrinfo@@PAPAU2@@ZA
  ?m_getnameinfo@CIlW2kDynWs2_32@@0P6GHPBUsockaddr@@HPADK1KH@ZA=C:\Windows\SysWOW64\migisol.?m_getnameinfo@CIlW2kDynWs2_32@@0P6GHPBUsockaddr@@HPADK1KH@ZA
  ?recv@CIlWs2_32@@UAEHIPADHH@Z=C:\Windows\SysWOW64\migisol.?recv@CIlWs2_32@@UAEHIPADHH@Z
  ?recvfrom@CIlWs2_32@@UAEHIPADHHPAUsockaddr@@PAH@Z=C:\Windows\SysWOW64\migisol.?recvfrom@CIlWs2_32@@UAEHIPADHHPAUsockaddr@@PAH@Z
  ?release_ChangeServiceConfigW@CIlNt4Advapi32@@QAEXXZ=C:\Windows\SysWOW64\migisol.?release_ChangeServiceConfigW@CIlNt4Advapi32@@QAEXXZ
  ?release_CloseServiceHandle@CIlNt4Advapi32@@QAEXXZ=C:\Windows\SysWOW64\migisol.?release_CloseServiceHandle@CIlNt4Advapi32@@QAEXXZ
  ?release_ConvertSecurityDescriptorToStringSecurityDescriptorW@CIlNt4Advapi32@@QAEXXZ=C:\Windows\SysWOW64\migisol.?release_ConvertSecurityDescriptorToStringSecurityDescriptorW@CIlNt4Advapi32@@QAEXXZ
  ?release_ConvertSidToStringSidW@CIlNt4Advapi32@@QAEXXZ=C:\Windows\SysWOW64\migisol.?release_ConvertSidToStringSidW@CIlNt4Advapi32@@QAEXXZ
  ?release_ConvertStringSecurityDescriptorToSecurityDescriptorW@CIlNt4Advapi32@@QAEXXZ=C:\Windows\SysWOW64\migisol.?release_ConvertStringSecurityDescriptorToSecurityDescriptorW@CIlNt4Advapi32@@QAEXXZ
  ?release_ConvertStringSidToSidW@CIlNt4Advapi32@@QAEXXZ=C:\Windows\SysWOW64\migisol.?release_ConvertStringSidToSidW@CIlNt4Advapi32@@QAEXXZ
  ?release_CreateProfile@CIlNt6Userenv@@QAEXXZ=C:\Windows\SysWOW64\migisol.?release_CreateProfile@CIlNt6Userenv@@QAEXXZ
  ?release_CreateServiceW@CIlNt4Advapi32@@QAEXXZ=C:\Windows\SysWOW64\migisol.?release_CreateServiceW@CIlNt4Advapi32@@QAEXXZ
  ?release_CreateToolhelp32Snapshot@CIlNt4Kernel32@@QAEXXZ=C:\Windows\SysWOW64\migisol.?release_CreateToolhelp32Snapshot@CIlNt4Kernel32@@QAEXXZ
  ?release_CreateUserProfileExW@CIlNt4Userenv@@QAEXXZ=C:\Windows\SysWOW64\migisol.?release_CreateUserProfileExW@CIlNt4Userenv@@QAEXXZ
  ?release_CreateWellKnownSid@CIlNt4Advapi32@@QAEXXZ=C:\Windows\SysWOW64\migisol.?release_CreateWellKnownSid@CIlNt4Advapi32@@QAEXXZ
  ?release_EncryptFileW@CIlNt4Advapi32@@QAEXXZ=C:\Windows\SysWOW64\migisol.?release_EncryptFileW@CIlNt4Advapi32@@QAEXXZ
  ?release_EnumServicesStatusExW@CIlNt4Advapi32@@QAEXXZ=C:\Windows\SysWOW64\migisol.?release_EnumServicesStatusExW@CIlNt4Advapi32@@QAEXXZ
  ?release_GetSystemWindowsDirectoryW@CIlNt4Kernel32@@QAEXXZ=C:\Windows\SysWOW64\migisol.?release_GetSystemWindowsDirectoryW@CIlNt4Kernel32@@QAEXXZ
  ?release_GlobalMemoryStatusEx@CIlNt4Kernel32@@QAEXXZ=C:\Windows\SysWOW64\migisol.?release_GlobalMemoryStatusEx@CIlNt4Kernel32@@QAEXXZ
  ?release_InitiateSystemShutdownExW@CIlNt4Advapi32@@QAEXXZ=C:\Windows\SysWOW64\migisol.?release_InitiateSystemShutdownExW@CIlNt4Advapi32@@QAEXXZ
  ?release_LockServiceDatabase@CIlNt4Advapi32@@QAEXXZ=C:\Windows\SysWOW64\migisol.?release_LockServiceDatabase@CIlNt4Advapi32@@QAEXXZ
  ?release_LockSetForegroundWindow@CIlNt4User32@@QAEXXZ=C:\Windows\SysWOW64\migisol.?release_LockSetForegroundWindow@CIlNt4User32@@QAEXXZ
  ?release_NetApiBufferFree@CIlNt4Netapi32@@QAEXXZ=C:\Windows\SysWOW64\migisol.?release_NetApiBufferFree@CIlNt4Netapi32@@QAEXXZ
  ?release_NetLocalGroupAdd@CIlNt4Netapi32@@QAEXXZ=C:\Windows\SysWOW64\migisol.?release_NetLocalGroupAdd@CIlNt4Netapi32@@QAEXXZ
  ?release_NetLocalGroupAddMembers@CIlNt4Netapi32@@QAEXXZ=C:\Windows\SysWOW64\migisol.?release_NetLocalGroupAddMembers@CIlNt4Netapi32@@QAEXXZ
  ?release_NetLocalGroupEnum@CIlNt4Netapi32@@QAEXXZ=C:\Windows\SysWOW64\migisol.?release_NetLocalGroupEnum@CIlNt4Netapi32@@QAEXXZ
  ?release_NetUserAdd@CIlNt4Netapi32@@QAEXXZ=C:\Windows\SysWOW64\migisol.?release_NetUserAdd@CIlNt4Netapi32@@QAEXXZ
  ?release_NetUserDel@CIlNt4Netapi32@@QAEXXZ=C:\Windows\SysWOW64\migisol.?release_NetUserDel@CIlNt4Netapi32@@QAEXXZ
  ?release_NetUserEnum@CIlNt4Netapi32@@QAEXXZ=C:\Windows\SysWOW64\migisol.?release_NetUserEnum@CIlNt4Netapi32@@QAEXXZ
  ?release_NetUserGetLocalGroups@CIlNt4Netapi32@@QAEXXZ=C:\Windows\SysWOW64\migisol.?release_NetUserGetLocalGroups@CIlNt4Netapi32@@QAEXXZ
  ?release_NetWkstaGetInfo@CIlNt4Netapi32@@QAEXXZ=C:\Windows\SysWOW64\migisol.?release_NetWkstaGetInfo@CIlNt4Netapi32@@QAEXXZ
  ?release_OpenSCManagerW@CIlNt4Advapi32@@QAEXXZ=C:\Windows\SysWOW64\migisol.?release_OpenSCManagerW@CIlNt4Advapi32@@QAEXXZ
  ?release_OpenServiceW@CIlNt4Advapi32@@QAEXXZ=C:\Windows\SysWOW64\migisol.?release_OpenServiceW@CIlNt4Advapi32@@QAEXXZ
  ?release_Process32FirstW@CIlNt4Kernel32@@QAEXXZ=C:\Windows\SysWOW64\migisol.?release_Process32FirstW@CIlNt4Kernel32@@QAEXXZ
  ?release_Process32NextW@CIlNt4Kernel32@@QAEXXZ=C:\Windows\SysWOW64\migisol.?release_Process32NextW@CIlNt4Kernel32@@QAEXXZ
  ?release_QueryServiceConfigW@CIlNt4Advapi32@@QAEXXZ=C:\Windows\SysWOW64\migisol.?release_QueryServiceConfigW@CIlNt4Advapi32@@QAEXXZ
  ?release_RegisterWaitForSingleObject@CIlNt4Kernel32@@QAEXXZ=C:\Windows\SysWOW64\migisol.?release_RegisterWaitForSingleObject@CIlNt4Kernel32@@QAEXXZ
  ?release_SetupCloseFileQueue@CIlNt4Setupapi@@QAEXXZ=C:\Windows\SysWOW64\migisol.?release_SetupCloseFileQueue@CIlNt4Setupapi@@QAEXXZ
  ?release_SetupDiBuildDriverInfoList@CIlNt4Setupapi@@QAEXXZ=C:\Windows\SysWOW64\migisol.?release_SetupDiBuildDriverInfoList@CIlNt4Setupapi@@QAEXXZ
  ?release_SetupDiCallClassInstaller@CIlNt4Setupapi@@QAEXXZ=C:\Windows\SysWOW64\migisol.?release_SetupDiCallClassInstaller@CIlNt4Setupapi@@QAEXXZ
  ?release_SetupDiCreateDeviceInfoListExW@CIlNt4Setupapi@@QAEXXZ=C:\Windows\SysWOW64\migisol.?release_SetupDiCreateDeviceInfoListExW@CIlNt4Setupapi@@QAEXXZ
  ?release_SetupDiDestroyDeviceInfoList@CIlNt4Setupapi@@QAEXXZ=C:\Windows\SysWOW64\migisol.?release_SetupDiDestroyDeviceInfoList@CIlNt4Setupapi@@QAEXXZ
  ?release_SetupDiDestroyDriverInfoList@CIlNt4Setupapi@@QAEXXZ=C:\Windows\SysWOW64\migisol.?release_SetupDiDestroyDriverInfoList@CIlNt4Setupapi@@QAEXXZ
  ?release_SetupDiEnumDeviceInfo@CIlNt4Setupapi@@QAEXXZ=C:\Windows\SysWOW64\migisol.?release_SetupDiEnumDeviceInfo@CIlNt4Setupapi@@QAEXXZ
  ?release_SetupDiEnumDeviceInterfaces@CIlNt4Setupapi@@QAEXXZ=C:\Windows\SysWOW64\migisol.?release_SetupDiEnumDeviceInterfaces@CIlNt4Setupapi@@QAEXXZ
  ?release_SetupDiEnumDriverInfoW@CIlNt4Setupapi@@QAEXXZ=C:\Windows\SysWOW64\migisol.?release_SetupDiEnumDriverInfoW@CIlNt4Setupapi@@QAEXXZ
  ?release_SetupDiGetClassDevsExW@CIlNt4Setupapi@@QAEXXZ=C:\Windows\SysWOW64\migisol.?release_SetupDiGetClassDevsExW@CIlNt4Setupapi@@QAEXXZ
  ?release_SetupDiGetClassDevsW@CIlNt4Setupapi@@QAEXXZ=C:\Windows\SysWOW64\migisol.?release_SetupDiGetClassDevsW@CIlNt4Setupapi@@QAEXXZ
  ?release_SetupDiGetDeviceInstallParamsW@CIlNt4Setupapi@@QAEXXZ=C:\Windows\SysWOW64\migisol.?release_SetupDiGetDeviceInstallParamsW@CIlNt4Setupapi@@QAEXXZ
  ?release_SetupDiGetDeviceInterfaceDetailW@CIlNt4Setupapi@@QAEXXZ=C:\Windows\SysWOW64\migisol.?release_SetupDiGetDeviceInterfaceDetailW@CIlNt4Setupapi@@QAEXXZ
  ?release_SetupDiGetDeviceRegistryPropertyW@CIlNt4Setupapi@@QAEXXZ=C:\Windows\SysWOW64\migisol.?release_SetupDiGetDeviceRegistryPropertyW@CIlNt4Setupapi@@QAEXXZ
  ?release_SetupDiGetDriverInfoDetailW@CIlNt4Setupapi@@QAEXXZ=C:\Windows\SysWOW64\migisol.?release_SetupDiGetDriverInfoDetailW@CIlNt4Setupapi@@QAEXXZ
  ?release_SetupDiOpenDevRegKey@CIlNt4Setupapi@@QAEXXZ=C:\Windows\SysWOW64\migisol.?release_SetupDiOpenDevRegKey@CIlNt4Setupapi@@QAEXXZ
  ?release_SetupDiOpenDeviceInfoW@CIlNt4Setupapi@@QAEXXZ=C:\Windows\SysWOW64\migisol.?release_SetupDiOpenDeviceInfoW@CIlNt4Setupapi@@QAEXXZ
  ?release_SetupDiSetDeviceInstallParamsW@CIlNt4Setupapi@@QAEXXZ=C:\Windows\SysWOW64\migisol.?release_SetupDiSetDeviceInstallParamsW@CIlNt4Setupapi@@QAEXXZ
  ?release_SetupDiSetSelectedDriverW@CIlNt4Setupapi@@QAEXXZ=C:\Windows\SysWOW64\migisol.?release_SetupDiSetSelectedDriverW@CIlNt4Setupapi@@QAEXXZ
  ?release_SetupGetInfInformationW@CIlNt4Setupapi@@QAEXXZ=C:\Windows\SysWOW64\migisol.?release_SetupGetInfInformationW@CIlNt4Setupapi@@QAEXXZ
  ?release_SetupOpenFileQueue@CIlNt4Setupapi@@QAEXXZ=C:\Windows\SysWOW64\migisol.?release_SetupOpenFileQueue@CIlNt4Setupapi@@QAEXXZ
  ?release_SetupQueryInfOriginalFileInformationW@CIlNt4Setupapi@@QAEXXZ=C:\Windows\SysWOW64\migisol.?release_SetupQueryInfOriginalFileInformationW@CIlNt4Setupapi@@QAEXXZ
  ?release_SetupScanFileQueueW@CIlNt4Setupapi@@QAEXXZ=C:\Windows\SysWOW64\migisol.?release_SetupScanFileQueueW@CIlNt4Setupapi@@QAEXXZ
  ?release_StartServiceW@CIlNt4Advapi32@@QAEXXZ=C:\Windows\SysWOW64\migisol.?release_StartServiceW@CIlNt4Advapi32@@QAEXXZ
  ?release_UnlockServiceDatabase@CIlNt4Advapi32@@QAEXXZ=C:\Windows\SysWOW64\migisol.?release_UnlockServiceDatabase@CIlNt4Advapi32@@QAEXXZ
  ?release_freeaddrinfo@CIlW2kDynWs2_32@@UAEXXZ=C:\Windows\SysWOW64\migisol.?release_freeaddrinfo@CIlW2kDynWs2_32@@UAEXXZ
  ?release_getaddrinfo@CIlW2kDynWs2_32@@UAEXXZ=C:\Windows\SysWOW64\migisol.?release_getaddrinfo@CIlW2kDynWs2_32@@UAEXXZ
  ?release_getnameinfo@CIlW2kDynWs2_32@@UAEXXZ=C:\Windows\SysWOW64\migisol.?release_getnameinfo@CIlW2kDynWs2_32@@UAEXXZ
  ?select@CIlWs2_32@@UAEHHPAUfd_set@@00PBUtimeval@@@Z=C:\Windows\SysWOW64\migisol.?select@CIlWs2_32@@UAEHHPAUfd_set@@00PBUtimeval@@@Z
  ?send@CIlWs2_32@@UAEHIPBDHH@Z=C:\Windows\SysWOW64\migisol.?send@CIlWs2_32@@UAEHIPBDHH@Z
  ?sendto@CIlWs2_32@@UAEHIPBDHHPBUsockaddr@@H@Z=C:\Windows\SysWOW64\migisol.?sendto@CIlWs2_32@@UAEHIPBDHHPBUsockaddr@@H@Z
  ?setsockopt@CIlWs2_32@@UAEHIHHPBDH@Z=C:\Windows\SysWOW64\migisol.?setsockopt@CIlWs2_32@@UAEHIHHPBDH@Z
  ?shutdown@CIlWs2_32@@UAEHIH@Z=C:\Windows\SysWOW64\migisol.?shutdown@CIlWs2_32@@UAEHIH@Z
  ?socket@CIlWs2_32@@UAEIHHH@Z=C:\Windows\SysWOW64\migisol.?socket@CIlWs2_32@@UAEIHHH@Z
