EXPORTS
  ??0?$CEventLock@UAppEvents@@@@QAE@XZ=C:\Windows\SysWOW64\mmcbase.??0?$CEventLock@UAppEvents@@@@QAE@XZ
  ??0CEventBuffer@@QAE@ABV0@@Z=C:\Windows\SysWOW64\mmcbase.??0CEventBuffer@@QAE@ABV0@@Z
  ??0CEventBuffer@@QAE@XZ=C:\Windows\SysWOW64\mmcbase.??0CEventBuffer@@QAE@XZ
  ??0CMMCStrongReferences@@AAE@XZ=C:\Windows\SysWOW64\mmcbase.??0CMMCStrongReferences@@AAE@XZ
  ??0SC@mmcerror@@QAE@ABV01@@Z=C:\Windows\SysWOW64\mmcbase.??0SC@mmcerror@@QAE@ABV01@@Z
  ??0SC@mmcerror@@QAE@J@Z=C:\Windows\SysWOW64\mmcbase.??0SC@mmcerror@@QAE@J@Z
  ??1?$CEventLock@UAppEvents@@@@QAE@XZ=C:\Windows\SysWOW64\mmcbase.??1?$CEventLock@UAppEvents@@@@QAE@XZ
  ??1CEventBuffer@@QAE@XZ=C:\Windows\SysWOW64\mmcbase.??1CEventBuffer@@QAE@XZ
  ??1SC@mmcerror@@QAE@XZ=C:\Windows\SysWOW64\mmcbase.??1SC@mmcerror@@QAE@XZ
  ??4?$CEventLock@UAppEvents@@@@QAEAAV0@ABV0@@Z=C:\Windows\SysWOW64\mmcbase.??4?$CEventLock@UAppEvents@@@@QAEAAV0@ABV0@@Z
  ??4CEventBuffer@@QAEAAV0@ABV0@@Z=C:\Windows\SysWOW64\mmcbase.??4CEventBuffer@@QAEAAV0@ABV0@@Z
  ??4CMMCStrongReferences@@QAEAAV0@$$QAV0@@Z=C:\Windows\SysWOW64\mmcbase.??4CMMCStrongReferences@@QAEAAV0@$$QAV0@@Z
  ??4CMMCStrongReferences@@QAEAAV0@ABV0@@Z=C:\Windows\SysWOW64\mmcbase.??4CMMCStrongReferences@@QAEAAV0@ABV0@@Z
  ??4SC@mmcerror@@QAEAAV01@ABV01@@Z=C:\Windows\SysWOW64\mmcbase.??4SC@mmcerror@@QAEAAV01@ABV01@@Z
  ??4SC@mmcerror@@QAEAAV01@J@Z=C:\Windows\SysWOW64\mmcbase.??4SC@mmcerror@@QAEAAV01@J@Z
  ??7SC@mmcerror@@QBEHXZ=C:\Windows\SysWOW64\mmcbase.??7SC@mmcerror@@QBEHXZ
  ??8SC@mmcerror@@QBE_NABV01@@Z=C:\Windows\SysWOW64\mmcbase.??8SC@mmcerror@@QBE_NABV01@@Z
  ??8SC@mmcerror@@QBE_NJ@Z=C:\Windows\SysWOW64\mmcbase.??8SC@mmcerror@@QBE_NJ@Z
  ??9SC@mmcerror@@QBE_NABV01@@Z=C:\Windows\SysWOW64\mmcbase.??9SC@mmcerror@@QBE_NABV01@@Z
  ??9SC@mmcerror@@QBE_NJ@Z=C:\Windows\SysWOW64\mmcbase.??9SC@mmcerror@@QBE_NJ@Z
  ??BSC@mmcerror@@QBE_NXZ=C:\Windows\SysWOW64\mmcbase.??BSC@mmcerror@@QBE_NXZ
  ??_FSC@mmcerror@@QAEXXZ=C:\Windows\SysWOW64\mmcbase.??_FSC@mmcerror@@QAEXXZ
  ?AddItem@BookKeeping@@SGJAAVItemHandle@@@Z=C:\Windows\SysWOW64\mmcbase.?AddItem@BookKeeping@@SGJAAVItemHandle@@@Z
  ?AddRef@CMMCStrongReferences@@SGKXZ=C:\Windows\SysWOW64\mmcbase.?AddRef@CMMCStrongReferences@@SGKXZ
  ?AddSnapin@BookKeeping@@SGJPBGAAH@Z=C:\Windows\SysWOW64\mmcbase.?AddSnapin@BookKeeping@@SGJPBGAAH@Z
  ?AddSnapinInterface@BookKeeping@@SG_NPAUIUnknown@@PBGAAH@Z=C:\Windows\SysWOW64\mmcbase.?AddSnapinInterface@BookKeeping@@SG_NPAUIUnknown@@PBGAAH@Z
  ?CheckCallingThreadID@SC@mmcerror@@QAEXXZ=C:\Windows\SysWOW64\mmcbase.?CheckCallingThreadID@SC@mmcerror@@QAEXXZ
  ?Clear@SC@mmcerror@@QAEXXZ=C:\Windows\SysWOW64\mmcbase.?Clear@SC@mmcerror@@QAEXXZ
  ?DumpWatsonTables@BookKeeping@@SGJPAXPBGH@Z=C:\Windows\SysWOW64\mmcbase.?DumpWatsonTables@BookKeeping@@SGJPAXPBGH@Z
  ?EnableDiagnosticMessageBox@BookKeeping@@SG_N_N@Z=C:\Windows\SysWOW64\mmcbase.?EnableDiagnosticMessageBox@BookKeeping@@SG_N_N@Z
  ?ExceptionFilter@CMMCWatsonAPI@@SGJPAU_EXCEPTION_POINTERS@@H@Z=C:\Windows\SysWOW64\mmcbase.?ExceptionFilter@CMMCWatsonAPI@@SGJPAU_EXCEPTION_POINTERS@@H@Z
  ?FatalError@SC@mmcerror@@QBEXXZ=C:\Windows\SysWOW64\mmcbase.?FatalError@SC@mmcerror@@QBEXXZ
  ?FindAllSnapinUIThreads@BookKeeping@@SGJHPAPAKPAK@Z=C:\Windows\SysWOW64\mmcbase.?FindAllSnapinUIThreads@BookKeeping@@SGJHPAPAKPAK@Z
  ?FindAllSnapinUIThreads@BookKeeping@@SGJPAPAKPAK@Z=C:\Windows\SysWOW64\mmcbase.?FindAllSnapinUIThreads@BookKeeping@@SGJPAPAKPAK@Z
  ?FindItem@BookKeeping@@SGPAVItemHandle@@PAX@Z=C:\Windows\SysWOW64\mmcbase.?FindItem@BookKeeping@@SGPAVItemHandle@@PAX@Z
  ?FindSnapin@BookKeeping@@SGABVSnapinBookkeepingInfo@@H@Z=C:\Windows\SysWOW64\mmcbase.?FindSnapin@BookKeeping@@SGABVSnapinBookkeepingInfo@@H@Z
  ?FindSnapin@BookKeeping@@SGABVSnapinBookkeepingInfo@@PAUIUnknown@@@Z=C:\Windows\SysWOW64\mmcbase.?FindSnapin@BookKeeping@@SGABVSnapinBookkeepingInfo@@PAUIUnknown@@@Z
  ?FindSnapin@BookKeeping@@SGABVSnapinBookkeepingInfo@@PBG@Z=C:\Windows\SysWOW64\mmcbase.?FindSnapin@BookKeeping@@SGABVSnapinBookkeepingInfo@@PBG@Z
  ?ForceException@CMMCWatsonAPI@@SGXH@Z=C:\Windows\SysWOW64\mmcbase.?ForceException@CMMCWatsonAPI@@SGXH@Z
  ?FormatErrorIds@@YGXIVSC@mmcerror@@IPAG@Z=C:\Windows\SysWOW64\mmcbase.?FormatErrorIds@@YGXIVSC@mmcerror@@IPAG@Z
  ?FormatErrorShort@@YGXVSC@mmcerror@@IPAG@Z=C:\Windows\SysWOW64\mmcbase.?FormatErrorShort@@YGXVSC@mmcerror@@IPAG@Z
  ?FormatErrorString@@YGXPBGVSC@mmcerror@@IPAGH@Z=C:\Windows\SysWOW64\mmcbase.?FormatErrorString@@YGXPBGVSC@mmcerror@@IPAGH@Z
  ?FromLastError@SC@mmcerror@@QAEAAV12@XZ=C:\Windows\SysWOW64\mmcbase.?FromLastError@SC@mmcerror@@QAEAAV12@XZ
  ?FromMMC@SC@mmcerror@@QAEAAV12@J@Z=C:\Windows\SysWOW64\mmcbase.?FromMMC@SC@mmcerror@@QAEAAV12@J@Z
  ?FromWin32@SC@mmcerror@@QAEAAV12@J@Z=C:\Windows\SysWOW64\mmcbase.?FromWin32@SC@mmcerror@@QAEAAV12@J@Z
  ?FxSnapinException@BookKeeping@@SG_NHPBG000HPAUHWND__@@@Z=C:\Windows\SysWOW64\mmcbase.?FxSnapinException@BookKeeping@@SG_NHPBG000HPAUHWND__@@@Z
  ?GetCode@SC@mmcerror@@QBEJXZ=C:\Windows\SysWOW64\mmcbase.?GetCode@SC@mmcerror@@QBEJXZ
  ?GetErrorMessage@SC@mmcerror@@QBEXIPAG@Z=C:\Windows\SysWOW64\mmcbase.?GetErrorMessage@SC@mmcerror@@QBEXIPAG@Z
  ?GetFacility@SC@mmcerror@@ABE?AW4facility_type@12@XZ=C:\Windows\SysWOW64\mmcbase.?GetFacility@SC@mmcerror@@ABE?AW4facility_type@12@XZ
  ?GetFunctionName@SC@mmcerror@@QBEPBGXZ=C:\Windows\SysWOW64\mmcbase.?GetFunctionName@SC@mmcerror@@QBEPBGXZ
  ?GetHWnd@SC@mmcerror@@SGPAUHWND__@@XZ=C:\Windows\SysWOW64\mmcbase.?GetHWnd@SC@mmcerror@@SGPAUHWND__@@XZ
  ?GetHelpFile@SC@mmcerror@@SGPBGXZ=C:\Windows\SysWOW64\mmcbase.?GetHelpFile@SC@mmcerror@@SGPBGXZ
  ?GetHelpID@SC@mmcerror@@QAEKXZ=C:\Windows\SysWOW64\mmcbase.?GetHelpID@SC@mmcerror@@QAEKXZ
  ?GetHinst@SC@mmcerror@@SGPAUHINSTANCE__@@XZ=C:\Windows\SysWOW64\mmcbase.?GetHinst@SC@mmcerror@@SGPAUHINSTANCE__@@XZ
  ?GetMainThreadID@SC@mmcerror@@SGKXZ=C:\Windows\SysWOW64\mmcbase.?GetMainThreadID@SC@mmcerror@@SGKXZ
  ?GetModalHWND@SC@mmcerror@@SGPAUHWND__@@XZ=C:\Windows\SysWOW64\mmcbase.?GetModalHWND@SC@mmcerror@@SGPAUHWND__@@XZ
  ?GetNewSnapinInstanceId@BookKeeping@@SGHXZ=C:\Windows\SysWOW64\mmcbase.?GetNewSnapinInstanceId@BookKeeping@@SGHXZ
  ?GetSingletonObject@CMMCStrongReferences@@CGAAV1@XZ=C:\Windows\SysWOW64\mmcbase.?GetSingletonObject@CMMCStrongReferences@@CGAAV1@XZ
  ?GetSnapinModuleName@BookKeeping@@SGPBGH@Z=C:\Windows\SysWOW64\mmcbase.?GetSnapinModuleName@BookKeeping@@SGPBGH@Z
  ?GetSnapinName@BookKeeping@@SGPBGH@Z=C:\Windows\SysWOW64\mmcbase.?GetSnapinName@BookKeeping@@SGPBGH@Z
  ?GetSnapinName@SC@mmcerror@@QBEPBGXZ=C:\Windows\SysWOW64\mmcbase.?GetSnapinName@SC@mmcerror@@QBEPBGXZ
  ?HrFromSc@@YGJABVSC@mmcerror@@@Z=C:\Windows\SysWOW64\mmcbase.?HrFromSc@@YGJABVSC@mmcerror@@@Z
  ?InitInstance@BookKeeping@@SGJXZ=C:\Windows\SysWOW64\mmcbase.?InitInstance@BookKeeping@@SGJXZ
  ?InterfaceFailure@BookKeeping@@SGXHPBG0@Z=C:\Windows\SysWOW64\mmcbase.?InterfaceFailure@BookKeeping@@SGXHPBG0@Z
  ?InterfaceMethodActivationContextException@BookKeeping@@SGXHPBG0KPAU_EXCEPTION_POINTERS@@@Z=C:\Windows\SysWOW64\mmcbase.?InterfaceMethodActivationContextException@BookKeeping@@SGXHPBG0KPAU_EXCEPTION_POINTERS@@@Z
  ?InterfaceMethodException@BookKeeping@@SGXHPBG0KPAU_EXCEPTION_POINTERS@@@Z=C:\Windows\SysWOW64\mmcbase.?InterfaceMethodException@BookKeeping@@SGXHPBG0KPAU_EXCEPTION_POINTERS@@@Z
  ?InterfaceNotFound@BookKeeping@@SGXHPBG@Z=C:\Windows\SysWOW64\mmcbase.?InterfaceNotFound@BookKeeping@@SGXHPBG@Z
  ?InternalAddRef@CMMCStrongReferences@@AAEKXZ=C:\Windows\SysWOW64\mmcbase.?InternalAddRef@CMMCStrongReferences@@AAEKXZ
  ?InternalLastRefReleased@CMMCStrongReferences@@AAE_NXZ=C:\Windows\SysWOW64\mmcbase.?InternalLastRefReleased@CMMCStrongReferences@@AAE_NXZ
  ?InternalRelease@CMMCStrongReferences@@AAEKXZ=C:\Windows\SysWOW64\mmcbase.?InternalRelease@CMMCStrongReferences@@AAEKXZ
  ?InvalidInterface@BookKeeping@@SGXHPBG0@Z=C:\Windows\SysWOW64\mmcbase.?InvalidInterface@BookKeeping@@SGXHPBG0@Z
  ?InvalidMMCInterface@BookKeeping@@SGXHPBG0@Z=C:\Windows\SysWOW64\mmcbase.?InvalidMMCInterface@BookKeeping@@SGXHPBG0@Z
  ?InvalidMMCInterfaceRelease@BookKeeping@@SGXHPBG0@Z=C:\Windows\SysWOW64\mmcbase.?InvalidMMCInterfaceRelease@BookKeeping@@SGXHPBG0@Z
  ?IsError@SC@mmcerror@@QBE_NXZ=C:\Windows\SysWOW64\mmcbase.?IsError@SC@mmcerror@@QBE_NXZ
  ?IsLocked@CEventBuffer@@QAE_NXZ=C:\Windows\SysWOW64\mmcbase.?IsLocked@CEventBuffer@@QAE_NXZ
  ?IsValid@ItemHandle@@SG_NPBV1@@Z=C:\Windows\SysWOW64\mmcbase.?IsValid@ItemHandle@@SG_NPBV1@@Z
  ?LKResult2HRESULT@BookKeeping@@SGJJ@Z=C:\Windows\SysWOW64\mmcbase.?LKResult2HRESULT@BookKeeping@@SGJJ@Z
  ?LastRefReleased@CMMCStrongReferences@@SG_NXZ=C:\Windows\SysWOW64\mmcbase.?LastRefReleased@CMMCStrongReferences@@SG_NXZ
  ?Lock@CEventBuffer@@QAEXXZ=C:\Windows\SysWOW64\mmcbase.?Lock@CEventBuffer@@QAEXXZ
  ?MMCErrorBox@@YGHII@Z=C:\Windows\SysWOW64\mmcbase.?MMCErrorBox@@YGHII@Z
  ?MMCErrorBox@@YGHIVSC@mmcerror@@I@Z=C:\Windows\SysWOW64\mmcbase.?MMCErrorBox@@YGHIVSC@mmcerror@@I@Z
  ?MMCErrorBox@@YGHPBGI@Z=C:\Windows\SysWOW64\mmcbase.?MMCErrorBox@@YGHPBGI@Z
  ?MMCErrorBox@@YGHPBGVSC@mmcerror@@I@Z=C:\Windows\SysWOW64\mmcbase.?MMCErrorBox@@YGHPBGVSC@mmcerror@@I@Z
  ?MMCErrorBox@@YGHVSC@mmcerror@@I@Z=C:\Windows\SysWOW64\mmcbase.?MMCErrorBox@@YGHVSC@mmcerror@@I@Z
  ?MMCInterfaceError@BookKeeping@@SGXHPBG0@Z=C:\Windows\SysWOW64\mmcbase.?MMCInterfaceError@BookKeeping@@SGXHPBG0@Z
  ?MMCInterfaceLeak@BookKeeping@@SGXHPBG@Z=C:\Windows\SysWOW64\mmcbase.?MMCInterfaceLeak@BookKeeping@@SGXHPBG@Z
  ?MMCInterfaceMethodException@BookKeeping@@SGXHPBG0KPAU_EXCEPTION_POINTERS@@W4_SnapinError@1@@Z=C:\Windows\SysWOW64\mmcbase.?MMCInterfaceMethodException@BookKeeping@@SGXHPBG0KPAU_EXCEPTION_POINTERS@@W4_SnapinError@1@@Z
  ?MMCNullInterface@BookKeeping@@SGXHPBG0@Z=C:\Windows\SysWOW64\mmcbase.?MMCNullInterface@BookKeeping@@SGXHPBG0@Z
  ?MakeSc@SC@mmcerror@@AAEXW4facility_type@12@J@Z=C:\Windows\SysWOW64\mmcbase.?MakeSc@SC@mmcerror@@AAEXW4facility_type@12@J@Z
  ?RegisterSnapinInterfaceErrorHandler@BookKeeping@@SGP6G_NAAVSnapinBookkeepingInfo@@W4_SnapinError@1@PBG222KPAU_EXCEPTION_POINTERS@@@ZP6G_N012222K3@Z@Z=C:\Windows\SysWOW64\mmcbase.?RegisterSnapinInterfaceErrorHandler@BookKeeping@@SGP6G_NAAVSnapinBookkeepingInfo@@W4_SnapinError@1@PBG222KPAU_EXCEPTION_POINTERS@@@ZP6G_N012222K3@Z@Z
  ?RegisterThread@BookKeeping@@SGJHHKW4SnapinThreadFlags@1@@Z=C:\Windows\SysWOW64\mmcbase.?RegisterThread@BookKeeping@@SGJHHKW4SnapinThreadFlags@1@@Z
  ?Release@CMMCStrongReferences@@SGKXZ=C:\Windows\SysWOW64\mmcbase.?Release@CMMCStrongReferences@@SGKXZ
  ?ReleaseSnapinInterface@BookKeeping@@SGJPAUIUnknown@@H@Z=C:\Windows\SysWOW64\mmcbase.?ReleaseSnapinInterface@BookKeeping@@SGJPAUIUnknown@@H@Z
  ?RemoveItem@BookKeeping@@SGJPAX@Z=C:\Windows\SysWOW64\mmcbase.?RemoveItem@BookKeeping@@SGJPAX@Z
  ?SCODEFromSc@@YGJABVSC@mmcerror@@@Z=C:\Windows\SysWOW64\mmcbase.?SCODEFromSc@@YGJABVSC@mmcerror@@@Z
  ?ScEmitOrPostpone@CEventBuffer@@QAE?AVSC@mmcerror@@PAUIDispatch@@JPAVCComVariant@ATL@@H@Z=C:\Windows\SysWOW64\mmcbase.?ScEmitOrPostpone@CEventBuffer@@QAE?AVSC@mmcerror@@PAUIDispatch@@JPAVCComVariant@ATL@@H@Z
  ?ScFlushPostponed@CEventBuffer@@AAE?AVSC@mmcerror@@XZ=C:\Windows\SysWOW64\mmcbase.?ScFlushPostponed@CEventBuffer@@AAE?AVSC@mmcerror@@XZ
  ?ScFromMMC@@YG?AVSC@mmcerror@@J@Z=C:\Windows\SysWOW64\mmcbase.?ScFromMMC@@YG?AVSC@mmcerror@@J@Z
  ?ScGetConsoleEventDispatcher@CConsoleEventDispatcherProvider@@SG?AVSC@mmcerror@@AAPAVCConsoleEventDispatcher@@@Z=C:\Windows\SysWOW64\mmcbase.?ScGetConsoleEventDispatcher@CConsoleEventDispatcherProvider@@SG?AVSC@mmcerror@@AAPAVCConsoleEventDispatcher@@@Z
  ?ScSetConsoleEventDispatcher@CConsoleEventDispatcherProvider@@SG?AVSC@mmcerror@@PAVCConsoleEventDispatcher@@@Z=C:\Windows\SysWOW64\mmcbase.?ScSetConsoleEventDispatcher@CConsoleEventDispatcherProvider@@SG?AVSC@mmcerror@@PAVCConsoleEventDispatcher@@@Z
  ?SetFunctionName@SC@mmcerror@@QAEXPBG@Z=C:\Windows\SysWOW64\mmcbase.?SetFunctionName@SC@mmcerror@@QAEXPBG@Z
  ?SetHWnd@SC@mmcerror@@SGXPAUHWND__@@@Z=C:\Windows\SysWOW64\mmcbase.?SetHWnd@SC@mmcerror@@SGXPAUHWND__@@@Z
  ?SetHinst@SC@mmcerror@@SGXPAUHINSTANCE__@@@Z=C:\Windows\SysWOW64\mmcbase.?SetHinst@SC@mmcerror@@SGXPAUHINSTANCE__@@@Z
  ?SetMainThreadID@SC@mmcerror@@SGXK@Z=C:\Windows\SysWOW64\mmcbase.?SetMainThreadID@SC@mmcerror@@SGXK@Z
  ?SetModalHWND@SC@mmcerror@@SGPAUHWND__@@PAU3@@Z=C:\Windows\SysWOW64\mmcbase.?SetModalHWND@SC@mmcerror@@SGPAUHWND__@@PAU3@@Z
  ?SetSnapinName@SC@mmcerror@@QAEXPBG@Z=C:\Windows\SysWOW64\mmcbase.?SetSnapinName@SC@mmcerror@@QAEXPBG@Z
  ?Throw@SC@mmcerror@@QAEXJ@Z=C:\Windows\SysWOW64\mmcbase.?Throw@SC@mmcerror@@QAEXJ@Z
  ?Throw@SC@mmcerror@@QAEXXZ=C:\Windows\SysWOW64\mmcbase.?Throw@SC@mmcerror@@QAEXXZ
  ?ToHr@SC@mmcerror@@QBEJXZ=C:\Windows\SysWOW64\mmcbase.?ToHr@SC@mmcerror@@QBEJXZ
  ?TraceAndClear@SC@mmcerror@@QAEXXZ=C:\Windows\SysWOW64\mmcbase.?TraceAndClear@SC@mmcerror@@QAEXXZ
  ?TraceError@@YGXPBGABVSC@mmcerror@@@Z=C:\Windows\SysWOW64\mmcbase.?TraceError@@YGXPBGABVSC@mmcerror@@@Z
  ?TraceSnapinError@@YGXPBGABVSC@mmcerror@@@Z=C:\Windows\SysWOW64\mmcbase.?TraceSnapinError@@YGXPBGABVSC@mmcerror@@@Z
  ?Trace_@SC@mmcerror@@QBEXXZ=C:\Windows\SysWOW64\mmcbase.?Trace_@SC@mmcerror@@QBEXXZ
  ?Unlock@CEventBuffer@@QAEXXZ=C:\Windows\SysWOW64\mmcbase.?Unlock@CEventBuffer@@QAEXXZ
  ?UnregisterAllSnapinInstanceThreads@BookKeeping@@SGJH@Z=C:\Windows\SysWOW64\mmcbase.?UnregisterAllSnapinInstanceThreads@BookKeeping@@SGJH@Z
  ?UnregisterThread@BookKeeping@@SGJHK@Z=C:\Windows\SysWOW64\mmcbase.?UnregisterThread@BookKeeping@@SGJHK@Z
  ?s_CallDepth@SC@mmcerror@@0IA=C:\Windows\SysWOW64\mmcbase.?s_CallDepth@SC@mmcerror@@0IA
  ?s_dwMainThreadID@SC@mmcerror@@0KA=C:\Windows\SysWOW64\mmcbase.?s_dwMainThreadID@SC@mmcerror@@0KA
  ?s_hInst@SC@mmcerror@@0PAUHINSTANCE__@@A=C:\Windows\SysWOW64\mmcbase.?s_hInst@SC@mmcerror@@0PAUHINSTANCE__@@A
  ?s_hWnd@SC@mmcerror@@0PAUHWND__@@A=C:\Windows\SysWOW64\mmcbase.?s_hWnd@SC@mmcerror@@0PAUHWND__@@A
  ?s_hWndModal@SC@mmcerror@@0PAUHWND__@@A=C:\Windows\SysWOW64\mmcbase.?s_hWndModal@SC@mmcerror@@0PAUHWND__@@A
  ?s_pDispatcher@CConsoleEventDispatcherProvider@@0PAVCConsoleEventDispatcher@@A=C:\Windows\SysWOW64\mmcbase.?s_pDispatcher@CConsoleEventDispatcherProvider@@0PAVCConsoleEventDispatcher@@A
  EnterModalLoop=C:\Windows\SysWOW64\mmcbase.EnterModalLoop
  GetComObjectEventSource=C:\Windows\SysWOW64\mmcbase.GetComObjectEventSource
  GetEventBuffer=C:\Windows\SysWOW64\mmcbase.GetEventBuffer
  GetStringModule=C:\Windows\SysWOW64\mmcbase.GetStringModule
  InsideModalLoop=C:\Windows\SysWOW64\mmcbase.InsideModalLoop
  LeaveModalLoop=C:\Windows\SysWOW64\mmcbase.LeaveModalLoop
  LoadStandardOverlays=C:\Windows\SysWOW64\mmcbase.LoadStandardOverlays
  MMCUpdateRegistry=C:\Windows\SysWOW64\mmcbase.MMCUpdateRegistry
  MMC_PickIconDlg=C:\Windows\SysWOW64\mmcbase.MMC_PickIconDlg
  ReportFxSnapinException=C:\Windows\SysWOW64\mmcbase.ReportFxSnapinException
