EXPORTS
  ??$CompareElements@PAGPAG@@YGHPBQAG0@Z=C:\Windows\SysWOW64\provthrd.??$CompareElements@PAGPAG@@YGHPBQAG0@Z
  ??$HashKey@PAG@@YGIPAG@Z=C:\Windows\SysWOW64\provthrd.??$HashKey@PAG@@YGIPAG@Z
  ??0CBString@@QAE@H@Z=C:\Windows\SysWOW64\provthrd.??0CBString@@QAE@H@Z
  ??0CBString@@QAE@PBG@Z=C:\Windows\SysWOW64\provthrd.??0CBString@@QAE@PBG@Z
  ??0CBString@@QAE@XZ=C:\Windows\SysWOW64\provthrd.??0CBString@@QAE@XZ
  ??0Conjunctions@@QAE@K@Z=C:\Windows\SysWOW64\provthrd.??0Conjunctions@@QAE@K@Z
  ??0Disjunctions@@QAE@KK@Z=C:\Windows\SysWOW64\provthrd.??0Disjunctions@@QAE@KK@Z
  ??0PartitionSet@@QAE@ABV0@@Z=C:\Windows\SysWOW64\provthrd.??0PartitionSet@@QAE@ABV0@@Z
  ??0PartitionSet@@QAE@XZ=C:\Windows\SysWOW64\provthrd.??0PartitionSet@@QAE@XZ
  ??0ProvAnalyser@@QAE@ABV0@@Z=C:\Windows\SysWOW64\provthrd.??0ProvAnalyser@@QAE@ABV0@@Z
  ??0ProvAnalyser@@QAE@PBG@Z=C:\Windows\SysWOW64\provthrd.??0ProvAnalyser@@QAE@PBG@Z
  ??0ProvBitStringType@@QAE@ABV0@@Z=C:\Windows\SysWOW64\provthrd.??0ProvBitStringType@@QAE@ABV0@@Z
  ??0ProvBitStringType@@QAE@PBG@Z=C:\Windows\SysWOW64\provthrd.??0ProvBitStringType@@QAE@PBG@Z
  ??0ProvBitStringType@@QAE@PBGABVProvOctetString@@@Z=C:\Windows\SysWOW64\provthrd.??0ProvBitStringType@@QAE@PBGABVProvOctetString@@@Z
  ??0ProvBitStringType@@QAE@PBGPAPBGABK@Z=C:\Windows\SysWOW64\provthrd.??0ProvBitStringType@@QAE@PBGPAPBGABK@Z
  ??0ProvCounter64@@QAE@ABV0@@Z=C:\Windows\SysWOW64\provthrd.??0ProvCounter64@@QAE@ABV0@@Z
  ??0ProvCounter64@@QAE@KK@Z=C:\Windows\SysWOW64\provthrd.??0ProvCounter64@@QAE@KK@Z
  ??0ProvCounter64Type@@QAE@ABV0@@Z=C:\Windows\SysWOW64\provthrd.??0ProvCounter64Type@@QAE@ABV0@@Z
  ??0ProvCounter64Type@@QAE@ABVProvCounter64@@@Z=C:\Windows\SysWOW64\provthrd.??0ProvCounter64Type@@QAE@ABVProvCounter64@@@Z
  ??0ProvCounter64Type@@QAE@KK@Z=C:\Windows\SysWOW64\provthrd.??0ProvCounter64Type@@QAE@KK@Z
  ??0ProvCounter64Type@@QAE@PBG@Z=C:\Windows\SysWOW64\provthrd.??0ProvCounter64Type@@QAE@PBG@Z
  ??0ProvCounter64Type@@QAE@XZ=C:\Windows\SysWOW64\provthrd.??0ProvCounter64Type@@QAE@XZ
  ??0ProvCounter@@QAE@ABV0@@Z=C:\Windows\SysWOW64\provthrd.??0ProvCounter@@QAE@ABV0@@Z
  ??0ProvCounter@@QAE@K@Z=C:\Windows\SysWOW64\provthrd.??0ProvCounter@@QAE@K@Z
  ??0ProvCounterType@@QAE@ABV0@@Z=C:\Windows\SysWOW64\provthrd.??0ProvCounterType@@QAE@ABV0@@Z
  ??0ProvCounterType@@QAE@ABVProvCounter@@@Z=C:\Windows\SysWOW64\provthrd.??0ProvCounterType@@QAE@ABVProvCounter@@@Z
  ??0ProvCounterType@@QAE@K@Z=C:\Windows\SysWOW64\provthrd.??0ProvCounterType@@QAE@K@Z
  ??0ProvCounterType@@QAE@PBG@Z=C:\Windows\SysWOW64\provthrd.??0ProvCounterType@@QAE@PBG@Z
  ??0ProvCounterType@@QAE@XZ=C:\Windows\SysWOW64\provthrd.??0ProvCounterType@@QAE@XZ
  ??0ProvDateTimeType@@QAE@ABV0@@Z=C:\Windows\SysWOW64\provthrd.??0ProvDateTimeType@@QAE@ABV0@@Z
  ??0ProvDateTimeType@@QAE@ABVProvOctetString@@@Z=C:\Windows\SysWOW64\provthrd.??0ProvDateTimeType@@QAE@ABVProvOctetString@@@Z
  ??0ProvDateTimeType@@QAE@PBG@Z=C:\Windows\SysWOW64\provthrd.??0ProvDateTimeType@@QAE@PBG@Z
  ??0ProvDateTimeType@@QAE@XZ=C:\Windows\SysWOW64\provthrd.??0ProvDateTimeType@@QAE@XZ
  ??0ProvDebugLog@@QAE@D@Z=C:\Windows\SysWOW64\provthrd.??0ProvDebugLog@@QAE@D@Z
  ??0ProvDisplayStringType@@QAE@ABV0@@Z=C:\Windows\SysWOW64\provthrd.??0ProvDisplayStringType@@QAE@ABV0@@Z
  ??0ProvDisplayStringType@@QAE@ABVProvOctetString@@PBG@Z=C:\Windows\SysWOW64\provthrd.??0ProvDisplayStringType@@QAE@ABVProvOctetString@@PBG@Z
  ??0ProvDisplayStringType@@QAE@PBG0@Z=C:\Windows\SysWOW64\provthrd.??0ProvDisplayStringType@@QAE@PBG0@Z
  ??0ProvDisplayStringType@@QAE@PBG@Z=C:\Windows\SysWOW64\provthrd.??0ProvDisplayStringType@@QAE@PBG@Z
  ??0ProvEnumeratedType@@QAE@ABV0@@Z=C:\Windows\SysWOW64\provthrd.??0ProvEnumeratedType@@QAE@ABV0@@Z
  ??0ProvEnumeratedType@@QAE@PBG0@Z=C:\Windows\SysWOW64\provthrd.??0ProvEnumeratedType@@QAE@PBG0@Z
  ??0ProvEnumeratedType@@QAE@PBG@Z=C:\Windows\SysWOW64\provthrd.??0ProvEnumeratedType@@QAE@PBG@Z
  ??0ProvEnumeratedType@@QAE@PBGABJ@Z=C:\Windows\SysWOW64\provthrd.??0ProvEnumeratedType@@QAE@PBGABJ@Z
  ??0ProvEnumeratedType@@QAE@PBGABVProvInteger@@@Z=C:\Windows\SysWOW64\provthrd.??0ProvEnumeratedType@@QAE@PBGABVProvInteger@@@Z
  ??0ProvEventObject@@QAE@ABV0@@Z=C:\Windows\SysWOW64\provthrd.??0ProvEventObject@@QAE@ABV0@@Z
  ??0ProvEventObject@@QAE@PBG@Z=C:\Windows\SysWOW64\provthrd.??0ProvEventObject@@QAE@PBG@Z
  ??0ProvFixedLengthDisplayStringType@@QAE@ABK@Z=C:\Windows\SysWOW64\provthrd.??0ProvFixedLengthDisplayStringType@@QAE@ABK@Z
  ??0ProvFixedLengthDisplayStringType@@QAE@ABKABVProvOctetString@@@Z=C:\Windows\SysWOW64\provthrd.??0ProvFixedLengthDisplayStringType@@QAE@ABKABVProvOctetString@@@Z
  ??0ProvFixedLengthDisplayStringType@@QAE@ABKPBG@Z=C:\Windows\SysWOW64\provthrd.??0ProvFixedLengthDisplayStringType@@QAE@ABKPBG@Z
  ??0ProvFixedLengthDisplayStringType@@QAE@ABV0@@Z=C:\Windows\SysWOW64\provthrd.??0ProvFixedLengthDisplayStringType@@QAE@ABV0@@Z
  ??0ProvFixedLengthOctetStringType@@QAE@ABK@Z=C:\Windows\SysWOW64\provthrd.??0ProvFixedLengthOctetStringType@@QAE@ABK@Z
  ??0ProvFixedLengthOctetStringType@@QAE@ABKABVProvOctetString@@@Z=C:\Windows\SysWOW64\provthrd.??0ProvFixedLengthOctetStringType@@QAE@ABKABVProvOctetString@@@Z
  ??0ProvFixedLengthOctetStringType@@QAE@ABKPBE@Z=C:\Windows\SysWOW64\provthrd.??0ProvFixedLengthOctetStringType@@QAE@ABKPBE@Z
  ??0ProvFixedLengthOctetStringType@@QAE@ABKPBG@Z=C:\Windows\SysWOW64\provthrd.??0ProvFixedLengthOctetStringType@@QAE@ABKPBG@Z
  ??0ProvFixedLengthOctetStringType@@QAE@ABV0@@Z=C:\Windows\SysWOW64\provthrd.??0ProvFixedLengthOctetStringType@@QAE@ABV0@@Z
  ??0ProvFixedLengthOpaqueType@@QAE@ABK@Z=C:\Windows\SysWOW64\provthrd.??0ProvFixedLengthOpaqueType@@QAE@ABK@Z
  ??0ProvFixedLengthOpaqueType@@QAE@ABKABVProvOpaque@@@Z=C:\Windows\SysWOW64\provthrd.??0ProvFixedLengthOpaqueType@@QAE@ABKABVProvOpaque@@@Z
  ??0ProvFixedLengthOpaqueType@@QAE@ABKPBEK@Z=C:\Windows\SysWOW64\provthrd.??0ProvFixedLengthOpaqueType@@QAE@ABKPBEK@Z
  ??0ProvFixedLengthOpaqueType@@QAE@ABKPBG@Z=C:\Windows\SysWOW64\provthrd.??0ProvFixedLengthOpaqueType@@QAE@ABKPBG@Z
  ??0ProvFixedLengthOpaqueType@@QAE@ABV0@@Z=C:\Windows\SysWOW64\provthrd.??0ProvFixedLengthOpaqueType@@QAE@ABV0@@Z
  ??0ProvFixedLengthPhysAddressType@@QAE@ABK@Z=C:\Windows\SysWOW64\provthrd.??0ProvFixedLengthPhysAddressType@@QAE@ABK@Z
  ??0ProvFixedLengthPhysAddressType@@QAE@ABKABVProvOctetString@@@Z=C:\Windows\SysWOW64\provthrd.??0ProvFixedLengthPhysAddressType@@QAE@ABKABVProvOctetString@@@Z
  ??0ProvFixedLengthPhysAddressType@@QAE@ABKPBG@Z=C:\Windows\SysWOW64\provthrd.??0ProvFixedLengthPhysAddressType@@QAE@ABKPBG@Z
  ??0ProvFixedLengthPhysAddressType@@QAE@ABV0@@Z=C:\Windows\SysWOW64\provthrd.??0ProvFixedLengthPhysAddressType@@QAE@ABV0@@Z
  ??0ProvFixedType@@QAE@ABV0@@Z=C:\Windows\SysWOW64\provthrd.??0ProvFixedType@@QAE@ABV0@@Z
  ??0ProvFixedType@@QAE@K@Z=C:\Windows\SysWOW64\provthrd.??0ProvFixedType@@QAE@K@Z
  ??0ProvGauge@@QAE@ABV0@@Z=C:\Windows\SysWOW64\provthrd.??0ProvGauge@@QAE@ABV0@@Z
  ??0ProvGauge@@QAE@J@Z=C:\Windows\SysWOW64\provthrd.??0ProvGauge@@QAE@J@Z
  ??0ProvGaugeType@@QAE@ABV0@@Z=C:\Windows\SysWOW64\provthrd.??0ProvGaugeType@@QAE@ABV0@@Z
  ??0ProvGaugeType@@QAE@ABVProvGauge@@PBG@Z=C:\Windows\SysWOW64\provthrd.??0ProvGaugeType@@QAE@ABVProvGauge@@PBG@Z
  ??0ProvGaugeType@@QAE@KPBG@Z=C:\Windows\SysWOW64\provthrd.??0ProvGaugeType@@QAE@KPBG@Z
  ??0ProvGaugeType@@QAE@PBG0@Z=C:\Windows\SysWOW64\provthrd.??0ProvGaugeType@@QAE@PBG0@Z
  ??0ProvGaugeType@@QAE@PBG@Z=C:\Windows\SysWOW64\provthrd.??0ProvGaugeType@@QAE@PBG@Z
  ??0ProvInstanceType@@IAE@ABV0@@Z=C:\Windows\SysWOW64\provthrd.??0ProvInstanceType@@IAE@ABV0@@Z
  ??0ProvInstanceType@@IAE@HH@Z=C:\Windows\SysWOW64\provthrd.??0ProvInstanceType@@IAE@HH@Z
  ??0ProvInteger@@QAE@ABV0@@Z=C:\Windows\SysWOW64\provthrd.??0ProvInteger@@QAE@ABV0@@Z
  ??0ProvInteger@@QAE@J@Z=C:\Windows\SysWOW64\provthrd.??0ProvInteger@@QAE@J@Z
  ??0ProvIntegerType@@QAE@ABV0@@Z=C:\Windows\SysWOW64\provthrd.??0ProvIntegerType@@QAE@ABV0@@Z
  ??0ProvIntegerType@@QAE@ABVProvInteger@@PBG@Z=C:\Windows\SysWOW64\provthrd.??0ProvIntegerType@@QAE@ABVProvInteger@@PBG@Z
  ??0ProvIntegerType@@QAE@JPBG@Z=C:\Windows\SysWOW64\provthrd.??0ProvIntegerType@@QAE@JPBG@Z
  ??0ProvIntegerType@@QAE@PBG0@Z=C:\Windows\SysWOW64\provthrd.??0ProvIntegerType@@QAE@PBG0@Z
  ??0ProvIntegerType@@QAE@PBG@Z=C:\Windows\SysWOW64\provthrd.??0ProvIntegerType@@QAE@PBG@Z
  ??0ProvIpAddress@@QAE@ABV0@@Z=C:\Windows\SysWOW64\provthrd.??0ProvIpAddress@@QAE@ABV0@@Z
  ??0ProvIpAddress@@QAE@K@Z=C:\Windows\SysWOW64\provthrd.??0ProvIpAddress@@QAE@K@Z
  ??0ProvIpAddress@@QAE@PBD@Z=C:\Windows\SysWOW64\provthrd.??0ProvIpAddress@@QAE@PBD@Z
  ??0ProvIpAddressType@@QAE@ABV0@@Z=C:\Windows\SysWOW64\provthrd.??0ProvIpAddressType@@QAE@ABV0@@Z
  ??0ProvIpAddressType@@QAE@ABVProvIpAddress@@@Z=C:\Windows\SysWOW64\provthrd.??0ProvIpAddressType@@QAE@ABVProvIpAddress@@@Z
  ??0ProvIpAddressType@@QAE@K@Z=C:\Windows\SysWOW64\provthrd.??0ProvIpAddressType@@QAE@K@Z
  ??0ProvIpAddressType@@QAE@PBG@Z=C:\Windows\SysWOW64\provthrd.??0ProvIpAddressType@@QAE@PBG@Z
  ??0ProvIpAddressType@@QAE@XZ=C:\Windows\SysWOW64\provthrd.??0ProvIpAddressType@@QAE@XZ
  ??0ProvLexicon@@QAE@XZ=C:\Windows\SysWOW64\provthrd.??0ProvLexicon@@QAE@XZ
  ??0ProvMacAddressType@@QAE@ABV0@@Z=C:\Windows\SysWOW64\provthrd.??0ProvMacAddressType@@QAE@ABV0@@Z
  ??0ProvMacAddressType@@QAE@ABVProvOctetString@@@Z=C:\Windows\SysWOW64\provthrd.??0ProvMacAddressType@@QAE@ABVProvOctetString@@@Z
  ??0ProvMacAddressType@@QAE@PBE@Z=C:\Windows\SysWOW64\provthrd.??0ProvMacAddressType@@QAE@PBE@Z
  ??0ProvMacAddressType@@QAE@PBG@Z=C:\Windows\SysWOW64\provthrd.??0ProvMacAddressType@@QAE@PBG@Z
  ??0ProvMacAddressType@@QAE@XZ=C:\Windows\SysWOW64\provthrd.??0ProvMacAddressType@@QAE@XZ
  ??0ProvNegativeRangeType@@QAE@ABV0@@Z=C:\Windows\SysWOW64\provthrd.??0ProvNegativeRangeType@@QAE@ABV0@@Z
  ??0ProvNegativeRangeType@@QAE@JJ@Z=C:\Windows\SysWOW64\provthrd.??0ProvNegativeRangeType@@QAE@JJ@Z
  ??0ProvNegativeRangeType@@QAE@XZ=C:\Windows\SysWOW64\provthrd.??0ProvNegativeRangeType@@QAE@XZ
  ??0ProvNetworkAddressType@@QAE@ABV0@@Z=C:\Windows\SysWOW64\provthrd.??0ProvNetworkAddressType@@QAE@ABV0@@Z
  ??0ProvNetworkAddressType@@QAE@ABVProvIpAddress@@@Z=C:\Windows\SysWOW64\provthrd.??0ProvNetworkAddressType@@QAE@ABVProvIpAddress@@@Z
  ??0ProvNetworkAddressType@@QAE@K@Z=C:\Windows\SysWOW64\provthrd.??0ProvNetworkAddressType@@QAE@K@Z
  ??0ProvNetworkAddressType@@QAE@PBG@Z=C:\Windows\SysWOW64\provthrd.??0ProvNetworkAddressType@@QAE@PBG@Z
  ??0ProvNetworkAddressType@@QAE@XZ=C:\Windows\SysWOW64\provthrd.??0ProvNetworkAddressType@@QAE@XZ
  ??0ProvNull@@QAE@XZ=C:\Windows\SysWOW64\provthrd.??0ProvNull@@QAE@XZ
  ??0ProvNullType@@QAE@ABV0@@Z=C:\Windows\SysWOW64\provthrd.??0ProvNullType@@QAE@ABV0@@Z
  ??0ProvNullType@@QAE@ABVProvNull@@@Z=C:\Windows\SysWOW64\provthrd.??0ProvNullType@@QAE@ABVProvNull@@@Z
  ??0ProvNullType@@QAE@XZ=C:\Windows\SysWOW64\provthrd.??0ProvNullType@@QAE@XZ
  ??0ProvOSIAddressType@@QAE@ABV0@@Z=C:\Windows\SysWOW64\provthrd.??0ProvOSIAddressType@@QAE@ABV0@@Z
  ??0ProvOSIAddressType@@QAE@ABVProvOctetString@@@Z=C:\Windows\SysWOW64\provthrd.??0ProvOSIAddressType@@QAE@ABVProvOctetString@@@Z
  ??0ProvOSIAddressType@@QAE@PBEK@Z=C:\Windows\SysWOW64\provthrd.??0ProvOSIAddressType@@QAE@PBEK@Z
  ??0ProvOSIAddressType@@QAE@PBG@Z=C:\Windows\SysWOW64\provthrd.??0ProvOSIAddressType@@QAE@PBG@Z
  ??0ProvOSIAddressType@@QAE@XZ=C:\Windows\SysWOW64\provthrd.??0ProvOSIAddressType@@QAE@XZ
  ??0ProvObjectIdentifier@@QAE@ABV0@@Z=C:\Windows\SysWOW64\provthrd.??0ProvObjectIdentifier@@QAE@ABV0@@Z
  ??0ProvObjectIdentifier@@QAE@PBD@Z=C:\Windows\SysWOW64\provthrd.??0ProvObjectIdentifier@@QAE@PBD@Z
  ??0ProvObjectIdentifier@@QAE@PBKK@Z=C:\Windows\SysWOW64\provthrd.??0ProvObjectIdentifier@@QAE@PBKK@Z
  ??0ProvObjectIdentifierType@@QAE@ABV0@@Z=C:\Windows\SysWOW64\provthrd.??0ProvObjectIdentifierType@@QAE@ABV0@@Z
  ??0ProvObjectIdentifierType@@QAE@ABVProvObjectIdentifier@@@Z=C:\Windows\SysWOW64\provthrd.??0ProvObjectIdentifierType@@QAE@ABVProvObjectIdentifier@@@Z
  ??0ProvObjectIdentifierType@@QAE@PBG@Z=C:\Windows\SysWOW64\provthrd.??0ProvObjectIdentifierType@@QAE@PBG@Z
  ??0ProvObjectIdentifierType@@QAE@PBKK@Z=C:\Windows\SysWOW64\provthrd.??0ProvObjectIdentifierType@@QAE@PBKK@Z
  ??0ProvObjectIdentifierType@@QAE@XZ=C:\Windows\SysWOW64\provthrd.??0ProvObjectIdentifierType@@QAE@XZ
  ??0ProvOctetString@@QAE@ABV0@@Z=C:\Windows\SysWOW64\provthrd.??0ProvOctetString@@QAE@ABV0@@Z
  ??0ProvOctetString@@QAE@PBEK@Z=C:\Windows\SysWOW64\provthrd.??0ProvOctetString@@QAE@PBEK@Z
  ??0ProvOctetStringType@@QAE@ABV0@@Z=C:\Windows\SysWOW64\provthrd.??0ProvOctetStringType@@QAE@ABV0@@Z
  ??0ProvOctetStringType@@QAE@ABVProvOctetString@@PBG@Z=C:\Windows\SysWOW64\provthrd.??0ProvOctetStringType@@QAE@ABVProvOctetString@@PBG@Z
  ??0ProvOctetStringType@@QAE@PBEKPBG@Z=C:\Windows\SysWOW64\provthrd.??0ProvOctetStringType@@QAE@PBEKPBG@Z
  ??0ProvOctetStringType@@QAE@PBG0@Z=C:\Windows\SysWOW64\provthrd.??0ProvOctetStringType@@QAE@PBG0@Z
  ??0ProvOctetStringType@@QAE@PBG@Z=C:\Windows\SysWOW64\provthrd.??0ProvOctetStringType@@QAE@PBG@Z
  ??0ProvOpaque@@QAE@ABV0@@Z=C:\Windows\SysWOW64\provthrd.??0ProvOpaque@@QAE@ABV0@@Z
  ??0ProvOpaque@@QAE@PBEK@Z=C:\Windows\SysWOW64\provthrd.??0ProvOpaque@@QAE@PBEK@Z
  ??0ProvOpaqueType@@QAE@ABV0@@Z=C:\Windows\SysWOW64\provthrd.??0ProvOpaqueType@@QAE@ABV0@@Z
  ??0ProvOpaqueType@@QAE@ABVProvOpaque@@PBG@Z=C:\Windows\SysWOW64\provthrd.??0ProvOpaqueType@@QAE@ABVProvOpaque@@PBG@Z
  ??0ProvOpaqueType@@QAE@PBEKPBG@Z=C:\Windows\SysWOW64\provthrd.??0ProvOpaqueType@@QAE@PBEKPBG@Z
  ??0ProvOpaqueType@@QAE@PBG0@Z=C:\Windows\SysWOW64\provthrd.??0ProvOpaqueType@@QAE@PBG0@Z
  ??0ProvOpaqueType@@QAE@PBG@Z=C:\Windows\SysWOW64\provthrd.??0ProvOpaqueType@@QAE@PBG@Z
  ??0ProvPhysAddressType@@QAE@ABV0@@Z=C:\Windows\SysWOW64\provthrd.??0ProvPhysAddressType@@QAE@ABV0@@Z
  ??0ProvPhysAddressType@@QAE@ABVProvOctetString@@PBG@Z=C:\Windows\SysWOW64\provthrd.??0ProvPhysAddressType@@QAE@ABVProvOctetString@@PBG@Z
  ??0ProvPhysAddressType@@QAE@PBEKPBG@Z=C:\Windows\SysWOW64\provthrd.??0ProvPhysAddressType@@QAE@PBEKPBG@Z
  ??0ProvPhysAddressType@@QAE@PBG0@Z=C:\Windows\SysWOW64\provthrd.??0ProvPhysAddressType@@QAE@PBG0@Z
  ??0ProvPhysAddressType@@QAE@PBG@Z=C:\Windows\SysWOW64\provthrd.??0ProvPhysAddressType@@QAE@PBG@Z
  ??0ProvPositiveRangeType@@QAE@ABV0@@Z=C:\Windows\SysWOW64\provthrd.??0ProvPositiveRangeType@@QAE@ABV0@@Z
  ??0ProvPositiveRangeType@@QAE@KJ@Z=C:\Windows\SysWOW64\provthrd.??0ProvPositiveRangeType@@QAE@KJ@Z
  ??0ProvPositiveRangeType@@QAE@XZ=C:\Windows\SysWOW64\provthrd.??0ProvPositiveRangeType@@QAE@XZ
  ??0ProvPositiveRangedType@@QAE@ABV0@@Z=C:\Windows\SysWOW64\provthrd.??0ProvPositiveRangedType@@QAE@ABV0@@Z
  ??0ProvPositiveRangedType@@QAE@PBG@Z=C:\Windows\SysWOW64\provthrd.??0ProvPositiveRangedType@@QAE@PBG@Z
  ??0ProvRowStatusType@@QAE@ABJ@Z=C:\Windows\SysWOW64\provthrd.??0ProvRowStatusType@@QAE@ABJ@Z
  ??0ProvRowStatusType@@QAE@ABV0@@Z=C:\Windows\SysWOW64\provthrd.??0ProvRowStatusType@@QAE@ABV0@@Z
  ??0ProvRowStatusType@@QAE@ABVProvInteger@@@Z=C:\Windows\SysWOW64\provthrd.??0ProvRowStatusType@@QAE@ABVProvInteger@@@Z
  ??0ProvRowStatusType@@QAE@ABW4ProvRowStatusEnum@0@@Z=C:\Windows\SysWOW64\provthrd.??0ProvRowStatusType@@QAE@ABW4ProvRowStatusEnum@0@@Z
  ??0ProvRowStatusType@@QAE@PBG@Z=C:\Windows\SysWOW64\provthrd.??0ProvRowStatusType@@QAE@PBG@Z
  ??0ProvRowStatusType@@QAE@XZ=C:\Windows\SysWOW64\provthrd.??0ProvRowStatusType@@QAE@XZ
  ??0ProvTimeTicks@@QAE@ABV0@@Z=C:\Windows\SysWOW64\provthrd.??0ProvTimeTicks@@QAE@ABV0@@Z
  ??0ProvTimeTicks@@QAE@K@Z=C:\Windows\SysWOW64\provthrd.??0ProvTimeTicks@@QAE@K@Z
  ??0ProvTimeTicksType@@QAE@ABV0@@Z=C:\Windows\SysWOW64\provthrd.??0ProvTimeTicksType@@QAE@ABV0@@Z
  ??0ProvTimeTicksType@@QAE@ABVProvTimeTicks@@@Z=C:\Windows\SysWOW64\provthrd.??0ProvTimeTicksType@@QAE@ABVProvTimeTicks@@@Z
  ??0ProvTimeTicksType@@QAE@K@Z=C:\Windows\SysWOW64\provthrd.??0ProvTimeTicksType@@QAE@K@Z
  ??0ProvTimeTicksType@@QAE@PBG@Z=C:\Windows\SysWOW64\provthrd.??0ProvTimeTicksType@@QAE@PBG@Z
  ??0ProvTimeTicksType@@QAE@XZ=C:\Windows\SysWOW64\provthrd.??0ProvTimeTicksType@@QAE@XZ
  ??0ProvUDPAddressType@@QAE@ABV0@@Z=C:\Windows\SysWOW64\provthrd.??0ProvUDPAddressType@@QAE@ABV0@@Z
  ??0ProvUDPAddressType@@QAE@ABVProvOctetString@@@Z=C:\Windows\SysWOW64\provthrd.??0ProvUDPAddressType@@QAE@ABVProvOctetString@@@Z
  ??0ProvUDPAddressType@@QAE@PBE@Z=C:\Windows\SysWOW64\provthrd.??0ProvUDPAddressType@@QAE@PBE@Z
  ??0ProvUDPAddressType@@QAE@PBG@Z=C:\Windows\SysWOW64\provthrd.??0ProvUDPAddressType@@QAE@PBG@Z
  ??0ProvUDPAddressType@@QAE@XZ=C:\Windows\SysWOW64\provthrd.??0ProvUDPAddressType@@QAE@XZ
  ??0ProvUInteger32@@QAE@ABV0@@Z=C:\Windows\SysWOW64\provthrd.??0ProvUInteger32@@QAE@ABV0@@Z
  ??0ProvUInteger32@@QAE@J@Z=C:\Windows\SysWOW64\provthrd.??0ProvUInteger32@@QAE@J@Z
  ??0ProvValue@@AAE@ABV0@@Z=C:\Windows\SysWOW64\provthrd.??0ProvValue@@AAE@ABV0@@Z
  ??0ProvValue@@IAE@XZ=C:\Windows\SysWOW64\provthrd.??0ProvValue@@IAE@XZ
  ??0QueryPreprocessor@@QAE@ABV0@@Z=C:\Windows\SysWOW64\provthrd.??0QueryPreprocessor@@QAE@ABV0@@Z
  ??0QueryPreprocessor@@QAE@XZ=C:\Windows\SysWOW64\provthrd.??0QueryPreprocessor@@QAE@XZ
  ??0WmiAndNode@@QAE@ABV0@@Z=C:\Windows\SysWOW64\provthrd.??0WmiAndNode@@QAE@ABV0@@Z
  ??0WmiAndNode@@QAE@PAVWmiTreeNode@@00@Z=C:\Windows\SysWOW64\provthrd.??0WmiAndNode@@QAE@PAVWmiTreeNode@@00@Z
  ??0WmiNotNode@@QAE@ABV0@@Z=C:\Windows\SysWOW64\provthrd.??0WmiNotNode@@QAE@ABV0@@Z
  ??0WmiNotNode@@QAE@PAVWmiTreeNode@@0@Z=C:\Windows\SysWOW64\provthrd.??0WmiNotNode@@QAE@PAVWmiTreeNode@@0@Z
  ??0WmiNullNode@@QAE@$$QAV0@@Z=C:\Windows\SysWOW64\provthrd.??0WmiNullNode@@QAE@$$QAV0@@Z
  ??0WmiNullNode@@QAE@ABV0@@Z=C:\Windows\SysWOW64\provthrd.??0WmiNullNode@@QAE@ABV0@@Z
  ??0WmiNullNode@@QAE@PAGKPAVWmiTreeNode@@@Z=C:\Windows\SysWOW64\provthrd.??0WmiNullNode@@QAE@PAGKPAVWmiTreeNode@@@Z
  ??0WmiNullRangeNode@@QAE@ABV0@@Z=C:\Windows\SysWOW64\provthrd.??0WmiNullRangeNode@@QAE@ABV0@@Z
  ??0WmiNullRangeNode@@QAE@PAGKPAVWmiTreeNode@@1@Z=C:\Windows\SysWOW64\provthrd.??0WmiNullRangeNode@@QAE@PAGKPAVWmiTreeNode@@1@Z
  ??0WmiOperatorEqualNode@@QAE@ABV0@@Z=C:\Windows\SysWOW64\provthrd.??0WmiOperatorEqualNode@@QAE@ABV0@@Z
  ??0WmiOperatorEqualNode@@QAE@PAVWmiTreeNode@@0@Z=C:\Windows\SysWOW64\provthrd.??0WmiOperatorEqualNode@@QAE@PAVWmiTreeNode@@0@Z
  ??0WmiOperatorEqualOrGreaterNode@@QAE@ABV0@@Z=C:\Windows\SysWOW64\provthrd.??0WmiOperatorEqualOrGreaterNode@@QAE@ABV0@@Z
  ??0WmiOperatorEqualOrGreaterNode@@QAE@PAVWmiTreeNode@@0@Z=C:\Windows\SysWOW64\provthrd.??0WmiOperatorEqualOrGreaterNode@@QAE@PAVWmiTreeNode@@0@Z
  ??0WmiOperatorEqualOrLessNode@@QAE@ABV0@@Z=C:\Windows\SysWOW64\provthrd.??0WmiOperatorEqualOrLessNode@@QAE@ABV0@@Z
  ??0WmiOperatorEqualOrLessNode@@QAE@PAVWmiTreeNode@@0@Z=C:\Windows\SysWOW64\provthrd.??0WmiOperatorEqualOrLessNode@@QAE@PAVWmiTreeNode@@0@Z
  ??0WmiOperatorGreaterNode@@QAE@ABV0@@Z=C:\Windows\SysWOW64\provthrd.??0WmiOperatorGreaterNode@@QAE@ABV0@@Z
  ??0WmiOperatorGreaterNode@@QAE@PAVWmiTreeNode@@0@Z=C:\Windows\SysWOW64\provthrd.??0WmiOperatorGreaterNode@@QAE@PAVWmiTreeNode@@0@Z
  ??0WmiOperatorIsANode@@QAE@ABV0@@Z=C:\Windows\SysWOW64\provthrd.??0WmiOperatorIsANode@@QAE@ABV0@@Z
  ??0WmiOperatorIsANode@@QAE@PAVWmiTreeNode@@0@Z=C:\Windows\SysWOW64\provthrd.??0WmiOperatorIsANode@@QAE@PAVWmiTreeNode@@0@Z
  ??0WmiOperatorLessNode@@QAE@ABV0@@Z=C:\Windows\SysWOW64\provthrd.??0WmiOperatorLessNode@@QAE@ABV0@@Z
  ??0WmiOperatorLessNode@@QAE@PAVWmiTreeNode@@0@Z=C:\Windows\SysWOW64\provthrd.??0WmiOperatorLessNode@@QAE@PAVWmiTreeNode@@0@Z
  ??0WmiOperatorLikeNode@@QAE@ABV0@@Z=C:\Windows\SysWOW64\provthrd.??0WmiOperatorLikeNode@@QAE@ABV0@@Z
  ??0WmiOperatorLikeNode@@QAE@PAVWmiTreeNode@@0@Z=C:\Windows\SysWOW64\provthrd.??0WmiOperatorLikeNode@@QAE@PAVWmiTreeNode@@0@Z
  ??0WmiOperatorNode@@QAE@ABV0@@Z=C:\Windows\SysWOW64\provthrd.??0WmiOperatorNode@@QAE@ABV0@@Z
  ??0WmiOperatorNode@@QAE@KPAVWmiTreeNode@@0@Z=C:\Windows\SysWOW64\provthrd.??0WmiOperatorNode@@QAE@KPAVWmiTreeNode@@0@Z
  ??0WmiOperatorNotEqualNode@@QAE@ABV0@@Z=C:\Windows\SysWOW64\provthrd.??0WmiOperatorNotEqualNode@@QAE@ABV0@@Z
  ??0WmiOperatorNotEqualNode@@QAE@PAVWmiTreeNode@@0@Z=C:\Windows\SysWOW64\provthrd.??0WmiOperatorNotEqualNode@@QAE@PAVWmiTreeNode@@0@Z
  ??0WmiOperatorNotIsANode@@QAE@ABV0@@Z=C:\Windows\SysWOW64\provthrd.??0WmiOperatorNotIsANode@@QAE@ABV0@@Z
  ??0WmiOperatorNotIsANode@@QAE@PAVWmiTreeNode@@0@Z=C:\Windows\SysWOW64\provthrd.??0WmiOperatorNotIsANode@@QAE@PAVWmiTreeNode@@0@Z
  ??0WmiOperatorNotLikeNode@@QAE@ABV0@@Z=C:\Windows\SysWOW64\provthrd.??0WmiOperatorNotLikeNode@@QAE@ABV0@@Z
  ??0WmiOperatorNotLikeNode@@QAE@PAVWmiTreeNode@@0@Z=C:\Windows\SysWOW64\provthrd.??0WmiOperatorNotLikeNode@@QAE@PAVWmiTreeNode@@0@Z
  ??0WmiOrNode@@QAE@ABV0@@Z=C:\Windows\SysWOW64\provthrd.??0WmiOrNode@@QAE@ABV0@@Z
  ??0WmiOrNode@@QAE@PAVWmiTreeNode@@00@Z=C:\Windows\SysWOW64\provthrd.??0WmiOrNode@@QAE@PAVWmiTreeNode@@00@Z
  ??0WmiRangeNode@@QAE@ABV0@@Z=C:\Windows\SysWOW64\provthrd.??0WmiRangeNode@@QAE@ABV0@@Z
  ??0WmiRangeNode@@QAE@KPAGKHHHHPAVWmiTreeNode@@1@Z=C:\Windows\SysWOW64\provthrd.??0WmiRangeNode@@QAE@KPAGKHHHHPAVWmiTreeNode@@1@Z
  ??0WmiSignedIntegerNode@@QAE@$$QAV0@@Z=C:\Windows\SysWOW64\provthrd.??0WmiSignedIntegerNode@@QAE@$$QAV0@@Z
  ??0WmiSignedIntegerNode@@QAE@ABV0@@Z=C:\Windows\SysWOW64\provthrd.??0WmiSignedIntegerNode@@QAE@ABV0@@Z
  ??0WmiSignedIntegerNode@@QAE@PAGJKPAVWmiTreeNode@@@Z=C:\Windows\SysWOW64\provthrd.??0WmiSignedIntegerNode@@QAE@PAGJKPAVWmiTreeNode@@@Z
  ??0WmiSignedIntegerRangeNode@@QAE@$$QAV0@@Z=C:\Windows\SysWOW64\provthrd.??0WmiSignedIntegerRangeNode@@QAE@$$QAV0@@Z
  ??0WmiSignedIntegerRangeNode@@QAE@ABV0@@Z=C:\Windows\SysWOW64\provthrd.??0WmiSignedIntegerRangeNode@@QAE@ABV0@@Z
  ??0WmiSignedIntegerRangeNode@@QAE@PAGKHHHHJJPAVWmiTreeNode@@1@Z=C:\Windows\SysWOW64\provthrd.??0WmiSignedIntegerRangeNode@@QAE@PAGKHHHHJJPAVWmiTreeNode@@1@Z
  ??0WmiStringNode@@QAE@ABV0@@Z=C:\Windows\SysWOW64\provthrd.??0WmiStringNode@@QAE@ABV0@@Z
  ??0WmiStringNode@@QAE@PAG0W4WmiValueFunction@WmiValueNode@@1KPAVWmiTreeNode@@@Z=C:\Windows\SysWOW64\provthrd.??0WmiStringNode@@QAE@PAG0W4WmiValueFunction@WmiValueNode@@1KPAVWmiTreeNode@@@Z
  ??0WmiStringRangeNode@@QAE@ABV0@@Z=C:\Windows\SysWOW64\provthrd.??0WmiStringRangeNode@@QAE@ABV0@@Z
  ??0WmiStringRangeNode@@QAE@PAGKHHHH00PAVWmiTreeNode@@1@Z=C:\Windows\SysWOW64\provthrd.??0WmiStringRangeNode@@QAE@PAGKHHHH00PAVWmiTreeNode@@1@Z
  ??0WmiTreeNode@@QAE@ABV0@@Z=C:\Windows\SysWOW64\provthrd.??0WmiTreeNode@@QAE@ABV0@@Z
  ??0WmiTreeNode@@QAE@KPAXPAV0@11@Z=C:\Windows\SysWOW64\provthrd.??0WmiTreeNode@@QAE@KPAXPAV0@11@Z
  ??0WmiTreeNode@@QAE@PAV0@@Z=C:\Windows\SysWOW64\provthrd.??0WmiTreeNode@@QAE@PAV0@@Z
  ??0WmiTreeNodeIterator@@QAE@ABV0@@Z=C:\Windows\SysWOW64\provthrd.??0WmiTreeNodeIterator@@QAE@ABV0@@Z
  ??0WmiTreeNodeIterator@@QAE@PAV0@@Z=C:\Windows\SysWOW64\provthrd.??0WmiTreeNodeIterator@@QAE@PAV0@@Z
  ??0WmiTreeNodeIterator@@QAE@PAVWmiTreeNode@@@Z=C:\Windows\SysWOW64\provthrd.??0WmiTreeNodeIterator@@QAE@PAVWmiTreeNode@@@Z
  ??0WmiUnsignedIntegerNode@@QAE@$$QAV0@@Z=C:\Windows\SysWOW64\provthrd.??0WmiUnsignedIntegerNode@@QAE@$$QAV0@@Z
  ??0WmiUnsignedIntegerNode@@QAE@ABV0@@Z=C:\Windows\SysWOW64\provthrd.??0WmiUnsignedIntegerNode@@QAE@ABV0@@Z
  ??0WmiUnsignedIntegerNode@@QAE@PAGKKPAVWmiTreeNode@@@Z=C:\Windows\SysWOW64\provthrd.??0WmiUnsignedIntegerNode@@QAE@PAGKKPAVWmiTreeNode@@@Z
  ??0WmiUnsignedIntegerRangeNode@@QAE@$$QAV0@@Z=C:\Windows\SysWOW64\provthrd.??0WmiUnsignedIntegerRangeNode@@QAE@$$QAV0@@Z
  ??0WmiUnsignedIntegerRangeNode@@QAE@ABV0@@Z=C:\Windows\SysWOW64\provthrd.??0WmiUnsignedIntegerRangeNode@@QAE@ABV0@@Z
  ??0WmiUnsignedIntegerRangeNode@@QAE@PAGKHHHHKKPAVWmiTreeNode@@1@Z=C:\Windows\SysWOW64\provthrd.??0WmiUnsignedIntegerRangeNode@@QAE@PAGKHHHHKKPAVWmiTreeNode@@1@Z
  ??0WmiValueNode@@QAE@ABV0@@Z=C:\Windows\SysWOW64\provthrd.??0WmiValueNode@@QAE@ABV0@@Z
  ??0WmiValueNode@@QAE@KPAGW4WmiValueFunction@0@1KPAVWmiTreeNode@@@Z=C:\Windows\SysWOW64\provthrd.??0WmiValueNode@@QAE@KPAGW4WmiValueFunction@0@1KPAVWmiTreeNode@@@Z
  ??1CBString@@QAE@XZ=C:\Windows\SysWOW64\provthrd.??1CBString@@QAE@XZ
  ??1Conjunctions@@QAE@XZ=C:\Windows\SysWOW64\provthrd.??1Conjunctions@@QAE@XZ
  ??1Disjunctions@@QAE@XZ=C:\Windows\SysWOW64\provthrd.??1Disjunctions@@QAE@XZ
  ??1PartitionSet@@UAE@XZ=C:\Windows\SysWOW64\provthrd.??1PartitionSet@@UAE@XZ
  ??1ProvAnalyser@@UAE@XZ=C:\Windows\SysWOW64\provthrd.??1ProvAnalyser@@UAE@XZ
  ??1ProvBitStringType@@UAE@XZ=C:\Windows\SysWOW64\provthrd.??1ProvBitStringType@@UAE@XZ
  ??1ProvCounter64@@UAE@XZ=C:\Windows\SysWOW64\provthrd.??1ProvCounter64@@UAE@XZ
  ??1ProvCounter64Type@@UAE@XZ=C:\Windows\SysWOW64\provthrd.??1ProvCounter64Type@@UAE@XZ
  ??1ProvCounter@@UAE@XZ=C:\Windows\SysWOW64\provthrd.??1ProvCounter@@UAE@XZ
  ??1ProvCounterType@@UAE@XZ=C:\Windows\SysWOW64\provthrd.??1ProvCounterType@@UAE@XZ
  ??1ProvDateTimeType@@UAE@XZ=C:\Windows\SysWOW64\provthrd.??1ProvDateTimeType@@UAE@XZ
  ??1ProvDisplayStringType@@UAE@XZ=C:\Windows\SysWOW64\provthrd.??1ProvDisplayStringType@@UAE@XZ
  ??1ProvEnumeratedType@@UAE@XZ=C:\Windows\SysWOW64\provthrd.??1ProvEnumeratedType@@UAE@XZ
  ??1ProvEventObject@@UAE@XZ=C:\Windows\SysWOW64\provthrd.??1ProvEventObject@@UAE@XZ
  ??1ProvFixedLengthDisplayStringType@@UAE@XZ=C:\Windows\SysWOW64\provthrd.??1ProvFixedLengthDisplayStringType@@UAE@XZ
  ??1ProvFixedLengthOctetStringType@@UAE@XZ=C:\Windows\SysWOW64\provthrd.??1ProvFixedLengthOctetStringType@@UAE@XZ
  ??1ProvFixedLengthOpaqueType@@UAE@XZ=C:\Windows\SysWOW64\provthrd.??1ProvFixedLengthOpaqueType@@UAE@XZ
  ??1ProvFixedLengthPhysAddressType@@UAE@XZ=C:\Windows\SysWOW64\provthrd.??1ProvFixedLengthPhysAddressType@@UAE@XZ
  ??1ProvFixedType@@UAE@XZ=C:\Windows\SysWOW64\provthrd.??1ProvFixedType@@UAE@XZ
  ??1ProvGauge@@UAE@XZ=C:\Windows\SysWOW64\provthrd.??1ProvGauge@@UAE@XZ
  ??1ProvGaugeType@@UAE@XZ=C:\Windows\SysWOW64\provthrd.??1ProvGaugeType@@UAE@XZ
  ??1ProvInstanceType@@UAE@XZ=C:\Windows\SysWOW64\provthrd.??1ProvInstanceType@@UAE@XZ
  ??1ProvInteger@@UAE@XZ=C:\Windows\SysWOW64\provthrd.??1ProvInteger@@UAE@XZ
  ??1ProvIntegerType@@UAE@XZ=C:\Windows\SysWOW64\provthrd.??1ProvIntegerType@@UAE@XZ
  ??1ProvIpAddress@@UAE@XZ=C:\Windows\SysWOW64\provthrd.??1ProvIpAddress@@UAE@XZ
  ??1ProvIpAddressType@@UAE@XZ=C:\Windows\SysWOW64\provthrd.??1ProvIpAddressType@@UAE@XZ
  ??1ProvLexicon@@QAE@XZ=C:\Windows\SysWOW64\provthrd.??1ProvLexicon@@QAE@XZ
  ??1ProvMacAddressType@@UAE@XZ=C:\Windows\SysWOW64\provthrd.??1ProvMacAddressType@@UAE@XZ
  ??1ProvNegativeRangeType@@UAE@XZ=C:\Windows\SysWOW64\provthrd.??1ProvNegativeRangeType@@UAE@XZ
  ??1ProvNetworkAddressType@@UAE@XZ=C:\Windows\SysWOW64\provthrd.??1ProvNetworkAddressType@@UAE@XZ
  ??1ProvNull@@UAE@XZ=C:\Windows\SysWOW64\provthrd.??1ProvNull@@UAE@XZ
  ??1ProvNullType@@UAE@XZ=C:\Windows\SysWOW64\provthrd.??1ProvNullType@@UAE@XZ
  ??1ProvOSIAddressType@@UAE@XZ=C:\Windows\SysWOW64\provthrd.??1ProvOSIAddressType@@UAE@XZ
  ??1ProvObjectIdentifier@@UAE@XZ=C:\Windows\SysWOW64\provthrd.??1ProvObjectIdentifier@@UAE@XZ
  ??1ProvObjectIdentifierType@@UAE@XZ=C:\Windows\SysWOW64\provthrd.??1ProvObjectIdentifierType@@UAE@XZ
  ??1ProvOctetString@@UAE@XZ=C:\Windows\SysWOW64\provthrd.??1ProvOctetString@@UAE@XZ
  ??1ProvOctetStringType@@UAE@XZ=C:\Windows\SysWOW64\provthrd.??1ProvOctetStringType@@UAE@XZ
  ??1ProvOpaque@@UAE@XZ=C:\Windows\SysWOW64\provthrd.??1ProvOpaque@@UAE@XZ
  ??1ProvOpaqueType@@UAE@XZ=C:\Windows\SysWOW64\provthrd.??1ProvOpaqueType@@UAE@XZ
  ??1ProvPhysAddressType@@UAE@XZ=C:\Windows\SysWOW64\provthrd.??1ProvPhysAddressType@@UAE@XZ
  ??1ProvPositiveRangeType@@UAE@XZ=C:\Windows\SysWOW64\provthrd.??1ProvPositiveRangeType@@UAE@XZ
  ??1ProvPositiveRangedType@@UAE@XZ=C:\Windows\SysWOW64\provthrd.??1ProvPositiveRangedType@@UAE@XZ
  ??1ProvRowStatusType@@UAE@XZ=C:\Windows\SysWOW64\provthrd.??1ProvRowStatusType@@UAE@XZ
  ??1ProvTimeTicks@@UAE@XZ=C:\Windows\SysWOW64\provthrd.??1ProvTimeTicks@@UAE@XZ
  ??1ProvTimeTicksType@@UAE@XZ=C:\Windows\SysWOW64\provthrd.??1ProvTimeTicksType@@UAE@XZ
  ??1ProvUDPAddressType@@UAE@XZ=C:\Windows\SysWOW64\provthrd.??1ProvUDPAddressType@@UAE@XZ
  ??1ProvUInteger32@@UAE@XZ=C:\Windows\SysWOW64\provthrd.??1ProvUInteger32@@UAE@XZ
  ??1ProvValue@@UAE@XZ=C:\Windows\SysWOW64\provthrd.??1ProvValue@@UAE@XZ
  ??1QueryPreprocessor@@UAE@XZ=C:\Windows\SysWOW64\provthrd.??1QueryPreprocessor@@UAE@XZ
  ??1WmiAndNode@@UAE@XZ=C:\Windows\SysWOW64\provthrd.??1WmiAndNode@@UAE@XZ
  ??1WmiNotNode@@UAE@XZ=C:\Windows\SysWOW64\provthrd.??1WmiNotNode@@UAE@XZ
  ??1WmiNullNode@@UAE@XZ=C:\Windows\SysWOW64\provthrd.??1WmiNullNode@@UAE@XZ
  ??1WmiNullRangeNode@@UAE@XZ=C:\Windows\SysWOW64\provthrd.??1WmiNullRangeNode@@UAE@XZ
  ??1WmiOperatorEqualNode@@UAE@XZ=C:\Windows\SysWOW64\provthrd.??1WmiOperatorEqualNode@@UAE@XZ
  ??1WmiOperatorEqualOrGreaterNode@@UAE@XZ=C:\Windows\SysWOW64\provthrd.??1WmiOperatorEqualOrGreaterNode@@UAE@XZ
  ??1WmiOperatorEqualOrLessNode@@UAE@XZ=C:\Windows\SysWOW64\provthrd.??1WmiOperatorEqualOrLessNode@@UAE@XZ
  ??1WmiOperatorGreaterNode@@UAE@XZ=C:\Windows\SysWOW64\provthrd.??1WmiOperatorGreaterNode@@UAE@XZ
  ??1WmiOperatorIsANode@@UAE@XZ=C:\Windows\SysWOW64\provthrd.??1WmiOperatorIsANode@@UAE@XZ
  ??1WmiOperatorLessNode@@UAE@XZ=C:\Windows\SysWOW64\provthrd.??1WmiOperatorLessNode@@UAE@XZ
  ??1WmiOperatorLikeNode@@UAE@XZ=C:\Windows\SysWOW64\provthrd.??1WmiOperatorLikeNode@@UAE@XZ
  ??1WmiOperatorNode@@UAE@XZ=C:\Windows\SysWOW64\provthrd.??1WmiOperatorNode@@UAE@XZ
  ??1WmiOperatorNotEqualNode@@UAE@XZ=C:\Windows\SysWOW64\provthrd.??1WmiOperatorNotEqualNode@@UAE@XZ
  ??1WmiOperatorNotIsANode@@UAE@XZ=C:\Windows\SysWOW64\provthrd.??1WmiOperatorNotIsANode@@UAE@XZ
  ??1WmiOperatorNotLikeNode@@UAE@XZ=C:\Windows\SysWOW64\provthrd.??1WmiOperatorNotLikeNode@@UAE@XZ
  ??1WmiOrNode@@UAE@XZ=C:\Windows\SysWOW64\provthrd.??1WmiOrNode@@UAE@XZ
  ??1WmiRangeNode@@UAE@XZ=C:\Windows\SysWOW64\provthrd.??1WmiRangeNode@@UAE@XZ
  ??1WmiSignedIntegerNode@@UAE@XZ=C:\Windows\SysWOW64\provthrd.??1WmiSignedIntegerNode@@UAE@XZ
  ??1WmiSignedIntegerRangeNode@@UAE@XZ=C:\Windows\SysWOW64\provthrd.??1WmiSignedIntegerRangeNode@@UAE@XZ
  ??1WmiStringNode@@UAE@XZ=C:\Windows\SysWOW64\provthrd.??1WmiStringNode@@UAE@XZ
  ??1WmiStringRangeNode@@UAE@XZ=C:\Windows\SysWOW64\provthrd.??1WmiStringRangeNode@@UAE@XZ
  ??1WmiTreeNode@@UAE@XZ=C:\Windows\SysWOW64\provthrd.??1WmiTreeNode@@UAE@XZ
  ??1WmiTreeNodeIterator@@UAE@XZ=C:\Windows\SysWOW64\provthrd.??1WmiTreeNodeIterator@@UAE@XZ
  ??1WmiUnsignedIntegerNode@@UAE@XZ=C:\Windows\SysWOW64\provthrd.??1WmiUnsignedIntegerNode@@UAE@XZ
  ??1WmiUnsignedIntegerRangeNode@@UAE@XZ=C:\Windows\SysWOW64\provthrd.??1WmiUnsignedIntegerRangeNode@@UAE@XZ
  ??1WmiValueNode@@UAE@XZ=C:\Windows\SysWOW64\provthrd.??1WmiValueNode@@UAE@XZ
  ??4CBString@@QAEAAV0@ABV0@@Z=C:\Windows\SysWOW64\provthrd.??4CBString@@QAEAAV0@ABV0@@Z
  ??4CBString@@QAEABV0@PBG@Z=C:\Windows\SysWOW64\provthrd.??4CBString@@QAEABV0@PBG@Z
  ??4Conjunctions@@QAEAAV0@ABV0@@Z=C:\Windows\SysWOW64\provthrd.??4Conjunctions@@QAEAAV0@ABV0@@Z
  ??4Disjunctions@@QAEAAV0@ABV0@@Z=C:\Windows\SysWOW64\provthrd.??4Disjunctions@@QAEAAV0@ABV0@@Z
  ??4PartitionSet@@QAEAAV0@ABV0@@Z=C:\Windows\SysWOW64\provthrd.??4PartitionSet@@QAEAAV0@ABV0@@Z
  ??4ProvAnalyser@@QAEAAV0@ABV0@@Z=C:\Windows\SysWOW64\provthrd.??4ProvAnalyser@@QAEAAV0@ABV0@@Z
  ??4ProvBitStringType@@QAEAAV0@ABV0@@Z=C:\Windows\SysWOW64\provthrd.??4ProvBitStringType@@QAEAAV0@ABV0@@Z
  ??4ProvCounter64@@QAEAAVProvValue@@ABV0@@Z=C:\Windows\SysWOW64\provthrd.??4ProvCounter64@@QAEAAVProvValue@@ABV0@@Z
  ??4ProvCounter64Type@@QAEAAV0@ABV0@@Z=C:\Windows\SysWOW64\provthrd.??4ProvCounter64Type@@QAEAAV0@ABV0@@Z
  ??4ProvCounter@@QAEAAVProvValue@@ABV0@@Z=C:\Windows\SysWOW64\provthrd.??4ProvCounter@@QAEAAVProvValue@@ABV0@@Z
  ??4ProvCounterType@@QAEAAV0@ABV0@@Z=C:\Windows\SysWOW64\provthrd.??4ProvCounterType@@QAEAAV0@ABV0@@Z
  ??4ProvDateTimeType@@QAEAAV0@ABV0@@Z=C:\Windows\SysWOW64\provthrd.??4ProvDateTimeType@@QAEAAV0@ABV0@@Z
  ??4ProvDebugLog@@QAEAAV0@$$QAV0@@Z=C:\Windows\SysWOW64\provthrd.??4ProvDebugLog@@QAEAAV0@$$QAV0@@Z
  ??4ProvDebugLog@@QAEAAV0@ABV0@@Z=C:\Windows\SysWOW64\provthrd.??4ProvDebugLog@@QAEAAV0@ABV0@@Z
  ??4ProvDisplayStringType@@QAEAAV0@ABV0@@Z=C:\Windows\SysWOW64\provthrd.??4ProvDisplayStringType@@QAEAAV0@ABV0@@Z
  ??4ProvEnumeratedType@@QAEAAV0@ABV0@@Z=C:\Windows\SysWOW64\provthrd.??4ProvEnumeratedType@@QAEAAV0@ABV0@@Z
  ??4ProvEventObject@@QAEAAV0@ABV0@@Z=C:\Windows\SysWOW64\provthrd.??4ProvEventObject@@QAEAAV0@ABV0@@Z
  ??4ProvFixedLengthDisplayStringType@@QAEAAV0@ABV0@@Z=C:\Windows\SysWOW64\provthrd.??4ProvFixedLengthDisplayStringType@@QAEAAV0@ABV0@@Z
  ??4ProvFixedLengthOctetStringType@@QAEAAV0@ABV0@@Z=C:\Windows\SysWOW64\provthrd.??4ProvFixedLengthOctetStringType@@QAEAAV0@ABV0@@Z
  ??4ProvFixedLengthOpaqueType@@QAEAAV0@ABV0@@Z=C:\Windows\SysWOW64\provthrd.??4ProvFixedLengthOpaqueType@@QAEAAV0@ABV0@@Z
  ??4ProvFixedLengthPhysAddressType@@QAEAAV0@ABV0@@Z=C:\Windows\SysWOW64\provthrd.??4ProvFixedLengthPhysAddressType@@QAEAAV0@ABV0@@Z
  ??4ProvFixedType@@QAEAAV0@ABV0@@Z=C:\Windows\SysWOW64\provthrd.??4ProvFixedType@@QAEAAV0@ABV0@@Z
  ??4ProvGauge@@QAEAAVProvValue@@ABV0@@Z=C:\Windows\SysWOW64\provthrd.??4ProvGauge@@QAEAAVProvValue@@ABV0@@Z
  ??4ProvGaugeType@@QAEAAV0@ABV0@@Z=C:\Windows\SysWOW64\provthrd.??4ProvGaugeType@@QAEAAV0@ABV0@@Z
  ??4ProvInstanceType@@QAEAAV0@ABV0@@Z=C:\Windows\SysWOW64\provthrd.??4ProvInstanceType@@QAEAAV0@ABV0@@Z
  ??4ProvInteger@@QAEAAVProvValue@@ABV0@@Z=C:\Windows\SysWOW64\provthrd.??4ProvInteger@@QAEAAVProvValue@@ABV0@@Z
  ??4ProvIntegerType@@QAEAAV0@ABV0@@Z=C:\Windows\SysWOW64\provthrd.??4ProvIntegerType@@QAEAAV0@ABV0@@Z
  ??4ProvIpAddress@@QAEAAVProvValue@@ABV0@@Z=C:\Windows\SysWOW64\provthrd.??4ProvIpAddress@@QAEAAVProvValue@@ABV0@@Z
  ??4ProvIpAddressType@@QAEAAV0@ABV0@@Z=C:\Windows\SysWOW64\provthrd.??4ProvIpAddressType@@QAEAAV0@ABV0@@Z
  ??4ProvLexicon@@QAEAAV0@ABV0@@Z=C:\Windows\SysWOW64\provthrd.??4ProvLexicon@@QAEAAV0@ABV0@@Z
  ??4ProvMacAddressType@@QAEAAV0@ABV0@@Z=C:\Windows\SysWOW64\provthrd.??4ProvMacAddressType@@QAEAAV0@ABV0@@Z
  ??4ProvNegativeRangeType@@QAEAAV0@ABV0@@Z=C:\Windows\SysWOW64\provthrd.??4ProvNegativeRangeType@@QAEAAV0@ABV0@@Z
  ??4ProvNetworkAddressType@@QAEAAV0@ABV0@@Z=C:\Windows\SysWOW64\provthrd.??4ProvNetworkAddressType@@QAEAAV0@ABV0@@Z
  ??4ProvNull@@QAEAAVProvValue@@ABV0@@Z=C:\Windows\SysWOW64\provthrd.??4ProvNull@@QAEAAVProvValue@@ABV0@@Z
  ??4ProvNullType@@QAEAAV0@ABV0@@Z=C:\Windows\SysWOW64\provthrd.??4ProvNullType@@QAEAAV0@ABV0@@Z
  ??4ProvOSIAddressType@@QAEAAV0@ABV0@@Z=C:\Windows\SysWOW64\provthrd.??4ProvOSIAddressType@@QAEAAV0@ABV0@@Z
  ??4ProvObjectIdentifier@@QAEAAVProvValue@@ABV0@@Z=C:\Windows\SysWOW64\provthrd.??4ProvObjectIdentifier@@QAEAAVProvValue@@ABV0@@Z
  ??4ProvObjectIdentifierType@@QAEAAV0@ABV0@@Z=C:\Windows\SysWOW64\provthrd.??4ProvObjectIdentifierType@@QAEAAV0@ABV0@@Z
  ??4ProvOctetString@@QAEAAVProvValue@@ABV0@@Z=C:\Windows\SysWOW64\provthrd.??4ProvOctetString@@QAEAAVProvValue@@ABV0@@Z
  ??4ProvOctetStringType@@QAEAAV0@ABV0@@Z=C:\Windows\SysWOW64\provthrd.??4ProvOctetStringType@@QAEAAV0@ABV0@@Z
  ??4ProvOpaque@@QAEAAVProvValue@@ABV0@@Z=C:\Windows\SysWOW64\provthrd.??4ProvOpaque@@QAEAAVProvValue@@ABV0@@Z
  ??4ProvOpaqueType@@QAEAAV0@ABV0@@Z=C:\Windows\SysWOW64\provthrd.??4ProvOpaqueType@@QAEAAV0@ABV0@@Z
  ??4ProvPhysAddressType@@QAEAAV0@ABV0@@Z=C:\Windows\SysWOW64\provthrd.??4ProvPhysAddressType@@QAEAAV0@ABV0@@Z
  ??4ProvPositiveRangeType@@QAEAAV0@ABV0@@Z=C:\Windows\SysWOW64\provthrd.??4ProvPositiveRangeType@@QAEAAV0@ABV0@@Z
  ??4ProvPositiveRangedType@@QAEAAV0@ABV0@@Z=C:\Windows\SysWOW64\provthrd.??4ProvPositiveRangedType@@QAEAAV0@ABV0@@Z
  ??4ProvRowStatusType@@QAEAAV0@ABV0@@Z=C:\Windows\SysWOW64\provthrd.??4ProvRowStatusType@@QAEAAV0@ABV0@@Z
  ??4ProvTimeTicks@@QAEAAVProvValue@@ABV0@@Z=C:\Windows\SysWOW64\provthrd.??4ProvTimeTicks@@QAEAAVProvValue@@ABV0@@Z
  ??4ProvTimeTicksType@@QAEAAV0@ABV0@@Z=C:\Windows\SysWOW64\provthrd.??4ProvTimeTicksType@@QAEAAV0@ABV0@@Z
  ??4ProvUDPAddressType@@QAEAAV0@ABV0@@Z=C:\Windows\SysWOW64\provthrd.??4ProvUDPAddressType@@QAEAAV0@ABV0@@Z
  ??4ProvUInteger32@@QAEAAVProvValue@@ABV0@@Z=C:\Windows\SysWOW64\provthrd.??4ProvUInteger32@@QAEAAVProvValue@@ABV0@@Z
  ??4ProvValue@@AAEAAV0@ABV0@@Z=C:\Windows\SysWOW64\provthrd.??4ProvValue@@AAEAAV0@ABV0@@Z
  ??4QueryPreprocessor@@QAEAAV0@ABV0@@Z=C:\Windows\SysWOW64\provthrd.??4QueryPreprocessor@@QAEAAV0@ABV0@@Z
  ??4WmiAndNode@@QAEAAV0@ABV0@@Z=C:\Windows\SysWOW64\provthrd.??4WmiAndNode@@QAEAAV0@ABV0@@Z
  ??4WmiNotNode@@QAEAAV0@ABV0@@Z=C:\Windows\SysWOW64\provthrd.??4WmiNotNode@@QAEAAV0@ABV0@@Z
  ??4WmiNullNode@@QAEAAV0@$$QAV0@@Z=C:\Windows\SysWOW64\provthrd.??4WmiNullNode@@QAEAAV0@$$QAV0@@Z
  ??4WmiNullNode@@QAEAAV0@ABV0@@Z=C:\Windows\SysWOW64\provthrd.??4WmiNullNode@@QAEAAV0@ABV0@@Z
  ??4WmiNullRangeNode@@QAEAAV0@ABV0@@Z=C:\Windows\SysWOW64\provthrd.??4WmiNullRangeNode@@QAEAAV0@ABV0@@Z
  ??4WmiOperatorEqualNode@@QAEAAV0@ABV0@@Z=C:\Windows\SysWOW64\provthrd.??4WmiOperatorEqualNode@@QAEAAV0@ABV0@@Z
  ??4WmiOperatorEqualOrGreaterNode@@QAEAAV0@ABV0@@Z=C:\Windows\SysWOW64\provthrd.??4WmiOperatorEqualOrGreaterNode@@QAEAAV0@ABV0@@Z
  ??4WmiOperatorEqualOrLessNode@@QAEAAV0@ABV0@@Z=C:\Windows\SysWOW64\provthrd.??4WmiOperatorEqualOrLessNode@@QAEAAV0@ABV0@@Z
  ??4WmiOperatorGreaterNode@@QAEAAV0@ABV0@@Z=C:\Windows\SysWOW64\provthrd.??4WmiOperatorGreaterNode@@QAEAAV0@ABV0@@Z
  ??4WmiOperatorIsANode@@QAEAAV0@ABV0@@Z=C:\Windows\SysWOW64\provthrd.??4WmiOperatorIsANode@@QAEAAV0@ABV0@@Z
  ??4WmiOperatorLessNode@@QAEAAV0@ABV0@@Z=C:\Windows\SysWOW64\provthrd.??4WmiOperatorLessNode@@QAEAAV0@ABV0@@Z
  ??4WmiOperatorLikeNode@@QAEAAV0@ABV0@@Z=C:\Windows\SysWOW64\provthrd.??4WmiOperatorLikeNode@@QAEAAV0@ABV0@@Z
  ??4WmiOperatorNode@@QAEAAV0@ABV0@@Z=C:\Windows\SysWOW64\provthrd.??4WmiOperatorNode@@QAEAAV0@ABV0@@Z
  ??4WmiOperatorNotEqualNode@@QAEAAV0@ABV0@@Z=C:\Windows\SysWOW64\provthrd.??4WmiOperatorNotEqualNode@@QAEAAV0@ABV0@@Z
  ??4WmiOperatorNotIsANode@@QAEAAV0@ABV0@@Z=C:\Windows\SysWOW64\provthrd.??4WmiOperatorNotIsANode@@QAEAAV0@ABV0@@Z
  ??4WmiOperatorNotLikeNode@@QAEAAV0@ABV0@@Z=C:\Windows\SysWOW64\provthrd.??4WmiOperatorNotLikeNode@@QAEAAV0@ABV0@@Z
  ??4WmiOrNode@@QAEAAV0@ABV0@@Z=C:\Windows\SysWOW64\provthrd.??4WmiOrNode@@QAEAAV0@ABV0@@Z
  ??4WmiRangeNode@@QAEAAV0@ABV0@@Z=C:\Windows\SysWOW64\provthrd.??4WmiRangeNode@@QAEAAV0@ABV0@@Z
  ??4WmiSignedIntegerNode@@QAEAAV0@$$QAV0@@Z=C:\Windows\SysWOW64\provthrd.??4WmiSignedIntegerNode@@QAEAAV0@$$QAV0@@Z
  ??4WmiSignedIntegerNode@@QAEAAV0@ABV0@@Z=C:\Windows\SysWOW64\provthrd.??4WmiSignedIntegerNode@@QAEAAV0@ABV0@@Z
  ??4WmiSignedIntegerRangeNode@@QAEAAV0@$$QAV0@@Z=C:\Windows\SysWOW64\provthrd.??4WmiSignedIntegerRangeNode@@QAEAAV0@$$QAV0@@Z
  ??4WmiSignedIntegerRangeNode@@QAEAAV0@ABV0@@Z=C:\Windows\SysWOW64\provthrd.??4WmiSignedIntegerRangeNode@@QAEAAV0@ABV0@@Z
  ??4WmiStringNode@@QAEAAV0@ABV0@@Z=C:\Windows\SysWOW64\provthrd.??4WmiStringNode@@QAEAAV0@ABV0@@Z
  ??4WmiStringRangeNode@@QAEAAV0@ABV0@@Z=C:\Windows\SysWOW64\provthrd.??4WmiStringRangeNode@@QAEAAV0@ABV0@@Z
  ??4WmiTreeNode@@QAEAAV0@ABV0@@Z=C:\Windows\SysWOW64\provthrd.??4WmiTreeNode@@QAEAAV0@ABV0@@Z
  ??4WmiTreeNodeIterator@@QAEAAV0@ABV0@@Z=C:\Windows\SysWOW64\provthrd.??4WmiTreeNodeIterator@@QAEAAV0@ABV0@@Z
  ??4WmiUnsignedIntegerNode@@QAEAAV0@$$QAV0@@Z=C:\Windows\SysWOW64\provthrd.??4WmiUnsignedIntegerNode@@QAEAAV0@$$QAV0@@Z
  ??4WmiUnsignedIntegerNode@@QAEAAV0@ABV0@@Z=C:\Windows\SysWOW64\provthrd.??4WmiUnsignedIntegerNode@@QAEAAV0@ABV0@@Z
  ??4WmiUnsignedIntegerRangeNode@@QAEAAV0@$$QAV0@@Z=C:\Windows\SysWOW64\provthrd.??4WmiUnsignedIntegerRangeNode@@QAEAAV0@$$QAV0@@Z
  ??4WmiUnsignedIntegerRangeNode@@QAEAAV0@ABV0@@Z=C:\Windows\SysWOW64\provthrd.??4WmiUnsignedIntegerRangeNode@@QAEAAV0@ABV0@@Z
  ??4WmiValueNode@@QAEAAV0@ABV0@@Z=C:\Windows\SysWOW64\provthrd.??4WmiValueNode@@QAEAAV0@ABV0@@Z
  ??8ProvInstanceType@@QBEHABV0@@Z=C:\Windows\SysWOW64\provthrd.??8ProvInstanceType@@QBEHABV0@@Z
  ??8ProvObjectIdentifier@@QBEHABV0@@Z=C:\Windows\SysWOW64\provthrd.??8ProvObjectIdentifier@@QBEHABV0@@Z
  ??8ProvValue@@QBEHABV0@@Z=C:\Windows\SysWOW64\provthrd.??8ProvValue@@QBEHABV0@@Z
  ??9ProvInstanceType@@QBEHABV0@@Z=C:\Windows\SysWOW64\provthrd.??9ProvInstanceType@@QBEHABV0@@Z
  ??9ProvObjectIdentifier@@QBEHABV0@@Z=C:\Windows\SysWOW64\provthrd.??9ProvObjectIdentifier@@QBEHABV0@@Z
  ??9ProvValue@@QBEHABV0@@Z=C:\Windows\SysWOW64\provthrd.??9ProvValue@@QBEHABV0@@Z
  ??AProvObjectIdentifier@@QBEAAKK@Z=C:\Windows\SysWOW64\provthrd.??AProvObjectIdentifier@@QBEAAKK@Z
  ??BProvAnalyser@@UAEPAXXZ=C:\Windows\SysWOW64\provthrd.??BProvAnalyser@@UAEPAXXZ
  ??BProvInstanceType@@UAEPAXXZ=C:\Windows\SysWOW64\provthrd.??BProvInstanceType@@UAEPAXXZ
  ??BProvPositiveRangedType@@UAEPAXXZ=C:\Windows\SysWOW64\provthrd.??BProvPositiveRangedType@@UAEPAXXZ
  ??HProvObjectIdentifier@@QBE?AV0@ABV0@@Z=C:\Windows\SysWOW64\provthrd.??HProvObjectIdentifier@@QBE?AV0@ABV0@@Z
  ??MProvObjectIdentifier@@QBEHABV0@@Z=C:\Windows\SysWOW64\provthrd.??MProvObjectIdentifier@@QBEHABV0@@Z
  ??NProvObjectIdentifier@@QBEHABV0@@Z=C:\Windows\SysWOW64\provthrd.??NProvObjectIdentifier@@QBEHABV0@@Z
  ??OProvObjectIdentifier@@QBEHABV0@@Z=C:\Windows\SysWOW64\provthrd.??OProvObjectIdentifier@@QBEHABV0@@Z
  ??PProvObjectIdentifier@@QBEHABV0@@Z=C:\Windows\SysWOW64\provthrd.??PProvObjectIdentifier@@QBEHABV0@@Z
  ??RProvIpAddress@@QBEPAXXZ=C:\Windows\SysWOW64\provthrd.??RProvIpAddress@@QBEPAXXZ
  ??RProvObjectIdentifier@@QBEPAXXZ=C:\Windows\SysWOW64\provthrd.??RProvObjectIdentifier@@QBEPAXXZ
  ??RProvOctetString@@QBEPAXXZ=C:\Windows\SysWOW64\provthrd.??RProvOctetString@@QBEPAXXZ
  ??RProvOpaque@@QBEPAXXZ=C:\Windows\SysWOW64\provthrd.??RProvOpaque@@QBEPAXXZ
  ??_7PartitionSet@@6B@=C:\Windows\SysWOW64\provthrd.??_7PartitionSet@@6B@
  ??_7ProvAnalyser@@6B@=C:\Windows\SysWOW64\provthrd.??_7ProvAnalyser@@6B@
  ??_7ProvBitStringType@@6BProvInstanceType@@@=C:\Windows\SysWOW64\provthrd.??_7ProvBitStringType@@6BProvInstanceType@@@
  ??_7ProvBitStringType@@6BProvPositiveRangedType@@@=C:\Windows\SysWOW64\provthrd.??_7ProvBitStringType@@6BProvPositiveRangedType@@@
  ??_7ProvCounter64@@6B@=C:\Windows\SysWOW64\provthrd.??_7ProvCounter64@@6B@
  ??_7ProvCounter64Type@@6B@=C:\Windows\SysWOW64\provthrd.??_7ProvCounter64Type@@6B@
  ??_7ProvCounter@@6B@=C:\Windows\SysWOW64\provthrd.??_7ProvCounter@@6B@
  ??_7ProvCounterType@@6B@=C:\Windows\SysWOW64\provthrd.??_7ProvCounterType@@6B@
  ??_7ProvDateTimeType@@6BProvInstanceType@@@=C:\Windows\SysWOW64\provthrd.??_7ProvDateTimeType@@6BProvInstanceType@@@
  ??_7ProvDateTimeType@@6BProvPositiveRangedType@@@=C:\Windows\SysWOW64\provthrd.??_7ProvDateTimeType@@6BProvPositiveRangedType@@@
  ??_7ProvDisplayStringType@@6BProvInstanceType@@@=C:\Windows\SysWOW64\provthrd.??_7ProvDisplayStringType@@6BProvInstanceType@@@
  ??_7ProvDisplayStringType@@6BProvPositiveRangedType@@@=C:\Windows\SysWOW64\provthrd.??_7ProvDisplayStringType@@6BProvPositiveRangedType@@@
  ??_7ProvEnumeratedType@@6BProvInstanceType@@@=C:\Windows\SysWOW64\provthrd.??_7ProvEnumeratedType@@6BProvInstanceType@@@
  ??_7ProvEnumeratedType@@6BProvNegativeRangedType@@@=C:\Windows\SysWOW64\provthrd.??_7ProvEnumeratedType@@6BProvNegativeRangedType@@@
  ??_7ProvEventObject@@6B@=C:\Windows\SysWOW64\provthrd.??_7ProvEventObject@@6B@
  ??_7ProvFixedLengthDisplayStringType@@6B@=C:\Windows\SysWOW64\provthrd.??_7ProvFixedLengthDisplayStringType@@6B@
  ??_7ProvFixedLengthDisplayStringType@@6BProvInstanceType@@@=C:\Windows\SysWOW64\provthrd.??_7ProvFixedLengthDisplayStringType@@6BProvInstanceType@@@
  ??_7ProvFixedLengthDisplayStringType@@6BProvPositiveRangedType@@@=C:\Windows\SysWOW64\provthrd.??_7ProvFixedLengthDisplayStringType@@6BProvPositiveRangedType@@@
  ??_7ProvFixedLengthOctetStringType@@6B@=C:\Windows\SysWOW64\provthrd.??_7ProvFixedLengthOctetStringType@@6B@
  ??_7ProvFixedLengthOctetStringType@@6BProvInstanceType@@@=C:\Windows\SysWOW64\provthrd.??_7ProvFixedLengthOctetStringType@@6BProvInstanceType@@@
  ??_7ProvFixedLengthOctetStringType@@6BProvPositiveRangedType@@@=C:\Windows\SysWOW64\provthrd.??_7ProvFixedLengthOctetStringType@@6BProvPositiveRangedType@@@
  ??_7ProvFixedLengthOpaqueType@@6B@=C:\Windows\SysWOW64\provthrd.??_7ProvFixedLengthOpaqueType@@6B@
  ??_7ProvFixedLengthOpaqueType@@6BProvInstanceType@@@=C:\Windows\SysWOW64\provthrd.??_7ProvFixedLengthOpaqueType@@6BProvInstanceType@@@
  ??_7ProvFixedLengthOpaqueType@@6BProvPositiveRangedType@@@=C:\Windows\SysWOW64\provthrd.??_7ProvFixedLengthOpaqueType@@6BProvPositiveRangedType@@@
  ??_7ProvFixedLengthPhysAddressType@@6B@=C:\Windows\SysWOW64\provthrd.??_7ProvFixedLengthPhysAddressType@@6B@
  ??_7ProvFixedLengthPhysAddressType@@6BProvInstanceType@@@=C:\Windows\SysWOW64\provthrd.??_7ProvFixedLengthPhysAddressType@@6BProvInstanceType@@@
  ??_7ProvFixedLengthPhysAddressType@@6BProvPositiveRangedType@@@=C:\Windows\SysWOW64\provthrd.??_7ProvFixedLengthPhysAddressType@@6BProvPositiveRangedType@@@
  ??_7ProvFixedType@@6B@=C:\Windows\SysWOW64\provthrd.??_7ProvFixedType@@6B@
  ??_7ProvGauge@@6B@=C:\Windows\SysWOW64\provthrd.??_7ProvGauge@@6B@
  ??_7ProvGaugeType@@6BProvInstanceType@@@=C:\Windows\SysWOW64\provthrd.??_7ProvGaugeType@@6BProvInstanceType@@@
  ??_7ProvGaugeType@@6BProvPositiveRangedType@@@=C:\Windows\SysWOW64\provthrd.??_7ProvGaugeType@@6BProvPositiveRangedType@@@
  ??_7ProvInstanceType@@6B@=C:\Windows\SysWOW64\provthrd.??_7ProvInstanceType@@6B@
  ??_7ProvInteger@@6B@=C:\Windows\SysWOW64\provthrd.??_7ProvInteger@@6B@
  ??_7ProvIntegerType@@6BProvInstanceType@@@=C:\Windows\SysWOW64\provthrd.??_7ProvIntegerType@@6BProvInstanceType@@@
  ??_7ProvIntegerType@@6BProvNegativeRangedType@@@=C:\Windows\SysWOW64\provthrd.??_7ProvIntegerType@@6BProvNegativeRangedType@@@
  ??_7ProvIpAddress@@6B@=C:\Windows\SysWOW64\provthrd.??_7ProvIpAddress@@6B@
  ??_7ProvIpAddressType@@6B@=C:\Windows\SysWOW64\provthrd.??_7ProvIpAddressType@@6B@
  ??_7ProvMacAddressType@@6B@=C:\Windows\SysWOW64\provthrd.??_7ProvMacAddressType@@6B@
  ??_7ProvMacAddressType@@6BProvInstanceType@@@=C:\Windows\SysWOW64\provthrd.??_7ProvMacAddressType@@6BProvInstanceType@@@
  ??_7ProvMacAddressType@@6BProvPositiveRangedType@@@=C:\Windows\SysWOW64\provthrd.??_7ProvMacAddressType@@6BProvPositiveRangedType@@@
  ??_7ProvNegativeRangeType@@6B@=C:\Windows\SysWOW64\provthrd.??_7ProvNegativeRangeType@@6B@
  ??_7ProvNetworkAddressType@@6B@=C:\Windows\SysWOW64\provthrd.??_7ProvNetworkAddressType@@6B@
  ??_7ProvNull@@6B@=C:\Windows\SysWOW64\provthrd.??_7ProvNull@@6B@
  ??_7ProvNullType@@6B@=C:\Windows\SysWOW64\provthrd.??_7ProvNullType@@6B@
  ??_7ProvOSIAddressType@@6BProvInstanceType@@@=C:\Windows\SysWOW64\provthrd.??_7ProvOSIAddressType@@6BProvInstanceType@@@
  ??_7ProvOSIAddressType@@6BProvPositiveRangedType@@@=C:\Windows\SysWOW64\provthrd.??_7ProvOSIAddressType@@6BProvPositiveRangedType@@@
  ??_7ProvObjectIdentifier@@6B@=C:\Windows\SysWOW64\provthrd.??_7ProvObjectIdentifier@@6B@
  ??_7ProvObjectIdentifierType@@6B@=C:\Windows\SysWOW64\provthrd.??_7ProvObjectIdentifierType@@6B@
  ??_7ProvOctetString@@6B@=C:\Windows\SysWOW64\provthrd.??_7ProvOctetString@@6B@
  ??_7ProvOctetStringType@@6BProvInstanceType@@@=C:\Windows\SysWOW64\provthrd.??_7ProvOctetStringType@@6BProvInstanceType@@@
  ??_7ProvOctetStringType@@6BProvPositiveRangedType@@@=C:\Windows\SysWOW64\provthrd.??_7ProvOctetStringType@@6BProvPositiveRangedType@@@
  ??_7ProvOpaque@@6B@=C:\Windows\SysWOW64\provthrd.??_7ProvOpaque@@6B@
  ??_7ProvOpaqueType@@6BProvInstanceType@@@=C:\Windows\SysWOW64\provthrd.??_7ProvOpaqueType@@6BProvInstanceType@@@
  ??_7ProvOpaqueType@@6BProvPositiveRangedType@@@=C:\Windows\SysWOW64\provthrd.??_7ProvOpaqueType@@6BProvPositiveRangedType@@@
  ??_7ProvPhysAddressType@@6BProvInstanceType@@@=C:\Windows\SysWOW64\provthrd.??_7ProvPhysAddressType@@6BProvInstanceType@@@
  ??_7ProvPhysAddressType@@6BProvPositiveRangedType@@@=C:\Windows\SysWOW64\provthrd.??_7ProvPhysAddressType@@6BProvPositiveRangedType@@@
  ??_7ProvPositiveRangeType@@6B@=C:\Windows\SysWOW64\provthrd.??_7ProvPositiveRangeType@@6B@
  ??_7ProvPositiveRangedType@@6B@=C:\Windows\SysWOW64\provthrd.??_7ProvPositiveRangedType@@6B@
  ??_7ProvRowStatusType@@6BProvInstanceType@@@=C:\Windows\SysWOW64\provthrd.??_7ProvRowStatusType@@6BProvInstanceType@@@
  ??_7ProvRowStatusType@@6BProvNegativeRangedType@@@=C:\Windows\SysWOW64\provthrd.??_7ProvRowStatusType@@6BProvNegativeRangedType@@@
  ??_7ProvTimeTicks@@6B@=C:\Windows\SysWOW64\provthrd.??_7ProvTimeTicks@@6B@
  ??_7ProvTimeTicksType@@6B@=C:\Windows\SysWOW64\provthrd.??_7ProvTimeTicksType@@6B@
  ??_7ProvUDPAddressType@@6B@=C:\Windows\SysWOW64\provthrd.??_7ProvUDPAddressType@@6B@
  ??_7ProvUDPAddressType@@6BProvInstanceType@@@=C:\Windows\SysWOW64\provthrd.??_7ProvUDPAddressType@@6BProvInstanceType@@@
  ??_7ProvUDPAddressType@@6BProvPositiveRangedType@@@=C:\Windows\SysWOW64\provthrd.??_7ProvUDPAddressType@@6BProvPositiveRangedType@@@
  ??_7ProvUInteger32@@6B@=C:\Windows\SysWOW64\provthrd.??_7ProvUInteger32@@6B@
  ??_7ProvValue@@6B@=C:\Windows\SysWOW64\provthrd.??_7ProvValue@@6B@
  ??_7QueryPreprocessor@@6B@=C:\Windows\SysWOW64\provthrd.??_7QueryPreprocessor@@6B@
  ??_7WmiAndNode@@6B@=C:\Windows\SysWOW64\provthrd.??_7WmiAndNode@@6B@
  ??_7WmiNotNode@@6B@=C:\Windows\SysWOW64\provthrd.??_7WmiNotNode@@6B@
  ??_7WmiNullNode@@6B@=C:\Windows\SysWOW64\provthrd.??_7WmiNullNode@@6B@
  ??_7WmiNullRangeNode@@6B@=C:\Windows\SysWOW64\provthrd.??_7WmiNullRangeNode@@6B@
  ??_7WmiOperatorEqualNode@@6B@=C:\Windows\SysWOW64\provthrd.??_7WmiOperatorEqualNode@@6B@
  ??_7WmiOperatorEqualOrGreaterNode@@6B@=C:\Windows\SysWOW64\provthrd.??_7WmiOperatorEqualOrGreaterNode@@6B@
  ??_7WmiOperatorEqualOrLessNode@@6B@=C:\Windows\SysWOW64\provthrd.??_7WmiOperatorEqualOrLessNode@@6B@
  ??_7WmiOperatorGreaterNode@@6B@=C:\Windows\SysWOW64\provthrd.??_7WmiOperatorGreaterNode@@6B@
  ??_7WmiOperatorIsANode@@6B@=C:\Windows\SysWOW64\provthrd.??_7WmiOperatorIsANode@@6B@
  ??_7WmiOperatorLessNode@@6B@=C:\Windows\SysWOW64\provthrd.??_7WmiOperatorLessNode@@6B@
  ??_7WmiOperatorLikeNode@@6B@=C:\Windows\SysWOW64\provthrd.??_7WmiOperatorLikeNode@@6B@
  ??_7WmiOperatorNode@@6B@=C:\Windows\SysWOW64\provthrd.??_7WmiOperatorNode@@6B@
  ??_7WmiOperatorNotEqualNode@@6B@=C:\Windows\SysWOW64\provthrd.??_7WmiOperatorNotEqualNode@@6B@
  ??_7WmiOperatorNotIsANode@@6B@=C:\Windows\SysWOW64\provthrd.??_7WmiOperatorNotIsANode@@6B@
  ??_7WmiOperatorNotLikeNode@@6B@=C:\Windows\SysWOW64\provthrd.??_7WmiOperatorNotLikeNode@@6B@
  ??_7WmiOrNode@@6B@=C:\Windows\SysWOW64\provthrd.??_7WmiOrNode@@6B@
  ??_7WmiRangeNode@@6B@=C:\Windows\SysWOW64\provthrd.??_7WmiRangeNode@@6B@
  ??_7WmiSignedIntegerNode@@6B@=C:\Windows\SysWOW64\provthrd.??_7WmiSignedIntegerNode@@6B@
  ??_7WmiSignedIntegerRangeNode@@6B@=C:\Windows\SysWOW64\provthrd.??_7WmiSignedIntegerRangeNode@@6B@
  ??_7WmiStringNode@@6B@=C:\Windows\SysWOW64\provthrd.??_7WmiStringNode@@6B@
  ??_7WmiStringRangeNode@@6B@=C:\Windows\SysWOW64\provthrd.??_7WmiStringRangeNode@@6B@
  ??_7WmiTreeNode@@6B@=C:\Windows\SysWOW64\provthrd.??_7WmiTreeNode@@6B@
  ??_7WmiTreeNodeIterator@@6B@=C:\Windows\SysWOW64\provthrd.??_7WmiTreeNodeIterator@@6B@
  ??_7WmiUnsignedIntegerNode@@6B@=C:\Windows\SysWOW64\provthrd.??_7WmiUnsignedIntegerNode@@6B@
  ??_7WmiUnsignedIntegerRangeNode@@6B@=C:\Windows\SysWOW64\provthrd.??_7WmiUnsignedIntegerRangeNode@@6B@
  ??_7WmiValueNode@@6B@=C:\Windows\SysWOW64\provthrd.??_7WmiValueNode@@6B@
  ??_FProvAnalyser@@QAEXXZ=C:\Windows\SysWOW64\provthrd.??_FProvAnalyser@@QAEXXZ
  ??_FProvDisplayStringType@@QAEXXZ=C:\Windows\SysWOW64\provthrd.??_FProvDisplayStringType@@QAEXXZ
  ??_FProvEventObject@@QAEXXZ=C:\Windows\SysWOW64\provthrd.??_FProvEventObject@@QAEXXZ
  ??_FProvGaugeType@@QAEXXZ=C:\Windows\SysWOW64\provthrd.??_FProvGaugeType@@QAEXXZ
  ??_FProvInstanceType@@QAEXXZ=C:\Windows\SysWOW64\provthrd.??_FProvInstanceType@@QAEXXZ
  ??_FProvIntegerType@@QAEXXZ=C:\Windows\SysWOW64\provthrd.??_FProvIntegerType@@QAEXXZ
  ??_FProvOctetStringType@@QAEXXZ=C:\Windows\SysWOW64\provthrd.??_FProvOctetStringType@@QAEXXZ
  ??_FProvOpaqueType@@QAEXXZ=C:\Windows\SysWOW64\provthrd.??_FProvOpaqueType@@QAEXXZ
  ??_FProvPhysAddressType@@QAEXXZ=C:\Windows\SysWOW64\provthrd.??_FProvPhysAddressType@@QAEXXZ
  ??_FProvPositiveRangedType@@QAEXXZ=C:\Windows\SysWOW64\provthrd.??_FProvPositiveRangedType@@QAEXXZ
  ??_FWmiAndNode@@QAEXXZ=C:\Windows\SysWOW64\provthrd.??_FWmiAndNode@@QAEXXZ
  ??_FWmiNotNode@@QAEXXZ=C:\Windows\SysWOW64\provthrd.??_FWmiNotNode@@QAEXXZ
  ??_FWmiOperatorEqualNode@@QAEXXZ=C:\Windows\SysWOW64\provthrd.??_FWmiOperatorEqualNode@@QAEXXZ
  ??_FWmiOperatorEqualOrGreaterNode@@QAEXXZ=C:\Windows\SysWOW64\provthrd.??_FWmiOperatorEqualOrGreaterNode@@QAEXXZ
  ??_FWmiOperatorEqualOrLessNode@@QAEXXZ=C:\Windows\SysWOW64\provthrd.??_FWmiOperatorEqualOrLessNode@@QAEXXZ
  ??_FWmiOperatorGreaterNode@@QAEXXZ=C:\Windows\SysWOW64\provthrd.??_FWmiOperatorGreaterNode@@QAEXXZ
  ??_FWmiOperatorIsANode@@QAEXXZ=C:\Windows\SysWOW64\provthrd.??_FWmiOperatorIsANode@@QAEXXZ
  ??_FWmiOperatorLessNode@@QAEXXZ=C:\Windows\SysWOW64\provthrd.??_FWmiOperatorLessNode@@QAEXXZ
  ??_FWmiOperatorLikeNode@@QAEXXZ=C:\Windows\SysWOW64\provthrd.??_FWmiOperatorLikeNode@@QAEXXZ
  ??_FWmiOperatorNotEqualNode@@QAEXXZ=C:\Windows\SysWOW64\provthrd.??_FWmiOperatorNotEqualNode@@QAEXXZ
  ??_FWmiOperatorNotIsANode@@QAEXXZ=C:\Windows\SysWOW64\provthrd.??_FWmiOperatorNotIsANode@@QAEXXZ
  ??_FWmiOperatorNotLikeNode@@QAEXXZ=C:\Windows\SysWOW64\provthrd.??_FWmiOperatorNotLikeNode@@QAEXXZ
  ??_FWmiOrNode@@QAEXXZ=C:\Windows\SysWOW64\provthrd.??_FWmiOrNode@@QAEXXZ
  ??_FWmiTreeNode@@QAEXXZ=C:\Windows\SysWOW64\provthrd.??_FWmiTreeNode@@QAEXXZ
  ?AllocInfiniteRangeNode@QueryPreprocessor@@MAEPAVWmiRangeNode@@PAXPAG@Z=C:\Windows\SysWOW64\provthrd.?AllocInfiniteRangeNode@QueryPreprocessor@@MAEPAVWmiRangeNode@@PAXPAG@Z
  ?AllocTypeNode@QueryPreprocessor@@MAEPAVWmiTreeNode@@PAXPAGAAUtagVARIANT@@W4WmiValueFunction@WmiValueNode@@3PAV2@@Z=C:\Windows\SysWOW64\provthrd.?AllocTypeNode@QueryPreprocessor@@MAEPAVWmiTreeNode@@PAXPAGAAUtagVARIANT@@W4WmiValueFunction@WmiValueNode@@3PAV2@@Z
  ?Analyse@ProvAnalyser@@MAEHPAVProvLexicon@@AAKGPBG1HHH@Z=C:\Windows\SysWOW64\provthrd.?Analyse@ProvAnalyser@@MAEHPAVProvLexicon@@AAKGPBG1HHH@Z
  ?BitStringDef@ProvBitStringType@@AAEHXZ=C:\Windows\SysWOW64\provthrd.?BitStringDef@ProvBitStringType@@AAEHXZ
  ?Check@ProvPositiveRangedType@@QAEHABK@Z=C:\Windows\SysWOW64\provthrd.?Check@ProvPositiveRangedType@@QAEHABK@Z
  ?Clear@ProvEventObject@@QAEXXZ=C:\Windows\SysWOW64\provthrd.?Clear@ProvEventObject@@QAEXXZ
  ?ClosedLowerBound@WmiRangeNode@@QAEHXZ=C:\Windows\SysWOW64\provthrd.?ClosedLowerBound@WmiRangeNode@@QAEHXZ
  ?ClosedUpperBound@WmiRangeNode@@QAEHXZ=C:\Windows\SysWOW64\provthrd.?ClosedUpperBound@WmiRangeNode@@QAEHXZ
  ?Closedown@ProvDebugLog@@SGXXZ=C:\Windows\SysWOW64\provthrd.?Closedown@ProvDebugLog@@SGXXZ
  ?Compare@ProvObjectIdentifier@@IBE?AW4Comparison@1@ABV1@0@Z=C:\Windows\SysWOW64\provthrd.?Compare@ProvObjectIdentifier@@IBE?AW4Comparison@1@ABV1@0@Z
  ?ComparePropertyName@WmiRangeNode@@QAEJAAV1@@Z=C:\Windows\SysWOW64\provthrd.?ComparePropertyName@WmiRangeNode@@QAEJAAV1@@Z
  ?ComparePropertyName@WmiValueNode@@QAEJAAV1@@Z=C:\Windows\SysWOW64\provthrd.?ComparePropertyName@WmiValueNode@@QAEJAAV1@@Z
  ?Complete@ProvEventObject@@UAEXXZ=C:\Windows\SysWOW64\provthrd.?Complete@ProvEventObject@@UAEXXZ
  ?ConvertToRanges@QueryPreprocessor@@IAE?AW4WmiTriState@@AAPAVWmiTreeNode@@@Z=C:\Windows\SysWOW64\provthrd.?ConvertToRanges@QueryPreprocessor@@IAE?AW4WmiTriState@@AAPAVWmiTreeNode@@@Z
  ?Copy@ProvBitStringType@@UBEPAVProvInstanceType@@XZ=C:\Windows\SysWOW64\provthrd.?Copy@ProvBitStringType@@UBEPAVProvInstanceType@@XZ
  ?Copy@ProvCounter64@@UBEPAVProvValue@@XZ=C:\Windows\SysWOW64\provthrd.?Copy@ProvCounter64@@UBEPAVProvValue@@XZ
  ?Copy@ProvCounter64Type@@UBEPAVProvInstanceType@@XZ=C:\Windows\SysWOW64\provthrd.?Copy@ProvCounter64Type@@UBEPAVProvInstanceType@@XZ
  ?Copy@ProvCounter@@UBEPAVProvValue@@XZ=C:\Windows\SysWOW64\provthrd.?Copy@ProvCounter@@UBEPAVProvValue@@XZ
  ?Copy@ProvCounterType@@UBEPAVProvInstanceType@@XZ=C:\Windows\SysWOW64\provthrd.?Copy@ProvCounterType@@UBEPAVProvInstanceType@@XZ
  ?Copy@ProvDateTimeType@@UBEPAVProvInstanceType@@XZ=C:\Windows\SysWOW64\provthrd.?Copy@ProvDateTimeType@@UBEPAVProvInstanceType@@XZ
  ?Copy@ProvDisplayStringType@@UBEPAVProvInstanceType@@XZ=C:\Windows\SysWOW64\provthrd.?Copy@ProvDisplayStringType@@UBEPAVProvInstanceType@@XZ
  ?Copy@ProvEnumeratedType@@UBEPAVProvInstanceType@@XZ=C:\Windows\SysWOW64\provthrd.?Copy@ProvEnumeratedType@@UBEPAVProvInstanceType@@XZ
  ?Copy@ProvFixedLengthDisplayStringType@@UBEPAVProvInstanceType@@XZ=C:\Windows\SysWOW64\provthrd.?Copy@ProvFixedLengthDisplayStringType@@UBEPAVProvInstanceType@@XZ
  ?Copy@ProvFixedLengthOctetStringType@@UBEPAVProvInstanceType@@XZ=C:\Windows\SysWOW64\provthrd.?Copy@ProvFixedLengthOctetStringType@@UBEPAVProvInstanceType@@XZ
  ?Copy@ProvFixedLengthOpaqueType@@UBEPAVProvInstanceType@@XZ=C:\Windows\SysWOW64\provthrd.?Copy@ProvFixedLengthOpaqueType@@UBEPAVProvInstanceType@@XZ
  ?Copy@ProvFixedLengthPhysAddressType@@UBEPAVProvInstanceType@@XZ=C:\Windows\SysWOW64\provthrd.?Copy@ProvFixedLengthPhysAddressType@@UBEPAVProvInstanceType@@XZ
  ?Copy@ProvGauge@@UBEPAVProvValue@@XZ=C:\Windows\SysWOW64\provthrd.?Copy@ProvGauge@@UBEPAVProvValue@@XZ
  ?Copy@ProvGaugeType@@UBEPAVProvInstanceType@@XZ=C:\Windows\SysWOW64\provthrd.?Copy@ProvGaugeType@@UBEPAVProvInstanceType@@XZ
  ?Copy@ProvInteger@@UBEPAVProvValue@@XZ=C:\Windows\SysWOW64\provthrd.?Copy@ProvInteger@@UBEPAVProvValue@@XZ
  ?Copy@ProvIntegerType@@UBEPAVProvInstanceType@@XZ=C:\Windows\SysWOW64\provthrd.?Copy@ProvIntegerType@@UBEPAVProvInstanceType@@XZ
  ?Copy@ProvIpAddress@@UBEPAVProvValue@@XZ=C:\Windows\SysWOW64\provthrd.?Copy@ProvIpAddress@@UBEPAVProvValue@@XZ
  ?Copy@ProvIpAddressType@@UBEPAVProvInstanceType@@XZ=C:\Windows\SysWOW64\provthrd.?Copy@ProvIpAddressType@@UBEPAVProvInstanceType@@XZ
  ?Copy@ProvMacAddressType@@UBEPAVProvInstanceType@@XZ=C:\Windows\SysWOW64\provthrd.?Copy@ProvMacAddressType@@UBEPAVProvInstanceType@@XZ
  ?Copy@ProvNegativeRangeType@@UAEPAV1@XZ=C:\Windows\SysWOW64\provthrd.?Copy@ProvNegativeRangeType@@UAEPAV1@XZ
  ?Copy@ProvNetworkAddressType@@UBEPAVProvInstanceType@@XZ=C:\Windows\SysWOW64\provthrd.?Copy@ProvNetworkAddressType@@UBEPAVProvInstanceType@@XZ
  ?Copy@ProvNull@@UBEPAVProvValue@@XZ=C:\Windows\SysWOW64\provthrd.?Copy@ProvNull@@UBEPAVProvValue@@XZ
  ?Copy@ProvNullType@@UBEPAVProvInstanceType@@XZ=C:\Windows\SysWOW64\provthrd.?Copy@ProvNullType@@UBEPAVProvInstanceType@@XZ
  ?Copy@ProvOSIAddressType@@UBEPAVProvInstanceType@@XZ=C:\Windows\SysWOW64\provthrd.?Copy@ProvOSIAddressType@@UBEPAVProvInstanceType@@XZ
  ?Copy@ProvObjectIdentifier@@UBEPAVProvValue@@XZ=C:\Windows\SysWOW64\provthrd.?Copy@ProvObjectIdentifier@@UBEPAVProvValue@@XZ
  ?Copy@ProvObjectIdentifierType@@UBEPAVProvInstanceType@@XZ=C:\Windows\SysWOW64\provthrd.?Copy@ProvObjectIdentifierType@@UBEPAVProvInstanceType@@XZ
  ?Copy@ProvOctetString@@UBEPAVProvValue@@XZ=C:\Windows\SysWOW64\provthrd.?Copy@ProvOctetString@@UBEPAVProvValue@@XZ
  ?Copy@ProvOctetStringType@@UBEPAVProvInstanceType@@XZ=C:\Windows\SysWOW64\provthrd.?Copy@ProvOctetStringType@@UBEPAVProvInstanceType@@XZ
  ?Copy@ProvOpaque@@UBEPAVProvValue@@XZ=C:\Windows\SysWOW64\provthrd.?Copy@ProvOpaque@@UBEPAVProvValue@@XZ
  ?Copy@ProvOpaqueType@@UBEPAVProvInstanceType@@XZ=C:\Windows\SysWOW64\provthrd.?Copy@ProvOpaqueType@@UBEPAVProvInstanceType@@XZ
  ?Copy@ProvPhysAddressType@@UBEPAVProvInstanceType@@XZ=C:\Windows\SysWOW64\provthrd.?Copy@ProvPhysAddressType@@UBEPAVProvInstanceType@@XZ
  ?Copy@ProvPositiveRangeType@@UAEPAV1@XZ=C:\Windows\SysWOW64\provthrd.?Copy@ProvPositiveRangeType@@UAEPAV1@XZ
  ?Copy@ProvRowStatusType@@UBEPAVProvInstanceType@@XZ=C:\Windows\SysWOW64\provthrd.?Copy@ProvRowStatusType@@UBEPAVProvInstanceType@@XZ
  ?Copy@ProvTimeTicks@@UBEPAVProvValue@@XZ=C:\Windows\SysWOW64\provthrd.?Copy@ProvTimeTicks@@UBEPAVProvValue@@XZ
  ?Copy@ProvTimeTicksType@@UBEPAVProvInstanceType@@XZ=C:\Windows\SysWOW64\provthrd.?Copy@ProvTimeTicksType@@UBEPAVProvInstanceType@@XZ
  ?Copy@ProvUDPAddressType@@UBEPAVProvInstanceType@@XZ=C:\Windows\SysWOW64\provthrd.?Copy@ProvUDPAddressType@@UBEPAVProvInstanceType@@XZ
  ?Copy@ProvUInteger32@@UBEPAVProvValue@@XZ=C:\Windows\SysWOW64\provthrd.?Copy@ProvUInteger32@@UBEPAVProvValue@@XZ
  ?Copy@WmiAndNode@@UAEPAVWmiTreeNode@@XZ=C:\Windows\SysWOW64\provthrd.?Copy@WmiAndNode@@UAEPAVWmiTreeNode@@XZ
  ?Copy@WmiNotNode@@UAEPAVWmiTreeNode@@XZ=C:\Windows\SysWOW64\provthrd.?Copy@WmiNotNode@@UAEPAVWmiTreeNode@@XZ
  ?Copy@WmiNullNode@@UAEPAVWmiTreeNode@@XZ=C:\Windows\SysWOW64\provthrd.?Copy@WmiNullNode@@UAEPAVWmiTreeNode@@XZ
  ?Copy@WmiNullRangeNode@@UAEPAVWmiTreeNode@@XZ=C:\Windows\SysWOW64\provthrd.?Copy@WmiNullRangeNode@@UAEPAVWmiTreeNode@@XZ
  ?Copy@WmiOperatorEqualNode@@UAEPAVWmiTreeNode@@XZ=C:\Windows\SysWOW64\provthrd.?Copy@WmiOperatorEqualNode@@UAEPAVWmiTreeNode@@XZ
  ?Copy@WmiOperatorEqualOrGreaterNode@@UAEPAVWmiTreeNode@@XZ=C:\Windows\SysWOW64\provthrd.?Copy@WmiOperatorEqualOrGreaterNode@@UAEPAVWmiTreeNode@@XZ
  ?Copy@WmiOperatorEqualOrLessNode@@UAEPAVWmiTreeNode@@XZ=C:\Windows\SysWOW64\provthrd.?Copy@WmiOperatorEqualOrLessNode@@UAEPAVWmiTreeNode@@XZ
  ?Copy@WmiOperatorGreaterNode@@UAEPAVWmiTreeNode@@XZ=C:\Windows\SysWOW64\provthrd.?Copy@WmiOperatorGreaterNode@@UAEPAVWmiTreeNode@@XZ
  ?Copy@WmiOperatorIsANode@@UAEPAVWmiTreeNode@@XZ=C:\Windows\SysWOW64\provthrd.?Copy@WmiOperatorIsANode@@UAEPAVWmiTreeNode@@XZ
  ?Copy@WmiOperatorLessNode@@UAEPAVWmiTreeNode@@XZ=C:\Windows\SysWOW64\provthrd.?Copy@WmiOperatorLessNode@@UAEPAVWmiTreeNode@@XZ
  ?Copy@WmiOperatorLikeNode@@UAEPAVWmiTreeNode@@XZ=C:\Windows\SysWOW64\provthrd.?Copy@WmiOperatorLikeNode@@UAEPAVWmiTreeNode@@XZ
  ?Copy@WmiOperatorNotEqualNode@@UAEPAVWmiTreeNode@@XZ=C:\Windows\SysWOW64\provthrd.?Copy@WmiOperatorNotEqualNode@@UAEPAVWmiTreeNode@@XZ
  ?Copy@WmiOperatorNotIsANode@@UAEPAVWmiTreeNode@@XZ=C:\Windows\SysWOW64\provthrd.?Copy@WmiOperatorNotIsANode@@UAEPAVWmiTreeNode@@XZ
  ?Copy@WmiOperatorNotLikeNode@@UAEPAVWmiTreeNode@@XZ=C:\Windows\SysWOW64\provthrd.?Copy@WmiOperatorNotLikeNode@@UAEPAVWmiTreeNode@@XZ
  ?Copy@WmiOrNode@@UAEPAVWmiTreeNode@@XZ=C:\Windows\SysWOW64\provthrd.?Copy@WmiOrNode@@UAEPAVWmiTreeNode@@XZ
  ?Copy@WmiSignedIntegerNode@@UAEPAVWmiTreeNode@@XZ=C:\Windows\SysWOW64\provthrd.?Copy@WmiSignedIntegerNode@@UAEPAVWmiTreeNode@@XZ
  ?Copy@WmiSignedIntegerRangeNode@@UAEPAVWmiTreeNode@@XZ=C:\Windows\SysWOW64\provthrd.?Copy@WmiSignedIntegerRangeNode@@UAEPAVWmiTreeNode@@XZ
  ?Copy@WmiStringNode@@UAEPAVWmiTreeNode@@XZ=C:\Windows\SysWOW64\provthrd.?Copy@WmiStringNode@@UAEPAVWmiTreeNode@@XZ
  ?Copy@WmiStringRangeNode@@UAEPAVWmiTreeNode@@XZ=C:\Windows\SysWOW64\provthrd.?Copy@WmiStringRangeNode@@UAEPAVWmiTreeNode@@XZ
  ?Copy@WmiTreeNode@@UAEPAV1@XZ=C:\Windows\SysWOW64\provthrd.?Copy@WmiTreeNode@@UAEPAV1@XZ
  ?Copy@WmiTreeNodeIterator@@UAEPAV1@XZ=C:\Windows\SysWOW64\provthrd.?Copy@WmiTreeNodeIterator@@UAEPAV1@XZ
  ?Copy@WmiUnsignedIntegerNode@@UAEPAVWmiTreeNode@@XZ=C:\Windows\SysWOW64\provthrd.?Copy@WmiUnsignedIntegerNode@@UAEPAVWmiTreeNode@@XZ
  ?Copy@WmiUnsignedIntegerRangeNode@@UAEPAVWmiTreeNode@@XZ=C:\Windows\SysWOW64\provthrd.?Copy@WmiUnsignedIntegerRangeNode@@UAEPAVWmiTreeNode@@XZ
  ?CopyNode@WmiTreeNode@@UAEPAV1@XZ=C:\Windows\SysWOW64\provthrd.?CopyNode@WmiTreeNode@@UAEPAV1@XZ
  ?CountDisjunctions@QueryPreprocessor@@IAEXPAVWmiTreeNode@@AAK@Z=C:\Windows\SysWOW64\provthrd.?CountDisjunctions@QueryPreprocessor@@IAEXPAVWmiTreeNode@@AAK@Z
  ?CreateDisjunctionContainer@QueryPreprocessor@@IAE?AW4WmiTriState@@PAXPAVWmiTreeNode@@KPAPAGAAPAVDisjunctions@@@Z=C:\Windows\SysWOW64\provthrd.?CreateDisjunctionContainer@QueryPreprocessor@@IAE?AW4WmiTriState@@PAXPAVWmiTreeNode@@KPAPAGAAPAVDisjunctions@@@Z
  ?CreateDisjunctions@QueryPreprocessor@@IAE?AW4WmiTriState@@PAXPAVWmiTreeNode@@PAVDisjunctions@@KPAPAGAAK@Z=C:\Windows\SysWOW64\provthrd.?CreateDisjunctions@QueryPreprocessor@@IAE?AW4WmiTriState@@PAXPAVWmiTreeNode@@PAVDisjunctions@@KPAPAGAAK@Z
  ?CreateLexicon@ProvAnalyser@@MAEPAVProvLexicon@@XZ=C:\Windows\SysWOW64\provthrd.?CreateLexicon@ProvAnalyser@@MAEPAVProvLexicon@@XZ
  ?CreatePartitionSet@QueryPreprocessor@@IAE?AW4WmiTriState@@PAVDisjunctions@@AAPAVPartitionSet@@@Z=C:\Windows\SysWOW64\provthrd.?CreatePartitionSet@QueryPreprocessor@@IAE?AW4WmiTriState@@PAVDisjunctions@@AAPAVPartitionSet@@@Z
  ?Cut@ProvObjectIdentifier@@QBEPAV1@AAV1@@Z=C:\Windows\SysWOW64\provthrd.?Cut@ProvObjectIdentifier@@QBEPAV1@AAV1@@Z
  ?DateTimeDef@ProvDateTimeType@@AAEHXZ=C:\Windows\SysWOW64\provthrd.?DateTimeDef@ProvDateTimeType@@AAEHXZ
  ?DbcsToUnicodeString@@YGPAGPBD@Z=C:\Windows\SysWOW64\provthrd.?DbcsToUnicodeString@@YGPAGPBD@Z
  ?DecCharToDecInteger@ProvAnalyser@@SGKD@Z=C:\Windows\SysWOW64\provthrd.?DecCharToDecInteger@ProvAnalyser@@SGKD@Z
  ?DecIntegerToDecChar@ProvAnalyser@@SGDE@Z=C:\Windows\SysWOW64\provthrd.?DecIntegerToDecChar@ProvAnalyser@@SGDE@Z
  ?DecIntegerToDecWChar@ProvAnalyser@@SGGE@Z=C:\Windows\SysWOW64\provthrd.?DecIntegerToDecWChar@ProvAnalyser@@SGGE@Z
  ?DecIntegerToHexChar@ProvAnalyser@@SGDE@Z=C:\Windows\SysWOW64\provthrd.?DecIntegerToHexChar@ProvAnalyser@@SGDE@Z
  ?DecIntegerToHexWChar@ProvAnalyser@@SGGE@Z=C:\Windows\SysWOW64\provthrd.?DecIntegerToHexWChar@ProvAnalyser@@SGGE@Z
  ?DecIntegerToOctChar@ProvAnalyser@@SGDE@Z=C:\Windows\SysWOW64\provthrd.?DecIntegerToOctChar@ProvAnalyser@@SGDE@Z
  ?DecIntegerToOctWChar@ProvAnalyser@@SGGE@Z=C:\Windows\SysWOW64\provthrd.?DecIntegerToOctWChar@ProvAnalyser@@SGGE@Z
  ?DecWCharToDecInteger@ProvAnalyser@@SGKG@Z=C:\Windows\SysWOW64\provthrd.?DecWCharToDecInteger@ProvAnalyser@@SGKG@Z
  ?DisjunctiveNormalForm@QueryPreprocessor@@IAE?AW4QuadState@1@AAPAVWmiTreeNode@@@Z=C:\Windows\SysWOW64\provthrd.?DisjunctiveNormalForm@QueryPreprocessor@@IAE?AW4QuadState@1@AAPAVWmiTreeNode@@@Z
  ?Encode@ProvDateTimeType@@AAEXABK0000000000@Z=C:\Windows\SysWOW64\provthrd.?Encode@ProvDateTimeType@@AAEXABK0000000000@Z
  ?EnumerationDef@ProvEnumeratedType@@AAEHXZ=C:\Windows\SysWOW64\provthrd.?EnumerationDef@ProvEnumeratedType@@AAEHXZ
  ?Equivalent@ProvCounter64@@MBEHABVProvValue@@@Z=C:\Windows\SysWOW64\provthrd.?Equivalent@ProvCounter64@@MBEHABVProvValue@@@Z
  ?Equivalent@ProvCounter64@@QBEHABV1@@Z=C:\Windows\SysWOW64\provthrd.?Equivalent@ProvCounter64@@QBEHABV1@@Z
  ?Equivalent@ProvCounter64Type@@MBEHABVProvInstanceType@@@Z=C:\Windows\SysWOW64\provthrd.?Equivalent@ProvCounter64Type@@MBEHABVProvInstanceType@@@Z
  ?Equivalent@ProvCounter@@MBEHABVProvValue@@@Z=C:\Windows\SysWOW64\provthrd.?Equivalent@ProvCounter@@MBEHABVProvValue@@@Z
  ?Equivalent@ProvCounter@@QBEHABV1@@Z=C:\Windows\SysWOW64\provthrd.?Equivalent@ProvCounter@@QBEHABV1@@Z
  ?Equivalent@ProvCounterType@@MBEHABVProvInstanceType@@@Z=C:\Windows\SysWOW64\provthrd.?Equivalent@ProvCounterType@@MBEHABVProvInstanceType@@@Z
  ?Equivalent@ProvGauge@@MBEHABVProvValue@@@Z=C:\Windows\SysWOW64\provthrd.?Equivalent@ProvGauge@@MBEHABVProvValue@@@Z
  ?Equivalent@ProvGauge@@QBEHABV1@@Z=C:\Windows\SysWOW64\provthrd.?Equivalent@ProvGauge@@QBEHABV1@@Z
  ?Equivalent@ProvGaugeType@@MBEHABVProvInstanceType@@@Z=C:\Windows\SysWOW64\provthrd.?Equivalent@ProvGaugeType@@MBEHABVProvInstanceType@@@Z
  ?Equivalent@ProvInteger@@MBEHABVProvValue@@@Z=C:\Windows\SysWOW64\provthrd.?Equivalent@ProvInteger@@MBEHABVProvValue@@@Z
  ?Equivalent@ProvInteger@@QBEHABV1@@Z=C:\Windows\SysWOW64\provthrd.?Equivalent@ProvInteger@@QBEHABV1@@Z
  ?Equivalent@ProvIntegerType@@MBEHABVProvInstanceType@@@Z=C:\Windows\SysWOW64\provthrd.?Equivalent@ProvIntegerType@@MBEHABVProvInstanceType@@@Z
  ?Equivalent@ProvIpAddress@@MBEHABVProvValue@@@Z=C:\Windows\SysWOW64\provthrd.?Equivalent@ProvIpAddress@@MBEHABVProvValue@@@Z
  ?Equivalent@ProvIpAddress@@QBEHABV1@@Z=C:\Windows\SysWOW64\provthrd.?Equivalent@ProvIpAddress@@QBEHABV1@@Z
  ?Equivalent@ProvIpAddressType@@MBEHABVProvInstanceType@@@Z=C:\Windows\SysWOW64\provthrd.?Equivalent@ProvIpAddressType@@MBEHABVProvInstanceType@@@Z
  ?Equivalent@ProvNetworkAddressType@@MBEHABVProvInstanceType@@@Z=C:\Windows\SysWOW64\provthrd.?Equivalent@ProvNetworkAddressType@@MBEHABVProvInstanceType@@@Z
  ?Equivalent@ProvNull@@MBEHABVProvValue@@@Z=C:\Windows\SysWOW64\provthrd.?Equivalent@ProvNull@@MBEHABVProvValue@@@Z
  ?Equivalent@ProvNullType@@MBEHABVProvInstanceType@@@Z=C:\Windows\SysWOW64\provthrd.?Equivalent@ProvNullType@@MBEHABVProvInstanceType@@@Z
  ?Equivalent@ProvObjectIdentifier@@IBEHABV1@@Z=C:\Windows\SysWOW64\provthrd.?Equivalent@ProvObjectIdentifier@@IBEHABV1@@Z
  ?Equivalent@ProvObjectIdentifier@@MBEHABVProvValue@@@Z=C:\Windows\SysWOW64\provthrd.?Equivalent@ProvObjectIdentifier@@MBEHABVProvValue@@@Z
  ?Equivalent@ProvObjectIdentifier@@QBEHABV1@K@Z=C:\Windows\SysWOW64\provthrd.?Equivalent@ProvObjectIdentifier@@QBEHABV1@K@Z
  ?Equivalent@ProvObjectIdentifierType@@MBEHABVProvInstanceType@@@Z=C:\Windows\SysWOW64\provthrd.?Equivalent@ProvObjectIdentifierType@@MBEHABVProvInstanceType@@@Z
  ?Equivalent@ProvOctetString@@MBEHABVProvValue@@@Z=C:\Windows\SysWOW64\provthrd.?Equivalent@ProvOctetString@@MBEHABVProvValue@@@Z
  ?Equivalent@ProvOctetString@@QBEHABV1@@Z=C:\Windows\SysWOW64\provthrd.?Equivalent@ProvOctetString@@QBEHABV1@@Z
  ?Equivalent@ProvOctetStringType@@MBEHABVProvInstanceType@@@Z=C:\Windows\SysWOW64\provthrd.?Equivalent@ProvOctetStringType@@MBEHABVProvInstanceType@@@Z
  ?Equivalent@ProvOpaque@@MBEHABVProvValue@@@Z=C:\Windows\SysWOW64\provthrd.?Equivalent@ProvOpaque@@MBEHABVProvValue@@@Z
  ?Equivalent@ProvOpaque@@QBEHABV1@@Z=C:\Windows\SysWOW64\provthrd.?Equivalent@ProvOpaque@@QBEHABV1@@Z
  ?Equivalent@ProvOpaqueType@@MBEHABVProvInstanceType@@@Z=C:\Windows\SysWOW64\provthrd.?Equivalent@ProvOpaqueType@@MBEHABVProvInstanceType@@@Z
  ?Equivalent@ProvTimeTicks@@MBEHABVProvValue@@@Z=C:\Windows\SysWOW64\provthrd.?Equivalent@ProvTimeTicks@@MBEHABVProvValue@@@Z
  ?Equivalent@ProvTimeTicks@@QBEHABV1@@Z=C:\Windows\SysWOW64\provthrd.?Equivalent@ProvTimeTicks@@QBEHABV1@@Z
  ?Equivalent@ProvTimeTicksType@@MBEHABVProvInstanceType@@@Z=C:\Windows\SysWOW64\provthrd.?Equivalent@ProvTimeTicksType@@MBEHABVProvInstanceType@@@Z
  ?Equivalent@ProvUInteger32@@MBEHABVProvValue@@@Z=C:\Windows\SysWOW64\provthrd.?Equivalent@ProvUInteger32@@MBEHABVProvValue@@@Z
  ?Equivalent@ProvUInteger32@@QBEHABV1@@Z=C:\Windows\SysWOW64\provthrd.?Equivalent@ProvUInteger32@@QBEHABV1@@Z
  ?Evaluate@QueryPreprocessor@@IAEHPAXAAUSQL_LEVEL_1_RPN_EXPRESSION@@PAPAVWmiTreeNode@@@Z=C:\Windows\SysWOW64\provthrd.?Evaluate@QueryPreprocessor@@IAEHPAXAAUSQL_LEVEL_1_RPN_EXPRESSION@@PAPAVWmiTreeNode@@@Z
  ?EvaluateAndExpression@QueryPreprocessor@@IAE?AW4WmiTriState@@AAPAVWmiTreeNode@@@Z=C:\Windows\SysWOW64\provthrd.?EvaluateAndExpression@QueryPreprocessor@@IAE?AW4WmiTriState@@AAPAVWmiTreeNode@@@Z
  ?EvaluateNotEqualExpression@QueryPreprocessor@@IAE?AW4WmiTriState@@AAPAVWmiTreeNode@@@Z=C:\Windows\SysWOW64\provthrd.?EvaluateNotEqualExpression@QueryPreprocessor@@IAE?AW4WmiTriState@@AAPAVWmiTreeNode@@@Z
  ?EvaluateNotExpression@QueryPreprocessor@@IAE?AW4WmiTriState@@AAPAVWmiTreeNode@@@Z=C:\Windows\SysWOW64\provthrd.?EvaluateNotExpression@QueryPreprocessor@@IAE?AW4WmiTriState@@AAPAVWmiTreeNode@@@Z
  ?EvaluateOrExpression@QueryPreprocessor@@IAE?AW4WmiTriState@@AAPAVWmiTreeNode@@@Z=C:\Windows\SysWOW64\provthrd.?EvaluateOrExpression@QueryPreprocessor@@IAE?AW4WmiTriState@@AAPAVWmiTreeNode@@@Z
  ?Get@ProvAnalyser@@QAEPAVProvLexicon@@HHH@Z=C:\Windows\SysWOW64\provthrd.?Get@ProvAnalyser@@QAEPAVProvLexicon@@HHH@Z
  ?Get@ProvBitStringType@@AAEPAVProvLexicon@@XZ=C:\Windows\SysWOW64\provthrd.?Get@ProvBitStringType@@AAEPAVProvLexicon@@XZ
  ?Get@ProvDateTimeType@@AAEPAVProvLexicon@@XZ=C:\Windows\SysWOW64\provthrd.?Get@ProvDateTimeType@@AAEPAVProvLexicon@@XZ
  ?Get@ProvEnumeratedType@@AAEPAVProvLexicon@@XZ=C:\Windows\SysWOW64\provthrd.?Get@ProvEnumeratedType@@AAEPAVProvLexicon@@XZ
  ?Get@ProvPositiveRangedType@@IAEPAVProvLexicon@@XZ=C:\Windows\SysWOW64\provthrd.?Get@ProvPositiveRangedType@@IAEPAVProvLexicon@@XZ
  ?GetAllocatedString@ProvObjectIdentifier@@QBEPADXZ=C:\Windows\SysWOW64\provthrd.?GetAllocatedString@ProvObjectIdentifier@@QBEPADXZ
  ?GetConjunctionCount@Disjunctions@@QAEKXZ=C:\Windows\SysWOW64\provthrd.?GetConjunctionCount@Disjunctions@@QAEKXZ
  ?GetConstantFunction@WmiValueNode@@QAE?AW4WmiValueFunction@1@XZ=C:\Windows\SysWOW64\provthrd.?GetConstantFunction@WmiValueNode@@QAE?AW4WmiValueFunction@1@XZ
  ?GetData@WmiTreeNode@@QAEPAXXZ=C:\Windows\SysWOW64\provthrd.?GetData@WmiTreeNode@@QAEPAXXZ
  ?GetData@WmiTreeNode@@QAEXPAPAX@Z=C:\Windows\SysWOW64\provthrd.?GetData@WmiTreeNode@@QAEXPAPAX@Z
  ?GetDisjunction@Disjunctions@@QAEPAVConjunctions@@K@Z=C:\Windows\SysWOW64\provthrd.?GetDisjunction@Disjunctions@@QAEPAVConjunctions@@K@Z
  ?GetDisjunctionCount@Disjunctions@@QAEKXZ=C:\Windows\SysWOW64\provthrd.?GetDisjunctionCount@Disjunctions@@QAEKXZ
  ?GetHandle@ProvEventObject@@QAEPAXXZ=C:\Windows\SysWOW64\provthrd.?GetHandle@ProvEventObject@@QAEPAXXZ
  ?GetHighValue@ProvCounter64@@QBEKXZ=C:\Windows\SysWOW64\provthrd.?GetHighValue@ProvCounter64@@QBEKXZ
  ?GetIndex@WmiRangeNode@@QAEKXZ=C:\Windows\SysWOW64\provthrd.?GetIndex@WmiRangeNode@@QAEKXZ
  ?GetIndex@WmiValueNode@@QAEKXZ=C:\Windows\SysWOW64\provthrd.?GetIndex@WmiValueNode@@QAEKXZ
  ?GetIntersectingRange@WmiSignedIntegerRangeNode@@QAE?AW4WmiTriState@@AAV1@AAPAV1@@Z=C:\Windows\SysWOW64\provthrd.?GetIntersectingRange@WmiSignedIntegerRangeNode@@QAE?AW4WmiTriState@@AAV1@AAPAV1@@Z
  ?GetIntersectingRange@WmiStringRangeNode@@QAE?AW4WmiTriState@@AAV1@AAPAV1@@Z=C:\Windows\SysWOW64\provthrd.?GetIntersectingRange@WmiStringRangeNode@@QAE?AW4WmiTriState@@AAV1@AAPAV1@@Z
  ?GetIntersectingRange@WmiUnsignedIntegerRangeNode@@QAE?AW4WmiTriState@@AAV1@AAPAV1@@Z=C:\Windows\SysWOW64\provthrd.?GetIntersectingRange@WmiUnsignedIntegerRangeNode@@QAE?AW4WmiTriState@@AAV1@AAPAV1@@Z
  ?GetIterator@WmiTreeNodeIterator@@QAEPAVWmiTreeNode@@XZ=C:\Windows\SysWOW64\provthrd.?GetIterator@WmiTreeNodeIterator@@QAEPAVWmiTreeNode@@XZ
  ?GetKeyIndex@PartitionSet@@QAEKXZ=C:\Windows\SysWOW64\provthrd.?GetKeyIndex@PartitionSet@@QAEKXZ
  ?GetLeft@WmiTreeNode@@QAEPAV1@XZ=C:\Windows\SysWOW64\provthrd.?GetLeft@WmiTreeNode@@QAEPAV1@XZ
  ?GetLeft@WmiTreeNode@@QAEXAAPAPAV1@@Z=C:\Windows\SysWOW64\provthrd.?GetLeft@WmiTreeNode@@QAEXAAPAPAV1@@Z
  ?GetLevel@ProvDebugLog@@QAEKXZ=C:\Windows\SysWOW64\provthrd.?GetLevel@ProvDebugLog@@QAEKXZ
  ?GetLogging@ProvDebugLog@@QAEHXZ=C:\Windows\SysWOW64\provthrd.?GetLogging@ProvDebugLog@@QAEHXZ
  ?GetLowValue@ProvCounter64@@QBEKXZ=C:\Windows\SysWOW64\provthrd.?GetLowValue@ProvCounter64@@QBEKXZ
  ?GetLowerBound@ProvNegativeRangeType@@QAEJXZ=C:\Windows\SysWOW64\provthrd.?GetLowerBound@ProvNegativeRangeType@@QAEJXZ
  ?GetLowerBound@ProvPositiveRangeType@@QAEKXZ=C:\Windows\SysWOW64\provthrd.?GetLowerBound@ProvPositiveRangeType@@QAEKXZ
  ?GetOverlappingRange@WmiSignedIntegerRangeNode@@QAE?AW4WmiTriState@@AAV1@AAPAV1@@Z=C:\Windows\SysWOW64\provthrd.?GetOverlappingRange@WmiSignedIntegerRangeNode@@QAE?AW4WmiTriState@@AAV1@AAPAV1@@Z
  ?GetOverlappingRange@WmiStringRangeNode@@QAE?AW4WmiTriState@@AAV1@AAPAV1@@Z=C:\Windows\SysWOW64\provthrd.?GetOverlappingRange@WmiStringRangeNode@@QAE?AW4WmiTriState@@AAV1@AAPAV1@@Z
  ?GetOverlappingRange@WmiUnsignedIntegerRangeNode@@QAE?AW4WmiTriState@@AAV1@AAPAV1@@Z=C:\Windows\SysWOW64\provthrd.?GetOverlappingRange@WmiUnsignedIntegerRangeNode@@QAE?AW4WmiTriState@@AAV1@AAPAV1@@Z
  ?GetParent@WmiTreeNode@@QAEPAV1@XZ=C:\Windows\SysWOW64\provthrd.?GetParent@WmiTreeNode@@QAEPAV1@XZ
  ?GetParent@WmiTreeNode@@QAEXAAPAPAV1@@Z=C:\Windows\SysWOW64\provthrd.?GetParent@WmiTreeNode@@QAEXAAPAPAV1@@Z
  ?GetPartition@PartitionSet@@QAEPAV1@K@Z=C:\Windows\SysWOW64\provthrd.?GetPartition@PartitionSet@@QAEPAV1@K@Z
  ?GetPartitionCount@PartitionSet@@QAEKXZ=C:\Windows\SysWOW64\provthrd.?GetPartitionCount@PartitionSet@@QAEKXZ
  ?GetPropertyFunction@WmiValueNode@@QAE?AW4WmiValueFunction@1@XZ=C:\Windows\SysWOW64\provthrd.?GetPropertyFunction@WmiValueNode@@QAE?AW4WmiValueFunction@1@XZ
  ?GetPropertyName@WmiRangeNode@@QAEPAGXZ=C:\Windows\SysWOW64\provthrd.?GetPropertyName@WmiRangeNode@@QAEPAGXZ
  ?GetPropertyName@WmiValueNode@@QAEPAGXZ=C:\Windows\SysWOW64\provthrd.?GetPropertyName@WmiValueNode@@QAEPAGXZ
  ?GetProvDebugLog@ProvDebugLog@@SGPAV1@D@Z=C:\Windows\SysWOW64\provthrd.?GetProvDebugLog@ProvDebugLog@@SGPAV1@D@Z
  ?GetRange@Conjunctions@@QAEPAVWmiRangeNode@@K@Z=C:\Windows\SysWOW64\provthrd.?GetRange@Conjunctions@@QAEPAVWmiRangeNode@@K@Z
  ?GetRange@PartitionSet@@QAEPAVWmiRangeNode@@XZ=C:\Windows\SysWOW64\provthrd.?GetRange@PartitionSet@@QAEPAVWmiRangeNode@@XZ
  ?GetRange@WmiOperatorEqualNode@@UAEPAVWmiRangeNode@@XZ=C:\Windows\SysWOW64\provthrd.?GetRange@WmiOperatorEqualNode@@UAEPAVWmiRangeNode@@XZ
  ?GetRange@WmiOperatorEqualOrGreaterNode@@UAEPAVWmiRangeNode@@XZ=C:\Windows\SysWOW64\provthrd.?GetRange@WmiOperatorEqualOrGreaterNode@@UAEPAVWmiRangeNode@@XZ
  ?GetRange@WmiOperatorEqualOrLessNode@@UAEPAVWmiRangeNode@@XZ=C:\Windows\SysWOW64\provthrd.?GetRange@WmiOperatorEqualOrLessNode@@UAEPAVWmiRangeNode@@XZ
  ?GetRange@WmiOperatorGreaterNode@@UAEPAVWmiRangeNode@@XZ=C:\Windows\SysWOW64\provthrd.?GetRange@WmiOperatorGreaterNode@@UAEPAVWmiRangeNode@@XZ
  ?GetRange@WmiOperatorIsANode@@UAEPAVWmiRangeNode@@XZ=C:\Windows\SysWOW64\provthrd.?GetRange@WmiOperatorIsANode@@UAEPAVWmiRangeNode@@XZ
  ?GetRange@WmiOperatorLessNode@@UAEPAVWmiRangeNode@@XZ=C:\Windows\SysWOW64\provthrd.?GetRange@WmiOperatorLessNode@@UAEPAVWmiRangeNode@@XZ
  ?GetRange@WmiOperatorLikeNode@@UAEPAVWmiRangeNode@@XZ=C:\Windows\SysWOW64\provthrd.?GetRange@WmiOperatorLikeNode@@UAEPAVWmiRangeNode@@XZ
  ?GetRange@WmiOperatorNotEqualNode@@UAEPAVWmiRangeNode@@XZ=C:\Windows\SysWOW64\provthrd.?GetRange@WmiOperatorNotEqualNode@@UAEPAVWmiRangeNode@@XZ
  ?GetRange@WmiOperatorNotIsANode@@UAEPAVWmiRangeNode@@XZ=C:\Windows\SysWOW64\provthrd.?GetRange@WmiOperatorNotIsANode@@UAEPAVWmiRangeNode@@XZ
  ?GetRange@WmiOperatorNotLikeNode@@UAEPAVWmiRangeNode@@XZ=C:\Windows\SysWOW64\provthrd.?GetRange@WmiOperatorNotLikeNode@@UAEPAVWmiRangeNode@@XZ
  ?GetRangeCount@Conjunctions@@QAEKXZ=C:\Windows\SysWOW64\provthrd.?GetRangeCount@Conjunctions@@QAEKXZ
  ?GetRight@WmiTreeNode@@QAEPAV1@XZ=C:\Windows\SysWOW64\provthrd.?GetRight@WmiTreeNode@@QAEPAV1@XZ
  ?GetRight@WmiTreeNode@@QAEXAAPAPAV1@@Z=C:\Windows\SysWOW64\provthrd.?GetRight@WmiTreeNode@@QAEXAAPAPAV1@@Z
  ?GetRowStatus@ProvRowStatusType@@QBE?AW4ProvRowStatusEnum@1@XZ=C:\Windows\SysWOW64\provthrd.?GetRowStatus@ProvRowStatusType@@QBE?AW4ProvRowStatusEnum@1@XZ
  ?GetString@CBString@@QAEPAGXZ=C:\Windows\SysWOW64\provthrd.?GetString@CBString@@QAEPAGXZ
  ?GetStringValue@ProvBitStringType@@UBEPAGXZ=C:\Windows\SysWOW64\provthrd.?GetStringValue@ProvBitStringType@@UBEPAGXZ
  ?GetStringValue@ProvCounter64Type@@UBEPAGXZ=C:\Windows\SysWOW64\provthrd.?GetStringValue@ProvCounter64Type@@UBEPAGXZ
  ?GetStringValue@ProvCounterType@@UBEPAGXZ=C:\Windows\SysWOW64\provthrd.?GetStringValue@ProvCounterType@@UBEPAGXZ
  ?GetStringValue@ProvDateTimeType@@UBEPAGXZ=C:\Windows\SysWOW64\provthrd.?GetStringValue@ProvDateTimeType@@UBEPAGXZ
  ?GetStringValue@ProvDisplayStringType@@UBEPAGXZ=C:\Windows\SysWOW64\provthrd.?GetStringValue@ProvDisplayStringType@@UBEPAGXZ
  ?GetStringValue@ProvEnumeratedType@@UBEPAGXZ=C:\Windows\SysWOW64\provthrd.?GetStringValue@ProvEnumeratedType@@UBEPAGXZ
  ?GetStringValue@ProvFixedLengthDisplayStringType@@UBEPAGXZ=C:\Windows\SysWOW64\provthrd.?GetStringValue@ProvFixedLengthDisplayStringType@@UBEPAGXZ
  ?GetStringValue@ProvFixedLengthPhysAddressType@@UBEPAGXZ=C:\Windows\SysWOW64\provthrd.?GetStringValue@ProvFixedLengthPhysAddressType@@UBEPAGXZ
  ?GetStringValue@ProvGaugeType@@UBEPAGXZ=C:\Windows\SysWOW64\provthrd.?GetStringValue@ProvGaugeType@@UBEPAGXZ
  ?GetStringValue@ProvIntegerType@@UBEPAGXZ=C:\Windows\SysWOW64\provthrd.?GetStringValue@ProvIntegerType@@UBEPAGXZ
  ?GetStringValue@ProvIpAddressType@@UBEPAGXZ=C:\Windows\SysWOW64\provthrd.?GetStringValue@ProvIpAddressType@@UBEPAGXZ
  ?GetStringValue@ProvMacAddressType@@UBEPAGXZ=C:\Windows\SysWOW64\provthrd.?GetStringValue@ProvMacAddressType@@UBEPAGXZ
  ?GetStringValue@ProvNetworkAddressType@@UBEPAGXZ=C:\Windows\SysWOW64\provthrd.?GetStringValue@ProvNetworkAddressType@@UBEPAGXZ
  ?GetStringValue@ProvNullType@@UBEPAGXZ=C:\Windows\SysWOW64\provthrd.?GetStringValue@ProvNullType@@UBEPAGXZ
  ?GetStringValue@ProvOSIAddressType@@UBEPAGXZ=C:\Windows\SysWOW64\provthrd.?GetStringValue@ProvOSIAddressType@@UBEPAGXZ
  ?GetStringValue@ProvObjectIdentifierType@@UBEPAGXZ=C:\Windows\SysWOW64\provthrd.?GetStringValue@ProvObjectIdentifierType@@UBEPAGXZ
  ?GetStringValue@ProvOctetStringType@@UBEPAGXZ=C:\Windows\SysWOW64\provthrd.?GetStringValue@ProvOctetStringType@@UBEPAGXZ
  ?GetStringValue@ProvOpaqueType@@UBEPAGXZ=C:\Windows\SysWOW64\provthrd.?GetStringValue@ProvOpaqueType@@UBEPAGXZ
  ?GetStringValue@ProvPhysAddressType@@UBEPAGXZ=C:\Windows\SysWOW64\provthrd.?GetStringValue@ProvPhysAddressType@@UBEPAGXZ
  ?GetStringValue@ProvRowStatusType@@UBEPAGXZ=C:\Windows\SysWOW64\provthrd.?GetStringValue@ProvRowStatusType@@UBEPAGXZ
  ?GetStringValue@ProvTimeTicksType@@UBEPAGXZ=C:\Windows\SysWOW64\provthrd.?GetStringValue@ProvTimeTicksType@@UBEPAGXZ
  ?GetStringValue@ProvUDPAddressType@@UBEPAGXZ=C:\Windows\SysWOW64\provthrd.?GetStringValue@ProvUDPAddressType@@UBEPAGXZ
  ?GetToken@ProvAnalyser@@AAEPAVProvLexicon@@HHH@Z=C:\Windows\SysWOW64\provthrd.?GetToken@ProvAnalyser@@AAEPAVProvLexicon@@HHH@Z
  ?GetToken@ProvLexicon@@QAE?AW4LexiconToken@1@XZ=C:\Windows\SysWOW64\provthrd.?GetToken@ProvLexicon@@QAE?AW4LexiconToken@1@XZ
  ?GetType@WmiTreeNode@@QAEKXZ=C:\Windows\SysWOW64\provthrd.?GetType@WmiTreeNode@@QAEKXZ
  ?GetUpperBound@ProvNegativeRangeType@@QAEJXZ=C:\Windows\SysWOW64\provthrd.?GetUpperBound@ProvNegativeRangeType@@QAEJXZ
  ?GetUpperBound@ProvPositiveRangeType@@QAEKXZ=C:\Windows\SysWOW64\provthrd.?GetUpperBound@ProvPositiveRangeType@@QAEKXZ
  ?GetValue@ProvBitStringType@@QBEKAAPAPAG@Z=C:\Windows\SysWOW64\provthrd.?GetValue@ProvBitStringType@@QBEKAAPAPAG@Z
  ?GetValue@ProvCounter64Type@@QBEXAAK0@Z=C:\Windows\SysWOW64\provthrd.?GetValue@ProvCounter64Type@@QBEXAAK0@Z
  ?GetValue@ProvCounter@@QBEKXZ=C:\Windows\SysWOW64\provthrd.?GetValue@ProvCounter@@QBEKXZ
  ?GetValue@ProvCounterType@@QBEKXZ=C:\Windows\SysWOW64\provthrd.?GetValue@ProvCounterType@@QBEKXZ
  ?GetValue@ProvDateTimeType@@QBEPAGXZ=C:\Windows\SysWOW64\provthrd.?GetValue@ProvDateTimeType@@QBEPAGXZ
  ?GetValue@ProvDisplayStringType@@QBEPAGXZ=C:\Windows\SysWOW64\provthrd.?GetValue@ProvDisplayStringType@@QBEPAGXZ
  ?GetValue@ProvEnumeratedType@@QBEPAGXZ=C:\Windows\SysWOW64\provthrd.?GetValue@ProvEnumeratedType@@QBEPAGXZ
  ?GetValue@ProvFixedLengthDisplayStringType@@QBEPAGXZ=C:\Windows\SysWOW64\provthrd.?GetValue@ProvFixedLengthDisplayStringType@@QBEPAGXZ
  ?GetValue@ProvGauge@@QBEKXZ=C:\Windows\SysWOW64\provthrd.?GetValue@ProvGauge@@QBEKXZ
  ?GetValue@ProvGaugeType@@QBEKXZ=C:\Windows\SysWOW64\provthrd.?GetValue@ProvGaugeType@@QBEKXZ
  ?GetValue@ProvInteger@@QBEJXZ=C:\Windows\SysWOW64\provthrd.?GetValue@ProvInteger@@QBEJXZ
  ?GetValue@ProvIntegerType@@QBEJXZ=C:\Windows\SysWOW64\provthrd.?GetValue@ProvIntegerType@@QBEJXZ
  ?GetValue@ProvIpAddress@@QBEKXZ=C:\Windows\SysWOW64\provthrd.?GetValue@ProvIpAddress@@QBEKXZ
  ?GetValue@ProvIpAddressType@@QBEKXZ=C:\Windows\SysWOW64\provthrd.?GetValue@ProvIpAddressType@@QBEKXZ
  ?GetValue@ProvLexicon@@QAEPATProvLexiconValue@@XZ=C:\Windows\SysWOW64\provthrd.?GetValue@ProvLexicon@@QAEPATProvLexiconValue@@XZ
  ?GetValue@ProvNetworkAddressType@@QBEKXZ=C:\Windows\SysWOW64\provthrd.?GetValue@ProvNetworkAddressType@@QBEKXZ
  ?GetValue@ProvObjectIdentifier@@QBEPAKXZ=C:\Windows\SysWOW64\provthrd.?GetValue@ProvObjectIdentifier@@QBEPAKXZ
  ?GetValue@ProvObjectIdentifierType@@QBEPAKXZ=C:\Windows\SysWOW64\provthrd.?GetValue@ProvObjectIdentifierType@@QBEPAKXZ
  ?GetValue@ProvOctetString@@QBEPAEXZ=C:\Windows\SysWOW64\provthrd.?GetValue@ProvOctetString@@QBEPAEXZ
  ?GetValue@ProvOctetStringType@@QBEPAEXZ=C:\Windows\SysWOW64\provthrd.?GetValue@ProvOctetStringType@@QBEPAEXZ
  ?GetValue@ProvOpaque@@QBEPAEXZ=C:\Windows\SysWOW64\provthrd.?GetValue@ProvOpaque@@QBEPAEXZ
  ?GetValue@ProvOpaqueType@@QBEPAEXZ=C:\Windows\SysWOW64\provthrd.?GetValue@ProvOpaqueType@@QBEPAEXZ
  ?GetValue@ProvRowStatusType@@QBEPAGXZ=C:\Windows\SysWOW64\provthrd.?GetValue@ProvRowStatusType@@QBEPAGXZ
  ?GetValue@ProvTimeTicks@@QBEKXZ=C:\Windows\SysWOW64\provthrd.?GetValue@ProvTimeTicks@@QBEKXZ
  ?GetValue@ProvTimeTicksType@@QBEKXZ=C:\Windows\SysWOW64\provthrd.?GetValue@ProvTimeTicksType@@QBEKXZ
  ?GetValue@ProvUInteger32@@QBEKXZ=C:\Windows\SysWOW64\provthrd.?GetValue@ProvUInteger32@@QBEKXZ
  ?GetValue@WmiSignedIntegerNode@@QAEJXZ=C:\Windows\SysWOW64\provthrd.?GetValue@WmiSignedIntegerNode@@QAEJXZ
  ?GetValue@WmiStringNode@@QAEPAGXZ=C:\Windows\SysWOW64\provthrd.?GetValue@WmiStringNode@@QAEPAGXZ
  ?GetValue@WmiUnsignedIntegerNode@@QAEKXZ=C:\Windows\SysWOW64\provthrd.?GetValue@WmiUnsignedIntegerNode@@QAEKXZ
  ?GetValueLength@ProvObjectIdentifier@@QBEKXZ=C:\Windows\SysWOW64\provthrd.?GetValueLength@ProvObjectIdentifier@@QBEKXZ
  ?GetValueLength@ProvObjectIdentifierType@@QBEKXZ=C:\Windows\SysWOW64\provthrd.?GetValueLength@ProvObjectIdentifierType@@QBEKXZ
  ?GetValueLength@ProvOctetString@@QBEKXZ=C:\Windows\SysWOW64\provthrd.?GetValueLength@ProvOctetString@@QBEKXZ
  ?GetValueLength@ProvOctetStringType@@QBEKXZ=C:\Windows\SysWOW64\provthrd.?GetValueLength@ProvOctetStringType@@QBEKXZ
  ?GetValueLength@ProvOpaque@@QBEKXZ=C:\Windows\SysWOW64\provthrd.?GetValueLength@ProvOpaque@@QBEKXZ
  ?GetValueLength@ProvOpaqueType@@QBEKXZ=C:\Windows\SysWOW64\provthrd.?GetValueLength@ProvOpaqueType@@QBEKXZ
  ?HexCharToDecInteger@ProvAnalyser@@SGKD@Z=C:\Windows\SysWOW64\provthrd.?HexCharToDecInteger@ProvAnalyser@@SGKD@Z
  ?HexWCharToDecInteger@ProvAnalyser@@SGKG@Z=C:\Windows\SysWOW64\provthrd.?HexWCharToDecInteger@ProvAnalyser@@SGKG@Z
  ?InfiniteLowerBound@WmiRangeNode@@QAEHXZ=C:\Windows\SysWOW64\provthrd.?InfiniteLowerBound@WmiRangeNode@@QAEHXZ
  ?InfiniteUpperBound@WmiRangeNode@@QAEHXZ=C:\Windows\SysWOW64\provthrd.?InfiniteUpperBound@WmiRangeNode@@QAEHXZ
  ?Initialise@ProvAnalyser@@MAEXXZ=C:\Windows\SysWOW64\provthrd.?Initialise@ProvAnalyser@@MAEXXZ
  ?Initialize@Conjunctions@@QAE?AW4WmiTriState@@XZ=C:\Windows\SysWOW64\provthrd.?Initialize@Conjunctions@@QAE?AW4WmiTriState@@XZ
  ?Initialize@Disjunctions@@QAE?AW4WmiTriState@@XZ=C:\Windows\SysWOW64\provthrd.?Initialize@Disjunctions@@QAE?AW4WmiTriState@@XZ
  ?Initialize@PartitionSet@@QAE?AW4WmiTriState@@K@Z=C:\Windows\SysWOW64\provthrd.?Initialize@PartitionSet@@QAE?AW4WmiTriState@@K@Z
  ?Initialize@ProvObjectIdentifier@@MAEXPBKK@Z=C:\Windows\SysWOW64\provthrd.?Initialize@ProvObjectIdentifier@@MAEXPBKK@Z
  ?Initialize@ProvOctetString@@MAEXPBEK@Z=C:\Windows\SysWOW64\provthrd.?Initialize@ProvOctetString@@MAEXPBEK@Z
  ?InsertNode@QueryPreprocessor@@IAE?AW4WmiTriState@@AAPAVWmiTreeNode@@0@Z=C:\Windows\SysWOW64\provthrd.?InsertNode@QueryPreprocessor@@IAE?AW4WmiTriState@@AAPAVWmiTreeNode@@0@Z
  ?InvariantEvaluate@QueryPreprocessor@@MAE?AW4QuadState@1@PAXPAVWmiTreeNode@@1@Z=C:\Windows\SysWOW64\provthrd.?InvariantEvaluate@QueryPreprocessor@@MAE?AW4QuadState@1@PAXPAVWmiTreeNode@@1@Z
  ?IsAlpha@ProvAnalyser@@SGHG@Z=C:\Windows\SysWOW64\provthrd.?IsAlpha@ProvAnalyser@@SGHG@Z
  ?IsAlphaNumeric@ProvAnalyser@@SGHG@Z=C:\Windows\SysWOW64\provthrd.?IsAlphaNumeric@ProvAnalyser@@SGHG@Z
  ?IsDecimal@ProvAnalyser@@SGHG@Z=C:\Windows\SysWOW64\provthrd.?IsDecimal@ProvAnalyser@@SGHG@Z
  ?IsEof@ProvAnalyser@@SGHG@Z=C:\Windows\SysWOW64\provthrd.?IsEof@ProvAnalyser@@SGHG@Z
  ?IsHex@ProvAnalyser@@SGHG@Z=C:\Windows\SysWOW64\provthrd.?IsHex@ProvAnalyser@@SGHG@Z
  ?IsLeadingDecimal@ProvAnalyser@@SGHG@Z=C:\Windows\SysWOW64\provthrd.?IsLeadingDecimal@ProvAnalyser@@SGHG@Z
  ?IsNull@ProvInstanceType@@UBEHXZ=C:\Windows\SysWOW64\provthrd.?IsNull@ProvInstanceType@@UBEHXZ
  ?IsOctal@ProvAnalyser@@SGHG@Z=C:\Windows\SysWOW64\provthrd.?IsOctal@ProvAnalyser@@SGHG@Z
  ?IsProvV1Type@ProvCounter64Type@@UBEHXZ=C:\Windows\SysWOW64\provthrd.?IsProvV1Type@ProvCounter64Type@@UBEHXZ
  ?IsProvV1Type@ProvInstanceType@@UBEHXZ=C:\Windows\SysWOW64\provthrd.?IsProvV1Type@ProvInstanceType@@UBEHXZ
  ?IsProvV2CType@ProvInstanceType@@UBEHXZ=C:\Windows\SysWOW64\provthrd.?IsProvV2CType@ProvInstanceType@@UBEHXZ
  ?IsProvV2CType@ProvNullType@@UBEHXZ=C:\Windows\SysWOW64\provthrd.?IsProvV2CType@ProvNullType@@UBEHXZ
  ?IsValid@ProvInstanceType@@UBEHXZ=C:\Windows\SysWOW64\provthrd.?IsValid@ProvInstanceType@@UBEHXZ
  ?IsValid@ProvPositiveRangedType@@QAEHXZ=C:\Windows\SysWOW64\provthrd.?IsValid@ProvPositiveRangedType@@QAEHXZ
  ?IsWhitespace@ProvAnalyser@@SGHG@Z=C:\Windows\SysWOW64\provthrd.?IsWhitespace@ProvAnalyser@@SGHG@Z
  ?Leaf@PartitionSet@@QAEHXZ=C:\Windows\SysWOW64\provthrd.?Leaf@PartitionSet@@QAEHXZ
  ?LexicographicallyAfter@WmiSignedIntegerNode@@QAEHAAJ@Z=C:\Windows\SysWOW64\provthrd.?LexicographicallyAfter@WmiSignedIntegerNode@@QAEHAAJ@Z
  ?LexicographicallyAfter@WmiStringNode@@QAEHAAPAG@Z=C:\Windows\SysWOW64\provthrd.?LexicographicallyAfter@WmiStringNode@@QAEHAAPAG@Z
  ?LexicographicallyAfter@WmiUnsignedIntegerNode@@QAEHAAK@Z=C:\Windows\SysWOW64\provthrd.?LexicographicallyAfter@WmiUnsignedIntegerNode@@QAEHAAK@Z
  ?LexicographicallyBefore@WmiSignedIntegerNode@@QAEHAAJ@Z=C:\Windows\SysWOW64\provthrd.?LexicographicallyBefore@WmiSignedIntegerNode@@QAEHAAJ@Z
  ?LexicographicallyBefore@WmiStringNode@@QAEHAAPAG@Z=C:\Windows\SysWOW64\provthrd.?LexicographicallyBefore@WmiStringNode@@QAEHAAPAG@Z
  ?LexicographicallyBefore@WmiUnsignedIntegerNode@@QAEHAAK@Z=C:\Windows\SysWOW64\provthrd.?LexicographicallyBefore@WmiUnsignedIntegerNode@@QAEHAAK@Z
  ?LowerBound@WmiSignedIntegerRangeNode@@QAEJXZ=C:\Windows\SysWOW64\provthrd.?LowerBound@WmiSignedIntegerRangeNode@@QAEJXZ
  ?LowerBound@WmiStringRangeNode@@QAEPAGXZ=C:\Windows\SysWOW64\provthrd.?LowerBound@WmiStringRangeNode@@QAEPAGXZ
  ?LowerBound@WmiUnsignedIntegerRangeNode@@QAEKXZ=C:\Windows\SysWOW64\provthrd.?LowerBound@WmiUnsignedIntegerRangeNode@@QAEKXZ
  ?Match@ProvBitStringType@@AAEPAVProvLexicon@@W4LexiconToken@2@@Z=C:\Windows\SysWOW64\provthrd.?Match@ProvBitStringType@@AAEPAVProvLexicon@@W4LexiconToken@2@@Z
  ?Match@ProvDateTimeType@@AAEPAVProvLexicon@@W4LexiconToken@2@@Z=C:\Windows\SysWOW64\provthrd.?Match@ProvDateTimeType@@AAEPAVProvLexicon@@W4LexiconToken@2@@Z
  ?Match@ProvEnumeratedType@@AAEPAVProvLexicon@@W4LexiconToken@2@@Z=C:\Windows\SysWOW64\provthrd.?Match@ProvEnumeratedType@@AAEPAVProvLexicon@@W4LexiconToken@2@@Z
  ?Match@ProvPositiveRangedType@@IAEPAVProvLexicon@@W4LexiconToken@2@@Z=C:\Windows\SysWOW64\provthrd.?Match@ProvPositiveRangedType@@IAEPAVProvLexicon@@W4LexiconToken@2@@Z
  ?OctCharToDecInteger@ProvAnalyser@@SGKD@Z=C:\Windows\SysWOW64\provthrd.?OctCharToDecInteger@ProvAnalyser@@SGKD@Z
  ?OctWCharToDecInteger@ProvAnalyser@@SGKG@Z=C:\Windows\SysWOW64\provthrd.?OctWCharToDecInteger@ProvAnalyser@@SGKG@Z
  ?OverWrite@ProvObjectIdentifier@@AAEXPBK@Z=C:\Windows\SysWOW64\provthrd.?OverWrite@ProvObjectIdentifier@@AAEXPBK@Z
  ?OverWrite@ProvOctetString@@AAEXPBE@Z=C:\Windows\SysWOW64\provthrd.?OverWrite@ProvOctetString@@AAEXPBE@Z
  ?Parse@ProvBitStringType@@AAEHPBG@Z=C:\Windows\SysWOW64\provthrd.?Parse@ProvBitStringType@@AAEHPBG@Z
  ?Parse@ProvCounter64Type@@IAEHPBG@Z=C:\Windows\SysWOW64\provthrd.?Parse@ProvCounter64Type@@IAEHPBG@Z
  ?Parse@ProvCounterType@@IAEHPBG@Z=C:\Windows\SysWOW64\provthrd.?Parse@ProvCounterType@@IAEHPBG@Z
  ?Parse@ProvDateTimeType@@AAEHPBG@Z=C:\Windows\SysWOW64\provthrd.?Parse@ProvDateTimeType@@AAEHPBG@Z
  ?Parse@ProvEnumeratedType@@AAEHPBG@Z=C:\Windows\SysWOW64\provthrd.?Parse@ProvEnumeratedType@@AAEHPBG@Z
  ?Parse@ProvFixedLengthPhysAddressType@@IAEHPBG@Z=C:\Windows\SysWOW64\provthrd.?Parse@ProvFixedLengthPhysAddressType@@IAEHPBG@Z
  ?Parse@ProvGaugeType@@IAEHPBG@Z=C:\Windows\SysWOW64\provthrd.?Parse@ProvGaugeType@@IAEHPBG@Z
  ?Parse@ProvIntegerType@@IAEHPBG@Z=C:\Windows\SysWOW64\provthrd.?Parse@ProvIntegerType@@IAEHPBG@Z
  ?Parse@ProvIpAddressType@@IAEHPBG@Z=C:\Windows\SysWOW64\provthrd.?Parse@ProvIpAddressType@@IAEHPBG@Z
  ?Parse@ProvMacAddressType@@IAEHPBG@Z=C:\Windows\SysWOW64\provthrd.?Parse@ProvMacAddressType@@IAEHPBG@Z
  ?Parse@ProvNetworkAddressType@@IAEHPBG@Z=C:\Windows\SysWOW64\provthrd.?Parse@ProvNetworkAddressType@@IAEHPBG@Z
  ?Parse@ProvOSIAddressType@@IAEHPBG@Z=C:\Windows\SysWOW64\provthrd.?Parse@ProvOSIAddressType@@IAEHPBG@Z
  ?Parse@ProvObjectIdentifierType@@IAEHPBG@Z=C:\Windows\SysWOW64\provthrd.?Parse@ProvObjectIdentifierType@@IAEHPBG@Z
  ?Parse@ProvOctetStringType@@IAEHPBG@Z=C:\Windows\SysWOW64\provthrd.?Parse@ProvOctetStringType@@IAEHPBG@Z
  ?Parse@ProvOpaqueType@@IAEHPBG@Z=C:\Windows\SysWOW64\provthrd.?Parse@ProvOpaqueType@@IAEHPBG@Z
  ?Parse@ProvPhysAddressType@@IAEHPBG@Z=C:\Windows\SysWOW64\provthrd.?Parse@ProvPhysAddressType@@IAEHPBG@Z
  ?Parse@ProvPositiveRangedType@@IAEHPBG@Z=C:\Windows\SysWOW64\provthrd.?Parse@ProvPositiveRangedType@@IAEHPBG@Z
  ?Parse@ProvTimeTicksType@@IAEHPBG@Z=C:\Windows\SysWOW64\provthrd.?Parse@ProvTimeTicksType@@IAEHPBG@Z
  ?Parse@ProvUDPAddressType@@IAEHPBG@Z=C:\Windows\SysWOW64\provthrd.?Parse@ProvUDPAddressType@@IAEHPBG@Z
  ?PreProcess@QueryPreprocessor@@QAE?AW4QuadState@1@PAXPAUSQL_LEVEL_1_RPN_EXPRESSION@@AAPAVWmiTreeNode@@@Z=C:\Windows\SysWOW64\provthrd.?PreProcess@QueryPreprocessor@@QAE?AW4QuadState@1@PAXPAUSQL_LEVEL_1_RPN_EXPRESSION@@AAPAVWmiTreeNode@@@Z
  ?PreProcess@QueryPreprocessor@@QAE?AW4QuadState@1@PAXPAUSQL_LEVEL_1_RPN_EXPRESSION@@PAVWmiTreeNode@@KPAPAGAAPAVPartitionSet@@@Z=C:\Windows\SysWOW64\provthrd.?PreProcess@QueryPreprocessor@@QAE?AW4QuadState@1@PAXPAUSQL_LEVEL_1_RPN_EXPRESSION@@PAVWmiTreeNode@@KPAPAGAAPAVPartitionSet@@@Z
  ?Prefix@ProvObjectIdentifier@@QBEHKAAV1@@Z=C:\Windows\SysWOW64\provthrd.?Prefix@ProvObjectIdentifier@@QBEHKAAV1@@Z
  ?Print@WmiAndNode@@UAEXXZ=C:\Windows\SysWOW64\provthrd.?Print@WmiAndNode@@UAEXXZ
  ?Print@WmiNotNode@@UAEXXZ=C:\Windows\SysWOW64\provthrd.?Print@WmiNotNode@@UAEXXZ
  ?Print@WmiNullNode@@UAEXXZ=C:\Windows\SysWOW64\provthrd.?Print@WmiNullNode@@UAEXXZ
  ?Print@WmiNullRangeNode@@UAEXXZ=C:\Windows\SysWOW64\provthrd.?Print@WmiNullRangeNode@@UAEXXZ
  ?Print@WmiOperatorEqualNode@@UAEXXZ=C:\Windows\SysWOW64\provthrd.?Print@WmiOperatorEqualNode@@UAEXXZ
  ?Print@WmiOperatorEqualOrGreaterNode@@UAEXXZ=C:\Windows\SysWOW64\provthrd.?Print@WmiOperatorEqualOrGreaterNode@@UAEXXZ
  ?Print@WmiOperatorEqualOrLessNode@@UAEXXZ=C:\Windows\SysWOW64\provthrd.?Print@WmiOperatorEqualOrLessNode@@UAEXXZ
  ?Print@WmiOperatorGreaterNode@@UAEXXZ=C:\Windows\SysWOW64\provthrd.?Print@WmiOperatorGreaterNode@@UAEXXZ
  ?Print@WmiOperatorIsANode@@UAEXXZ=C:\Windows\SysWOW64\provthrd.?Print@WmiOperatorIsANode@@UAEXXZ
  ?Print@WmiOperatorLessNode@@UAEXXZ=C:\Windows\SysWOW64\provthrd.?Print@WmiOperatorLessNode@@UAEXXZ
  ?Print@WmiOperatorLikeNode@@UAEXXZ=C:\Windows\SysWOW64\provthrd.?Print@WmiOperatorLikeNode@@UAEXXZ
  ?Print@WmiOperatorNotEqualNode@@UAEXXZ=C:\Windows\SysWOW64\provthrd.?Print@WmiOperatorNotEqualNode@@UAEXXZ
  ?Print@WmiOperatorNotIsANode@@UAEXXZ=C:\Windows\SysWOW64\provthrd.?Print@WmiOperatorNotIsANode@@UAEXXZ
  ?Print@WmiOperatorNotLikeNode@@UAEXXZ=C:\Windows\SysWOW64\provthrd.?Print@WmiOperatorNotLikeNode@@UAEXXZ
  ?Print@WmiOrNode@@UAEXXZ=C:\Windows\SysWOW64\provthrd.?Print@WmiOrNode@@UAEXXZ
  ?Print@WmiSignedIntegerNode@@UAEXXZ=C:\Windows\SysWOW64\provthrd.?Print@WmiSignedIntegerNode@@UAEXXZ
  ?Print@WmiSignedIntegerRangeNode@@UAEXXZ=C:\Windows\SysWOW64\provthrd.?Print@WmiSignedIntegerRangeNode@@UAEXXZ
  ?Print@WmiStringNode@@UAEXXZ=C:\Windows\SysWOW64\provthrd.?Print@WmiStringNode@@UAEXXZ
  ?Print@WmiStringRangeNode@@UAEXXZ=C:\Windows\SysWOW64\provthrd.?Print@WmiStringRangeNode@@UAEXXZ
  ?Print@WmiTreeNode@@UAEXXZ=C:\Windows\SysWOW64\provthrd.?Print@WmiTreeNode@@UAEXXZ
  ?Print@WmiUnsignedIntegerNode@@UAEXXZ=C:\Windows\SysWOW64\provthrd.?Print@WmiUnsignedIntegerNode@@UAEXXZ
  ?Print@WmiUnsignedIntegerRangeNode@@UAEXXZ=C:\Windows\SysWOW64\provthrd.?Print@WmiUnsignedIntegerRangeNode@@UAEXXZ
  ?PrintTree@QueryPreprocessor@@IAEXPAVWmiTreeNode@@@Z=C:\Windows\SysWOW64\provthrd.?PrintTree@QueryPreprocessor@@IAEXPAVWmiTreeNode@@@Z
  ?Process@ProvEventObject@@UAEXXZ=C:\Windows\SysWOW64\provthrd.?Process@ProvEventObject@@UAEXXZ
  ?PushBack@ProvBitStringType@@AAEXXZ=C:\Windows\SysWOW64\provthrd.?PushBack@ProvBitStringType@@AAEXXZ
  ?PushBack@ProvDateTimeType@@AAEXXZ=C:\Windows\SysWOW64\provthrd.?PushBack@ProvDateTimeType@@AAEXXZ
  ?PushBack@ProvEnumeratedType@@AAEXXZ=C:\Windows\SysWOW64\provthrd.?PushBack@ProvEnumeratedType@@AAEXXZ
  ?PushBack@ProvPositiveRangedType@@IAEXXZ=C:\Windows\SysWOW64\provthrd.?PushBack@ProvPositiveRangedType@@IAEXXZ
  ?PutBack@ProvAnalyser@@QAEXPBVProvLexicon@@@Z=C:\Windows\SysWOW64\provthrd.?PutBack@ProvAnalyser@@QAEXPBVProvLexicon@@@Z
  ?Query@QueryPreprocessor@@QAE?AW4QuadState@1@PAGAAPAUSQL_LEVEL_1_RPN_EXPRESSION@@@Z=C:\Windows\SysWOW64\provthrd.?Query@QueryPreprocessor@@QAE?AW4QuadState@1@PAGAAPAUSQL_LEVEL_1_RPN_EXPRESSION@@@Z
  ?QuickSort@QueryPreprocessor@@IAEXPAPAVWmiRangeNode@@PAKK@Z=C:\Windows\SysWOW64\provthrd.?QuickSort@QueryPreprocessor@@IAEXPAPAVWmiRangeNode@@PAKK@Z
  ?RangeDef@ProvPositiveRangedType@@IAEHXZ=C:\Windows\SysWOW64\provthrd.?RangeDef@ProvPositiveRangedType@@IAEHXZ
  ?RecursiveConvertToRanges@QueryPreprocessor@@IAE?AW4WmiTriState@@AAPAVWmiTreeNode@@@Z=C:\Windows\SysWOW64\provthrd.?RecursiveConvertToRanges@QueryPreprocessor@@IAE?AW4WmiTriState@@AAPAVWmiTreeNode@@@Z
  ?RecursiveDef@ProvBitStringType@@AAEHXZ=C:\Windows\SysWOW64\provthrd.?RecursiveDef@ProvBitStringType@@AAEHXZ
  ?RecursiveDef@ProvEnumeratedType@@AAEHXZ=C:\Windows\SysWOW64\provthrd.?RecursiveDef@ProvEnumeratedType@@AAEHXZ
  ?RecursiveDef@ProvPositiveRangedType@@IAEHXZ=C:\Windows\SysWOW64\provthrd.?RecursiveDef@ProvPositiveRangedType@@IAEHXZ
  ?RecursiveDisjunctiveNormalForm@QueryPreprocessor@@IAE?AW4QuadState@1@AAPAVWmiTreeNode@@@Z=C:\Windows\SysWOW64\provthrd.?RecursiveDisjunctiveNormalForm@QueryPreprocessor@@IAE?AW4QuadState@1@AAPAVWmiTreeNode@@@Z
  ?RecursiveEvaluate@QueryPreprocessor@@IAEHPAXAAUSQL_LEVEL_1_RPN_EXPRESSION@@PAVWmiTreeNode@@PAPAV3@AAH@Z=C:\Windows\SysWOW64\provthrd.?RecursiveEvaluate@QueryPreprocessor@@IAEHPAXAAUSQL_LEVEL_1_RPN_EXPRESSION@@PAVWmiTreeNode@@PAPAV3@AAH@Z
  ?RecursiveInsertNode@QueryPreprocessor@@IAE?AW4WmiTriState@@AAPAVWmiTreeNode@@0@Z=C:\Windows\SysWOW64\provthrd.?RecursiveInsertNode@QueryPreprocessor@@IAE?AW4WmiTriState@@AAPAVWmiTreeNode@@0@Z
  ?RecursivePartitionSet@QueryPreprocessor@@IAE?AW4WmiTriState@@PAVDisjunctions@@AAPAVPartitionSet@@KPAKK@Z=C:\Windows\SysWOW64\provthrd.?RecursivePartitionSet@QueryPreprocessor@@IAE?AW4WmiTriState@@PAVDisjunctions@@AAPAVPartitionSet@@KPAKK@Z
  ?RecursiveQuickSort@QueryPreprocessor@@IAEXPAPAVWmiRangeNode@@PAKKK@Z=C:\Windows\SysWOW64\provthrd.?RecursiveQuickSort@QueryPreprocessor@@IAEXPAPAVWmiRangeNode@@PAKKK@Z
  ?RecursiveRemoveInvariants@QueryPreprocessor@@IAE?AW4QuadState@1@PAXAAPAVWmiTreeNode@@@Z=C:\Windows\SysWOW64\provthrd.?RecursiveRemoveInvariants@QueryPreprocessor@@IAE?AW4QuadState@1@PAXAAPAVWmiTreeNode@@@Z
  ?RecursiveRemoveNonOverlappingRanges@QueryPreprocessor@@IAE?AW4QuadState@1@AAPAVWmiTreeNode@@0@Z=C:\Windows\SysWOW64\provthrd.?RecursiveRemoveNonOverlappingRanges@QueryPreprocessor@@IAE?AW4QuadState@1@AAPAVWmiTreeNode@@0@Z
  ?RecursiveSort@QueryPreprocessor@@IAE?AW4WmiTriState@@AAPAVWmiTreeNode@@@Z=C:\Windows\SysWOW64\provthrd.?RecursiveSort@QueryPreprocessor@@IAE?AW4WmiTriState@@AAPAVWmiTreeNode@@@Z
  ?RecursiveSortConditionals@QueryPreprocessor@@IAE?AW4WmiTriState@@AAPAVWmiTreeNode@@0@Z=C:\Windows\SysWOW64\provthrd.?RecursiveSortConditionals@QueryPreprocessor@@IAE?AW4WmiTriState@@AAPAVWmiTreeNode@@0@Z
  ?RemoveInvariants@QueryPreprocessor@@IAE?AW4QuadState@1@PAXAAPAVWmiTreeNode@@@Z=C:\Windows\SysWOW64\provthrd.?RemoveInvariants@QueryPreprocessor@@IAE?AW4QuadState@1@PAXAAPAVWmiTreeNode@@@Z
  ?RemoveNonOverlappingRanges@QueryPreprocessor@@IAE?AW4QuadState@1@AAPAVWmiTreeNode@@@Z=C:\Windows\SysWOW64\provthrd.?RemoveNonOverlappingRanges@QueryPreprocessor@@IAE?AW4QuadState@1@AAPAVWmiTreeNode@@@Z
  ?RemoveOverlaps@QueryPreprocessor@@IAE?AW4WmiTriState@@PAKK00PAPAVWmiRangeNode@@@Z=C:\Windows\SysWOW64\provthrd.?RemoveOverlaps@QueryPreprocessor@@IAE?AW4WmiTriState@@PAKK00PAPAVWmiRangeNode@@@Z
  ?Replicate@ProvObjectIdentifier@@MBEPAKPBKK0K@Z=C:\Windows\SysWOW64\provthrd.?Replicate@ProvObjectIdentifier@@MBEPAKPBKK0K@Z
  ?Replicate@ProvObjectIdentifier@@MBEPAKPBKK@Z=C:\Windows\SysWOW64\provthrd.?Replicate@ProvObjectIdentifier@@MBEPAKPBKK@Z
  ?Replicate@ProvOctetString@@MAEPAEPBEK@Z=C:\Windows\SysWOW64\provthrd.?Replicate@ProvOctetString@@MAEPAEPBEK@Z
  ?Root@PartitionSet@@QAEHXZ=C:\Windows\SysWOW64\provthrd.?Root@PartitionSet@@QAEHXZ
  ?Set@ProvAnalyser@@QAEXPBG@Z=C:\Windows\SysWOW64\provthrd.?Set@ProvAnalyser@@QAEXPBG@Z
  ?Set@ProvEventObject@@QAEXXZ=C:\Windows\SysWOW64\provthrd.?Set@ProvEventObject@@QAEXXZ
  ?SetData@WmiTreeNode@@QAEPAXPAX@Z=C:\Windows\SysWOW64\provthrd.?SetData@WmiTreeNode@@QAEPAXPAX@Z
  ?SetIterator@WmiTreeNodeIterator@@QAEPAVWmiTreeNode@@PAV2@@Z=C:\Windows\SysWOW64\provthrd.?SetIterator@WmiTreeNodeIterator@@QAEPAVWmiTreeNode@@PAV2@@Z
  ?SetKeyIndex@PartitionSet@@QAEXK@Z=C:\Windows\SysWOW64\provthrd.?SetKeyIndex@PartitionSet@@QAEXK@Z
  ?SetLeft@WmiTreeNode@@QAEPAV1@PAV1@@Z=C:\Windows\SysWOW64\provthrd.?SetLeft@WmiTreeNode@@QAEPAV1@PAV1@@Z
  ?SetLowerBound@ProvNegativeRangeType@@QAEXABJ@Z=C:\Windows\SysWOW64\provthrd.?SetLowerBound@ProvNegativeRangeType@@QAEXABJ@Z
  ?SetLowerBound@ProvPositiveRangeType@@QAEXABK@Z=C:\Windows\SysWOW64\provthrd.?SetLowerBound@ProvPositiveRangeType@@QAEXABK@Z
  ?SetNull@ProvInstanceType@@QAEXH@Z=C:\Windows\SysWOW64\provthrd.?SetNull@ProvInstanceType@@QAEXH@Z
  ?SetParent@WmiTreeNode@@QAEPAV1@PAV1@@Z=C:\Windows\SysWOW64\provthrd.?SetParent@WmiTreeNode@@QAEPAV1@PAV1@@Z
  ?SetPartition@PartitionSet@@QAEXKPAV1@@Z=C:\Windows\SysWOW64\provthrd.?SetPartition@PartitionSet@@QAEXKPAV1@@Z
  ?SetRange@Conjunctions@@QAEXKPAVWmiRangeNode@@@Z=C:\Windows\SysWOW64\provthrd.?SetRange@Conjunctions@@QAEXKPAVWmiRangeNode@@@Z
  ?SetRange@PartitionSet@@QAEXPAVWmiRangeNode@@@Z=C:\Windows\SysWOW64\provthrd.?SetRange@PartitionSet@@QAEXPAVWmiRangeNode@@@Z
  ?SetRight@WmiTreeNode@@QAEPAV1@PAV1@@Z=C:\Windows\SysWOW64\provthrd.?SetRight@WmiTreeNode@@QAEPAV1@PAV1@@Z
  ?SetStatus@ProvInstanceType@@QAEXH@Z=C:\Windows\SysWOW64\provthrd.?SetStatus@ProvInstanceType@@QAEXH@Z
  ?SetStatus@ProvPositiveRangedType@@QAEXABH@Z=C:\Windows\SysWOW64\provthrd.?SetStatus@ProvPositiveRangedType@@QAEXABH@Z
  ?SetToken@ProvLexicon@@QAEXW4LexiconToken@1@@Z=C:\Windows\SysWOW64\provthrd.?SetToken@ProvLexicon@@QAEXW4LexiconToken@1@@Z
  ?SetType@WmiTreeNode@@QAEXK@Z=C:\Windows\SysWOW64\provthrd.?SetType@WmiTreeNode@@QAEXK@Z
  ?SetUpperBound@ProvNegativeRangeType@@QAEXABJ@Z=C:\Windows\SysWOW64\provthrd.?SetUpperBound@ProvNegativeRangeType@@QAEXABJ@Z
  ?SetUpperBound@ProvPositiveRangeType@@QAEXABK@Z=C:\Windows\SysWOW64\provthrd.?SetUpperBound@ProvPositiveRangeType@@QAEXABK@Z
  ?SetValue@ProvCounter64@@QAEXKK@Z=C:\Windows\SysWOW64\provthrd.?SetValue@ProvCounter64@@QAEXKK@Z
  ?SetValue@ProvCounter@@QAEXK@Z=C:\Windows\SysWOW64\provthrd.?SetValue@ProvCounter@@QAEXK@Z
  ?SetValue@ProvGauge@@QAEXK@Z=C:\Windows\SysWOW64\provthrd.?SetValue@ProvGauge@@QAEXK@Z
  ?SetValue@ProvInteger@@QAEXJ@Z=C:\Windows\SysWOW64\provthrd.?SetValue@ProvInteger@@QAEXJ@Z
  ?SetValue@ProvIpAddress@@QAEXK@Z=C:\Windows\SysWOW64\provthrd.?SetValue@ProvIpAddress@@QAEXK@Z
  ?SetValue@ProvObjectIdentifier@@QAEXPBKK@Z=C:\Windows\SysWOW64\provthrd.?SetValue@ProvObjectIdentifier@@QAEXPBKK@Z
  ?SetValue@ProvOctetString@@QAEXPBEK@Z=C:\Windows\SysWOW64\provthrd.?SetValue@ProvOctetString@@QAEXPBEK@Z
  ?SetValue@ProvOpaque@@QAEXPBEK@Z=C:\Windows\SysWOW64\provthrd.?SetValue@ProvOpaque@@QAEXPBEK@Z
  ?SetValue@ProvTimeTicks@@QAEXK@Z=C:\Windows\SysWOW64\provthrd.?SetValue@ProvTimeTicks@@QAEXK@Z
  ?SetValue@ProvUInteger32@@QAEXK@Z=C:\Windows\SysWOW64\provthrd.?SetValue@ProvUInteger32@@QAEXK@Z
  ?Sort@QueryPreprocessor@@IAE?AW4WmiTriState@@AAPAVWmiTreeNode@@@Z=C:\Windows\SysWOW64\provthrd.?Sort@QueryPreprocessor@@IAE?AW4WmiTriState@@AAPAVWmiTreeNode@@@Z
  ?SortConditionals@QueryPreprocessor@@IAE?AW4WmiTriState@@AAPAVWmiTreeNode@@@Z=C:\Windows\SysWOW64\provthrd.?SortConditionals@QueryPreprocessor@@IAE?AW4WmiTriState@@AAPAVWmiTreeNode@@@Z
  ?SortRanges@QueryPreprocessor@@IAEXKPAKPAPAVWmiRangeNode@@@Z=C:\Windows\SysWOW64\provthrd.?SortRanges@QueryPreprocessor@@IAEXKPAKPAPAVWmiRangeNode@@@Z
  ?Startup@ProvDebugLog@@SGHXZ=C:\Windows\SysWOW64\provthrd.?Startup@ProvDebugLog@@SGHXZ
  ?Suffix@ProvObjectIdentifier@@QBEHKAAV1@@Z=C:\Windows\SysWOW64\provthrd.?Suffix@ProvObjectIdentifier@@QBEHKAAV1@@Z
  ?TransformAndOrExpression@QueryPreprocessor@@IAEXAAPAVWmiTreeNode@@PAV2@1@Z=C:\Windows\SysWOW64\provthrd.?TransformAndOrExpression@QueryPreprocessor@@IAEXAAPAVWmiTreeNode@@PAV2@1@Z
  ?TransformAndTrueEvaluation@QueryPreprocessor@@IAEXAAPAVWmiTreeNode@@PAV2@@Z=C:\Windows\SysWOW64\provthrd.?TransformAndTrueEvaluation@QueryPreprocessor@@IAEXAAPAVWmiTreeNode@@PAV2@@Z
  ?TransformIntersectingRange@QueryPreprocessor@@IAEXAAPAVWmiTreeNode@@PAV2@1@Z=C:\Windows\SysWOW64\provthrd.?TransformIntersectingRange@QueryPreprocessor@@IAEXAAPAVWmiTreeNode@@PAV2@1@Z
  ?TransformNonIntersectingRange@QueryPreprocessor@@IAEXAAPAVWmiTreeNode@@PAV2@@Z=C:\Windows\SysWOW64\provthrd.?TransformNonIntersectingRange@QueryPreprocessor@@IAEXAAPAVWmiTreeNode@@PAV2@@Z
  ?TransformNotAndExpression@QueryPreprocessor@@IAEXAAPAVWmiTreeNode@@PAV2@@Z=C:\Windows\SysWOW64\provthrd.?TransformNotAndExpression@QueryPreprocessor@@IAEXAAPAVWmiTreeNode@@PAV2@@Z
  ?TransformNotEqualExpression@QueryPreprocessor@@IAEXAAPAVWmiTreeNode@@PAV2@@Z=C:\Windows\SysWOW64\provthrd.?TransformNotEqualExpression@QueryPreprocessor@@IAEXAAPAVWmiTreeNode@@PAV2@@Z
  ?TransformNotNotExpression@QueryPreprocessor@@IAEXAAPAVWmiTreeNode@@PAV2@@Z=C:\Windows\SysWOW64\provthrd.?TransformNotNotExpression@QueryPreprocessor@@IAEXAAPAVWmiTreeNode@@PAV2@@Z
  ?TransformNotOperatorEqualExpression@QueryPreprocessor@@IAEXAAPAVWmiTreeNode@@PAV2@@Z=C:\Windows\SysWOW64\provthrd.?TransformNotOperatorEqualExpression@QueryPreprocessor@@IAEXAAPAVWmiTreeNode@@PAV2@@Z
  ?TransformNotOperatorEqualOrGreaterExpression@QueryPreprocessor@@IAEXAAPAVWmiTreeNode@@PAV2@@Z=C:\Windows\SysWOW64\provthrd.?TransformNotOperatorEqualOrGreaterExpression@QueryPreprocessor@@IAEXAAPAVWmiTreeNode@@PAV2@@Z
  ?TransformNotOperatorEqualOrLessExpression@QueryPreprocessor@@IAEXAAPAVWmiTreeNode@@PAV2@@Z=C:\Windows\SysWOW64\provthrd.?TransformNotOperatorEqualOrLessExpression@QueryPreprocessor@@IAEXAAPAVWmiTreeNode@@PAV2@@Z
  ?TransformNotOperatorGreaterExpression@QueryPreprocessor@@IAEXAAPAVWmiTreeNode@@PAV2@@Z=C:\Windows\SysWOW64\provthrd.?TransformNotOperatorGreaterExpression@QueryPreprocessor@@IAEXAAPAVWmiTreeNode@@PAV2@@Z
  ?TransformNotOperatorIsAExpression@QueryPreprocessor@@IAEXAAPAVWmiTreeNode@@PAV2@@Z=C:\Windows\SysWOW64\provthrd.?TransformNotOperatorIsAExpression@QueryPreprocessor@@IAEXAAPAVWmiTreeNode@@PAV2@@Z
  ?TransformNotOperatorLessExpression@QueryPreprocessor@@IAEXAAPAVWmiTreeNode@@PAV2@@Z=C:\Windows\SysWOW64\provthrd.?TransformNotOperatorLessExpression@QueryPreprocessor@@IAEXAAPAVWmiTreeNode@@PAV2@@Z
  ?TransformNotOperatorLikeExpression@QueryPreprocessor@@IAEXAAPAVWmiTreeNode@@PAV2@@Z=C:\Windows\SysWOW64\provthrd.?TransformNotOperatorLikeExpression@QueryPreprocessor@@IAEXAAPAVWmiTreeNode@@PAV2@@Z
  ?TransformNotOperatorNotEqualExpression@QueryPreprocessor@@IAEXAAPAVWmiTreeNode@@PAV2@@Z=C:\Windows\SysWOW64\provthrd.?TransformNotOperatorNotEqualExpression@QueryPreprocessor@@IAEXAAPAVWmiTreeNode@@PAV2@@Z
  ?TransformNotOperatorNotIsAExpression@QueryPreprocessor@@IAEXAAPAVWmiTreeNode@@PAV2@@Z=C:\Windows\SysWOW64\provthrd.?TransformNotOperatorNotIsAExpression@QueryPreprocessor@@IAEXAAPAVWmiTreeNode@@PAV2@@Z
  ?TransformNotOperatorNotLikeExpression@QueryPreprocessor@@IAEXAAPAVWmiTreeNode@@PAV2@@Z=C:\Windows\SysWOW64\provthrd.?TransformNotOperatorNotLikeExpression@QueryPreprocessor@@IAEXAAPAVWmiTreeNode@@PAV2@@Z
  ?TransformNotOrExpression@QueryPreprocessor@@IAEXAAPAVWmiTreeNode@@PAV2@@Z=C:\Windows\SysWOW64\provthrd.?TransformNotOrExpression@QueryPreprocessor@@IAEXAAPAVWmiTreeNode@@PAV2@@Z
  ?TransformOperatorToRange@QueryPreprocessor@@IAEXAAPAVWmiTreeNode@@@Z=C:\Windows\SysWOW64\provthrd.?TransformOperatorToRange@QueryPreprocessor@@IAEXAAPAVWmiTreeNode@@@Z
  ?TransformOrFalseEvaluation@QueryPreprocessor@@IAEXAAPAVWmiTreeNode@@PAV2@@Z=C:\Windows\SysWOW64\provthrd.?TransformOrFalseEvaluation@QueryPreprocessor@@IAEXAAPAVWmiTreeNode@@PAV2@@Z
  ?UnReplicate@ProvObjectIdentifier@@MAEXPAK@Z=C:\Windows\SysWOW64\provthrd.?UnReplicate@ProvObjectIdentifier@@MAEXPAK@Z
  ?UnReplicate@ProvOctetString@@MAEXPAE@Z=C:\Windows\SysWOW64\provthrd.?UnReplicate@ProvOctetString@@MAEXPAE@Z
  ?UnicodeStringAppend@@YGPAGPBG0@Z=C:\Windows\SysWOW64\provthrd.?UnicodeStringAppend@@YGPAGPBG0@Z
  ?UnicodeStringDuplicate@@YGPAGPBG@Z=C:\Windows\SysWOW64\provthrd.?UnicodeStringDuplicate@@YGPAGPBG@Z
  ?UnicodeToDbcsString@@YGPADPBG@Z=C:\Windows\SysWOW64\provthrd.?UnicodeToDbcsString@@YGPADPBG@Z
  ?UpperBound@WmiSignedIntegerRangeNode@@QAEJXZ=C:\Windows\SysWOW64\provthrd.?UpperBound@WmiSignedIntegerRangeNode@@QAEJXZ
  ?UpperBound@WmiStringRangeNode@@QAEPAGXZ=C:\Windows\SysWOW64\provthrd.?UpperBound@WmiStringRangeNode@@QAEPAGXZ
  ?UpperBound@WmiUnsignedIntegerRangeNode@@QAEKXZ=C:\Windows\SysWOW64\provthrd.?UpperBound@WmiUnsignedIntegerRangeNode@@QAEKXZ
  ?Wait@ProvEventObject@@UAEHXZ=C:\Windows\SysWOW64\provthrd.?Wait@ProvEventObject@@UAEHXZ
  ?Write@ProvDebugLog@@QAAXPBGZZ=C:\Windows\SysWOW64\provthrd.?Write@ProvDebugLog@@QAAXPBGZZ
  ?WriteA@ProvDebugLog@@QAAXPBDZZ=C:\Windows\SysWOW64\provthrd.?WriteA@ProvDebugLog@@QAAXPBDZZ
  ?WriteFileAndLine@ProvDebugLog@@QAAXPBDKPBGZZ=C:\Windows\SysWOW64\provthrd.?WriteFileAndLine@ProvDebugLog@@QAAXPBDKPBGZZ
  ?WriteFileAndLine@ProvDebugLog@@QAAXPBGK0ZZ=C:\Windows\SysWOW64\provthrd.?WriteFileAndLine@ProvDebugLog@@QAAXPBGK0ZZ
  ?WriteFileAndLineA@ProvDebugLog@@QAAXPBDK0ZZ=C:\Windows\SysWOW64\provthrd.?WriteFileAndLineA@ProvDebugLog@@QAAXPBDK0ZZ
  ?WriteFileAndLineW@ProvDebugLog@@QAAXPBGK0ZZ=C:\Windows\SysWOW64\provthrd.?WriteFileAndLineW@ProvDebugLog@@QAAXPBGK0ZZ
  ?WriteW@ProvDebugLog@@QAAXPBGZZ=C:\Windows\SysWOW64\provthrd.?WriteW@ProvDebugLog@@QAAXPBGZZ
  ?s_ProvDebugLog@ProvDebugLog@@2PAV1@A=C:\Windows\SysWOW64\provthrd.?s_ProvDebugLog@ProvDebugLog@@2PAV1@A
  ?s_ReferenceCount@ProvDebugLog@@2JA=C:\Windows\SysWOW64\provthrd.?s_ReferenceCount@ProvDebugLog@@2JA
  ?s_aLogs@ProvDebugLog@@2PAV1@A=C:\Windows\SysWOW64\provthrd.?s_aLogs@ProvDebugLog@@2PAV1@A
