EXPORTS
  ??0CLUSTER_CHAIN@@QAE@XZ=C:\Windows\SysWOW64\ufat.??0CLUSTER_CHAIN@@QAE@XZ
  ??0EA_HEADER@@QAE@XZ=C:\Windows\SysWOW64\ufat.??0EA_HEADER@@QAE@XZ
  ??0EA_SET@@QAE@XZ=C:\Windows\SysWOW64\ufat.??0EA_SET@@QAE@XZ
  ??0FAT_DIRENT@@QAE@XZ=C:\Windows\SysWOW64\ufat.??0FAT_DIRENT@@QAE@XZ
  ??0FAT_SA@@QAE@XZ=C:\Windows\SysWOW64\ufat.??0FAT_SA@@QAE@XZ
  ??0FILEDIR@@QAE@XZ=C:\Windows\SysWOW64\ufat.??0FILEDIR@@QAE@XZ
  ??0REAL_FAT_SA@@QAE@XZ=C:\Windows\SysWOW64\ufat.??0REAL_FAT_SA@@QAE@XZ
  ??0ROOTDIR@@QAE@XZ=C:\Windows\SysWOW64\ufat.??0ROOTDIR@@QAE@XZ
  ??1CLUSTER_CHAIN@@UAE@XZ=C:\Windows\SysWOW64\ufat.??1CLUSTER_CHAIN@@UAE@XZ
  ??1EA_HEADER@@UAE@XZ=C:\Windows\SysWOW64\ufat.??1EA_HEADER@@UAE@XZ
  ??1EA_SET@@UAE@XZ=C:\Windows\SysWOW64\ufat.??1EA_SET@@UAE@XZ
  ??1FAT_DIRENT@@UAE@XZ=C:\Windows\SysWOW64\ufat.??1FAT_DIRENT@@UAE@XZ
  ??1FAT_SA@@UAE@XZ=C:\Windows\SysWOW64\ufat.??1FAT_SA@@UAE@XZ
  ??1FILEDIR@@UAE@XZ=C:\Windows\SysWOW64\ufat.??1FILEDIR@@UAE@XZ
  ??1REAL_FAT_SA@@UAE@XZ=C:\Windows\SysWOW64\ufat.??1REAL_FAT_SA@@UAE@XZ
  ??1ROOTDIR@@UAE@XZ=C:\Windows\SysWOW64\ufat.??1ROOTDIR@@UAE@XZ
  ?AllocChain@FAT@@QAEKKPAK@Z=C:\Windows\SysWOW64\ufat.?AllocChain@FAT@@QAEKKPAK@Z
  ?FreeChain@FAT@@QAEXK@Z=C:\Windows\SysWOW64\ufat.?FreeChain@FAT@@QAEXK@Z
  ?GetEa@EA_SET@@QAEPAU_EA@@KPAJPAE@Z=C:\Windows\SysWOW64\ufat.?GetEa@EA_SET@@QAEPAU_EA@@KPAJPAE@Z
  ?Index12@FAT@@ABEKK@Z=C:\Windows\SysWOW64\ufat.?Index12@FAT@@ABEKK@Z
  ?InitFATChkDirty@REAL_FAT_SA@@QAEEPAVLOG_IO_DP_DRIVE@@PAVMESSAGE@@@Z=C:\Windows\SysWOW64\ufat.?InitFATChkDirty@REAL_FAT_SA@@QAEEPAVLOG_IO_DP_DRIVE@@PAVMESSAGE@@@Z
  ?Initialize@CLUSTER_CHAIN@@QAEEPAVMEM@@PAVLOG_IO_DP_DRIVE@@PAVFAT_SA@@PBVFAT@@KK@Z=C:\Windows\SysWOW64\ufat.?Initialize@CLUSTER_CHAIN@@QAEEPAVMEM@@PAVLOG_IO_DP_DRIVE@@PAVFAT_SA@@PBVFAT@@KK@Z
  ?Initialize@EA_HEADER@@QAEEPAVMEM@@PAVLOG_IO_DP_DRIVE@@PAVFAT_SA@@PBVFAT@@KK@Z=C:\Windows\SysWOW64\ufat.?Initialize@EA_HEADER@@QAEEPAVMEM@@PAVLOG_IO_DP_DRIVE@@PAVFAT_SA@@PBVFAT@@KK@Z
  ?Initialize@EA_SET@@QAEEPAVMEM@@PAVLOG_IO_DP_DRIVE@@PAVFAT_SA@@PBVFAT@@KK@Z=C:\Windows\SysWOW64\ufat.?Initialize@EA_SET@@QAEEPAVMEM@@PAVLOG_IO_DP_DRIVE@@PAVFAT_SA@@PBVFAT@@KK@Z
  ?Initialize@FAT_DIRENT@@QAEEPAX@Z=C:\Windows\SysWOW64\ufat.?Initialize@FAT_DIRENT@@QAEEPAX@Z
  ?Initialize@FAT_DIRENT@@QAEEPAXE@Z=C:\Windows\SysWOW64\ufat.?Initialize@FAT_DIRENT@@QAEEPAXE@Z
  ?Initialize@FILEDIR@@QAEEPAVMEM@@PAVLOG_IO_DP_DRIVE@@PAVFAT_SA@@PBVFAT@@K@Z=C:\Windows\SysWOW64\ufat.?Initialize@FILEDIR@@QAEEPAVMEM@@PAVLOG_IO_DP_DRIVE@@PAVFAT_SA@@PBVFAT@@K@Z
  ?Initialize@REAL_FAT_SA@@UAEEPAVLOG_IO_DP_DRIVE@@PAVMESSAGE@@E@Z=C:\Windows\SysWOW64\ufat.?Initialize@REAL_FAT_SA@@UAEEPAVLOG_IO_DP_DRIVE@@PAVMESSAGE@@E@Z
  ?Initialize@ROOTDIR@@QAEEPAVMEM@@PAVLOG_IO_DP_DRIVE@@KJ@Z=C:\Windows\SysWOW64\ufat.?Initialize@ROOTDIR@@QAEEPAVMEM@@PAVLOG_IO_DP_DRIVE@@KJ@Z
  ?IsValidCreationTime@FAT_DIRENT@@QBEEXZ=C:\Windows\SysWOW64\ufat.?IsValidCreationTime@FAT_DIRENT@@QBEEXZ
  ?IsValidLastAccessTime@FAT_DIRENT@@QBEEXZ=C:\Windows\SysWOW64\ufat.?IsValidLastAccessTime@FAT_DIRENT@@QBEEXZ
  ?IsValidLastWriteTime@FAT_DIRENT@@QBEEXZ=C:\Windows\SysWOW64\ufat.?IsValidLastWriteTime@FAT_DIRENT@@QBEEXZ
  ?QueryAllocatedClusters@FAT@@QBEKXZ=C:\Windows\SysWOW64\ufat.?QueryAllocatedClusters@FAT@@QBEKXZ
  ?QueryCensusAndRelocate@FAT_SA@@QAEEPAU_CENSUS_REPORT@@PAVINTSTACK@@PAE@Z=C:\Windows\SysWOW64\ufat.?QueryCensusAndRelocate@FAT_SA@@QAEEPAU_CENSUS_REPORT@@PAVINTSTACK@@PAE@Z
  ?QueryCreationTime@FAT_DIRENT@@QBEEPAT_LARGE_INTEGER@@@Z=C:\Windows\SysWOW64\ufat.?QueryCreationTime@FAT_DIRENT@@QBEEPAT_LARGE_INTEGER@@@Z
  ?QueryEaSetClusterNumber@EA_HEADER@@QBEGG@Z=C:\Windows\SysWOW64\ufat.?QueryEaSetClusterNumber@EA_HEADER@@QBEGG@Z
  ?QueryFileStartingCluster@FAT_SA@@QAEKPBVWSTRING@@PAVHMEM@@PAPAVFATDIR@@PAEPAVFAT_DIRENT@@@Z=C:\Windows\SysWOW64\ufat.?QueryFileStartingCluster@FAT_SA@@QAEKPBVWSTRING@@PAVHMEM@@PAPAVFATDIR@@PAEPAVFAT_DIRENT@@@Z
  ?QueryFreeSectors@REAL_FAT_SA@@QBEKXZ=C:\Windows\SysWOW64\ufat.?QueryFreeSectors@REAL_FAT_SA@@QBEKXZ
  ?QueryLastAccessTime@FAT_DIRENT@@QBEEPAT_LARGE_INTEGER@@@Z=C:\Windows\SysWOW64\ufat.?QueryLastAccessTime@FAT_DIRENT@@QBEEPAT_LARGE_INTEGER@@@Z
  ?QueryLastWriteTime@FAT_DIRENT@@QBEEPAT_LARGE_INTEGER@@@Z=C:\Windows\SysWOW64\ufat.?QueryLastWriteTime@FAT_DIRENT@@QBEEPAT_LARGE_INTEGER@@@Z
  ?QueryLengthOfChain@FAT@@QBEKKPAK@Z=C:\Windows\SysWOW64\ufat.?QueryLengthOfChain@FAT@@QBEKKPAK@Z
  ?QueryLongName@FATDIR@@QAEEJPAVWSTRING@@@Z=C:\Windows\SysWOW64\ufat.?QueryLongName@FATDIR@@QAEEJPAVWSTRING@@@Z
  ?QueryName@FAT_DIRENT@@QBEEPAVWSTRING@@@Z=C:\Windows\SysWOW64\ufat.?QueryName@FAT_DIRENT@@QBEEPAVWSTRING@@@Z
  ?QueryNthCluster@FAT@@QBEKKK@Z=C:\Windows\SysWOW64\ufat.?QueryNthCluster@FAT@@QBEKKK@Z
  ?Read@CLUSTER_CHAIN@@UAEEXZ=C:\Windows\SysWOW64\ufat.?Read@CLUSTER_CHAIN@@UAEEXZ
  ?Read@EA_SET@@UAEEXZ=C:\Windows\SysWOW64\ufat.?Read@EA_SET@@UAEEXZ
  ?Read@REAL_FAT_SA@@UAEEPAVMESSAGE@@@Z=C:\Windows\SysWOW64\ufat.?Read@REAL_FAT_SA@@UAEEPAVMESSAGE@@@Z
  ?SearchForDirEntry@FATDIR@@QAEPAXPBVWSTRING@@@Z=C:\Windows\SysWOW64\ufat.?SearchForDirEntry@FATDIR@@QAEPAXPBVWSTRING@@@Z
  ?Set12@FAT@@AAEXKK@Z=C:\Windows\SysWOW64\ufat.?Set12@FAT@@AAEXKK@Z
  ?Write@CLUSTER_CHAIN@@UAEEXZ=C:\Windows\SysWOW64\ufat.?Write@CLUSTER_CHAIN@@UAEEXZ
  Chkdsk=C:\Windows\SysWOW64\ufat.Chkdsk
  ChkdskEx=C:\Windows\SysWOW64\ufat.ChkdskEx
  Format=C:\Windows\SysWOW64\ufat.Format
  FormatEx=C:\Windows\SysWOW64\ufat.FormatEx
  GetFilesystemInformation=C:\Windows\SysWOW64\ufat.GetFilesystemInformation
  Recover=C:\Windows\SysWOW64\ufat.Recover
