EXPORTS
  ??0ADMINFILEPRIVS@@QAE@XZ=C:\Windows\SysWOW64\ulib.??0ADMINFILEPRIVS@@QAE@XZ
  ??0ARGUMENT_LEXEMIZER@@QAE@XZ=C:\Windows\SysWOW64\ulib.??0ARGUMENT_LEXEMIZER@@QAE@XZ
  ??0ARRAY@@QAE@XZ=C:\Windows\SysWOW64\ulib.??0ARRAY@@QAE@XZ
  ??0BDSTRING@@QAE@ABV0@@Z=C:\Windows\SysWOW64\ulib.??0BDSTRING@@QAE@ABV0@@Z
  ??0BDSTRING@@QAE@XZ=C:\Windows\SysWOW64\ulib.??0BDSTRING@@QAE@XZ
  ??0BITVECTOR@@QAE@XZ=C:\Windows\SysWOW64\ulib.??0BITVECTOR@@QAE@XZ
  ??0BSTRING@@IAE@XZ=C:\Windows\SysWOW64\ulib.??0BSTRING@@IAE@XZ
  ??0BSTRING@@QAE@$$QAV0@@Z=C:\Windows\SysWOW64\ulib.??0BSTRING@@QAE@$$QAV0@@Z
  ??0BSTRING@@QAE@ABV0@@Z=C:\Windows\SysWOW64\ulib.??0BSTRING@@QAE@ABV0@@Z
  ??0BYTE_STREAM@@QAE@XZ=C:\Windows\SysWOW64\ulib.??0BYTE_STREAM@@QAE@XZ
  ??0CHKDSK_MESSAGE@@QAE@XZ=C:\Windows\SysWOW64\ulib.??0CHKDSK_MESSAGE@@QAE@XZ
  ??0CLASS_DESCRIPTOR@@QAE@XZ=C:\Windows\SysWOW64\ulib.??0CLASS_DESCRIPTOR@@QAE@XZ
  ??0COMM_DEVICE@@QAE@XZ=C:\Windows\SysWOW64\ulib.??0COMM_DEVICE@@QAE@XZ
  ??0CONT_MEM@@QAE@XZ=C:\Windows\SysWOW64\ulib.??0CONT_MEM@@QAE@XZ
  ??0DSTRING@@QAE@ABV0@@Z=C:\Windows\SysWOW64\ulib.??0DSTRING@@QAE@ABV0@@Z
  ??0DSTRING@@QAE@XZ=C:\Windows\SysWOW64\ulib.??0DSTRING@@QAE@XZ
  ??0FLAG_ARGUMENT@@QAE@XZ=C:\Windows\SysWOW64\ulib.??0FLAG_ARGUMENT@@QAE@XZ
  ??0FSN_FILTER@@QAE@XZ=C:\Windows\SysWOW64\ulib.??0FSN_FILTER@@QAE@XZ
  ??0FSTRING@@QAE@$$QAV0@@Z=C:\Windows\SysWOW64\ulib.??0FSTRING@@QAE@$$QAV0@@Z
  ??0FSTRING@@QAE@ABV0@@Z=C:\Windows\SysWOW64\ulib.??0FSTRING@@QAE@ABV0@@Z
  ??0FSTRING@@QAE@XZ=C:\Windows\SysWOW64\ulib.??0FSTRING@@QAE@XZ
  ??0HMEM@@QAE@XZ=C:\Windows\SysWOW64\ulib.??0HMEM@@QAE@XZ
  ??0ITERATOR@@IAE@XZ=C:\Windows\SysWOW64\ulib.??0ITERATOR@@IAE@XZ
  ??0ITERATOR@@QAE@ABV0@@Z=C:\Windows\SysWOW64\ulib.??0ITERATOR@@QAE@ABV0@@Z
  ??0KEYBOARD@@QAE@XZ=C:\Windows\SysWOW64\ulib.??0KEYBOARD@@QAE@XZ
  ??0LIST@@QAE@XZ=C:\Windows\SysWOW64\ulib.??0LIST@@QAE@XZ
  ??0LONG_ARGUMENT@@QAE@XZ=C:\Windows\SysWOW64\ulib.??0LONG_ARGUMENT@@QAE@XZ
  ??0MACHINE@@QAE@XZ=C:\Windows\SysWOW64\ulib.??0MACHINE@@QAE@XZ
  ??0MEM_ALLOCATOR@@QAE@XZ=C:\Windows\SysWOW64\ulib.??0MEM_ALLOCATOR@@QAE@XZ
  ??0MEM_BLOCK_MGR@@QAE@XZ=C:\Windows\SysWOW64\ulib.??0MEM_BLOCK_MGR@@QAE@XZ
  ??0MESSAGE@@QAE@XZ=C:\Windows\SysWOW64\ulib.??0MESSAGE@@QAE@XZ
  ??0MESSAGE_ID_COUNT@@QAE@XZ=C:\Windows\SysWOW64\ulib.??0MESSAGE_ID_COUNT@@QAE@XZ
  ??0MULTIPLE_PATH_ARGUMENT@@QAE@XZ=C:\Windows\SysWOW64\ulib.??0MULTIPLE_PATH_ARGUMENT@@QAE@XZ
  ??0OBJECT@@IAE@XZ=C:\Windows\SysWOW64\ulib.??0OBJECT@@IAE@XZ
  ??0OBJECT@@QAE@ABV0@@Z=C:\Windows\SysWOW64\ulib.??0OBJECT@@QAE@ABV0@@Z
  ??0PATH@@QAE@XZ=C:\Windows\SysWOW64\ulib.??0PATH@@QAE@XZ
  ??0PATH_ARGUMENT@@QAE@XZ=C:\Windows\SysWOW64\ulib.??0PATH_ARGUMENT@@QAE@XZ
  ??0PRINT_STREAM@@QAE@XZ=C:\Windows\SysWOW64\ulib.??0PRINT_STREAM@@QAE@XZ
  ??0PROGRAM@@IAE@XZ=C:\Windows\SysWOW64\ulib.??0PROGRAM@@IAE@XZ
  ??0REST_OF_LINE_ARGUMENT@@QAE@XZ=C:\Windows\SysWOW64\ulib.??0REST_OF_LINE_ARGUMENT@@QAE@XZ
  ??0SCREEN@@QAE@XZ=C:\Windows\SysWOW64\ulib.??0SCREEN@@QAE@XZ
  ??0SORTED_LIST@@QAE@XZ=C:\Windows\SysWOW64\ulib.??0SORTED_LIST@@QAE@XZ
  ??0STACK@@QAE@XZ=C:\Windows\SysWOW64\ulib.??0STACK@@QAE@XZ
  ??0STREAM_MESSAGE@@QAE@XZ=C:\Windows\SysWOW64\ulib.??0STREAM_MESSAGE@@QAE@XZ
  ??0STRING_ARGUMENT@@QAE@XZ=C:\Windows\SysWOW64\ulib.??0STRING_ARGUMENT@@QAE@XZ
  ??0STRING_ARRAY@@QAE@XZ=C:\Windows\SysWOW64\ulib.??0STRING_ARRAY@@QAE@XZ
  ??0TIMEINFO@@QAE@XZ=C:\Windows\SysWOW64\ulib.??0TIMEINFO@@QAE@XZ
  ??0TIMEINFO_ARGUMENT@@QAE@XZ=C:\Windows\SysWOW64\ulib.??0TIMEINFO_ARGUMENT@@QAE@XZ
  ??0WSTRING@@IAE@XZ=C:\Windows\SysWOW64\ulib.??0WSTRING@@IAE@XZ
  ??0WSTRING@@QAE@$$QAV0@@Z=C:\Windows\SysWOW64\ulib.??0WSTRING@@QAE@$$QAV0@@Z
  ??0WSTRING@@QAE@ABV0@@Z=C:\Windows\SysWOW64\ulib.??0WSTRING@@QAE@ABV0@@Z
  ??1ADMINFILEPRIVS@@QAE@XZ=C:\Windows\SysWOW64\ulib.??1ADMINFILEPRIVS@@QAE@XZ
  ??1ARGUMENT_LEXEMIZER@@UAE@XZ=C:\Windows\SysWOW64\ulib.??1ARGUMENT_LEXEMIZER@@UAE@XZ
  ??1ARRAY@@UAE@XZ=C:\Windows\SysWOW64\ulib.??1ARRAY@@UAE@XZ
  ??1BDSTRING@@UAE@XZ=C:\Windows\SysWOW64\ulib.??1BDSTRING@@UAE@XZ
  ??1BITVECTOR@@UAE@XZ=C:\Windows\SysWOW64\ulib.??1BITVECTOR@@UAE@XZ
  ??1BSTRING@@UAE@XZ=C:\Windows\SysWOW64\ulib.??1BSTRING@@UAE@XZ
  ??1BYTE_STREAM@@UAE@XZ=C:\Windows\SysWOW64\ulib.??1BYTE_STREAM@@UAE@XZ
  ??1CHKDSK_MESSAGE@@UAE@XZ=C:\Windows\SysWOW64\ulib.??1CHKDSK_MESSAGE@@UAE@XZ
  ??1COMM_DEVICE@@UAE@XZ=C:\Windows\SysWOW64\ulib.??1COMM_DEVICE@@UAE@XZ
  ??1DSTRING@@UAE@XZ=C:\Windows\SysWOW64\ulib.??1DSTRING@@UAE@XZ
  ??1FSN_FILTER@@UAE@XZ=C:\Windows\SysWOW64\ulib.??1FSN_FILTER@@UAE@XZ
  ??1FSTRING@@UAE@XZ=C:\Windows\SysWOW64\ulib.??1FSTRING@@UAE@XZ
  ??1HMEM@@UAE@XZ=C:\Windows\SysWOW64\ulib.??1HMEM@@UAE@XZ
  ??1ITERATOR@@UAE@XZ=C:\Windows\SysWOW64\ulib.??1ITERATOR@@UAE@XZ
  ??1LIST@@UAE@XZ=C:\Windows\SysWOW64\ulib.??1LIST@@UAE@XZ
  ??1MEM_ALLOCATOR@@UAE@XZ=C:\Windows\SysWOW64\ulib.??1MEM_ALLOCATOR@@UAE@XZ
  ??1MEM_BLOCK_MGR@@UAE@XZ=C:\Windows\SysWOW64\ulib.??1MEM_BLOCK_MGR@@UAE@XZ
  ??1MESSAGE@@UAE@XZ=C:\Windows\SysWOW64\ulib.??1MESSAGE@@UAE@XZ
  ??1MESSAGE_ID_COUNT@@UAE@XZ=C:\Windows\SysWOW64\ulib.??1MESSAGE_ID_COUNT@@UAE@XZ
  ??1MULTIPLE_PATH_ARGUMENT@@UAE@XZ=C:\Windows\SysWOW64\ulib.??1MULTIPLE_PATH_ARGUMENT@@UAE@XZ
  ??1OBJECT@@UAE@XZ=C:\Windows\SysWOW64\ulib.??1OBJECT@@UAE@XZ
  ??1PATH@@UAE@XZ=C:\Windows\SysWOW64\ulib.??1PATH@@UAE@XZ
  ??1PATH_ARGUMENT@@UAE@XZ=C:\Windows\SysWOW64\ulib.??1PATH_ARGUMENT@@UAE@XZ
  ??1PRINT_STREAM@@UAE@XZ=C:\Windows\SysWOW64\ulib.??1PRINT_STREAM@@UAE@XZ
  ??1PROGRAM@@UAE@XZ=C:\Windows\SysWOW64\ulib.??1PROGRAM@@UAE@XZ
  ??1SCREEN@@UAE@XZ=C:\Windows\SysWOW64\ulib.??1SCREEN@@UAE@XZ
  ??1SORTED_LIST@@UAE@XZ=C:\Windows\SysWOW64\ulib.??1SORTED_LIST@@UAE@XZ
  ??1STACK@@UAE@XZ=C:\Windows\SysWOW64\ulib.??1STACK@@UAE@XZ
  ??1STREAM_MESSAGE@@UAE@XZ=C:\Windows\SysWOW64\ulib.??1STREAM_MESSAGE@@UAE@XZ
  ??1STRING_ARGUMENT@@UAE@XZ=C:\Windows\SysWOW64\ulib.??1STRING_ARGUMENT@@UAE@XZ
  ??1TIMEINFO_ARGUMENT@@UAE@XZ=C:\Windows\SysWOW64\ulib.??1TIMEINFO_ARGUMENT@@UAE@XZ
  ??1WSTRING@@UAE@XZ=C:\Windows\SysWOW64\ulib.??1WSTRING@@UAE@XZ
  ??4BDSTRING@@QAEAAV0@ABV0@@Z=C:\Windows\SysWOW64\ulib.??4BDSTRING@@QAEAAV0@ABV0@@Z
  ??4BSTRING@@QAEAAV0@$$QAV0@@Z=C:\Windows\SysWOW64\ulib.??4BSTRING@@QAEAAV0@$$QAV0@@Z
  ??4BSTRING@@QAEAAV0@ABV0@@Z=C:\Windows\SysWOW64\ulib.??4BSTRING@@QAEAAV0@ABV0@@Z
  ??4DSTRING@@QAEAAV0@ABV0@@Z=C:\Windows\SysWOW64\ulib.??4DSTRING@@QAEAAV0@ABV0@@Z
  ??4FSTRING@@QAEAAV0@$$QAV0@@Z=C:\Windows\SysWOW64\ulib.??4FSTRING@@QAEAAV0@$$QAV0@@Z
  ??4FSTRING@@QAEAAV0@ABV0@@Z=C:\Windows\SysWOW64\ulib.??4FSTRING@@QAEAAV0@ABV0@@Z
  ??4ITERATOR@@QAEAAV0@ABV0@@Z=C:\Windows\SysWOW64\ulib.??4ITERATOR@@QAEAAV0@ABV0@@Z
  ??4OBJECT@@QAEAAV0@ABV0@@Z=C:\Windows\SysWOW64\ulib.??4OBJECT@@QAEAAV0@ABV0@@Z
  ??4WSTRING@@QAEAAV0@$$QAV0@@Z=C:\Windows\SysWOW64\ulib.??4WSTRING@@QAEAAV0@$$QAV0@@Z
  ??4WSTRING@@QAEAAV0@ABV0@@Z=C:\Windows\SysWOW64\ulib.??4WSTRING@@QAEAAV0@ABV0@@Z
  ??8WSTRING@@QBEEABV0@@Z=C:\Windows\SysWOW64\ulib.??8WSTRING@@QBEEABV0@@Z
  ??9WSTRING@@QBEEABV0@@Z=C:\Windows\SysWOW64\ulib.??9WSTRING@@QBEEABV0@@Z
  ??MTIMEINFO@@QBEEV0@@Z=C:\Windows\SysWOW64\ulib.??MTIMEINFO@@QBEEV0@@Z
  ??MWSTRING@@QBEEABV0@@Z=C:\Windows\SysWOW64\ulib.??MWSTRING@@QBEEABV0@@Z
  ??NWSTRING@@QBEEABV0@@Z=C:\Windows\SysWOW64\ulib.??NWSTRING@@QBEEABV0@@Z
  ??OTIMEINFO@@QBEEV0@@Z=C:\Windows\SysWOW64\ulib.??OTIMEINFO@@QBEEV0@@Z
  ??OWSTRING@@QBEEABV0@@Z=C:\Windows\SysWOW64\ulib.??OWSTRING@@QBEEABV0@@Z
  ??PWSTRING@@QBEEABV0@@Z=C:\Windows\SysWOW64\ulib.??PWSTRING@@QBEEABV0@@Z
  ??_7BDSTRING@@6B@=C:\Windows\SysWOW64\ulib.??_7BDSTRING@@6B@
  ??_7BSTRING@@6B@=C:\Windows\SysWOW64\ulib.??_7BSTRING@@6B@
  ??_7DSTRING@@6B@=C:\Windows\SysWOW64\ulib.??_7DSTRING@@6B@
  ??_7FSTRING@@6B@=C:\Windows\SysWOW64\ulib.??_7FSTRING@@6B@
  ??_7ITERATOR@@6B@=C:\Windows\SysWOW64\ulib.??_7ITERATOR@@6B@
  ??_7OBJECT@@6B@=C:\Windows\SysWOW64\ulib.??_7OBJECT@@6B@
  ??_7WSTRING@@6B@=C:\Windows\SysWOW64\ulib.??_7WSTRING@@6B@
  ?Acquire@CONT_MEM@@UAEPAXKK@Z=C:\Windows\SysWOW64\ulib.?Acquire@CONT_MEM@@UAEPAXKK@Z
  ?Acquire@HMEM@@UAEPAXKK@Z=C:\Windows\SysWOW64\ulib.?Acquire@HMEM@@UAEPAXKK@Z
  ?Alloc@MEM_BLOCK_MGR@@QAEPAXXZ=C:\Windows\SysWOW64\ulib.?Alloc@MEM_BLOCK_MGR@@QAEPAXXZ
  ?Allocate@MEM_ALLOCATOR@@QAEPAXK@Z=C:\Windows\SysWOW64\ulib.?Allocate@MEM_ALLOCATOR@@QAEPAXK@Z
  ?AnalyzePath@PATH@@QAE?AW4PATH_ANALYZE_CODE@@PAVWSTRING@@PAV1@0@Z=C:\Windows\SysWOW64\ulib.?AnalyzePath@PATH@@QAE?AW4PATH_ANALYZE_CODE@@PAVWSTRING@@PAV1@0@Z
  ?AppendBase@PATH@@QAEEPBVWSTRING@@E@Z=C:\Windows\SysWOW64\ulib.?AppendBase@PATH@@QAEEPBVWSTRING@@E@Z
  ?AppendDelimiter@PATH@@QAEEXZ=C:\Windows\SysWOW64\ulib.?AppendDelimiter@PATH@@QAEEXZ
  ?AppendString@PATH@@QAEEPBVWSTRING@@@Z=C:\Windows\SysWOW64\ulib.?AppendString@PATH@@QAEEPBVWSTRING@@@Z
  ?Cast@FILE_STREAM@@SGPAV1@PBVOBJECT@@@Z=C:\Windows\SysWOW64\ulib.?Cast@FILE_STREAM@@SGPAV1@PBVOBJECT@@@Z
  ?Cast@KEYBOARD@@SGPAV1@PBVOBJECT@@@Z=C:\Windows\SysWOW64\ulib.?Cast@KEYBOARD@@SGPAV1@PBVOBJECT@@@Z
  ?Cast@SCREEN@@SGPAV1@PBVOBJECT@@@Z=C:\Windows\SysWOW64\ulib.?Cast@SCREEN@@SGPAV1@PBVOBJECT@@@Z
  ?ChangeScreenSize@SCREEN@@QAEEGGPAE@Z=C:\Windows\SysWOW64\ulib.?ChangeScreenSize@SCREEN@@QAEEGGPAE@Z
  ?CharNextW@MBSTR@@SGPADPAD@Z=C:\Windows\SysWOW64\ulib.?CharNextW@MBSTR@@SGPADPAD@Z
  ?CheckSpace@WSTRING@@CGHPAG@Z=C:\Windows\SysWOW64\ulib.?CheckSpace@WSTRING@@CGHPAG@Z
  ?CommitState@COMM_DEVICE@@QAEEXZ=C:\Windows\SysWOW64\ulib.?CommitState@COMM_DEVICE@@QAEEXZ
  ?Compare@OBJECT@@UBEJPBV1@@Z=C:\Windows\SysWOW64\ulib.?Compare@OBJECT@@UBEJPBV1@@Z
  ?ComputeCountSet@BITVECTOR@@ABEKXZ=C:\Windows\SysWOW64\ulib.?ComputeCountSet@BITVECTOR@@ABEKXZ
  ?Construct@BDSTRING@@AAEXXZ=C:\Windows\SysWOW64\ulib.?Construct@BDSTRING@@AAEXXZ
  ?Construct@BSTRING@@IAEXXZ=C:\Windows\SysWOW64\ulib.?Construct@BSTRING@@IAEXXZ
  ?Construct@DSTRING@@AAEXXZ=C:\Windows\SysWOW64\ulib.?Construct@DSTRING@@AAEXXZ
  ?Construct@OBJECT@@IAEXXZ=C:\Windows\SysWOW64\ulib.?Construct@OBJECT@@IAEXXZ
  ?Construct@WSTRING@@IAEXXZ=C:\Windows\SysWOW64\ulib.?Construct@WSTRING@@IAEXXZ
  ?ConvertOemToUnicodeN@WSTRING@@CGEPAGKPAKPADK@Z=C:\Windows\SysWOW64\ulib.?ConvertOemToUnicodeN@WSTRING@@CGEPAGKPAKPADK@Z
  ?ConvertToLocal@TIMEINFO@@QAEEXZ=C:\Windows\SysWOW64\ulib.?ConvertToLocal@TIMEINFO@@QAEEXZ
  ?ConvertToUTC@TIMEINFO@@QAEEXZ=C:\Windows\SysWOW64\ulib.?ConvertToUTC@TIMEINFO@@QAEEXZ
  ?ConvertUnicodeToOemN@WSTRING@@CGEPADKPAKPAGK@Z=C:\Windows\SysWOW64\ulib.?ConvertUnicodeToOemN@WSTRING@@CGEPADKPAKPAGK@Z
  ?Copy@FSN_FILE@@QBEEPAVPATH@@PAW4_COPY_ERROR@@KP6GKT_LARGE_INTEGER@@222KKPAX33@Z3PAH@Z=C:\Windows\SysWOW64\ulib.?Copy@FSN_FILE@@QBEEPAVPATH@@PAW4_COPY_ERROR@@KP6GKT_LARGE_INTEGER@@222KKPAX33@Z3PAH@Z
  ?CreateDirectoryPath@FSN_DIRECTORY@@QBEPAV1@PBVPATH@@@Z=C:\Windows\SysWOW64\ulib.?CreateDirectoryPath@FSN_DIRECTORY@@QBEPAV1@PBVPATH@@@Z
  ?DebugDump@OBJECT@@UBEXE@Z=C:\Windows\SysWOW64\ulib.?DebugDump@OBJECT@@UBEXE@Z
  ?DebugGetClassName@OBJECT@@QBEPBDXZ=C:\Windows\SysWOW64\ulib.?DebugGetClassName@OBJECT@@QBEPBDXZ
  ?DeleteAllMembers@ARRAY@@UAEEXZ=C:\Windows\SysWOW64\ulib.?DeleteAllMembers@ARRAY@@UAEEXZ
  ?DeleteAllMembers@SEQUENTIAL_CONTAINER@@UAEEXZ=C:\Windows\SysWOW64\ulib.?DeleteAllMembers@SEQUENTIAL_CONTAINER@@UAEEXZ
  ?DeleteAllMembers@SORTED_LIST@@UAEEXZ=C:\Windows\SysWOW64\ulib.?DeleteAllMembers@SORTED_LIST@@UAEEXZ
  ?DeleteChAt@BSTRING@@QAEXKK@Z=C:\Windows\SysWOW64\ulib.?DeleteChAt@BSTRING@@QAEXKK@Z
  ?DeleteChAt@WSTRING@@QAEXKK@Z=C:\Windows\SysWOW64\ulib.?DeleteChAt@WSTRING@@QAEXKK@Z
  ?DeleteDirectory@FSN_DIRECTORY@@QAEEXZ=C:\Windows\SysWOW64\ulib.?DeleteDirectory@FSN_DIRECTORY@@QAEEXZ
  ?DeleteOldest@SVILOGFILES@@QAEEXZ=C:\Windows\SysWOW64\ulib.?DeleteOldest@SVILOGFILES@@QAEEXZ
  ?DisableBreakHandling@KEYBOARD@@SGEXZ=C:\Windows\SysWOW64\ulib.?DisableBreakHandling@KEYBOARD@@SGEXZ
  ?DisableLineMode@KEYBOARD@@QAEEXZ=C:\Windows\SysWOW64\ulib.?DisableLineMode@KEYBOARD@@QAEEXZ
  ?Display@MESSAGE@@QAAEPBDZZ=C:\Windows\SysWOW64\ulib.?Display@MESSAGE@@QAAEPBDZZ
  ?DisplayMessage@PROGRAM@@UBAEKW4MESSAGE_TYPE@@PADZZ=C:\Windows\SysWOW64\ulib.?DisplayMessage@PROGRAM@@UBAEKW4MESSAGE_TYPE@@PADZZ
  ?DisplayMessage@PROGRAM@@UBEEKW4MESSAGE_TYPE@@@Z=C:\Windows\SysWOW64\ulib.?DisplayMessage@PROGRAM@@UBEEKW4MESSAGE_TYPE@@@Z
  ?DisplayMsg@MESSAGE@@QAAEKPBDZZ=C:\Windows\SysWOW64\ulib.?DisplayMsg@MESSAGE@@QAAEKPBDZZ
  ?DisplayMsg@MESSAGE@@QAAEKW4MESSAGE_TYPE@@KPBDZZ=C:\Windows\SysWOW64\ulib.?DisplayMsg@MESSAGE@@QAAEKW4MESSAGE_TYPE@@KPBDZZ
  ?DisplayMsg@MESSAGE@@QAEEK@Z=C:\Windows\SysWOW64\ulib.?DisplayMsg@MESSAGE@@QAEEK@Z
  ?DisplayMsg@MESSAGE@@QAEEKW4MESSAGE_TYPE@@K@Z=C:\Windows\SysWOW64\ulib.?DisplayMsg@MESSAGE@@QAEEKW4MESSAGE_TYPE@@K@Z
  ?DisplaySystemError@SYSTEM@@SGXKH@Z=C:\Windows\SysWOW64\ulib.?DisplaySystemError@SYSTEM@@SGXKH@Z
  ?DoNotRestoreConsoleMode@KEYBOARD@@UAEXXZ=C:\Windows\SysWOW64\ulib.?DoNotRestoreConsoleMode@KEYBOARD@@UAEXXZ
  ?DoParsing@ARGUMENT_LEXEMIZER@@QAEEPAVARRAY@@@Z=C:\Windows\SysWOW64\ulib.?DoParsing@ARGUMENT_LEXEMIZER@@QAEEPAVARRAY@@@Z
  ?DoesNodeMatch@FSN_FILTER@@QAEEPAVFSNODE@@@Z=C:\Windows\SysWOW64\ulib.?DoesNodeMatch@FSN_FILTER@@QAEEPAVFSNODE@@@Z
  ?DumpDataToLog@MESSAGE@@QAEEPAXK@Z=C:\Windows\SysWOW64\ulib.?DumpDataToLog@MESSAGE@@QAEEPAXK@Z
  ?EnableBreakHandling@KEYBOARD@@SGEXZ=C:\Windows\SysWOW64\ulib.?EnableBreakHandling@KEYBOARD@@SGEXZ
  ?EnableLineMode@KEYBOARD@@QAEEXZ=C:\Windows\SysWOW64\ulib.?EnableLineMode@KEYBOARD@@QAEEXZ
  ?EnablePrivileges@ADMINFILEPRIVS@@QAEJXZ=C:\Windows\SysWOW64\ulib.?EnablePrivileges@ADMINFILEPRIVS@@QAEJXZ
  ?EndsWithDelimiter@PATH@@QBEEXZ=C:\Windows\SysWOW64\ulib.?EndsWithDelimiter@PATH@@QBEEXZ
  ?EraseScreen@SCREEN@@QAEEXZ=C:\Windows\SysWOW64\ulib.?EraseScreen@SCREEN@@QAEEXZ
  ?EraseScreenAndResetAttribute@SCREEN@@QAEEXZ=C:\Windows\SysWOW64\ulib.?EraseScreenAndResetAttribute@SCREEN@@QAEEXZ
  ?ExitProgram@PROGRAM@@SGXK@Z=C:\Windows\SysWOW64\ulib.?ExitProgram@PROGRAM@@SGXK@Z
  ?Fatal@PROGRAM@@UBAXKKPADZZ=C:\Windows\SysWOW64\ulib.?Fatal@PROGRAM@@UBAXKKPADZZ
  ?Fatal@PROGRAM@@UBEXXZ=C:\Windows\SysWOW64\ulib.?Fatal@PROGRAM@@UBEXXZ
  ?FileExport@SQMEXPORT@@SAEPAXKEPADZZ=C:\Windows\SysWOW64\ulib.?FileExport@SQMEXPORT@@SAEPAXKEPADZZ
  ?FillAndReadByte@BYTE_STREAM@@AAEEPAE@Z=C:\Windows\SysWOW64\ulib.?FillAndReadByte@BYTE_STREAM@@AAEEPAE@Z
  ?FindFirstFileW@@YGPAXPBVPATH@@PAU_WIN32_FIND_DATAW@@@Z=C:\Windows\SysWOW64\ulib.?FindFirstFileW@@YGPAXPBVPATH@@PAU_WIN32_FIND_DATAW@@@Z
  ?FindNext@ITERATOR@@UAEPAVOBJECT@@PBV2@@Z=C:\Windows\SysWOW64\ulib.?FindNext@ITERATOR@@UAEPAVOBJECT@@PBV2@@Z
  ?Flush@KEYBOARD@@QAEEXZ=C:\Windows\SysWOW64\ulib.?Flush@KEYBOARD@@QAEEXZ
  ?Free@MEM_BLOCK_MGR@@QAEEPAX@Z=C:\Windows\SysWOW64\ulib.?Free@MEM_BLOCK_MGR@@QAEEPAX@Z
  ?FreeLibraryHandle@SYSTEM@@SGXPAX@Z=C:\Windows\SysWOW64\ulib.?FreeLibraryHandle@SYSTEM@@SGXPAX@Z
  ?GetAt@ARRAY@@UBEPAVOBJECT@@K@Z=C:\Windows\SysWOW64\ulib.?GetAt@ARRAY@@UBEPAVOBJECT@@K@Z
  ?GetClassDescriptor@OBJECT@@QBEPBVCLASS_DESCRIPTOR@@XZ=C:\Windows\SysWOW64\ulib.?GetClassDescriptor@OBJECT@@QBEPBVCLASS_DESCRIPTOR@@XZ
  ?GetCompareArgument@ARRAY@@SGPAVOBJECT@@PAX@Z=C:\Windows\SysWOW64\ulib.?GetCompareArgument@ARRAY@@SGPAVOBJECT@@PAX@Z
  ?GetFileSecurityBackup@SYSTEM@@SGEPBVPATH@@KPAU_SECURITY_ATTRIBUTES@@PAK@Z=C:\Windows\SysWOW64\ulib.?GetFileSecurityBackup@SYSTEM@@SGEPBVPATH@@KPAU_SECURITY_ATTRIBUTES@@PAK@Z
  ?GetHandleNewLogFile@SVILOGFILES@@QAEEPAPAX@Z=C:\Windows\SysWOW64\ulib.?GetHandleNewLogFile@SVILOGFILES@@QAEEPAPAX@Z
  ?GetLexeme@ARGUMENT@@QAEPAVWSTRING@@XZ=C:\Windows\SysWOW64\ulib.?GetLexeme@ARGUMENT@@QAEPAVWSTRING@@XZ
  ?GetLexemeAt@ARGUMENT_LEXEMIZER@@QAEPAVWSTRING@@K@Z=C:\Windows\SysWOW64\ulib.?GetLexemeAt@ARGUMENT_LEXEMIZER@@QAEPAVWSTRING@@K@Z
  ?GetNext@FSN_DIRECTORY@@QAEPAVFSNODE@@PAPAXPAK@Z=C:\Windows\SysWOW64\ulib.?GetNext@FSN_DIRECTORY@@QAEPAVFSNODE@@PAPAXPAK@Z
  ?GetPFlagBreak@KEYBOARD@@QBEQAHXZ=C:\Windows\SysWOW64\ulib.?GetPFlagBreak@KEYBOARD@@QBEQAHXZ
  ?GetPattern@ARGUMENT@@QAEPAVWSTRING@@XZ=C:\Windows\SysWOW64\ulib.?GetPattern@ARGUMENT@@QAEPAVWSTRING@@XZ
  ?GetStandardError@PROGRAM@@UAEPAVSTREAM@@XZ=C:\Windows\SysWOW64\ulib.?GetStandardError@PROGRAM@@UAEPAVSTREAM@@XZ
  ?GetStandardInput@PROGRAM@@UAEPAVSTREAM@@XZ=C:\Windows\SysWOW64\ulib.?GetStandardInput@PROGRAM@@UAEPAVSTREAM@@XZ
  ?GetStandardOutput@PROGRAM@@UAEPAVSTREAM@@XZ=C:\Windows\SysWOW64\ulib.?GetStandardOutput@PROGRAM@@UAEPAVSTREAM@@XZ
  ?GetWSTR@WSTRING@@QBEPBGXZ=C:\Windows\SysWOW64\ulib.?GetWSTR@WSTRING@@QBEPBGXZ
  ?GetWSTRNonConst@WSTRING@@QAEPAGXZ=C:\Windows\SysWOW64\ulib.?GetWSTRNonConst@WSTRING@@QAEPAGXZ
  ?GotABreak@KEYBOARD@@SGEXZ=C:\Windows\SysWOW64\ulib.?GotABreak@KEYBOARD@@SGEXZ
  ?HasWildCard@PATH@@QBEEXZ=C:\Windows\SysWOW64\ulib.?HasWildCard@PATH@@QBEEXZ
  ?Initialize@ARGUMENT_LEXEMIZER@@QAEEPAVARRAY@@@Z=C:\Windows\SysWOW64\ulib.?Initialize@ARGUMENT_LEXEMIZER@@QAEEPAVARRAY@@@Z
  ?Initialize@ARRAY@@QAEEKK@Z=C:\Windows\SysWOW64\ulib.?Initialize@ARRAY@@QAEEKK@Z
  ?Initialize@BITVECTOR@@QAEEKW4BIT@@PAK@Z=C:\Windows\SysWOW64\ulib.?Initialize@BITVECTOR@@QAEEKW4BIT@@PAK@Z
  ?Initialize@BITVECTOR@@QAEXPAKK@Z=C:\Windows\SysWOW64\ulib.?Initialize@BITVECTOR@@QAEXPAKK@Z
  ?Initialize@BSTRING@@QAEEPBDK@Z=C:\Windows\SysWOW64\ulib.?Initialize@BSTRING@@QAEEPBDK@Z
  ?Initialize@BSTRING@@QAEEXZ=C:\Windows\SysWOW64\ulib.?Initialize@BSTRING@@QAEEXZ
  ?Initialize@BYTE_STREAM@@QAEEPAVSTREAM@@K@Z=C:\Windows\SysWOW64\ulib.?Initialize@BYTE_STREAM@@QAEEPAVSTREAM@@K@Z
  ?Initialize@CHKDSK_MESSAGE@@QAEEPAVSTREAM@@00@Z=C:\Windows\SysWOW64\ulib.?Initialize@CHKDSK_MESSAGE@@QAEEPAVSTREAM@@00@Z
  ?Initialize@CLASS_DESCRIPTOR@@QAEEPBD@Z=C:\Windows\SysWOW64\ulib.?Initialize@CLASS_DESCRIPTOR@@QAEEPBD@Z
  ?Initialize@COMM_DEVICE@@QAEEPBVPATH@@PAE@Z=C:\Windows\SysWOW64\ulib.?Initialize@COMM_DEVICE@@QAEEPBVPATH@@PAE@Z
  ?Initialize@CONT_MEM@@QAEEPAXK@Z=C:\Windows\SysWOW64\ulib.?Initialize@CONT_MEM@@QAEEPAXK@Z
  ?Initialize@FLAG_ARGUMENT@@QAEEPAD@Z=C:\Windows\SysWOW64\ulib.?Initialize@FLAG_ARGUMENT@@QAEEPAD@Z
  ?Initialize@FLAG_ARGUMENT@@QAEEPAVWSTRING@@@Z=C:\Windows\SysWOW64\ulib.?Initialize@FLAG_ARGUMENT@@QAEEPAVWSTRING@@@Z
  ?Initialize@FSN_FILTER@@QAEEXZ=C:\Windows\SysWOW64\ulib.?Initialize@FSN_FILTER@@QAEEXZ
  ?Initialize@FSTRING@@QAEPAVWSTRING@@PAGK@Z=C:\Windows\SysWOW64\ulib.?Initialize@FSTRING@@QAEPAVWSTRING@@PAGK@Z
  ?Initialize@HMEM@@QAEEXZ=C:\Windows\SysWOW64\ulib.?Initialize@HMEM@@QAEEXZ
  ?Initialize@KEYBOARD@@QAEEEE@Z=C:\Windows\SysWOW64\ulib.?Initialize@KEYBOARD@@QAEEEE@Z
  ?Initialize@LIST@@QAEEXZ=C:\Windows\SysWOW64\ulib.?Initialize@LIST@@QAEEXZ
  ?Initialize@LONG_ARGUMENT@@QAEEPAD@Z=C:\Windows\SysWOW64\ulib.?Initialize@LONG_ARGUMENT@@QAEEPAD@Z
  ?Initialize@MACHINE@@QAEEXZ=C:\Windows\SysWOW64\ulib.?Initialize@MACHINE@@QAEEXZ
  ?Initialize@MEM_ALLOCATOR@@QAEE_KK@Z=C:\Windows\SysWOW64\ulib.?Initialize@MEM_ALLOCATOR@@QAEE_KK@Z
  ?Initialize@MEM_BLOCK_MGR@@QAEEKK@Z=C:\Windows\SysWOW64\ulib.?Initialize@MEM_BLOCK_MGR@@QAEEKK@Z
  ?Initialize@MESSAGE@@QAEEXZ=C:\Windows\SysWOW64\ulib.?Initialize@MESSAGE@@QAEEXZ
  ?Initialize@MULTIPLE_PATH_ARGUMENT@@QAEEPADEE@Z=C:\Windows\SysWOW64\ulib.?Initialize@MULTIPLE_PATH_ARGUMENT@@QAEEPADEE@Z
  ?Initialize@PATH@@QAEEPBGE@Z=C:\Windows\SysWOW64\ulib.?Initialize@PATH@@QAEEPBGE@Z
  ?Initialize@PATH@@QAEEPBV1@E@Z=C:\Windows\SysWOW64\ulib.?Initialize@PATH@@QAEEPBV1@E@Z
  ?Initialize@PATH@@QAEEPBVWSTRING@@E@Z=C:\Windows\SysWOW64\ulib.?Initialize@PATH@@QAEEPBVWSTRING@@E@Z
  ?Initialize@PATH_ARGUMENT@@QAEEPADE@Z=C:\Windows\SysWOW64\ulib.?Initialize@PATH_ARGUMENT@@QAEEPADE@Z
  ?Initialize@PRINT_STREAM@@QAEEPBVPATH@@@Z=C:\Windows\SysWOW64\ulib.?Initialize@PRINT_STREAM@@QAEEPBVPATH@@@Z
  ?Initialize@PROGRAM@@QAEEKKK@Z=C:\Windows\SysWOW64\ulib.?Initialize@PROGRAM@@QAEEKKK@Z
  ?Initialize@REST_OF_LINE_ARGUMENT@@QAEEXZ=C:\Windows\SysWOW64\ulib.?Initialize@REST_OF_LINE_ARGUMENT@@QAEEXZ
  ?Initialize@SCREEN@@QAEEXZ=C:\Windows\SysWOW64\ulib.?Initialize@SCREEN@@QAEEXZ
  ?Initialize@SORTED_LIST@@QAEEE@Z=C:\Windows\SysWOW64\ulib.?Initialize@SORTED_LIST@@QAEEE@Z
  ?Initialize@STREAM_MESSAGE@@QAEEPAVSTREAM@@00@Z=C:\Windows\SysWOW64\ulib.?Initialize@STREAM_MESSAGE@@QAEEPAVSTREAM@@00@Z
  ?Initialize@STRING_ARGUMENT@@QAEEPAD@Z=C:\Windows\SysWOW64\ulib.?Initialize@STRING_ARGUMENT@@QAEEPAD@Z
  ?Initialize@STRING_ARRAY@@QAEEKKK@Z=C:\Windows\SysWOW64\ulib.?Initialize@STRING_ARRAY@@QAEEKKK@Z
  ?Initialize@SVILOGFILES@@QAEEPBG00K@Z=C:\Windows\SysWOW64\ulib.?Initialize@SVILOGFILES@@QAEEPBG00K@Z
  ?Initialize@TIMEINFO@@QAEEPAU_FILETIME@@@Z=C:\Windows\SysWOW64\ulib.?Initialize@TIMEINFO@@QAEEPAU_FILETIME@@@Z
  ?Initialize@TIMEINFO@@QAEEXZ=C:\Windows\SysWOW64\ulib.?Initialize@TIMEINFO@@QAEEXZ
  ?Initialize@TIMEINFO@@QAEXPBV1@@Z=C:\Windows\SysWOW64\ulib.?Initialize@TIMEINFO@@QAEXPBV1@@Z
  ?Initialize@TIMEINFO_ARGUMENT@@QAEEPAD@Z=C:\Windows\SysWOW64\ulib.?Initialize@TIMEINFO_ARGUMENT@@QAEEPAD@Z
  ?Initialize@WSTRING@@QAEEJ@Z=C:\Windows\SysWOW64\ulib.?Initialize@WSTRING@@QAEEJ@Z
  ?Initialize@WSTRING@@QAEEPBDK@Z=C:\Windows\SysWOW64\ulib.?Initialize@WSTRING@@QAEEPBDK@Z
  ?Initialize@WSTRING@@QAEEPBGK@Z=C:\Windows\SysWOW64\ulib.?Initialize@WSTRING@@QAEEPBGK@Z
  ?Initialize@WSTRING@@QAEEPBV1@KK@Z=C:\Windows\SysWOW64\ulib.?Initialize@WSTRING@@QAEEPBV1@KK@Z
  ?Initialize@WSTRING@@QAEEXZ=C:\Windows\SysWOW64\ulib.?Initialize@WSTRING@@QAEEXZ
  ?Insert@ARRAY@@QAEEPAVOBJECT@@K@Z=C:\Windows\SysWOW64\ulib.?Insert@ARRAY@@QAEEPAVOBJECT@@K@Z
  ?Insert@LIST@@QAEEPAVOBJECT@@PAVITERATOR@@@Z=C:\Windows\SysWOW64\ulib.?Insert@LIST@@QAEEPAVOBJECT@@PAVITERATOR@@@Z
  ?InsertString@WSTRING@@QAEEKPBV1@KK@Z=C:\Windows\SysWOW64\ulib.?InsertString@WSTRING@@QAEEKPBV1@KK@Z
  ?IsCorrectVersion@SYSTEM@@SGEXZ=C:\Windows\SysWOW64\ulib.?IsCorrectVersion@SYSTEM@@SGEXZ
  ?IsDrive@PATH@@QBEEXZ=C:\Windows\SysWOW64\ulib.?IsDrive@PATH@@QBEEXZ
  ?IsEmpty@FSN_DIRECTORY@@QBEEXZ=C:\Windows\SysWOW64\ulib.?IsEmpty@FSN_DIRECTORY@@QBEEXZ
  ?IsFMR@MACHINE@@QAEEXZ=C:\Windows\SysWOW64\ulib.?IsFMR@MACHINE@@QAEEXZ
  ?IsGuidVolName@PATH@@QAEEXZ=C:\Windows\SysWOW64\ulib.?IsGuidVolName@PATH@@QAEEXZ
  ?IsInAutoChk@MESSAGE@@UAEEXZ=C:\Windows\SysWOW64\ulib.?IsInAutoChk@MESSAGE@@UAEEXZ
  ?IsInSetup@MESSAGE@@UAEEXZ=C:\Windows\SysWOW64\ulib.?IsInSetup@MESSAGE@@UAEEXZ
  ?IsKeyAvailable@KEYBOARD@@QBEEPAE@Z=C:\Windows\SysWOW64\ulib.?IsKeyAvailable@KEYBOARD@@QBEEPAE@Z
  ?IsKeyPressed@MESSAGE@@UAEEKK@Z=C:\Windows\SysWOW64\ulib.?IsKeyPressed@MESSAGE@@UAEEKK@Z
  ?IsLoggingEnabled@MESSAGE@@QAEEXZ=C:\Windows\SysWOW64\ulib.?IsLoggingEnabled@MESSAGE@@QAEEXZ
  ?IsPCAT@MACHINE@@QAEEXZ=C:\Windows\SysWOW64\ulib.?IsPCAT@MACHINE@@QAEEXZ
  ?IsSameClass@OBJECT@@QBEEPBV1@@Z=C:\Windows\SysWOW64\ulib.?IsSameClass@OBJECT@@QBEEPBV1@@Z
  ?IsSameObject@OBJECT@@QBEEPBV1@@Z=C:\Windows\SysWOW64\ulib.?IsSameObject@OBJECT@@QBEEPBV1@@Z
  ?IsStorageDaxCapable@SYSTEM@@SGEPBVWSTRING@@PAE@Z=C:\Windows\SysWOW64\ulib.?IsStorageDaxCapable@SYSTEM@@SGEPBVWSTRING@@PAE@Z
  ?IsSuppressedMessage@MESSAGE@@UAEEE@Z=C:\Windows\SysWOW64\ulib.?IsSuppressedMessage@MESSAGE@@UAEEE@Z
  ?IsValueSet@ARGUMENT@@QAEEXZ=C:\Windows\SysWOW64\ulib.?IsValueSet@ARGUMENT@@QAEEXZ
  ?IsYesResponse@CHKDSK_MESSAGE@@UAEEE@Z=C:\Windows\SysWOW64\ulib.?IsYesResponse@CHKDSK_MESSAGE@@UAEEE@Z
  ?IsYesResponse@MESSAGE@@UAEEE@Z=C:\Windows\SysWOW64\ulib.?IsYesResponse@MESSAGE@@UAEEE@Z
  ?IsYesResponse@STREAM_MESSAGE@@UAEEE@Z=C:\Windows\SysWOW64\ulib.?IsYesResponse@STREAM_MESSAGE@@UAEEE@Z
  ?Lock@MESSAGE@@QAEXXZ=C:\Windows\SysWOW64\ulib.?Lock@MESSAGE@@QAEXXZ
  ?Log@MESSAGE@@QAAEPBDZZ=C:\Windows\SysWOW64\ulib.?Log@MESSAGE@@QAAEPBDZZ
  ?LogMessage@MESSAGE@@QAEEPBVWSTRING@@@Z=C:\Windows\SysWOW64\ulib.?LogMessage@MESSAGE@@QAEEPBVWSTRING@@@Z
  ?LogMsg@MESSAGE@@QAAEKPBDZZ=C:\Windows\SysWOW64\ulib.?LogMsg@MESSAGE@@QAAEKPBDZZ
  ?LogMsg@MESSAGE@@QAEEK@Z=C:\Windows\SysWOW64\ulib.?LogMsg@MESSAGE@@QAEEK@Z
  ?LogOnly@MESSAGE@@QAEEXZ=C:\Windows\SysWOW64\ulib.?LogOnly@MESSAGE@@QAEEXZ
  ?MakeDirectory@SYSTEM@@SGPAVFSN_DIRECTORY@@PBVPATH@@0PAW4_COPY_ERROR@@P6GKT_LARGE_INTEGER@@222KKPAX33@Z3PAHK@Z=C:\Windows\SysWOW64\ulib.?MakeDirectory@SYSTEM@@SGPAVFSN_DIRECTORY@@PBVPATH@@0PAW4_COPY_ERROR@@P6GKT_LARGE_INTEGER@@222KKPAX33@Z3PAHK@Z
  ?MakeFile@SYSTEM@@SGPAVFSN_FILE@@PBVPATH@@@Z=C:\Windows\SysWOW64\ulib.?MakeFile@SYSTEM@@SGPAVFSN_FILE@@PBVPATH@@@Z
  ?MakeFileToken@MESSAGE@@SG_KPBD@Z=C:\Windows\SysWOW64\ulib.?MakeFileToken@MESSAGE@@SG_KPBD@Z
  ?MakeTemporaryFile@SYSTEM@@SGPAVFSN_FILE@@PBVWSTRING@@PBVPATH@@@Z=C:\Windows\SysWOW64\ulib.?MakeTemporaryFile@SYSTEM@@SGPAVFSN_FILE@@PBVWSTRING@@PBVPATH@@@Z
  ?ModifyName@PATH@@QAEEPBVWSTRING@@@Z=C:\Windows\SysWOW64\ulib.?ModifyName@PATH@@QAEEPBVWSTRING@@@Z
  ?MoveCursorTo@SCREEN@@QAEEGG@Z=C:\Windows\SysWOW64\ulib.?MoveCursorTo@SCREEN@@QAEEGG@Z
  ?NewBuf@BDSTRING@@UAEEK@Z=C:\Windows\SysWOW64\ulib.?NewBuf@BDSTRING@@UAEEK@Z
  ?NewBuf@DSTRING@@UAEEK@Z=C:\Windows\SysWOW64\ulib.?NewBuf@DSTRING@@UAEEK@Z
  ?NewBuf@FSTRING@@UAEEK@Z=C:\Windows\SysWOW64\ulib.?NewBuf@FSTRING@@UAEEK@Z
  ?NewLogFileName@SVILOGFILES@@QAEEPAVWSTRING@@@Z=C:\Windows\SysWOW64\ulib.?NewLogFileName@SVILOGFILES@@QAEEPAVWSTRING@@@Z
  ?NextChar@BSTRING@@QAEKK@Z=C:\Windows\SysWOW64\ulib.?NextChar@BSTRING@@QAEKK@Z
  ?OrderedInsert@ARRAY@@QAEEPAVOBJECT@@PAPAX@Z=C:\Windows\SysWOW64\ulib.?OrderedInsert@ARRAY@@QAEEPAVOBJECT@@PAPAX@Z
  ?OrderedSearch@ARRAY@@QAEPAVOBJECT@@PAV2@PAPAX@Z=C:\Windows\SysWOW64\ulib.?OrderedSearch@ARRAY@@QAEPAVOBJECT@@PAV2@PAPAX@Z
  ?PathWasTooBig@PATH@@QAEEXZ=C:\Windows\SysWOW64\ulib.?PathWasTooBig@PATH@@QAEEXZ
  ?PrepareToParse@ARGUMENT_LEXEMIZER@@QAEEPAVWSTRING@@@Z=C:\Windows\SysWOW64\ulib.?PrepareToParse@ARGUMENT_LEXEMIZER@@QAEEPAVWSTRING@@@Z
  ?Put@ARRAY@@UAEEPAVOBJECT@@@Z=C:\Windows\SysWOW64\ulib.?Put@ARRAY@@UAEEPAVOBJECT@@@Z
  ?Put@LIST@@UAEEPAVOBJECT@@@Z=C:\Windows\SysWOW64\ulib.?Put@LIST@@UAEEPAVOBJECT@@@Z
  ?Put@SORTED_LIST@@UAEEPAVOBJECT@@@Z=C:\Windows\SysWOW64\ulib.?Put@SORTED_LIST@@UAEEPAVOBJECT@@@Z
  ?PutMultiCharSwitch@ARGUMENT_LEXEMIZER@@QAEXPBD@Z=C:\Windows\SysWOW64\ulib.?PutMultiCharSwitch@ARGUMENT_LEXEMIZER@@QAEXPBD@Z
  ?PutMultiCharSwitch@ARGUMENT_LEXEMIZER@@QAEXPBG@Z=C:\Windows\SysWOW64\ulib.?PutMultiCharSwitch@ARGUMENT_LEXEMIZER@@QAEXPBG@Z
  ?PutMultipleSwitch@ARGUMENT_LEXEMIZER@@QAEXPBD@Z=C:\Windows\SysWOW64\ulib.?PutMultipleSwitch@ARGUMENT_LEXEMIZER@@QAEXPBD@Z
  ?PutMultipleSwitch@ARGUMENT_LEXEMIZER@@QAEXPBVWSTRING@@@Z=C:\Windows\SysWOW64\ulib.?PutMultipleSwitch@ARGUMENT_LEXEMIZER@@QAEXPBVWSTRING@@@Z
  ?PutSeparators@ARGUMENT_LEXEMIZER@@QAEXPBD@Z=C:\Windows\SysWOW64\ulib.?PutSeparators@ARGUMENT_LEXEMIZER@@QAEXPBD@Z
  ?PutString@BSTRING@@IAEXPADK@Z=C:\Windows\SysWOW64\ulib.?PutString@BSTRING@@IAEXPADK@Z
  ?PutString@WSTRING@@IAEXPAG@Z=C:\Windows\SysWOW64\ulib.?PutString@WSTRING@@IAEXPAG@Z
  ?PutString@WSTRING@@IAEXPAGK@Z=C:\Windows\SysWOW64\ulib.?PutString@WSTRING@@IAEXPAGK@Z
  ?PutSwitches@ARGUMENT_LEXEMIZER@@QAEXPBD@Z=C:\Windows\SysWOW64\ulib.?PutSwitches@ARGUMENT_LEXEMIZER@@QAEXPBD@Z
  ?PutSwitches@ARGUMENT_LEXEMIZER@@QAEXPBVWSTRING@@@Z=C:\Windows\SysWOW64\ulib.?PutSwitches@ARGUMENT_LEXEMIZER@@QAEXPBVWSTRING@@@Z
  ?QueryByteCount@WSTRING@@QBEKXZ=C:\Windows\SysWOW64\ulib.?QueryByteCount@WSTRING@@QBEKXZ
  ?QueryChAt@WSTRING@@QBEGK@Z=C:\Windows\SysWOW64\ulib.?QueryChAt@WSTRING@@QBEGK@Z
  ?QueryChCount@BSTRING@@QBEKXZ=C:\Windows\SysWOW64\ulib.?QueryChCount@BSTRING@@QBEKXZ
  ?QueryChCount@WSTRING@@QBEKXZ=C:\Windows\SysWOW64\ulib.?QueryChCount@WSTRING@@QBEKXZ
  ?QueryClassId@OBJECT@@QBEKXZ=C:\Windows\SysWOW64\ulib.?QueryClassId@OBJECT@@QBEKXZ
  ?QueryCodePage@SCREEN@@QAEKXZ=C:\Windows\SysWOW64\ulib.?QueryCodePage@SCREEN@@QAEKXZ
  ?QueryComponentArray@PATH@@QBEPAVARRAY@@PAV2@@Z=C:\Windows\SysWOW64\ulib.?QueryComponentArray@PATH@@QBEPAVARRAY@@PAV2@@Z
  ?QueryCurrentDosDriveName@SYSTEM@@SGEPAVWSTRING@@@Z=C:\Windows\SysWOW64\ulib.?QueryCurrentDosDriveName@SYSTEM@@SGEPAVWSTRING@@@Z
  ?QueryDate@TIMEINFO@@QBEEPAVWSTRING@@@Z=C:\Windows\SysWOW64\ulib.?QueryDate@TIMEINFO@@QBEEPAVWSTRING@@@Z
  ?QueryDirectory@SYSTEM@@SGPAVFSN_DIRECTORY@@PBVPATH@@E@Z=C:\Windows\SysWOW64\ulib.?QueryDirectory@SYSTEM@@SGPAVFSN_DIRECTORY@@PBVPATH@@E@Z
  ?QueryDriveType@SYSTEM@@SG?AW4DRIVE_TYPE@@PBVWSTRING@@@Z=C:\Windows\SysWOW64\ulib.?QueryDriveType@SYSTEM@@SG?AW4DRIVE_TYPE@@PBVWSTRING@@@Z
  ?QueryEnvironmentVariable@SYSTEM@@SGPAVWSTRING@@PBV2@@Z=C:\Windows\SysWOW64\ulib.?QueryEnvironmentVariable@SYSTEM@@SGPAVWSTRING@@PBV2@@Z
  ?QueryFile@SYSTEM@@SGPAVFSN_FILE@@PBVPATH@@EPAE@Z=C:\Windows\SysWOW64\ulib.?QueryFile@SYSTEM@@SGPAVFSN_FILE@@PBVPATH@@EPAE@Z
  ?QueryFileType@SYSTEM@@SG?AW4FILE_TYPE@@PBVWSTRING@@@Z=C:\Windows\SysWOW64\ulib.?QueryFileType@SYSTEM@@SG?AW4FILE_TYPE@@PBVWSTRING@@@Z
  ?QueryFsnodeArray@FSN_DIRECTORY@@QBEPAVARRAY@@PAVFSN_FILTER@@@Z=C:\Windows\SysWOW64\ulib.?QueryFsnodeArray@FSN_DIRECTORY@@QBEPAVARRAY@@PAVFSN_FILTER@@@Z
  ?QueryFullPath@PATH@@QBEPAV1@XZ=C:\Windows\SysWOW64\ulib.?QueryFullPath@PATH@@QBEPAV1@XZ
  ?QueryFullPathString@PATH@@QBEPAVWSTRING@@XZ=C:\Windows\SysWOW64\ulib.?QueryFullPathString@PATH@@QBEPAVWSTRING@@XZ
  ?QueryGuidString@PATH@@QAEPAVWSTRING@@PAV2@PAE0@Z=C:\Windows\SysWOW64\ulib.?QueryGuidString@PATH@@QAEPAVWSTRING@@PAV2@PAE0@Z
  ?QueryInvalidArgument@ARGUMENT_LEXEMIZER@@QAEPAVWSTRING@@XZ=C:\Windows\SysWOW64\ulib.?QueryInvalidArgument@ARGUMENT_LEXEMIZER@@QAEPAVWSTRING@@XZ
  ?QueryIterator@ARRAY@@UBEPAVITERATOR@@XZ=C:\Windows\SysWOW64\ulib.?QueryIterator@ARRAY@@UBEPAVITERATOR@@XZ
  ?QueryIterator@LIST@@UBEPAVITERATOR@@XZ=C:\Windows\SysWOW64\ulib.?QueryIterator@LIST@@UBEPAVITERATOR@@XZ
  ?QueryIterator@SORTED_LIST@@UBEPAVITERATOR@@XZ=C:\Windows\SysWOW64\ulib.?QueryIterator@SORTED_LIST@@UBEPAVITERATOR@@XZ
  ?QueryLibraryEntryPoint@SYSTEM@@SGP6GHXZPBVWSTRING@@0PAPAX@Z=C:\Windows\SysWOW64\ulib.?QueryLibraryEntryPoint@SYSTEM@@SGP6GHXZPBVWSTRING@@0PAPAX@Z
  ?QueryLocalTimeFromUTime@SYSTEM@@SGEPBVTIMEINFO@@PAV2@@Z=C:\Windows\SysWOW64\ulib.?QueryLocalTimeFromUTime@SYSTEM@@SGEPBVTIMEINFO@@PAV2@@Z
  ?QueryMemberCount@ARRAY@@UBEKXZ=C:\Windows\SysWOW64\ulib.?QueryMemberCount@ARRAY@@UBEKXZ
  ?QueryMemberCount@LIST@@UBEKXZ=C:\Windows\SysWOW64\ulib.?QueryMemberCount@LIST@@UBEKXZ
  ?QueryMemberCount@SORTED_LIST@@UBEKXZ=C:\Windows\SysWOW64\ulib.?QueryMemberCount@SORTED_LIST@@UBEKXZ
  ?QueryMountPointPath@PATH@@QAEPAV1@XZ=C:\Windows\SysWOW64\ulib.?QueryMountPointPath@PATH@@QAEPAV1@XZ
  ?QueryMultiCharSwitch@ARGUMENT_LEXEMIZER@@QAEEPAVWSTRING@@@Z=C:\Windows\SysWOW64\ulib.?QueryMultiCharSwitch@ARGUMENT_LEXEMIZER@@QAEEPAVWSTRING@@@Z
  ?QueryNextLibraryEntryPoint@SYSTEM@@SGP6GHXZPAXPBVWSTRING@@@Z=C:\Windows\SysWOW64\ulib.?QueryNextLibraryEntryPoint@SYSTEM@@SGP6GHXZPAXPBVWSTRING@@@Z
  ?QueryNextLoggedMessage@MESSAGE@@QAEEPAVFSTRING@@@Z=C:\Windows\SysWOW64\ulib.?QueryNextLoggedMessage@MESSAGE@@QAEEPAVFSTRING@@@Z
  ?QueryNumber@WSTRING@@QBEEPAJKK@Z=C:\Windows\SysWOW64\ulib.?QueryNumber@WSTRING@@QBEEPAJKK@Z
  ?QueryPackedLog@MESSAGE@@QAEEPAVHMEM@@PAK@Z=C:\Windows\SysWOW64\ulib.?QueryPackedLog@MESSAGE@@QAEEPAVHMEM@@PAK@Z
  ?QueryPath@PATH@@QBEPAV1@XZ=C:\Windows\SysWOW64\ulib.?QueryPath@PATH@@QBEPAV1@XZ
  ?QueryResetBit@BITVECTOR@@QBEEKK@Z=C:\Windows\SysWOW64\ulib.?QueryResetBit@BITVECTOR@@QBEEKK@Z
  ?QueryResourceString@BASE_SYSTEM@@SAEPAVWSTRING@@KPBDZZ=C:\Windows\SysWOW64\ulib.?QueryResourceString@BASE_SYSTEM@@SAEPAVWSTRING@@KPBDZZ
  ?QueryResourceStringV@BASE_SYSTEM@@SGEPAVWSTRING@@KPBDPAD@Z=C:\Windows\SysWOW64\ulib.?QueryResourceStringV@BASE_SYSTEM@@SGEPAVWSTRING@@KPBDPAD@Z
  ?QueryRoot@PATH@@QAEPAVWSTRING@@XZ=C:\Windows\SysWOW64\ulib.?QueryRoot@PATH@@QAEPAVWSTRING@@XZ
  ?QuerySTR@BSTRING@@QBEPADKKPADKE@Z=C:\Windows\SysWOW64\ulib.?QuerySTR@BSTRING@@QBEPADKKPADKE@Z
  ?QuerySTR@WSTRING@@QBEPADKKPADKE@Z=C:\Windows\SysWOW64\ulib.?QuerySTR@WSTRING@@QBEPADKKPADKE@Z
  ?QueryScreenSize@SCREEN@@QBEXPAG000@Z=C:\Windows\SysWOW64\ulib.?QueryScreenSize@SCREEN@@QBEXPAG000@Z
  ?QuerySetBit@BITVECTOR@@QBEEKK@Z=C:\Windows\SysWOW64\ulib.?QuerySetBit@BITVECTOR@@QBEEKK@Z
  ?QueryStream@FSN_FILE@@QAEPAVFILE_STREAM@@W4STREAMACCESS@@K@Z=C:\Windows\SysWOW64\ulib.?QueryStream@FSN_FILE@@QAEPAVFILE_STREAM@@W4STREAMACCESS@@K@Z
  ?QueryString@WSTRING@@QBEPAV1@KK@Z=C:\Windows\SysWOW64\ulib.?QueryString@WSTRING@@QBEPAV1@KK@Z
  ?QueryStringInput@MESSAGE@@UAEEPAVWSTRING@@@Z=C:\Windows\SysWOW64\ulib.?QueryStringInput@MESSAGE@@UAEEPAVWSTRING@@@Z
  ?QuerySystemDirectory@SYSTEM@@SGPAVPATH@@XZ=C:\Windows\SysWOW64\ulib.?QuerySystemDirectory@SYSTEM@@SGPAVPATH@@XZ
  ?QueryTime@TIMEINFO@@QBEEPAVWSTRING@@@Z=C:\Windows\SysWOW64\ulib.?QueryTime@TIMEINFO@@QBEEPAVWSTRING@@@Z
  ?QueryTimeOut@COMM_DEVICE@@QBEEXZ=C:\Windows\SysWOW64\ulib.?QueryTimeOut@COMM_DEVICE@@QBEEXZ
  ?QueryVolumeLabel@SYSTEM@@SGPAVWSTRING@@PAVPATH@@PAU_VOL_SERIAL_NUMBER@@@Z=C:\Windows\SysWOW64\ulib.?QueryVolumeLabel@SYSTEM@@SGPAVWSTRING@@PAVPATH@@PAU_VOL_SERIAL_NUMBER@@@Z
  ?QueryWCExpansion@PATH@@QAEPAV1@PAV1@@Z=C:\Windows\SysWOW64\ulib.?QueryWCExpansion@PATH@@QAEPAV1@PAV1@@Z
  ?QueryWSTR@WSTRING@@QBEPAGKKPAGKE@Z=C:\Windows\SysWOW64\ulib.?QueryWSTR@WSTRING@@QBEPAGKKPAGKE@Z
  ?QueryWindowsErrorMessage@SYSTEM@@SGEKPAVWSTRING@@@Z=C:\Windows\SysWOW64\ulib.?QueryWindowsErrorMessage@SYSTEM@@SGEKPAVWSTRING@@@Z
  ?ReadAt@FILE_STREAM@@QAEEPAEK_JW4SEEKORIGIN@@PAK@Z=C:\Windows\SysWOW64\ulib.?ReadAt@FILE_STREAM@@QAEEPAEK_JW4SEEKORIGIN@@PAK@Z
  ?ReadLine@STREAM@@QAEEPAVWSTRING@@E@Z=C:\Windows\SysWOW64\ulib.?ReadLine@STREAM@@QAEEPAVWSTRING@@E@Z
  ?ReadMbLine@STREAM@@QAEEPADKPAKEK@Z=C:\Windows\SysWOW64\ulib.?ReadMbLine@STREAM@@QAEEPADKPAKEK@Z
  ?ReadWLine@STREAM@@QAEEPAGKPAKEK@Z=C:\Windows\SysWOW64\ulib.?ReadWLine@STREAM@@QAEEPAGKPAKEK@Z
  ?Remove@ARRAY@@UAEPAVOBJECT@@PAVITERATOR@@@Z=C:\Windows\SysWOW64\ulib.?Remove@ARRAY@@UAEPAVOBJECT@@PAVITERATOR@@@Z
  ?RemoveAt@ARRAY@@UAEPAVOBJECT@@K@Z=C:\Windows\SysWOW64\ulib.?RemoveAt@ARRAY@@UAEPAVOBJECT@@K@Z
  ?RemoveNode@SYSTEM@@SGEPAPAVFSNODE@@E@Z=C:\Windows\SysWOW64\ulib.?RemoveNode@SYSTEM@@SGEPAPAVFSNODE@@E@Z
  ?Replace@WSTRING@@QAEEKKPBV1@KK@Z=C:\Windows\SysWOW64\ulib.?Replace@WSTRING@@QAEEKKPBV1@KK@Z
  ?ReplaceWithChars@BSTRING@@QAEEKKDK@Z=C:\Windows\SysWOW64\ulib.?ReplaceWithChars@BSTRING@@QAEEKKDK@Z
  ?ReplaceWithChars@WSTRING@@QAEEKKGK@Z=C:\Windows\SysWOW64\ulib.?ReplaceWithChars@WSTRING@@QAEEKKGK@Z
  ?ResetBit@BITVECTOR@@QAEXKK@Z=C:\Windows\SysWOW64\ulib.?ResetBit@BITVECTOR@@QAEXKK@Z
  ?ResetConversions@WSTRING@@SGXXZ=C:\Windows\SysWOW64\ulib.?ResetConversions@WSTRING@@SGXXZ
  ?ResetLoggingIterator@MESSAGE@@QAEXXZ=C:\Windows\SysWOW64\ulib.?ResetLoggingIterator@MESSAGE@@QAEXXZ
  ?Resize@BDSTRING@@UAEEK@Z=C:\Windows\SysWOW64\ulib.?Resize@BDSTRING@@UAEEK@Z
  ?Resize@DSTRING@@UAEEK@Z=C:\Windows\SysWOW64\ulib.?Resize@DSTRING@@UAEEK@Z
  ?Resize@FSTRING@@UAEEK@Z=C:\Windows\SysWOW64\ulib.?Resize@FSTRING@@UAEEK@Z
  ?Resize@HMEM@@QAEEKK@Z=C:\Windows\SysWOW64\ulib.?Resize@HMEM@@QAEEKK@Z
  ?RestorePrivileges@ADMINFILEPRIVS@@QAEJXZ=C:\Windows\SysWOW64\ulib.?RestorePrivileges@ADMINFILEPRIVS@@QAEJXZ
  ?SPrintf@DSTRING@@UAAEPBGZZ=C:\Windows\SysWOW64\ulib.?SPrintf@DSTRING@@UAAEPBGZZ
  ?SPrintf@FSTRING@@UAAEPBGZZ=C:\Windows\SysWOW64\ulib.?SPrintf@FSTRING@@UAAEPBGZZ
  ?SPrintfAppend@DSTRING@@UAAEPBGZZ=C:\Windows\SysWOW64\ulib.?SPrintfAppend@DSTRING@@UAAEPBGZZ
  ?SPrintfAppend@FSTRING@@UAAEPBGZZ=C:\Windows\SysWOW64\ulib.?SPrintfAppend@FSTRING@@UAAEPBGZZ
  ?SPrintfWorker@DSTRING@@AAEEPBGPAD@Z=C:\Windows\SysWOW64\ulib.?SPrintfWorker@DSTRING@@AAEEPBGPAD@Z
  ?SearchPathW@SYSTEM@@SGPAVPATH@@PAVWSTRING@@0@Z=C:\Windows\SysWOW64\ulib.?SearchPathW@SYSTEM@@SGPAVPATH@@PAVWSTRING@@0@Z
  ?SelectResponse@MESSAGE@@UAAKKZZ=C:\Windows\SysWOW64\ulib.?SelectResponse@MESSAGE@@UAAKKZZ
  ?Set@CHKDSK_MESSAGE@@UAEEKW4MESSAGE_TYPE@@K@Z=C:\Windows\SysWOW64\ulib.?Set@CHKDSK_MESSAGE@@UAEEKW4MESSAGE_TYPE@@K@Z
  ?Set@STREAM_MESSAGE@@UAEEKW4MESSAGE_TYPE@@K@Z=C:\Windows\SysWOW64\ulib.?Set@STREAM_MESSAGE@@UAEEKW4MESSAGE_TYPE@@K@Z
  ?SetAllowSwitchGlomming@ARGUMENT_LEXEMIZER@@QAEXE@Z=C:\Windows\SysWOW64\ulib.?SetAllowSwitchGlomming@ARGUMENT_LEXEMIZER@@QAEXE@Z
  ?SetAnsiConversions@WSTRING@@SGXXZ=C:\Windows\SysWOW64\ulib.?SetAnsiConversions@WSTRING@@SGXXZ
  ?SetAttributes@FSNODE@@QAEEKPAK@Z=C:\Windows\SysWOW64\ulib.?SetAttributes@FSNODE@@QAEEKPAK@Z
  ?SetAttributes@FSN_FILTER@@QAEEKKK@Z=C:\Windows\SysWOW64\ulib.?SetAttributes@FSN_FILTER@@QAEEKKK@Z
  ?SetBaudRate@COMM_DEVICE@@QAEEK@Z=C:\Windows\SysWOW64\ulib.?SetBaudRate@COMM_DEVICE@@QAEEK@Z
  ?SetBit@BITVECTOR@@QAEXKK@Z=C:\Windows\SysWOW64\ulib.?SetBit@BITVECTOR@@QAEXKK@Z
  ?SetCaseSensitive@ARGUMENT_LEXEMIZER@@QAEXE@Z=C:\Windows\SysWOW64\ulib.?SetCaseSensitive@ARGUMENT_LEXEMIZER@@QAEXE@Z
  ?SetChAt@WSTRING@@QAEGGK@Z=C:\Windows\SysWOW64\ulib.?SetChAt@WSTRING@@QAEGGK@Z
  ?SetClassDescriptor@OBJECT@@IAEXPBVCLASS_DESCRIPTOR@@@Z=C:\Windows\SysWOW64\ulib.?SetClassDescriptor@OBJECT@@IAEXPBVCLASS_DESCRIPTOR@@@Z
  ?SetCodePage@SCREEN@@QAEEK@Z=C:\Windows\SysWOW64\ulib.?SetCodePage@SCREEN@@QAEEK@Z
  ?SetConsoleConversions@WSTRING@@SGXXZ=C:\Windows\SysWOW64\ulib.?SetConsoleConversions@WSTRING@@SGXXZ
  ?SetDataBits@COMM_DEVICE@@QAEEK@Z=C:\Windows\SysWOW64\ulib.?SetDataBits@COMM_DEVICE@@QAEEK@Z
  ?SetDevice@PATH@@QAEEPBVWSTRING@@@Z=C:\Windows\SysWOW64\ulib.?SetDevice@PATH@@QAEEPBVWSTRING@@@Z
  ?SetDotsOnly@MESSAGE@@UAEEE@Z=C:\Windows\SysWOW64\ulib.?SetDotsOnly@MESSAGE@@UAEEE@Z
  ?SetDtrControl@COMM_DEVICE@@QAEEW4DTR_CONTROL@@@Z=C:\Windows\SysWOW64\ulib.?SetDtrControl@COMM_DEVICE@@QAEEW4DTR_CONTROL@@@Z
  ?SetFileName@FSN_FILTER@@QAEEPBD@Z=C:\Windows\SysWOW64\ulib.?SetFileName@FSN_FILTER@@QAEEPBD@Z
  ?SetFileName@FSN_FILTER@@QAEEPBVWSTRING@@@Z=C:\Windows\SysWOW64\ulib.?SetFileName@FSN_FILTER@@QAEEPBVWSTRING@@@Z
  ?SetIdsr@COMM_DEVICE@@QAEEE@Z=C:\Windows\SysWOW64\ulib.?SetIdsr@COMM_DEVICE@@QAEEE@Z
  ?SetLogOnly@MESSAGE@@QAEEE@Z=C:\Windows\SysWOW64\ulib.?SetLogOnly@MESSAGE@@QAEEE@Z
  ?SetLoggingEnabled@MESSAGE@@QAEXE@Z=C:\Windows\SysWOW64\ulib.?SetLoggingEnabled@MESSAGE@@QAEXE@Z
  ?SetName@PATH@@QAEEPBVWSTRING@@@Z=C:\Windows\SysWOW64\ulib.?SetName@PATH@@QAEEPBVWSTRING@@@Z
  ?SetNoSpcBetweenDstAndSwitch@ARGUMENT_LEXEMIZER@@QAEXE@Z=C:\Windows\SysWOW64\ulib.?SetNoSpcBetweenDstAndSwitch@ARGUMENT_LEXEMIZER@@QAEXE@Z
  ?SetOcts@COMM_DEVICE@@QAEEE@Z=C:\Windows\SysWOW64\ulib.?SetOcts@COMM_DEVICE@@QAEEE@Z
  ?SetOdsr@COMM_DEVICE@@QAEEE@Z=C:\Windows\SysWOW64\ulib.?SetOdsr@COMM_DEVICE@@QAEEE@Z
  ?SetOemConversions@WSTRING@@SGXXZ=C:\Windows\SysWOW64\ulib.?SetOemConversions@WSTRING@@SGXXZ
  ?SetOutputCodePage@SCREEN@@QAEEK@Z=C:\Windows\SysWOW64\ulib.?SetOutputCodePage@SCREEN@@QAEEK@Z
  ?SetParity@COMM_DEVICE@@QAEEW4PARITY@@@Z=C:\Windows\SysWOW64\ulib.?SetParity@COMM_DEVICE@@QAEEW4PARITY@@@Z
  ?SetRtsControl@COMM_DEVICE@@QAEEW4RTS_CONTROL@@@Z=C:\Windows\SysWOW64\ulib.?SetRtsControl@COMM_DEVICE@@QAEEW4RTS_CONTROL@@@Z
  ?SetSize@BITVECTOR@@QAEKKW4BIT@@@Z=C:\Windows\SysWOW64\ulib.?SetSize@BITVECTOR@@QAEKKW4BIT@@@Z
  ?SetStopBits@COMM_DEVICE@@QAEEW4STOPBITS@@@Z=C:\Windows\SysWOW64\ulib.?SetStopBits@COMM_DEVICE@@QAEEW4STOPBITS@@@Z
  ?SetTimeInfo@FSN_FILTER@@QAEEPBVTIMEINFO@@W4FSN_TIME@@G@Z=C:\Windows\SysWOW64\ulib.?SetTimeInfo@FSN_FILTER@@QAEEPBVTIMEINFO@@W4FSN_TIME@@G@Z
  ?SetTimeOut@COMM_DEVICE@@QAEEE@Z=C:\Windows\SysWOW64\ulib.?SetTimeOut@COMM_DEVICE@@QAEEE@Z
  ?SetXon@COMM_DEVICE@@QAEEE@Z=C:\Windows\SysWOW64\ulib.?SetXon@COMM_DEVICE@@QAEEE@Z
  ?ShiftLogs@SVILOGFILES@@QAEEPBG@Z=C:\Windows\SysWOW64\ulib.?ShiftLogs@SVILOGFILES@@QAEEPBG@Z
  ?SkipWhite@WSTRING@@SGPAGPAG@Z=C:\Windows\SysWOW64\ulib.?SkipWhite@WSTRING@@SGPAGPAG@Z
  ?Sort@ARRAY@@UAEEE@Z=C:\Windows\SysWOW64\ulib.?Sort@ARRAY@@UAEEE@Z
  ?Sort@ARRAY@@UAEEP6AHPAX0@Z@Z=C:\Windows\SysWOW64\ulib.?Sort@ARRAY@@UAEEP6AHPAX0@Z@Z
  ?Sort@STRING_ARRAY@@UAEEE@Z=C:\Windows\SysWOW64\ulib.?Sort@STRING_ARRAY@@UAEEE@Z
  ?Split@WSTRING@@QBEEPAVARRAY@@PBV1@E@Z=C:\Windows\SysWOW64\ulib.?Split@WSTRING@@QBEEPAVARRAY@@PBV1@E@Z
  ?SqmExport@CHKDSK_MESSAGE@@UAEEP6AEPAXKEPADZZ0@Z=C:\Windows\SysWOW64\ulib.?SqmExport@CHKDSK_MESSAGE@@UAEEP6AEPAXKEPADZZ0@Z
  ?SqmExport@SQMEXPORT@@SAEPAXKEPADZZ=C:\Windows\SysWOW64\ulib.?SqmExport@SQMEXPORT@@SAEPAXKEPADZZ
  ?SqmExportOnError@SQMEXPORT@@SGXKKEE_KU_GUID@@@Z=C:\Windows\SysWOW64\ulib.?SqmExportOnError@SQMEXPORT@@SGXKKEE_KU_GUID@@@Z
  ?Strcat@WSTRING@@QAEEPBG@Z=C:\Windows\SysWOW64\ulib.?Strcat@WSTRING@@QAEEPBG@Z
  ?Strcat@WSTRING@@QAEEPBV1@@Z=C:\Windows\SysWOW64\ulib.?Strcat@WSTRING@@QAEEPBV1@@Z
  ?Strchr@BSTRING@@QBEKDK@Z=C:\Windows\SysWOW64\ulib.?Strchr@BSTRING@@QBEKDK@Z
  ?Strchr@WSTRING@@QBEKGK@Z=C:\Windows\SysWOW64\ulib.?Strchr@WSTRING@@QBEKGK@Z
  ?Strcmp@WSTRING@@QBEJPBV1@@Z=C:\Windows\SysWOW64\ulib.?Strcmp@WSTRING@@QBEJPBV1@@Z
  ?Strcmp@WSTRING@@QBEJPBV1@K@Z=C:\Windows\SysWOW64\ulib.?Strcmp@WSTRING@@QBEJPBV1@K@Z
  ?Strcmp@WSTRING@@QBEJPBV1@KKKK@Z=C:\Windows\SysWOW64\ulib.?Strcmp@WSTRING@@QBEJPBV1@KKKK@Z
  ?Strcmp@WSTRING@@SGHPAG0@Z=C:\Windows\SysWOW64\ulib.?Strcmp@WSTRING@@SGHPAG0@Z
  ?Strcmpis@MBSTR@@SGHPAD0@Z=C:\Windows\SysWOW64\ulib.?Strcmpis@MBSTR@@SGHPAD0@Z
  ?Strcmpis@WSTRING@@SGHPAG0@Z=C:\Windows\SysWOW64\ulib.?Strcmpis@WSTRING@@SGHPAG0@Z
  ?Strcmps@MBSTR@@SGHPAD0@Z=C:\Windows\SysWOW64\ulib.?Strcmps@MBSTR@@SGHPAD0@Z
  ?Strcmps@WSTRING@@SGHPAG0@Z=C:\Windows\SysWOW64\ulib.?Strcmps@WSTRING@@SGHPAG0@Z
  ?Strcspn@WSTRING@@QBEKPBV1@K@Z=C:\Windows\SysWOW64\ulib.?Strcspn@WSTRING@@QBEKPBV1@K@Z
  ?Stricmp@MBSTR@@SGHPAD0@Z=C:\Windows\SysWOW64\ulib.?Stricmp@MBSTR@@SGHPAD0@Z
  ?Stricmp@WSTRING@@QBEJPBV1@@Z=C:\Windows\SysWOW64\ulib.?Stricmp@WSTRING@@QBEJPBV1@@Z
  ?Stricmp@WSTRING@@QBEJPBV1@K@Z=C:\Windows\SysWOW64\ulib.?Stricmp@WSTRING@@QBEJPBV1@K@Z
  ?Stricmp@WSTRING@@QBEJPBV1@KKKK@Z=C:\Windows\SysWOW64\ulib.?Stricmp@WSTRING@@QBEJPBV1@KKKK@Z
  ?Stricmp@WSTRING@@SGHPAG0@Z=C:\Windows\SysWOW64\ulib.?Stricmp@WSTRING@@SGHPAG0@Z
  ?Strlwr@WSTRING@@QAEPAV1@KK@Z=C:\Windows\SysWOW64\ulib.?Strlwr@WSTRING@@QAEPAV1@KK@Z
  ?Strlwr@WSTRING@@QAEPAV1@XZ=C:\Windows\SysWOW64\ulib.?Strlwr@WSTRING@@QAEPAV1@XZ
  ?Strrchr@WSTRING@@QBEKGK@Z=C:\Windows\SysWOW64\ulib.?Strrchr@WSTRING@@QBEKGK@Z
  ?Strspn@WSTRING@@QBEKPBV1@K@Z=C:\Windows\SysWOW64\ulib.?Strspn@WSTRING@@QBEKPBV1@K@Z
  ?Strstr@MBSTR@@SGPADPAD0@Z=C:\Windows\SysWOW64\ulib.?Strstr@MBSTR@@SGPADPAD0@Z
  ?Strstr@WSTRING@@QBEKPBV1@@Z=C:\Windows\SysWOW64\ulib.?Strstr@WSTRING@@QBEKPBV1@@Z
  ?Strupr@WSTRING@@QAEPAV1@KK@Z=C:\Windows\SysWOW64\ulib.?Strupr@WSTRING@@QAEPAV1@KK@Z
  ?Strupr@WSTRING@@QAEPAV1@XZ=C:\Windows\SysWOW64\ulib.?Strupr@WSTRING@@QAEPAV1@XZ
  ?SyncLength@WSTRING@@QAEKXZ=C:\Windows\SysWOW64\ulib.?SyncLength@WSTRING@@QAEKXZ
  ?Traverse@FSN_DIRECTORY@@QBEEPAXPAVFSN_FILTER@@PAVPATH@@P6GE0PAVFSNODE@@2@Z@Z=C:\Windows\SysWOW64\ulib.?Traverse@FSN_DIRECTORY@@QBEEPAXPAVFSN_FILTER@@PAVPATH@@P6GE0PAVFSNODE@@2@Z@Z
  ?TrimTrailingDelimeters@PATH@@QAEXXZ=C:\Windows\SysWOW64\ulib.?TrimTrailingDelimeters@PATH@@QAEXXZ
  ?Truncate@WSTRING@@QAEKK@Z=C:\Windows\SysWOW64\ulib.?Truncate@WSTRING@@QAEKK@Z
  ?TruncateBase@PATH@@QAEEXZ=C:\Windows\SysWOW64\ulib.?TruncateBase@PATH@@QAEEXZ
  ?TruncateDelimiter@PATH@@QAEXXZ=C:\Windows\SysWOW64\ulib.?TruncateDelimiter@PATH@@QAEXXZ
  ?TruncateNameAtColon@PATH@@QAEXXZ=C:\Windows\SysWOW64\ulib.?TruncateNameAtColon@PATH@@QAEXXZ
  ?Unlock@MESSAGE@@QAEXXZ=C:\Windows\SysWOW64\ulib.?Unlock@MESSAGE@@QAEXXZ
  ?UploadSqmFromFile@SQMEXPORT@@SGEPAX@Z=C:\Windows\SysWOW64\ulib.?UploadSqmFromFile@SQMEXPORT@@SGEPAX@Z
  ?Usage@PROGRAM@@UBEXXZ=C:\Windows\SysWOW64\ulib.?Usage@PROGRAM@@UBEXXZ
  ?UseAlternateName@FSNODE@@QAEEXZ=C:\Windows\SysWOW64\ulib.?UseAlternateName@FSNODE@@QAEEXZ
  ?ValidateVersion@PROGRAM@@UBEXKK@Z=C:\Windows\SysWOW64\ulib.?ValidateVersion@PROGRAM@@UBEXKK@Z
  ?WaitForUserSignal@MESSAGE@@UAEEXZ=C:\Windows\SysWOW64\ulib.?WaitForUserSignal@MESSAGE@@UAEEXZ
  ?WorkOnReparsePoint@FSNODE@@QAEEE@Z=C:\Windows\SysWOW64\ulib.?WorkOnReparsePoint@FSNODE@@QAEEE@Z
  ?WriteByte@STREAM@@QAEEE@Z=C:\Windows\SysWOW64\ulib.?WriteByte@STREAM@@QAEEE@Z
  ?_UseAnsiConversions@WSTRING@@0EA=C:\Windows\SysWOW64\ulib.?_UseAnsiConversions@WSTRING@@0EA
  ?_UseAnsiConversionsPrev@WSTRING@@0EA=C:\Windows\SysWOW64\ulib.?_UseAnsiConversionsPrev@WSTRING@@0EA
  ?_UseConsoleConversions@WSTRING@@0EA=C:\Windows\SysWOW64\ulib.?_UseConsoleConversions@WSTRING@@0EA
  ?_UseConsoleConversionsPrev@WSTRING@@0EA=C:\Windows\SysWOW64\ulib.?_UseConsoleConversionsPrev@WSTRING@@0EA
  DebugPrintfReal=C:\Windows\SysWOW64\ulib.DebugPrintfReal
  Export=C:\Windows\SysWOW64\ulib.Export
  Get_Standard_Error_Stream=C:\Windows\SysWOW64\ulib.Get_Standard_Error_Stream
  Get_Standard_Input_Stream=C:\Windows\SysWOW64\ulib.Get_Standard_Input_Stream
  Get_Standard_Output_Stream=C:\Windows\SysWOW64\ulib.Get_Standard_Output_Stream
  MachinePlatform=C:\Windows\SysWOW64\ulib.MachinePlatform
  TrackMsgId=C:\Windows\SysWOW64\ulib.TrackMsgId
  UlibRealloc=C:\Windows\SysWOW64\ulib.UlibRealloc
