EXPORTS
  ??0REGISTRY@@QAE@XZ=C:\Windows\SysWOW64\ureg.??0REGISTRY@@QAE@XZ
  ??0REGISTRY_KEY_INFO@@QAE@XZ=C:\Windows\SysWOW64\ureg.??0REGISTRY_KEY_INFO@@QAE@XZ
  ??0REGISTRY_VALUE_ENTRY@@QAE@XZ=C:\Windows\SysWOW64\ureg.??0REGISTRY_VALUE_ENTRY@@QAE@XZ
  ??1REGISTRY@@UAE@XZ=C:\Windows\SysWOW64\ureg.??1REGISTRY@@UAE@XZ
  ??1REGISTRY_KEY_INFO@@UAE@XZ=C:\Windows\SysWOW64\ureg.??1REGISTRY_KEY_INFO@@UAE@XZ
  ??1REGISTRY_VALUE_ENTRY@@UAE@XZ=C:\Windows\SysWOW64\ureg.??1REGISTRY_VALUE_ENTRY@@UAE@XZ
  ?AddValueEntry@REGISTRY@@QAEEW4_PREDEFINED_KEY@@PAVREGISTRY_KEY_INFO@@PBVREGISTRY_VALUE_ENTRY@@EPAK@Z=C:\Windows\SysWOW64\ureg.?AddValueEntry@REGISTRY@@QAEEW4_PREDEFINED_KEY@@PAVREGISTRY_KEY_INFO@@PBVREGISTRY_VALUE_ENTRY@@EPAK@Z
  ?CreateKey@REGISTRY@@QAEEW4_PREDEFINED_KEY@@PAVREGISTRY_KEY_INFO@@1PAKE@Z=C:\Windows\SysWOW64\ureg.?CreateKey@REGISTRY@@QAEEW4_PREDEFINED_KEY@@PAVREGISTRY_KEY_INFO@@1PAKE@Z
  ?DeleteKey@REGISTRY@@QAEEW4_PREDEFINED_KEY@@PAVREGISTRY_KEY_INFO@@PBVWSTRING@@PAK@Z=C:\Windows\SysWOW64\ureg.?DeleteKey@REGISTRY@@QAEEW4_PREDEFINED_KEY@@PAVREGISTRY_KEY_INFO@@PBVWSTRING@@PAK@Z
  ?DeleteValueEntry@REGISTRY@@QAEEW4_PREDEFINED_KEY@@PAVREGISTRY_KEY_INFO@@PBVWSTRING@@PAK@Z=C:\Windows\SysWOW64\ureg.?DeleteValueEntry@REGISTRY@@QAEEW4_PREDEFINED_KEY@@PAVREGISTRY_KEY_INFO@@PBVWSTRING@@PAK@Z
  ?DoesKeyExist@REGISTRY@@QAEEW4_PREDEFINED_KEY@@PBVWSTRING@@1PAK@Z=C:\Windows\SysWOW64\ureg.?DoesKeyExist@REGISTRY@@QAEEW4_PREDEFINED_KEY@@PBVWSTRING@@1PAK@Z
  ?DoesValueExist@REGISTRY@@QAEEW4_PREDEFINED_KEY@@PBVWSTRING@@11PAK@Z=C:\Windows\SysWOW64\ureg.?DoesValueExist@REGISTRY@@QAEEW4_PREDEFINED_KEY@@PBVWSTRING@@11PAK@Z
  ?EnableRootNotification@REGISTRY@@QAEEW4_PREDEFINED_KEY@@PAXKE@Z=C:\Windows\SysWOW64\ureg.?EnableRootNotification@REGISTRY@@QAEEW4_PREDEFINED_KEY@@PAXKE@Z
  ?Initialize@REGISTRY@@QAEEPBVWSTRING@@PAK@Z=C:\Windows\SysWOW64\ureg.?Initialize@REGISTRY@@QAEEPBVWSTRING@@PAK@Z
  ?Initialize@REGISTRY_KEY_INFO@@QAEEPBVWSTRING@@0K0PAU_SECURITY_ATTRIBUTES@@@Z=C:\Windows\SysWOW64\ureg.?Initialize@REGISTRY_KEY_INFO@@QAEEPBVWSTRING@@0K0PAU_SECURITY_ATTRIBUTES@@@Z
  ?Initialize@REGISTRY_VALUE_ENTRY@@QAEEPBVWSTRING@@KW4_REG_TYPE@@PBEK@Z=C:\Windows\SysWOW64\ureg.?Initialize@REGISTRY_VALUE_ENTRY@@QAEEPBVWSTRING@@KW4_REG_TYPE@@PBEK@Z
  ?IsAccessAllowed@REGISTRY@@QAEEW4_PREDEFINED_KEY@@PAVREGISTRY_KEY_INFO@@KPAK@Z=C:\Windows\SysWOW64\ureg.?IsAccessAllowed@REGISTRY@@QAEEW4_PREDEFINED_KEY@@PAVREGISTRY_KEY_INFO@@KPAK@Z
  ?LoadHive@REGISTRY@@QAEEW4_PREDEFINED_KEY@@PAVREGISTRY_KEY_INFO@@PBVWSTRING@@PAK@Z=C:\Windows\SysWOW64\ureg.?LoadHive@REGISTRY@@QAEEW4_PREDEFINED_KEY@@PAVREGISTRY_KEY_INFO@@PBVWSTRING@@PAK@Z
  ?QueryKeyInfo@REGISTRY@@QAEEW4_PREDEFINED_KEY@@PBVWSTRING@@1PAVREGISTRY_KEY_INFO@@PAK@Z=C:\Windows\SysWOW64\ureg.?QueryKeyInfo@REGISTRY@@QAEEW4_PREDEFINED_KEY@@PBVWSTRING@@1PAVREGISTRY_KEY_INFO@@PAK@Z
  ?QueryKeySecurity@REGISTRY@@QAEEW4_PREDEFINED_KEY@@PBVREGISTRY_KEY_INFO@@KPAPAXPAK@Z=C:\Windows\SysWOW64\ureg.?QueryKeySecurity@REGISTRY@@QAEEW4_PREDEFINED_KEY@@PBVREGISTRY_KEY_INFO@@KPAPAXPAK@Z
  ?QuerySubKeysInfo@REGISTRY@@QAEEW4_PREDEFINED_KEY@@PBVWSTRING@@1PAVARRAY@@PAK@Z=C:\Windows\SysWOW64\ureg.?QuerySubKeysInfo@REGISTRY@@QAEEW4_PREDEFINED_KEY@@PBVWSTRING@@1PAVARRAY@@PAK@Z
  ?QueryValues@REGISTRY@@QAEEW4_PREDEFINED_KEY@@PBVWSTRING@@1PAVARRAY@@PAK@Z=C:\Windows\SysWOW64\ureg.?QueryValues@REGISTRY@@QAEEW4_PREDEFINED_KEY@@PBVWSTRING@@1PAVARRAY@@PAK@Z
  ?RestoreKeyFromFile@REGISTRY@@QAEEW4_PREDEFINED_KEY@@PAVREGISTRY_KEY_INFO@@PBVWSTRING@@EPAK@Z=C:\Windows\SysWOW64\ureg.?RestoreKeyFromFile@REGISTRY@@QAEEW4_PREDEFINED_KEY@@PAVREGISTRY_KEY_INFO@@PBVWSTRING@@EPAK@Z
  ?SaveKeyToFile@REGISTRY@@QAEEW4_PREDEFINED_KEY@@PAVREGISTRY_KEY_INFO@@PBVWSTRING@@PAK@Z=C:\Windows\SysWOW64\ureg.?SaveKeyToFile@REGISTRY@@QAEEW4_PREDEFINED_KEY@@PAVREGISTRY_KEY_INFO@@PBVWSTRING@@PAK@Z
  ?SetKeySecurity@REGISTRY@@QAEEW4_PREDEFINED_KEY@@PAVREGISTRY_KEY_INFO@@KPAXPAKE@Z=C:\Windows\SysWOW64\ureg.?SetKeySecurity@REGISTRY@@QAEEW4_PREDEFINED_KEY@@PAVREGISTRY_KEY_INFO@@KPAXPAKE@Z
  ?UnLoadHive@REGISTRY@@QAEEW4_PREDEFINED_KEY@@PAVREGISTRY_KEY_INFO@@PAK@Z=C:\Windows\SysWOW64\ureg.?UnLoadHive@REGISTRY@@QAEEW4_PREDEFINED_KEY@@PAVREGISTRY_KEY_INFO@@PAK@Z
  ?UpdateKeyInfo@REGISTRY@@QAEEW4_PREDEFINED_KEY@@PAVREGISTRY_KEY_INFO@@PAK@Z=C:\Windows\SysWOW64\ureg.?UpdateKeyInfo@REGISTRY@@QAEEW4_PREDEFINED_KEY@@PAVREGISTRY_KEY_INFO@@PAK@Z
