EXPORTS
  ?<Dispose>@Exception@Platform@@U$AAAXXZ=C:\Windows\SysWOW64\vccorlib140.?<Dispose>@Exception@Platform@@U$AAAXXZ
  ?<Dispose>@String@Platform@@U$AAAXXZ=C:\Windows\SysWOW64\vccorlib140.?<Dispose>@String@Platform@@U$AAAXXZ
  ?<Dispose>@Type@Platform@@U$AAAXXZ=C:\Windows\SysWOW64\vccorlib140.?<Dispose>@Type@Platform@@U$AAAXXZ
  ??0AccessDeniedException@Platform@@Q$AAA@P$AAVString@1@@Z=C:\Windows\SysWOW64\vccorlib140.??0AccessDeniedException@Platform@@Q$AAA@P$AAVString@1@@Z
  ??0AccessDeniedException@Platform@@Q$AAA@XZ=C:\Windows\SysWOW64\vccorlib140.??0AccessDeniedException@Platform@@Q$AAA@XZ
  ??0Attribute@Metadata@Platform@@Q$AAA@XZ=C:\Windows\SysWOW64\vccorlib140.??0Attribute@Metadata@Platform@@Q$AAA@XZ
  ??0Boolean@Platform@@QAA@_N@Z=C:\Windows\SysWOW64\vccorlib140.??0Boolean@Platform@@QAA@_N@Z
  ??0COMException@Platform@@Q$AAA@H@Z=C:\Windows\SysWOW64\vccorlib140.??0COMException@Platform@@Q$AAA@H@Z
  ??0COMException@Platform@@Q$AAA@HP$AAVString@1@@Z=C:\Windows\SysWOW64\vccorlib140.??0COMException@Platform@@Q$AAA@HP$AAVString@1@@Z
  ??0ChangedStateException@Platform@@Q$AAA@P$AAVString@1@@Z=C:\Windows\SysWOW64\vccorlib140.??0ChangedStateException@Platform@@Q$AAA@P$AAVString@1@@Z
  ??0ChangedStateException@Platform@@Q$AAA@XZ=C:\Windows\SysWOW64\vccorlib140.??0ChangedStateException@Platform@@Q$AAA@XZ
  ??0ClassNotRegisteredException@Platform@@Q$AAA@P$AAVString@1@@Z=C:\Windows\SysWOW64\vccorlib140.??0ClassNotRegisteredException@Platform@@Q$AAA@P$AAVString@1@@Z
  ??0ClassNotRegisteredException@Platform@@Q$AAA@XZ=C:\Windows\SysWOW64\vccorlib140.??0ClassNotRegisteredException@Platform@@Q$AAA@XZ
  ??0Delegate@Platform@@Q$AAA@XZ=C:\Windows\SysWOW64\vccorlib140.??0Delegate@Platform@@Q$AAA@XZ
  ??0DisconnectedException@Platform@@Q$AAA@P$AAVString@1@@Z=C:\Windows\SysWOW64\vccorlib140.??0DisconnectedException@Platform@@Q$AAA@P$AAVString@1@@Z
  ??0DisconnectedException@Platform@@Q$AAA@XZ=C:\Windows\SysWOW64\vccorlib140.??0DisconnectedException@Platform@@Q$AAA@XZ
  ??0Enum@Platform@@Q$AAA@XZ=C:\Windows\SysWOW64\vccorlib140.??0Enum@Platform@@Q$AAA@XZ
  ??0Exception@Platform@@Q$AAA@H@Z=C:\Windows\SysWOW64\vccorlib140.??0Exception@Platform@@Q$AAA@H@Z
  ??0Exception@Platform@@Q$AAA@HP$AAVString@1@@Z=C:\Windows\SysWOW64\vccorlib140.??0Exception@Platform@@Q$AAA@HP$AAVString@1@@Z
  ??0FailureException@Platform@@Q$AAA@P$AAVString@1@@Z=C:\Windows\SysWOW64\vccorlib140.??0FailureException@Platform@@Q$AAA@P$AAVString@1@@Z
  ??0FailureException@Platform@@Q$AAA@XZ=C:\Windows\SysWOW64\vccorlib140.??0FailureException@Platform@@Q$AAA@XZ
  ??0GridLength@Xaml@UI@Windows@@QAA@NW4GridUnitType@123@@Z=C:\Windows\SysWOW64\vccorlib140.??0GridLength@Xaml@UI@Windows@@QAA@NW4GridUnitType@123@@Z
  ??0IntPtr@Platform@@QAA@H@Z=C:\Windows\SysWOW64\vccorlib140.??0IntPtr@Platform@@QAA@H@Z
  ??0IntPtr@Platform@@QAA@PAX@Z=C:\Windows\SysWOW64\vccorlib140.??0IntPtr@Platform@@QAA@PAX@Z
  ??0InvalidArgumentException@Platform@@Q$AAA@P$AAVString@1@@Z=C:\Windows\SysWOW64\vccorlib140.??0InvalidArgumentException@Platform@@Q$AAA@P$AAVString@1@@Z
  ??0InvalidArgumentException@Platform@@Q$AAA@XZ=C:\Windows\SysWOW64\vccorlib140.??0InvalidArgumentException@Platform@@Q$AAA@XZ
  ??0InvalidCastException@Platform@@Q$AAA@P$AAVString@1@@Z=C:\Windows\SysWOW64\vccorlib140.??0InvalidCastException@Platform@@Q$AAA@P$AAVString@1@@Z
  ??0InvalidCastException@Platform@@Q$AAA@XZ=C:\Windows\SysWOW64\vccorlib140.??0InvalidCastException@Platform@@Q$AAA@XZ
  ??0MTAThreadAttribute@Platform@@Q$AAA@XZ=C:\Windows\SysWOW64\vccorlib140.??0MTAThreadAttribute@Platform@@Q$AAA@XZ
  ??0NotImplementedException@Platform@@Q$AAA@P$AAVString@1@@Z=C:\Windows\SysWOW64\vccorlib140.??0NotImplementedException@Platform@@Q$AAA@P$AAVString@1@@Z
  ??0NotImplementedException@Platform@@Q$AAA@XZ=C:\Windows\SysWOW64\vccorlib140.??0NotImplementedException@Platform@@Q$AAA@XZ
  ??0NullReferenceException@Platform@@Q$AAA@P$AAVString@1@@Z=C:\Windows\SysWOW64\vccorlib140.??0NullReferenceException@Platform@@Q$AAA@P$AAVString@1@@Z
  ??0NullReferenceException@Platform@@Q$AAA@XZ=C:\Windows\SysWOW64\vccorlib140.??0NullReferenceException@Platform@@Q$AAA@XZ
  ??0Object@Platform@@Q$AAA@XZ=C:\Windows\SysWOW64\vccorlib140.??0Object@Platform@@Q$AAA@XZ
  ??0ObjectDisposedException@Platform@@Q$AAA@P$AAVString@1@@Z=C:\Windows\SysWOW64\vccorlib140.??0ObjectDisposedException@Platform@@Q$AAA@P$AAVString@1@@Z
  ??0ObjectDisposedException@Platform@@Q$AAA@XZ=C:\Windows\SysWOW64\vccorlib140.??0ObjectDisposedException@Platform@@Q$AAA@XZ
  ??0OnePhaseConstructedAttribute@CompilerServices@Runtime@Platform@@Q$AAA@XZ=C:\Windows\SysWOW64\vccorlib140.??0OnePhaseConstructedAttribute@CompilerServices@Runtime@Platform@@Q$AAA@XZ
  ??0OperationCanceledException@Platform@@Q$AAA@P$AAVString@1@@Z=C:\Windows\SysWOW64\vccorlib140.??0OperationCanceledException@Platform@@Q$AAA@P$AAVString@1@@Z
  ??0OperationCanceledException@Platform@@Q$AAA@XZ=C:\Windows\SysWOW64\vccorlib140.??0OperationCanceledException@Platform@@Q$AAA@XZ
  ??0OutOfBoundsException@Platform@@Q$AAA@P$AAVString@1@@Z=C:\Windows\SysWOW64\vccorlib140.??0OutOfBoundsException@Platform@@Q$AAA@P$AAVString@1@@Z
  ??0OutOfBoundsException@Platform@@Q$AAA@XZ=C:\Windows\SysWOW64\vccorlib140.??0OutOfBoundsException@Platform@@Q$AAA@XZ
  ??0OutOfMemoryException@Platform@@Q$AAA@P$AAVString@1@@Z=C:\Windows\SysWOW64\vccorlib140.??0OutOfMemoryException@Platform@@Q$AAA@P$AAVString@1@@Z
  ??0OutOfMemoryException@Platform@@Q$AAA@XZ=C:\Windows\SysWOW64\vccorlib140.??0OutOfMemoryException@Platform@@Q$AAA@XZ
  ??0Rect@Foundation@Windows@@QAA@VPoint@12@0@Z=C:\Windows\SysWOW64\vccorlib140.??0Rect@Foundation@Windows@@QAA@VPoint@12@0@Z
  ??0Rect@Foundation@Windows@@QAA@VPoint@12@VSize@12@@Z=C:\Windows\SysWOW64\vccorlib140.??0Rect@Foundation@Windows@@QAA@VPoint@12@VSize@12@@Z
  ??0RepeatBehavior@Animation@Media@Xaml@UI@Windows@@QAA@N@Z=C:\Windows\SysWOW64\vccorlib140.??0RepeatBehavior@Animation@Media@Xaml@UI@Windows@@QAA@N@Z
  ??0STAThreadAttribute@Platform@@Q$AAA@XZ=C:\Windows\SysWOW64\vccorlib140.??0STAThreadAttribute@Platform@@Q$AAA@XZ
  ??0SizeT@Platform@@QAA@H@Z=C:\Windows\SysWOW64\vccorlib140.??0SizeT@Platform@@QAA@H@Z
  ??0SizeT@Platform@@QAA@PAX@Z=C:\Windows\SysWOW64\vccorlib140.??0SizeT@Platform@@QAA@PAX@Z
  ??0Type@Platform@@Q$AAA@P$AAVObject@1@@Z=C:\Windows\SysWOW64\vccorlib140.??0Type@Platform@@Q$AAA@P$AAVObject@1@@Z
  ??0Type@Platform@@Q$AAA@VIntPtr@1@@Z=C:\Windows\SysWOW64\vccorlib140.??0Type@Platform@@Q$AAA@VIntPtr@1@@Z
  ??0Type@Platform@@Q$AAA@VTypeName@Interop@Xaml@UI@Windows@@@Z=C:\Windows\SysWOW64\vccorlib140.??0Type@Platform@@Q$AAA@VTypeName@Interop@Xaml@UI@Windows@@@Z
  ??0ValueType@Platform@@Q$AAA@XZ=C:\Windows\SysWOW64\vccorlib140.??0ValueType@Platform@@Q$AAA@XZ
  ??0WrongThreadException@Platform@@Q$AAA@P$AAVString@1@@Z=C:\Windows\SysWOW64\vccorlib140.??0WrongThreadException@Platform@@Q$AAA@P$AAVString@1@@Z
  ??0WrongThreadException@Platform@@Q$AAA@XZ=C:\Windows\SysWOW64\vccorlib140.??0WrongThreadException@Platform@@Q$AAA@XZ
  ??0char16@default@@QAA@_W@Z=C:\Windows\SysWOW64\vccorlib140.??0char16@default@@QAA@_W@Z
  ??0float32@default@@QAA@M@Z=C:\Windows\SysWOW64\vccorlib140.??0float32@default@@QAA@M@Z
  ??0float64@default@@QAA@N@Z=C:\Windows\SysWOW64\vccorlib140.??0float64@default@@QAA@N@Z
  ??0int16@default@@QAA@F@Z=C:\Windows\SysWOW64\vccorlib140.??0int16@default@@QAA@F@Z
  ??0int32@default@@QAA@H@Z=C:\Windows\SysWOW64\vccorlib140.??0int32@default@@QAA@H@Z
  ??0int64@default@@QAA@_J@Z=C:\Windows\SysWOW64\vccorlib140.??0int64@default@@QAA@_J@Z
  ??0int8@default@@QAA@C@Z=C:\Windows\SysWOW64\vccorlib140.??0int8@default@@QAA@C@Z
  ??0uint16@default@@QAA@G@Z=C:\Windows\SysWOW64\vccorlib140.??0uint16@default@@QAA@G@Z
  ??0uint32@default@@QAA@I@Z=C:\Windows\SysWOW64\vccorlib140.??0uint32@default@@QAA@I@Z
  ??0uint64@default@@QAA@_K@Z=C:\Windows\SysWOW64\vccorlib140.??0uint64@default@@QAA@_K@Z
  ??0uint8@default@@QAA@E@Z=C:\Windows\SysWOW64\vccorlib140.??0uint8@default@@QAA@E@Z
  ??BIntPtr@Platform@@SA?AV01@H@Z=C:\Windows\SysWOW64\vccorlib140.??BIntPtr@Platform@@SA?AV01@H@Z
  ??BIntPtr@Platform@@SA?AV01@PAX@Z=C:\Windows\SysWOW64\vccorlib140.??BIntPtr@Platform@@SA?AV01@PAX@Z
  ??BIntPtr@Platform@@SAPAXV01@@Z=C:\Windows\SysWOW64\vccorlib140.??BIntPtr@Platform@@SAPAXV01@@Z
  ??BType@Platform@@SA?AVTypeName@Interop@Xaml@UI@Windows@@P$AAV01@@Z=C:\Windows\SysWOW64\vccorlib140.??BType@Platform@@SA?AVTypeName@Interop@Xaml@UI@Windows@@P$AAV01@@Z
  ??BType@Platform@@SAP$AAV01@VTypeName@Interop@Xaml@UI@Windows@@@Z=C:\Windows\SysWOW64\vccorlib140.??BType@Platform@@SAP$AAV01@VTypeName@Interop@Xaml@UI@Windows@@@Z
  ??DMatrix3D@Media3D@Media@Xaml@UI@Windows@@SA?AV012345@V012345@0@Z=C:\Windows\SysWOW64\vccorlib140.??DMatrix3D@Media3D@Media@Xaml@UI@Windows@@SA?AV012345@V012345@0@Z
  ??GDuration@Xaml@UI@Windows@@SA?AV0123@V0123@0@Z=C:\Windows\SysWOW64\vccorlib140.??GDuration@Xaml@UI@Windows@@SA?AV0123@V0123@0@Z
  ??HDuration@Xaml@UI@Windows@@SA?AV0123@V0123@0@Z=C:\Windows\SysWOW64\vccorlib140.??HDuration@Xaml@UI@Windows@@SA?AV0123@V0123@0@Z
  ??MDuration@Xaml@UI@Windows@@SA_NV0123@0@Z=C:\Windows\SysWOW64\vccorlib140.??MDuration@Xaml@UI@Windows@@SA_NV0123@0@Z
  ??NDuration@Xaml@UI@Windows@@SA_NV0123@0@Z=C:\Windows\SysWOW64\vccorlib140.??NDuration@Xaml@UI@Windows@@SA_NV0123@0@Z
  ??ODuration@Xaml@UI@Windows@@SA_NV0123@0@Z=C:\Windows\SysWOW64\vccorlib140.??ODuration@Xaml@UI@Windows@@SA_NV0123@0@Z
  ??PDuration@Xaml@UI@Windows@@SA_NV0123@0@Z=C:\Windows\SysWOW64\vccorlib140.??PDuration@Xaml@UI@Windows@@SA_NV0123@0@Z
  ?AlignedAllocate@Heap@Details@Platform@@SAPAXII@Z=C:\Windows\SysWOW64\vccorlib140.?AlignedAllocate@Heap@Details@Platform@@SAPAXII@Z
  ?AlignedAllocate@Heap@Details@Platform@@SAPAXIII@Z=C:\Windows\SysWOW64\vccorlib140.?AlignedAllocate@Heap@Details@Platform@@SAPAXIII@Z
  ?AlignedAllocateException@Heap@Details@Platform@@SAPAXII@Z=C:\Windows\SysWOW64\vccorlib140.?AlignedAllocateException@Heap@Details@Platform@@SAPAXII@Z
  ?AlignedAllocateException@Heap@Details@Platform@@SAPAXIII@Z=C:\Windows\SysWOW64\vccorlib140.?AlignedAllocateException@Heap@Details@Platform@@SAPAXIII@Z
  ?AlignedFree@Heap@Details@Platform@@SAXPAX@Z=C:\Windows\SysWOW64\vccorlib140.?AlignedFree@Heap@Details@Platform@@SAXPAX@Z
  ?AlignedFreeException@Heap@Details@Platform@@SAXPAX@Z=C:\Windows\SysWOW64\vccorlib140.?AlignedFreeException@Heap@Details@Platform@@SAXPAX@Z
  ?Allocate@Heap@Details@Platform@@SAPAXI@Z=C:\Windows\SysWOW64\vccorlib140.?Allocate@Heap@Details@Platform@@SAPAXI@Z
  ?Allocate@Heap@Details@Platform@@SAPAXII@Z=C:\Windows\SysWOW64\vccorlib140.?Allocate@Heap@Details@Platform@@SAPAXII@Z
  ?AllocateException@Heap@Details@Platform@@SAPAXI@Z=C:\Windows\SysWOW64\vccorlib140.?AllocateException@Heap@Details@Platform@@SAPAXI@Z
  ?AllocateException@Heap@Details@Platform@@SAPAXII@Z=C:\Windows\SysWOW64\vccorlib140.?AllocateException@Heap@Details@Platform@@SAPAXII@Z
  ?Compare@Duration@Xaml@UI@Windows@@SAHV1234@0@Z=C:\Windows\SysWOW64\vccorlib140.?Compare@Duration@Xaml@UI@Windows@@SAHV1234@0@Z
  ?Contains@Rect@Foundation@Windows@@QAA_NVPoint@23@@Z=C:\Windows\SysWOW64\vccorlib140.?Contains@Rect@Foundation@Windows@@QAA_NVPoint@23@@Z
  ?CreateException@Exception@Platform@@SAP$AAV12@H@Z=C:\Windows\SysWOW64\vccorlib140.?CreateException@Exception@Platform@@SAP$AAV12@H@Z
  ?CreateException@Exception@Platform@@SAP$AAV12@HP$AAVString@2@@Z=C:\Windows\SysWOW64\vccorlib140.?CreateException@Exception@Platform@@SAP$AAV12@HP$AAVString@2@@Z
  ?CreateValue@Details@Platform@@YGP$AAVObject@2@W4TypeCode@2@PBX@Z=C:\Windows\SysWOW64\vccorlib140.?CreateValue@Details@Platform@@YGP$AAVObject@2@W4TypeCode@2@PBX@Z
  ?EnableFactoryCache@@YAXXZ=C:\Windows\SysWOW64\vccorlib140.?EnableFactoryCache@@YAXXZ
  ?EnumerateAllocatedObjects@Heap@Details@Platform@@SAXP$AAVHeapEntryHandler@23@@Z=C:\Windows\SysWOW64\vccorlib140.?EnumerateAllocatedObjects@Heap@Details@Platform@@SAXP$AAVHeapEntryHandler@23@@Z
  ?Equals@Attribute@Metadata@Platform@@Q$AAA_NP$AAVObject@3@@Z=C:\Windows\SysWOW64\vccorlib140.?Equals@Attribute@Metadata@Platform@@Q$AAA_NP$AAVObject@3@@Z
  ?Equals@Boolean@Platform@@QAA_NP$AAVObject@2@@Z=C:\Windows\SysWOW64\vccorlib140.?Equals@Boolean@Platform@@QAA_NP$AAVObject@2@@Z
  ?Equals@Delegate@Platform@@Q$AAA_NP$AAVObject@2@@Z=C:\Windows\SysWOW64\vccorlib140.?Equals@Delegate@Platform@@Q$AAA_NP$AAVObject@2@@Z
  ?Equals@Enum@Platform@@Q$AAA_NP$AAVObject@2@@Z=C:\Windows\SysWOW64\vccorlib140.?Equals@Enum@Platform@@Q$AAA_NP$AAVObject@2@@Z
  ?Equals@Exception@Platform@@U$AAA_NP$AAVObject@2@@Z=C:\Windows\SysWOW64\vccorlib140.?Equals@Exception@Platform@@U$AAA_NP$AAVObject@2@@Z
  ?Equals@MTAThreadAttribute@Platform@@Q$AAA_NP$AAVObject@2@@Z=C:\Windows\SysWOW64\vccorlib140.?Equals@MTAThreadAttribute@Platform@@Q$AAA_NP$AAVObject@2@@Z
  ?Equals@Object@Platform@@Q$AAA_NP$AAV12@@Z=C:\Windows\SysWOW64\vccorlib140.?Equals@Object@Platform@@Q$AAA_NP$AAV12@@Z
  ?Equals@OnePhaseConstructedAttribute@CompilerServices@Runtime@Platform@@Q$AAA_NP$AAVObject@4@@Z=C:\Windows\SysWOW64\vccorlib140.?Equals@OnePhaseConstructedAttribute@CompilerServices@Runtime@Platform@@Q$AAA_NP$AAVObject@4@@Z
  ?Equals@STAThreadAttribute@Platform@@Q$AAA_NP$AAVObject@2@@Z=C:\Windows\SysWOW64\vccorlib140.?Equals@STAThreadAttribute@Platform@@Q$AAA_NP$AAVObject@2@@Z
  ?Equals@Type@Platform@@U$AAA_NP$AAVObject@2@@Z=C:\Windows\SysWOW64\vccorlib140.?Equals@Type@Platform@@U$AAA_NP$AAVObject@2@@Z
  ?Equals@ValueType@Platform@@Q$AAA_NP$AAVObject@2@@Z=C:\Windows\SysWOW64\vccorlib140.?Equals@ValueType@Platform@@Q$AAA_NP$AAVObject@2@@Z
  ?Equals@char16@default@@QAA_NP$AAVObject@Platform@@@Z=C:\Windows\SysWOW64\vccorlib140.?Equals@char16@default@@QAA_NP$AAVObject@Platform@@@Z
  ?Equals@float32@default@@QAA_NP$AAVObject@Platform@@@Z=C:\Windows\SysWOW64\vccorlib140.?Equals@float32@default@@QAA_NP$AAVObject@Platform@@@Z
  ?Equals@float64@default@@QAA_NP$AAVObject@Platform@@@Z=C:\Windows\SysWOW64\vccorlib140.?Equals@float64@default@@QAA_NP$AAVObject@Platform@@@Z
  ?Equals@int16@default@@QAA_NP$AAVObject@Platform@@@Z=C:\Windows\SysWOW64\vccorlib140.?Equals@int16@default@@QAA_NP$AAVObject@Platform@@@Z
  ?Equals@int32@default@@QAA_NP$AAVObject@Platform@@@Z=C:\Windows\SysWOW64\vccorlib140.?Equals@int32@default@@QAA_NP$AAVObject@Platform@@@Z
  ?Equals@int64@default@@QAA_NP$AAVObject@Platform@@@Z=C:\Windows\SysWOW64\vccorlib140.?Equals@int64@default@@QAA_NP$AAVObject@Platform@@@Z
  ?Equals@int8@default@@QAA_NP$AAVObject@Platform@@@Z=C:\Windows\SysWOW64\vccorlib140.?Equals@int8@default@@QAA_NP$AAVObject@Platform@@@Z
  ?Equals@uint16@default@@QAA_NP$AAVObject@Platform@@@Z=C:\Windows\SysWOW64\vccorlib140.?Equals@uint16@default@@QAA_NP$AAVObject@Platform@@@Z
  ?Equals@uint32@default@@QAA_NP$AAVObject@Platform@@@Z=C:\Windows\SysWOW64\vccorlib140.?Equals@uint32@default@@QAA_NP$AAVObject@Platform@@@Z
  ?Equals@uint64@default@@QAA_NP$AAVObject@Platform@@@Z=C:\Windows\SysWOW64\vccorlib140.?Equals@uint64@default@@QAA_NP$AAVObject@Platform@@@Z
  ?Equals@uint8@default@@QAA_NP$AAVObject@Platform@@@Z=C:\Windows\SysWOW64\vccorlib140.?Equals@uint8@default@@QAA_NP$AAVObject@Platform@@@Z
  ?EventSourceAdd@Details@Platform@@YG?AVEventRegistrationToken@Foundation@Windows@@PAPAXPAUEventLock@12@P$AAVDelegate@2@@Z=C:\Windows\SysWOW64\vccorlib140.?EventSourceAdd@Details@Platform@@YG?AVEventRegistrationToken@Foundation@Windows@@PAPAXPAUEventLock@12@P$AAVDelegate@2@@Z
  ?EventSourceGetTargetArray@Details@Platform@@YGPAXPAXPAUEventLock@12@@Z=C:\Windows\SysWOW64\vccorlib140.?EventSourceGetTargetArray@Details@Platform@@YGPAXPAXPAUEventLock@12@@Z
  ?EventSourceGetTargetArrayEvent@Details@Platform@@YGPAXPAXIPBXPA_J@Z=C:\Windows\SysWOW64\vccorlib140.?EventSourceGetTargetArrayEvent@Details@Platform@@YGPAXPAXIPBXPA_J@Z
  ?EventSourceGetTargetArraySize@Details@Platform@@YGIPAX@Z=C:\Windows\SysWOW64\vccorlib140.?EventSourceGetTargetArraySize@Details@Platform@@YGIPAX@Z
  ?EventSourceInitialize@Details@Platform@@YGXPAPAX@Z=C:\Windows\SysWOW64\vccorlib140.?EventSourceInitialize@Details@Platform@@YGXPAPAX@Z
  ?EventSourceRemove@Details@Platform@@YGXPAPAXPAUEventLock@12@VEventRegistrationToken@Foundation@Windows@@@Z=C:\Windows\SysWOW64\vccorlib140.?EventSourceRemove@Details@Platform@@YGXPAPAXPAUEventLock@12@VEventRegistrationToken@Foundation@Windows@@@Z
  ?EventSourceUninitialize@Details@Platform@@YGXPAPAX@Z=C:\Windows\SysWOW64\vccorlib140.?EventSourceUninitialize@Details@Platform@@YGXPAPAX@Z
  ?FlushFactoryCache@@YGXXZ=C:\Windows\SysWOW64\vccorlib140.?FlushFactoryCache@@YGXXZ
  ?Free@Heap@Details@Platform@@SAXPAX@Z=C:\Windows\SysWOW64\vccorlib140.?Free@Heap@Details@Platform@@SAXPAX@Z
  ?FreeException@Heap@Details@Platform@@SAXPAX@Z=C:\Windows\SysWOW64\vccorlib140.?FreeException@Heap@Details@Platform@@SAXPAX@Z
  ?GetActivationFactory@Details@Platform@@YGJPAVModuleBase@1WRL@Microsoft@@PAUHSTRING__@@PAPAUIActivationFactory@@@Z=C:\Windows\SysWOW64\vccorlib140.?GetActivationFactory@Details@Platform@@YGJPAVModuleBase@1WRL@Microsoft@@PAUHSTRING__@@PAPAUIActivationFactory@@@Z
  ?GetActivationFactoryByPCWSTR@@YGJPAXAAVGuid@Platform@@PAPAX@Z=C:\Windows\SysWOW64\vccorlib140.?GetActivationFactoryByPCWSTR@@YGJPAXAAVGuid@Platform@@PAPAX@Z
  ?GetCmdArguments@Details@Platform@@YAPAPA_WPAH@Z=C:\Windows\SysWOW64\vccorlib140.?GetCmdArguments@Details@Platform@@YAPAPA_WPAH@Z
  ?GetHashCode@Attribute@Metadata@Platform@@Q$AAAHXZ=C:\Windows\SysWOW64\vccorlib140.?GetHashCode@Attribute@Metadata@Platform@@Q$AAAHXZ
  ?GetHashCode@Boolean@Platform@@QAAHXZ=C:\Windows\SysWOW64\vccorlib140.?GetHashCode@Boolean@Platform@@QAAHXZ
  ?GetHashCode@Delegate@Platform@@Q$AAAHXZ=C:\Windows\SysWOW64\vccorlib140.?GetHashCode@Delegate@Platform@@Q$AAAHXZ
  ?GetHashCode@Enum@Platform@@Q$AAAHXZ=C:\Windows\SysWOW64\vccorlib140.?GetHashCode@Enum@Platform@@Q$AAAHXZ
  ?GetHashCode@Exception@Platform@@U$AAAHXZ=C:\Windows\SysWOW64\vccorlib140.?GetHashCode@Exception@Platform@@U$AAAHXZ
  ?GetHashCode@Guid@Platform@@QAAHXZ=C:\Windows\SysWOW64\vccorlib140.?GetHashCode@Guid@Platform@@QAAHXZ
  ?GetHashCode@MTAThreadAttribute@Platform@@Q$AAAHXZ=C:\Windows\SysWOW64\vccorlib140.?GetHashCode@MTAThreadAttribute@Platform@@Q$AAAHXZ
  ?GetHashCode@Object@Platform@@Q$AAAHXZ=C:\Windows\SysWOW64\vccorlib140.?GetHashCode@Object@Platform@@Q$AAAHXZ
  ?GetHashCode@OnePhaseConstructedAttribute@CompilerServices@Runtime@Platform@@Q$AAAHXZ=C:\Windows\SysWOW64\vccorlib140.?GetHashCode@OnePhaseConstructedAttribute@CompilerServices@Runtime@Platform@@Q$AAAHXZ
  ?GetHashCode@STAThreadAttribute@Platform@@Q$AAAHXZ=C:\Windows\SysWOW64\vccorlib140.?GetHashCode@STAThreadAttribute@Platform@@Q$AAAHXZ
  ?GetHashCode@Type@Platform@@U$AAAHXZ=C:\Windows\SysWOW64\vccorlib140.?GetHashCode@Type@Platform@@U$AAAHXZ
  ?GetHashCode@ValueType@Platform@@Q$AAAHXZ=C:\Windows\SysWOW64\vccorlib140.?GetHashCode@ValueType@Platform@@Q$AAAHXZ
  ?GetHashCode@char16@default@@QAAHXZ=C:\Windows\SysWOW64\vccorlib140.?GetHashCode@char16@default@@QAAHXZ
  ?GetHashCode@float32@default@@QAAHXZ=C:\Windows\SysWOW64\vccorlib140.?GetHashCode@float32@default@@QAAHXZ
  ?GetHashCode@float64@default@@QAAHXZ=C:\Windows\SysWOW64\vccorlib140.?GetHashCode@float64@default@@QAAHXZ
  ?GetHashCode@int16@default@@QAAHXZ=C:\Windows\SysWOW64\vccorlib140.?GetHashCode@int16@default@@QAAHXZ
  ?GetHashCode@int32@default@@QAAHXZ=C:\Windows\SysWOW64\vccorlib140.?GetHashCode@int32@default@@QAAHXZ
  ?GetHashCode@int64@default@@QAAHXZ=C:\Windows\SysWOW64\vccorlib140.?GetHashCode@int64@default@@QAAHXZ
  ?GetHashCode@int8@default@@QAAHXZ=C:\Windows\SysWOW64\vccorlib140.?GetHashCode@int8@default@@QAAHXZ
  ?GetHashCode@uint16@default@@QAAHXZ=C:\Windows\SysWOW64\vccorlib140.?GetHashCode@uint16@default@@QAAHXZ
  ?GetHashCode@uint32@default@@QAAHXZ=C:\Windows\SysWOW64\vccorlib140.?GetHashCode@uint32@default@@QAAHXZ
  ?GetHashCode@uint64@default@@QAAHXZ=C:\Windows\SysWOW64\vccorlib140.?GetHashCode@uint64@default@@QAAHXZ
  ?GetHashCode@uint8@default@@QAAHXZ=C:\Windows\SysWOW64\vccorlib140.?GetHashCode@uint8@default@@QAAHXZ
  ?GetIBoxArrayVtable@Details@Platform@@YGPAXPAX@Z=C:\Windows\SysWOW64\vccorlib140.?GetIBoxArrayVtable@Details@Platform@@YGPAXPAX@Z
  ?GetIBoxVtable@Details@Platform@@YGPAXPAX@Z=C:\Windows\SysWOW64\vccorlib140.?GetIBoxVtable@Details@Platform@@YGPAXPAX@Z
  ?GetIidsFn@@YGJHPAKPBU__s_GUID@@PAPAVGuid@Platform@@@Z=C:\Windows\SysWOW64\vccorlib140.?GetIidsFn@@YGJHPAKPBU__s_GUID@@PAPAVGuid@Platform@@@Z
  ?GetObjectContext@Details@Platform@@YGPAUIUnknown@@XZ=C:\Windows\SysWOW64\vccorlib140.?GetObjectContext@Details@Platform@@YGPAUIUnknown@@XZ
  ?GetProxyImpl@Details@Platform@@YGJPAUIUnknown@@ABU_GUID@@0PAPAU3@@Z=C:\Windows\SysWOW64\vccorlib140.?GetProxyImpl@Details@Platform@@YGJPAUIUnknown@@ABU_GUID@@0PAPAU3@@Z
  ?GetType@Boolean@Platform@@QAAP$AAVType@2@XZ=C:\Windows\SysWOW64\vccorlib140.?GetType@Boolean@Platform@@QAAP$AAVType@2@XZ
  ?GetType@Guid@Platform@@QAAP$AAVType@2@XZ=C:\Windows\SysWOW64\vccorlib140.?GetType@Guid@Platform@@QAAP$AAVType@2@XZ
  ?GetType@Object@Platform@@Q$AAAP$AAVType@2@XZ=C:\Windows\SysWOW64\vccorlib140.?GetType@Object@Platform@@Q$AAAP$AAVType@2@XZ
  ?GetType@char16@default@@QAAP$AAVType@Platform@@XZ=C:\Windows\SysWOW64\vccorlib140.?GetType@char16@default@@QAAP$AAVType@Platform@@XZ
  ?GetType@float32@default@@QAAP$AAVType@Platform@@XZ=C:\Windows\SysWOW64\vccorlib140.?GetType@float32@default@@QAAP$AAVType@Platform@@XZ
  ?GetType@float64@default@@QAAP$AAVType@Platform@@XZ=C:\Windows\SysWOW64\vccorlib140.?GetType@float64@default@@QAAP$AAVType@Platform@@XZ
  ?GetType@int16@default@@QAAP$AAVType@Platform@@XZ=C:\Windows\SysWOW64\vccorlib140.?GetType@int16@default@@QAAP$AAVType@Platform@@XZ
  ?GetType@int32@default@@QAAP$AAVType@Platform@@XZ=C:\Windows\SysWOW64\vccorlib140.?GetType@int32@default@@QAAP$AAVType@Platform@@XZ
  ?GetType@int64@default@@QAAP$AAVType@Platform@@XZ=C:\Windows\SysWOW64\vccorlib140.?GetType@int64@default@@QAAP$AAVType@Platform@@XZ
  ?GetType@int8@default@@QAAP$AAVType@Platform@@XZ=C:\Windows\SysWOW64\vccorlib140.?GetType@int8@default@@QAAP$AAVType@Platform@@XZ
  ?GetType@uint16@default@@QAAP$AAVType@Platform@@XZ=C:\Windows\SysWOW64\vccorlib140.?GetType@uint16@default@@QAAP$AAVType@Platform@@XZ
  ?GetType@uint32@default@@QAAP$AAVType@Platform@@XZ=C:\Windows\SysWOW64\vccorlib140.?GetType@uint32@default@@QAAP$AAVType@Platform@@XZ
  ?GetType@uint64@default@@QAAP$AAVType@Platform@@XZ=C:\Windows\SysWOW64\vccorlib140.?GetType@uint64@default@@QAAP$AAVType@Platform@@XZ
  ?GetType@uint8@default@@QAAP$AAVType@Platform@@XZ=C:\Windows\SysWOW64\vccorlib140.?GetType@uint8@default@@QAAP$AAVType@Platform@@XZ
  ?GetTypeCode@Type@Platform@@SA?AW4TypeCode@2@P$AAV12@@Z=C:\Windows\SysWOW64\vccorlib140.?GetTypeCode@Type@Platform@@SA?AW4TypeCode@2@P$AAV12@@Z
  ?GetWeakReference@Details@Platform@@YGPAU__abi_IUnknown@@Q$ADVObject@2@@Z=C:\Windows\SysWOW64\vccorlib140.?GetWeakReference@Details@Platform@@YGPAU__abi_IUnknown@@Q$ADVObject@2@@Z
  ?InitControlBlock@ControlBlock@Details@Platform@@AAEXPAX_N11@Z=C:\Windows\SysWOW64\vccorlib140.?InitControlBlock@ControlBlock@Details@Platform@@AAEXPAX_N11@Z
  ?InitializeData@Details@Platform@@YAJH@Z=C:\Windows\SysWOW64\vccorlib140.?InitializeData@Details@Platform@@YAJH@Z
  ?Intersect@Rect@Foundation@Windows@@QAAXV123@@Z=C:\Windows\SysWOW64\vccorlib140.?Intersect@Rect@Foundation@Windows@@QAAXV123@@Z
  ?IntersectsWith@Rect@Foundation@Windows@@QAA_NV123@@Z=C:\Windows\SysWOW64\vccorlib140.?IntersectsWith@Rect@Foundation@Windows@@QAA_NV123@@Z
  ?Invert@Matrix3D@Media3D@Media@Xaml@UI@Windows@@QAAXXZ=C:\Windows\SysWOW64\vccorlib140.?Invert@Matrix3D@Media3D@Media@Xaml@UI@Windows@@QAAXXZ
  ?ReCreateException@Exception@Platform@@SAP$AAV12@H@Z=C:\Windows\SysWOW64\vccorlib140.?ReCreateException@Exception@Platform@@SAP$AAV12@H@Z
  ?ReferenceEquals@Object@Platform@@SA_NP$AAV12@0@Z=C:\Windows\SysWOW64\vccorlib140.?ReferenceEquals@Object@Platform@@SA_NP$AAV12@0@Z
  ?ReferenceEquals@Object@Platform@@SA_NP$AAVString@2@0@Z=C:\Windows\SysWOW64\vccorlib140.?ReferenceEquals@Object@Platform@@SA_NP$AAVString@2@0@Z
  ?RegisterFactories@Details@Platform@@YGP$AAVObject@2@PAPAVModuleBase@1WRL@Microsoft@@PAPAU__abi_Module@@P6GXXZ@Z=C:\Windows\SysWOW64\vccorlib140.?RegisterFactories@Details@Platform@@YGP$AAVObject@2@PAPAVModuleBase@1WRL@Microsoft@@PAPAU__abi_Module@@P6GXXZ@Z
  ?ReleaseInContextImpl@Details@Platform@@YGJPAUIUnknown@@0@Z=C:\Windows\SysWOW64\vccorlib140.?ReleaseInContextImpl@Details@Platform@@YGJPAUIUnknown@@0@Z
  ?ReleaseTarget@ControlBlock@Details@Platform@@AAEXXZ=C:\Windows\SysWOW64\vccorlib140.?ReleaseTarget@ControlBlock@Details@Platform@@AAEXXZ
  ?ResolveWeakReference@Details@Platform@@YGP$AAVObject@2@ABU_GUID@@PAPAU__abi_IUnknown@@@Z=C:\Windows\SysWOW64\vccorlib140.?ResolveWeakReference@Details@Platform@@YGP$AAVObject@2@ABU_GUID@@PAPAU__abi_IUnknown@@@Z
  ?RunApplicationServer@Details@Platform@@YGXPAPAVModuleBase@1WRL@Microsoft@@PAPAU__abi_Module@@PB_W@Z=C:\Windows\SysWOW64\vccorlib140.?RunApplicationServer@Details@Platform@@YGXPAPAVModuleBase@1WRL@Microsoft@@PAPAU__abi_Module@@PB_W@Z
  ?RunServer@Details@Platform@@YGXPAPAVModuleBase@1WRL@Microsoft@@PAPAU__abi_Module@@PB_W@Z=C:\Windows\SysWOW64\vccorlib140.?RunServer@Details@Platform@@YGXPAPAVModuleBase@1WRL@Microsoft@@PAPAU__abi_Module@@PB_W@Z
  ?TerminateModule@Details@Platform@@YG_NPAVModuleBase@1WRL@Microsoft@@@Z=C:\Windows\SysWOW64\vccorlib140.?TerminateModule@Details@Platform@@YG_NPAVModuleBase@1WRL@Microsoft@@@Z
  ?ToInt32@IntPtr@Platform@@QAAHXZ=C:\Windows\SysWOW64\vccorlib140.?ToInt32@IntPtr@Platform@@QAAHXZ
  ?ToString@Attribute@Metadata@Platform@@Q$AAAP$AAVString@3@XZ=C:\Windows\SysWOW64\vccorlib140.?ToString@Attribute@Metadata@Platform@@Q$AAAP$AAVString@3@XZ
  ?ToString@Boolean@Platform@@QAAP$AAVString@2@XZ=C:\Windows\SysWOW64\vccorlib140.?ToString@Boolean@Platform@@QAAP$AAVString@2@XZ
  ?ToString@Delegate@Platform@@Q$AAAP$AAVString@2@XZ=C:\Windows\SysWOW64\vccorlib140.?ToString@Delegate@Platform@@Q$AAAP$AAVString@2@XZ
  ?ToString@Enum@Platform@@Q$AAAP$AAVString@2@XZ=C:\Windows\SysWOW64\vccorlib140.?ToString@Enum@Platform@@Q$AAAP$AAVString@2@XZ
  ?ToString@Exception@Platform@@U$AAAP$AAVString@2@XZ=C:\Windows\SysWOW64\vccorlib140.?ToString@Exception@Platform@@U$AAAP$AAVString@2@XZ
  ?ToString@Guid@Platform@@QAAP$AAVString@2@XZ=C:\Windows\SysWOW64\vccorlib140.?ToString@Guid@Platform@@QAAP$AAVString@2@XZ
  ?ToString@MTAThreadAttribute@Platform@@Q$AAAP$AAVString@2@XZ=C:\Windows\SysWOW64\vccorlib140.?ToString@MTAThreadAttribute@Platform@@Q$AAAP$AAVString@2@XZ
  ?ToString@OnePhaseConstructedAttribute@CompilerServices@Runtime@Platform@@Q$AAAP$AAVString@4@XZ=C:\Windows\SysWOW64\vccorlib140.?ToString@OnePhaseConstructedAttribute@CompilerServices@Runtime@Platform@@Q$AAAP$AAVString@4@XZ
  ?ToString@STAThreadAttribute@Platform@@Q$AAAP$AAVString@2@XZ=C:\Windows\SysWOW64\vccorlib140.?ToString@STAThreadAttribute@Platform@@Q$AAAP$AAVString@2@XZ
  ?ToString@Type@Platform@@U$AAAP$AAVString@2@XZ=C:\Windows\SysWOW64\vccorlib140.?ToString@Type@Platform@@U$AAAP$AAVString@2@XZ
  ?ToString@ValueType@Platform@@Q$AAAP$AAVString@2@XZ=C:\Windows\SysWOW64\vccorlib140.?ToString@ValueType@Platform@@Q$AAAP$AAVString@2@XZ
  ?ToString@char16@default@@QAAP$AAVString@Platform@@XZ=C:\Windows\SysWOW64\vccorlib140.?ToString@char16@default@@QAAP$AAVString@Platform@@XZ
  ?ToString@float32@default@@QAAP$AAVString@Platform@@XZ=C:\Windows\SysWOW64\vccorlib140.?ToString@float32@default@@QAAP$AAVString@Platform@@XZ
  ?ToString@float64@default@@QAAP$AAVString@Platform@@XZ=C:\Windows\SysWOW64\vccorlib140.?ToString@float64@default@@QAAP$AAVString@Platform@@XZ
  ?ToString@int16@default@@QAAP$AAVString@Platform@@XZ=C:\Windows\SysWOW64\vccorlib140.?ToString@int16@default@@QAAP$AAVString@Platform@@XZ
  ?ToString@int32@default@@QAAP$AAVString@Platform@@XZ=C:\Windows\SysWOW64\vccorlib140.?ToString@int32@default@@QAAP$AAVString@Platform@@XZ
  ?ToString@int64@default@@QAAP$AAVString@Platform@@XZ=C:\Windows\SysWOW64\vccorlib140.?ToString@int64@default@@QAAP$AAVString@Platform@@XZ
  ?ToString@int8@default@@QAAP$AAVString@Platform@@XZ=C:\Windows\SysWOW64\vccorlib140.?ToString@int8@default@@QAAP$AAVString@Platform@@XZ
  ?ToString@uint16@default@@QAAP$AAVString@Platform@@XZ=C:\Windows\SysWOW64\vccorlib140.?ToString@uint16@default@@QAAP$AAVString@Platform@@XZ
  ?ToString@uint32@default@@QAAP$AAVString@Platform@@XZ=C:\Windows\SysWOW64\vccorlib140.?ToString@uint32@default@@QAAP$AAVString@Platform@@XZ
  ?ToString@uint64@default@@QAAP$AAVString@Platform@@XZ=C:\Windows\SysWOW64\vccorlib140.?ToString@uint64@default@@QAAP$AAVString@Platform@@XZ
  ?ToString@uint8@default@@QAAP$AAVString@Platform@@XZ=C:\Windows\SysWOW64\vccorlib140.?ToString@uint8@default@@QAAP$AAVString@Platform@@XZ
  ?UninitializeData@Details@Platform@@YAXH@Z=C:\Windows\SysWOW64\vccorlib140.?UninitializeData@Details@Platform@@YAXH@Z
  ?Union@Rect@Foundation@Windows@@QAAXV123@@Z=C:\Windows\SysWOW64\vccorlib140.?Union@Rect@Foundation@Windows@@QAAXV123@@Z
  ?Union@Rect@Foundation@Windows@@QAAXVPoint@23@@Z=C:\Windows\SysWOW64\vccorlib140.?Union@Rect@Foundation@Windows@@QAAXVPoint@23@@Z
  ?WriteLine@Console@Details@Platform@@SAXP$AAVObject@3@@Z=C:\Windows\SysWOW64\vccorlib140.?WriteLine@Console@Details@Platform@@SAXP$AAVObject@3@@Z
  ?WriteLine@Console@Details@Platform@@SAXP$AAVString@3@@Z=C:\Windows\SysWOW64\vccorlib140.?WriteLine@Console@Details@Platform@@SAXP$AAVString@3@@Z
  ?WriteLine@Console@Details@Platform@@SAXXZ=C:\Windows\SysWOW64\vccorlib140.?WriteLine@Console@Details@Platform@@SAXXZ
  ?__abi_FailFast@@YGXXZ=C:\Windows\SysWOW64\vccorlib140.?__abi_FailFast@@YGXXZ
  ?__abi_ObjectToString@__abi_details@@YGP$AAVString@Platform@@P$AAVObject@3@_N@Z=C:\Windows\SysWOW64\vccorlib140.?__abi_ObjectToString@__abi_details@@YGP$AAVString@Platform@@P$AAVObject@3@_N@Z
  ?__abi_Resolve@ControlBlock@Details@Platform@@UAGJAAVGuid@3@PAPAU__abi_IInspectable@@@Z=C:\Windows\SysWOW64\vccorlib140.?__abi_Resolve@ControlBlock@Details@Platform@@UAGJAAVGuid@3@PAPAU__abi_IInspectable@@@Z
  ?__abi_WinRTraiseAccessDeniedException@@YGXXZ=C:\Windows\SysWOW64\vccorlib140.?__abi_WinRTraiseAccessDeniedException@@YGXXZ
  ?__abi_WinRTraiseCOMException@@YGXJ@Z=C:\Windows\SysWOW64\vccorlib140.?__abi_WinRTraiseCOMException@@YGXJ@Z
  ?__abi_WinRTraiseChangedStateException@@YGXXZ=C:\Windows\SysWOW64\vccorlib140.?__abi_WinRTraiseChangedStateException@@YGXXZ
  ?__abi_WinRTraiseClassNotRegisteredException@@YGXXZ=C:\Windows\SysWOW64\vccorlib140.?__abi_WinRTraiseClassNotRegisteredException@@YGXXZ
  ?__abi_WinRTraiseDisconnectedException@@YGXXZ=C:\Windows\SysWOW64\vccorlib140.?__abi_WinRTraiseDisconnectedException@@YGXXZ
  ?__abi_WinRTraiseFailureException@@YGXXZ=C:\Windows\SysWOW64\vccorlib140.?__abi_WinRTraiseFailureException@@YGXXZ
  ?__abi_WinRTraiseInvalidArgumentException@@YGXXZ=C:\Windows\SysWOW64\vccorlib140.?__abi_WinRTraiseInvalidArgumentException@@YGXXZ
  ?__abi_WinRTraiseInvalidCastException@@YGXXZ=C:\Windows\SysWOW64\vccorlib140.?__abi_WinRTraiseInvalidCastException@@YGXXZ
  ?__abi_WinRTraiseNotImplementedException@@YGXXZ=C:\Windows\SysWOW64\vccorlib140.?__abi_WinRTraiseNotImplementedException@@YGXXZ
  ?__abi_WinRTraiseNullReferenceException@@YGXXZ=C:\Windows\SysWOW64\vccorlib140.?__abi_WinRTraiseNullReferenceException@@YGXXZ
  ?__abi_WinRTraiseObjectDisposedException@@YGXXZ=C:\Windows\SysWOW64\vccorlib140.?__abi_WinRTraiseObjectDisposedException@@YGXXZ
  ?__abi_WinRTraiseOperationCanceledException@@YGXXZ=C:\Windows\SysWOW64\vccorlib140.?__abi_WinRTraiseOperationCanceledException@@YGXXZ
  ?__abi_WinRTraiseOutOfBoundsException@@YGXXZ=C:\Windows\SysWOW64\vccorlib140.?__abi_WinRTraiseOutOfBoundsException@@YGXXZ
  ?__abi_WinRTraiseOutOfMemoryException@@YGXXZ=C:\Windows\SysWOW64\vccorlib140.?__abi_WinRTraiseOutOfMemoryException@@YGXXZ
  ?__abi_WinRTraiseWrongThreadException@@YGXXZ=C:\Windows\SysWOW64\vccorlib140.?__abi_WinRTraiseWrongThreadException@@YGXXZ
  ?__abi_cast_Object_to_String@__abi_details@@YGP$AAVString@Platform@@_NP$AAVObject@3@@Z=C:\Windows\SysWOW64\vccorlib140.?__abi_cast_Object_to_String@__abi_details@@YGP$AAVString@Platform@@_NP$AAVObject@3@@Z
  ?__abi_cast_String_to_Object@__abi_details@@YGP$AAVObject@Platform@@P$AAVString@3@@Z=C:\Windows\SysWOW64\vccorlib140.?__abi_cast_String_to_Object@__abi_details@@YGP$AAVObject@Platform@@P$AAVString@3@@Z
  ?__abi_make_type_id@@YGP$AAVType@Platform@@ABU__abi_type_descriptor@@@Z=C:\Windows\SysWOW64\vccorlib140.?__abi_make_type_id@@YGP$AAVType@Platform@@ABU__abi_type_descriptor@@@Z
  ?__abi_translateCurrentException@@YGJ_N@Z=C:\Windows\SysWOW64\vccorlib140.?__abi_translateCurrentException@@YGJ_N@Z
  ?__getActivationFactoryByHSTRING@@YGJPAUHSTRING__@@AAVGuid@Platform@@PAPAX@Z=C:\Windows\SysWOW64\vccorlib140.?__getActivationFactoryByHSTRING@@YGJPAUHSTRING__@@AAVGuid@Platform@@PAPAX@Z
  ?get@Bottom@Rect@Foundation@Windows@@QAAMXZ=C:\Windows\SysWOW64\vccorlib140.?get@Bottom@Rect@Foundation@Windows@@QAAMXZ
  ?get@BreakOnAllocationId@Heap@Details@Platform@@SAHXZ=C:\Windows\SysWOW64\vccorlib140.?get@BreakOnAllocationId@Heap@Details@Platform@@SAHXZ
  ?get@BreakOnFreeId@Heap@Details@Platform@@SAHXZ=C:\Windows\SysWOW64\vccorlib140.?get@BreakOnFreeId@Heap@Details@Platform@@SAHXZ
  ?get@CurrentAllocationId@Heap@Details@Platform@@SAHXZ=C:\Windows\SysWOW64\vccorlib140.?get@CurrentAllocationId@Heap@Details@Platform@@SAHXZ
  ?get@Empty@Rect@Foundation@Windows@@SA?AV234@XZ=C:\Windows\SysWOW64\vccorlib140.?get@Empty@Rect@Foundation@Windows@@SA?AV234@XZ
  ?get@Empty@Size@Foundation@Windows@@SA?AV234@XZ=C:\Windows\SysWOW64\vccorlib140.?get@Empty@Size@Foundation@Windows@@SA?AV234@XZ
  ?get@FullName@Type@Platform@@Q$AAAP$AAVString@3@XZ=C:\Windows\SysWOW64\vccorlib140.?get@FullName@Type@Platform@@Q$AAAP$AAVString@3@XZ
  ?get@HasInverse@Matrix3D@Media3D@Media@Xaml@UI@Windows@@QAA_NXZ=C:\Windows\SysWOW64\vccorlib140.?get@HasInverse@Matrix3D@Media3D@Media@Xaml@UI@Windows@@QAA_NXZ
  ?get@Message@Exception@Platform@@Q$AAAP$AAVString@3@XZ=C:\Windows\SysWOW64\vccorlib140.?get@Message@Exception@Platform@@Q$AAAP$AAVString@3@XZ
  ?get@ObjectCount@Heap@Details@Platform@@SAHXZ=C:\Windows\SysWOW64\vccorlib140.?get@ObjectCount@Heap@Details@Platform@@SAHXZ
  ?get@Right@Rect@Foundation@Windows@@QAAMXZ=C:\Windows\SysWOW64\vccorlib140.?get@Right@Rect@Foundation@Windows@@QAAMXZ
  ?get@TrackingLevel@Heap@Details@Platform@@SA?AW4HeapAllocationTrackingLevel@34@XZ=C:\Windows\SysWOW64\vccorlib140.?get@TrackingLevel@Heap@Details@Platform@@SA?AW4HeapAllocationTrackingLevel@34@XZ
  ?set@BreakOnAllocationId@Heap@Details@Platform@@SAXH@Z=C:\Windows\SysWOW64\vccorlib140.?set@BreakOnAllocationId@Heap@Details@Platform@@SAXH@Z
  ?set@BreakOnFreeId@Heap@Details@Platform@@SAXH@Z=C:\Windows\SysWOW64\vccorlib140.?set@BreakOnFreeId@Heap@Details@Platform@@SAXH@Z
  ?set@TrackingLevel@Heap@Details@Platform@@SAXW4HeapAllocationTrackingLevel@34@@Z=C:\Windows\SysWOW64\vccorlib140.?set@TrackingLevel@Heap@Details@Platform@@SAXW4HeapAllocationTrackingLevel@34@@Z
