EXPORTS
  ??0?$CLockableFlexArray@VCStaticCritSec@@@@QAE@$$QAV0@@Z=C:\Windows\SysWOW64\wbemcomn.??0?$CLockableFlexArray@VCStaticCritSec@@@@QAE@$$QAV0@@Z
  ??0?$CLockableFlexArray@VCStaticCritSec@@@@QAE@AAV0@@Z=C:\Windows\SysWOW64\wbemcomn.??0?$CLockableFlexArray@VCStaticCritSec@@@@QAE@AAV0@@Z
  ??0?$CLockableFlexArray@VCStaticCritSec@@@@QAE@XZ=C:\Windows\SysWOW64\wbemcomn.??0?$CLockableFlexArray@VCStaticCritSec@@@@QAE@XZ
  ??0?$SZLess@PBG@@QAE@ABU0@@Z=C:\Windows\SysWOW64\wbemcomn.??0?$SZLess@PBG@@QAE@ABU0@@Z
  ??0?$SZLess@PBG@@QAE@XZ=C:\Windows\SysWOW64\wbemcomn.??0?$SZLess@PBG@@QAE@XZ
  ??0C9XAce@@QAE@ABV0@@Z=C:\Windows\SysWOW64\wbemcomn.??0C9XAce@@QAE@ABV0@@Z
  ??0C9XAce@@QAE@KKKPAG@Z=C:\Windows\SysWOW64\wbemcomn.??0C9XAce@@QAE@KKKPAG@Z
  ??0C9XAce@@QAE@XZ=C:\Windows\SysWOW64\wbemcomn.??0C9XAce@@QAE@XZ
  ??0CAbstractQl1Parser@@QAE@ABV0@@Z=C:\Windows\SysWOW64\wbemcomn.??0CAbstractQl1Parser@@QAE@ABV0@@Z
  ??0CAbstractQl1Parser@@QAE@PAVCGenLexSource@@@Z=C:\Windows\SysWOW64\wbemcomn.??0CAbstractQl1Parser@@QAE@PAVCGenLexSource@@@Z
  ??0CArena@@QAE@$$QAV0@@Z=C:\Windows\SysWOW64\wbemcomn.??0CArena@@QAE@$$QAV0@@Z
  ??0CArena@@QAE@ABV0@@Z=C:\Windows\SysWOW64\wbemcomn.??0CArena@@QAE@ABV0@@Z
  ??0CArena@@QAE@XZ=C:\Windows\SysWOW64\wbemcomn.??0CArena@@QAE@XZ
  ??0CBaseAce@@QAE@ABV0@@Z=C:\Windows\SysWOW64\wbemcomn.??0CBaseAce@@QAE@ABV0@@Z
  ??0CBaseAce@@QAE@XZ=C:\Windows\SysWOW64\wbemcomn.??0CBaseAce@@QAE@XZ
  ??0CBasicUnloadInstruction@@IAE@XZ=C:\Windows\SysWOW64\wbemcomn.??0CBasicUnloadInstruction@@IAE@XZ
  ??0CBasicUnloadInstruction@@QAE@ABV0@@Z=C:\Windows\SysWOW64\wbemcomn.??0CBasicUnloadInstruction@@QAE@ABV0@@Z
  ??0CBasicUnloadInstruction@@QAE@VCWbemInterval@@@Z=C:\Windows\SysWOW64\wbemcomn.??0CBasicUnloadInstruction@@QAE@VCWbemInterval@@@Z
  ??0CBuffer@@QAE@ABV0@@Z=C:\Windows\SysWOW64\wbemcomn.??0CBuffer@@QAE@ABV0@@Z
  ??0CBuffer@@QAE@PAEKH@Z=C:\Windows\SysWOW64\wbemcomn.??0CBuffer@@QAE@PAEKH@Z
  ??0CCheckedInCritSec@@QAE@PAVCCritSec@@@Z=C:\Windows\SysWOW64\wbemcomn.??0CCheckedInCritSec@@QAE@PAVCCritSec@@@Z
  ??0CCircularQueue@@QAE@XZ=C:\Windows\SysWOW64\wbemcomn.??0CCircularQueue@@QAE@XZ
  ??0CClientOpsNode@@QAE@XZ=C:\Windows\SysWOW64\wbemcomn.??0CClientOpsNode@@QAE@XZ
  ??0CContainerControl@@QAE@$$QAV0@@Z=C:\Windows\SysWOW64\wbemcomn.??0CContainerControl@@QAE@$$QAV0@@Z
  ??0CContainerControl@@QAE@ABV0@@Z=C:\Windows\SysWOW64\wbemcomn.??0CContainerControl@@QAE@ABV0@@Z
  ??0CContainerControl@@QAE@PAUIUnknown@@@Z=C:\Windows\SysWOW64\wbemcomn.??0CContainerControl@@QAE@PAUIUnknown@@@Z
  ??0CCritSec@@QAE@XZ=C:\Windows\SysWOW64\wbemcomn.??0CCritSec@@QAE@XZ
  ??0CDMTFParser@@QAE@PBG@Z=C:\Windows\SysWOW64\wbemcomn.??0CDMTFParser@@QAE@PBG@Z
  ??0CDatePart@@QAE@XZ=C:\Windows\SysWOW64\wbemcomn.??0CDatePart@@QAE@XZ
  ??0CDateTimeParser@@IAE@XZ=C:\Windows\SysWOW64\wbemcomn.??0CDateTimeParser@@IAE@XZ
  ??0CDateTimeParser@@QAE@PBG@Z=C:\Windows\SysWOW64\wbemcomn.??0CDateTimeParser@@QAE@PBG@Z
  ??0CEnterWbemCriticalSection@@QAE@PAVCWbemCriticalSection@@K@Z=C:\Windows\SysWOW64\wbemcomn.??0CEnterWbemCriticalSection@@QAE@PAVCWbemCriticalSection@@K@Z
  ??0CEventLog@@QAE@ABV0@@Z=C:\Windows\SysWOW64\wbemcomn.??0CEventLog@@QAE@ABV0@@Z
  ??0CEventLog@@QAE@PBGABU_GUID@@K@Z=C:\Windows\SysWOW64\wbemcomn.??0CEventLog@@QAE@PBGABU_GUID@@K@Z
  ??0CEventLogRecord@@QAE@AAV0@@Z=C:\Windows\SysWOW64\wbemcomn.??0CEventLogRecord@@QAE@AAV0@@Z
  ??0CEventLogRecord@@QAE@GABU_EVENT_DESCRIPTOR@@VCInsertionString@@111111111@Z=C:\Windows\SysWOW64\wbemcomn.??0CEventLogRecord@@QAE@GABU_EVENT_DESCRIPTOR@@VCInsertionString@@111111111@Z
  ??0CExecQueue@@QAE@AAV0@@Z=C:\Windows\SysWOW64\wbemcomn.??0CExecQueue@@QAE@AAV0@@Z
  ??0CExecQueue@@QAE@XZ=C:\Windows\SysWOW64\wbemcomn.??0CExecQueue@@QAE@XZ
  ??0CExecRequest@@QAE@ABV0@@Z=C:\Windows\SysWOW64\wbemcomn.??0CExecRequest@@QAE@ABV0@@Z
  ??0CExecRequest@@QAE@XZ=C:\Windows\SysWOW64\wbemcomn.??0CExecRequest@@QAE@XZ
  ??0CFlexArray@@QAE@AAV0@@Z=C:\Windows\SysWOW64\wbemcomn.??0CFlexArray@@QAE@AAV0@@Z
  ??0CFlexArray@@QAE@HH@Z=C:\Windows\SysWOW64\wbemcomn.??0CFlexArray@@QAE@HH@Z
  ??0CFlexQueue@@QAE@H@Z=C:\Windows\SysWOW64\wbemcomn.??0CFlexQueue@@QAE@H@Z
  ??0CHaltable@@QAE@ABV0@@Z=C:\Windows\SysWOW64\wbemcomn.??0CHaltable@@QAE@ABV0@@Z
  ??0CHaltable@@QAE@XZ=C:\Windows\SysWOW64\wbemcomn.??0CHaltable@@QAE@XZ
  ??0CHex@@QAE@J@Z=C:\Windows\SysWOW64\wbemcomn.??0CHex@@QAE@J@Z
  ??0CIdentitySecurity@@QAE@ABV0@@Z=C:\Windows\SysWOW64\wbemcomn.??0CIdentitySecurity@@QAE@ABV0@@Z
  ??0CIdentitySecurity@@QAE@_N@Z=C:\Windows\SysWOW64\wbemcomn.??0CIdentitySecurity@@QAE@_N@Z
  ??0CIdentityTest@@QAE@ABV0@@Z=C:\Windows\SysWOW64\wbemcomn.??0CIdentityTest@@QAE@ABV0@@Z
  ??0CIdentityTest@@QAE@PAVCTimerInstruction@@@Z=C:\Windows\SysWOW64\wbemcomn.??0CIdentityTest@@QAE@PAVCTimerInstruction@@@Z
  ??0CInCritSec@@QAE@PAU_RTL_CRITICAL_SECTION@@@Z=C:\Windows\SysWOW64\wbemcomn.??0CInCritSec@@QAE@PAU_RTL_CRITICAL_SECTION@@@Z
  ??0CInsertionString@@QAE@$$QAV0@@Z=C:\Windows\SysWOW64\wbemcomn.??0CInsertionString@@QAE@$$QAV0@@Z
  ??0CInsertionString@@QAE@ABV0@@Z=C:\Windows\SysWOW64\wbemcomn.??0CInsertionString@@QAE@ABV0@@Z
  ??0CInsertionString@@QAE@J@Z=C:\Windows\SysWOW64\wbemcomn.??0CInsertionString@@QAE@J@Z
  ??0CInsertionString@@QAE@PBD@Z=C:\Windows\SysWOW64\wbemcomn.??0CInsertionString@@QAE@PBD@Z
  ??0CInsertionString@@QAE@PBG@Z=C:\Windows\SysWOW64\wbemcomn.??0CInsertionString@@QAE@PBG@Z
  ??0CInsertionString@@QAE@VCHex@@@Z=C:\Windows\SysWOW64\wbemcomn.??0CInsertionString@@QAE@VCHex@@@Z
  ??0CInsertionString@@QAE@XZ=C:\Windows\SysWOW64\wbemcomn.??0CInsertionString@@QAE@XZ
  ??0CInstructionQueue@@QAE@XZ=C:\Windows\SysWOW64\wbemcomn.??0CInstructionQueue@@QAE@XZ
  ??0CInstructionTest@@QAE@$$QAV0@@Z=C:\Windows\SysWOW64\wbemcomn.??0CInstructionTest@@QAE@$$QAV0@@Z
  ??0CInstructionTest@@QAE@ABV0@@Z=C:\Windows\SysWOW64\wbemcomn.??0CInstructionTest@@QAE@ABV0@@Z
  ??0CInstructionTest@@QAE@XZ=C:\Windows\SysWOW64\wbemcomn.??0CInstructionTest@@QAE@XZ
  ??0CLifeControl@@QAE@$$QAV0@@Z=C:\Windows\SysWOW64\wbemcomn.??0CLifeControl@@QAE@$$QAV0@@Z
  ??0CLifeControl@@QAE@ABV0@@Z=C:\Windows\SysWOW64\wbemcomn.??0CLifeControl@@QAE@ABV0@@Z
  ??0CLifeControl@@QAE@XZ=C:\Windows\SysWOW64\wbemcomn.??0CLifeControl@@QAE@XZ
  ??0CLike@@QAE@ABV0@@Z=C:\Windows\SysWOW64\wbemcomn.??0CLike@@QAE@ABV0@@Z
  ??0CLike@@QAE@PBGG@Z=C:\Windows\SysWOW64\wbemcomn.??0CLike@@QAE@PBGG@Z
  ??0CLike@@QAE@XZ=C:\Windows\SysWOW64\wbemcomn.??0CLike@@QAE@XZ
  ??0CLimitControl@@QAE@ABV0@@Z=C:\Windows\SysWOW64\wbemcomn.??0CLimitControl@@QAE@ABV0@@Z
  ??0CLimitControl@@QAE@XZ=C:\Windows\SysWOW64\wbemcomn.??0CLimitControl@@QAE@XZ
  ??0CMRCICompression@@QAE@XZ=C:\Windows\SysWOW64\wbemcomn.??0CMRCICompression@@QAE@XZ
  ??0CMRCIControl@@QAE@XZ=C:\Windows\SysWOW64\wbemcomn.??0CMRCIControl@@QAE@XZ
  ??0CMUILocaleList@@QAE@XZ=C:\Windows\SysWOW64\wbemcomn.??0CMUILocaleList@@QAE@XZ
  ??0CMemoryLog@@QAE@XZ=C:\Windows\SysWOW64\wbemcomn.??0CMemoryLog@@QAE@XZ
  ??0CMinMaxLimitControl@@QAE@$$QAV0@@Z=C:\Windows\SysWOW64\wbemcomn.??0CMinMaxLimitControl@@QAE@$$QAV0@@Z
  ??0CMinMaxLimitControl@@QAE@ABV0@@Z=C:\Windows\SysWOW64\wbemcomn.??0CMinMaxLimitControl@@QAE@ABV0@@Z
  ??0CMinMaxLimitControl@@QAE@HPBG@Z=C:\Windows\SysWOW64\wbemcomn.??0CMinMaxLimitControl@@QAE@HPBG@Z
  ??0CNtAce@@QAE@ABV0@@Z=C:\Windows\SysWOW64\wbemcomn.??0CNtAce@@QAE@ABV0@@Z
  ??0CNtAce@@QAE@KKKAAVCNtSid@@@Z=C:\Windows\SysWOW64\wbemcomn.??0CNtAce@@QAE@KKKAAVCNtSid@@@Z
  ??0CNtAce@@QAE@KKKPAG@Z=C:\Windows\SysWOW64\wbemcomn.??0CNtAce@@QAE@KKKPAG@Z
  ??0CNtAce@@QAE@PAU_ACCESS_ALLOWED_ACE@@@Z=C:\Windows\SysWOW64\wbemcomn.??0CNtAce@@QAE@PAU_ACCESS_ALLOWED_ACE@@@Z
  ??0CNtAce@@QAE@XZ=C:\Windows\SysWOW64\wbemcomn.??0CNtAce@@QAE@XZ
  ??0CNtAcl@@QAE@ABV0@@Z=C:\Windows\SysWOW64\wbemcomn.??0CNtAcl@@QAE@ABV0@@Z
  ??0CNtAcl@@QAE@K@Z=C:\Windows\SysWOW64\wbemcomn.??0CNtAcl@@QAE@K@Z
  ??0CNtAcl@@QAE@PAU_ACL@@@Z=C:\Windows\SysWOW64\wbemcomn.??0CNtAcl@@QAE@PAU_ACL@@@Z
  ??0CNtSecurityDescriptor@@QAE@AAV0@@Z=C:\Windows\SysWOW64\wbemcomn.??0CNtSecurityDescriptor@@QAE@AAV0@@Z
  ??0CNtSecurityDescriptor@@QAE@PAX@Z=C:\Windows\SysWOW64\wbemcomn.??0CNtSecurityDescriptor@@QAE@PAX@Z
  ??0CNtSecurityDescriptor@@QAE@XZ=C:\Windows\SysWOW64\wbemcomn.??0CNtSecurityDescriptor@@QAE@XZ
  ??0CNtSid@@QAE@ABV0@@Z=C:\Windows\SysWOW64\wbemcomn.??0CNtSid@@QAE@ABV0@@Z
  ??0CNtSid@@QAE@PAG@Z=C:\Windows\SysWOW64\wbemcomn.??0CNtSid@@QAE@PAG@Z
  ??0CNtSid@@QAE@PAX@Z=C:\Windows\SysWOW64\wbemcomn.??0CNtSid@@QAE@PAX@Z
  ??0CNtSid@@QAE@W4SidType@0@@Z=C:\Windows\SysWOW64\wbemcomn.??0CNtSid@@QAE@W4SidType@0@@Z
  ??0CNtSid@@QAE@XZ=C:\Windows\SysWOW64\wbemcomn.??0CNtSid@@QAE@XZ
  ??0CPropertyName@@QAE@ABV0@@Z=C:\Windows\SysWOW64\wbemcomn.??0CPropertyName@@QAE@ABV0@@Z
  ??0CPropertyName@@QAE@XZ=C:\Windows\SysWOW64\wbemcomn.??0CPropertyName@@QAE@XZ
  ??0CQl1ParseSink@@QAE@$$QAV0@@Z=C:\Windows\SysWOW64\wbemcomn.??0CQl1ParseSink@@QAE@$$QAV0@@Z
  ??0CQl1ParseSink@@QAE@ABV0@@Z=C:\Windows\SysWOW64\wbemcomn.??0CQl1ParseSink@@QAE@ABV0@@Z
  ??0CQl1ParseSink@@QAE@XZ=C:\Windows\SysWOW64\wbemcomn.??0CQl1ParseSink@@QAE@XZ
  ??0CRegistryMinMaxLimitControl@@QAE@$$QAV0@@Z=C:\Windows\SysWOW64\wbemcomn.??0CRegistryMinMaxLimitControl@@QAE@$$QAV0@@Z
  ??0CRegistryMinMaxLimitControl@@QAE@ABV0@@Z=C:\Windows\SysWOW64\wbemcomn.??0CRegistryMinMaxLimitControl@@QAE@ABV0@@Z
  ??0CRegistryMinMaxLimitControl@@QAE@HPBG0000@Z=C:\Windows\SysWOW64\wbemcomn.??0CRegistryMinMaxLimitControl@@QAE@HPBG0000@Z
  ??0CSafeArray@@QAE@AAV0@@Z=C:\Windows\SysWOW64\wbemcomn.??0CSafeArray@@QAE@AAV0@@Z
  ??0CSafeArray@@QAE@HHHH@Z=C:\Windows\SysWOW64\wbemcomn.??0CSafeArray@@QAE@HHHH@Z
  ??0CSafeArray@@QAE@PAUtagSAFEARRAY@@HHH@Z=C:\Windows\SysWOW64\wbemcomn.??0CSafeArray@@QAE@PAUtagSAFEARRAY@@HHH@Z
  ??0CStaticCritSec@@QAE@XZ=C:\Windows\SysWOW64\wbemcomn.??0CStaticCritSec@@QAE@XZ
  ??0CTextTemplate@@QAE@ABV0@@Z=C:\Windows\SysWOW64\wbemcomn.??0CTextTemplate@@QAE@ABV0@@Z
  ??0CTextTemplate@@QAE@PBG@Z=C:\Windows\SysWOW64\wbemcomn.??0CTextTemplate@@QAE@PBG@Z
  ??0CTimerGenerator@@QAE@ABV0@@Z=C:\Windows\SysWOW64\wbemcomn.??0CTimerGenerator@@QAE@ABV0@@Z
  ??0CTimerGenerator@@QAE@XZ=C:\Windows\SysWOW64\wbemcomn.??0CTimerGenerator@@QAE@XZ
  ??0CTimerInstruction@@QAE@ABV0@@Z=C:\Windows\SysWOW64\wbemcomn.??0CTimerInstruction@@QAE@ABV0@@Z
  ??0CTimerInstruction@@QAE@XZ=C:\Windows\SysWOW64\wbemcomn.??0CTimerInstruction@@QAE@XZ
  ??0CTraceSessionControl@@QAE@XZ=C:\Windows\SysWOW64\wbemcomn.??0CTraceSessionControl@@QAE@XZ
  ??0CUnk@@QAE@ABV0@@Z=C:\Windows\SysWOW64\wbemcomn.??0CUnk@@QAE@ABV0@@Z
  ??0CUnk@@QAE@PAVCLifeControl@@PAUIUnknown@@@Z=C:\Windows\SysWOW64\wbemcomn.??0CUnk@@QAE@PAVCLifeControl@@PAUIUnknown@@@Z
  ??0CUnkInternal@@QAE@ABV0@@Z=C:\Windows\SysWOW64\wbemcomn.??0CUnkInternal@@QAE@ABV0@@Z
  ??0CUnkInternal@@QAE@PAVCLifeControl@@@Z=C:\Windows\SysWOW64\wbemcomn.??0CUnkInternal@@QAE@PAVCLifeControl@@@Z
  ??0CVar@@QAE@ABV0@@Z=C:\Windows\SysWOW64\wbemcomn.??0CVar@@QAE@ABV0@@Z
  ??0CVar@@QAE@D@Z=C:\Windows\SysWOW64\wbemcomn.??0CVar@@QAE@D@Z
  ??0CVar@@QAE@E@Z=C:\Windows\SysWOW64\wbemcomn.??0CVar@@QAE@E@Z
  ??0CVar@@QAE@F@Z=C:\Windows\SysWOW64\wbemcomn.??0CVar@@QAE@F@Z
  ??0CVar@@QAE@FH@Z=C:\Windows\SysWOW64\wbemcomn.??0CVar@@QAE@FH@Z
  ??0CVar@@QAE@G@Z=C:\Windows\SysWOW64\wbemcomn.??0CVar@@QAE@G@Z
  ??0CVar@@QAE@HPAG@Z=C:\Windows\SysWOW64\wbemcomn.??0CVar@@QAE@HPAG@Z
  ??0CVar@@QAE@HPAUtagSAFEARRAY@@@Z=C:\Windows\SysWOW64\wbemcomn.??0CVar@@QAE@HPAUtagSAFEARRAY@@@Z
  ??0CVar@@QAE@HVauto_bstr@@@Z=C:\Windows\SysWOW64\wbemcomn.??0CVar@@QAE@HVauto_bstr@@@Z
  ??0CVar@@QAE@J@Z=C:\Windows\SysWOW64\wbemcomn.??0CVar@@QAE@J@Z
  ??0CVar@@QAE@K@Z=C:\Windows\SysWOW64\wbemcomn.??0CVar@@QAE@K@Z
  ??0CVar@@QAE@M@Z=C:\Windows\SysWOW64\wbemcomn.??0CVar@@QAE@M@Z
  ??0CVar@@QAE@N@Z=C:\Windows\SysWOW64\wbemcomn.??0CVar@@QAE@N@Z
  ??0CVar@@QAE@PADH@Z=C:\Windows\SysWOW64\wbemcomn.??0CVar@@QAE@PADH@Z
  ??0CVar@@QAE@PAGH@Z=C:\Windows\SysWOW64\wbemcomn.??0CVar@@QAE@PAGH@Z
  ??0CVar@@QAE@PAU_FILETIME@@@Z=C:\Windows\SysWOW64\wbemcomn.??0CVar@@QAE@PAU_FILETIME@@@Z
  ??0CVar@@QAE@PAU_GUID@@H@Z=C:\Windows\SysWOW64\wbemcomn.??0CVar@@QAE@PAU_GUID@@H@Z
  ??0CVar@@QAE@PAUtagBLOB@@H@Z=C:\Windows\SysWOW64\wbemcomn.??0CVar@@QAE@PAUtagBLOB@@H@Z
  ??0CVar@@QAE@PAUtagVARIANT@@@Z=C:\Windows\SysWOW64\wbemcomn.??0CVar@@QAE@PAUtagVARIANT@@@Z
  ??0CVar@@QAE@PAVCVarVector@@H@Z=C:\Windows\SysWOW64\wbemcomn.??0CVar@@QAE@PAVCVarVector@@H@Z
  ??0CVar@@QAE@XZ=C:\Windows\SysWOW64\wbemcomn.??0CVar@@QAE@XZ
  ??0CVarVector@@QAE@AAV0@@Z=C:\Windows\SysWOW64\wbemcomn.??0CVarVector@@QAE@AAV0@@Z
  ??0CVarVector@@QAE@HHH@Z=C:\Windows\SysWOW64\wbemcomn.??0CVarVector@@QAE@HHH@Z
  ??0CVarVector@@QAE@HPAUtagSAFEARRAY@@H@Z=C:\Windows\SysWOW64\wbemcomn.??0CVarVector@@QAE@HPAUtagSAFEARRAY@@H@Z
  ??0CVarVector@@QAE@XZ=C:\Windows\SysWOW64\wbemcomn.??0CVarVector@@QAE@XZ
  ??0CWMITraceSettings@@QAE@XZ=C:\Windows\SysWOW64\wbemcomn.??0CWMITraceSettings@@QAE@XZ
  ??0CWQLScanner@@QAE@AAV0@@Z=C:\Windows\SysWOW64\wbemcomn.??0CWQLScanner@@QAE@AAV0@@Z
  ??0CWQLScanner@@QAE@PAVCGenLexSource@@@Z=C:\Windows\SysWOW64\wbemcomn.??0CWQLScanner@@QAE@PAVCGenLexSource@@@Z
  ??0CWStringArray@@QAE@AAV0@@Z=C:\Windows\SysWOW64\wbemcomn.??0CWStringArray@@QAE@AAV0@@Z
  ??0CWStringArray@@QAE@HH@Z=C:\Windows\SysWOW64\wbemcomn.??0CWStringArray@@QAE@HH@Z
  ??0CWbemCallSecurity@@AAE@ABV0@@Z=C:\Windows\SysWOW64\wbemcomn.??0CWbemCallSecurity@@AAE@ABV0@@Z
  ??0CWbemCallSecurity@@AAE@XZ=C:\Windows\SysWOW64\wbemcomn.??0CWbemCallSecurity@@AAE@XZ
  ??0CWbemCriticalSection@@QAE@XZ=C:\Windows\SysWOW64\wbemcomn.??0CWbemCriticalSection@@QAE@XZ
  ??0CWbemInstallObject@@QAE@XZ=C:\Windows\SysWOW64\wbemcomn.??0CWbemInstallObject@@QAE@XZ
  ??0CWbemInterval@@IAE@K@Z=C:\Windows\SysWOW64\wbemcomn.??0CWbemInterval@@IAE@K@Z
  ??0CWbemInterval@@QAE@XZ=C:\Windows\SysWOW64\wbemcomn.??0CWbemInterval@@QAE@XZ
  ??0CWbemTime@@IAE@_J@Z=C:\Windows\SysWOW64\wbemcomn.??0CWbemTime@@IAE@_J@Z
  ??0CWbemTime@@QAE@ABV0@@Z=C:\Windows\SysWOW64\wbemcomn.??0CWbemTime@@QAE@ABV0@@Z
  ??0CWbemTime@@QAE@XZ=C:\Windows\SysWOW64\wbemcomn.??0CWbemTime@@QAE@XZ
  ??0CWbemTimeSpan@@QAE@HHHHHHH@Z=C:\Windows\SysWOW64\wbemcomn.??0CWbemTimeSpan@@QAE@HHHHHHH@Z
  ??0CWin32DefaultArena@@QAE@ABV0@@Z=C:\Windows\SysWOW64\wbemcomn.??0CWin32DefaultArena@@QAE@ABV0@@Z
  ??0CWin32DefaultArena@@QAE@XZ=C:\Windows\SysWOW64\wbemcomn.??0CWin32DefaultArena@@QAE@XZ
  ??0QL1_Parser@@QAE@ABV0@@Z=C:\Windows\SysWOW64\wbemcomn.??0QL1_Parser@@QAE@ABV0@@Z
  ??0QL1_Parser@@QAE@PAVCGenLexSource@@@Z=C:\Windows\SysWOW64\wbemcomn.??0QL1_Parser@@QAE@PAVCGenLexSource@@@Z
  ??0QL_LEVEL_1_RPN_EXPRESSION@@QAE@ABU0@@Z=C:\Windows\SysWOW64\wbemcomn.??0QL_LEVEL_1_RPN_EXPRESSION@@QAE@ABU0@@Z
  ??0QL_LEVEL_1_RPN_EXPRESSION@@QAE@XZ=C:\Windows\SysWOW64\wbemcomn.??0QL_LEVEL_1_RPN_EXPRESSION@@QAE@XZ
  ??0QL_LEVEL_1_TOKEN@@QAE@ABU0@@Z=C:\Windows\SysWOW64\wbemcomn.??0QL_LEVEL_1_TOKEN@@QAE@ABU0@@Z
  ??0QL_LEVEL_1_TOKEN@@QAE@XZ=C:\Windows\SysWOW64\wbemcomn.??0QL_LEVEL_1_TOKEN@@QAE@XZ
  ??0Registry@@QAE@PAUHKEY__@@KKPBG@Z=C:\Windows\SysWOW64\wbemcomn.??0Registry@@QAE@PAUHKEY__@@KKPBG@Z
  ??0Registry@@QAE@PAUHKEY__@@KPBG@Z=C:\Windows\SysWOW64\wbemcomn.??0Registry@@QAE@PAUHKEY__@@KPBG@Z
  ??0Registry@@QAE@PBGK@Z=C:\Windows\SysWOW64\wbemcomn.??0Registry@@QAE@PBGK@Z
  ??0Registry@@QAE@XZ=C:\Windows\SysWOW64\wbemcomn.??0Registry@@QAE@XZ
  ??0WString2@@QAE@ABV0@@Z=C:\Windows\SysWOW64\wbemcomn.??0WString2@@QAE@ABV0@@Z
  ??0WString2@@QAE@I@Z=C:\Windows\SysWOW64\wbemcomn.??0WString2@@QAE@I@Z
  ??0WString2@@QAE@KPAUHINSTANCE__@@@Z=C:\Windows\SysWOW64\wbemcomn.??0WString2@@QAE@KPAUHINSTANCE__@@@Z
  ??0WString2@@QAE@PAGH@Z=C:\Windows\SysWOW64\wbemcomn.??0WString2@@QAE@PAGH@Z
  ??0WString2@@QAE@PBD@Z=C:\Windows\SysWOW64\wbemcomn.??0WString2@@QAE@PBD@Z
  ??0WString2@@QAE@PBG@Z=C:\Windows\SysWOW64\wbemcomn.??0WString2@@QAE@PBG@Z
  ??0WString2@@QAE@XZ=C:\Windows\SysWOW64\wbemcomn.??0WString2@@QAE@XZ
  ??0WString@@QAE@ABV0@@Z=C:\Windows\SysWOW64\wbemcomn.??0WString@@QAE@ABV0@@Z
  ??0WString@@QAE@KPAUHINSTANCE__@@@Z=C:\Windows\SysWOW64\wbemcomn.??0WString@@QAE@KPAUHINSTANCE__@@@Z
  ??0WString@@QAE@PAGH@Z=C:\Windows\SysWOW64\wbemcomn.??0WString@@QAE@PAGH@Z
  ??0WString@@QAE@PBD@Z=C:\Windows\SysWOW64\wbemcomn.??0WString@@QAE@PBD@Z
  ??0WString@@QAE@PBG@Z=C:\Windows\SysWOW64\wbemcomn.??0WString@@QAE@PBG@Z
  ??0WString@@QAE@XZ=C:\Windows\SysWOW64\wbemcomn.??0WString@@QAE@XZ
  ??1?$CLockableFlexArray@VCStaticCritSec@@@@QAE@XZ=C:\Windows\SysWOW64\wbemcomn.??1?$CLockableFlexArray@VCStaticCritSec@@@@QAE@XZ
  ??1?$SZLess@PBG@@UAE@XZ=C:\Windows\SysWOW64\wbemcomn.??1?$SZLess@PBG@@UAE@XZ
  ??1C9XAce@@UAE@XZ=C:\Windows\SysWOW64\wbemcomn.??1C9XAce@@UAE@XZ
  ??1CAbstractQl1Parser@@UAE@XZ=C:\Windows\SysWOW64\wbemcomn.??1CAbstractQl1Parser@@UAE@XZ
  ??1CBaseAce@@UAE@XZ=C:\Windows\SysWOW64\wbemcomn.??1CBaseAce@@UAE@XZ
  ??1CBasicUnloadInstruction@@UAE@XZ=C:\Windows\SysWOW64\wbemcomn.??1CBasicUnloadInstruction@@UAE@XZ
  ??1CBuffer@@QAE@XZ=C:\Windows\SysWOW64\wbemcomn.??1CBuffer@@QAE@XZ
  ??1CCheckedInCritSec@@QAE@XZ=C:\Windows\SysWOW64\wbemcomn.??1CCheckedInCritSec@@QAE@XZ
  ??1CClientOpsNode@@QAE@XZ=C:\Windows\SysWOW64\wbemcomn.??1CClientOpsNode@@QAE@XZ
  ??1CCritSec@@QAE@XZ=C:\Windows\SysWOW64\wbemcomn.??1CCritSec@@QAE@XZ
  ??1CDMTFParser@@QAE@XZ=C:\Windows\SysWOW64\wbemcomn.??1CDMTFParser@@QAE@XZ
  ??1CDatePart@@QAE@XZ=C:\Windows\SysWOW64\wbemcomn.??1CDatePart@@QAE@XZ
  ??1CDateTimeParser@@QAE@XZ=C:\Windows\SysWOW64\wbemcomn.??1CDateTimeParser@@QAE@XZ
  ??1CEnterWbemCriticalSection@@QAE@XZ=C:\Windows\SysWOW64\wbemcomn.??1CEnterWbemCriticalSection@@QAE@XZ
  ??1CEventLog@@QAE@XZ=C:\Windows\SysWOW64\wbemcomn.??1CEventLog@@QAE@XZ
  ??1CEventLogRecord@@QAE@XZ=C:\Windows\SysWOW64\wbemcomn.??1CEventLogRecord@@QAE@XZ
  ??1CExecQueue@@QAE@XZ=C:\Windows\SysWOW64\wbemcomn.??1CExecQueue@@QAE@XZ
  ??1CExecRequest@@UAE@XZ=C:\Windows\SysWOW64\wbemcomn.??1CExecRequest@@UAE@XZ
  ??1CFlexArray@@QAE@XZ=C:\Windows\SysWOW64\wbemcomn.??1CFlexArray@@QAE@XZ
  ??1CFlexQueue@@QAE@XZ=C:\Windows\SysWOW64\wbemcomn.??1CFlexQueue@@QAE@XZ
  ??1CHaltable@@UAE@XZ=C:\Windows\SysWOW64\wbemcomn.??1CHaltable@@UAE@XZ
  ??1CIdentitySecurity@@QAE@XZ=C:\Windows\SysWOW64\wbemcomn.??1CIdentitySecurity@@QAE@XZ
  ??1CIdentityTest@@QAE@XZ=C:\Windows\SysWOW64\wbemcomn.??1CIdentityTest@@QAE@XZ
  ??1CInCritSec@@QAE@XZ=C:\Windows\SysWOW64\wbemcomn.??1CInCritSec@@QAE@XZ
  ??1CInsertionString@@QAE@XZ=C:\Windows\SysWOW64\wbemcomn.??1CInsertionString@@QAE@XZ
  ??1CInstructionQueue@@QAE@XZ=C:\Windows\SysWOW64\wbemcomn.??1CInstructionQueue@@QAE@XZ
  ??1CLike@@QAE@XZ=C:\Windows\SysWOW64\wbemcomn.??1CLike@@QAE@XZ
  ??1CLimitControl@@UAE@XZ=C:\Windows\SysWOW64\wbemcomn.??1CLimitControl@@UAE@XZ
  ??1CMRCICompression@@QAE@XZ=C:\Windows\SysWOW64\wbemcomn.??1CMRCICompression@@QAE@XZ
  ??1CMUILocaleList@@QAE@XZ=C:\Windows\SysWOW64\wbemcomn.??1CMUILocaleList@@QAE@XZ
  ??1CMinMaxLimitControl@@UAE@XZ=C:\Windows\SysWOW64\wbemcomn.??1CMinMaxLimitControl@@UAE@XZ
  ??1CNtAce@@UAE@XZ=C:\Windows\SysWOW64\wbemcomn.??1CNtAce@@UAE@XZ
  ??1CNtAcl@@QAE@XZ=C:\Windows\SysWOW64\wbemcomn.??1CNtAcl@@QAE@XZ
  ??1CNtSecurityDescriptor@@QAE@XZ=C:\Windows\SysWOW64\wbemcomn.??1CNtSecurityDescriptor@@QAE@XZ
  ??1CNtSid@@QAE@XZ=C:\Windows\SysWOW64\wbemcomn.??1CNtSid@@QAE@XZ
  ??1CPropertyName@@QAE@XZ=C:\Windows\SysWOW64\wbemcomn.??1CPropertyName@@QAE@XZ
  ??1CPublishWMIOperationEvent@@QAE@XZ=C:\Windows\SysWOW64\wbemcomn.??1CPublishWMIOperationEvent@@QAE@XZ
  ??1CRegistryMinMaxLimitControl@@UAE@XZ=C:\Windows\SysWOW64\wbemcomn.??1CRegistryMinMaxLimitControl@@UAE@XZ
  ??1CSafeArray@@QAE@XZ=C:\Windows\SysWOW64\wbemcomn.??1CSafeArray@@QAE@XZ
  ??1CStaticCritSec@@QAE@XZ=C:\Windows\SysWOW64\wbemcomn.??1CStaticCritSec@@QAE@XZ
  ??1CTextTemplate@@QAE@XZ=C:\Windows\SysWOW64\wbemcomn.??1CTextTemplate@@QAE@XZ
  ??1CTimerGenerator@@UAE@XZ=C:\Windows\SysWOW64\wbemcomn.??1CTimerGenerator@@UAE@XZ
  ??1CTimerInstruction@@UAE@XZ=C:\Windows\SysWOW64\wbemcomn.??1CTimerInstruction@@UAE@XZ
  ??1CUnk@@UAE@XZ=C:\Windows\SysWOW64\wbemcomn.??1CUnk@@UAE@XZ
  ??1CUnkInternal@@UAE@XZ=C:\Windows\SysWOW64\wbemcomn.??1CUnkInternal@@UAE@XZ
  ??1CVar@@QAE@XZ=C:\Windows\SysWOW64\wbemcomn.??1CVar@@QAE@XZ
  ??1CVarVector@@QAE@XZ=C:\Windows\SysWOW64\wbemcomn.??1CVarVector@@QAE@XZ
  ??1CWQLScanner@@QAE@XZ=C:\Windows\SysWOW64\wbemcomn.??1CWQLScanner@@QAE@XZ
  ??1CWStringArray@@QAE@XZ=C:\Windows\SysWOW64\wbemcomn.??1CWStringArray@@QAE@XZ
  ??1CWbemCallSecurity@@AAE@XZ=C:\Windows\SysWOW64\wbemcomn.??1CWbemCallSecurity@@AAE@XZ
  ??1CWbemCriticalSection@@QAE@XZ=C:\Windows\SysWOW64\wbemcomn.??1CWbemCriticalSection@@QAE@XZ
  ??1CWbemInstallObject@@QAE@XZ=C:\Windows\SysWOW64\wbemcomn.??1CWbemInstallObject@@QAE@XZ
  ??1CWin32DefaultArena@@QAE@XZ=C:\Windows\SysWOW64\wbemcomn.??1CWin32DefaultArena@@QAE@XZ
  ??1QL1_Parser@@UAE@XZ=C:\Windows\SysWOW64\wbemcomn.??1QL1_Parser@@UAE@XZ
  ??1QL_LEVEL_1_RPN_EXPRESSION@@QAE@XZ=C:\Windows\SysWOW64\wbemcomn.??1QL_LEVEL_1_RPN_EXPRESSION@@QAE@XZ
  ??1QL_LEVEL_1_TOKEN@@QAE@XZ=C:\Windows\SysWOW64\wbemcomn.??1QL_LEVEL_1_TOKEN@@QAE@XZ
  ??1Registry@@QAE@XZ=C:\Windows\SysWOW64\wbemcomn.??1Registry@@QAE@XZ
  ??1WString2@@QAE@XZ=C:\Windows\SysWOW64\wbemcomn.??1WString2@@QAE@XZ
  ??1WString@@QAE@XZ=C:\Windows\SysWOW64\wbemcomn.??1WString@@QAE@XZ
  ??4?$CLockableFlexArray@VCStaticCritSec@@@@QAEAAV0@$$QAV0@@Z=C:\Windows\SysWOW64\wbemcomn.??4?$CLockableFlexArray@VCStaticCritSec@@@@QAEAAV0@$$QAV0@@Z
  ??4?$CLockableFlexArray@VCStaticCritSec@@@@QAEAAV0@AAV0@@Z=C:\Windows\SysWOW64\wbemcomn.??4?$CLockableFlexArray@VCStaticCritSec@@@@QAEAAV0@AAV0@@Z
  ??4?$SZLess@PBG@@QAEAAU0@ABU0@@Z=C:\Windows\SysWOW64\wbemcomn.??4?$SZLess@PBG@@QAEAAU0@ABU0@@Z
  ??4C9XAce@@QAEAAV0@ABV0@@Z=C:\Windows\SysWOW64\wbemcomn.??4C9XAce@@QAEAAV0@ABV0@@Z
  ??4CAbstractQl1Parser@@QAEAAV0@ABV0@@Z=C:\Windows\SysWOW64\wbemcomn.??4CAbstractQl1Parser@@QAEAAV0@ABV0@@Z
  ??4CArena@@QAEAAV0@$$QAV0@@Z=C:\Windows\SysWOW64\wbemcomn.??4CArena@@QAEAAV0@$$QAV0@@Z
  ??4CArena@@QAEAAV0@ABV0@@Z=C:\Windows\SysWOW64\wbemcomn.??4CArena@@QAEAAV0@ABV0@@Z
  ??4CBaseAce@@QAEAAV0@ABV0@@Z=C:\Windows\SysWOW64\wbemcomn.??4CBaseAce@@QAEAAV0@ABV0@@Z
  ??4CBaseMrciCompression@@QAEAAV0@$$QAV0@@Z=C:\Windows\SysWOW64\wbemcomn.??4CBaseMrciCompression@@QAEAAV0@$$QAV0@@Z
  ??4CBaseMrciCompression@@QAEAAV0@ABV0@@Z=C:\Windows\SysWOW64\wbemcomn.??4CBaseMrciCompression@@QAEAAV0@ABV0@@Z
  ??4CBasicUnloadInstruction@@QAEAAV0@ABV0@@Z=C:\Windows\SysWOW64\wbemcomn.??4CBasicUnloadInstruction@@QAEAAV0@ABV0@@Z
  ??4CBuffer@@QAEAAV0@ABV0@@Z=C:\Windows\SysWOW64\wbemcomn.??4CBuffer@@QAEAAV0@ABV0@@Z
  ??4CCheckedInCritSec@@QAEAAV0@ABV0@@Z=C:\Windows\SysWOW64\wbemcomn.??4CCheckedInCritSec@@QAEAAV0@ABV0@@Z
  ??4CCircularQueue@@QAEAAV0@$$QAV0@@Z=C:\Windows\SysWOW64\wbemcomn.??4CCircularQueue@@QAEAAV0@$$QAV0@@Z
  ??4CCircularQueue@@QAEAAV0@ABV0@@Z=C:\Windows\SysWOW64\wbemcomn.??4CCircularQueue@@QAEAAV0@ABV0@@Z
  ??4CClientOpsNode@@QAEAAV0@ABV0@@Z=C:\Windows\SysWOW64\wbemcomn.??4CClientOpsNode@@QAEAAV0@ABV0@@Z
  ??4CContainerControl@@QAEAAV0@$$QAV0@@Z=C:\Windows\SysWOW64\wbemcomn.??4CContainerControl@@QAEAAV0@$$QAV0@@Z
  ??4CContainerControl@@QAEAAV0@ABV0@@Z=C:\Windows\SysWOW64\wbemcomn.??4CContainerControl@@QAEAAV0@ABV0@@Z
  ??4CCritSec@@QAEAAV0@ABV0@@Z=C:\Windows\SysWOW64\wbemcomn.??4CCritSec@@QAEAAV0@ABV0@@Z
  ??4CDMTFParser@@QAEAAV0@ABV0@@Z=C:\Windows\SysWOW64\wbemcomn.??4CDMTFParser@@QAEAAV0@ABV0@@Z
  ??4CDatePart@@QAEAAV0@ABV0@@Z=C:\Windows\SysWOW64\wbemcomn.??4CDatePart@@QAEAAV0@ABV0@@Z
  ??4CDateTimeParser@@QAEAAV0@ABV0@@Z=C:\Windows\SysWOW64\wbemcomn.??4CDateTimeParser@@QAEAAV0@ABV0@@Z
  ??4CEnterWbemCriticalSection@@QAEAAV0@ABV0@@Z=C:\Windows\SysWOW64\wbemcomn.??4CEnterWbemCriticalSection@@QAEAAV0@ABV0@@Z
  ??4CExecQueue@@QAEAAV0@AAV0@@Z=C:\Windows\SysWOW64\wbemcomn.??4CExecQueue@@QAEAAV0@AAV0@@Z
  ??4CExecRequest@@QAEAAV0@ABV0@@Z=C:\Windows\SysWOW64\wbemcomn.??4CExecRequest@@QAEAAV0@ABV0@@Z
  ??4CFlexArray@@QAEAAV0@AAV0@@Z=C:\Windows\SysWOW64\wbemcomn.??4CFlexArray@@QAEAAV0@AAV0@@Z
  ??4CFlexQueue@@QAEAAV0@ABV0@@Z=C:\Windows\SysWOW64\wbemcomn.??4CFlexQueue@@QAEAAV0@ABV0@@Z
  ??4CHaltable@@QAEAAV0@ABV0@@Z=C:\Windows\SysWOW64\wbemcomn.??4CHaltable@@QAEAAV0@ABV0@@Z
  ??4CHex@@QAEAAV0@$$QAV0@@Z=C:\Windows\SysWOW64\wbemcomn.??4CHex@@QAEAAV0@$$QAV0@@Z
  ??4CHex@@QAEAAV0@ABV0@@Z=C:\Windows\SysWOW64\wbemcomn.??4CHex@@QAEAAV0@ABV0@@Z
  ??4CIdentitySecurity@@QAEAAV0@ABV0@@Z=C:\Windows\SysWOW64\wbemcomn.??4CIdentitySecurity@@QAEAAV0@ABV0@@Z
  ??4CIdentityTest@@QAEAAV0@ABV0@@Z=C:\Windows\SysWOW64\wbemcomn.??4CIdentityTest@@QAEAAV0@ABV0@@Z
  ??4CInCritSec@@QAEAAV0@ABV0@@Z=C:\Windows\SysWOW64\wbemcomn.??4CInCritSec@@QAEAAV0@ABV0@@Z
  ??4CInsertionString@@QAEAAV0@$$QAV0@@Z=C:\Windows\SysWOW64\wbemcomn.??4CInsertionString@@QAEAAV0@$$QAV0@@Z
  ??4CInsertionString@@QAEAAV0@ABV0@@Z=C:\Windows\SysWOW64\wbemcomn.??4CInsertionString@@QAEAAV0@ABV0@@Z
  ??4CInstructionQueue@@QAEAAV0@ABV0@@Z=C:\Windows\SysWOW64\wbemcomn.??4CInstructionQueue@@QAEAAV0@ABV0@@Z
  ??4CInstructionTest@@QAEAAV0@$$QAV0@@Z=C:\Windows\SysWOW64\wbemcomn.??4CInstructionTest@@QAEAAV0@$$QAV0@@Z
  ??4CInstructionTest@@QAEAAV0@ABV0@@Z=C:\Windows\SysWOW64\wbemcomn.??4CInstructionTest@@QAEAAV0@ABV0@@Z
  ??4CLifeControl@@QAEAAV0@$$QAV0@@Z=C:\Windows\SysWOW64\wbemcomn.??4CLifeControl@@QAEAAV0@$$QAV0@@Z
  ??4CLifeControl@@QAEAAV0@ABV0@@Z=C:\Windows\SysWOW64\wbemcomn.??4CLifeControl@@QAEAAV0@ABV0@@Z
  ??4CLike@@QAEAAV0@ABV0@@Z=C:\Windows\SysWOW64\wbemcomn.??4CLike@@QAEAAV0@ABV0@@Z
  ??4CLimitControl@@QAEAAV0@ABV0@@Z=C:\Windows\SysWOW64\wbemcomn.??4CLimitControl@@QAEAAV0@ABV0@@Z
  ??4CMRCICompression@@QAEAAV0@ABV0@@Z=C:\Windows\SysWOW64\wbemcomn.??4CMRCICompression@@QAEAAV0@ABV0@@Z
  ??4CMRCIControl@@QAEAAV0@$$QAV0@@Z=C:\Windows\SysWOW64\wbemcomn.??4CMRCIControl@@QAEAAV0@$$QAV0@@Z
  ??4CMRCIControl@@QAEAAV0@ABV0@@Z=C:\Windows\SysWOW64\wbemcomn.??4CMRCIControl@@QAEAAV0@ABV0@@Z
  ??4CMUILocale@@QAEAAV0@$$QAV0@@Z=C:\Windows\SysWOW64\wbemcomn.??4CMUILocale@@QAEAAV0@$$QAV0@@Z
  ??4CMUILocale@@QAEAAV0@ABV0@@Z=C:\Windows\SysWOW64\wbemcomn.??4CMUILocale@@QAEAAV0@ABV0@@Z
  ??4CMUILocaleList@@QAEAAV0@ABV0@@Z=C:\Windows\SysWOW64\wbemcomn.??4CMUILocaleList@@QAEAAV0@ABV0@@Z
  ??4CMemoryLog@@QAEAAV0@$$QAV0@@Z=C:\Windows\SysWOW64\wbemcomn.??4CMemoryLog@@QAEAAV0@$$QAV0@@Z
  ??4CMemoryLog@@QAEAAV0@ABV0@@Z=C:\Windows\SysWOW64\wbemcomn.??4CMemoryLog@@QAEAAV0@ABV0@@Z
  ??4CMinMaxLimitControl@@QAEAAV0@$$QAV0@@Z=C:\Windows\SysWOW64\wbemcomn.??4CMinMaxLimitControl@@QAEAAV0@$$QAV0@@Z
  ??4CMinMaxLimitControl@@QAEAAV0@ABV0@@Z=C:\Windows\SysWOW64\wbemcomn.??4CMinMaxLimitControl@@QAEAAV0@ABV0@@Z
  ??4CNtAce@@QAEAAV0@ABV0@@Z=C:\Windows\SysWOW64\wbemcomn.??4CNtAce@@QAEAAV0@ABV0@@Z
  ??4CNtAcl@@QAEAAV0@ABV0@@Z=C:\Windows\SysWOW64\wbemcomn.??4CNtAcl@@QAEAAV0@ABV0@@Z
  ??4CNtSecurity@@QAEAAV0@$$QAV0@@Z=C:\Windows\SysWOW64\wbemcomn.??4CNtSecurity@@QAEAAV0@$$QAV0@@Z
  ??4CNtSecurity@@QAEAAV0@ABV0@@Z=C:\Windows\SysWOW64\wbemcomn.??4CNtSecurity@@QAEAAV0@ABV0@@Z
  ??4CNtSecurityDescriptor@@QAEAAV0@AAV0@@Z=C:\Windows\SysWOW64\wbemcomn.??4CNtSecurityDescriptor@@QAEAAV0@AAV0@@Z
  ??4CNtSid@@QAEAAV0@ABV0@@Z=C:\Windows\SysWOW64\wbemcomn.??4CNtSid@@QAEAAV0@ABV0@@Z
  ??4CPersistentConfig@@QAEAAV0@$$QAV0@@Z=C:\Windows\SysWOW64\wbemcomn.??4CPersistentConfig@@QAEAAV0@$$QAV0@@Z
  ??4CPersistentConfig@@QAEAAV0@ABV0@@Z=C:\Windows\SysWOW64\wbemcomn.??4CPersistentConfig@@QAEAAV0@ABV0@@Z
  ??4CPropertyName@@QAEXABU_tag_WbemPropertyName@@@Z=C:\Windows\SysWOW64\wbemcomn.??4CPropertyName@@QAEXABU_tag_WbemPropertyName@@@Z
  ??4CPropertyName@@QAEXABV0@@Z=C:\Windows\SysWOW64\wbemcomn.??4CPropertyName@@QAEXABV0@@Z
  ??4CPublishWMIOperationEvent@@QAEAAV0@ABV0@@Z=C:\Windows\SysWOW64\wbemcomn.??4CPublishWMIOperationEvent@@QAEAAV0@ABV0@@Z
  ??4CQl1ParseSink@@QAEAAV0@$$QAV0@@Z=C:\Windows\SysWOW64\wbemcomn.??4CQl1ParseSink@@QAEAAV0@$$QAV0@@Z
  ??4CQl1ParseSink@@QAEAAV0@ABV0@@Z=C:\Windows\SysWOW64\wbemcomn.??4CQl1ParseSink@@QAEAAV0@ABV0@@Z
  ??4CRegistryMinMaxLimitControl@@QAEAAV0@$$QAV0@@Z=C:\Windows\SysWOW64\wbemcomn.??4CRegistryMinMaxLimitControl@@QAEAAV0@$$QAV0@@Z
  ??4CRegistryMinMaxLimitControl@@QAEAAV0@ABV0@@Z=C:\Windows\SysWOW64\wbemcomn.??4CRegistryMinMaxLimitControl@@QAEAAV0@ABV0@@Z
  ??4CSafeArray@@QAEAAV0@AAV0@@Z=C:\Windows\SysWOW64\wbemcomn.??4CSafeArray@@QAEAAV0@AAV0@@Z
  ??4CSmallArrayBlob@@QAEAAV0@$$QAV0@@Z=C:\Windows\SysWOW64\wbemcomn.??4CSmallArrayBlob@@QAEAAV0@$$QAV0@@Z
  ??4CSmallArrayBlob@@QAEAAV0@ABV0@@Z=C:\Windows\SysWOW64\wbemcomn.??4CSmallArrayBlob@@QAEAAV0@ABV0@@Z
  ??4CStaticCritSec@@QAEAAV0@ABV0@@Z=C:\Windows\SysWOW64\wbemcomn.??4CStaticCritSec@@QAEAAV0@ABV0@@Z
  ??4CTextTemplate@@QAEAAV0@ABV0@@Z=C:\Windows\SysWOW64\wbemcomn.??4CTextTemplate@@QAEAAV0@ABV0@@Z
  ??4CTimerGenerator@@QAEAAV0@ABV0@@Z=C:\Windows\SysWOW64\wbemcomn.??4CTimerGenerator@@QAEAAV0@ABV0@@Z
  ??4CTimerInstruction@@QAEAAV0@ABV0@@Z=C:\Windows\SysWOW64\wbemcomn.??4CTimerInstruction@@QAEAAV0@ABV0@@Z
  ??4CTraceSessionControl@@QAEAAV0@$$QAV0@@Z=C:\Windows\SysWOW64\wbemcomn.??4CTraceSessionControl@@QAEAAV0@$$QAV0@@Z
  ??4CTraceSessionControl@@QAEAAV0@ABV0@@Z=C:\Windows\SysWOW64\wbemcomn.??4CTraceSessionControl@@QAEAAV0@ABV0@@Z
  ??4CUnk@@QAEAAV0@ABV0@@Z=C:\Windows\SysWOW64\wbemcomn.??4CUnk@@QAEAAV0@ABV0@@Z
  ??4CUnkInternal@@QAEAAV0@ABV0@@Z=C:\Windows\SysWOW64\wbemcomn.??4CUnkInternal@@QAEAAV0@ABV0@@Z
  ??4CVar@@QAEAAV0@ABV0@@Z=C:\Windows\SysWOW64\wbemcomn.??4CVar@@QAEAAV0@ABV0@@Z
  ??4CVarVector@@QAEAAV0@AAV0@@Z=C:\Windows\SysWOW64\wbemcomn.??4CVarVector@@QAEAAV0@AAV0@@Z
  ??4CWMITraceSettings@@QAEAAV0@$$QAV0@@Z=C:\Windows\SysWOW64\wbemcomn.??4CWMITraceSettings@@QAEAAV0@$$QAV0@@Z
  ??4CWMITraceSettings@@QAEAAV0@ABV0@@Z=C:\Windows\SysWOW64\wbemcomn.??4CWMITraceSettings@@QAEAAV0@ABV0@@Z
  ??4CWQLScanner@@QAEAAV0@AAV0@@Z=C:\Windows\SysWOW64\wbemcomn.??4CWQLScanner@@QAEAAV0@AAV0@@Z
  ??4CWStringArray@@QAEAAV0@AAV0@@Z=C:\Windows\SysWOW64\wbemcomn.??4CWStringArray@@QAEAAV0@AAV0@@Z
  ??4CWbemCallSecurity@@AAEAAV0@ABV0@@Z=C:\Windows\SysWOW64\wbemcomn.??4CWbemCallSecurity@@AAEAAV0@ABV0@@Z
  ??4CWbemCriticalSection@@QAEAAV0@ABV0@@Z=C:\Windows\SysWOW64\wbemcomn.??4CWbemCriticalSection@@QAEAAV0@ABV0@@Z
  ??4CWbemInstallObject@@QAEAAV0@ABV0@@Z=C:\Windows\SysWOW64\wbemcomn.??4CWbemInstallObject@@QAEAAV0@ABV0@@Z
  ??4CWbemInterval@@QAEAAV0@$$QAV0@@Z=C:\Windows\SysWOW64\wbemcomn.??4CWbemInterval@@QAEAAV0@$$QAV0@@Z
  ??4CWbemInterval@@QAEAAV0@ABV0@@Z=C:\Windows\SysWOW64\wbemcomn.??4CWbemInterval@@QAEAAV0@ABV0@@Z
  ??4CWbemTime@@QAEXABV0@@Z=C:\Windows\SysWOW64\wbemcomn.??4CWbemTime@@QAEXABV0@@Z
  ??4CWbemTimeSpan@@QAEAAV0@$$QAV0@@Z=C:\Windows\SysWOW64\wbemcomn.??4CWbemTimeSpan@@QAEAAV0@$$QAV0@@Z
  ??4CWbemTimeSpan@@QAEAAV0@ABV0@@Z=C:\Windows\SysWOW64\wbemcomn.??4CWbemTimeSpan@@QAEAAV0@ABV0@@Z
  ??4CWin32DefaultArena@@QAEAAV0@ABV0@@Z=C:\Windows\SysWOW64\wbemcomn.??4CWin32DefaultArena@@QAEAAV0@ABV0@@Z
  ??4MD5@@QAEAAV0@$$QAV0@@Z=C:\Windows\SysWOW64\wbemcomn.??4MD5@@QAEAAV0@$$QAV0@@Z
  ??4MD5@@QAEAAV0@ABV0@@Z=C:\Windows\SysWOW64\wbemcomn.??4MD5@@QAEAAV0@ABV0@@Z
  ??4QL1_Parser@@QAEAAV0@ABV0@@Z=C:\Windows\SysWOW64\wbemcomn.??4QL1_Parser@@QAEAAV0@ABV0@@Z
  ??4QL_LEVEL_1_RPN_EXPRESSION@@QAEAAU0@ABU0@@Z=C:\Windows\SysWOW64\wbemcomn.??4QL_LEVEL_1_RPN_EXPRESSION@@QAEAAU0@ABU0@@Z
  ??4QL_LEVEL_1_TOKEN@@QAEAAU0@ABU0@@Z=C:\Windows\SysWOW64\wbemcomn.??4QL_LEVEL_1_TOKEN@@QAEAAU0@ABU0@@Z
  ??4QL_LEVEL_1_TOKEN@@QAEAAU0@ABU_tag_WbemQl1Token@@@Z=C:\Windows\SysWOW64\wbemcomn.??4QL_LEVEL_1_TOKEN@@QAEAAU0@ABU_tag_WbemQl1Token@@@Z
  ??4Registry@@QAEAAV0@ABV0@@Z=C:\Windows\SysWOW64\wbemcomn.??4Registry@@QAEAAV0@ABV0@@Z
  ??4SHA256@@QAEAAV0@$$QAV0@@Z=C:\Windows\SysWOW64\wbemcomn.??4SHA256@@QAEAAV0@$$QAV0@@Z
  ??4SHA256@@QAEAAV0@ABV0@@Z=C:\Windows\SysWOW64\wbemcomn.??4SHA256@@QAEAAV0@ABV0@@Z
  ??4WString2@@QAEAAV0@ABV0@@Z=C:\Windows\SysWOW64\wbemcomn.??4WString2@@QAEAAV0@ABV0@@Z
  ??4WString2@@QAEAAV0@PBG@Z=C:\Windows\SysWOW64\wbemcomn.??4WString2@@QAEAAV0@PBG@Z
  ??4WString@@QAEAAV0@ABV0@@Z=C:\Windows\SysWOW64\wbemcomn.??4WString@@QAEAAV0@ABV0@@Z
  ??4WString@@QAEAAV0@PBG@Z=C:\Windows\SysWOW64\wbemcomn.??4WString@@QAEAAV0@PBG@Z
  ??8CEventLogRecord@@QAEHABV0@@Z=C:\Windows\SysWOW64\wbemcomn.??8CEventLogRecord@@QAEHABV0@@Z
  ??8CNtSid@@QAEHAAV0@@Z=C:\Windows\SysWOW64\wbemcomn.??8CNtSid@@QAEHAAV0@@Z
  ??8CPropertyName@@QAEHABU_tag_WbemPropertyName@@@Z=C:\Windows\SysWOW64\wbemcomn.??8CPropertyName@@QAEHABU_tag_WbemPropertyName@@@Z
  ??8CVar@@QAEHAAV0@@Z=C:\Windows\SysWOW64\wbemcomn.??8CVar@@QAEHAAV0@@Z
  ??8CVarVector@@QAEHAAV0@@Z=C:\Windows\SysWOW64\wbemcomn.??8CVarVector@@QAEHAAV0@@Z
  ??ACFlexArray@@QAEAAPAXH@Z=C:\Windows\SysWOW64\wbemcomn.??ACFlexArray@@QAEAAPAXH@Z
  ??ACFlexArray@@QBEPAXH@Z=C:\Windows\SysWOW64\wbemcomn.??ACFlexArray@@QBEPAXH@Z
  ??ACSmallArrayBlob@@QBEPAXH@Z=C:\Windows\SysWOW64\wbemcomn.??ACSmallArrayBlob@@QBEPAXH@Z
  ??ACVarVector@@QAEAAVCVar@@H@Z=C:\Windows\SysWOW64\wbemcomn.??ACVarVector@@QAEAAVCVar@@H@Z
  ??ACWStringArray@@QBEPAGH@Z=C:\Windows\SysWOW64\wbemcomn.??ACWStringArray@@QBEPAGH@Z
  ??AWString2@@QBEGH@Z=C:\Windows\SysWOW64\wbemcomn.??AWString2@@QBEGH@Z
  ??AWString@@QBEGH@Z=C:\Windows\SysWOW64\wbemcomn.??AWString@@QBEGH@Z
  ??BCHex@@QAEJXZ=C:\Windows\SysWOW64\wbemcomn.??BCHex@@QAEJXZ
  ??BCVar@@QAE?AU_FILETIME@@XZ=C:\Windows\SysWOW64\wbemcomn.??BCVar@@QAE?AU_FILETIME@@XZ
  ??BCVar@@QAEDXZ=C:\Windows\SysWOW64\wbemcomn.??BCVar@@QAEDXZ
  ??BCVar@@QAEEXZ=C:\Windows\SysWOW64\wbemcomn.??BCVar@@QAEEXZ
  ??BCVar@@QAEFXZ=C:\Windows\SysWOW64\wbemcomn.??BCVar@@QAEFXZ
  ??BCVar@@QAEGXZ=C:\Windows\SysWOW64\wbemcomn.??BCVar@@QAEGXZ
  ??BCVar@@QAEJXZ=C:\Windows\SysWOW64\wbemcomn.??BCVar@@QAEJXZ
  ??BCVar@@QAEKXZ=C:\Windows\SysWOW64\wbemcomn.??BCVar@@QAEKXZ
  ??BCVar@@QAEMXZ=C:\Windows\SysWOW64\wbemcomn.??BCVar@@QAEMXZ
  ??BCVar@@QAENXZ=C:\Windows\SysWOW64\wbemcomn.??BCVar@@QAENXZ
  ??BCVar@@QAEPADXZ=C:\Windows\SysWOW64\wbemcomn.??BCVar@@QAEPADXZ
  ??BCVar@@QAEPAGXZ=C:\Windows\SysWOW64\wbemcomn.??BCVar@@QAEPAGXZ
  ??BCVar@@QAEPAU_GUID@@XZ=C:\Windows\SysWOW64\wbemcomn.??BCVar@@QAEPAU_GUID@@XZ
  ??BCVar@@QAEPAUtagBLOB@@XZ=C:\Windows\SysWOW64\wbemcomn.??BCVar@@QAEPAUtagBLOB@@XZ
  ??BCVar@@QAEPAVCVarVector@@XZ=C:\Windows\SysWOW64\wbemcomn.??BCVar@@QAEPAVCVarVector@@XZ
  ??BWString2@@QAEPAGXZ=C:\Windows\SysWOW64\wbemcomn.??BWString2@@QAEPAGXZ
  ??BWString2@@QBEPBGXZ=C:\Windows\SysWOW64\wbemcomn.??BWString2@@QBEPBGXZ
  ??BWString@@QAEPAGXZ=C:\Windows\SysWOW64\wbemcomn.??BWString@@QAEPAGXZ
  ??BWString@@QBEPBGXZ=C:\Windows\SysWOW64\wbemcomn.??BWString@@QBEPBGXZ
  ??DCWbemInterval@@QBE?AV0@N@Z=C:\Windows\SysWOW64\wbemcomn.??DCWbemInterval@@QBE?AV0@N@Z
  ??GCWbemTime@@QBE?AV0@ABVCWbemTimeSpan@@@Z=C:\Windows\SysWOW64\wbemcomn.??GCWbemTime@@QBE?AV0@ABVCWbemTimeSpan@@@Z
  ??GCWbemTime@@QBE?AVCWbemInterval@@ABV0@@Z=C:\Windows\SysWOW64\wbemcomn.??GCWbemTime@@QBE?AVCWbemInterval@@ABV0@@Z
  ??HCWbemInterval@@QBE?AV0@V0@@Z=C:\Windows\SysWOW64\wbemcomn.??HCWbemInterval@@QBE?AV0@V0@@Z
  ??HCWbemTime@@QBE?AV0@ABVCWbemInterval@@@Z=C:\Windows\SysWOW64\wbemcomn.??HCWbemTime@@QBE?AV0@ABVCWbemInterval@@@Z
  ??HCWbemTime@@QBE?AV0@ABVCWbemTimeSpan@@@Z=C:\Windows\SysWOW64\wbemcomn.??HCWbemTime@@QBE?AV0@ABVCWbemTimeSpan@@@Z
  ??MCWbemInterval@@QAEHV0@@Z=C:\Windows\SysWOW64\wbemcomn.??MCWbemInterval@@QAEHV0@@Z
  ??MCWbemTime@@QBEHABV0@@Z=C:\Windows\SysWOW64\wbemcomn.??MCWbemTime@@QBEHABV0@@Z
  ??MWString2@@QBEHPBG@Z=C:\Windows\SysWOW64\wbemcomn.??MWString2@@QBEHPBG@Z
  ??MWString@@QBEHPBG@Z=C:\Windows\SysWOW64\wbemcomn.??MWString@@QBEHPBG@Z
  ??NCWbemTime@@QBEHABV0@@Z=C:\Windows\SysWOW64\wbemcomn.??NCWbemTime@@QBEHABV0@@Z
  ??NWString2@@QBEHPBG@Z=C:\Windows\SysWOW64\wbemcomn.??NWString2@@QBEHPBG@Z
  ??NWString@@QBEHPBG@Z=C:\Windows\SysWOW64\wbemcomn.??NWString@@QBEHPBG@Z
  ??OCWbemInterval@@QAEHV0@@Z=C:\Windows\SysWOW64\wbemcomn.??OCWbemInterval@@QAEHV0@@Z
  ??OCWbemTime@@QBEHABV0@@Z=C:\Windows\SysWOW64\wbemcomn.??OCWbemTime@@QBEHABV0@@Z
  ??OWString2@@QBEHPBG@Z=C:\Windows\SysWOW64\wbemcomn.??OWString2@@QBEHPBG@Z
  ??OWString@@QBEHPBG@Z=C:\Windows\SysWOW64\wbemcomn.??OWString@@QBEHPBG@Z
  ??PCWbemTime@@QBEHABV0@@Z=C:\Windows\SysWOW64\wbemcomn.??PCWbemTime@@QBEHABV0@@Z
  ??PWString2@@QBEHPBG@Z=C:\Windows\SysWOW64\wbemcomn.??PWString2@@QBEHPBG@Z
  ??PWString@@QBEHPBG@Z=C:\Windows\SysWOW64\wbemcomn.??PWString@@QBEHPBG@Z
  ??R?$SZLess@PBG@@QBE_NABQBG0@Z=C:\Windows\SysWOW64\wbemcomn.??R?$SZLess@PBG@@QBE_NABQBG0@Z
  ??RCIdentityTest@@UAEHPAVCTimerInstruction@@@Z=C:\Windows\SysWOW64\wbemcomn.??RCIdentityTest@@UAEHPAVCTimerInstruction@@@Z
  ??RWString2@@QBE?AV0@HH@Z=C:\Windows\SysWOW64\wbemcomn.??RWString2@@QBE?AV0@HH@Z
  ??RWString@@QBE?AV0@HH@Z=C:\Windows\SysWOW64\wbemcomn.??RWString@@QBE?AV0@HH@Z
  ??YCWbemInterval@@QAEXV0@@Z=C:\Windows\SysWOW64\wbemcomn.??YCWbemInterval@@QAEXV0@@Z
  ??YWString2@@QAEAAV0@ABV0@@Z=C:\Windows\SysWOW64\wbemcomn.??YWString2@@QAEAAV0@ABV0@@Z
  ??YWString2@@QAEAAV0@G@Z=C:\Windows\SysWOW64\wbemcomn.??YWString2@@QAEAAV0@G@Z
  ??YWString2@@QAEAAV0@PBG@Z=C:\Windows\SysWOW64\wbemcomn.??YWString2@@QAEAAV0@PBG@Z
  ??YWString@@QAEAAV0@ABV0@@Z=C:\Windows\SysWOW64\wbemcomn.??YWString@@QAEAAV0@ABV0@@Z
  ??YWString@@QAEAAV0@G@Z=C:\Windows\SysWOW64\wbemcomn.??YWString@@QAEAAV0@G@Z
  ??YWString@@QAEAAV0@PBG@Z=C:\Windows\SysWOW64\wbemcomn.??YWString@@QAEAAV0@PBG@Z
  ??_7?$SZLess@PBG@@6B@=C:\Windows\SysWOW64\wbemcomn.??_7?$SZLess@PBG@@6B@
  ??_7C9XAce@@6B@=C:\Windows\SysWOW64\wbemcomn.??_7C9XAce@@6B@
  ??_7CAbstractQl1Parser@@6B@=C:\Windows\SysWOW64\wbemcomn.??_7CAbstractQl1Parser@@6B@
  ??_7CArena@@6B@=C:\Windows\SysWOW64\wbemcomn.??_7CArena@@6B@
  ??_7CBaseAce@@6B@=C:\Windows\SysWOW64\wbemcomn.??_7CBaseAce@@6B@
  ??_7CBasicUnloadInstruction@@6B@=C:\Windows\SysWOW64\wbemcomn.??_7CBasicUnloadInstruction@@6B@
  ??_7CBuffer@@6B@=C:\Windows\SysWOW64\wbemcomn.??_7CBuffer@@6B@
  ??_7CContainerControl@@6B@=C:\Windows\SysWOW64\wbemcomn.??_7CContainerControl@@6B@
  ??_7CExecQueue@@6B@=C:\Windows\SysWOW64\wbemcomn.??_7CExecQueue@@6B@
  ??_7CExecRequest@@6B@=C:\Windows\SysWOW64\wbemcomn.??_7CExecRequest@@6B@
  ??_7CHaltable@@6B@=C:\Windows\SysWOW64\wbemcomn.??_7CHaltable@@6B@
  ??_7CIdentityTest@@6B@=C:\Windows\SysWOW64\wbemcomn.??_7CIdentityTest@@6B@
  ??_7CInstructionTest@@6B@=C:\Windows\SysWOW64\wbemcomn.??_7CInstructionTest@@6B@
  ??_7CLifeControl@@6B@=C:\Windows\SysWOW64\wbemcomn.??_7CLifeControl@@6B@
  ??_7CLimitControl@@6B@=C:\Windows\SysWOW64\wbemcomn.??_7CLimitControl@@6B@
  ??_7CMinMaxLimitControl@@6B@=C:\Windows\SysWOW64\wbemcomn.??_7CMinMaxLimitControl@@6B@
  ??_7CNtAce@@6B@=C:\Windows\SysWOW64\wbemcomn.??_7CNtAce@@6B@
  ??_7CQl1ParseSink@@6B@=C:\Windows\SysWOW64\wbemcomn.??_7CQl1ParseSink@@6B@
  ??_7CRegistryMinMaxLimitControl@@6B@=C:\Windows\SysWOW64\wbemcomn.??_7CRegistryMinMaxLimitControl@@6B@
  ??_7CTimerGenerator@@6B@=C:\Windows\SysWOW64\wbemcomn.??_7CTimerGenerator@@6B@
  ??_7CTimerInstruction@@6B@=C:\Windows\SysWOW64\wbemcomn.??_7CTimerInstruction@@6B@
  ??_7CUnk@@6B@=C:\Windows\SysWOW64\wbemcomn.??_7CUnk@@6B@
  ??_7CUnkInternal@@6B@=C:\Windows\SysWOW64\wbemcomn.??_7CUnkInternal@@6B@
  ??_7CWbemCallSecurity@@6B@=C:\Windows\SysWOW64\wbemcomn.??_7CWbemCallSecurity@@6B@
  ??_7CWin32DefaultArena@@6B@=C:\Windows\SysWOW64\wbemcomn.??_7CWin32DefaultArena@@6B@
  ??_7QL1_Parser@@6B@=C:\Windows\SysWOW64\wbemcomn.??_7QL1_Parser@@6B@
  ??_7QL_LEVEL_1_RPN_EXPRESSION@@6B@=C:\Windows\SysWOW64\wbemcomn.??_7QL_LEVEL_1_RPN_EXPRESSION@@6B@
  ??_FCBuffer@@QAEXXZ=C:\Windows\SysWOW64\wbemcomn.??_FCBuffer@@QAEXXZ
  ??_FCEventLog@@QAEXXZ=C:\Windows\SysWOW64\wbemcomn.??_FCEventLog@@QAEXXZ
  ??_FCFlexArray@@QAEXXZ=C:\Windows\SysWOW64\wbemcomn.??_FCFlexArray@@QAEXXZ
  ??_FCFlexQueue@@QAEXXZ=C:\Windows\SysWOW64\wbemcomn.??_FCFlexQueue@@QAEXXZ
  ??_FCNtAcl@@QAEXXZ=C:\Windows\SysWOW64\wbemcomn.??_FCNtAcl@@QAEXXZ
  ??_FCTextTemplate@@QAEXXZ=C:\Windows\SysWOW64\wbemcomn.??_FCTextTemplate@@QAEXXZ
  ??_FCUnk@@QAEXXZ=C:\Windows\SysWOW64\wbemcomn.??_FCUnk@@QAEXXZ
  ??_FCWStringArray@@QAEXXZ=C:\Windows\SysWOW64\wbemcomn.??_FCWStringArray@@QAEXXZ
  ?AbortCompression@CMRCIControl@@QAEXXZ=C:\Windows\SysWOW64\wbemcomn.?AbortCompression@CMRCIControl@@QAEXXZ
  ?AbortRequested@CMRCIControl@@QAEHXZ=C:\Windows\SysWOW64\wbemcomn.?AbortRequested@CMRCIControl@@QAEHXZ
  ?Access@CSafeArray@@QAEJPAPAX@Z=C:\Windows\SysWOW64\wbemcomn.?Access@CSafeArray@@QAEJPAPAX@Z
  ?AccessCheck@CIdentitySecurity@@QAEHXZ=C:\Windows\SysWOW64\wbemcomn.?AccessCheck@CIdentitySecurity@@QAEHXZ
  ?AccessRawArray@CVarVector@@QAEJPAPAX@Z=C:\Windows\SysWOW64\wbemcomn.?AccessRawArray@CVarVector@@QAEJPAPAX@Z
  ?Add@CFlexArray@@QAEHPAX@Z=C:\Windows\SysWOW64\wbemcomn.?Add@CFlexArray@@QAEHPAX@Z
  ?Add@CMinMaxLimitControl@@UAEJKKPAK@Z=C:\Windows\SysWOW64\wbemcomn.?Add@CMinMaxLimitControl@@UAEJKKPAK@Z
  ?Add@CVarVector@@QAEHAAVCVar@@@Z=C:\Windows\SysWOW64\wbemcomn.?Add@CVarVector@@QAEHAAVCVar@@@Z
  ?Add@CVarVector@@QAEHPAVCVar@@@Z=C:\Windows\SysWOW64\wbemcomn.?Add@CVarVector@@QAEHPAVCVar@@@Z
  ?Add@CWStringArray@@QAEHPBG@Z=C:\Windows\SysWOW64\wbemcomn.?Add@CWStringArray@@QAEHPBG@Z
  ?AddAce@CNtAcl@@QAEHPAVCNtAce@@@Z=C:\Windows\SysWOW64\wbemcomn.?AddAce@CNtAcl@@QAEHPAVCNtAce@@@Z
  ?AddAggregationProperty@QL_LEVEL_1_RPN_EXPRESSION@@UAEXABVCPropertyName@@@Z=C:\Windows\SysWOW64\wbemcomn.?AddAggregationProperty@QL_LEVEL_1_RPN_EXPRESSION@@UAEXABVCPropertyName@@@Z
  ?AddAllAggregationProperties@QL_LEVEL_1_RPN_EXPRESSION@@UAEXXZ=C:\Windows\SysWOW64\wbemcomn.?AddAllAggregationProperties@QL_LEVEL_1_RPN_EXPRESSION@@UAEXXZ
  ?AddAllProperties@QL_LEVEL_1_RPN_EXPRESSION@@UAEXXZ=C:\Windows\SysWOW64\wbemcomn.?AddAllProperties@QL_LEVEL_1_RPN_EXPRESSION@@UAEXXZ
  ?AddAppropriateToken@CAbstractQl1Parser@@IAEXABU_tag_WbemQl1Token@@@Z=C:\Windows\SysWOW64\wbemcomn.?AddAppropriateToken@CAbstractQl1Parser@@IAEXABU_tag_WbemQl1Token@@@Z
  ?AddBSTR@CSafeArray@@QAEHPAG@Z=C:\Windows\SysWOW64\wbemcomn.?AddBSTR@CSafeArray@@QAEHPAG@Z
  ?AddBool@CSafeArray@@QAEHF@Z=C:\Windows\SysWOW64\wbemcomn.?AddBool@CSafeArray@@QAEHF@Z
  ?AddByte@CSafeArray@@QAEHE@Z=C:\Windows\SysWOW64\wbemcomn.?AddByte@CSafeArray@@QAEHE@Z
  ?AddChild@CClientOpsNode@@QAEXPAV1@@Z=C:\Windows\SysWOW64\wbemcomn.?AddChild@CClientOpsNode@@QAEXPAV1@@Z
  ?AddCulture@CMUILocaleList@@AAEJPBGW4LocaleType@CMUILocale@@K@Z=C:\Windows\SysWOW64\wbemcomn.?AddCulture@CMUILocaleList@@AAEJPBGW4LocaleType@CMUILocale@@K@Z
  ?AddDispatch@CSafeArray@@QAEHPAUIDispatch@@@Z=C:\Windows\SysWOW64\wbemcomn.?AddDispatch@CSafeArray@@QAEHPAUIDispatch@@@Z
  ?AddDouble@CSafeArray@@QAEHN@Z=C:\Windows\SysWOW64\wbemcomn.?AddDouble@CSafeArray@@QAEHN@Z
  ?AddElement@CPropertyName@@QAEXPBG@Z=C:\Windows\SysWOW64\wbemcomn.?AddElement@CPropertyName@@QAEXPBG@Z
  ?AddEnvironmentValue@CWbemInstallObject@@SGJPBG0@Z=C:\Windows\SysWOW64\wbemcomn.?AddEnvironmentValue@CWbemInstallObject@@SGJPBG0@Z
  ?AddFloat@CSafeArray@@QAEHM@Z=C:\Windows\SysWOW64\wbemcomn.?AddFloat@CSafeArray@@QAEHM@Z
  ?AddHavingToken@QL_LEVEL_1_RPN_EXPRESSION@@UAEXABU_tag_WbemQl1Token@@@Z=C:\Windows\SysWOW64\wbemcomn.?AddHavingToken@QL_LEVEL_1_RPN_EXPRESSION@@UAEXABU_tag_WbemQl1Token@@@Z
  ?AddInsertionString@CEventLogRecord@@IAEXAAVCInsertionString@@@Z=C:\Windows\SysWOW64\wbemcomn.?AddInsertionString@CEventLogRecord@@IAEXAAVCInsertionString@@@Z
  ?AddLocale@CMUILocaleList@@AAEJPBGW4LocaleType@CMUILocale@@K@Z=C:\Windows\SysWOW64\wbemcomn.?AddLocale@CMUILocaleList@@AAEJPBGW4LocaleType@CMUILocale@@K@Z
  ?AddLong@CSafeArray@@QAEHJ@Z=C:\Windows\SysWOW64\wbemcomn.?AddLong@CSafeArray@@QAEHJ@Z
  ?AddMember@CLimitControl@@UAEJXZ=C:\Windows\SysWOW64\wbemcomn.?AddMember@CLimitControl@@UAEJXZ
  ?AddProperty@QL_LEVEL_1_RPN_EXPRESSION@@UAEXABVCPropertyName@@@Z=C:\Windows\SysWOW64\wbemcomn.?AddProperty@QL_LEVEL_1_RPN_EXPRESSION@@UAEXABVCPropertyName@@@Z
  ?AddRecord@CEventLog@@IAEHPAVCEventLogRecord@@@Z=C:\Windows\SysWOW64\wbemcomn.?AddRecord@CEventLog@@IAEHPAVCEventLogRecord@@@Z
  ?AddRef@CBasicUnloadInstruction@@UAEXXZ=C:\Windows\SysWOW64\wbemcomn.?AddRef@CBasicUnloadInstruction@@UAEXXZ
  ?AddRef@CBuffer@@UAGKXZ=C:\Windows\SysWOW64\wbemcomn.?AddRef@CBuffer@@UAGKXZ
  ?AddRef@CContainerControl@@UAEXPAUIUnknown@@@Z=C:\Windows\SysWOW64\wbemcomn.?AddRef@CContainerControl@@UAEXPAUIUnknown@@@Z
  ?AddRef@CExecQueue@@QAEXXZ=C:\Windows\SysWOW64\wbemcomn.?AddRef@CExecQueue@@QAEXXZ
  ?AddRef@CUnk@@UAGKXZ=C:\Windows\SysWOW64\wbemcomn.?AddRef@CUnk@@UAGKXZ
  ?AddRef@CUnkInternal@@UAGKXZ=C:\Windows\SysWOW64\wbemcomn.?AddRef@CUnkInternal@@UAGKXZ
  ?AddRef@CWbemCallSecurity@@UAGKXZ=C:\Windows\SysWOW64\wbemcomn.?AddRef@CWbemCallSecurity@@UAGKXZ
  ?AddRef@QL_LEVEL_1_RPN_EXPRESSION@@QAEXXZ=C:\Windows\SysWOW64\wbemcomn.?AddRef@QL_LEVEL_1_RPN_EXPRESSION@@QAEXXZ
  ?AddScalar@CSafeArray@@AAEHTSA_ArrayScalar@@@Z=C:\Windows\SysWOW64\wbemcomn.?AddScalar@CSafeArray@@AAEHTSA_ArrayScalar@@@Z
  ?AddShort@CSafeArray@@QAEHF@Z=C:\Windows\SysWOW64\wbemcomn.?AddShort@CSafeArray@@QAEHF@Z
  ?AddToken@QL_LEVEL_1_RPN_EXPRESSION@@QAEXABUQL_LEVEL_1_TOKEN@@@Z=C:\Windows\SysWOW64\wbemcomn.?AddToken@QL_LEVEL_1_RPN_EXPRESSION@@QAEXABUQL_LEVEL_1_TOKEN@@@Z
  ?AddToken@QL_LEVEL_1_RPN_EXPRESSION@@UAEXABU_tag_WbemQl1Token@@@Z=C:\Windows\SysWOW64\wbemcomn.?AddToken@QL_LEVEL_1_RPN_EXPRESSION@@UAEXABU_tag_WbemQl1Token@@@Z
  ?AddUnknown@CSafeArray@@QAEHPAUIUnknown@@@Z=C:\Windows\SysWOW64\wbemcomn.?AddUnknown@CSafeArray@@QAEHPAUIUnknown@@@Z
  ?AddVariant@CSafeArray@@QAEHPAUtagVARIANT@@@Z=C:\Windows\SysWOW64\wbemcomn.?AddVariant@CSafeArray@@QAEHPAUtagVARIANT@@@Z
  ?AdjustInitialPriority@CExecQueue@@MAEXPAVCExecRequest@@@Z=C:\Windows\SysWOW64\wbemcomn.?AdjustInitialPriority@CExecQueue@@MAEXPAVCExecRequest@@@Z
  ?AdjustPriorityForPassing@CExecQueue@@MAEXPAVCExecRequest@@@Z=C:\Windows\SysWOW64\wbemcomn.?AdjustPriorityForPassing@CExecQueue@@MAEXPAVCExecRequest@@@Z
  ?Advance@CBuffer@@QAEJK@Z=C:\Windows\SysWOW64\wbemcomn.?Advance@CBuffer@@QAEJK@Z
  ?AliasToTable@CWQLScanner@@QAEQAGPAG@Z=C:\Windows\SysWOW64\wbemcomn.?AliasToTable@CWQLScanner@@QAEQAGPAG@Z
  ?Alloc@CWin32DefaultArena@@UAEPAXK@Z=C:\Windows\SysWOW64\wbemcomn.?Alloc@CWin32DefaultArena@@UAEPAXK@Z
  ?AllocAmPm@CDateTimeParser@@IAEPAGXZ=C:\Windows\SysWOW64\wbemcomn.?AllocAmPm@CDateTimeParser@@IAEPAGXZ
  ?AppendBuffer@WString2@@AAEXPBGI@Z=C:\Windows\SysWOW64\wbemcomn.?AppendBuffer@WString2@@AAEXPBGI@Z
  ?AppendCulture@CMUILocaleList@@AAEJPBG@Z=C:\Windows\SysWOW64\wbemcomn.?AppendCulture@CMUILocaleList@@AAEJPBG@Z
  ?AppendLocale@CMUILocaleList@@AAEJPBG@Z=C:\Windows\SysWOW64\wbemcomn.?AppendLocale@CMUILocaleList@@AAEJPBG@Z
  ?Apply@CTextTemplate@@QAEPAGPAUIWbemClassObject@@@Z=C:\Windows\SysWOW64\wbemcomn.?Apply@CTextTemplate@@QAEPAGPAUIWbemClassObject@@@Z
  ?Bind@CFlexArray@@QAEXAAV1@@Z=C:\Windows\SysWOW64\wbemcomn.?Bind@CFlexArray@@QAEXAAV1@@Z
  ?BindPtr@WString2@@QAEXPAG@Z=C:\Windows\SysWOW64\wbemcomn.?BindPtr@WString2@@QAEXPAG@Z
  ?BindPtr@WString@@QAEXPAG@Z=C:\Windows\SysWOW64\wbemcomn.?BindPtr@WString@@QAEXPAG@Z
  ?BreakWait@CInstructionQueue@@QAEXXZ=C:\Windows\SysWOW64\wbemcomn.?BreakWait@CInstructionQueue@@QAEXXZ
  ?BuildSWQLColRef@CWQLScanner@@AAEHAAVCFlexArray@@AAUSWQLColRef@@@Z=C:\Windows\SysWOW64\wbemcomn.?BuildSWQLColRef@CWQLScanner@@AAEHAAVCFlexArray@@AAUSWQLColRef@@@Z
  ?CalcSitOutPenalty@CExecQueue@@MAEKJ@Z=C:\Windows\SysWOW64\wbemcomn.?CalcSitOutPenalty@CExecQueue@@MAEKJ@Z
  ?CanDelete@CVar@@QAEHXZ=C:\Windows\SysWOW64\wbemcomn.?CanDelete@CVar@@QAEHXZ
  ?CaptureStackTrace@CMemoryLog@@AAEXQAPAX@Z=C:\Windows\SysWOW64\wbemcomn.?CaptureStackTrace@CMemoryLog@@AAEXQAPAX@Z
  ?Change@CInstructionQueue@@QAEJPAVCTimerInstruction@@VCWbemTime@@@Z=C:\Windows\SysWOW64\wbemcomn.?Change@CInstructionQueue@@QAEJPAVCTimerInstruction@@VCWbemTime@@@Z
  ?ChangeTypeTo@CVar@@QAEHG@Z=C:\Windows\SysWOW64\wbemcomn.?ChangeTypeTo@CVar@@QAEHG@Z
  ?ChangeTypeToEx@CVar@@QAEHGK@Z=C:\Windows\SysWOW64\wbemcomn.?ChangeTypeToEx@CVar@@QAEHGK@Z
  ?CheckDMTFDateTimeFormat@CDateTimeParser@@SGHPBGHH@Z=C:\Windows\SysWOW64\wbemcomn.?CheckDMTFDateTimeFormat@CDateTimeParser@@SGHPBGHH@Z
  ?CheckDMTFDateTimeFormatInternal@CDateTimeParser@@IAEHPBG@Z=C:\Windows\SysWOW64\wbemcomn.?CheckDMTFDateTimeFormatInternal@CDateTimeParser@@IAEHPBG@Z
  ?CheckDMTFDateTimeInterval@CDateTimeParser@@SGHPBG@Z=C:\Windows\SysWOW64\wbemcomn.?CheckDMTFDateTimeInterval@CDateTimeParser@@SGHPBG@Z
  ?CheckDateFormat@CDateTimeParser@@IAEHPBGH@Z=C:\Windows\SysWOW64\wbemcomn.?CheckDateFormat@CDateTimeParser@@IAEHPBGH@Z
  ?CheckLangNeutral@CMUILocale@@SGJPBGPA_N@Z=C:\Windows\SysWOW64\wbemcomn.?CheckLangNeutral@CMUILocale@@SGJPBGPA_N@Z
  ?CheckTimeFormat@CDateTimeParser@@IAEHPBGH@Z=C:\Windows\SysWOW64\wbemcomn.?CheckTimeFormat@CDateTimeParser@@IAEHPBGH@Z
  ?CheckType@CSafeArray@@AAEXH@Z=C:\Windows\SysWOW64\wbemcomn.?CheckType@CSafeArray@@AAEXH@Z
  ?CleanUp@CWbemInstallObject@@SGXXZ=C:\Windows\SysWOW64\wbemcomn.?CleanUp@CWbemInstallObject@@SGXXZ
  ?ClearPropRefs@CWQLScanner@@AAEXXZ=C:\Windows\SysWOW64\wbemcomn.?ClearPropRefs@CWQLScanner@@AAEXXZ
  ?ClearTableRefs@CWQLScanner@@AAEXXZ=C:\Windows\SysWOW64\wbemcomn.?ClearTableRefs@CWQLScanner@@AAEXXZ
  ?ClearTokens@CWQLScanner@@AAEXXZ=C:\Windows\SysWOW64\wbemcomn.?ClearTokens@CWQLScanner@@AAEXXZ
  ?Clone@CBuffer@@UAGJPAPAUIStream@@@Z=C:\Windows\SysWOW64\wbemcomn.?Clone@CBuffer@@UAGJPAPAUIStream@@@Z
  ?CloneData@CSmallArrayBlob@@QAEPAPAXXZ=C:\Windows\SysWOW64\wbemcomn.?CloneData@CSmallArrayBlob@@QAEPAPAXXZ
  ?CloneThreadContext@CWbemCallSecurity@@UAEJH@Z=C:\Windows\SysWOW64\wbemcomn.?CloneThreadContext@CWbemCallSecurity@@UAEJH@Z
  ?CloneThreadToken@CWbemCallSecurity@@AAEJK@Z=C:\Windows\SysWOW64\wbemcomn.?CloneThreadToken@CWbemCallSecurity@@AAEJK@Z
  ?Close@CEventLog@@QAEHXZ=C:\Windows\SysWOW64\wbemcomn.?Close@CEventLog@@QAEHXZ
  ?CoCreateInstance@CWbemInstallObject@@SGJABU_GUID@@PAUIUnknown@@K0PAPAX@Z=C:\Windows\SysWOW64\wbemcomn.?CoCreateInstance@CWbemInstallObject@@SGJABU_GUID@@PAUIUnknown@@K0PAPAX@Z
  ?CoGetClassObject@CWbemInstallObject@@SGJABU_GUID@@KPAU_COSERVERINFO@@0PAPAX@Z=C:\Windows\SysWOW64\wbemcomn.?CoGetClassObject@CWbemInstallObject@@SGJABU_GUID@@KPAU_COSERVERINFO@@0PAPAX@Z
  ?Commit@CBuffer@@UAGJK@Z=C:\Windows\SysWOW64\wbemcomn.?Commit@CBuffer@@UAGJK@Z
  ?CompareEls@CFlexArray@@KAHPBX0@Z=C:\Windows\SysWOW64\wbemcomn.?CompareEls@CFlexArray@@KAHPBX0@Z
  ?CompareEls@CSmallArrayBlob@@KAHPBX0@Z=C:\Windows\SysWOW64\wbemcomn.?CompareEls@CSmallArrayBlob@@KAHPBX0@Z
  ?CompareTo@CVar@@QAEHAAV1@H@Z=C:\Windows\SysWOW64\wbemcomn.?CompareTo@CVar@@QAEHAAV1@H@Z
  ?CompareTo@CVarVector@@QAEHAAV1@H@Z=C:\Windows\SysWOW64\wbemcomn.?CompareTo@CVarVector@@QAEHAAV1@H@Z
  ?Compress@CFlexArray@@QAEXXZ=C:\Windows\SysWOW64\wbemcomn.?Compress@CFlexArray@@QAEXXZ
  ?Compress@CWStringArray@@QAEXXZ=C:\Windows\SysWOW64\wbemcomn.?Compress@CWStringArray@@QAEXXZ
  ?CompressBuffer@CMRCICompression@@QAEIPAEK0KW4CompressionLevel@1@@Z=C:\Windows\SysWOW64\wbemcomn.?CompressBuffer@CMRCICompression@@QAEIPAEK0KW4CompressionLevel@1@@Z
  ?CompressFile@CMRCICompression@@QAEHPBG0KW4CompressionLevel@1@PAVCMRCIControl@@@Z=C:\Windows\SysWOW64\wbemcomn.?CompressFile@CMRCICompression@@QAEHPBG0KW4CompressionLevel@1@PAVCMRCIControl@@@Z
  ?CompressFileV1@CMRCICompression@@IAEHHHKW4CompressionLevel@1@PAVCMRCIControl@@@Z=C:\Windows\SysWOW64\wbemcomn.?CompressFileV1@CMRCICompression@@IAEHHHKW4CompressionLevel@1@PAVCMRCIControl@@@Z
  ?ComputePenalty@CMinMaxLimitControl@@IAEJKKPAKPAH@Z=C:\Windows\SysWOW64\wbemcomn.?ComputePenalty@CMinMaxLimitControl@@IAEJKKPAKPAH@Z
  ?ConcatWithoutQuotes@CTextTemplate@@AAEXAAVWString2@@AAPAG@Z=C:\Windows\SysWOW64\wbemcomn.?ConcatWithoutQuotes@CTextTemplate@@AAEXAAVWString2@@AAPAG@Z
  ?ContainsSid@CNtAcl@@QAEHAAVCNtSid@@AAE@Z=C:\Windows\SysWOW64\wbemcomn.?ContainsSid@CNtAcl@@QAEHAAVCNtSid@@AAE@Z
  ?CopyBuffer@WString2@@AAEXPBGI@Z=C:\Windows\SysWOW64\wbemcomn.?CopyBuffer@WString2@@AAEXPBGI@Z
  ?CopyData@CSmallArrayBlob@@IAEXPAV1@@Z=C:\Windows\SysWOW64\wbemcomn.?CopyData@CSmallArrayBlob@@IAEXPAV1@@Z
  ?CopyDataFrom@CFlexArray@@QAEHABV1@@Z=C:\Windows\SysWOW64\wbemcomn.?CopyDataFrom@CFlexArray@@QAEHABV1@@Z
  ?CopyTo@CBuffer@@UAGJPAUIStream@@T_ULARGE_INTEGER@@PAT3@2@Z=C:\Windows\SysWOW64\wbemcomn.?CopyTo@CBuffer@@UAGJPAUIStream@@T_ULARGE_INTEGER@@PAT3@2@Z
  ?CopyTo@CNtSid@@QAEHPAX@Z=C:\Windows\SysWOW64\wbemcomn.?CopyTo@CNtSid@@QAEHPAX@Z
  ?CountQuery@CWQLScanner@@QAEHXZ=C:\Windows\SysWOW64\wbemcomn.?CountQuery@CWQLScanner@@QAEHXZ
  ?CreateBlob@CSmallArrayBlob@@SGPAV1@H@Z=C:\Windows\SysWOW64\wbemcomn.?CreateBlob@CSmallArrayBlob@@SGPAV1@H@Z
  ?CreateInst@CWbemCallSecurity@@SGPAVIWbemCallSecurity@@XZ=C:\Windows\SysWOW64\wbemcomn.?CreateInst@CWbemCallSecurity@@SGPAVIWbemCallSecurity@@XZ
  ?CreateNewThread@CExecQueue@@MAEHXZ=C:\Windows\SysWOW64\wbemcomn.?CreateNewThread@CExecQueue@@MAEHXZ
  ?CurrentLine@CAbstractQl1Parser@@QAEHXZ=C:\Windows\SysWOW64\wbemcomn.?CurrentLine@CAbstractQl1Parser@@QAEHXZ
  ?CurrentToken@CAbstractQl1Parser@@QAEPAGXZ=C:\Windows\SysWOW64\wbemcomn.?CurrentToken@CAbstractQl1Parser@@QAEPAGXZ
  ?DateFormat10@CDateTimeParser@@IAEHPBG0H@Z=C:\Windows\SysWOW64\wbemcomn.?DateFormat10@CDateTimeParser@@IAEHPBG0H@Z
  ?DateFormat11@CDateTimeParser@@IAEHPBG0H@Z=C:\Windows\SysWOW64\wbemcomn.?DateFormat11@CDateTimeParser@@IAEHPBG0H@Z
  ?DateFormat12@CDateTimeParser@@IAEHPBG0H@Z=C:\Windows\SysWOW64\wbemcomn.?DateFormat12@CDateTimeParser@@IAEHPBG0H@Z
  ?DateFormat13@CDateTimeParser@@IAEHPBG0H@Z=C:\Windows\SysWOW64\wbemcomn.?DateFormat13@CDateTimeParser@@IAEHPBG0H@Z
  ?DateFormat14@CDateTimeParser@@IAEHPBG0H@Z=C:\Windows\SysWOW64\wbemcomn.?DateFormat14@CDateTimeParser@@IAEHPBG0H@Z
  ?DateFormat15@CDateTimeParser@@IAEHPBGH@Z=C:\Windows\SysWOW64\wbemcomn.?DateFormat15@CDateTimeParser@@IAEHPBGH@Z
  ?DateFormat1@CDateTimeParser@@IAEHPBGH@Z=C:\Windows\SysWOW64\wbemcomn.?DateFormat1@CDateTimeParser@@IAEHPBGH@Z
  ?DateFormat2@CDateTimeParser@@IAEHPBGH@Z=C:\Windows\SysWOW64\wbemcomn.?DateFormat2@CDateTimeParser@@IAEHPBGH@Z
  ?DateFormat3@CDateTimeParser@@IAEHPBGH@Z=C:\Windows\SysWOW64\wbemcomn.?DateFormat3@CDateTimeParser@@IAEHPBGH@Z
  ?DateFormat4@CDateTimeParser@@IAEHPBGH@Z=C:\Windows\SysWOW64\wbemcomn.?DateFormat4@CDateTimeParser@@IAEHPBGH@Z
  ?DateFormat5@CDateTimeParser@@IAEHPBGH@Z=C:\Windows\SysWOW64\wbemcomn.?DateFormat5@CDateTimeParser@@IAEHPBGH@Z
  ?DateFormat6@CDateTimeParser@@IAEHPBGH@Z=C:\Windows\SysWOW64\wbemcomn.?DateFormat6@CDateTimeParser@@IAEHPBGH@Z
  ?DateFormat7@CDateTimeParser@@IAEHPBGH@Z=C:\Windows\SysWOW64\wbemcomn.?DateFormat7@CDateTimeParser@@IAEHPBGH@Z
  ?DateFormat8@CDateTimeParser@@IAEHPBGH@Z=C:\Windows\SysWOW64\wbemcomn.?DateFormat8@CDateTimeParser@@IAEHPBGH@Z
  ?DateFormat9@CDateTimeParser@@IAEHPBG0H@Z=C:\Windows\SysWOW64\wbemcomn.?DateFormat9@CDateTimeParser@@IAEHPBG0H@Z
  ?DebugDump@CFlexArray@@QAEXXZ=C:\Windows\SysWOW64\wbemcomn.?DebugDump@CFlexArray@@QAEXXZ
  ?DecrementIndex@CFlexQueue@@IAEXAAH@Z=C:\Windows\SysWOW64\wbemcomn.?DecrementIndex@CFlexQueue@@IAEXAAH@Z
  ?DeleteAce@CNtAcl@@QAEHH@Z=C:\Windows\SysWOW64\wbemcomn.?DeleteAce@CNtAcl@@QAEHH@Z
  ?DeletePropertyName@CAbstractQl1Parser@@IAEXXZ=C:\Windows\SysWOW64\wbemcomn.?DeletePropertyName@CAbstractQl1Parser@@IAEXXZ
  ?DeleteSacl@CNtSecurityDescriptor@@QAEJXZ=C:\Windows\SysWOW64\wbemcomn.?DeleteSacl@CNtSecurityDescriptor@@QAEJXZ
  ?DeleteStr@CWStringArray@@QAEHH@Z=C:\Windows\SysWOW64\wbemcomn.?DeleteStr@CWStringArray@@QAEHH@Z
  ?DeleteString@WString2@@AAEX_N@Z=C:\Windows\SysWOW64\wbemcomn.?DeleteString@WString2@@AAEX_N@Z
  ?DeleteString@WString@@AAEXPAG@Z=C:\Windows\SysWOW64\wbemcomn.?DeleteString@WString@@AAEXPAG@Z
  ?DeleteValue@Registry@@QAEHPBG@Z=C:\Windows\SysWOW64\wbemcomn.?DeleteValue@Registry@@QAEHPBG@Z
  ?Dequeue@CFlexQueue@@QAEPAXXZ=C:\Windows\SysWOW64\wbemcomn.?Dequeue@CFlexQueue@@QAEPAXXZ
  ?Dequeue@CInstructionQueue@@QAEJAAPAVCTimerInstruction@@AAVCWbemTime@@@Z=C:\Windows\SysWOW64\wbemcomn.?Dequeue@CInstructionQueue@@QAEJAAPAVCTimerInstruction@@AAVCWbemTime@@@Z
  ?Deserialize@C9XAce@@UAE_NPAE@Z=C:\Windows\SysWOW64\wbemcomn.?Deserialize@C9XAce@@UAE_NPAE@Z
  ?Deserialize@CNtAce@@UAE_NPAE@Z=C:\Windows\SysWOW64\wbemcomn.?Deserialize@CNtAce@@UAE_NPAE@Z
  ?Difference@CWStringArray@@SGXAAV1@00@Z=C:\Windows\SysWOW64\wbemcomn.?Difference@CWStringArray@@SGXAAV1@00@Z
  ?Disable@CTraceSessionControl@@QAEKXZ=C:\Windows\SysWOW64\wbemcomn.?Disable@CTraceSessionControl@@QAEKXZ
  ?DoLike@CLike@@IAE_NPBG0G@Z=C:\Windows\SysWOW64\wbemcomn.?DoLike@CLike@@IAE_NPBG0G@Z
  ?DoesNeedNewThread@CExecQueue@@MAEHPAVCExecRequest@@@Z=C:\Windows\SysWOW64\wbemcomn.?DoesNeedNewThread@CExecQueue@@MAEHPAVCExecRequest@@@Z
  ?DoesVectorTypeMatchArrayType@CVarVector@@QAEHXZ=C:\Windows\SysWOW64\wbemcomn.?DoesVectorTypeMatchArrayType@CVarVector@@QAEHXZ
  ?Dump@CWQLScanner@@QAEXXZ=C:\Windows\SysWOW64\wbemcomn.?Dump@CWQLScanner@@QAEXXZ
  ?Dump@QL_LEVEL_1_RPN_EXPRESSION@@QAEXPBD@Z=C:\Windows\SysWOW64\wbemcomn.?Dump@QL_LEVEL_1_RPN_EXPRESSION@@QAEXPBD@Z
  ?Dump@QL_LEVEL_1_TOKEN@@QAEXPAU_iobuf@@@Z=C:\Windows\SysWOW64\wbemcomn.?Dump@QL_LEVEL_1_TOKEN@@QAEXPAU_iobuf@@@Z
  ?DumpError@CExecRequest@@UAEXXZ=C:\Windows\SysWOW64\wbemcomn.?DumpError@CExecRequest@@UAEXXZ
  ?DumpText@CVar@@QAEHPAU_iobuf@@@Z=C:\Windows\SysWOW64\wbemcomn.?DumpText@CVar@@QAEHPAU_iobuf@@@Z
  ?ElementSize@CSafeArray@@QAEHXZ=C:\Windows\SysWOW64\wbemcomn.?ElementSize@CSafeArray@@QAEHXZ
  ?Empty@CFlexArray@@QAEXXZ=C:\Windows\SysWOW64\wbemcomn.?Empty@CFlexArray@@QAEXXZ
  ?Empty@CPropertyName@@QAEXXZ=C:\Windows\SysWOW64\wbemcomn.?Empty@CPropertyName@@QAEXXZ
  ?Empty@CSafeArray@@QAEXXZ=C:\Windows\SysWOW64\wbemcomn.?Empty@CSafeArray@@QAEXXZ
  ?Empty@CVar@@QAEXXZ=C:\Windows\SysWOW64\wbemcomn.?Empty@CVar@@QAEXXZ
  ?Empty@CVarVector@@QAEXXZ=C:\Windows\SysWOW64\wbemcomn.?Empty@CVarVector@@QAEXXZ
  ?Empty@CWStringArray@@QAEXXZ=C:\Windows\SysWOW64\wbemcomn.?Empty@CWStringArray@@QAEXXZ
  ?Empty@WString2@@QAEXXZ=C:\Windows\SysWOW64\wbemcomn.?Empty@WString2@@QAEXXZ
  ?Empty@WString@@QAEXXZ=C:\Windows\SysWOW64\wbemcomn.?Empty@WString@@QAEXXZ
  ?Enable@CTraceSessionControl@@QAEKXZ=C:\Windows\SysWOW64\wbemcomn.?Enable@CTraceSessionControl@@QAEKXZ
  ?EncryptedCall@CIdentitySecurity@@AAE_NXZ=C:\Windows\SysWOW64\wbemcomn.?EncryptedCall@CIdentitySecurity@@AAE_NXZ
  ?Enqueue@CExecQueue@@UAEJPAVCExecRequest@@PAPAX@Z=C:\Windows\SysWOW64\wbemcomn.?Enqueue@CExecQueue@@UAEJPAVCExecRequest@@PAPAX@Z
  ?Enqueue@CFlexQueue@@QAE_NPAX@Z=C:\Windows\SysWOW64\wbemcomn.?Enqueue@CFlexQueue@@QAE_NPAX@Z
  ?Enqueue@CInstructionQueue@@QAEJVCWbemTime@@PAVCTimerInstruction@@@Z=C:\Windows\SysWOW64\wbemcomn.?Enqueue@CInstructionQueue@@QAEJVCWbemTime@@PAVCTimerInstruction@@@Z
  ?EnqueueAndWait@CExecQueue@@QAEJPAVCExecRequest@@@Z=C:\Windows\SysWOW64\wbemcomn.?EnqueueAndWait@CExecQueue@@QAEJPAVCExecRequest@@@Z
  ?EnqueueWithoutSleep@CExecQueue@@QAEJPAVCExecRequest@@PAPAX@Z=C:\Windows\SysWOW64\wbemcomn.?EnqueueWithoutSleep@CExecQueue@@QAEJPAVCExecRequest@@PAPAX@Z
  ?EnsureAllocated@CPropertyName@@IAEXJ@Z=C:\Windows\SysWOW64\wbemcomn.?EnsureAllocated@CPropertyName@@IAEXJ@Z
  ?EnsureExtent@CFlexArray@@QAEHH@Z=C:\Windows\SysWOW64\wbemcomn.?EnsureExtent@CFlexArray@@QAEHH@Z
  ?EnsureExtent@CSmallArrayBlob@@IAEPAV1@H@Z=C:\Windows\SysWOW64\wbemcomn.?EnsureExtent@CSmallArrayBlob@@IAEPAV1@H@Z
  ?EnsureMatchState@CLike@@AAEXI@Z=C:\Windows\SysWOW64\wbemcomn.?EnsureMatchState@CLike@@AAEXI@Z
  ?EnsureRunning@CTimerGenerator@@AAEXXZ=C:\Windows\SysWOW64\wbemcomn.?EnsureRunning@CTimerGenerator@@AAEXXZ
  ?EnsureSize@CBuffer@@AAEXK@Z=C:\Windows\SysWOW64\wbemcomn.?EnsureSize@CBuffer@@AAEXK@Z
  ?Enter@CCheckedInCritSec@@QAEXXZ=C:\Windows\SysWOW64\wbemcomn.?Enter@CCheckedInCritSec@@QAEXXZ
  ?Enter@CCritSec@@QAEXXZ=C:\Windows\SysWOW64\wbemcomn.?Enter@CCritSec@@QAEXXZ
  ?Enter@CExecQueue@@QAEXXZ=C:\Windows\SysWOW64\wbemcomn.?Enter@CExecQueue@@QAEXXZ
  ?Enter@CStaticCritSec@@QAEXXZ=C:\Windows\SysWOW64\wbemcomn.?Enter@CStaticCritSec@@QAEXXZ
  ?Enter@CWbemCriticalSection@@QAEHK@Z=C:\Windows\SysWOW64\wbemcomn.?Enter@CWbemCriticalSection@@QAEHK@Z
  ?Equal@WString2@@QBEHPBG@Z=C:\Windows\SysWOW64\wbemcomn.?Equal@WString2@@QBEHPBG@Z
  ?Equal@WString@@QBEHPBG@Z=C:\Windows\SysWOW64\wbemcomn.?Equal@WString@@QBEHPBG@Z
  ?EqualNoCase@WString2@@QBEHPBG@Z=C:\Windows\SysWOW64\wbemcomn.?EqualNoCase@WString2@@QBEHPBG@Z
  ?EqualNoCase@WString@@QBEHPBG@Z=C:\Windows\SysWOW64\wbemcomn.?EqualNoCase@WString@@QBEHPBG@Z
  ?EscapeQuotes@WString2@@QBE?AV1@XZ=C:\Windows\SysWOW64\wbemcomn.?EscapeQuotes@WString2@@QBE?AV1@XZ
  ?EscapeQuotes@WString@@QBE?AV1@XZ=C:\Windows\SysWOW64\wbemcomn.?EscapeQuotes@WString@@QBE?AV1@XZ
  ?Execute@CExecQueue@@MAEHPAVCThreadRecord@1@@Z=C:\Windows\SysWOW64\wbemcomn.?Execute@CExecQueue@@MAEHPAVCThreadRecord@1@@Z
  ?ExpandEnvironmentStringsW@CWbemInstallObject@@SGKPBGPAGK@Z=C:\Windows\SysWOW64\wbemcomn.?ExpandEnvironmentStringsW@CWbemInstallObject@@SGKPBGPAGK@Z
  ?ExpandVariableValue@CWbemInstallObject@@CGJPBGPAGIPAI@Z=C:\Windows\SysWOW64\wbemcomn.?ExpandVariableValue@CWbemInstallObject@@CGJPBGPAGIPAI@Z
  ?ExtractNext@CWQLScanner@@AAEPAUWSLexToken@@H@Z=C:\Windows\SysWOW64\wbemcomn.?ExtractNext@CWQLScanner@@AAEPAUWSLexToken@@H@Z
  ?ExtractSelectType@CWQLScanner@@AAEHXZ=C:\Windows\SysWOW64\wbemcomn.?ExtractSelectType@CWQLScanner@@AAEHXZ
  ?ExtractToken@WString2@@QAEHGAAV1@@Z=C:\Windows\SysWOW64\wbemcomn.?ExtractToken@WString2@@QAEHGAAV1@@Z
  ?ExtractToken@WString2@@QAEHPBGAAV1@@Z=C:\Windows\SysWOW64\wbemcomn.?ExtractToken@WString2@@QAEHPBGAAV1@@Z
  ?ExtractToken@WString@@QAEHGAAV1@@Z=C:\Windows\SysWOW64\wbemcomn.?ExtractToken@WString@@QAEHGAAV1@@Z
  ?ExtractToken@WString@@QAEHPBGAAV1@@Z=C:\Windows\SysWOW64\wbemcomn.?ExtractToken@WString@@QAEHPBGAAV1@@Z
  ?Fatal@CSafeArray@@AAEXPBD@Z=C:\Windows\SysWOW64\wbemcomn.?Fatal@CSafeArray@@AAEXPBD@Z
  ?FillCVarAt@CVarVector@@QAEXHAAVCVar@@@Z=C:\Windows\SysWOW64\wbemcomn.?FillCVarAt@CVarVector@@QAEXHAAVCVar@@@Z
  ?FillDMTF@CDateTimeParser@@QAEHPAGI@Z=C:\Windows\SysWOW64\wbemcomn.?FillDMTF@CDateTimeParser@@QAEHPAGI@Z
  ?FillVariant@CVar@@QAEXPAUtagVARIANT@@H@Z=C:\Windows\SysWOW64\wbemcomn.?FillVariant@CVar@@QAEXPAUtagVARIANT@@H@Z
  ?FinalizeMatchState@CLike@@AAEXXZ=C:\Windows\SysWOW64\wbemcomn.?FinalizeMatchState@CLike@@AAEXXZ
  ?FindStr@CWStringArray@@QAEHPBGH@Z=C:\Windows\SysWOW64\wbemcomn.?FindStr@CWStringArray@@QAEHPBGH@Z
  ?FlipOperator@CAbstractQl1Parser@@IAEHH@Z=C:\Windows\SysWOW64\wbemcomn.?FlipOperator@CAbstractQl1Parser@@IAEHH@Z
  ?FlushRepository@CWbemInstallObject@@SGJXZ=C:\Windows\SysWOW64\wbemcomn.?FlushRepository@CWbemInstallObject@@SGJXZ
  ?Free@CWin32DefaultArena@@UAEHPAX@Z=C:\Windows\SysWOW64\wbemcomn.?Free@CWin32DefaultArena@@UAEHPAX@Z
  ?FreeMap@CWbemInstallObject@@SGXXZ=C:\Windows\SysWOW64\wbemcomn.?FreeMap@CWbemInstallObject@@SGXXZ
  ?Get100nss@CWbemTime@@QBE_JXZ=C:\Windows\SysWOW64\wbemcomn.?Get100nss@CWbemTime@@QBE_JXZ
  ?GetAbsoluteCopy@CNtSecurityDescriptor@@QAEPAUSNtAbsoluteSD@@XZ=C:\Windows\SysWOW64\wbemcomn.?GetAbsoluteCopy@CNtSecurityDescriptor@@QAEPAUSNtAbsoluteSD@@XZ
  ?GetAccessMask@C9XAce@@UAEKXZ=C:\Windows\SysWOW64\wbemcomn.?GetAccessMask@C9XAce@@UAEKXZ
  ?GetAccessMask@CNtAce@@UAEKXZ=C:\Windows\SysWOW64\wbemcomn.?GetAccessMask@CNtAce@@UAEKXZ
  ?GetAce@CNtAcl@@QAEHHAAVCNtAce@@@Z=C:\Windows\SysWOW64\wbemcomn.?GetAce@CNtAcl@@QAEHHAAVCNtAce@@@Z
  ?GetAce@CNtAcl@@QAEPAVCNtAce@@H@Z=C:\Windows\SysWOW64\wbemcomn.?GetAce@CNtAcl@@QAEPAVCNtAce@@H@Z
  ?GetAclSizeInfo@CNtAcl@@QAEHPAK0@Z=C:\Windows\SysWOW64\wbemcomn.?GetAclSizeInfo@CNtAcl@@QAEHPAK0@Z
  ?GetActiveImpersonation@CWbemCallSecurity@@UAEJXZ=C:\Windows\SysWOW64\wbemcomn.?GetActiveImpersonation@CWbemCallSecurity@@UAEJXZ
  ?GetActualVarType@CSafeArray@@QAEHPAG@Z=C:\Windows\SysWOW64\wbemcomn.?GetActualVarType@CSafeArray@@QAEHPAG@Z
  ?GetAreaFlags@CWMITraceSettings@@QAEKXZ=C:\Windows\SysWOW64\wbemcomn.?GetAreaFlags@CWMITraceSettings@@QAEKXZ
  ?GetArenaHeap@CWin32DefaultArena@@SGPAXXZ=C:\Windows\SysWOW64\wbemcomn.?GetArenaHeap@CWin32DefaultArena@@SGPAXXZ
  ?GetArray@CSafeArray@@QAEPAUtagSAFEARRAY@@XZ=C:\Windows\SysWOW64\wbemcomn.?GetArray@CSafeArray@@QAEPAUtagSAFEARRAY@@XZ
  ?GetArrayCopy@CSafeArray@@QAEPAUtagSAFEARRAY@@XZ=C:\Windows\SysWOW64\wbemcomn.?GetArrayCopy@CSafeArray@@QAEPAUtagSAFEARRAY@@XZ
  ?GetArrayPtr@CFlexArray@@QAEPAPAXXZ=C:\Windows\SysWOW64\wbemcomn.?GetArrayPtr@CFlexArray@@QAEPAPAXXZ
  ?GetArrayPtr@CFlexArray@@QBEPBQAXXZ=C:\Windows\SysWOW64\wbemcomn.?GetArrayPtr@CFlexArray@@QBEPBQAXXZ
  ?GetArrayPtr@CSmallArrayBlob@@QAEPAPAXXZ=C:\Windows\SysWOW64\wbemcomn.?GetArrayPtr@CSmallArrayBlob@@QAEPAPAXXZ
  ?GetArrayPtr@CSmallArrayBlob@@QBEPBQAXXZ=C:\Windows\SysWOW64\wbemcomn.?GetArrayPtr@CSmallArrayBlob@@QBEPBQAXXZ
  ?GetArrayPtr@CWStringArray@@QAEPAPBGXZ=C:\Windows\SysWOW64\wbemcomn.?GetArrayPtr@CWStringArray@@QAEPAPBGXZ
  ?GetAt@CFlexArray@@QBEPAXH@Z=C:\Windows\SysWOW64\wbemcomn.?GetAt@CFlexArray@@QBEPAXH@Z
  ?GetAt@CSmallArrayBlob@@QBEPAXH@Z=C:\Windows\SysWOW64\wbemcomn.?GetAt@CSmallArrayBlob@@QBEPAXH@Z
  ?GetAt@CVarVector@@QAEAAVCVar@@H@Z=C:\Windows\SysWOW64\wbemcomn.?GetAt@CVarVector@@QAEAAVCVar@@H@Z
  ?GetAt@CWStringArray@@QBEPAGH@Z=C:\Windows\SysWOW64\wbemcomn.?GetAt@CWStringArray@@QBEPAGH@Z
  ?GetAuthenticationId@CWbemCallSecurity@@UAEKAAU_LUID@@@Z=C:\Windows\SysWOW64\wbemcomn.?GetAuthenticationId@CWbemCallSecurity@@UAEKAAU_LUID@@@Z
  ?GetAutoRecoverFolder@CWbemInstallObject@@SGPBGXZ=C:\Windows\SysWOW64\wbemcomn.?GetAutoRecoverFolder@CWbemInstallObject@@SGPBGXZ
  ?GetBSTR@CVar@@QAEPAGXZ=C:\Windows\SysWOW64\wbemcomn.?GetBSTR@CVar@@QAEPAGXZ
  ?GetBSTRAt@CSafeArray@@QAEPAGH@Z=C:\Windows\SysWOW64\wbemcomn.?GetBSTRAt@CSafeArray@@QAEPAGH@Z
  ?GetBSTRAtThrow@CSafeArray@@QAEPAGH@Z=C:\Windows\SysWOW64\wbemcomn.?GetBSTRAtThrow@CSafeArray@@QAEPAGH@Z
  ?GetBinary@Registry@@QAEHPBGPAPAEPAK@Z=C:\Windows\SysWOW64\wbemcomn.?GetBinary@Registry@@QAEHPBGPAPAEPAK@Z
  ?GetBinaryPath@CWbemInstallObject@@SGPBGXZ=C:\Windows\SysWOW64\wbemcomn.?GetBinaryPath@CWbemInstallObject@@SGPBGXZ
  ?GetBlob@CVar@@QAEPAUtagBLOB@@XZ=C:\Windows\SysWOW64\wbemcomn.?GetBlob@CVar@@QAEPAUtagBLOB@@XZ
  ?GetBool@CVar@@QAEFXZ=C:\Windows\SysWOW64\wbemcomn.?GetBool@CVar@@QAEFXZ
  ?GetBoolAt@CSafeArray@@QAEFH@Z=C:\Windows\SysWOW64\wbemcomn.?GetBoolAt@CSafeArray@@QAEFH@Z
  ?GetByte@CVar@@QAEEXZ=C:\Windows\SysWOW64\wbemcomn.?GetByte@CVar@@QAEEXZ
  ?GetByteAt@CSafeArray@@QAEEH@Z=C:\Windows\SysWOW64\wbemcomn.?GetByteAt@CSafeArray@@QAEEH@Z
  ?GetCallerIdentity@CWbemCallSecurity@@QAEPBGXZ=C:\Windows\SysWOW64\wbemcomn.?GetCallerIdentity@CWbemCallSecurity@@QAEPBGXZ
  ?GetChar@CVar@@QAEDXZ=C:\Windows\SysWOW64\wbemcomn.?GetChar@CVar@@QAEDXZ
  ?GetChildren@CClientOpsNode@@QAEPAV1@XZ=C:\Windows\SysWOW64\wbemcomn.?GetChildren@CClientOpsNode@@QAEPAV1@XZ
  ?GetClsId@CVar@@QAEPAU_GUID@@XZ=C:\Windows\SysWOW64\wbemcomn.?GetClsId@CVar@@QAEPAU_GUID@@XZ
  ?GetCompressedFileInfo@CMRCICompression@@SGHPBGAAW4CompressionLevel@1@AAKAAU_FILETIME@@AA_J@Z=C:\Windows\SysWOW64\wbemcomn.?GetCompressedFileInfo@CMRCICompression@@SGHPBGAAW4CompressionLevel@1@AAKAAU_FILETIME@@AA_J@Z
  ?GetCreationTime@CEventLogRecord@@QAE?AVCWbemTime@@XZ=C:\Windows\SysWOW64\wbemcomn.?GetCreationTime@CEventLogRecord@@QAE?AVCWbemTime@@XZ
  ?GetCultures@CMUILocaleList@@QAEPBGXZ=C:\Windows\SysWOW64\wbemcomn.?GetCultures@CMUILocaleList@@QAEPBGXZ
  ?GetDMTF@CWbemTime@@AAEHHKPAG@Z=C:\Windows\SysWOW64\wbemcomn.?GetDMTF@CWbemTime@@AAEHHKPAG@Z
  ?GetDWORD@CVar@@QAEKXZ=C:\Windows\SysWOW64\wbemcomn.?GetDWORD@CVar@@QAEKXZ
  ?GetDWORD@Registry@@QAEHPBGPAK@Z=C:\Windows\SysWOW64\wbemcomn.?GetDWORD@Registry@@QAEHPBGPAK@Z
  ?GetDWORDStr@Registry@@QAEHPBGPAK@Z=C:\Windows\SysWOW64\wbemcomn.?GetDWORDStr@Registry@@QAEHPBGPAK@Z
  ?GetDacl@CNtSecurityDescriptor@@QAEHAAVCNtAcl@@@Z=C:\Windows\SysWOW64\wbemcomn.?GetDacl@CNtSecurityDescriptor@@QAEHAAVCNtAcl@@@Z
  ?GetDacl@CNtSecurityDescriptor@@QAEJPAPAVCNtAcl@@@Z=C:\Windows\SysWOW64\wbemcomn.?GetDacl@CNtSecurityDescriptor@@QAEJPAPAVCNtAcl@@@Z
  ?GetDacl@CNtSecurityDescriptor@@QAEPAVCNtAcl@@XZ=C:\Windows\SysWOW64\wbemcomn.?GetDacl@CNtSecurityDescriptor@@QAEPAVCNtAcl@@XZ
  ?GetDay@CDateTimeParser@@QAEEXZ=C:\Windows\SysWOW64\wbemcomn.?GetDay@CDateTimeParser@@QAEEXZ
  ?GetDispatch@CVar@@QAEPAUIDispatch@@XZ=C:\Windows\SysWOW64\wbemcomn.?GetDispatch@CVar@@QAEPAUIDispatch@@XZ
  ?GetDispatchAt@CSafeArray@@QAEPAUIDispatch@@H@Z=C:\Windows\SysWOW64\wbemcomn.?GetDispatchAt@CSafeArray@@QAEPAUIDispatch@@H@Z
  ?GetDouble@CVar@@QAENXZ=C:\Windows\SysWOW64\wbemcomn.?GetDouble@CVar@@QAENXZ
  ?GetDoubleAt@CSafeArray@@QAENH@Z=C:\Windows\SysWOW64\wbemcomn.?GetDoubleAt@CSafeArray@@QAENH@Z
  ?GetElementSize@CVarVector@@QAEHXZ=C:\Windows\SysWOW64\wbemcomn.?GetElementSize@CVarVector@@QAEHXZ
  ?GetEmbeddedObject@CVar@@QAEPAUIUnknown@@XZ=C:\Windows\SysWOW64\wbemcomn.?GetEmbeddedObject@CVar@@QAEPAUIUnknown@@XZ
  ?GetEnvironmentValue@CWbemInstallObject@@CGJPBGPAPBG@Z=C:\Windows\SysWOW64\wbemcomn.?GetEnvironmentValue@CWbemInstallObject@@CGJPBGPAPBG@Z
  ?GetEventTraceProperties@CWMITraceSettings@@QAEPAU_EVENT_TRACE_PROPERTIES@@XZ=C:\Windows\SysWOW64\wbemcomn.?GetEventTraceProperties@CWMITraceSettings@@QAEPAU_EVENT_TRACE_PROPERTIES@@XZ
  ?GetExpression@CLike@@QAEPBGXZ=C:\Windows\SysWOW64\wbemcomn.?GetExpression@CLike@@QAEPBGXZ
  ?GetFILETIME@CWbemTime@@QBEHPAU_FILETIME@@@Z=C:\Windows\SysWOW64\wbemcomn.?GetFILETIME@CWbemTime@@QBEHPAU_FILETIME@@@Z
  ?GetFileTime@CVar@@QAE?AU_FILETIME@@XZ=C:\Windows\SysWOW64\wbemcomn.?GetFileTime@CVar@@QAE?AU_FILETIME@@XZ
  ?GetFirstFiringTime@CBasicUnloadInstruction@@UBE?AVCWbemTime@@XZ=C:\Windows\SysWOW64\wbemcomn.?GetFirstFiringTime@CBasicUnloadInstruction@@UBE?AVCWbemTime@@XZ
  ?GetFirst_ms_XXX_Locale@CMUILocaleList@@QAEJPAPAG@Z=C:\Windows\SysWOW64\wbemcomn.?GetFirst_ms_XXX_Locale@CMUILocaleList@@QAEJPAPAG@Z
  ?GetFlags@C9XAce@@UAEHXZ=C:\Windows\SysWOW64\wbemcomn.?GetFlags@C9XAce@@UAEHXZ
  ?GetFlags@CNtAce@@UAEHXZ=C:\Windows\SysWOW64\wbemcomn.?GetFlags@CNtAce@@UAEHXZ
  ?GetFloat@CVar@@QAEMXZ=C:\Windows\SysWOW64\wbemcomn.?GetFloat@CVar@@QAEMXZ
  ?GetFloatAt@CSafeArray@@QAEMH@Z=C:\Windows\SysWOW64\wbemcomn.?GetFloatAt@CSafeArray@@QAEMH@Z
  ?GetFunctionPointers@CMUILocale@@CGJXZ=C:\Windows\SysWOW64\wbemcomn.?GetFunctionPointers@CMUILocale@@CGJXZ
  ?GetFunctionPointers@CPublishWMIOperationEvent@@SGJXZ=C:\Windows\SysWOW64\wbemcomn.?GetFunctionPointers@CPublishWMIOperationEvent@@SGJXZ
  ?GetGroup@CNtSecurityDescriptor@@QAEPAVCNtSid@@XZ=C:\Windows\SysWOW64\wbemcomn.?GetGroup@CNtSecurityDescriptor@@QAEPAVCNtSid@@XZ
  ?GetHandle@CPropertyName@@QAEPAXXZ=C:\Windows\SysWOW64\wbemcomn.?GetHandle@CPropertyName@@QAEPAXXZ
  ?GetHours@CDateTimeParser@@QAEEXZ=C:\Windows\SysWOW64\wbemcomn.?GetHours@CDateTimeParser@@QAEEXZ
  ?GetIdleTimeout@CExecQueue@@MAEKPAVCThreadRecord@1@@Z=C:\Windows\SysWOW64\wbemcomn.?GetIdleTimeout@CExecQueue@@MAEKPAVCThreadRecord@1@@Z
  ?GetIndex@CBuffer@@QAEKXZ=C:\Windows\SysWOW64\wbemcomn.?GetIndex@CBuffer@@QAEKXZ
  ?GetInfinity@CWbemInterval@@SG?AV1@XZ=C:\Windows\SysWOW64\wbemcomn.?GetInfinity@CWbemInterval@@SG?AV1@XZ
  ?GetInfinity@CWbemTime@@SG?AV1@XZ=C:\Windows\SysWOW64\wbemcomn.?GetInfinity@CWbemTime@@SG?AV1@XZ
  ?GetInfo@CClientOpsNode@@QAEPAXXZ=C:\Windows\SysWOW64\wbemcomn.?GetInfo@CClientOpsNode@@QAEPAXXZ
  ?GetInfo@CNtSid@@QAEHPAPAG0PAK@Z=C:\Windows\SysWOW64\wbemcomn.?GetInfo@CNtSid@@QAEHPAPAG0PAK@Z
  ?GetInnerUnknown@CUnk@@QAEPAUIUnknown@@XZ=C:\Windows\SysWOW64\wbemcomn.?GetInnerUnknown@CUnk@@QAEPAUIUnknown@@XZ
  ?GetInstructionType@CBasicUnloadInstruction@@UAEHXZ=C:\Windows\SysWOW64\wbemcomn.?GetInstructionType@CBasicUnloadInstruction@@UAEHXZ
  ?GetLPSTR@CVar@@QAEPADXZ=C:\Windows\SysWOW64\wbemcomn.?GetLPSTR@CVar@@QAEPADXZ
  ?GetLPSTR@WString2@@QBEPADXZ=C:\Windows\SysWOW64\wbemcomn.?GetLPSTR@WString2@@QBEPADXZ
  ?GetLPSTR@WString@@QBEPADXZ=C:\Windows\SysWOW64\wbemcomn.?GetLPSTR@WString@@QBEPADXZ
  ?GetLPWSTR@CVar@@QAEPAGXZ=C:\Windows\SysWOW64\wbemcomn.?GetLPWSTR@CVar@@QAEPAGXZ
  ?GetLToken@WString2@@QBEPAGG@Z=C:\Windows\SysWOW64\wbemcomn.?GetLToken@WString2@@QBEPAGG@Z
  ?GetLToken@WString@@QBEPAGG@Z=C:\Windows\SysWOW64\wbemcomn.?GetLToken@WString@@QBEPAGG@Z
  ?GetLastError@Registry@@QAEJXZ=C:\Windows\SysWOW64\wbemcomn.?GetLastError@Registry@@QAEJXZ
  ?GetLocalInfoAndAlloc@CDateTimeParser@@IAEXKAAPAG@Z=C:\Windows\SysWOW64\wbemcomn.?GetLocalInfoAndAlloc@CDateTimeParser@@IAEXKAAPAG@Z
  ?GetLocalOffsetForDate@CWbemTime@@SGJPBU_SYSTEMTIME@@@Z=C:\Windows\SysWOW64\wbemcomn.?GetLocalOffsetForDate@CWbemTime@@SGJPBU_SYSTEMTIME@@@Z
  ?GetLocales@CMUILocaleList@@QAEPBGXZ=C:\Windows\SysWOW64\wbemcomn.?GetLocales@CMUILocaleList@@QAEPBGXZ
  ?GetLockCount@CWbemCriticalSection@@QAEJXZ=C:\Windows\SysWOW64\wbemcomn.?GetLockCount@CWbemCriticalSection@@QAEJXZ
  ?GetLong@CVar@@QAEJXZ=C:\Windows\SysWOW64\wbemcomn.?GetLong@CVar@@QAEJXZ
  ?GetLongAt@CSafeArray@@QAEJH@Z=C:\Windows\SysWOW64\wbemcomn.?GetLongAt@CSafeArray@@QAEJH@Z
  ?GetMicroseconds@CDateTimeParser@@QAEIXZ=C:\Windows\SysWOW64\wbemcomn.?GetMicroseconds@CDateTimeParser@@QAEIXZ
  ?GetMilliseconds@CWbemInterval@@QBEKXZ=C:\Windows\SysWOW64\wbemcomn.?GetMilliseconds@CWbemInterval@@QBEKXZ
  ?GetMinutes@CDateTimeParser@@QAEEXZ=C:\Windows\SysWOW64\wbemcomn.?GetMinutes@CDateTimeParser@@QAEEXZ
  ?GetMonth@CDateTimeParser@@QAEEXZ=C:\Windows\SysWOW64\wbemcomn.?GetMonth@CDateTimeParser@@QAEEXZ
  ?GetMultiStr@Registry@@QAEPAGPBGAAK@Z=C:\Windows\SysWOW64\wbemcomn.?GetMultiStr@Registry@@QAEPAGPBGAAK@Z
  ?GetNewSafeArray@CVar@@QAEPAUtagSAFEARRAY@@XZ=C:\Windows\SysWOW64\wbemcomn.?GetNewSafeArray@CVar@@QAEPAUtagSAFEARRAY@@XZ
  ?GetNewSafeArray@CVarVector@@QAEPAUtagSAFEARRAY@@XZ=C:\Windows\SysWOW64\wbemcomn.?GetNewSafeArray@CVarVector@@QAEPAUtagSAFEARRAY@@XZ
  ?GetNewVariant@CVar@@QAEPAUtagVARIANT@@XZ=C:\Windows\SysWOW64\wbemcomn.?GetNewVariant@CVar@@QAEPAUtagVARIANT@@XZ
  ?GetNext@CClientOpsNode@@QAEPAV1@XZ=C:\Windows\SysWOW64\wbemcomn.?GetNext@CClientOpsNode@@QAEPAV1@XZ
  ?GetNext@CExecRequest@@QAEPAV1@XZ=C:\Windows\SysWOW64\wbemcomn.?GetNext@CExecRequest@@QAEPAV1@XZ
  ?GetNextElement@CCircularQueue@@QAEKPAPAULOG_ELEMENT@@@Z=C:\Windows\SysWOW64\wbemcomn.?GetNextElement@CCircularQueue@@QAEKPAPAULOG_ELEMENT@@@Z
  ?GetNextFiringTime@CBasicUnloadInstruction@@UBE?AVCWbemTime@@V2@PAJ@Z=C:\Windows\SysWOW64\wbemcomn.?GetNextFiringTime@CBasicUnloadInstruction@@UBE?AVCWbemTime@@V2@PAJ@Z
  ?GetNumAces@CNtAcl@@QAEHXZ=C:\Windows\SysWOW64\wbemcomn.?GetNumAces@CNtAcl@@QAEHXZ
  ?GetNumElements@CPropertyName@@QBEJXZ=C:\Windows\SysWOW64\wbemcomn.?GetNumElements@CPropertyName@@QBEJXZ
  ?GetNumInstructions@CInstructionQueue@@QAEJXZ=C:\Windows\SysWOW64\wbemcomn.?GetNumInstructions@CInstructionQueue@@QAEJXZ
  ?GetNumStrings@CEventLogRecord@@QAEGXZ=C:\Windows\SysWOW64\wbemcomn.?GetNumStrings@CEventLogRecord@@QAEGXZ
  ?GetOleType@CVar@@QAEHXZ=C:\Windows\SysWOW64\wbemcomn.?GetOleType@CVar@@QAEHXZ
  ?GetOwner@CNtSecurityDescriptor@@QAEPAVCNtSid@@XZ=C:\Windows\SysWOW64\wbemcomn.?GetOwner@CNtSecurityDescriptor@@QAEPAVCNtSid@@XZ
  ?GetOwningThreadId@CWbemCriticalSection@@QAEKXZ=C:\Windows\SysWOW64\wbemcomn.?GetOwningThreadId@CWbemCriticalSection@@QAEKXZ
  ?GetPart@CDatePart@@QAEJHPAH@Z=C:\Windows\SysWOW64\wbemcomn.?GetPart@CDatePart@@QAEJHPAH@Z
  ?GetPersistentCfgValue@CPersistentConfig@@QAEHKAAK@Z=C:\Windows\SysWOW64\wbemcomn.?GetPersistentCfgValue@CPersistentConfig@@QAEHKAAK@Z
  ?GetPotentialImpersonation@CWbemCallSecurity@@UAEJXZ=C:\Windows\SysWOW64\wbemcomn.?GetPotentialImpersonation@CWbemCallSecurity@@UAEJXZ
  ?GetPreferedDateFormat@CDateTimeParser@@IAEXXZ=C:\Windows\SysWOW64\wbemcomn.?GetPreferedDateFormat@CDateTimeParser@@IAEXXZ
  ?GetPreferredLanguages@CMUILocale@@SGJKPAPAGPAK@Z=C:\Windows\SysWOW64\wbemcomn.?GetPreferredLanguages@CMUILocale@@SGJKPAPAGPAK@Z
  ?GetPreferredLanguages@CMUILocale@@SGJPAPAGPAK@Z=C:\Windows\SysWOW64\wbemcomn.?GetPreferredLanguages@CMUILocale@@SGJPAPAGPAK@Z
  ?GetPrevious@CClientOpsNode@@QAEPAV1@XZ=C:\Windows\SysWOW64\wbemcomn.?GetPrevious@CClientOpsNode@@QAEPAV1@XZ
  ?GetPriority@CExecRequest@@QAEJXZ=C:\Windows\SysWOW64\wbemcomn.?GetPriority@CExecRequest@@QAEJXZ
  ?GetPropertyFromIUnknown@CTextTemplate@@AAEPAGPAGPAUIUnknown@@@Z=C:\Windows\SysWOW64\wbemcomn.?GetPropertyFromIUnknown@CTextTemplate@@AAEPAGPAGPAUIUnknown@@@Z
  ?GetPtr@CNtAce@@QAEPAU_ACCESS_ALLOWED_ACE@@XZ=C:\Windows\SysWOW64\wbemcomn.?GetPtr@CNtAce@@QAEPAU_ACCESS_ALLOWED_ACE@@XZ
  ?GetPtr@CNtAcl@@QAEPAU_ACL@@XZ=C:\Windows\SysWOW64\wbemcomn.?GetPtr@CNtAcl@@QAEPAU_ACL@@XZ
  ?GetPtr@CNtSecurityDescriptor@@QAEPAXXZ=C:\Windows\SysWOW64\wbemcomn.?GetPtr@CNtSecurityDescriptor@@QAEPAXXZ
  ?GetPtr@CNtSid@@QAEPAXXZ=C:\Windows\SysWOW64\wbemcomn.?GetPtr@CNtSid@@QAEPAXXZ
  ?GetQWORD@Registry@@QAEHPBGPA_K@Z=C:\Windows\SysWOW64\wbemcomn.?GetQWORD@Registry@@QAEHPBGPA_K@Z
  ?GetQueryClass@QL1_Parser@@QAEHPAGH@Z=C:\Windows\SysWOW64\wbemcomn.?GetQueryClass@QL1_Parser@@QAEHPAGH@Z
  ?GetQueueSize@CFlexQueue@@QBEHXZ=C:\Windows\SysWOW64\wbemcomn.?GetQueueSize@CFlexQueue@@QBEHXZ
  ?GetRawArrayData@CVarVector@@QAEJPAXH@Z=C:\Windows\SysWOW64\wbemcomn.?GetRawArrayData@CVarVector@@QAEJPAXH@Z
  ?GetRawData@CBuffer@@QAEPAEXZ=C:\Windows\SysWOW64\wbemcomn.?GetRawData@CBuffer@@QAEPAEXZ
  ?GetRawData@CSafeArray@@QAEHPAXH@Z=C:\Windows\SysWOW64\wbemcomn.?GetRawData@CSafeArray@@QAEHPAXH@Z
  ?GetRawData@CVar@@QAEPAXXZ=C:\Windows\SysWOW64\wbemcomn.?GetRawData@CVar@@QAEPAXXZ
  ?GetRecursionCount@CWbemCriticalSection@@QAEJXZ=C:\Windows\SysWOW64\wbemcomn.?GetRecursionCount@CWbemCriticalSection@@QAEJXZ
  ?GetReferencedAliases@CWQLScanner@@QAEHAAVCWStringArray@@@Z=C:\Windows\SysWOW64\wbemcomn.?GetReferencedAliases@CWQLScanner@@QAEHAAVCWStringArray@@@Z
  ?GetReferencedTables@CWQLScanner@@QAEHAAVCWStringArray@@@Z=C:\Windows\SysWOW64\wbemcomn.?GetReferencedTables@CWQLScanner@@QAEHAAVCWStringArray@@@Z
  ?GetRegistryPathCIMOM@CWbemInstallObject@@SGPBGXZ=C:\Windows\SysWOW64\wbemcomn.?GetRegistryPathCIMOM@CWbemInstallObject@@SGPBGXZ
  ?GetRegistryPathWbem@CWbemInstallObject@@SGPBGXZ=C:\Windows\SysWOW64\wbemcomn.?GetRegistryPathWbem@CWbemInstallObject@@SGPBGXZ
  ?GetRepositoryFolder@CWbemInstallObject@@SGPBGXZ=C:\Windows\SysWOW64\wbemcomn.?GetRepositoryFolder@CWbemInstallObject@@SGPBGXZ
  ?GetSYSTEMTIME@CWbemTime@@QBEHPAU_SYSTEMTIME@@@Z=C:\Windows\SysWOW64\wbemcomn.?GetSYSTEMTIME@CWbemTime@@QBEHPAU_SYSTEMTIME@@@Z
  ?GetSacl@CNtSecurityDescriptor@@QAEJPAPAVCNtAcl@@@Z=C:\Windows\SysWOW64\wbemcomn.?GetSacl@CNtSecurityDescriptor@@QAEJPAPAVCNtAcl@@@Z
  ?GetSacl@CNtSecurityDescriptor@@QAEPAVCNtAcl@@XZ=C:\Windows\SysWOW64\wbemcomn.?GetSacl@CNtSecurityDescriptor@@QAEPAVCNtAcl@@XZ
  ?GetSafeArray@CVarVector@@QAEPAUtagSAFEARRAY@@H@Z=C:\Windows\SysWOW64\wbemcomn.?GetSafeArray@CVarVector@@QAEPAUtagSAFEARRAY@@H@Z
  ?GetScalarAt@CSafeArray@@AAE?ATSA_ArrayScalar@@H@Z=C:\Windows\SysWOW64\wbemcomn.?GetScalarAt@CSafeArray@@AAE?ATSA_ArrayScalar@@H@Z
  ?GetSeconds@CDateTimeParser@@QAEEXZ=C:\Windows\SysWOW64\wbemcomn.?GetSeconds@CDateTimeParser@@QAEEXZ
  ?GetSeconds@CWbemInterval@@QBEKXZ=C:\Windows\SysWOW64\wbemcomn.?GetSeconds@CWbemInterval@@QBEKXZ
  ?GetSelectedColumns@CWQLScanner@@QAEPBVCFlexArray@@XZ=C:\Windows\SysWOW64\wbemcomn.?GetSelectedColumns@CWQLScanner@@QAEPBVCFlexArray@@XZ
  ?GetSerializedSize@C9XAce@@UAEKXZ=C:\Windows\SysWOW64\wbemcomn.?GetSerializedSize@C9XAce@@UAEKXZ
  ?GetSerializedSize@CNtAce@@UAEKXZ=C:\Windows\SysWOW64\wbemcomn.?GetSerializedSize@CNtAce@@UAEKXZ
  ?GetSessionName@CWMITraceSettings@@QAEPAGXZ=C:\Windows\SysWOW64\wbemcomn.?GetSessionName@CWMITraceSettings@@QAEPAGXZ
  ?GetShort@CVar@@QAEFXZ=C:\Windows\SysWOW64\wbemcomn.?GetShort@CVar@@QAEFXZ
  ?GetShortAt@CSafeArray@@QAEFH@Z=C:\Windows\SysWOW64\wbemcomn.?GetShortAt@CSafeArray@@QAEFH@Z
  ?GetSid@CNtAce@@QAEHAAVCNtSid@@@Z=C:\Windows\SysWOW64\wbemcomn.?GetSid@CNtAce@@QAEHAAVCNtSid@@@Z
  ?GetSid@CNtAce@@QAEPAVCNtSid@@XZ=C:\Windows\SysWOW64\wbemcomn.?GetSid@CNtAce@@QAEPAVCNtSid@@XZ
  ?GetSidFromThreadOrProcess@CIdentitySecurity@@AAEJAAVCNtSid@@@Z=C:\Windows\SysWOW64\wbemcomn.?GetSidFromThreadOrProcess@CIdentitySecurity@@AAEJAAVCNtSid@@@Z
  ?GetSinglePropertyName@CAbstractQl1Parser@@IAEPBGXZ=C:\Windows\SysWOW64\wbemcomn.?GetSinglePropertyName@CAbstractQl1Parser@@IAEPBGXZ
  ?GetSitoutPenalty@CExecQueue@@QAEKXZ=C:\Windows\SysWOW64\wbemcomn.?GetSitoutPenalty@CExecQueue@@QAEKXZ
  ?GetSize@CBuffer@@QAEKXZ=C:\Windows\SysWOW64\wbemcomn.?GetSize@CBuffer@@QAEKXZ
  ?GetSize@CNtAce@@QAEKXZ=C:\Windows\SysWOW64\wbemcomn.?GetSize@CNtAce@@QAEKXZ
  ?GetSize@CNtAcl@@QAEKXZ=C:\Windows\SysWOW64\wbemcomn.?GetSize@CNtAcl@@QAEKXZ
  ?GetSize@CNtSecurityDescriptor@@QAEKXZ=C:\Windows\SysWOW64\wbemcomn.?GetSize@CNtSecurityDescriptor@@QAEKXZ
  ?GetSize@CNtSid@@QAEKXZ=C:\Windows\SysWOW64\wbemcomn.?GetSize@CNtSid@@QAEKXZ
  ?GetStatus@C9XAce@@UAEKXZ=C:\Windows\SysWOW64\wbemcomn.?GetStatus@C9XAce@@UAEKXZ
  ?GetStatus@CNtAce@@UAEKXZ=C:\Windows\SysWOW64\wbemcomn.?GetStatus@CNtAce@@UAEKXZ
  ?GetStatus@CNtAcl@@QAEKXZ=C:\Windows\SysWOW64\wbemcomn.?GetStatus@CNtAcl@@QAEKXZ
  ?GetStatus@CNtSecurityDescriptor@@QAEKXZ=C:\Windows\SysWOW64\wbemcomn.?GetStatus@CNtSecurityDescriptor@@QAEKXZ
  ?GetStatus@CNtSid@@QAEKXZ=C:\Windows\SysWOW64\wbemcomn.?GetStatus@CNtSid@@QAEKXZ
  ?GetStr@Registry@@QAEHPBGPAPAG@Z=C:\Windows\SysWOW64\wbemcomn.?GetStr@Registry@@QAEHPBGPAPAG@Z
  ?GetString@CInsertionString@@QAEPBGXZ=C:\Windows\SysWOW64\wbemcomn.?GetString@CInsertionString@@QAEPBGXZ
  ?GetStringAt@CEventLogRecord@@QAEPBGH@Z=C:\Windows\SysWOW64\wbemcomn.?GetStringAt@CEventLogRecord@@QAEPBGH@Z
  ?GetStringAt@CPropertyName@@QBEPBGJ@Z=C:\Windows\SysWOW64\wbemcomn.?GetStringAt@CPropertyName@@QBEPBGJ@Z
  ?GetStringPointerByRef@WString2@@QBEABQBGXZ=C:\Windows\SysWOW64\wbemcomn.?GetStringPointerByRef@WString2@@QBEABQBGXZ
  ?GetStringPointerByRef@WString@@QBEABQBGXZ=C:\Windows\SysWOW64\wbemcomn.?GetStringPointerByRef@WString@@QBEABQBGXZ
  ?GetText@CPropertyName@@QAEPAGXZ=C:\Windows\SysWOW64\wbemcomn.?GetText@CPropertyName@@QAEPAGXZ
  ?GetText@CVar@@QAEPAGJJPBG@Z=C:\Windows\SysWOW64\wbemcomn.?GetText@CVar@@QAEPAGJJPBG@Z
  ?GetText@CVarVector@@QAEPAGJJ@Z=C:\Windows\SysWOW64\wbemcomn.?GetText@CVarVector@@QAEPAGJJ@Z
  ?GetText@QL_LEVEL_1_RPN_EXPRESSION@@QAEPAGXZ=C:\Windows\SysWOW64\wbemcomn.?GetText@QL_LEVEL_1_RPN_EXPRESSION@@QAEPAGXZ
  ?GetText@QL_LEVEL_1_TOKEN@@QAEPAGXZ=C:\Windows\SysWOW64\wbemcomn.?GetText@QL_LEVEL_1_TOKEN@@QAEPAGXZ
  ?GetTextSid@CNtSid@@QAEHPAGPAK@Z=C:\Windows\SysWOW64\wbemcomn.?GetTextSid@CNtSid@@QAEHPAGPAK@Z
  ?GetTextSid@CNtSid@@QAEJPAPAG@Z=C:\Windows\SysWOW64\wbemcomn.?GetTextSid@CNtSid@@QAEJPAPAG@Z
  ?GetTickCount@CWbemTime@@SG?AV1@XZ=C:\Windows\SysWOW64\wbemcomn.?GetTickCount@CWbemTime@@SG?AV1@XZ
  ?GetTlsIndex@CExecQueue@@SGKXZ=C:\Windows\SysWOW64\wbemcomn.?GetTlsIndex@CExecQueue@@SGKXZ
  ?GetToken@CWbemCallSecurity@@UAEPAXXZ=C:\Windows\SysWOW64\wbemcomn.?GetToken@CWbemCallSecurity@@UAEPAXXZ
  ?GetTraceLevel@CWMITraceSettings@@QAEEXZ=C:\Windows\SysWOW64\wbemcomn.?GetTraceLevel@CWMITraceSettings@@QAEEXZ
  ?GetType@C9XAce@@UAEHXZ=C:\Windows\SysWOW64\wbemcomn.?GetType@C9XAce@@UAEHXZ
  ?GetType@CExecQueue@@UAEPBGXZ=C:\Windows\SysWOW64\wbemcomn.?GetType@CExecQueue@@UAEPBGXZ
  ?GetType@CNtAce@@UAEHXZ=C:\Windows\SysWOW64\wbemcomn.?GetType@CNtAce@@UAEHXZ
  ?GetType@CSafeArray@@QAEHXZ=C:\Windows\SysWOW64\wbemcomn.?GetType@CSafeArray@@QAEHXZ
  ?GetType@CVar@@QAEHXZ=C:\Windows\SysWOW64\wbemcomn.?GetType@CVar@@QAEHXZ
  ?GetType@CVarVector@@QAEHXZ=C:\Windows\SysWOW64\wbemcomn.?GetType@CVarVector@@QAEHXZ
  ?GetType@Registry@@QAEHPBGPAK@Z=C:\Windows\SysWOW64\wbemcomn.?GetType@Registry@@QAEHPBGPAK@Z
  ?GetTypeText@CVar@@QAEPAGXZ=C:\Windows\SysWOW64\wbemcomn.?GetTypeText@CVar@@QAEPAGXZ
  ?GetUTC@CDateTimeParser@@QAEHXZ=C:\Windows\SysWOW64\wbemcomn.?GetUTC@CDateTimeParser@@QAEHXZ
  ?GetUnknown@CUnk@@QAEPAUIUnknown@@XZ=C:\Windows\SysWOW64\wbemcomn.?GetUnknown@CUnk@@QAEPAUIUnknown@@XZ
  ?GetUnknown@CUnkInternal@@QAEPAUIUnknown@@XZ=C:\Windows\SysWOW64\wbemcomn.?GetUnknown@CUnkInternal@@QAEPAUIUnknown@@XZ
  ?GetUnknown@CVar@@QAEPAUIUnknown@@XZ=C:\Windows\SysWOW64\wbemcomn.?GetUnknown@CVar@@QAEPAUIUnknown@@XZ
  ?GetUnknownAt@CSafeArray@@QAEPAUIUnknown@@H@Z=C:\Windows\SysWOW64\wbemcomn.?GetUnknownAt@CSafeArray@@QAEPAUIUnknown@@H@Z
  ?GetValue@CDMTFParser@@QAEHH@Z=C:\Windows\SysWOW64\wbemcomn.?GetValue@CDMTFParser@@QAEHH@Z
  ?GetVarVector@CVar@@QAEPAVCVarVector@@XZ=C:\Windows\SysWOW64\wbemcomn.?GetVarVector@CVar@@QAEPAVCVarVector@@XZ
  ?GetVariantAt@CSafeArray@@QAE?AUtagVARIANT@@H@Z=C:\Windows\SysWOW64\wbemcomn.?GetVariantAt@CSafeArray@@QAE?AUtagVARIANT@@H@Z
  ?GetWhenDoneHandle@CExecRequest@@QAEPAXXZ=C:\Windows\SysWOW64\wbemcomn.?GetWhenDoneHandle@CExecRequest@@QAEPAXXZ
  ?GetWord@CVar@@QAEGXZ=C:\Windows\SysWOW64\wbemcomn.?GetWord@CVar@@QAEGXZ
  ?GetYear@CDateTimeParser@@QAEIXZ=C:\Windows\SysWOW64\wbemcomn.?GetYear@CDateTimeParser@@QAEIXZ
  ?GetZero@CWbemTime@@SG?AV1@XZ=C:\Windows\SysWOW64\wbemcomn.?GetZero@CWbemTime@@SG?AV1@XZ
  ?Grow@CFlexQueue@@IAE_NXZ=C:\Windows\SysWOW64\wbemcomn.?Grow@CFlexQueue@@IAE_NXZ
  ?Grow@CSmallArrayBlob@@IAEPAV1@XZ=C:\Windows\SysWOW64\wbemcomn.?Grow@CSmallArrayBlob@@IAEPAV1@XZ
  ?Halt@CHaltable@@QAEJXZ=C:\Windows\SysWOW64\wbemcomn.?Halt@CHaltable@@QAEJXZ
  ?HandleEmbeddedObjectProperties@CTextTemplate@@AAEPAGPAGPAUIWbemClassObject@@@Z=C:\Windows\SysWOW64\wbemcomn.?HandleEmbeddedObjectProperties@CTextTemplate@@AAEPAGPAGPAUIWbemClassObject@@@Z
  ?HasChildren@CClientOpsNode@@QAE_NXZ=C:\Windows\SysWOW64\wbemcomn.?HasChildren@CClientOpsNode@@QAE_NXZ
  ?HasOwner@CNtSecurityDescriptor@@QAEHXZ=C:\Windows\SysWOW64\wbemcomn.?HasOwner@CNtSecurityDescriptor@@QAEHXZ
  ?HasToBeEnabled@CTraceSessionControl@@QAE_NXZ=C:\Windows\SysWOW64\wbemcomn.?HasToBeEnabled@CTraceSessionControl@@QAE_NXZ
  ?ImpersonateClient@CWbemCallSecurity@@UAGJXZ=C:\Windows\SysWOW64\wbemcomn.?ImpersonateClient@CWbemCallSecurity@@UAGJXZ
  ?InOrder@CQl1ParseSink@@UAEXJ@Z=C:\Windows\SysWOW64\wbemcomn.?InOrder@CQl1ParseSink@@UAEXJ@Z
  ?IncrementIndex@CFlexQueue@@IAEXAAH@Z=C:\Windows\SysWOW64\wbemcomn.?IncrementIndex@CFlexQueue@@IAEXAAH@Z
  ?Init@CPropertyName@@QAEXXZ=C:\Windows\SysWOW64\wbemcomn.?Init@CPropertyName@@QAEXXZ
  ?Init@CPublishWMIOperationEvent@@SGJXZ=C:\Windows\SysWOW64\wbemcomn.?Init@CPublishWMIOperationEvent@@SGJXZ
  ?Init@CVar@@AAEXXZ=C:\Windows\SysWOW64\wbemcomn.?Init@CVar@@AAEXXZ
  ?InitMap@CWbemInstallObject@@SGXXZ=C:\Windows\SysWOW64\wbemcomn.?InitMap@CWbemInstallObject@@SGXXZ
  ?InitTls@CExecQueue@@KGXXZ=C:\Windows\SysWOW64\wbemcomn.?InitTls@CExecQueue@@KGXXZ
  ?InitToken@CAbstractQl1Parser@@KGXPAU_tag_WbemQl1Token@@@Z=C:\Windows\SysWOW64\wbemcomn.?InitToken@CAbstractQl1Parser@@KGXPAU_tag_WbemQl1Token@@@Z
  ?Initialize@CMUILocaleList@@QAEJPAG_N@Z=C:\Windows\SysWOW64\wbemcomn.?Initialize@CMUILocaleList@@QAEJPAG_N@Z
  ?Initialize@CSmallArrayBlob@@IAEXH@Z=C:\Windows\SysWOW64\wbemcomn.?Initialize@CSmallArrayBlob@@IAEXH@Z
  ?Initialize@CTraceSessionControl@@QAEKPBG@Z=C:\Windows\SysWOW64\wbemcomn.?Initialize@CTraceSessionControl@@QAEKPBG@Z
  ?Initialize@CUnk@@UAEHXZ=C:\Windows\SysWOW64\wbemcomn.?Initialize@CUnk@@UAEHXZ
  ?InitializeThread@CExecQueue@@MAEJXZ=C:\Windows\SysWOW64\wbemcomn.?InitializeThread@CExecQueue@@MAEJXZ
  ?Insert@CClientOpsNode@@AAEXPAV1@@Z=C:\Windows\SysWOW64\wbemcomn.?Insert@CClientOpsNode@@AAEXPAV1@@Z
  ?InsertAt@CFlexArray@@QAEHHPAX@Z=C:\Windows\SysWOW64\wbemcomn.?InsertAt@CFlexArray@@QAEHHPAX@Z
  ?InsertAt@CSmallArrayBlob@@QAEPAV1@HPAX@Z=C:\Windows\SysWOW64\wbemcomn.?InsertAt@CSmallArrayBlob@@QAEPAV1@HPAX@Z
  ?InsertAt@CVarVector@@QAEHHAAVCVar@@@Z=C:\Windows\SysWOW64\wbemcomn.?InsertAt@CVarVector@@QAEHHAAVCVar@@@Z
  ?InsertAt@CWStringArray@@QAEHHPBG@Z=C:\Windows\SysWOW64\wbemcomn.?InsertAt@CWStringArray@@QAEHHPBG@Z
  ?InternalAddRef@CUnkInternal@@QAEKXZ=C:\Windows\SysWOW64\wbemcomn.?InternalAddRef@CUnkInternal@@QAEKXZ
  ?InternalQueryInterface@CUnkInternal@@QAEJABU_GUID@@PAPAX@Z=C:\Windows\SysWOW64\wbemcomn.?InternalQueryInterface@CUnkInternal@@QAEJABU_GUID@@PAPAX@Z
  ?InternalRawArrayAccess@CVarVector@@QAEJXZ=C:\Windows\SysWOW64\wbemcomn.?InternalRawArrayAccess@CVarVector@@QAEJXZ
  ?InternalRelease@CUnkInternal@@QAEKXZ=C:\Windows\SysWOW64\wbemcomn.?InternalRelease@CUnkInternal@@QAEKXZ
  ?Intersection@CWStringArray@@SGXAAV1@00@Z=C:\Windows\SysWOW64\wbemcomn.?Intersection@CWStringArray@@SGXAAV1@00@Z
  ?IsAppropriateThread@CExecQueue@@MAEHXZ=C:\Windows\SysWOW64\wbemcomn.?IsAppropriateThread@CExecQueue@@MAEHXZ
  ?IsDataNull@CVar@@QAEHXZ=C:\Windows\SysWOW64\wbemcomn.?IsDataNull@CVar@@QAEHXZ
  ?IsEmbeddedObjectProperty@CTextTemplate@@AAEHPAG@Z=C:\Windows\SysWOW64\wbemcomn.?IsEmbeddedObjectProperty@CTextTemplate@@AAEHPAG@Z
  ?IsEmpty@CInsertionString@@QAEHXZ=C:\Windows\SysWOW64\wbemcomn.?IsEmpty@CInsertionString@@QAEHXZ
  ?IsEmpty@CInstructionQueue@@QAEHXZ=C:\Windows\SysWOW64\wbemcomn.?IsEmpty@CInstructionQueue@@QAEHXZ
  ?IsEnabled@CTraceSessionControl@@QAE_NXZ=C:\Windows\SysWOW64\wbemcomn.?IsEnabled@CTraceSessionControl@@QAE_NXZ
  ?IsEntered@CCheckedInCritSec@@QAEHXZ=C:\Windows\SysWOW64\wbemcomn.?IsEntered@CCheckedInCritSec@@QAEHXZ
  ?IsEntered@CEnterWbemCriticalSection@@QAEHXZ=C:\Windows\SysWOW64\wbemcomn.?IsEntered@CEnterWbemCriticalSection@@QAEHXZ
  ?IsEventEnabled@CPublishWMIOperationEvent@@SGJABU_EVENT_DESCRIPTOR@@@Z=C:\Windows\SysWOW64\wbemcomn.?IsEventEnabled@CPublishWMIOperationEvent@@SGJABU_EVENT_DESCRIPTOR@@@Z
  ?IsFinite@CWbemInterval@@QBEHXZ=C:\Windows\SysWOW64\wbemcomn.?IsFinite@CWbemInterval@@QBEHXZ
  ?IsFinite@CWbemTime@@QBEHXZ=C:\Windows\SysWOW64\wbemcomn.?IsFinite@CWbemTime@@QBEHXZ
  ?IsHalted@CHaltable@@QAEHXZ=C:\Windows\SysWOW64\wbemcomn.?IsHalted@CHaltable@@QAEHXZ
  ?IsIdleTooLong@CExecQueue@@MAEHPAVCThreadRecord@1@K@Z=C:\Windows\SysWOW64\wbemcomn.?IsIdleTooLong@CExecQueue@@MAEHPAVCThreadRecord@1@K@Z
  ?IsImpersonating@CWbemCallSecurity@@UAGHXZ=C:\Windows\SysWOW64\wbemcomn.?IsImpersonating@CWbemCallSecurity@@UAGHXZ
  ?IsInitialized@CWbemInstallObject@@CG_NXZ=C:\Windows\SysWOW64\wbemcomn.?IsInitialized@CWbemInstallObject@@CG_NXZ
  ?IsInterval@CDMTFParser@@QAE_NXZ=C:\Windows\SysWOW64\wbemcomn.?IsInterval@CDMTFParser@@QAE_NXZ
  ?IsNull@CVar@@QAEHXZ=C:\Windows\SysWOW64\wbemcomn.?IsNull@CVar@@QAEHXZ
  ?IsOffline@CWbemInstallObject@@SG_NXZ=C:\Windows\SysWOW64\wbemcomn.?IsOffline@CWbemInstallObject@@SG_NXZ
  ?IsOk@CExecRequest@@QAE_NXZ=C:\Windows\SysWOW64\wbemcomn.?IsOk@CExecRequest@@QAE_NXZ
  ?IsOptimized@CVarVector@@QAEHXZ=C:\Windows\SysWOW64\wbemcomn.?IsOptimized@CVarVector@@QAEHXZ
  ?IsSTA@CExecQueue@@MAEHXZ=C:\Windows\SysWOW64\wbemcomn.?IsSTA@CExecQueue@@MAEHXZ
  ?IsSTAThread@CExecQueue@@SGHXZ=C:\Windows\SysWOW64\wbemcomn.?IsSTAThread@CExecQueue@@SGHXZ
  ?IsSuitableThread@CExecQueue@@MAEHPAVCThreadRecord@1@PAVCExecRequest@@@Z=C:\Windows\SysWOW64\wbemcomn.?IsSuitableThread@CExecQueue@@MAEHPAVCThreadRecord@1@PAVCExecRequest@@@Z
  ?IsUsed@CDMTFParser@@QAE_NH@Z=C:\Windows\SysWOW64\wbemcomn.?IsUsed@CDMTFParser@@QAE_NH@Z
  ?IsUser@CNtSid@@QAE_NXZ=C:\Windows\SysWOW64\wbemcomn.?IsUser@CNtSid@@QAE_NXZ
  ?IsUserInGroup@CNtSecurity@@SGHPAXAAVCNtSid@@PAH@Z=C:\Windows\SysWOW64\wbemcomn.?IsUserInGroup@CNtSecurity@@SGHPAXAAVCNtSid@@PAH@Z
  ?IsValid@CDMTFParser@@QAE_NXZ=C:\Windows\SysWOW64\wbemcomn.?IsValid@CDMTFParser@@QAE_NXZ
  ?IsValid@CNtAcl@@QAEHXZ=C:\Windows\SysWOW64\wbemcomn.?IsValid@CNtAcl@@QAEHXZ
  ?IsValid@CNtSecurityDescriptor@@QAEHXZ=C:\Windows\SysWOW64\wbemcomn.?IsValid@CNtSecurityDescriptor@@QAEHXZ
  ?IsValid@CNtSid@@QAEHXZ=C:\Windows\SysWOW64\wbemcomn.?IsValid@CNtSid@@QAEHXZ
  ?IsValidAmPmString@CDateTimeParser@@IAEHPAGPBGQAPAG@Z=C:\Windows\SysWOW64\wbemcomn.?IsValidAmPmString@CDateTimeParser@@IAEHPAGPBGQAPAG@Z
  ?IsValidColonMillisecond@CDateTimeParser@@IAEHPAGPBG@Z=C:\Windows\SysWOW64\wbemcomn.?IsValidColonMillisecond@CDateTimeParser@@IAEHPAGPBG@Z
  ?IsValidDateTime@CDateTimeParser@@QAEHXZ=C:\Windows\SysWOW64\wbemcomn.?IsValidDateTime@CDateTimeParser@@QAEHXZ
  ?IsValidDayNumber@CDateTimeParser@@IAEHPAGPBG@Z=C:\Windows\SysWOW64\wbemcomn.?IsValidDayNumber@CDateTimeParser@@IAEHPAGPBG@Z
  ?IsValidDotMillisecond@CDateTimeParser@@IAEHPAGPBG@Z=C:\Windows\SysWOW64\wbemcomn.?IsValidDotMillisecond@CDateTimeParser@@IAEHPAGPBG@Z
  ?IsValidHourNumber@CDateTimeParser@@IAEHPAGPBG@Z=C:\Windows\SysWOW64\wbemcomn.?IsValidHourNumber@CDateTimeParser@@IAEHPAGPBG@Z
  ?IsValidMinuteNumber@CDateTimeParser@@IAEHPAGPBG@Z=C:\Windows\SysWOW64\wbemcomn.?IsValidMinuteNumber@CDateTimeParser@@IAEHPAGPBG@Z
  ?IsValidMonthNumber@CDateTimeParser@@IAEHPAGPBG@Z=C:\Windows\SysWOW64\wbemcomn.?IsValidMonthNumber@CDateTimeParser@@IAEHPAGPBG@Z
  ?IsValidMonthString@CDateTimeParser@@IAEHPAGPBGQAPAG2@Z=C:\Windows\SysWOW64\wbemcomn.?IsValidMonthString@CDateTimeParser@@IAEHPAGPBGQAPAG2@Z
  ?IsValidSecondNumber@CDateTimeParser@@IAEHPAGPBG@Z=C:\Windows\SysWOW64\wbemcomn.?IsValidSecondNumber@CDateTimeParser@@IAEHPAGPBG@Z
  ?IsValidVectorArray@CVarVector@@SGHHPAUtagSAFEARRAY@@@Z=C:\Windows\SysWOW64\wbemcomn.?IsValidVectorArray@CVarVector@@SGHHPAUtagSAFEARRAY@@@Z
  ?IsValidVectorType@CVarVector@@SGHH@Z=C:\Windows\SysWOW64\wbemcomn.?IsValidVectorType@CVarVector@@SGHH@Z
  ?IsValidYearMonthDayNumber@CDateTimeParser@@IAEHPAG@Z=C:\Windows\SysWOW64\wbemcomn.?IsValidYearMonthDayNumber@CDateTimeParser@@IAEHPAG@Z
  ?IsValidYearNumber@CDateTimeParser@@IAEHPAGPBGH@Z=C:\Windows\SysWOW64\wbemcomn.?IsValidYearNumber@CDateTimeParser@@IAEHPAGPBGH@Z
  ?IsWildcard@CDMTFParser@@QAE_NH@Z=C:\Windows\SysWOW64\wbemcomn.?IsWildcard@CDMTFParser@@QAE_NH@Z
  ?IsZero@CWbemInterval@@QBEHXZ=C:\Windows\SysWOW64\wbemcomn.?IsZero@CWbemInterval@@QBEHXZ
  ?IsZero@CWbemTime@@QBEHXZ=C:\Windows\SysWOW64\wbemcomn.?IsZero@CWbemTime@@QBEHXZ
  ?LCID_To_Culture_Format@CMUILocale@@SGJKPAGI@Z=C:\Windows\SysWOW64\wbemcomn.?LCID_To_Culture_Format@CMUILocale@@SGJKPAGI@Z
  ?LCID_To_ms_XXX_Format@CMUILocale@@SGJKPAGI@Z=C:\Windows\SysWOW64\wbemcomn.?LCID_To_ms_XXX_Format@CMUILocale@@SGJKPAGI@Z
  ?Leave@CCheckedInCritSec@@QAEXXZ=C:\Windows\SysWOW64\wbemcomn.?Leave@CCheckedInCritSec@@QAEXXZ
  ?Leave@CCritSec@@QAEXXZ=C:\Windows\SysWOW64\wbemcomn.?Leave@CCritSec@@QAEXXZ
  ?Leave@CExecQueue@@QAEXXZ=C:\Windows\SysWOW64\wbemcomn.?Leave@CExecQueue@@QAEXXZ
  ?Leave@CStaticCritSec@@QAEXXZ=C:\Windows\SysWOW64\wbemcomn.?Leave@CStaticCritSec@@QAEXXZ
  ?Leave@CWbemCriticalSection@@QAEXXZ=C:\Windows\SysWOW64\wbemcomn.?Leave@CWbemCriticalSection@@QAEXXZ
  ?Length@WString2@@QBEHXZ=C:\Windows\SysWOW64\wbemcomn.?Length@WString2@@QBEHXZ
  ?Length@WString@@QBEHXZ=C:\Windows\SysWOW64\wbemcomn.?Length@WString@@QBEHXZ
  ?LocaleName_To_LCID@CMUILocale@@SGJPBGPA_NPAK@Z=C:\Windows\SysWOW64\wbemcomn.?LocaleName_To_LCID@CMUILocale@@SGJPBGPA_NPAK@Z
  ?Lock@?$CLockableFlexArray@VCStaticCritSec@@@@QAEXXZ=C:\Windows\SysWOW64\wbemcomn.?Lock@?$CLockableFlexArray@VCStaticCritSec@@@@QAEXXZ
  ?Lock@CClientOpsNode@@QAEXXZ=C:\Windows\SysWOW64\wbemcomn.?Lock@CClientOpsNode@@QAEXXZ
  ?LockRegion@CBuffer@@UAGJT_ULARGE_INTEGER@@0K@Z=C:\Windows\SysWOW64\wbemcomn.?LockRegion@CBuffer@@UAGJT_ULARGE_INTEGER@@0K@Z
  ?LogError@CExecQueue@@MAEXPAVCExecRequest@@H@Z=C:\Windows\SysWOW64\wbemcomn.?LogError@CExecQueue@@MAEXPAVCExecRequest@@H@Z
  ?MakeInternalCopyOfThread@CWbemCallSecurity@@SGPAV1@XZ=C:\Windows\SysWOW64\wbemcomn.?MakeInternalCopyOfThread@CWbemCallSecurity@@SGPAV1@XZ
  ?MakeOptimized@CVarVector@@QAEHHHH@Z=C:\Windows\SysWOW64\wbemcomn.?MakeOptimized@CVarVector@@QAEHHHH@Z
  ?MarkForRemoval@CTimerInstruction@@UAEJXZ=C:\Windows\SysWOW64\wbemcomn.?MarkForRemoval@CTimerInstruction@@UAEJXZ
  ?Match@CLike@@QAE_NPBG@Z=C:\Windows\SysWOW64\wbemcomn.?Match@CLike@@QAE_NPBG@Z
  ?MatchSet@CLike@@IAE_NPBG0AAH@Z=C:\Windows\SysWOW64\wbemcomn.?MatchSet@CLike@@IAE_NPBG0AAH@Z
  ?MoveToSubkey@Registry@@QAEHPBG@Z=C:\Windows\SysWOW64\wbemcomn.?MoveToSubkey@Registry@@QAEHPBG@Z
  ?Mrci1Decompress@CBaseMrciCompression@@QAEIPAEI0I@Z=C:\Windows\SysWOW64\wbemcomn.?Mrci1Decompress@CBaseMrciCompression@@QAEIPAEI0I@Z
  ?Mrci1MaxCompress@CBaseMrciCompression@@QAEIPAEI0I@Z=C:\Windows\SysWOW64\wbemcomn.?Mrci1MaxCompress@CBaseMrciCompression@@QAEIPAEI0I@Z
  ?Mrci2Decompress@CBaseMrciCompression@@QAEIPAEI0I@Z=C:\Windows\SysWOW64\wbemcomn.?Mrci2Decompress@CBaseMrciCompression@@QAEIPAEI0I@Z
  ?Mrci2MaxCompress@CBaseMrciCompression@@QAEIPAEI0I@Z=C:\Windows\SysWOW64\wbemcomn.?Mrci2MaxCompress@CBaseMrciCompression@@QAEIPAEI0I@Z
  ?Next@CAbstractQl1Parser@@MAEHH@Z=C:\Windows\SysWOW64\wbemcomn.?Next@CAbstractQl1Parser@@MAEHH@Z
  ?Next@CWQLScanner@@AAEHXZ=C:\Windows\SysWOW64\wbemcomn.?Next@CWQLScanner@@AAEHXZ
  ?NotifyStartingThread@CTimerGenerator@@MAEXXZ=C:\Windows\SysWOW64\wbemcomn.?NotifyStartingThread@CTimerGenerator@@MAEXXZ
  ?NotifyStoppingThread@CTimerGenerator@@MAEXXZ=C:\Windows\SysWOW64\wbemcomn.?NotifyStoppingThread@CTimerGenerator@@MAEXXZ
  ?ObjectCreated@CContainerControl@@UAEHPAUIUnknown@@@Z=C:\Windows\SysWOW64\wbemcomn.?ObjectCreated@CContainerControl@@UAEHPAUIUnknown@@@Z
  ?ObjectDestroyed@CContainerControl@@UAEXPAUIUnknown@@@Z=C:\Windows\SysWOW64\wbemcomn.?ObjectDestroyed@CContainerControl@@UAEXPAUIUnknown@@@Z
  ?OnInitialize@CUnk@@UAEHXZ=C:\Windows\SysWOW64\wbemcomn.?OnInitialize@CUnk@@UAEHXZ
  ?Open@CEventLog@@QAEHXZ=C:\Windows\SysWOW64\wbemcomn.?Open@CEventLog@@QAEHXZ
  ?Open@Registry@@QAEHPAUHKEY__@@PBGK@Z=C:\Windows\SysWOW64\wbemcomn.?Open@Registry@@QAEHPAUHKEY__@@PBGK@Z
  ?OrderAces@CNtAcl@@QAEPAV1@XZ=C:\Windows\SysWOW64\wbemcomn.?OrderAces@CNtAcl@@QAEPAV1@XZ
  ?Parse@CAbstractQl1Parser@@QAEHPAVCQl1ParseSink@@H@Z=C:\Windows\SysWOW64\wbemcomn.?Parse@CAbstractQl1Parser@@QAEHPAVCQl1ParseSink@@H@Z
  ?Parse@CWQLScanner@@QAEHXZ=C:\Windows\SysWOW64\wbemcomn.?Parse@CWQLScanner@@QAEHXZ
  ?Parse@QL1_Parser@@QAEHPAPAUQL_LEVEL_1_RPN_EXPRESSION@@@Z=C:\Windows\SysWOW64\wbemcomn.?Parse@QL1_Parser@@QAEHPAPAUQL_LEVEL_1_RPN_EXPRESSION@@@Z
  ?ParseAbsolute@CDMTFParser@@IAEXPBG@Z=C:\Windows\SysWOW64\wbemcomn.?ParseAbsolute@CDMTFParser@@IAEXPBG@Z
  ?ParseDate@CDMTFParser@@IAEXPBG@Z=C:\Windows\SysWOW64\wbemcomn.?ParseDate@CDMTFParser@@IAEXPBG@Z
  ?ParseInterval@CDMTFParser@@IAEXPBG@Z=C:\Windows\SysWOW64\wbemcomn.?ParseInterval@CDMTFParser@@IAEXPBG@Z
  ?ParsePart@CDMTFParser@@IAEHPBGHHPAHHH@Z=C:\Windows\SysWOW64\wbemcomn.?ParsePart@CDMTFParser@@IAEHPBGHHPAHHH@Z
  ?Peek@CFlexQueue@@QAEPAXXZ=C:\Windows\SysWOW64\wbemcomn.?Peek@CFlexQueue@@QAEPAXXZ
  ?ProcessArray@CTextTemplate@@AAEPAGABUtagVARIANT@@PAG@Z=C:\Windows\SysWOW64\wbemcomn.?ProcessArray@CTextTemplate@@AAEPAGABUtagVARIANT@@PAG@Z
  ?Publish@CPublishWMIOperationEvent@@SGJPAGKK0000K_K0H@Z=C:\Windows\SysWOW64\wbemcomn.?Publish@CPublishWMIOperationEvent@@SGJPAGKK0000K_K0H@Z
  ?PublishClientRequestFailure@CPublishWMIOperationEvent@@SGJPBGPAG1K10J0@Z=C:\Windows\SysWOW64\wbemcomn.?PublishClientRequestFailure@CPublishWMIOperationEvent@@SGJPBGPAG1K10J0@Z
  ?PublishESSDrop@CPublishWMIOperationEvent@@SGJPAG0@Z=C:\Windows\SysWOW64\wbemcomn.?PublishESSDrop@CPublishWMIOperationEvent@@SGJPAG0@Z
  ?PublishEssStarted@CPublishWMIOperationEvent@@SGJPAG00K0K0@Z=C:\Windows\SysWOW64\wbemcomn.?PublishEssStarted@CPublishWMIOperationEvent@@SGJPAG00K0K0@Z
  ?PublishEssToConsumer@CPublishWMIOperationEvent@@SGJPAG0@Z=C:\Windows\SysWOW64\wbemcomn.?PublishEssToConsumer@CPublishWMIOperationEvent@@SGJPAG0@Z
  ?PublishEssToConsumerBinding@CPublishWMIOperationEvent@@SGJPAG000@Z=C:\Windows\SysWOW64\wbemcomn.?PublishEssToConsumerBinding@CPublishWMIOperationEvent@@SGJPAG000@Z
  ?PublishMethodExec@CPublishWMIOperationEvent@@SGJPAGKK000000K_K0H@Z=C:\Windows\SysWOW64\wbemcomn.?PublishMethodExec@CPublishWMIOperationEvent@@SGJPAGKK000000K_K0H@Z
  ?PublishProviderInfo@CPublishWMIOperationEvent@@SGJKPAGK000PAUIWbemContext@@@Z=C:\Windows\SysWOW64\wbemcomn.?PublishProviderInfo@CPublishWMIOperationEvent@@SGJKPAGK000PAUIWbemContext@@@Z
  ?PublishProviderStarted@CPublishWMIOperationEvent@@SGJPAGJ0K0@Z=C:\Windows\SysWOW64\wbemcomn.?PublishProviderStarted@CPublishWMIOperationEvent@@SGJPAGJ0K0@Z
  ?PublishRepDelete@CPublishWMIOperationEvent@@SGJKPAGPAUIWbemContext@@K0_KH@Z=C:\Windows\SysWOW64\wbemcomn.?PublishRepDelete@CPublishWMIOperationEvent@@SGJKPAGPAUIWbemContext@@K0_KH@Z
  ?PublishRepUpdate@CPublishWMIOperationEvent@@SGJKPAGKPAUIWbemContext@@K0_KH@Z=C:\Windows\SysWOW64\wbemcomn.?PublishRepUpdate@CPublishWMIOperationEvent@@SGJKPAGKPAUIWbemContext@@K0_KH@Z
  ?PublishStop@CPublishWMIOperationEvent@@SGJKJPAG@Z=C:\Windows\SysWOW64\wbemcomn.?PublishStop@CPublishWMIOperationEvent@@SGJKJPAG@Z
  ?PublishTemporaryEssStarted@CPublishWMIOperationEvent@@SGJPAG00K00@Z=C:\Windows\SysWOW64\wbemcomn.?PublishTemporaryEssStarted@CPublishWMIOperationEvent@@SGJPAG00K00@Z
  ?PublishWin32ProcessCreation@CPublishWMIOperationEvent@@SGJPAGKK0K_K000K1H@Z=C:\Windows\SysWOW64\wbemcomn.?PublishWin32ProcessCreation@CPublishWMIOperationEvent@@SGJPAGKK0K_K000K1H@Z
  ?Pushback@CWQLScanner@@AAEHPAUWSLexToken@@@Z=C:\Windows\SysWOW64\wbemcomn.?Pushback@CWQLScanner@@AAEHPAUWSLexToken@@@Z
  ?Query@CTraceSessionControl@@SGK_KPAGPAPAVCWMITraceSettings@@@Z=C:\Windows\SysWOW64\wbemcomn.?Query@CTraceSessionControl@@SGK_KPAGPAPAVCWMITraceSettings@@@Z
  ?QueryBlanket@CWbemCallSecurity@@UAGJPAK0PAPAG00PAPAX0@Z=C:\Windows\SysWOW64\wbemcomn.?QueryBlanket@CWbemCallSecurity@@UAGJPAK0PAPAG00PAPAX0@Z
  ?QueryInterface@CBuffer@@UAGJABU_GUID@@PAPAX@Z=C:\Windows\SysWOW64\wbemcomn.?QueryInterface@CBuffer@@UAGJABU_GUID@@PAPAX@Z
  ?QueryInterface@CUnk@@UAGJABU_GUID@@PAPAX@Z=C:\Windows\SysWOW64\wbemcomn.?QueryInterface@CUnk@@UAGJABU_GUID@@PAPAX@Z
  ?QueryInterface@CUnkInternal@@UAGJABU_GUID@@PAPAX@Z=C:\Windows\SysWOW64\wbemcomn.?QueryInterface@CUnkInternal@@UAGJABU_GUID@@PAPAX@Z
  ?QueryInterface@CWbemCallSecurity@@UAGJABU_GUID@@PAPAX@Z=C:\Windows\SysWOW64\wbemcomn.?QueryInterface@CWbemCallSecurity@@UAGJABU_GUID@@PAPAX@Z
  ?QueueUnblockedWaitForSingleObject@CExecQueue@@SGKPAXK@Z=C:\Windows\SysWOW64\wbemcomn.?QueueUnblockedWaitForSingleObject@CExecQueue@@SGKPAXK@Z
  ?QueueWaitForSingleObject@CExecQueue@@SGKPAXK@Z=C:\Windows\SysWOW64\wbemcomn.?QueueWaitForSingleObject@CExecQueue@@SGKPAXK@Z
  ?Read@CBuffer@@UAGJPAXKPAK@Z=C:\Windows\SysWOW64\wbemcomn.?Read@CBuffer@@UAGJPAXKPAK@Z
  ?ReadFromRegistry@CWMITraceSettings@@QAEKPBG@Z=C:\Windows\SysWOW64\wbemcomn.?ReadFromRegistry@CWMITraceSettings@@QAEKPBG@Z
  ?ReadLPWSTR@CBuffer@@QAEJAAPBG@Z=C:\Windows\SysWOW64\wbemcomn.?ReadLPWSTR@CBuffer@@QAEJAAPBG@Z
  ?Realloc@CWin32DefaultArena@@UAEPAXPAXK@Z=C:\Windows\SysWOW64\wbemcomn.?Realloc@CWin32DefaultArena@@UAEPAXPAXK@Z
  ?ReduceSql89Joins@CWQLScanner@@AAEHXZ=C:\Windows\SysWOW64\wbemcomn.?ReduceSql89Joins@CWQLScanner@@AAEHXZ
  ?ReduceSql92Joins@CWQLScanner@@AAEHXZ=C:\Windows\SysWOW64\wbemcomn.?ReduceSql92Joins@CWQLScanner@@AAEHXZ
  ?Register@CExecQueue@@KGXPAVCThreadRecord@1@@Z=C:\Windows\SysWOW64\wbemcomn.?Register@CExecQueue@@KGXPAVCThreadRecord@1@@Z
  ?RegisterCMIFlushRepositoryCacheHook@CWbemInstallObject@@SGXP6GJH@Z@Z=C:\Windows\SysWOW64\wbemcomn.?RegisterCMIFlushRepositoryCacheHook@CWbemInstallObject@@SGXP6GJH@Z@Z
  ?Release@CBasicUnloadInstruction@@UAEXXZ=C:\Windows\SysWOW64\wbemcomn.?Release@CBasicUnloadInstruction@@UAEXXZ
  ?Release@CBuffer@@UAGKXZ=C:\Windows\SysWOW64\wbemcomn.?Release@CBuffer@@UAGKXZ
  ?Release@CContainerControl@@UAEXPAUIUnknown@@@Z=C:\Windows\SysWOW64\wbemcomn.?Release@CContainerControl@@UAEXPAUIUnknown@@@Z
  ?Release@CExecQueue@@QAEXXZ=C:\Windows\SysWOW64\wbemcomn.?Release@CExecQueue@@QAEXXZ
  ?Release@CUnk@@UAGKXZ=C:\Windows\SysWOW64\wbemcomn.?Release@CUnk@@UAGKXZ
  ?Release@CUnkInternal@@UAGKXZ=C:\Windows\SysWOW64\wbemcomn.?Release@CUnkInternal@@UAGKXZ
  ?Release@CWbemCallSecurity@@UAGKXZ=C:\Windows\SysWOW64\wbemcomn.?Release@CWbemCallSecurity@@UAGKXZ
  ?Release@QL_LEVEL_1_RPN_EXPRESSION@@QAEXXZ=C:\Windows\SysWOW64\wbemcomn.?Release@QL_LEVEL_1_RPN_EXPRESSION@@QAEXXZ
  ?RemainsUntil@CWbemTime@@QBE?AVCWbemInterval@@ABV1@@Z=C:\Windows\SysWOW64\wbemcomn.?RemainsUntil@CWbemTime@@QBE?AVCWbemInterval@@ABV1@@Z
  ?Remove@CInstructionQueue@@QAEJPAVCInstructionTest@@PAPAVCTimerInstruction@@@Z=C:\Windows\SysWOW64\wbemcomn.?Remove@CInstructionQueue@@QAEJPAVCInstructionTest@@PAPAVCTimerInstruction@@@Z
  ?Remove@CMinMaxLimitControl@@UAEJK@Z=C:\Windows\SysWOW64\wbemcomn.?Remove@CMinMaxLimitControl@@UAEJK@Z
  ?Remove@CTimerGenerator@@QAEJPAVCInstructionTest@@@Z=C:\Windows\SysWOW64\wbemcomn.?Remove@CTimerGenerator@@QAEJPAVCInstructionTest@@@Z
  ?RemoveAt@CFlexArray@@QAEHH@Z=C:\Windows\SysWOW64\wbemcomn.?RemoveAt@CFlexArray@@QAEHH@Z
  ?RemoveAt@CSafeArray@@QAEHH@Z=C:\Windows\SysWOW64\wbemcomn.?RemoveAt@CSafeArray@@QAEHH@Z
  ?RemoveAt@CSmallArrayBlob@@QAEPAV1@HPAPAX@Z=C:\Windows\SysWOW64\wbemcomn.?RemoveAt@CSmallArrayBlob@@QAEPAV1@HPAPAX@Z
  ?RemoveAt@CVarVector@@QAEHH@Z=C:\Windows\SysWOW64\wbemcomn.?RemoveAt@CVarVector@@QAEHH@Z
  ?RemoveAt@CWStringArray@@QAEHH@Z=C:\Windows\SysWOW64\wbemcomn.?RemoveAt@CWStringArray@@QAEHH@Z
  ?RemoveMember@CLimitControl@@UAEJXZ=C:\Windows\SysWOW64\wbemcomn.?RemoveMember@CLimitControl@@UAEJXZ
  ?RemoveSelf@CClientOpsNode@@QAEXXZ=C:\Windows\SysWOW64\wbemcomn.?RemoveSelf@CClientOpsNode@@QAEXXZ
  ?ReplaceAt@CWStringArray@@QAEHHPAG@Z=C:\Windows\SysWOW64\wbemcomn.?ReplaceAt@CWStringArray@@QAEHHPAG@Z
  ?ReplaceClassName@QL1_Parser@@SGPAGPAUQL_LEVEL_1_RPN_EXPRESSION@@PBG@Z=C:\Windows\SysWOW64\wbemcomn.?ReplaceClassName@QL1_Parser@@SGPAGPAUQL_LEVEL_1_RPN_EXPRESSION@@PBG@Z
  ?Report@CEventLog@@QAEHGABU_EVENT_DESCRIPTOR@@VCInsertionString@@111111111@Z=C:\Windows\SysWOW64\wbemcomn.?Report@CEventLog@@QAEHGABU_EVENT_DESCRIPTOR@@VCInsertionString@@111111111@Z
  ?Requeue@CFlexQueue@@QAE_NPAX@Z=C:\Windows\SysWOW64\wbemcomn.?Requeue@CFlexQueue@@QAE_NPAX@Z
  ?Reread@CRegistryMinMaxLimitControl@@QAEJXZ=C:\Windows\SysWOW64\wbemcomn.?Reread@CRegistryMinMaxLimitControl@@QAEJXZ
  ?Reset@CBuffer@@QAEXXZ=C:\Windows\SysWOW64\wbemcomn.?Reset@CBuffer@@QAEXXZ
  ?Reset@CMRCIControl@@QAEXXZ=C:\Windows\SysWOW64\wbemcomn.?Reset@CMRCIControl@@QAEXXZ
  ?ResetDate@CDateTimeParser@@IAEXH@Z=C:\Windows\SysWOW64\wbemcomn.?ResetDate@CDateTimeParser@@IAEXH@Z
  ?ResetDateTime@CDateTimeParser@@IAEXH@Z=C:\Windows\SysWOW64\wbemcomn.?ResetDateTime@CDateTimeParser@@IAEXH@Z
  ?ResetQueue@CFlexQueue@@QAEXXZ=C:\Windows\SysWOW64\wbemcomn.?ResetQueue@CFlexQueue@@QAEXXZ
  ?ResetTime@CDateTimeParser@@IAEXH@Z=C:\Windows\SysWOW64\wbemcomn.?ResetTime@CDateTimeParser@@IAEXH@Z
  ?Resize@CNtAcl@@QAEHK@Z=C:\Windows\SysWOW64\wbemcomn.?Resize@CNtAcl@@QAEHK@Z
  ?Resume@CHaltable@@QAEJXZ=C:\Windows\SysWOW64\wbemcomn.?Resume@CHaltable@@QAEJXZ
  ?ResumeAll@CHaltable@@QAEJXZ=C:\Windows\SysWOW64\wbemcomn.?ResumeAll@CHaltable@@QAEJXZ
  ?ReturnEscapedReturns@CTextTemplate@@AAEPAGPAG@Z=C:\Windows\SysWOW64\wbemcomn.?ReturnEscapedReturns@CTextTemplate@@AAEPAGPAG@Z
  ?Revert@CBuffer@@UAGJXZ=C:\Windows\SysWOW64\wbemcomn.?Revert@CBuffer@@UAGJXZ
  ?RevertToSelf@CWbemCallSecurity@@UAGJXZ=C:\Windows\SysWOW64\wbemcomn.?RevertToSelf@CWbemCallSecurity@@UAGJXZ
  ?ScheduleFreeUnusedLibraries@CTimerGenerator@@QAEXXZ=C:\Windows\SysWOW64\wbemcomn.?ScheduleFreeUnusedLibraries@CTimerGenerator@@QAEXXZ
  ?SchedulerThread@CTimerGenerator@@CGKPAX@Z=C:\Windows\SysWOW64\wbemcomn.?SchedulerThread@CTimerGenerator@@CGKPAX@Z
  ?SearchForRecord@CEventLog@@IAEHPAVCEventLogRecord@@@Z=C:\Windows\SysWOW64\wbemcomn.?SearchForRecord@CEventLog@@IAEHPAVCEventLogRecord@@@Z
  ?SearchForSuitableRequest@CExecQueue@@MAEPAVCExecRequest@@PAVCThreadRecord@1@@Z=C:\Windows\SysWOW64\wbemcomn.?SearchForSuitableRequest@CExecQueue@@MAEPAVCExecRequest@@PAVCThreadRecord@1@@Z
  ?Seek@CBuffer@@UAGJT_LARGE_INTEGER@@KPAT_ULARGE_INTEGER@@@Z=C:\Windows\SysWOW64\wbemcomn.?Seek@CBuffer@@UAGJT_LARGE_INTEGER@@KPAT_ULARGE_INTEGER@@@Z
  ?SelectList@CWQLScanner@@AAEHXZ=C:\Windows\SysWOW64\wbemcomn.?SelectList@CWQLScanner@@AAEHXZ
  ?Serialize@C9XAce@@UAE_NPAEI@Z=C:\Windows\SysWOW64\wbemcomn.?Serialize@C9XAce@@UAE_NPAEI@Z
  ?Serialize@CNtAce@@UAE_NPAEI@Z=C:\Windows\SysWOW64\wbemcomn.?Serialize@CNtAce@@UAE_NPAEI@Z
  ?Set100nss@CWbemTime@@QAEX_J@Z=C:\Windows\SysWOW64\wbemcomn.?Set100nss@CWbemTime@@QAEX_J@Z
  ?Set@CTimerGenerator@@QAEJPAVCTimerInstruction@@VCWbemTime@@@Z=C:\Windows\SysWOW64\wbemcomn.?Set@CTimerGenerator@@QAEJPAVCTimerInstruction@@VCWbemTime@@@Z
  ?SetAggregated@QL_LEVEL_1_RPN_EXPRESSION@@UAEXXZ=C:\Windows\SysWOW64\wbemcomn.?SetAggregated@QL_LEVEL_1_RPN_EXPRESSION@@UAEXXZ
  ?SetAggregationTolerance@QL_LEVEL_1_RPN_EXPRESSION@@UAEXABU_tag_WbemQl1Tolerance@@@Z=C:\Windows\SysWOW64\wbemcomn.?SetAggregationTolerance@QL_LEVEL_1_RPN_EXPRESSION@@UAEXABU_tag_WbemQl1Tolerance@@@Z
  ?SetAreaFlags@CWMITraceSettings@@QAEXK@Z=C:\Windows\SysWOW64\wbemcomn.?SetAreaFlags@CWMITraceSettings@@QAEXK@Z
  ?SetAsNull@CVar@@QAEXXZ=C:\Windows\SysWOW64\wbemcomn.?SetAsNull@CVar@@QAEXXZ
  ?SetAt@CFlexArray@@QAEXHPAX@Z=C:\Windows\SysWOW64\wbemcomn.?SetAt@CFlexArray@@QAEXHPAX@Z
  ?SetAt@CSmallArrayBlob@@QAEPAV1@HPAXPAPAX@Z=C:\Windows\SysWOW64\wbemcomn.?SetAt@CSmallArrayBlob@@QAEPAV1@HPAXPAPAX@Z
  ?SetAt@CWStringArray@@QAEHHPBG@Z=C:\Windows\SysWOW64\wbemcomn.?SetAt@CWStringArray@@QAEHHPBG@Z
  ?SetAutoRecoverFolder@CWbemInstallObject@@SGXPBG@Z=C:\Windows\SysWOW64\wbemcomn.?SetAutoRecoverFolder@CWbemInstallObject@@SGXPBG@Z
  ?SetBSTR@CVar@@QAEHPAG@Z=C:\Windows\SysWOW64\wbemcomn.?SetBSTR@CVar@@QAEHPAG@Z
  ?SetBSTR@CVar@@QAEHVauto_bstr@@@Z=C:\Windows\SysWOW64\wbemcomn.?SetBSTR@CVar@@QAEHVauto_bstr@@@Z
  ?SetBSTRAt@CSafeArray@@QAEHHPAG@Z=C:\Windows\SysWOW64\wbemcomn.?SetBSTRAt@CSafeArray@@QAEHHPAG@Z
  ?SetBinary@Registry@@QAEHPBGPAEK@Z=C:\Windows\SysWOW64\wbemcomn.?SetBinary@Registry@@QAEHPBGPAEK@Z
  ?SetBinaryPath@CWbemInstallObject@@SGXPBG@Z=C:\Windows\SysWOW64\wbemcomn.?SetBinaryPath@CWbemInstallObject@@SGXPBG@Z
  ?SetBlob@CVar@@QAEXPAUtagBLOB@@H@Z=C:\Windows\SysWOW64\wbemcomn.?SetBlob@CVar@@QAEXPAUtagBLOB@@H@Z
  ?SetBool@CVar@@QAEXF@Z=C:\Windows\SysWOW64\wbemcomn.?SetBool@CVar@@QAEXF@Z
  ?SetBoolAt@CSafeArray@@QAEHHF@Z=C:\Windows\SysWOW64\wbemcomn.?SetBoolAt@CSafeArray@@QAEHHF@Z
  ?SetByte@CVar@@QAEXE@Z=C:\Windows\SysWOW64\wbemcomn.?SetByte@CVar@@QAEXE@Z
  ?SetByteAt@CSafeArray@@QAEHHE@Z=C:\Windows\SysWOW64\wbemcomn.?SetByteAt@CSafeArray@@QAEHHE@Z
  ?SetCanDelete@CVar@@QAEXH@Z=C:\Windows\SysWOW64\wbemcomn.?SetCanDelete@CVar@@QAEXH@Z
  ?SetChar@CVar@@QAEXD@Z=C:\Windows\SysWOW64\wbemcomn.?SetChar@CVar@@QAEXD@Z
  ?SetClassName@QL_LEVEL_1_RPN_EXPRESSION@@UAEXPBG@Z=C:\Windows\SysWOW64\wbemcomn.?SetClassName@QL_LEVEL_1_RPN_EXPRESSION@@UAEXPBG@Z
  ?SetClsId@CVar@@QAEXPAU_GUID@@H@Z=C:\Windows\SysWOW64\wbemcomn.?SetClsId@CVar@@QAEXPAU_GUID@@H@Z
  ?SetCountQuery@QL_LEVEL_1_RPN_EXPRESSION@@UAEXXZ=C:\Windows\SysWOW64\wbemcomn.?SetCountQuery@QL_LEVEL_1_RPN_EXPRESSION@@UAEXXZ
  ?SetDMTF@CWbemTime@@QAEHPBG@Z=C:\Windows\SysWOW64\wbemcomn.?SetDMTF@CWbemTime@@QAEHPBG@Z
  ?SetDWORD@CVar@@QAEXK@Z=C:\Windows\SysWOW64\wbemcomn.?SetDWORD@CVar@@QAEXK@Z
  ?SetDWORD@Registry@@QAEHPBGK@Z=C:\Windows\SysWOW64\wbemcomn.?SetDWORD@Registry@@QAEHPBGK@Z
  ?SetDWORDStr@Registry@@QAEHPBGK@Z=C:\Windows\SysWOW64\wbemcomn.?SetDWORDStr@Registry@@QAEHPBGK@Z
  ?SetDacl@CNtSecurityDescriptor@@QAEHPAVCNtAcl@@@Z=C:\Windows\SysWOW64\wbemcomn.?SetDacl@CNtSecurityDescriptor@@QAEHPAVCNtAcl@@@Z
  ?SetDate@CDatePart@@QAEJPBD@Z=C:\Windows\SysWOW64\wbemcomn.?SetDate@CDatePart@@QAEJPBD@Z
  ?SetDate@CDatePart@@QAEJPBG@Z=C:\Windows\SysWOW64\wbemcomn.?SetDate@CDatePart@@QAEJPBG@Z
  ?SetDateTime@CDateTimeParser@@QAEHPBG@Z=C:\Windows\SysWOW64\wbemcomn.?SetDateTime@CDateTimeParser@@QAEHPBG@Z
  ?SetDefaultValues@CWMITraceSettings@@QAEKXZ=C:\Windows\SysWOW64\wbemcomn.?SetDefaultValues@CWMITraceSettings@@QAEKXZ
  ?SetDestructorPolicy@CSafeArray@@QAEXH@Z=C:\Windows\SysWOW64\wbemcomn.?SetDestructorPolicy@CSafeArray@@QAEXH@Z
  ?SetDispatch@CVar@@QAEXPAUIDispatch@@@Z=C:\Windows\SysWOW64\wbemcomn.?SetDispatch@CVar@@QAEXPAUIDispatch@@@Z
  ?SetDispatchAt@CSafeArray@@QAEHHPAUIDispatch@@@Z=C:\Windows\SysWOW64\wbemcomn.?SetDispatchAt@CSafeArray@@QAEHHPAUIDispatch@@@Z
  ?SetDouble@CVar@@QAEXN@Z=C:\Windows\SysWOW64\wbemcomn.?SetDouble@CVar@@QAEXN@Z
  ?SetDoubleAt@CSafeArray@@QAEHHN@Z=C:\Windows\SysWOW64\wbemcomn.?SetDoubleAt@CSafeArray@@QAEHHN@Z
  ?SetEmbeddedObject@CVar@@QAEXPAUIUnknown@@@Z=C:\Windows\SysWOW64\wbemcomn.?SetEmbeddedObject@CVar@@QAEXPAUIUnknown@@@Z
  ?SetExpandStr@Registry@@QAEHPBG0@Z=C:\Windows\SysWOW64\wbemcomn.?SetExpandStr@Registry@@QAEHPBG0@Z
  ?SetExpression@CLike@@QAEXPBGG@Z=C:\Windows\SysWOW64\wbemcomn.?SetExpression@CLike@@QAEXPBGG@Z
  ?SetFailure@CStaticCritSec@@SGXXZ=C:\Windows\SysWOW64\wbemcomn.?SetFailure@CStaticCritSec@@SGXXZ
  ?SetFileTime@CVar@@QAEXPAU_FILETIME@@@Z=C:\Windows\SysWOW64\wbemcomn.?SetFileTime@CVar@@QAEXPAU_FILETIME@@@Z
  ?SetFileTime@CWbemTime@@QAEHABU_FILETIME@@@Z=C:\Windows\SysWOW64\wbemcomn.?SetFileTime@CWbemTime@@QAEHABU_FILETIME@@@Z
  ?SetFlags@C9XAce@@UAEXJ@Z=C:\Windows\SysWOW64\wbemcomn.?SetFlags@C9XAce@@UAEXJ@Z
  ?SetFlags@CNtAce@@UAEXJ@Z=C:\Windows\SysWOW64\wbemcomn.?SetFlags@CNtAce@@UAEXJ@Z
  ?SetFloat@CVar@@QAEXM@Z=C:\Windows\SysWOW64\wbemcomn.?SetFloat@CVar@@QAEXM@Z
  ?SetFloatAt@CSafeArray@@QAEHHM@Z=C:\Windows\SysWOW64\wbemcomn.?SetFloatAt@CSafeArray@@QAEHHM@Z
  ?SetFromAbsoluteCopy@CNtSecurityDescriptor@@QAEHPAUSNtAbsoluteSD@@@Z=C:\Windows\SysWOW64\wbemcomn.?SetFromAbsoluteCopy@CNtSecurityDescriptor@@QAEHPAUSNtAbsoluteSD@@@Z
  ?SetGroup@CNtSecurityDescriptor@@QAEHPAVCNtSid@@@Z=C:\Windows\SysWOW64\wbemcomn.?SetGroup@CNtSecurityDescriptor@@QAEHPAVCNtSid@@@Z
  ?SetGrowGranularity@CSafeArray@@QAEXH@Z=C:\Windows\SysWOW64\wbemcomn.?SetGrowGranularity@CSafeArray@@QAEXH@Z
  ?SetHandle@CPropertyName@@QAEXPAX@Z=C:\Windows\SysWOW64\wbemcomn.?SetHandle@CPropertyName@@QAEXPAX@Z
  ?SetIdleTimeout@CExecQueue@@QAEXK@Z=C:\Windows\SysWOW64\wbemcomn.?SetIdleTimeout@CExecQueue@@QAEXK@Z
  ?SetInfo@CClientOpsNode@@QAEXPAX@Z=C:\Windows\SysWOW64\wbemcomn.?SetInfo@CClientOpsNode@@QAEXPAX@Z
  ?SetInterval@CBasicUnloadInstruction@@QAEXAAVCWbemInterval@@@Z=C:\Windows\SysWOW64\wbemcomn.?SetInterval@CBasicUnloadInstruction@@QAEXAAVCWbemInterval@@@Z
  ?SetLPSTR@CVar@@QAEHPADH@Z=C:\Windows\SysWOW64\wbemcomn.?SetLPSTR@CVar@@QAEHPADH@Z
  ?SetLPWSTR@CVar@@QAEHPAGH@Z=C:\Windows\SysWOW64\wbemcomn.?SetLPWSTR@CVar@@QAEHPAGH@Z
  ?SetLogingEnabled@CMemoryLog@@QAEX_N@Z=C:\Windows\SysWOW64\wbemcomn.?SetLogingEnabled@CMemoryLog@@QAEX_N@Z
  ?SetLong@CVar@@QAEXJ@Z=C:\Windows\SysWOW64\wbemcomn.?SetLong@CVar@@QAEXJ@Z
  ?SetLongAt@CSafeArray@@QAEHHJ@Z=C:\Windows\SysWOW64\wbemcomn.?SetLongAt@CSafeArray@@QAEHHJ@Z
  ?SetMax@CMinMaxLimitControl@@QAEXK@Z=C:\Windows\SysWOW64\wbemcomn.?SetMax@CMinMaxLimitControl@@QAEXK@Z
  ?SetMilliseconds@CWbemInterval@@QAEXK@Z=C:\Windows\SysWOW64\wbemcomn.?SetMilliseconds@CWbemInterval@@QAEXK@Z
  ?SetMin@CMinMaxLimitControl@@QAEXK@Z=C:\Windows\SysWOW64\wbemcomn.?SetMin@CMinMaxLimitControl@@QAEXK@Z
  ?SetMultiStr@Registry@@QAEHPBGPAGK@Z=C:\Windows\SysWOW64\wbemcomn.?SetMultiStr@Registry@@QAEHPBGPAGK@Z
  ?SetNext@CExecRequest@@QAEXPAV1@@Z=C:\Windows\SysWOW64\wbemcomn.?SetNext@CExecRequest@@QAEXPAV1@@Z
  ?SetOffline@CWbemInstallObject@@SGX_N@Z=C:\Windows\SysWOW64\wbemcomn.?SetOffline@CWbemInstallObject@@SGX_N@Z
  ?SetOverflowIdleTimeout@CExecQueue@@QAEXK@Z=C:\Windows\SysWOW64\wbemcomn.?SetOverflowIdleTimeout@CExecQueue@@QAEXK@Z
  ?SetOwner@CNtSecurityDescriptor@@QAEHPAVCNtSid@@@Z=C:\Windows\SysWOW64\wbemcomn.?SetOwner@CNtSecurityDescriptor@@QAEHPAVCNtSid@@@Z
  ?SetPersistentCfgValue@CPersistentConfig@@QAEHKK@Z=C:\Windows\SysWOW64\wbemcomn.?SetPersistentCfgValue@CPersistentConfig@@QAEHKK@Z
  ?SetPreferredLanguages@CMUILocale@@SGJKPBGPAK@Z=C:\Windows\SysWOW64\wbemcomn.?SetPreferredLanguages@CMUILocale@@SGJKPBGPAK@Z
  ?SetPriority@CExecRequest@@QAEXJ@Z=C:\Windows\SysWOW64\wbemcomn.?SetPriority@CExecRequest@@QAEXJ@Z
  ?SetQWORD@Registry@@QAEHPBG_K@Z=C:\Windows\SysWOW64\wbemcomn.?SetQWORD@Registry@@QAEHPBG_K@Z
  ?SetRaw@CVar@@QAEXHPAXH@Z=C:\Windows\SysWOW64\wbemcomn.?SetRaw@CVar@@QAEXHPAXH@Z
  ?SetRawArrayBinding@CVarVector@@QAEXH@Z=C:\Windows\SysWOW64\wbemcomn.?SetRawArrayBinding@CVarVector@@QAEXH@Z
  ?SetRawArrayData@CVarVector@@QAEJPAXHH@Z=C:\Windows\SysWOW64\wbemcomn.?SetRawArrayData@CVarVector@@QAEJPAXHH@Z
  ?SetRawArrayMaxElement@CSafeArray@@QAEXH@Z=C:\Windows\SysWOW64\wbemcomn.?SetRawArrayMaxElement@CSafeArray@@QAEXH@Z
  ?SetRawArraySize@CVarVector@@QAEHH@Z=C:\Windows\SysWOW64\wbemcomn.?SetRawArraySize@CVarVector@@QAEHH@Z
  ?SetRawData@CSafeArray@@QAEHPAXHH@Z=C:\Windows\SysWOW64\wbemcomn.?SetRawData@CSafeArray@@QAEHPAXHH@Z
  ?SetRegistryPathCIMOM@CWbemInstallObject@@SGXPBG@Z=C:\Windows\SysWOW64\wbemcomn.?SetRegistryPathCIMOM@CWbemInstallObject@@SGXPBG@Z
  ?SetRegistryPathWbem@CWbemInstallObject@@SGXPBG@Z=C:\Windows\SysWOW64\wbemcomn.?SetRegistryPathWbem@CWbemInstallObject@@SGXPBG@Z
  ?SetRepositoryFolder@CWbemInstallObject@@SGXPBG@Z=C:\Windows\SysWOW64\wbemcomn.?SetRepositoryFolder@CWbemInstallObject@@SGXPBG@Z
  ?SetRequestLimits@CExecQueue@@QAEXJJJ@Z=C:\Windows\SysWOW64\wbemcomn.?SetRequestLimits@CExecQueue@@QAEXJJJ@Z
  ?SetSacl@CNtSecurityDescriptor@@QAEHPAVCNtAcl@@@Z=C:\Windows\SysWOW64\wbemcomn.?SetSacl@CNtSecurityDescriptor@@QAEHPAVCNtAcl@@@Z
  ?SetSafeArray@CVar@@QAEXHPAUtagSAFEARRAY@@@Z=C:\Windows\SysWOW64\wbemcomn.?SetSafeArray@CVar@@QAEXHPAUtagSAFEARRAY@@@Z
  ?SetScalarAt@CSafeArray@@AAEHHTSA_ArrayScalar@@@Z=C:\Windows\SysWOW64\wbemcomn.?SetScalarAt@CSafeArray@@AAEHHTSA_ArrayScalar@@@Z
  ?SetShort@CVar@@QAEXF@Z=C:\Windows\SysWOW64\wbemcomn.?SetShort@CVar@@QAEXF@Z
  ?SetShortAt@CSafeArray@@QAEHHF@Z=C:\Windows\SysWOW64\wbemcomn.?SetShortAt@CSafeArray@@QAEHHF@Z
  ?SetSize@CBuffer@@QAEJK@Z=C:\Windows\SysWOW64\wbemcomn.?SetSize@CBuffer@@QAEJK@Z
  ?SetSize@CBuffer@@UAGJT_ULARGE_INTEGER@@@Z=C:\Windows\SysWOW64\wbemcomn.?SetSize@CBuffer@@UAGJT_ULARGE_INTEGER@@@Z
  ?SetSize@CFlexArray@@QAEXH@Z=C:\Windows\SysWOW64\wbemcomn.?SetSize@CFlexArray@@QAEXH@Z
  ?SetSleepAtMax@CMinMaxLimitControl@@QAEXK@Z=C:\Windows\SysWOW64\wbemcomn.?SetSleepAtMax@CMinMaxLimitControl@@QAEXK@Z
  ?SetStr@Registry@@QAEHPBG0@Z=C:\Windows\SysWOW64\wbemcomn.?SetStr@Registry@@QAEHPBG0@Z
  ?SetSystemTime@CWbemTime@@QAEHABU_SYSTEMTIME@@@Z=C:\Windows\SysWOW64\wbemcomn.?SetSystemTime@CWbemTime@@QAEHABU_SYSTEMTIME@@@Z
  ?SetTemplate@CTextTemplate@@QAEXPBG@Z=C:\Windows\SysWOW64\wbemcomn.?SetTemplate@CTextTemplate@@QAEXPBG@Z
  ?SetThreadLimits@CExecQueue@@QAEXJJJ@Z=C:\Windows\SysWOW64\wbemcomn.?SetThreadLimits@CExecQueue@@QAEXJJJ@Z
  ?SetTolerance@QL_LEVEL_1_RPN_EXPRESSION@@UAEXABU_tag_WbemQl1Tolerance@@@Z=C:\Windows\SysWOW64\wbemcomn.?SetTolerance@QL_LEVEL_1_RPN_EXPRESSION@@UAEXABU_tag_WbemQl1Tolerance@@@Z
  ?SetTraceLevel@CWMITraceSettings@@QAEXE@Z=C:\Windows\SysWOW64\wbemcomn.?SetTraceLevel@CWMITraceSettings@@QAEXE@Z
  ?SetUnknown@CVar@@QAEXPAUIUnknown@@@Z=C:\Windows\SysWOW64\wbemcomn.?SetUnknown@CVar@@QAEXPAUIUnknown@@@Z
  ?SetUnknownAt@CSafeArray@@QAEHHPAUIUnknown@@@Z=C:\Windows\SysWOW64\wbemcomn.?SetUnknownAt@CSafeArray@@QAEHHPAUIUnknown@@@Z
  ?SetVarVector@CVar@@QAEXPAVCVarVector@@H@Z=C:\Windows\SysWOW64\wbemcomn.?SetVarVector@CVar@@QAEXPAVCVarVector@@H@Z
  ?SetVariant@CVar@@QAEHPAUtagVARIANT@@H@Z=C:\Windows\SysWOW64\wbemcomn.?SetVariant@CVar@@QAEHPAUtagVARIANT@@H@Z
  ?SetVariantAt@CSafeArray@@QAEHHPAUtagVARIANT@@@Z=C:\Windows\SysWOW64\wbemcomn.?SetVariantAt@CSafeArray@@QAEHHPAUtagVARIANT@@@Z
  ?SetWhenDoneHandle@CExecRequest@@QAEXPAX@Z=C:\Windows\SysWOW64\wbemcomn.?SetWhenDoneHandle@CExecRequest@@QAEXPAX@Z
  ?SetWord@CVar@@QAEXG@Z=C:\Windows\SysWOW64\wbemcomn.?SetWord@CVar@@QAEXG@Z
  ?Shrink@CSmallArrayBlob@@IAEPAV1@XZ=C:\Windows\SysWOW64\wbemcomn.?Shrink@CSmallArrayBlob@@IAEPAV1@XZ
  ?ShrinkIfNeeded@CSmallArrayBlob@@IAEPAV1@XZ=C:\Windows\SysWOW64\wbemcomn.?ShrinkIfNeeded@CSmallArrayBlob@@IAEPAV1@XZ
  ?Shutdown@CExecQueue@@QAEXXZ=C:\Windows\SysWOW64\wbemcomn.?Shutdown@CExecQueue@@QAEXXZ
  ?Shutdown@CTimerGenerator@@UAEJXZ=C:\Windows\SysWOW64\wbemcomn.?Shutdown@CTimerGenerator@@UAEJXZ
  ?Shutdown@CWbemInstallObject@@SGXXZ=C:\Windows\SysWOW64\wbemcomn.?Shutdown@CWbemInstallObject@@SGXXZ
  ?ShutdownThread@CExecQueue@@MAEXPAVCThreadRecord@1@@Z=C:\Windows\SysWOW64\wbemcomn.?ShutdownThread@CExecQueue@@MAEXPAVCThreadRecord@1@@Z
  ?SitOutPenalty@CExecQueue@@MAEXJ@Z=C:\Windows\SysWOW64\wbemcomn.?SitOutPenalty@CExecQueue@@MAEXJ@Z
  ?Size@CFlexArray@@QBEHXZ=C:\Windows\SysWOW64\wbemcomn.?Size@CFlexArray@@QBEHXZ
  ?Size@CSafeArray@@QAEHXZ=C:\Windows\SysWOW64\wbemcomn.?Size@CSafeArray@@QAEHXZ
  ?Size@CSmallArrayBlob@@QBEHXZ=C:\Windows\SysWOW64\wbemcomn.?Size@CSmallArrayBlob@@QBEHXZ
  ?Size@CVarVector@@QAEHXZ=C:\Windows\SysWOW64\wbemcomn.?Size@CVarVector@@QAEHXZ
  ?Size@CWStringArray@@QBEHXZ=C:\Windows\SysWOW64\wbemcomn.?Size@CWStringArray@@QBEHXZ
  ?Sort@CFlexArray@@QAEXXZ=C:\Windows\SysWOW64\wbemcomn.?Sort@CFlexArray@@QAEXXZ
  ?Sort@CSmallArrayBlob@@QAEXXZ=C:\Windows\SysWOW64\wbemcomn.?Sort@CSmallArrayBlob@@QAEXXZ
  ?Sort@CWStringArray@@QAEXXZ=C:\Windows\SysWOW64\wbemcomn.?Sort@CWStringArray@@QAEXXZ
  ?Start@CTraceSessionControl@@SGKPBU_GUID@@PAVCWMITraceSettings@@@Z=C:\Windows\SysWOW64\wbemcomn.?Start@CTraceSessionControl@@SGKPBU_GUID@@PAVCWMITraceSettings@@@Z
  ?Stat@CBuffer@@UAGJPAUtagSTATSTG@@K@Z=C:\Windows\SysWOW64\wbemcomn.?Stat@CBuffer@@UAGJPAUtagSTATSTG@@K@Z
  ?Status@CSafeArray@@QAEHXZ=C:\Windows\SysWOW64\wbemcomn.?Status@CSafeArray@@QAEHXZ
  ?Status@CVar@@QAEHXZ=C:\Windows\SysWOW64\wbemcomn.?Status@CVar@@QAEHXZ
  ?Status@CVarVector@@QAEHXZ=C:\Windows\SysWOW64\wbemcomn.?Status@CVarVector@@QAEHXZ
  ?StripToToken@WString2@@QAEAAV1@GH@Z=C:\Windows\SysWOW64\wbemcomn.?StripToToken@WString2@@QAEAAV1@GH@Z
  ?StripToToken@WString@@QAEAAV1@GH@Z=C:\Windows\SysWOW64\wbemcomn.?StripToToken@WString@@QAEAAV1@GH@Z
  ?StripWhereClause@CWQLScanner@@AAEHXZ=C:\Windows\SysWOW64\wbemcomn.?StripWhereClause@CWQLScanner@@AAEHXZ
  ?StripWs@WString2@@QAEAAV1@H@Z=C:\Windows\SysWOW64\wbemcomn.?StripWs@WString2@@QAEAAV1@H@Z
  ?StripWs@WString@@QAEAAV1@H@Z=C:\Windows\SysWOW64\wbemcomn.?StripWs@WString@@QAEAAV1@H@Z
  ?SwitchRow@CLike@@AAEXIAAPAE0@Z=C:\Windows\SysWOW64\wbemcomn.?SwitchRow@CLike@@AAEXIAAPAE0@Z
  ?Terminate@CBasicUnloadInstruction@@QAEXXZ=C:\Windows\SysWOW64\wbemcomn.?Terminate@CBasicUnloadInstruction@@QAEXXZ
  ?ThreadMain@CExecQueue@@MAEXPAVCThreadRecord@1@@Z=C:\Windows\SysWOW64\wbemcomn.?ThreadMain@CExecQueue@@MAEXPAVCThreadRecord@1@@Z
  ?TimeFormat1@CDateTimeParser@@IAEHPBGH@Z=C:\Windows\SysWOW64\wbemcomn.?TimeFormat1@CDateTimeParser@@IAEHPBGH@Z
  ?TimeFormat2@CDateTimeParser@@IAEHPBGH@Z=C:\Windows\SysWOW64\wbemcomn.?TimeFormat2@CDateTimeParser@@IAEHPBGH@Z
  ?TimeFormat3@CDateTimeParser@@IAEHPBGH@Z=C:\Windows\SysWOW64\wbemcomn.?TimeFormat3@CDateTimeParser@@IAEHPBGH@Z
  ?TimeFormat4@CDateTimeParser@@IAEHPBGH@Z=C:\Windows\SysWOW64\wbemcomn.?TimeFormat4@CDateTimeParser@@IAEHPBGH@Z
  ?TimeFormat5@CDateTimeParser@@IAEHPBGH@Z=C:\Windows\SysWOW64\wbemcomn.?TimeFormat5@CDateTimeParser@@IAEHPBGH@Z
  ?TimeFormat6@CDateTimeParser@@IAEHPBGH@Z=C:\Windows\SysWOW64\wbemcomn.?TimeFormat6@CDateTimeParser@@IAEHPBGH@Z
  ?TimeFormat7@CDateTimeParser@@IAEHPBGH@Z=C:\Windows\SysWOW64\wbemcomn.?TimeFormat7@CDateTimeParser@@IAEHPBGH@Z
  ?TimeFormat8@CDateTimeParser@@IAEHPBGH@Z=C:\Windows\SysWOW64\wbemcomn.?TimeFormat8@CDateTimeParser@@IAEHPBGH@Z
  ?TimeFormat9@CDateTimeParser@@IAEHPBGH@Z=C:\Windows\SysWOW64\wbemcomn.?TimeFormat9@CDateTimeParser@@IAEHPBGH@Z
  ?TimeToWait@CInstructionQueue@@IAE?AVCWbemInterval@@XZ=C:\Windows\SysWOW64\wbemcomn.?TimeToWait@CInstructionQueue@@IAE?AVCWbemInterval@@XZ
  ?ToSingleChar@CVar@@QAEHXZ=C:\Windows\SysWOW64\wbemcomn.?ToSingleChar@CVar@@QAEHXZ
  ?ToSingleChar@CVarVector@@QAEHXZ=C:\Windows\SysWOW64\wbemcomn.?ToSingleChar@CVarVector@@QAEHXZ
  ?ToUI4@CVar@@QAEHXZ=C:\Windows\SysWOW64\wbemcomn.?ToUI4@CVar@@QAEHXZ
  ?ToUI4@CVarVector@@QAEHXZ=C:\Windows\SysWOW64\wbemcomn.?ToUI4@CVarVector@@QAEHXZ
  ?TouchHead@CInstructionQueue@@IAEXXZ=C:\Windows\SysWOW64\wbemcomn.?TouchHead@CInstructionQueue@@IAEXXZ
  ?Transform@MD5@@SGXPAXIQAE@Z=C:\Windows\SysWOW64\wbemcomn.?Transform@MD5@@SGXPAXIQAE@Z
  ?Transform@SHA256@@SGXPAXIQAE@Z=C:\Windows\SysWOW64\wbemcomn.?Transform@SHA256@@SGXPAXIQAE@Z
  ?TranslateIntrinsic@CAbstractQl1Parser@@KGKPBG@Z=C:\Windows\SysWOW64\wbemcomn.?TranslateIntrinsic@CAbstractQl1Parser@@KGKPBG@Z
  ?Trim@CFlexArray@@QAEXXZ=C:\Windows\SysWOW64\wbemcomn.?Trim@CFlexArray@@QAEXXZ
  ?Trim@CSafeArray@@QAEHXZ=C:\Windows\SysWOW64\wbemcomn.?Trim@CSafeArray@@QAEHXZ
  ?Trim@CSmallArrayBlob@@QAEXXZ=C:\Windows\SysWOW64\wbemcomn.?Trim@CSmallArrayBlob@@QAEXXZ
  ?TruncAtLToken@WString2@@QAEAAV1@G@Z=C:\Windows\SysWOW64\wbemcomn.?TruncAtLToken@WString2@@QAEAAV1@G@Z
  ?TruncAtLToken@WString@@QAEAAV1@G@Z=C:\Windows\SysWOW64\wbemcomn.?TruncAtLToken@WString@@QAEAAV1@G@Z
  ?TruncAtRToken@WString2@@QAEAAV1@G@Z=C:\Windows\SysWOW64\wbemcomn.?TruncAtRToken@WString2@@QAEAAV1@G@Z
  ?TruncAtRToken@WString@@QAEAAV1@G@Z=C:\Windows\SysWOW64\wbemcomn.?TruncAtRToken@WString@@QAEAAV1@G@Z
  ?TypeToText@CVar@@SGPAGH@Z=C:\Windows\SysWOW64\wbemcomn.?TypeToText@CVar@@SGPAGH@Z
  ?Unaccess@CSafeArray@@QAEJXZ=C:\Windows\SysWOW64\wbemcomn.?Unaccess@CSafeArray@@QAEJXZ
  ?UnaccessRawArray@CVarVector@@QAEJXZ=C:\Windows\SysWOW64\wbemcomn.?UnaccessRawArray@CVarVector@@QAEJXZ
  ?UnbindPtr@CFlexArray@@QAEPAPAXXZ=C:\Windows\SysWOW64\wbemcomn.?UnbindPtr@CFlexArray@@QAEPAPAXXZ
  ?UnbindPtr@WString2@@QAEPAGXZ=C:\Windows\SysWOW64\wbemcomn.?UnbindPtr@WString2@@QAEPAGXZ
  ?UnbindPtr@WString@@QAEPAGXZ=C:\Windows\SysWOW64\wbemcomn.?UnbindPtr@WString@@QAEPAGXZ
  ?UnblockedWaitForSingleObject@CExecQueue@@MAEKPAXKPAVCThreadRecord@1@@Z=C:\Windows\SysWOW64\wbemcomn.?UnblockedWaitForSingleObject@CExecQueue@@MAEKPAXKPAVCThreadRecord@1@@Z
  ?UncompressBuffer@CMRCICompression@@QAEIPAEK0KW4CompressionLevel@1@@Z=C:\Windows\SysWOW64\wbemcomn.?UncompressBuffer@CMRCICompression@@QAEIPAEK0KW4CompressionLevel@1@@Z
  ?UncompressFile@CMRCICompression@@QAEHPBG0@Z=C:\Windows\SysWOW64\wbemcomn.?UncompressFile@CMRCICompression@@QAEHPBG0@Z
  ?UncompressFileV1@CMRCICompression@@IAEHHH@Z=C:\Windows\SysWOW64\wbemcomn.?UncompressFileV1@CMRCICompression@@IAEHHH@Z
  ?UninitializeThread@CExecQueue@@MAEXXZ=C:\Windows\SysWOW64\wbemcomn.?UninitializeThread@CExecQueue@@MAEXXZ
  ?Union@CWStringArray@@SGXAAV1@00@Z=C:\Windows\SysWOW64\wbemcomn.?Union@CWStringArray@@SGXAAV1@00@Z
  ?Unlock@?$CLockableFlexArray@VCStaticCritSec@@@@QAEXXZ=C:\Windows\SysWOW64\wbemcomn.?Unlock@?$CLockableFlexArray@VCStaticCritSec@@@@QAEXXZ
  ?Unlock@CClientOpsNode@@QAEXXZ=C:\Windows\SysWOW64\wbemcomn.?Unlock@CClientOpsNode@@QAEXXZ
  ?UnlockRegion@CBuffer@@UAGJT_ULARGE_INTEGER@@0K@Z=C:\Windows\SysWOW64\wbemcomn.?UnlockRegion@CBuffer@@UAGJT_ULARGE_INTEGER@@0K@Z
  ?Unqueue@CFlexQueue@@QAEPAXXZ=C:\Windows\SysWOW64\wbemcomn.?Unqueue@CFlexQueue@@QAEPAXXZ
  ?Unquote@WString2@@QAEXXZ=C:\Windows\SysWOW64\wbemcomn.?Unquote@WString2@@QAEXXZ
  ?Unquote@WString@@QAEXXZ=C:\Windows\SysWOW64\wbemcomn.?Unquote@WString@@QAEXXZ
  ?UnregisterCMIFlushRepositoryCacheHook@CWbemInstallObject@@SGXXZ=C:\Windows\SysWOW64\wbemcomn.?UnregisterCMIFlushRepositoryCacheHook@CWbemInstallObject@@SGXXZ
  ?UpdateChildren@CClientOpsNode@@AAEXPAV1@@Z=C:\Windows\SysWOW64\wbemcomn.?UpdateChildren@CClientOpsNode@@AAEXPAV1@@Z
  ?ValidateMemSize@CWin32DefaultArena@@SGHH@Z=C:\Windows\SysWOW64\wbemcomn.?ValidateMemSize@CWin32DefaultArena@@SGHH@Z
  ?WaitAndPeek@CInstructionQueue@@QAEJAAPAVCTimerInstruction@@AAVCWbemTime@@@Z=C:\Windows\SysWOW64\wbemcomn.?WaitAndPeek@CInstructionQueue@@QAEJAAPAVCTimerInstruction@@AAVCWbemTime@@@Z
  ?WaitForResumption@CHaltable@@QAEJXZ=C:\Windows\SysWOW64\wbemcomn.?WaitForResumption@CHaltable@@QAEJXZ
  ?WaitForSingleObjectWhileBusy@CExecQueue@@MAEKPAXKPAVCThreadRecord@1@@Z=C:\Windows\SysWOW64\wbemcomn.?WaitForSingleObjectWhileBusy@CExecQueue@@MAEKPAXKPAVCThreadRecord@1@@Z
  ?WbemHeapFree@CWin32DefaultArena@@SGXXZ=C:\Windows\SysWOW64\wbemcomn.?WbemHeapFree@CWin32DefaultArena@@SGXXZ
  ?WbemHeapInitialize@CWin32DefaultArena@@SGHPAX@Z=C:\Windows\SysWOW64\wbemcomn.?WbemHeapInitialize@CWin32DefaultArena@@SGHPAX@Z
  ?WbemMemAlloc@CWin32DefaultArena@@SAPAXK@Z=C:\Windows\SysWOW64\wbemcomn.?WbemMemAlloc@CWin32DefaultArena@@SAPAXK@Z
  ?WbemMemFree@CWin32DefaultArena@@SAHPAX@Z=C:\Windows\SysWOW64\wbemcomn.?WbemMemFree@CWin32DefaultArena@@SAHPAX@Z
  ?WbemMemReAlloc@CWin32DefaultArena@@SGPAXPAXK@Z=C:\Windows\SysWOW64\wbemcomn.?WbemMemReAlloc@CWin32DefaultArena@@SGPAXPAXK@Z
  ?WbemMemSize@CWin32DefaultArena@@SAKPAX@Z=C:\Windows\SysWOW64\wbemcomn.?WbemMemSize@CWin32DefaultArena@@SAKPAX@Z
  ?WbemOutOfMemory@CWin32DefaultArena@@SGHXZ=C:\Windows\SysWOW64\wbemcomn.?WbemOutOfMemory@CWin32DefaultArena@@SGHXZ
  ?WbemSysAllocString@CWin32DefaultArena@@SGPAGPBG@Z=C:\Windows\SysWOW64\wbemcomn.?WbemSysAllocString@CWin32DefaultArena@@SGPAGPBG@Z
  ?WbemSysAllocStringByteLen@CWin32DefaultArena@@SGPAGPBDI@Z=C:\Windows\SysWOW64\wbemcomn.?WbemSysAllocStringByteLen@CWin32DefaultArena@@SGPAGPBDI@Z
  ?WbemSysAllocStringLen@CWin32DefaultArena@@SGPAGPBGI@Z=C:\Windows\SysWOW64\wbemcomn.?WbemSysAllocStringLen@CWin32DefaultArena@@SGPAGPBGI@Z
  ?WbemSysFreeString@CWin32DefaultArena@@SGXPAG@Z=C:\Windows\SysWOW64\wbemcomn.?WbemSysFreeString@CWin32DefaultArena@@SGXPAG@Z
  ?WbemSysReAllocString@CWin32DefaultArena@@SGHPAPAGPBG@Z=C:\Windows\SysWOW64\wbemcomn.?WbemSysReAllocString@CWin32DefaultArena@@SGHPAPAGPBG@Z
  ?WbemSysReAllocStringLen@CWin32DefaultArena@@SGHPAPAGPBGI@Z=C:\Windows\SysWOW64\wbemcomn.?WbemSysReAllocStringLen@CWin32DefaultArena@@SGHPAPAGPBGI@Z
  ?WildcardTest@WString@@QBEHPBG@Z=C:\Windows\SysWOW64\wbemcomn.?WildcardTest@WString@@QBEHPBG@Z
  ?Write@CBuffer@@UAGJPBXKPAK@Z=C:\Windows\SysWOW64\wbemcomn.?Write@CBuffer@@UAGJPBXKPAK@Z
  ?Write@CMemoryLog@@QAEXJ@Z=C:\Windows\SysWOW64\wbemcomn.?Write@CMemoryLog@@QAEXJ@Z
  ?Write@CMemoryLog@@QAEXPAXK@Z=C:\Windows\SysWOW64\wbemcomn.?Write@CMemoryLog@@QAEXPAXK@Z
  ?WriteLPWSTR@CBuffer@@QAEJPBG@Z=C:\Windows\SysWOW64\wbemcomn.?WriteLPWSTR@CBuffer@@QAEJPBG@Z
  ?WriteToRegistry@CWMITraceSettings@@QAEKPBG@Z=C:\Windows\SysWOW64\wbemcomn.?WriteToRegistry@CWMITraceSettings@@QAEKPBG@Z
  ?_Alloc@CMUILocale@@SGPAXI@Z=C:\Windows\SysWOW64\wbemcomn.?_Alloc@CMUILocale@@SGPAXI@Z
  ?_Free@CMUILocale@@SGHPAX@Z=C:\Windows\SysWOW64\wbemcomn.?_Free@CMUILocale@@SGHPAX@Z
  ?_GetSystemDefaultLocale@CMUILocale@@SGJPAPAGK@Z=C:\Windows\SysWOW64\wbemcomn.?_GetSystemDefaultLocale@CMUILocale@@SGJPAPAGK@Z
  ?_GetSystemDefaultLocaleName@CMUILocale@@SGJPAPAG@Z=C:\Windows\SysWOW64\wbemcomn.?_GetSystemDefaultLocaleName@CMUILocale@@SGJPAPAG@Z
  ?_GetThreadPreferredUILanguages@CMUILocale@@SGJKPAKPAG0@Z=C:\Windows\SysWOW64\wbemcomn.?_GetThreadPreferredUILanguages@CMUILocale@@SGJKPAKPAG0@Z
  ?_LCIDToLocaleName@CMUILocale@@SGJKPAGHK@Z=C:\Windows\SysWOW64\wbemcomn.?_LCIDToLocaleName@CMUILocale@@SGJKPAGHK@Z
  ?_LocaleNameToLCID@CMUILocale@@SGJPAGKPAK@Z=C:\Windows\SysWOW64\wbemcomn.?_LocaleNameToLCID@CMUILocale@@SGJPAGKPAK@Z
  ?_RetrieveSidFromCall@CIdentitySecurity@@AAEJAAVCNtSid@@@Z=C:\Windows\SysWOW64\wbemcomn.?_RetrieveSidFromCall@CIdentitySecurity@@AAEJAAVCNtSid@@@Z
  ?_SetThreadPreferredUILanguages@CMUILocale@@SGJKPBGPAK@Z=C:\Windows\SysWOW64\wbemcomn.?_SetThreadPreferredUILanguages@CMUILocale@@SGJKPBGPAK@Z
  ?_ThreadEntry@CExecQueue@@KGKPAX@Z=C:\Windows\SysWOW64\wbemcomn.?_ThreadEntry@CExecQueue@@KGKPAX@Z
  ?aggregate_by@CAbstractQl1Parser@@IAEHXZ=C:\Windows\SysWOW64\wbemcomn.?aggregate_by@CAbstractQl1Parser@@IAEHXZ
  ?aggregate_within@CAbstractQl1Parser@@IAEHXZ=C:\Windows\SysWOW64\wbemcomn.?aggregate_within@CAbstractQl1Parser@@IAEHXZ
  ?aggregation_params@CAbstractQl1Parser@@IAEHXZ=C:\Windows\SysWOW64\wbemcomn.?aggregation_params@CAbstractQl1Parser@@IAEHXZ
  ?anyFailed_@CStaticCritSec@@0HA=C:\Windows\SysWOW64\wbemcomn.?anyFailed_@CStaticCritSec@@0HA
  ?anyFailure@CStaticCritSec@@SGHXZ=C:\Windows\SysWOW64\wbemcomn.?anyFailure@CStaticCritSec@@SGHXZ
  ?charbuf@CBaseMrciCompression@@AAEXI@Z=C:\Windows\SysWOW64\wbemcomn.?charbuf@CBaseMrciCompression@@AAEXI@Z
  ?class_name@CAbstractQl1Parser@@IAEHXZ=C:\Windows\SysWOW64\wbemcomn.?class_name@CAbstractQl1Parser@@IAEHXZ
  ?comp_operator@CAbstractQl1Parser@@IAEHXZ=C:\Windows\SysWOW64\wbemcomn.?comp_operator@CAbstractQl1Parser@@IAEHXZ
  ?equiv_operator@CAbstractQl1Parser@@IAEHXZ=C:\Windows\SysWOW64\wbemcomn.?equiv_operator@CAbstractQl1Parser@@IAEHXZ
  ?expandstring@CBaseMrciCompression@@AAEXPAPAEII@Z=C:\Windows\SysWOW64\wbemcomn.?expandstring@CBaseMrciCompression@@AAEXPAPAEII@Z
  ?expr2@CAbstractQl1Parser@@IAEHXZ=C:\Windows\SysWOW64\wbemcomn.?expr2@CAbstractQl1Parser@@IAEHXZ
  ?expr@CAbstractQl1Parser@@IAEHXZ=C:\Windows\SysWOW64\wbemcomn.?expr@CAbstractQl1Parser@@IAEHXZ
  ?finalize@CAbstractQl1Parser@@IAEHXZ=C:\Windows\SysWOW64\wbemcomn.?finalize@CAbstractQl1Parser@@IAEHXZ
  ?getbit@CBaseMrciCompression@@AAEIXZ=C:\Windows\SysWOW64\wbemcomn.?getbit@CBaseMrciCompression@@AAEIXZ
  ?getbits@CBaseMrciCompression@@AAEII@Z=C:\Windows\SysWOW64\wbemcomn.?getbits@CBaseMrciCompression@@AAEII@Z
  ?inithash@CBaseMrciCompression@@AAEXXZ=C:\Windows\SysWOW64\wbemcomn.?inithash@CBaseMrciCompression@@AAEXXZ
  ?isValid@CHaltable@@QAE_NXZ=C:\Windows\SysWOW64\wbemcomn.?isValid@CHaltable@@QAE_NXZ
  ?is_operator@CAbstractQl1Parser@@IAEHXZ=C:\Windows\SysWOW64\wbemcomn.?is_operator@CAbstractQl1Parser@@IAEHXZ
  ?leading_ident_expr@CAbstractQl1Parser@@IAEHXZ=C:\Windows\SysWOW64\wbemcomn.?leading_ident_expr@CAbstractQl1Parser@@IAEHXZ
  ?m_bOffline@CWbemInstallObject@@0_NA=C:\Windows\SysWOW64\wbemcomn.?m_bOffline@CWbemInstallObject@@0_NA
  ?m_csFunctionPointers@CMUILocale@@0VCCritSec@@A=C:\Windows\SysWOW64\wbemcomn.?m_csFunctionPointers@CMUILocale@@0VCCritSec@@A
  ?m_csFunctionPointers@CPublishWMIOperationEvent@@0VCCritSec@@A=C:\Windows\SysWOW64\wbemcomn.?m_csFunctionPointers@CPublishWMIOperationEvent@@0VCCritSec@@A
  ?m_csGlobal@CClientOpsNode@@0VCCritSec@@A=C:\Windows\SysWOW64\wbemcomn.?m_csGlobal@CClientOpsNode@@0VCCritSec@@A
  ?m_fEventActivityIdControl@CPublishWMIOperationEvent@@2P6GKKPAU_GUID@@@ZA=C:\Windows\SysWOW64\wbemcomn.?m_fEventActivityIdControl@CPublishWMIOperationEvent@@2P6GKKPAU_GUID@@@ZA
  ?m_fEventEnabled@CPublishWMIOperationEvent@@0P6GE_KPBU_EVENT_DESCRIPTOR@@@ZA=C:\Windows\SysWOW64\wbemcomn.?m_fEventEnabled@CPublishWMIOperationEvent@@0P6GE_KPBU_EVENT_DESCRIPTOR@@@ZA
  ?m_fEventRegister@CPublishWMIOperationEvent@@0P6GKPBU_GUID@@P6GX0KE_K1PAU_EVENT_FILTER_DESCRIPTOR@@PAX@Z3PA_K@ZA=C:\Windows\SysWOW64\wbemcomn.?m_fEventRegister@CPublishWMIOperationEvent@@0P6GKPBU_GUID@@P6GX0KE_K1PAU_EVENT_FILTER_DESCRIPTOR@@PAX@Z3PA_K@ZA
  ?m_fEventUnregister@CPublishWMIOperationEvent@@0P6GK_K@ZA=C:\Windows\SysWOW64\wbemcomn.?m_fEventUnregister@CPublishWMIOperationEvent@@0P6GK_K@ZA
  ?m_fEventWrite@CPublishWMIOperationEvent@@0P6GK_KPAU_EVENT_DESCRIPTOR@@KPAU_EVENT_DATA_DESCRIPTOR@@@ZA=C:\Windows\SysWOW64\wbemcomn.?m_fEventWrite@CPublishWMIOperationEvent@@0P6GK_KPAU_EVENT_DESCRIPTOR@@KPAU_EVENT_DATA_DESCRIPTOR@@@ZA
  ?m_fEventWriteTransfer@CPublishWMIOperationEvent@@2P6GK_KPBU_EVENT_DESCRIPTOR@@PBU_GUID@@2KPAU_EVENT_DATA_DESCRIPTOR@@@ZA=C:\Windows\SysWOW64\wbemcomn.?m_fEventWriteTransfer@CPublishWMIOperationEvent@@2P6GK_KPBU_EVENT_DESCRIPTOR@@PBU_GUID@@2KPAU_EVENT_DATA_DESCRIPTOR@@@ZA
  ?m_fGetLocaleInfoEx@CMUILocale@@0PAXA=C:\Windows\SysWOW64\wbemcomn.?m_fGetLocaleInfoEx@CMUILocale@@0PAXA
  ?m_fGetSystemDefaultLocaleName@CMUILocale@@0PAXA=C:\Windows\SysWOW64\wbemcomn.?m_fGetSystemDefaultLocaleName@CMUILocale@@0PAXA
  ?m_fGetThreadPreferredUILanguages@CMUILocale@@0PAXA=C:\Windows\SysWOW64\wbemcomn.?m_fGetThreadPreferredUILanguages@CMUILocale@@0PAXA
  ?m_fLCIDToLocaleName@CMUILocale@@0PAXA=C:\Windows\SysWOW64\wbemcomn.?m_fLCIDToLocaleName@CMUILocale@@0PAXA
  ?m_fLocaleNameToLCID@CMUILocale@@0PAXA=C:\Windows\SysWOW64\wbemcomn.?m_fLocaleNameToLCID@CMUILocale@@0PAXA
  ?m_fSetThreadPreferredUILanguages@CMUILocale@@0PAXA=C:\Windows\SysWOW64\wbemcomn.?m_fSetThreadPreferredUILanguages@CMUILocale@@0PAXA
  ?m_hAdvAPI32@CPublishWMIOperationEvent@@0PAUHINSTANCE__@@A=C:\Windows\SysWOW64\wbemcomn.?m_hAdvAPI32@CPublishWMIOperationEvent@@0PAUHINSTANCE__@@A
  ?m_hKernel32@CMUILocale@@0PAUHINSTANCE__@@A=C:\Windows\SysWOW64\wbemcomn.?m_hKernel32@CMUILocale@@0PAUHINSTANCE__@@A
  ?m_pEnvironmentMap@CWbemInstallObject@@0PAV?$map@PBGPBGU?$SZLess@PBG@@V?$wbem_allocator@PBG@@@std@@A=C:\Windows\SysWOW64\wbemcomn.?m_pEnvironmentMap@CWbemInstallObject@@0PAV?$map@PBGPBGU?$SZLess@PBG@@V?$wbem_allocator@PBG@@@std@@A
  ?m_pfFlushCache@CWbemInstallObject@@0P6GJH@ZA=C:\Windows\SysWOW64\wbemcomn.?m_pfFlushCache@CWbemInstallObject@@0P6GJH@ZA
  ?m_publisher@CPublishWMIOperationEvent@@2_KA=C:\Windows\SysWOW64\wbemcomn.?m_publisher@CPublishWMIOperationEvent@@2_KA
  ?m_pwszAutoRecoverPath@CWbemInstallObject@@0PBGB=C:\Windows\SysWOW64\wbemcomn.?m_pwszAutoRecoverPath@CWbemInstallObject@@0PBGB
  ?m_pwszBinaryPath@CWbemInstallObject@@0PBGB=C:\Windows\SysWOW64\wbemcomn.?m_pwszBinaryPath@CWbemInstallObject@@0PBGB
  ?m_pwszRegistryPathCIMOM@CWbemInstallObject@@0PBGB=C:\Windows\SysWOW64\wbemcomn.?m_pwszRegistryPathCIMOM@CWbemInstallObject@@0PBGB
  ?m_pwszRegistryPathWbem@CWbemInstallObject@@0PBGB=C:\Windows\SysWOW64\wbemcomn.?m_pwszRegistryPathWbem@CWbemInstallObject@@0PBGB
  ?m_pwszRepositoryPath@CWbemInstallObject@@0PBGB=C:\Windows\SysWOW64\wbemcomn.?m_pwszRepositoryPath@CWbemInstallObject@@0PBGB
  ?m_rgClsidDllMap@CWbemInstallObject@@0PAUClsidDllMapping@@A=C:\Windows\SysWOW64\wbemcomn.?m_rgClsidDllMap@CWbemInstallObject@@0PAUClsidDllMapping@@A
  ?m_rgDllModules@CWbemInstallObject@@0PAUDllModuleHandle@@A=C:\Windows\SysWOW64\wbemcomn.?m_rgDllModules@CWbemInstallObject@@0PAUDllModuleHandle@@A
  ?mrci1outsingle@CBaseMrciCompression@@AAEXI@Z=C:\Windows\SysWOW64\wbemcomn.?mrci1outsingle@CBaseMrciCompression@@AAEXI@Z
  ?mrci1outstring@CBaseMrciCompression@@AAEXII@Z=C:\Windows\SysWOW64\wbemcomn.?mrci1outstring@CBaseMrciCompression@@AAEXII@Z
  ?mrci2outsingle@CBaseMrciCompression@@AAEXI@Z=C:\Windows\SysWOW64\wbemcomn.?mrci2outsingle@CBaseMrciCompression@@AAEXI@Z
  ?mrci2outstring@CBaseMrciCompression@@AAEXII@Z=C:\Windows\SysWOW64\wbemcomn.?mrci2outstring@CBaseMrciCompression@@AAEXII@Z
  ?ms_XXX_Locale_From_LCID@CMUILocale@@SGJKPAPAG@Z=C:\Windows\SysWOW64\wbemcomn.?ms_XXX_Locale_From_LCID@CMUILocale@@SGJKPAPAG@Z
  ?ms_XXX_Locale_To_LCID@CMUILocale@@SGJPBGPAK@Z=C:\Windows\SysWOW64\wbemcomn.?ms_XXX_Locale_To_LCID@CMUILocale@@SGJPBGPAK@Z
  ?mstatic_lNumInits@CExecQueue@@1JA=C:\Windows\SysWOW64\wbemcomn.?mstatic_lNumInits@CExecQueue@@1JA
  ?opt_aggregation@CAbstractQl1Parser@@IAEHXZ=C:\Windows\SysWOW64\wbemcomn.?opt_aggregation@CAbstractQl1Parser@@IAEHXZ
  ?opt_having@CAbstractQl1Parser@@IAEHXZ=C:\Windows\SysWOW64\wbemcomn.?opt_having@CAbstractQl1Parser@@IAEHXZ
  ?opt_where@CAbstractQl1Parser@@IAEHXZ=C:\Windows\SysWOW64\wbemcomn.?opt_where@CAbstractQl1Parser@@IAEHXZ
  ?outlength@CBaseMrciCompression@@AAEXI@Z=C:\Windows\SysWOW64\wbemcomn.?outlength@CBaseMrciCompression@@AAEXI@Z
  ?parse@CAbstractQl1Parser@@IAEHH@Z=C:\Windows\SysWOW64\wbemcomn.?parse@CAbstractQl1Parser@@IAEHH@Z
  ?parse_property_name@CAbstractQl1Parser@@IAEHAAVCPropertyName@@@Z=C:\Windows\SysWOW64\wbemcomn.?parse_property_name@CAbstractQl1Parser@@IAEHAAVCPropertyName@@@Z
  ?prop_list@CAbstractQl1Parser@@IAEHXZ=C:\Windows\SysWOW64\wbemcomn.?prop_list@CAbstractQl1Parser@@IAEHXZ
  ?prop_list_2@CAbstractQl1Parser@@IAEHXZ=C:\Windows\SysWOW64\wbemcomn.?prop_list_2@CAbstractQl1Parser@@IAEHXZ
  ?property_name@CAbstractQl1Parser@@IAEHXZ=C:\Windows\SysWOW64\wbemcomn.?property_name@CAbstractQl1Parser@@IAEHXZ
  ?putbits@CBaseMrciCompression@@AAEXII@Z=C:\Windows\SysWOW64\wbemcomn.?putbits@CBaseMrciCompression@@AAEXII@Z
  ?rel_operator@CAbstractQl1Parser@@IAEHXZ=C:\Windows\SysWOW64\wbemcomn.?rel_operator@CAbstractQl1Parser@@IAEHXZ
  ?sMatachedWithOneChar@CLike@@0EB=C:\Windows\SysWOW64\wbemcomn.?sMatachedWithOneChar@CLike@@0EB
  ?sMatachedWithWildcardChar@CLike@@0EB=C:\Windows\SysWOW64\wbemcomn.?sMatachedWithWildcardChar@CLike@@0EB
  ?sNoMatch@CLike@@0EB=C:\Windows\SysWOW64\wbemcomn.?sNoMatch@CLike@@0EB
  ?simple_expr@CAbstractQl1Parser@@IAEHXZ=C:\Windows\SysWOW64\wbemcomn.?simple_expr@CAbstractQl1Parser@@IAEHXZ
  ?staticRead@CBasicUnloadInstruction@@SG?AVCWbemInterval@@PAUIWbemServices@@PAUIWbemContext@@PBG@Z=C:\Windows\SysWOW64\wbemcomn.?staticRead@CBasicUnloadInstruction@@SG?AVCWbemInterval@@PAUIWbemServices@@PAUIWbemContext@@PBG@Z
  ?term2@CAbstractQl1Parser@@IAEHXZ=C:\Windows\SysWOW64\wbemcomn.?term2@CAbstractQl1Parser@@IAEHXZ
  ?term@CAbstractQl1Parser@@IAEHXZ=C:\Windows\SysWOW64\wbemcomn.?term@CAbstractQl1Parser@@IAEHXZ
  ?tolerance@CAbstractQl1Parser@@IAEHXZ=C:\Windows\SysWOW64\wbemcomn.?tolerance@CAbstractQl1Parser@@IAEHXZ
  ?trailing_const_expr@CAbstractQl1Parser@@IAEHXZ=C:\Windows\SysWOW64\wbemcomn.?trailing_const_expr@CAbstractQl1Parser@@IAEHXZ
  ?trailing_ident_expr@CAbstractQl1Parser@@IAEHXZ=C:\Windows\SysWOW64\wbemcomn.?trailing_ident_expr@CAbstractQl1Parser@@IAEHXZ
  ?trailing_or_null@CAbstractQl1Parser@@IAEHXZ=C:\Windows\SysWOW64\wbemcomn.?trailing_or_null@CAbstractQl1Parser@@IAEHXZ
  ?trailing_prop_expr@CAbstractQl1Parser@@IAEHXZ=C:\Windows\SysWOW64\wbemcomn.?trailing_prop_expr@CAbstractQl1Parser@@IAEHXZ
  ?typed_constant@CAbstractQl1Parser@@IAEHXZ=C:\Windows\SysWOW64\wbemcomn.?typed_constant@CAbstractQl1Parser@@IAEHXZ
  AdjustPrivIfLocalSystem=C:\Windows\SysWOW64\wbemcomn.AdjustPrivIfLocalSystem
  BlobAssign=C:\Windows\SysWOW64\wbemcomn.BlobAssign
  BlobClear=C:\Windows\SysWOW64\wbemcomn.BlobClear
  BlobCopy=C:\Windows\SysWOW64\wbemcomn.BlobCopy
  BreakOnDbgAndRenterLoop=C:\Windows\SysWOW64\wbemcomn.BreakOnDbgAndRenterLoop
  BuildOperationInfo=C:\Windows\SysWOW64\wbemcomn.BuildOperationInfo
  BuildSecurityDescriptorParameter=C:\Windows\SysWOW64\wbemcomn.BuildSecurityDescriptorParameter
  ChangeVariantToCIMTYPE=C:\Windows\SysWOW64\wbemcomn.ChangeVariantToCIMTYPE
  ComposeName=C:\Windows\SysWOW64\wbemcomn.ComposeName
  CopyFileToAutorecover=C:\Windows\SysWOW64\wbemcomn.CopyFileToAutorecover
  CriticalFailADAPTrace=C:\Windows\SysWOW64\wbemcomn.CriticalFailADAPTrace
  DebugTrace=C:\Windows\SysWOW64\wbemcomn.DebugTrace
  DumpClientOps=C:\Windows\SysWOW64\wbemcomn.DumpClientOps
  EnableAllPrivileges=C:\Windows\SysWOW64\wbemcomn.EnableAllPrivileges
  EnablePrivilege=C:\Windows\SysWOW64\wbemcomn.EnablePrivilege
  ErrorTrace=C:\Windows\SysWOW64\wbemcomn.ErrorTrace
  ExtractMachineName=C:\Windows\SysWOW64\wbemcomn.ExtractMachineName
  GetAccessToken=C:\Windows\SysWOW64\wbemcomn.GetAccessToken
  GetFQDN_Ipv4=C:\Windows\SysWOW64\wbemcomn.GetFQDN_Ipv4
  GetGlobalClientOps=C:\Windows\SysWOW64\wbemcomn.GetGlobalClientOps
  GetLoggingLevelEnabled=C:\Windows\SysWOW64\wbemcomn.GetLoggingLevelEnabled
  GetMemLogObject=C:\Windows\SysWOW64\wbemcomn.GetMemLogObject
  GetQFDN_Ipv6=C:\Windows\SysWOW64\wbemcomn.GetQFDN_Ipv6
  GetSecurityDescriptorFromParameters=C:\Windows\SysWOW64\wbemcomn.GetSecurityDescriptorFromParameters
  GetWMIADAPCmdLine=C:\Windows\SysWOW64\wbemcomn.GetWMIADAPCmdLine
  GetWMITraceSession=C:\Windows\SysWOW64\wbemcomn.GetWMITraceSession
  Get_WPP_INIT_TRACING_Call_State=C:\Windows\SysWOW64\wbemcomn.Get_WPP_INIT_TRACING_Call_State
  IsAdmin=C:\Windows\SysWOW64\wbemcomn.IsAdmin
  IsInAdminGroup=C:\Windows\SysWOW64\wbemcomn.IsInAdminGroup
  IsLocalConnection=C:\Windows\SysWOW64\wbemcomn.IsLocalConnection
  IsLocalService=C:\Windows\SysWOW64\wbemcomn.IsLocalService
  IsNT=C:\Windows\SysWOW64\wbemcomn.IsNT
  IsNetworkService=C:\Windows\SysWOW64\wbemcomn.IsNetworkService
  IsNtSetupRunning=C:\Windows\SysWOW64\wbemcomn.IsNtSetupRunning
  IsPrivilegePresent=C:\Windows\SysWOW64\wbemcomn.IsPrivilegePresent
  IsValidElementName=C:\Windows\SysWOW64\wbemcomn.IsValidElementName
  IsValidElementName2=C:\Windows\SysWOW64\wbemcomn.IsValidElementName2
  IsW2KOrMore=C:\Windows\SysWOW64\wbemcomn.IsW2KOrMore
  LoggingLevelEnabled=C:\Windows\SysWOW64\wbemcomn.LoggingLevelEnabled
  NormalizeCimDateTime=C:\Windows\SysWOW64\wbemcomn.NormalizeCimDateTime
  ReadI64=C:\Windows\SysWOW64\wbemcomn.ReadI64
  ReadUI64=C:\Windows\SysWOW64\wbemcomn.ReadUI64
  RegisterDLL=C:\Windows\SysWOW64\wbemcomn.RegisterDLL
  RegisterDllAppid=C:\Windows\SysWOW64\wbemcomn.RegisterDllAppid
  RemoveFileFromAutoRecoverFolder=C:\Windows\SysWOW64\wbemcomn.RemoveFileFromAutoRecoverFolder
  RetrieveSidFromCall=C:\Windows\SysWOW64\wbemcomn.RetrieveSidFromCall
  RetrieveSidFromToken=C:\Windows\SysWOW64\wbemcomn.RetrieveSidFromToken
  SetObjectAccess2=C:\Windows\SysWOW64\wbemcomn.SetObjectAccess2
  SetWMITraceSession=C:\Windows\SysWOW64\wbemcomn.SetWMITraceSession
  Set_WPP_INIT_TRACING_Call_State=C:\Windows\SysWOW64\wbemcomn.Set_WPP_INIT_TRACING_Call_State
  TestDirExistAndCreateWithSDIfNotThere=C:\Windows\SysWOW64\wbemcomn.TestDirExistAndCreateWithSDIfNotThere
  Throttle=C:\Windows\SysWOW64\wbemcomn.Throttle
  UnRegisterDLL=C:\Windows\SysWOW64\wbemcomn.UnRegisterDLL
  UnregisterDllAppid=C:\Windows\SysWOW64\wbemcomn.UnregisterDllAppid
  WMIControlCallback=C:\Windows\SysWOW64\wbemcomn.WMIControlCallback
  WMIControlClientOpsCallback=C:\Windows\SysWOW64\wbemcomn.WMIControlClientOpsCallback
  WbemGetMachineShutdown=C:\Windows\SysWOW64\wbemcomn.WbemGetMachineShutdown
  WbemSetDynamicCloaking=C:\Windows\SysWOW64\wbemcomn.WbemSetDynamicCloaking
  WbemSetMachineShutdown=C:\Windows\SysWOW64\wbemcomn.WbemSetMachineShutdown
  WbemVariantChangeType=C:\Windows\SysWOW64\wbemcomn.WbemVariantChangeType
  WinPEKey=C:\Windows\SysWOW64\wbemcomn.WinPEKey
  _DoTraceHRFailure_=C:\Windows\SysWOW64\wbemcomn._DoTraceHRFailure_
  _IsValidElementName=C:\Windows\SysWOW64\wbemcomn._IsValidElementName
  _ThrowMemoryException_=C:\Windows\SysWOW64\wbemcomn._ThrowMemoryException_
  bAreWeLocal=C:\Windows\SysWOW64\wbemcomn.bAreWeLocal
  isunialpha=C:\Windows\SysWOW64\wbemcomn.isunialpha
  isunialphanum=C:\Windows\SysWOW64\wbemcomn.isunialphanum
  mstatic_dwTlsIndex=C:\Windows\SysWOW64\wbemcomn.mstatic_dwTlsIndex
