EXPORTS
  ??0?$SafeMap@VKey@Locale@@KV?$SafeMap_Iterator@VKey@Locale@@K@@@@QAE@XZ=C:\Windows\SysWOW64\winrscmd.??0?$SafeMap@VKey@Locale@@KV?$SafeMap_Iterator@VKey@Locale@@K@@@@QAE@XZ
  ??0?$SafeMap_Iterator@VKey@Locale@@K@@QAE@AAV?$SafeMap@VKey@Locale@@KV?$SafeMap_Iterator@VKey@Locale@@K@@@@_N@Z=C:\Windows\SysWOW64\winrscmd.??0?$SafeMap_Iterator@VKey@Locale@@K@@QAE@AAV?$SafeMap@VKey@Locale@@KV?$SafeMap_Iterator@VKey@Locale@@K@@@@_N@Z
  ??0?$SafeMap_Lock@VKey@Locale@@KV?$SafeMap_Iterator@VKey@Locale@@K@@@@QAE@ABV?$SafeMap@VKey@Locale@@KV?$SafeMap_Iterator@VKey@Locale@@K@@@@_N@Z=C:\Windows\SysWOW64\winrscmd.??0?$SafeMap_Lock@VKey@Locale@@KV?$SafeMap_Iterator@VKey@Locale@@K@@@@QAE@ABV?$SafeMap@VKey@Locale@@KV?$SafeMap_Iterator@VKey@Locale@@K@@@@_N@Z
  ??1?$SafeMap@VKey@Locale@@KV?$SafeMap_Iterator@VKey@Locale@@K@@@@QAE@XZ=C:\Windows\SysWOW64\winrscmd.??1?$SafeMap@VKey@Locale@@KV?$SafeMap_Iterator@VKey@Locale@@K@@@@QAE@XZ
  ??1?$SafeMap_Iterator@VKey@Locale@@K@@QAE@XZ=C:\Windows\SysWOW64\winrscmd.??1?$SafeMap_Iterator@VKey@Locale@@K@@QAE@XZ
  ??1?$SafeMap_Lock@VKey@Locale@@KV?$SafeMap_Iterator@VKey@Locale@@K@@@@QAE@XZ=C:\Windows\SysWOW64\winrscmd.??1?$SafeMap_Lock@VKey@Locale@@KV?$SafeMap_Iterator@VKey@Locale@@K@@@@QAE@XZ
  ??1CWSManCriticalSectionWithConditionVar@@QAE@XZ=C:\Windows\SysWOW64\winrscmd.??1CWSManCriticalSectionWithConditionVar@@QAE@XZ
  ??_7?$SafeMap@VKey@Locale@@KV?$SafeMap_Iterator@VKey@Locale@@K@@@@6B@=C:\Windows\SysWOW64\winrscmd.??_7?$SafeMap@VKey@Locale@@KV?$SafeMap_Iterator@VKey@Locale@@K@@@@6B@
  ?Acquire@?$SafeMap@VKey@Locale@@KV?$SafeMap_Iterator@VKey@Locale@@K@@@@UBEXXZ=C:\Windows\SysWOW64\winrscmd.?Acquire@?$SafeMap@VKey@Locale@@KV?$SafeMap_Iterator@VKey@Locale@@K@@@@UBEXXZ
  ?Acquire@?$SafeMap_Lock@VKey@Locale@@KV?$SafeMap_Iterator@VKey@Locale@@K@@@@QAEXXZ=C:\Windows\SysWOW64\winrscmd.?Acquire@?$SafeMap_Lock@VKey@Locale@@KV?$SafeMap_Iterator@VKey@Locale@@K@@@@QAEXXZ
  ?Acquired@?$SafeMap_Lock@VKey@Locale@@KV?$SafeMap_Iterator@VKey@Locale@@K@@@@QAE_NXZ=C:\Windows\SysWOW64\winrscmd.?Acquired@?$SafeMap_Lock@VKey@Locale@@KV?$SafeMap_Iterator@VKey@Locale@@K@@@@QAE_NXZ
  ?AsReference@?$SafeMap@VKey@Locale@@KV?$SafeMap_Iterator@VKey@Locale@@K@@@@QAEAAV1@XZ=C:\Windows\SysWOW64\winrscmd.?AsReference@?$SafeMap@VKey@Locale@@KV?$SafeMap_Iterator@VKey@Locale@@K@@@@QAEAAV1@XZ
  ?Data@?$SafeMap_Iterator@VKey@Locale@@K@@IBEAAV?$STLMap@VKey@Locale@@K@@XZ=C:\Windows\SysWOW64\winrscmd.?Data@?$SafeMap_Iterator@VKey@Locale@@K@@IBEAAV?$STLMap@VKey@Locale@@K@@XZ
  ?DeInitialize@?$SafeMap@VKey@Locale@@KV?$SafeMap_Iterator@VKey@Locale@@K@@@@UAE_NAAVIRequestContext@@@Z=C:\Windows\SysWOW64\winrscmd.?DeInitialize@?$SafeMap@VKey@Locale@@KV?$SafeMap_Iterator@VKey@Locale@@K@@@@UAE_NAAVIRequestContext@@@Z
  ?GetInitError@CWSManCriticalSection@@QBEKXZ=C:\Windows\SysWOW64\winrscmd.?GetInitError@CWSManCriticalSection@@QBEKXZ
  ?GetMap@?$SafeMap_Iterator@VKey@Locale@@K@@QBEAAV?$SafeMap@VKey@Locale@@KV?$SafeMap_Iterator@VKey@Locale@@K@@@@XZ=C:\Windows\SysWOW64\winrscmd.?GetMap@?$SafeMap_Iterator@VKey@Locale@@K@@QBEAAV?$SafeMap@VKey@Locale@@KV?$SafeMap_Iterator@VKey@Locale@@K@@@@XZ
  ?GetMap@?$SafeMap_Lock@VKey@Locale@@KV?$SafeMap_Iterator@VKey@Locale@@K@@@@QBEABV?$SafeMap@VKey@Locale@@KV?$SafeMap_Iterator@VKey@Locale@@K@@@@XZ=C:\Windows\SysWOW64\winrscmd.?GetMap@?$SafeMap_Lock@VKey@Locale@@KV?$SafeMap_Iterator@VKey@Locale@@K@@@@QBEABV?$SafeMap@VKey@Locale@@KV?$SafeMap_Iterator@VKey@Locale@@K@@@@XZ
  ?Initialize@?$SafeMap@VKey@Locale@@KV?$SafeMap_Iterator@VKey@Locale@@K@@@@UAE_NAAVIRequestContext@@@Z=C:\Windows\SysWOW64\winrscmd.?Initialize@?$SafeMap@VKey@Locale@@KV?$SafeMap_Iterator@VKey@Locale@@K@@@@UAE_NAAVIRequestContext@@@Z
  ?IsValid@?$SafeMap_Iterator@VKey@Locale@@K@@QBE_NXZ=C:\Windows\SysWOW64\winrscmd.?IsValid@?$SafeMap_Iterator@VKey@Locale@@K@@QBE_NXZ
  ?Release@?$SafeMap@VKey@Locale@@KV?$SafeMap_Iterator@VKey@Locale@@K@@@@UBEXXZ=C:\Windows\SysWOW64\winrscmd.?Release@?$SafeMap@VKey@Locale@@KV?$SafeMap_Iterator@VKey@Locale@@K@@@@UBEXXZ
  ?Reset@?$SafeMap_Iterator@VKey@Locale@@K@@QAEXXZ=C:\Windows\SysWOW64\winrscmd.?Reset@?$SafeMap_Iterator@VKey@Locale@@K@@QAEXXZ
  ?SkipOrphans@?$SafeMap_Iterator@VKey@Locale@@K@@IAEXXZ=C:\Windows\SysWOW64\winrscmd.?SkipOrphans@?$SafeMap_Iterator@VKey@Locale@@K@@IAEXXZ
  WSManPluginCommand=C:\Windows\SysWOW64\winrscmd.WSManPluginCommand
  WSManPluginReceive=C:\Windows\SysWOW64\winrscmd.WSManPluginReceive
  WSManPluginReleaseCommandContext=C:\Windows\SysWOW64\winrscmd.WSManPluginReleaseCommandContext
  WSManPluginReleaseShellContext=C:\Windows\SysWOW64\winrscmd.WSManPluginReleaseShellContext
  WSManPluginSend=C:\Windows\SysWOW64\winrscmd.WSManPluginSend
  WSManPluginShell=C:\Windows\SysWOW64\winrscmd.WSManPluginShell
  WSManPluginShutdown=C:\Windows\SysWOW64\winrscmd.WSManPluginShutdown
  WSManPluginSignal=C:\Windows\SysWOW64\winrscmd.WSManPluginSignal
  WSManPluginStartup=C:\Windows\SysWOW64\winrscmd.WSManPluginStartup
