EXPORTS
  ??0?$SafeMap@VKey@Locale@@KV?$SafeMap_Iterator@VKey@Locale@@K@@@@QAE@XZ=C:\Windows\SysWOW64\WsmWmiPl.??0?$SafeMap@VKey@Locale@@KV?$SafeMap_Iterator@VKey@Locale@@K@@@@QAE@XZ
  ??0?$SafeMap_Iterator@VKey@Locale@@K@@QAE@AAV?$SafeMap@VKey@Locale@@KV?$SafeMap_Iterator@VKey@Locale@@K@@@@_N@Z=C:\Windows\SysWOW64\WsmWmiPl.??0?$SafeMap_Iterator@VKey@Locale@@K@@QAE@AAV?$SafeMap@VKey@Locale@@KV?$SafeMap_Iterator@VKey@Locale@@K@@@@_N@Z
  ??0?$SafeMap_Lock@VKey@Locale@@KV?$SafeMap_Iterator@VKey@Locale@@K@@@@QAE@ABV?$SafeMap@VKey@Locale@@KV?$SafeMap_Iterator@VKey@Locale@@K@@@@_N@Z=C:\Windows\SysWOW64\WsmWmiPl.??0?$SafeMap_Lock@VKey@Locale@@KV?$SafeMap_Iterator@VKey@Locale@@K@@@@QAE@ABV?$SafeMap@VKey@Locale@@KV?$SafeMap_Iterator@VKey@Locale@@K@@@@_N@Z
  ??1?$SafeMap@VKey@Locale@@KV?$SafeMap_Iterator@VKey@Locale@@K@@@@QAE@XZ=C:\Windows\SysWOW64\WsmWmiPl.??1?$SafeMap@VKey@Locale@@KV?$SafeMap_Iterator@VKey@Locale@@K@@@@QAE@XZ
  ??1?$SafeMap_Iterator@VKey@Locale@@K@@QAE@XZ=C:\Windows\SysWOW64\WsmWmiPl.??1?$SafeMap_Iterator@VKey@Locale@@K@@QAE@XZ
  ??1?$SafeMap_Lock@VKey@Locale@@KV?$SafeMap_Iterator@VKey@Locale@@K@@@@QAE@XZ=C:\Windows\SysWOW64\WsmWmiPl.??1?$SafeMap_Lock@VKey@Locale@@KV?$SafeMap_Iterator@VKey@Locale@@K@@@@QAE@XZ
  ??1CWSManCriticalSectionWithConditionVar@@QAE@XZ=C:\Windows\SysWOW64\WsmWmiPl.??1CWSManCriticalSectionWithConditionVar@@QAE@XZ
  ??_7?$SafeMap@VKey@Locale@@KV?$SafeMap_Iterator@VKey@Locale@@K@@@@6B@=C:\Windows\SysWOW64\WsmWmiPl.??_7?$SafeMap@VKey@Locale@@KV?$SafeMap_Iterator@VKey@Locale@@K@@@@6B@
  ?Acquire@?$SafeMap@VKey@CWmiPtrCache@@VMapping@2@V?$SafeMap_Iterator@VKey@CWmiPtrCache@@VMapping@2@@@@@UBEXXZ=C:\Windows\SysWOW64\WsmWmiPl.?Acquire@?$SafeMap@VKey@CWmiPtrCache@@VMapping@2@V?$SafeMap_Iterator@VKey@CWmiPtrCache@@VMapping@2@@@@@UBEXXZ
  ?Acquire@?$SafeMap@VKey@Locale@@KV?$SafeMap_Iterator@VKey@Locale@@K@@@@UBEXXZ=C:\Windows\SysWOW64\WsmWmiPl.?Acquire@?$SafeMap@VKey@Locale@@KV?$SafeMap_Iterator@VKey@Locale@@K@@@@UBEXXZ
  ?Acquire@?$SafeMap_Lock@VKey@Locale@@KV?$SafeMap_Iterator@VKey@Locale@@K@@@@QAEXXZ=C:\Windows\SysWOW64\WsmWmiPl.?Acquire@?$SafeMap_Lock@VKey@Locale@@KV?$SafeMap_Iterator@VKey@Locale@@K@@@@QAEXXZ
  ?Acquired@?$SafeMap_Lock@VKey@Locale@@KV?$SafeMap_Iterator@VKey@Locale@@K@@@@QAE_NXZ=C:\Windows\SysWOW64\WsmWmiPl.?Acquired@?$SafeMap_Lock@VKey@Locale@@KV?$SafeMap_Iterator@VKey@Locale@@K@@@@QAE_NXZ
  ?AsReference@?$SafeMap@VKey@Locale@@KV?$SafeMap_Iterator@VKey@Locale@@K@@@@QAEAAV1@XZ=C:\Windows\SysWOW64\WsmWmiPl.?AsReference@?$SafeMap@VKey@Locale@@KV?$SafeMap_Iterator@VKey@Locale@@K@@@@QAEAAV1@XZ
  ?Data@?$SafeMap_Iterator@VKey@Locale@@K@@IBEAAV?$STLMap@VKey@Locale@@K@@XZ=C:\Windows\SysWOW64\WsmWmiPl.?Data@?$SafeMap_Iterator@VKey@Locale@@K@@IBEAAV?$STLMap@VKey@Locale@@K@@XZ
  ?DeInitialize@?$SafeMap@VKey@CWmiPtrCache@@VMapping@2@V?$SafeMap_Iterator@VKey@CWmiPtrCache@@VMapping@2@@@@@UAE_NAAVIRequestContext@@@Z=C:\Windows\SysWOW64\WsmWmiPl.?DeInitialize@?$SafeMap@VKey@CWmiPtrCache@@VMapping@2@V?$SafeMap_Iterator@VKey@CWmiPtrCache@@VMapping@2@@@@@UAE_NAAVIRequestContext@@@Z
  ?DeInitialize@?$SafeMap@VKey@Locale@@KV?$SafeMap_Iterator@VKey@Locale@@K@@@@UAE_NAAVIRequestContext@@@Z=C:\Windows\SysWOW64\WsmWmiPl.?DeInitialize@?$SafeMap@VKey@Locale@@KV?$SafeMap_Iterator@VKey@Locale@@K@@@@UAE_NAAVIRequestContext@@@Z
  ?GetInitError@CWSManCriticalSection@@QBEKXZ=C:\Windows\SysWOW64\WsmWmiPl.?GetInitError@CWSManCriticalSection@@QBEKXZ
  ?GetMap@?$SafeMap_Iterator@VKey@Locale@@K@@QBEAAV?$SafeMap@VKey@Locale@@KV?$SafeMap_Iterator@VKey@Locale@@K@@@@XZ=C:\Windows\SysWOW64\WsmWmiPl.?GetMap@?$SafeMap_Iterator@VKey@Locale@@K@@QBEAAV?$SafeMap@VKey@Locale@@KV?$SafeMap_Iterator@VKey@Locale@@K@@@@XZ
  ?GetMap@?$SafeMap_Lock@VKey@Locale@@KV?$SafeMap_Iterator@VKey@Locale@@K@@@@QBEABV?$SafeMap@VKey@Locale@@KV?$SafeMap_Iterator@VKey@Locale@@K@@@@XZ=C:\Windows\SysWOW64\WsmWmiPl.?GetMap@?$SafeMap_Lock@VKey@Locale@@KV?$SafeMap_Iterator@VKey@Locale@@K@@@@QBEABV?$SafeMap@VKey@Locale@@KV?$SafeMap_Iterator@VKey@Locale@@K@@@@XZ
  ?Initialize@?$SafeMap@VKey@CWmiPtrCache@@VMapping@2@V?$SafeMap_Iterator@VKey@CWmiPtrCache@@VMapping@2@@@@@UAE_NAAVIRequestContext@@@Z=C:\Windows\SysWOW64\WsmWmiPl.?Initialize@?$SafeMap@VKey@CWmiPtrCache@@VMapping@2@V?$SafeMap_Iterator@VKey@CWmiPtrCache@@VMapping@2@@@@@UAE_NAAVIRequestContext@@@Z
  ?Initialize@?$SafeMap@VKey@Locale@@KV?$SafeMap_Iterator@VKey@Locale@@K@@@@UAE_NAAVIRequestContext@@@Z=C:\Windows\SysWOW64\WsmWmiPl.?Initialize@?$SafeMap@VKey@Locale@@KV?$SafeMap_Iterator@VKey@Locale@@K@@@@UAE_NAAVIRequestContext@@@Z
  ?IsValid@?$SafeMap_Iterator@VKey@CWmiPtrCache@@VMapping@2@@@QBE_NXZ=C:\Windows\SysWOW64\WsmWmiPl.?IsValid@?$SafeMap_Iterator@VKey@CWmiPtrCache@@VMapping@2@@@QBE_NXZ
  ?IsValid@?$SafeMap_Iterator@VKey@Locale@@K@@QBE_NXZ=C:\Windows\SysWOW64\WsmWmiPl.?IsValid@?$SafeMap_Iterator@VKey@Locale@@K@@QBE_NXZ
  ?Release@?$SafeMap@VKey@CWmiPtrCache@@VMapping@2@V?$SafeMap_Iterator@VKey@CWmiPtrCache@@VMapping@2@@@@@UBEXXZ=C:\Windows\SysWOW64\WsmWmiPl.?Release@?$SafeMap@VKey@CWmiPtrCache@@VMapping@2@V?$SafeMap_Iterator@VKey@CWmiPtrCache@@VMapping@2@@@@@UBEXXZ
  ?Release@?$SafeMap@VKey@Locale@@KV?$SafeMap_Iterator@VKey@Locale@@K@@@@UBEXXZ=C:\Windows\SysWOW64\WsmWmiPl.?Release@?$SafeMap@VKey@Locale@@KV?$SafeMap_Iterator@VKey@Locale@@K@@@@UBEXXZ
  ?Reset@?$SafeMap_Iterator@VKey@Locale@@K@@QAEXXZ=C:\Windows\SysWOW64\WsmWmiPl.?Reset@?$SafeMap_Iterator@VKey@Locale@@K@@QAEXXZ
  ?SkipOrphans@?$SafeMap_Iterator@VKey@Locale@@K@@IAEXXZ=C:\Windows\SysWOW64\WsmWmiPl.?SkipOrphans@?$SafeMap_Iterator@VKey@Locale@@K@@IAEXXZ
  WSManPluginShutdown=C:\Windows\SysWOW64\WsmWmiPl.WSManPluginShutdown
  WSManPluginStartup=C:\Windows\SysWOW64\WsmWmiPl.WSManPluginStartup
  WSManProvCreate=C:\Windows\SysWOW64\WsmWmiPl.WSManProvCreate
  WSManProvDelete=C:\Windows\SysWOW64\WsmWmiPl.WSManProvDelete
  WSManProvEnumerate=C:\Windows\SysWOW64\WsmWmiPl.WSManProvEnumerate
  WSManProvGet=C:\Windows\SysWOW64\WsmWmiPl.WSManProvGet
  WSManProvIdentify=C:\Windows\SysWOW64\WsmWmiPl.WSManProvIdentify
  WSManProvInvoke=C:\Windows\SysWOW64\WsmWmiPl.WSManProvInvoke
  WSManProvPullEvents=C:\Windows\SysWOW64\WsmWmiPl.WSManProvPullEvents
  WSManProvPut=C:\Windows\SysWOW64\WsmWmiPl.WSManProvPut
  WSManProvSubscribe=C:\Windows\SysWOW64\WsmWmiPl.WSManProvSubscribe
  WSManProvUnsubscribe=C:\Windows\SysWOW64\WsmWmiPl.WSManProvUnsubscribe
