EXPORTS
  ?AddRuntimeVirtualKeysToContainer@container@@YAXPEAXKPEAU_WC_VKEY_INFO@@@Z="C:\Windows\System32\container".?AddRuntimeVirtualKeysToContainer@container@@YAXPEAXKPEAU_WC_VKEY_INFO@@@Z
  ?CleanupContainer@container@@YAXPEAXPEBG@Z="C:\Windows\System32\container".?CleanupContainer@container@@YAXPEAXPEBG@Z
  ?CreateContainer@container@@YAXPEAXAEBUContainer@DefinitionFile@1@_N0@Z="C:\Windows\System32\container".?CreateContainer@container@@YAXPEAXAEBUContainer@DefinitionFile@1@_N0@Z
  ?GetComRegistryRoot@container@@YAPEAXPEAX@Z="C:\Windows\System32\container".?GetComRegistryRoot@container@@YAPEAXPEAX@Z
  ?GetContainerIdentifierString@container@@YA?AV?$basic_string@GU?$char_traits@G@std@@V?$allocator@G@2@@std@@PEAX@Z="C:\Windows\System32\container".?GetContainerIdentifierString@container@@YA?AV?$basic_string@GU?$char_traits@G@std@@V?$allocator@G@2@@std@@PEAX@Z
  ?GetContainerObjectRootPath@container@@YAXPEAXAEAV?$basic_string@GU?$char_traits@G@std@@V?$allocator@G@2@@std@@@Z="C:\Windows\System32\container".?GetContainerObjectRootPath@container@@YAXPEAXAEAV?$basic_string@GU?$char_traits@G@std@@V?$allocator@G@2@@std@@@Z
  ?GetRegistryRootPath@container@@YAXPEAXAEBV?$basic_string@GU?$char_traits@G@std@@V?$allocator@G@2@@std@@AEAV23@@Z="C:\Windows\System32\container".?GetRegistryRootPath@container@@YAXPEAXAEBV?$basic_string@GU?$char_traits@G@std@@V?$allocator@G@2@@std@@AEAV23@@Z
  ?IsContainerQuiescent@container@@YAEPEAX@Z="C:\Windows\System32\container".?IsContainerQuiescent@container@@YAEPEAX@Z
  ?LaunchApplicationContainer@container@@YAPEAXPEAXPEBGK@Z="C:\Windows\System32\container".?LaunchApplicationContainer@container@@YAPEAXPEAXPEBGK@Z
  ?LaunchContainer@container@@YAXPEAX@Z="C:\Windows\System32\container".?LaunchContainer@container@@YAXPEAX@Z
  ?RegisterForContainerTerminationNotification@container@@YAPEAU_WC_CONTAINER_NOTIFICATION@@PEAXP6AX0W4_WC_CONTAINER_TERMINATION_REASON@@PEAU2@0@Z0@Z="C:\Windows\System32\container".?RegisterForContainerTerminationNotification@container@@YAPEAU_WC_CONTAINER_NOTIFICATION@@PEAXP6AX0W4_WC_CONTAINER_TERMINATION_REASON@@PEAU2@0@Z0@Z
  ?ReleaseContainerTerminationNotification@container@@YAXPEAU_WC_CONTAINER_NOTIFICATION@@@Z="C:\Windows\System32\container".?ReleaseContainerTerminationNotification@container@@YAXPEAU_WC_CONTAINER_NOTIFICATION@@@Z
  ?SetRegistryFlushState@container@@YAXPEAXE@Z="C:\Windows\System32\container".?SetRegistryFlushState@container@@YAXPEAXE@Z
  ?ShutdownAppContainer@container@@YA_NPEAX@Z="C:\Windows\System32\container".?ShutdownAppContainer@container@@YA_NPEAX@Z
  ?WaitForContainerTerminationNotification@container@@YAXPEAU_WC_CONTAINER_NOTIFICATION@@@Z="C:\Windows\System32\container".?WaitForContainerTerminationNotification@container@@YAXPEAU_WC_CONTAINER_NOTIFICATION@@@Z
  WcAddRuntimeVirtualKeysToContainer="C:\Windows\System32\container".WcAddRuntimeVirtualKeysToContainer
  WcCleanupContainer="C:\Windows\System32\container".WcCleanupContainer
  WcCreateContainer="C:\Windows\System32\container".WcCreateContainer
  WcCreateDescriptionFromXml="C:\Windows\System32\container".WcCreateDescriptionFromXml
  WcDestroyDescription="C:\Windows\System32\container".WcDestroyDescription
  WcGetComRegistryRoot="C:\Windows\System32\container".WcGetComRegistryRoot
  WcGetContainerIdentifier="C:\Windows\System32\container".WcGetContainerIdentifier
  WcGetContainerObjectRootPath="C:\Windows\System32\container".WcGetContainerObjectRootPath
  WcGetContainerRegistryRootPath="C:\Windows\System32\container".WcGetContainerRegistryRootPath
  WcIsContainerQuiescent="C:\Windows\System32\container".WcIsContainerQuiescent
  WcLaunchApplicationContainer="C:\Windows\System32\container".WcLaunchApplicationContainer
  WcLaunchContainer="C:\Windows\System32\container".WcLaunchContainer
  WcRegisterForContainerTerminationNotification="C:\Windows\System32\container".WcRegisterForContainerTerminationNotification
  WcReleaseContainerTerminationNotification="C:\Windows\System32\container".WcReleaseContainerTerminationNotification
  WcSetRegistryFlushState="C:\Windows\System32\container".WcSetRegistryFlushState
  WcShutdownAppContainer="C:\Windows\System32\container".WcShutdownAppContainer
  WcWaitForContainerTerminationNotification="C:\Windows\System32\container".WcWaitForContainerTerminationNotification
