EXPORTS
  ??$ConstructElements@VCString@@@@YAXPEAVCString@@H@Z="C:\Windows\System32\mfcsubs".??$ConstructElements@VCString@@@@YAXPEAVCString@@H@Z
  ??$CopyElements@VCString@@@@YAXPEAVCString@@PEBV0@H@Z="C:\Windows\System32\mfcsubs".??$CopyElements@VCString@@@@YAXPEAVCString@@PEBV0@H@Z
  ??$DestructElements@VCString@@@@YAXPEAVCString@@H@Z="C:\Windows\System32\mfcsubs".??$DestructElements@VCString@@@@YAXPEAVCString@@H@Z
  ??$HashKey@AEBU_GUID@@@@YAIAEBU_GUID@@@Z="C:\Windows\System32\mfcsubs".??$HashKey@AEBU_GUID@@@@YAIAEBU_GUID@@@Z
  ??$HashKey@PEBD@@YAIPEBD@Z="C:\Windows\System32\mfcsubs".??$HashKey@PEBD@@YAIPEBD@Z
  ??$HashKey@PEBG@@YAIPEBG@Z="C:\Windows\System32\mfcsubs".??$HashKey@PEBG@@YAIPEBG@Z
  ??0CCriticalSection@@QEAA@XZ="C:\Windows\System32\mfcsubs".??0CCriticalSection@@QEAA@XZ
  ??0CMapStringToPtr@@QEAA@H@Z="C:\Windows\System32\mfcsubs".??0CMapStringToPtr@@QEAA@H@Z
  ??0CObject@@IEAA@XZ="C:\Windows\System32\mfcsubs".??0CObject@@IEAA@XZ
  ??0CString@@QEAA@AEBV0@@Z="C:\Windows\System32\mfcsubs".??0CString@@QEAA@AEBV0@@Z
  ??0CString@@QEAA@GH@Z="C:\Windows\System32\mfcsubs".??0CString@@QEAA@GH@Z
  ??0CString@@QEAA@PEBD@Z="C:\Windows\System32\mfcsubs".??0CString@@QEAA@PEBD@Z
  ??0CString@@QEAA@PEBE@Z="C:\Windows\System32\mfcsubs".??0CString@@QEAA@PEBE@Z
  ??0CString@@QEAA@PEBG@Z="C:\Windows\System32\mfcsubs".??0CString@@QEAA@PEBG@Z
  ??0CString@@QEAA@PEBGH@Z="C:\Windows\System32\mfcsubs".??0CString@@QEAA@PEBGH@Z
  ??0CString@@QEAA@XZ="C:\Windows\System32\mfcsubs".??0CString@@QEAA@XZ
  ??0CStringArray@@QEAA@XZ="C:\Windows\System32\mfcsubs".??0CStringArray@@QEAA@XZ
  ??0CSyncObject@@QEAA@PEBG@Z="C:\Windows\System32\mfcsubs".??0CSyncObject@@QEAA@PEBG@Z
  ??1CCriticalSection@@UEAA@XZ="C:\Windows\System32\mfcsubs".??1CCriticalSection@@UEAA@XZ
  ??1CMapStringToPtr@@UEAA@XZ="C:\Windows\System32\mfcsubs".??1CMapStringToPtr@@UEAA@XZ
  ??1CObject@@UEAA@XZ="C:\Windows\System32\mfcsubs".??1CObject@@UEAA@XZ
  ??1CString@@QEAA@XZ="C:\Windows\System32\mfcsubs".??1CString@@QEAA@XZ
  ??1CStringArray@@UEAA@XZ="C:\Windows\System32\mfcsubs".??1CStringArray@@UEAA@XZ
  ??1CSyncObject@@UEAA@XZ="C:\Windows\System32\mfcsubs".??1CSyncObject@@UEAA@XZ
  ??4CPlex@@QEAAAEAU0@$$QEAU0@@Z="C:\Windows\System32\mfcsubs".??4CPlex@@QEAAAEAU0@$$QEAU0@@Z
  ??4CPlex@@QEAAAEAU0@AEBU0@@Z="C:\Windows\System32\mfcsubs".??4CPlex@@QEAAAEAU0@AEBU0@@Z
  ??4CString@@QEAAAEBV0@AEBV0@@Z="C:\Windows\System32\mfcsubs".??4CString@@QEAAAEBV0@AEBV0@@Z
  ??4CString@@QEAAAEBV0@D@Z="C:\Windows\System32\mfcsubs".??4CString@@QEAAAEBV0@D@Z
  ??4CString@@QEAAAEBV0@G@Z="C:\Windows\System32\mfcsubs".??4CString@@QEAAAEBV0@G@Z
  ??4CString@@QEAAAEBV0@PEBD@Z="C:\Windows\System32\mfcsubs".??4CString@@QEAAAEBV0@PEBD@Z
  ??4CString@@QEAAAEBV0@PEBE@Z="C:\Windows\System32\mfcsubs".??4CString@@QEAAAEBV0@PEBE@Z
  ??4CString@@QEAAAEBV0@PEBG@Z="C:\Windows\System32\mfcsubs".??4CString@@QEAAAEBV0@PEBG@Z
  ??8@YA_NAEBVCString@@0@Z="C:\Windows\System32\mfcsubs".??8@YA_NAEBVCString@@0@Z
  ??8@YA_NAEBVCString@@PEBG@Z="C:\Windows\System32\mfcsubs".??8@YA_NAEBVCString@@PEBG@Z
  ??8@YA_NPEBGAEBVCString@@@Z="C:\Windows\System32\mfcsubs".??8@YA_NPEBGAEBVCString@@@Z
  ??9@YA_NAEBVCString@@0@Z="C:\Windows\System32\mfcsubs".??9@YA_NAEBVCString@@0@Z
  ??9@YA_NAEBVCString@@PEBG@Z="C:\Windows\System32\mfcsubs".??9@YA_NAEBVCString@@PEBG@Z
  ??9@YA_NPEBGAEBVCString@@@Z="C:\Windows\System32\mfcsubs".??9@YA_NPEBGAEBVCString@@@Z
  ??ACMapStringToPtr@@QEAAAEAPEAXPEBG@Z="C:\Windows\System32\mfcsubs".??ACMapStringToPtr@@QEAAAEAPEAXPEBG@Z
  ??ACString@@QEBAGH@Z="C:\Windows\System32\mfcsubs".??ACString@@QEBAGH@Z
  ??ACStringArray@@QEAAAEAVCString@@H@Z="C:\Windows\System32\mfcsubs".??ACStringArray@@QEAAAEAVCString@@H@Z
  ??ACStringArray@@QEBA?AVCString@@H@Z="C:\Windows\System32\mfcsubs".??ACStringArray@@QEBA?AVCString@@H@Z
  ??BCCriticalSection@@QEAAPEAU_RTL_CRITICAL_SECTION@@XZ="C:\Windows\System32\mfcsubs".??BCCriticalSection@@QEAAPEAU_RTL_CRITICAL_SECTION@@XZ
  ??BCString@@QEBAPEBGXZ="C:\Windows\System32\mfcsubs".??BCString@@QEBAPEBGXZ
  ??BCSyncObject@@QEBAPEAXXZ="C:\Windows\System32\mfcsubs".??BCSyncObject@@QEBAPEAXXZ
  ??H@YA?AVCString@@AEBV0@0@Z="C:\Windows\System32\mfcsubs".??H@YA?AVCString@@AEBV0@0@Z
  ??H@YA?AVCString@@AEBV0@D@Z="C:\Windows\System32\mfcsubs".??H@YA?AVCString@@AEBV0@D@Z
  ??H@YA?AVCString@@AEBV0@G@Z="C:\Windows\System32\mfcsubs".??H@YA?AVCString@@AEBV0@G@Z
  ??H@YA?AVCString@@AEBV0@PEBG@Z="C:\Windows\System32\mfcsubs".??H@YA?AVCString@@AEBV0@PEBG@Z
  ??H@YA?AVCString@@DAEBV0@@Z="C:\Windows\System32\mfcsubs".??H@YA?AVCString@@DAEBV0@@Z
  ??H@YA?AVCString@@GAEBV0@@Z="C:\Windows\System32\mfcsubs".??H@YA?AVCString@@GAEBV0@@Z
  ??H@YA?AVCString@@PEBGAEBV0@@Z="C:\Windows\System32\mfcsubs".??H@YA?AVCString@@PEBGAEBV0@@Z
  ??M@YA_NAEBVCString@@0@Z="C:\Windows\System32\mfcsubs".??M@YA_NAEBVCString@@0@Z
  ??M@YA_NAEBVCString@@PEBG@Z="C:\Windows\System32\mfcsubs".??M@YA_NAEBVCString@@PEBG@Z
  ??M@YA_NPEBGAEBVCString@@@Z="C:\Windows\System32\mfcsubs".??M@YA_NPEBGAEBVCString@@@Z
  ??N@YA_NAEBVCString@@0@Z="C:\Windows\System32\mfcsubs".??N@YA_NAEBVCString@@0@Z
  ??N@YA_NAEBVCString@@PEBG@Z="C:\Windows\System32\mfcsubs".??N@YA_NAEBVCString@@PEBG@Z
  ??N@YA_NPEBGAEBVCString@@@Z="C:\Windows\System32\mfcsubs".??N@YA_NPEBGAEBVCString@@@Z
  ??O@YA_NAEBVCString@@0@Z="C:\Windows\System32\mfcsubs".??O@YA_NAEBVCString@@0@Z
  ??O@YA_NAEBVCString@@PEBG@Z="C:\Windows\System32\mfcsubs".??O@YA_NAEBVCString@@PEBG@Z
  ??O@YA_NPEBGAEBVCString@@@Z="C:\Windows\System32\mfcsubs".??O@YA_NPEBGAEBVCString@@@Z
  ??P@YA_NAEBVCString@@0@Z="C:\Windows\System32\mfcsubs".??P@YA_NAEBVCString@@0@Z
  ??P@YA_NAEBVCString@@PEBG@Z="C:\Windows\System32\mfcsubs".??P@YA_NAEBVCString@@PEBG@Z
  ??P@YA_NPEBGAEBVCString@@@Z="C:\Windows\System32\mfcsubs".??P@YA_NPEBGAEBVCString@@@Z
  ??YCString@@QEAAAEBV0@AEBV0@@Z="C:\Windows\System32\mfcsubs".??YCString@@QEAAAEBV0@AEBV0@@Z
  ??YCString@@QEAAAEBV0@D@Z="C:\Windows\System32\mfcsubs".??YCString@@QEAAAEBV0@D@Z
  ??YCString@@QEAAAEBV0@G@Z="C:\Windows\System32\mfcsubs".??YCString@@QEAAAEBV0@G@Z
  ??YCString@@QEAAAEBV0@PEBG@Z="C:\Windows\System32\mfcsubs".??YCString@@QEAAAEBV0@PEBG@Z
  ??_7CCriticalSection@@6B@="C:\Windows\System32\mfcsubs".??_7CCriticalSection@@6B@
  ??_7CMapStringToPtr@@6B@="C:\Windows\System32\mfcsubs".??_7CMapStringToPtr@@6B@
  ??_7CObject@@6B@="C:\Windows\System32\mfcsubs".??_7CObject@@6B@
  ??_7CStringArray@@6B@="C:\Windows\System32\mfcsubs".??_7CStringArray@@6B@
  ??_7CSyncObject@@6B@="C:\Windows\System32\mfcsubs".??_7CSyncObject@@6B@
  ??_FCMapStringToPtr@@QEAAXXZ="C:\Windows\System32\mfcsubs".??_FCMapStringToPtr@@QEAAXXZ
  ?Add@CStringArray@@QEAAHPEBG@Z="C:\Windows\System32\mfcsubs".?Add@CStringArray@@QEAAHPEBG@Z
  ?AfxExtractSubString@@YAHAEAVCString@@PEBGHG@Z="C:\Windows\System32\mfcsubs".?AfxExtractSubString@@YAHAEAVCString@@PEBGHG@Z
  ?AfxGetEmptyString@@YAAEBVCString@@XZ="C:\Windows\System32\mfcsubs".?AfxGetEmptyString@@YAAEBVCString@@XZ
  ?AfxLoadString@@YAHIPEAGI@Z="C:\Windows\System32\mfcsubs".?AfxLoadString@@YAHIPEAGI@Z
  ?AllocBeforeWrite@CString@@IEAAXH@Z="C:\Windows\System32\mfcsubs".?AllocBeforeWrite@CString@@IEAAXH@Z
  ?AllocBuffer@CString@@IEAAXH@Z="C:\Windows\System32\mfcsubs".?AllocBuffer@CString@@IEAAXH@Z
  ?AllocCopy@CString@@IEBAXAEAV1@III@Z="C:\Windows\System32\mfcsubs".?AllocCopy@CString@@IEBAXAEAV1@III@Z
  ?Append@CStringArray@@QEAAHAEBV1@@Z="C:\Windows\System32\mfcsubs".?Append@CStringArray@@QEAAHAEBV1@@Z
  ?AssignCopy@CString@@IEAAXHPEBG@Z="C:\Windows\System32\mfcsubs".?AssignCopy@CString@@IEAAXHPEBG@Z
  ?Collate@CString@@QEBAHPEBG@Z="C:\Windows\System32\mfcsubs".?Collate@CString@@QEBAHPEBG@Z
  ?Compare@CString@@QEBAHPEBG@Z="C:\Windows\System32\mfcsubs".?Compare@CString@@QEBAHPEBG@Z
  ?CompareNoCase@CString@@QEBAHPEBG@Z="C:\Windows\System32\mfcsubs".?CompareNoCase@CString@@QEBAHPEBG@Z
  ?ConcatCopy@CString@@IEAAXHPEBGH0@Z="C:\Windows\System32\mfcsubs".?ConcatCopy@CString@@IEAAXHPEBGH0@Z
  ?ConcatInPlace@CString@@IEAAXHPEBG@Z="C:\Windows\System32\mfcsubs".?ConcatInPlace@CString@@IEAAXHPEBG@Z
  ?Copy@CStringArray@@QEAAXAEBV1@@Z="C:\Windows\System32\mfcsubs".?Copy@CStringArray@@QEAAXAEBV1@@Z
  ?CopyBeforeWrite@CString@@IEAAXXZ="C:\Windows\System32\mfcsubs".?CopyBeforeWrite@CString@@IEAAXXZ
  ?Create@CPlex@@SAPEAU1@AEAPEAU1@II@Z="C:\Windows\System32\mfcsubs".?Create@CPlex@@SAPEAU1@AEAPEAU1@II@Z
  ?ElementAt@CStringArray@@QEAAAEAVCString@@H@Z="C:\Windows\System32\mfcsubs".?ElementAt@CStringArray@@QEAAAEAVCString@@H@Z
  ?Empty@CString@@QEAAXXZ="C:\Windows\System32\mfcsubs".?Empty@CString@@QEAAXXZ
  ?Find@CString@@QEBAHG@Z="C:\Windows\System32\mfcsubs".?Find@CString@@QEBAHG@Z
  ?Find@CString@@QEBAHPEBG@Z="C:\Windows\System32\mfcsubs".?Find@CString@@QEBAHPEBG@Z
  ?FindOneOf@CString@@QEBAHPEBG@Z="C:\Windows\System32\mfcsubs".?FindOneOf@CString@@QEBAHPEBG@Z
  ?Format@CString@@QEAAXIZZ="C:\Windows\System32\mfcsubs".?Format@CString@@QEAAXIZZ
  ?Format@CString@@QEAAXPEBGZZ="C:\Windows\System32\mfcsubs".?Format@CString@@QEAAXPEBGZZ
  ?FormatMessageW@CString@@QEAAXIZZ="C:\Windows\System32\mfcsubs".?FormatMessageW@CString@@QEAAXIZZ
  ?FormatMessageW@CString@@QEAAXPEBGZZ="C:\Windows\System32\mfcsubs".?FormatMessageW@CString@@QEAAXPEBGZZ
  ?FormatV@CString@@IEAAXPEBGPEAD@Z="C:\Windows\System32\mfcsubs".?FormatV@CString@@IEAAXPEBGPEAD@Z
  ?FreeAssoc@CMapStringToPtr@@IEAAXPEAUCAssoc@1@@Z="C:\Windows\System32\mfcsubs".?FreeAssoc@CMapStringToPtr@@IEAAXPEAUCAssoc@1@@Z
  ?FreeDataChain@CPlex@@QEAAXXZ="C:\Windows\System32\mfcsubs".?FreeDataChain@CPlex@@QEAAXXZ
  ?FreeExtra@CString@@QEAAXXZ="C:\Windows\System32\mfcsubs".?FreeExtra@CString@@QEAAXXZ
  ?FreeExtra@CStringArray@@QEAAXXZ="C:\Windows\System32\mfcsubs".?FreeExtra@CStringArray@@QEAAXXZ
  ?GetAllocLength@CString@@QEBAHXZ="C:\Windows\System32\mfcsubs".?GetAllocLength@CString@@QEBAHXZ
  ?GetAssocAt@CMapStringToPtr@@IEBAPEAUCAssoc@1@PEBGAEAI@Z="C:\Windows\System32\mfcsubs".?GetAssocAt@CMapStringToPtr@@IEBAPEAUCAssoc@1@PEBGAEAI@Z
  ?GetAt@CString@@QEBAGH@Z="C:\Windows\System32\mfcsubs".?GetAt@CString@@QEBAGH@Z
  ?GetAt@CStringArray@@QEBA?AVCString@@H@Z="C:\Windows\System32\mfcsubs".?GetAt@CStringArray@@QEBA?AVCString@@H@Z
  ?GetBuffer@CString@@QEAAPEAGH@Z="C:\Windows\System32\mfcsubs".?GetBuffer@CString@@QEAAPEAGH@Z
  ?GetBufferSetLength@CString@@QEAAPEAGH@Z="C:\Windows\System32\mfcsubs".?GetBufferSetLength@CString@@QEAAPEAGH@Z
  ?GetCount@CMapStringToPtr@@QEBAHXZ="C:\Windows\System32\mfcsubs".?GetCount@CMapStringToPtr@@QEBAHXZ
  ?GetData@CString@@IEBAPEAUCStringData@@XZ="C:\Windows\System32\mfcsubs".?GetData@CString@@IEBAPEAUCStringData@@XZ
  ?GetData@CStringArray@@QEAAPEAVCString@@XZ="C:\Windows\System32\mfcsubs".?GetData@CStringArray@@QEAAPEAVCString@@XZ
  ?GetData@CStringArray@@QEBAPEBVCString@@XZ="C:\Windows\System32\mfcsubs".?GetData@CStringArray@@QEBAPEBVCString@@XZ
  ?GetHashTableSize@CMapStringToPtr@@QEBAIXZ="C:\Windows\System32\mfcsubs".?GetHashTableSize@CMapStringToPtr@@QEBAIXZ
  ?GetLength@CString@@QEBAHXZ="C:\Windows\System32\mfcsubs".?GetLength@CString@@QEBAHXZ
  ?GetNextAssoc@CMapStringToPtr@@QEBAXAEAPEAU__POSITION@@AEAVCString@@AEAPEAX@Z="C:\Windows\System32\mfcsubs".?GetNextAssoc@CMapStringToPtr@@QEBAXAEAPEAU__POSITION@@AEAVCString@@AEAPEAX@Z
  ?GetSize@CStringArray@@QEBAHXZ="C:\Windows\System32\mfcsubs".?GetSize@CStringArray@@QEBAHXZ
  ?GetStartPosition@CMapStringToPtr@@QEBAPEAU__POSITION@@XZ="C:\Windows\System32\mfcsubs".?GetStartPosition@CMapStringToPtr@@QEBAPEAU__POSITION@@XZ
  ?GetUpperBound@CStringArray@@QEBAHXZ="C:\Windows\System32\mfcsubs".?GetUpperBound@CStringArray@@QEBAHXZ
  ?HashKey@CMapStringToPtr@@QEBAIPEBG@Z="C:\Windows\System32\mfcsubs".?HashKey@CMapStringToPtr@@QEBAIPEBG@Z
  ?Init@CString@@IEAAXXZ="C:\Windows\System32\mfcsubs".?Init@CString@@IEAAXXZ
  ?InitHashTable@CMapStringToPtr@@QEAAXIH@Z="C:\Windows\System32\mfcsubs".?InitHashTable@CMapStringToPtr@@QEAAXIH@Z
  ?InsertAt@CStringArray@@QEAAXHPEAV1@@Z="C:\Windows\System32\mfcsubs".?InsertAt@CStringArray@@QEAAXHPEAV1@@Z
  ?InsertAt@CStringArray@@QEAAXHPEBGH@Z="C:\Windows\System32\mfcsubs".?InsertAt@CStringArray@@QEAAXHPEBGH@Z
  ?IsEmpty@CMapStringToPtr@@QEBAHXZ="C:\Windows\System32\mfcsubs".?IsEmpty@CMapStringToPtr@@QEBAHXZ
  ?IsEmpty@CString@@QEBAHXZ="C:\Windows\System32\mfcsubs".?IsEmpty@CString@@QEBAHXZ
  ?Left@CString@@QEBA?AV1@H@Z="C:\Windows\System32\mfcsubs".?Left@CString@@QEBA?AV1@H@Z
  ?LoadStringW@CString@@QEAAHI@Z="C:\Windows\System32\mfcsubs".?LoadStringW@CString@@QEAAHI@Z
  ?Lock@CCriticalSection@@QEAAHXZ="C:\Windows\System32\mfcsubs".?Lock@CCriticalSection@@QEAAHXZ
  ?Lock@CCriticalSection@@UEAAHK@Z="C:\Windows\System32\mfcsubs".?Lock@CCriticalSection@@UEAAHK@Z
  ?Lock@CSyncObject@@UEAAHK@Z="C:\Windows\System32\mfcsubs".?Lock@CSyncObject@@UEAAHK@Z
  ?LockBuffer@CString@@QEAAPEAGXZ="C:\Windows\System32\mfcsubs".?LockBuffer@CString@@QEAAPEAGXZ
  ?Lookup@CMapStringToPtr@@QEBAHPEBGAEAPEAX@Z="C:\Windows\System32\mfcsubs".?Lookup@CMapStringToPtr@@QEBAHPEBGAEAPEAX@Z
  ?LookupKey@CMapStringToPtr@@QEBAHPEBGAEAPEBG@Z="C:\Windows\System32\mfcsubs".?LookupKey@CMapStringToPtr@@QEBAHPEBGAEAPEBG@Z
  ?MakeLower@CString@@QEAAXXZ="C:\Windows\System32\mfcsubs".?MakeLower@CString@@QEAAXXZ
  ?MakeReverse@CString@@QEAAXXZ="C:\Windows\System32\mfcsubs".?MakeReverse@CString@@QEAAXXZ
  ?MakeUpper@CString@@QEAAXXZ="C:\Windows\System32\mfcsubs".?MakeUpper@CString@@QEAAXXZ
  ?Mid@CString@@QEBA?AV1@H@Z="C:\Windows\System32\mfcsubs".?Mid@CString@@QEBA?AV1@H@Z
  ?Mid@CString@@QEBA?AV1@HH@Z="C:\Windows\System32\mfcsubs".?Mid@CString@@QEBA?AV1@HH@Z
  ?NewAssoc@CMapStringToPtr@@IEAAPEAUCAssoc@1@XZ="C:\Windows\System32\mfcsubs".?NewAssoc@CMapStringToPtr@@IEAAPEAUCAssoc@1@XZ
  ?Release@CString@@IEAAXXZ="C:\Windows\System32\mfcsubs".?Release@CString@@IEAAXXZ
  ?Release@CString@@KAXPEAUCStringData@@@Z="C:\Windows\System32\mfcsubs".?Release@CString@@KAXPEAUCStringData@@@Z
  ?ReleaseBuffer@CString@@QEAAXH@Z="C:\Windows\System32\mfcsubs".?ReleaseBuffer@CString@@QEAAXH@Z
  ?RemoveAll@CMapStringToPtr@@QEAAXXZ="C:\Windows\System32\mfcsubs".?RemoveAll@CMapStringToPtr@@QEAAXXZ
  ?RemoveAll@CStringArray@@QEAAXXZ="C:\Windows\System32\mfcsubs".?RemoveAll@CStringArray@@QEAAXXZ
  ?RemoveAt@CStringArray@@QEAAXHH@Z="C:\Windows\System32\mfcsubs".?RemoveAt@CStringArray@@QEAAXHH@Z
  ?RemoveKey@CMapStringToPtr@@QEAAHPEBG@Z="C:\Windows\System32\mfcsubs".?RemoveKey@CMapStringToPtr@@QEAAHPEBG@Z
  ?ReverseFind@CString@@QEBAHG@Z="C:\Windows\System32\mfcsubs".?ReverseFind@CString@@QEBAHG@Z
  ?Right@CString@@QEBA?AV1@H@Z="C:\Windows\System32\mfcsubs".?Right@CString@@QEBA?AV1@H@Z
  ?SafeStrlen@CString@@KAHPEBG@Z="C:\Windows\System32\mfcsubs".?SafeStrlen@CString@@KAHPEBG@Z
  ?SetAt@CMapStringToPtr@@QEAAXPEBGPEAX@Z="C:\Windows\System32\mfcsubs".?SetAt@CMapStringToPtr@@QEAAXPEBGPEAX@Z
  ?SetAt@CString@@QEAAXHG@Z="C:\Windows\System32\mfcsubs".?SetAt@CString@@QEAAXHG@Z
  ?SetAt@CStringArray@@QEAAXHPEBG@Z="C:\Windows\System32\mfcsubs".?SetAt@CStringArray@@QEAAXHPEBG@Z
  ?SetAtGrow@CStringArray@@QEAAXHPEBG@Z="C:\Windows\System32\mfcsubs".?SetAtGrow@CStringArray@@QEAAXHPEBG@Z
  ?SetSize@CStringArray@@QEAAXHH@Z="C:\Windows\System32\mfcsubs".?SetSize@CStringArray@@QEAAXHH@Z
  ?SpanExcluding@CString@@QEBA?AV1@PEBG@Z="C:\Windows\System32\mfcsubs".?SpanExcluding@CString@@QEBA?AV1@PEBG@Z
  ?SpanIncluding@CString@@QEBA?AV1@PEBG@Z="C:\Windows\System32\mfcsubs".?SpanIncluding@CString@@QEBA?AV1@PEBG@Z
  ?TrimLeft@CString@@QEAAXXZ="C:\Windows\System32\mfcsubs".?TrimLeft@CString@@QEAAXXZ
  ?TrimRight@CString@@QEAAXXZ="C:\Windows\System32\mfcsubs".?TrimRight@CString@@QEAAXXZ
  ?Unlock@CCriticalSection@@UEAAHXZ="C:\Windows\System32\mfcsubs".?Unlock@CCriticalSection@@UEAAHXZ
  ?Unlock@CSyncObject@@UEAAHJPEAJ@Z="C:\Windows\System32\mfcsubs".?Unlock@CSyncObject@@UEAAHJPEAJ@Z
  ?UnlockBuffer@CString@@QEAAXXZ="C:\Windows\System32\mfcsubs".?UnlockBuffer@CString@@QEAAXXZ
  ?data@CPlex@@QEAAPEAXXZ="C:\Windows\System32\mfcsubs".?data@CPlex@@QEAAPEAXXZ
