EXPORTS
  ??0CDriveInfo@@QEAA@PEBGK@Z="C:\Windows\System32\tquery".??0CDriveInfo@@QEAA@PEBGK@Z
  ??0CFullPath@@QEAA@PEBG@Z="C:\Windows\System32\tquery".??0CFullPath@@QEAA@PEBG@Z
  ??0CFullPropSpec@@QEAA@AEBV0@@Z="C:\Windows\System32\tquery".??0CFullPropSpec@@QEAA@AEBV0@@Z
  ??0CMemSerStream@@QEAA@PEAEK@Z="C:\Windows\System32\tquery".??0CMemSerStream@@QEAA@PEAEK@Z
  ??0CPidLookupTable@@QEAA@XZ="C:\Windows\System32\tquery".??0CPidLookupTable@@QEAA@XZ
  ??0CUnNormalizer@@QEAA@XZ="C:\Windows\System32\tquery".??0CUnNormalizer@@QEAA@XZ
  ??0CiStorage@@QEAA@PEBGKPEAUICiCAdviseStatus@@KH@Z="C:\Windows\System32\tquery".??0CiStorage@@QEAA@PEBGKPEAUICiCAdviseStatus@@KH@Z
  ??0XAct@@QEAA@XZ="C:\Windows\System32\tquery".??0XAct@@QEAA@XZ
  ??1CAllocStorageVariant@@IEAA@XZ="C:\Windows\System32\tquery".??1CAllocStorageVariant@@IEAA@XZ
  ??1CMemSerStream@@UEAA@XZ="C:\Windows\System32\tquery".??1CMemSerStream@@UEAA@XZ
  ??1CPhysStorage@@UEAA@XZ="C:\Windows\System32\tquery".??1CPhysStorage@@UEAA@XZ
  ??1CPidLookupTable@@QEAA@XZ="C:\Windows\System32\tquery".??1CPidLookupTable@@QEAA@XZ
  ??1CiStorage@@UEAA@XZ="C:\Windows\System32\tquery".??1CiStorage@@UEAA@XZ
  ?CoTaskAllocator@@3VCCoTaskAllocator@@A="C:\Windows\System32\tquery".?CoTaskAllocator@@3VCCoTaskAllocator@@A
  ?ContainsDrive@CDriveInfo@@SAHPEBG@Z="C:\Windows\System32\tquery".?ContainsDrive@CDriveInfo@@SAHPEBG@Z
  ?GetBlob@CMemDeSerStream@@UEAAXPEAEK@Z="C:\Windows\System32\tquery".?GetBlob@CMemDeSerStream@@UEAAXPEAEK@Z
  ?GetByte@CMemDeSerStream@@UEAAEXZ="C:\Windows\System32\tquery".?GetByte@CMemDeSerStream@@UEAAEXZ
  ?GetChar@CMemDeSerStream@@UEAAXPEADK@Z="C:\Windows\System32\tquery".?GetChar@CMemDeSerStream@@UEAAXPEADK@Z
  ?GetDiskSpace@CDriveInfo@@QEAAXAEA_J0@Z="C:\Windows\System32\tquery".?GetDiskSpace@CDriveInfo@@QEAAXAEA_J0@Z
  ?GetDouble@CMemDeSerStream@@UEAANXZ="C:\Windows\System32\tquery".?GetDouble@CMemDeSerStream@@UEAANXZ
  ?GetDrive@CDriveInfo@@SAXPEBGPEAG@Z="C:\Windows\System32\tquery".?GetDrive@CDriveInfo@@SAXPEBGPEAG@Z
  ?GetFloat@CMemDeSerStream@@UEAAMXZ="C:\Windows\System32\tquery".?GetFloat@CMemDeSerStream@@UEAAMXZ
  ?GetGUID@CMemDeSerStream@@UEAAXAEAU_GUID@@@Z="C:\Windows\System32\tquery".?GetGUID@CMemDeSerStream@@UEAAXAEAU_GUID@@@Z
  ?GetLong@CMemDeSerStream@@UEAAJXZ="C:\Windows\System32\tquery".?GetLong@CMemDeSerStream@@UEAAJXZ
  ?GetSectorSize@CDriveInfo@@QEAAKXZ="C:\Windows\System32\tquery".?GetSectorSize@CDriveInfo@@QEAAKXZ
  ?GetString@CMemDeSerStream@@UEAAPEADXZ="C:\Windows\System32\tquery".?GetString@CMemDeSerStream@@UEAAPEADXZ
  ?GetULong@CMemDeSerStream@@UEAAKXZ="C:\Windows\System32\tquery".?GetULong@CMemDeSerStream@@UEAAKXZ
  ?GetUShort@CMemDeSerStream@@UEAAGXZ="C:\Windows\System32\tquery".?GetUShort@CMemDeSerStream@@UEAAGXZ
  ?GetWChar@CMemDeSerStream@@UEAAXPEAGK@Z="C:\Windows\System32\tquery".?GetWChar@CMemDeSerStream@@UEAAXPEAGK@Z
  ?GetWString@CMemDeSerStream@@UEAAPEAGXZ="C:\Windows\System32\tquery".?GetWString@CMemDeSerStream@@UEAAPEAGXZ
  ?Init@CPidLookupTable@@QEAAHPEAVPRcovStorageObj@@@Z="C:\Windows\System32\tquery".?Init@CPidLookupTable@@QEAAHPEAVPRcovStorageObj@@@Z
  ?IsSameDrive@CDriveInfo@@QEAAHPEBG@Z="C:\Windows\System32\tquery".?IsSameDrive@CDriveInfo@@QEAAHPEBG@Z
  ?IsWriteProtected@CDriveInfo@@QEAAHXZ="C:\Windows\System32\tquery".?IsWriteProtected@CDriveInfo@@QEAAHXZ
  ?MakePath@CFullPath@@QEAAXPEBG@Z="C:\Windows\System32\tquery".?MakePath@CFullPath@@QEAAXPEBG@Z
  ?PeekULong@CMemDeSerStream@@UEAAKXZ="C:\Windows\System32\tquery".?PeekULong@CMemDeSerStream@@UEAAKXZ
  ?PutBlob@CMemSerStream@@UEAAXPEBEK@Z="C:\Windows\System32\tquery".?PutBlob@CMemSerStream@@UEAAXPEBEK@Z
  ?PutByte@CMemSerStream@@UEAAXE@Z="C:\Windows\System32\tquery".?PutByte@CMemSerStream@@UEAAXE@Z
  ?PutChar@CMemSerStream@@UEAAXPEBDK@Z="C:\Windows\System32\tquery".?PutChar@CMemSerStream@@UEAAXPEBDK@Z
  ?PutDouble@CMemSerStream@@UEAAXN@Z="C:\Windows\System32\tquery".?PutDouble@CMemSerStream@@UEAAXN@Z
  ?PutFloat@CMemSerStream@@UEAAXM@Z="C:\Windows\System32\tquery".?PutFloat@CMemSerStream@@UEAAXM@Z
  ?PutGUID@CMemSerStream@@UEAAXAEBU_GUID@@@Z="C:\Windows\System32\tquery".?PutGUID@CMemSerStream@@UEAAXAEBU_GUID@@@Z
  ?PutLong@CMemSerStream@@UEAAXJ@Z="C:\Windows\System32\tquery".?PutLong@CMemSerStream@@UEAAXJ@Z
  ?PutString@CMemSerStream@@UEAAXPEBD@Z="C:\Windows\System32\tquery".?PutString@CMemSerStream@@UEAAXPEBD@Z
  ?PutULong@CMemSerStream@@UEAAXK@Z="C:\Windows\System32\tquery".?PutULong@CMemSerStream@@UEAAXK@Z
  ?PutUShort@CMemSerStream@@UEAAXG@Z="C:\Windows\System32\tquery".?PutUShort@CMemSerStream@@UEAAXG@Z
  ?PutWChar@CMemSerStream@@UEAAXPEBGK@Z="C:\Windows\System32\tquery".?PutWChar@CMemSerStream@@UEAAXPEBGK@Z
  ?PutWString@CMemSerStream@@UEAAXPEBG@Z="C:\Windows\System32\tquery".?PutWString@CMemSerStream@@UEAAXPEBG@Z
  ?QueryPidLookupTable@CiStorage@@QEAAPEAVPRcovStorageObj@@K@Z="C:\Windows\System32\tquery".?QueryPidLookupTable@CiStorage@@QEAAPEAVPRcovStorageObj@@K@Z
  ?Read@CCiFile@@QEAAXXZ="C:\Windows\System32\tquery".?Read@CCiFile@@QEAAXXZ
  ?ResetType@CAllocStorageVariant@@IEAAXAEAVPMemoryAllocator@@@Z="C:\Windows\System32\tquery".?ResetType@CAllocStorageVariant@@IEAAXAEAVPMemoryAllocator@@@Z
  ?SetProperty@CFullPropSpec@@QEAAHPEBG@Z="C:\Windows\System32\tquery".?SetProperty@CFullPropSpec@@QEAAHPEBG@Z
  ?SetProperty@CFullPropSpec@@QEAAXK@Z="C:\Windows\System32\tquery".?SetProperty@CFullPropSpec@@QEAAXK@Z
  ?SkipBlob@CMemDeSerStream@@UEAAXK@Z="C:\Windows\System32\tquery".?SkipBlob@CMemDeSerStream@@UEAAXK@Z
  ?SkipByte@CMemDeSerStream@@UEAAXXZ="C:\Windows\System32\tquery".?SkipByte@CMemDeSerStream@@UEAAXXZ
  ?SkipChar@CMemDeSerStream@@UEAAXK@Z="C:\Windows\System32\tquery".?SkipChar@CMemDeSerStream@@UEAAXK@Z
  ?SkipDouble@CMemDeSerStream@@UEAAXXZ="C:\Windows\System32\tquery".?SkipDouble@CMemDeSerStream@@UEAAXXZ
  ?SkipFloat@CMemDeSerStream@@UEAAXXZ="C:\Windows\System32\tquery".?SkipFloat@CMemDeSerStream@@UEAAXXZ
  ?SkipGUID@CMemDeSerStream@@UEAAXXZ="C:\Windows\System32\tquery".?SkipGUID@CMemDeSerStream@@UEAAXXZ
  ?SkipLong@CMemDeSerStream@@UEAAXXZ="C:\Windows\System32\tquery".?SkipLong@CMemDeSerStream@@UEAAXXZ
  ?SkipULong@CMemDeSerStream@@UEAAXXZ="C:\Windows\System32\tquery".?SkipULong@CMemDeSerStream@@UEAAXXZ
  ?SkipUShort@CMemDeSerStream@@UEAAXXZ="C:\Windows\System32\tquery".?SkipUShort@CMemDeSerStream@@UEAAXXZ
  ?SkipWChar@CMemDeSerStream@@UEAAXK@Z="C:\Windows\System32\tquery".?SkipWChar@CMemDeSerStream@@UEAAXK@Z
  ?UnNormalizeKey@CUnNormalizer@@QEAAXAEBVCKeyBuf@@AEAUtagPROPVARIANT@@PEAGK@Z="C:\Windows\System32\tquery".?UnNormalizeKey@CUnNormalizer@@QEAAXAEBVCKeyBuf@@AEAUtagPROPVARIANT@@PEAGK@Z
  AccessDebugTracer="C:\Windows\System32\tquery".AccessDebugTracer
  AccessRetailTracer="C:\Windows\System32\tquery".AccessRetailTracer
  CIState="C:\Windows\System32\tquery".CIState
  CreatePropMapperStorage="C:\Windows\System32\tquery".CreatePropMapperStorage
  CreatePropMapperStorage2="C:\Windows\System32\tquery".CreatePropMapperStorage2
  CreateSecurityStoreStorage="C:\Windows\System32\tquery".CreateSecurityStoreStorage
  DllCanUnloadNow="C:\Windows\System32\tquery".DllCanUnloadNow
  DllGetClassObject="C:\Windows\System32\tquery".DllGetClassObject
  DllRegisterServer="C:\Windows\System32\tquery".DllRegisterServer
  DllUnregisterServer="C:\Windows\System32\tquery".DllUnregisterServer
  ExceptInitialize="C:\Windows\System32\tquery".ExceptInitialize
  ExternPropagateEventToOpenQueries="C:\Windows\System32\tquery".ExternPropagateEventToOpenQueries
  ForceMasterMerge="C:\Windows\System32\tquery".ForceMasterMerge
  PerfmonClose="C:\Windows\System32\tquery".PerfmonClose
  PerfmonCollect="C:\Windows\System32\tquery".PerfmonCollect
  PerfmonIDXClose="C:\Windows\System32\tquery".PerfmonIDXClose
  PerfmonIDXCollect="C:\Windows\System32\tquery".PerfmonIDXCollect
  PerfmonIDXOpen="C:\Windows\System32\tquery".PerfmonIDXOpen
  PerfmonOpen="C:\Windows\System32\tquery".PerfmonOpen
  RetailTracerDisable="C:\Windows\System32\tquery".RetailTracerDisable
  RetailTracerEnable="C:\Windows\System32\tquery".RetailTracerEnable
  RetailTracerReleaseAll="C:\Windows\System32\tquery".RetailTracerReleaseAll
  UseLowFragmentationHeap="C:\Windows\System32\tquery".UseLowFragmentationHeap
  ciDelete="C:\Windows\System32\tquery".ciDelete
  ciNew="C:\Windows\System32\tquery".ciNew
  ciNewNoThrow="C:\Windows\System32\tquery".ciNewNoThrow
