EXPORTS
  ??0?$CSimpleArray@PEAU_BLOCKED_REASON@@V?$CSimpleArrayEqualHelper@PEAU_BLOCKED_REASON@@@ATL@@@ATL@@QEAA@AEBV01@@Z="C:\Windows\System32\uxlib".??0?$CSimpleArray@PEAU_BLOCKED_REASON@@V?$CSimpleArrayEqualHelper@PEAU_BLOCKED_REASON@@@ATL@@@ATL@@QEAA@AEBV01@@Z
  ??0?$CSimpleArray@PEAU_BLOCKED_REASON@@V?$CSimpleArrayEqualHelper@PEAU_BLOCKED_REASON@@@ATL@@@ATL@@QEAA@XZ="C:\Windows\System32\uxlib".??0?$CSimpleArray@PEAU_BLOCKED_REASON@@V?$CSimpleArrayEqualHelper@PEAU_BLOCKED_REASON@@@ATL@@@ATL@@QEAA@XZ
  ??0?$CSimpleArray@PEAVCLocale@@V?$CSimpleArrayEqualHelper@PEAVCLocale@@@ATL@@@ATL@@QEAA@AEBV01@@Z="C:\Windows\System32\uxlib".??0?$CSimpleArray@PEAVCLocale@@V?$CSimpleArrayEqualHelper@PEAVCLocale@@@ATL@@@ATL@@QEAA@AEBV01@@Z
  ??0?$CSimpleArray@PEAVCLocale@@V?$CSimpleArrayEqualHelper@PEAVCLocale@@@ATL@@@ATL@@QEAA@XZ="C:\Windows\System32\uxlib".??0?$CSimpleArray@PEAVCLocale@@V?$CSimpleArrayEqualHelper@PEAVCLocale@@@ATL@@@ATL@@QEAA@XZ
  ??0?$CSimpleArray@VCDriverItem@@V?$CSimpleArrayEqualHelper@VCDriverItem@@@ATL@@@ATL@@QEAA@AEBV01@@Z="C:\Windows\System32\uxlib".??0?$CSimpleArray@VCDriverItem@@V?$CSimpleArrayEqualHelper@VCDriverItem@@@ATL@@@ATL@@QEAA@AEBV01@@Z
  ??0?$CSimpleArray@VCDriverItem@@V?$CSimpleArrayEqualHelper@VCDriverItem@@@ATL@@@ATL@@QEAA@XZ="C:\Windows\System32\uxlib".??0?$CSimpleArray@VCDriverItem@@V?$CSimpleArrayEqualHelper@VCDriverItem@@@ATL@@@ATL@@QEAA@XZ
  ??0?$CSimpleArray@VCLanguageItem@@V?$CSimpleArrayEqualHelper@VCLanguageItem@@@ATL@@@ATL@@QEAA@AEBV01@@Z="C:\Windows\System32\uxlib".??0?$CSimpleArray@VCLanguageItem@@V?$CSimpleArrayEqualHelper@VCLanguageItem@@@ATL@@@ATL@@QEAA@AEBV01@@Z
  ??0?$CSimpleArray@VCLanguageItem@@V?$CSimpleArrayEqualHelper@VCLanguageItem@@@ATL@@@ATL@@QEAA@XZ="C:\Windows\System32\uxlib".??0?$CSimpleArray@VCLanguageItem@@V?$CSimpleArrayEqualHelper@VCLanguageItem@@@ATL@@@ATL@@QEAA@XZ
  ??0?$CSimpleStringT@G$0A@@ATL@@QEAA@AEBV01@@Z="C:\Windows\System32\uxlib".??0?$CSimpleStringT@G$0A@@ATL@@QEAA@AEBV01@@Z
  ??0?$CSimpleStringT@G$0A@@ATL@@QEAA@AEBV?$CSimpleStringT@G$00@1@@Z="C:\Windows\System32\uxlib".??0?$CSimpleStringT@G$0A@@ATL@@QEAA@AEBV?$CSimpleStringT@G$00@1@@Z
  ??0?$CSimpleStringT@G$0A@@ATL@@QEAA@PEAUIAtlStringMgr@1@@Z="C:\Windows\System32\uxlib".??0?$CSimpleStringT@G$0A@@ATL@@QEAA@PEAUIAtlStringMgr@1@@Z
  ??0?$CSimpleStringT@G$0A@@ATL@@QEAA@PEBGHPEAUIAtlStringMgr@1@@Z="C:\Windows\System32\uxlib".??0?$CSimpleStringT@G$0A@@ATL@@QEAA@PEBGHPEAUIAtlStringMgr@1@@Z
  ??0?$CSimpleStringT@G$0A@@ATL@@QEAA@PEBGPEAUIAtlStringMgr@1@@Z="C:\Windows\System32\uxlib".??0?$CSimpleStringT@G$0A@@ATL@@QEAA@PEBGPEAUIAtlStringMgr@1@@Z
  ??0?$CStringT@GV?$StrTraitATL@GV?$ChTraitsCRT@G@ATL@@@ATL@@@ATL@@QEAA@AEBUtagVARIANT@@@Z="C:\Windows\System32\uxlib".??0?$CStringT@GV?$StrTraitATL@GV?$ChTraitsCRT@G@ATL@@@ATL@@@ATL@@QEAA@AEBUtagVARIANT@@@Z
  ??0?$CStringT@GV?$StrTraitATL@GV?$ChTraitsCRT@G@ATL@@@ATL@@@ATL@@QEAA@AEBUtagVARIANT@@PEAUIAtlStringMgr@1@@Z="C:\Windows\System32\uxlib".??0?$CStringT@GV?$StrTraitATL@GV?$ChTraitsCRT@G@ATL@@@ATL@@@ATL@@QEAA@AEBUtagVARIANT@@PEAUIAtlStringMgr@1@@Z
  ??0?$CStringT@GV?$StrTraitATL@GV?$ChTraitsCRT@G@ATL@@@ATL@@@ATL@@QEAA@AEBV01@@Z="C:\Windows\System32\uxlib".??0?$CStringT@GV?$StrTraitATL@GV?$ChTraitsCRT@G@ATL@@@ATL@@@ATL@@QEAA@AEBV01@@Z
  ??0?$CStringT@GV?$StrTraitATL@GV?$ChTraitsCRT@G@ATL@@@ATL@@@ATL@@QEAA@DH@Z="C:\Windows\System32\uxlib".??0?$CStringT@GV?$StrTraitATL@GV?$ChTraitsCRT@G@ATL@@@ATL@@@ATL@@QEAA@DH@Z
  ??0?$CStringT@GV?$StrTraitATL@GV?$ChTraitsCRT@G@ATL@@@ATL@@@ATL@@QEAA@GH@Z="C:\Windows\System32\uxlib".??0?$CStringT@GV?$StrTraitATL@GV?$ChTraitsCRT@G@ATL@@@ATL@@@ATL@@QEAA@GH@Z
  ??0?$CStringT@GV?$StrTraitATL@GV?$ChTraitsCRT@G@ATL@@@ATL@@@ATL@@QEAA@PEAUIAtlStringMgr@1@@Z="C:\Windows\System32\uxlib".??0?$CStringT@GV?$StrTraitATL@GV?$ChTraitsCRT@G@ATL@@@ATL@@@ATL@@QEAA@PEAUIAtlStringMgr@1@@Z
  ??0?$CStringT@GV?$StrTraitATL@GV?$ChTraitsCRT@G@ATL@@@ATL@@@ATL@@QEAA@PEBD@Z="C:\Windows\System32\uxlib".??0?$CStringT@GV?$StrTraitATL@GV?$ChTraitsCRT@G@ATL@@@ATL@@@ATL@@QEAA@PEBD@Z
  ??0?$CStringT@GV?$StrTraitATL@GV?$ChTraitsCRT@G@ATL@@@ATL@@@ATL@@QEAA@PEBDH@Z="C:\Windows\System32\uxlib".??0?$CStringT@GV?$StrTraitATL@GV?$ChTraitsCRT@G@ATL@@@ATL@@@ATL@@QEAA@PEBDH@Z
  ??0?$CStringT@GV?$StrTraitATL@GV?$ChTraitsCRT@G@ATL@@@ATL@@@ATL@@QEAA@PEBDHPEAUIAtlStringMgr@1@@Z="C:\Windows\System32\uxlib".??0?$CStringT@GV?$StrTraitATL@GV?$ChTraitsCRT@G@ATL@@@ATL@@@ATL@@QEAA@PEBDHPEAUIAtlStringMgr@1@@Z
  ??0?$CStringT@GV?$StrTraitATL@GV?$ChTraitsCRT@G@ATL@@@ATL@@@ATL@@QEAA@PEBDPEAUIAtlStringMgr@1@@Z="C:\Windows\System32\uxlib".??0?$CStringT@GV?$StrTraitATL@GV?$ChTraitsCRT@G@ATL@@@ATL@@@ATL@@QEAA@PEBDPEAUIAtlStringMgr@1@@Z
  ??0?$CStringT@GV?$StrTraitATL@GV?$ChTraitsCRT@G@ATL@@@ATL@@@ATL@@QEAA@PEBE@Z="C:\Windows\System32\uxlib".??0?$CStringT@GV?$StrTraitATL@GV?$ChTraitsCRT@G@ATL@@@ATL@@@ATL@@QEAA@PEBE@Z
  ??0?$CStringT@GV?$StrTraitATL@GV?$ChTraitsCRT@G@ATL@@@ATL@@@ATL@@QEAA@PEBEPEAUIAtlStringMgr@1@@Z="C:\Windows\System32\uxlib".??0?$CStringT@GV?$StrTraitATL@GV?$ChTraitsCRT@G@ATL@@@ATL@@@ATL@@QEAA@PEBEPEAUIAtlStringMgr@1@@Z
  ??0?$CStringT@GV?$StrTraitATL@GV?$ChTraitsCRT@G@ATL@@@ATL@@@ATL@@QEAA@PEBG@Z="C:\Windows\System32\uxlib".??0?$CStringT@GV?$StrTraitATL@GV?$ChTraitsCRT@G@ATL@@@ATL@@@ATL@@QEAA@PEBG@Z
  ??0?$CStringT@GV?$StrTraitATL@GV?$ChTraitsCRT@G@ATL@@@ATL@@@ATL@@QEAA@PEBGH@Z="C:\Windows\System32\uxlib".??0?$CStringT@GV?$StrTraitATL@GV?$ChTraitsCRT@G@ATL@@@ATL@@@ATL@@QEAA@PEBGH@Z
  ??0?$CStringT@GV?$StrTraitATL@GV?$ChTraitsCRT@G@ATL@@@ATL@@@ATL@@QEAA@PEBGHPEAUIAtlStringMgr@1@@Z="C:\Windows\System32\uxlib".??0?$CStringT@GV?$StrTraitATL@GV?$ChTraitsCRT@G@ATL@@@ATL@@@ATL@@QEAA@PEBGHPEAUIAtlStringMgr@1@@Z
  ??0?$CStringT@GV?$StrTraitATL@GV?$ChTraitsCRT@G@ATL@@@ATL@@@ATL@@QEAA@PEBGPEAUIAtlStringMgr@1@@Z="C:\Windows\System32\uxlib".??0?$CStringT@GV?$StrTraitATL@GV?$ChTraitsCRT@G@ATL@@@ATL@@@ATL@@QEAA@PEBGPEAUIAtlStringMgr@1@@Z
  ??0?$CStringT@GV?$StrTraitATL@GV?$ChTraitsCRT@G@ATL@@@ATL@@@ATL@@QEAA@XZ="C:\Windows\System32\uxlib".??0?$CStringT@GV?$StrTraitATL@GV?$ChTraitsCRT@G@ATL@@@ATL@@@ATL@@QEAA@XZ
  ??0CImageData@@AEAA@XZ="C:\Windows\System32\uxlib".??0CImageData@@AEAA@XZ
  ??0CImageData@@QEAA@AEBV0@@Z="C:\Windows\System32\uxlib".??0CImageData@@QEAA@AEBV0@@Z
  ??0CInternationalUtils@@QEAA@XZ="C:\Windows\System32\uxlib".??0CInternationalUtils@@QEAA@XZ
  ??0CKeyboardLayout@@QEAA@AEBV0@@Z="C:\Windows\System32\uxlib".??0CKeyboardLayout@@QEAA@AEBV0@@Z
  ??0CKeyboardLayout@@QEAA@V?$CStringT@GV?$StrTraitATL@GV?$ChTraitsCRT@G@ATL@@@ATL@@@ATL@@0@Z="C:\Windows\System32\uxlib".??0CKeyboardLayout@@QEAA@V?$CStringT@GV?$StrTraitATL@GV?$ChTraitsCRT@G@ATL@@@ATL@@@ATL@@0@Z
  ??0CKeyboardLayouts@@QEAA@AEBV0@@Z="C:\Windows\System32\uxlib".??0CKeyboardLayouts@@QEAA@AEBV0@@Z
  ??0CKeyboardLayouts@@QEAA@XZ="C:\Windows\System32\uxlib".??0CKeyboardLayouts@@QEAA@XZ
  ??0CLanguage@@QEAA@AEBV0@@Z="C:\Windows\System32\uxlib".??0CLanguage@@QEAA@AEBV0@@Z
  ??0CLanguage@@QEAA@V?$CStringT@GV?$StrTraitATL@GV?$ChTraitsCRT@G@ATL@@@ATL@@@ATL@@000@Z="C:\Windows\System32\uxlib".??0CLanguage@@QEAA@V?$CStringT@GV?$StrTraitATL@GV?$ChTraitsCRT@G@ATL@@@ATL@@@ATL@@000@Z
  ??0CLanguages@@QEAA@AEBV0@@Z="C:\Windows\System32\uxlib".??0CLanguages@@QEAA@AEBV0@@Z
  ??0CLanguages@@QEAA@XZ="C:\Windows\System32\uxlib".??0CLanguages@@QEAA@XZ
  ??0CLayeredDriver@@QEAA@AEBV0@@Z="C:\Windows\System32\uxlib".??0CLayeredDriver@@QEAA@AEBV0@@Z
  ??0CLayeredDriver@@QEAA@V?$CStringT@GV?$StrTraitATL@GV?$ChTraitsCRT@G@ATL@@@ATL@@@ATL@@0@Z="C:\Windows\System32\uxlib".??0CLayeredDriver@@QEAA@V?$CStringT@GV?$StrTraitATL@GV?$ChTraitsCRT@G@ATL@@@ATL@@@ATL@@0@Z
  ??0CLayeredDrivers@@QEAA@AEBV0@@Z="C:\Windows\System32\uxlib".??0CLayeredDrivers@@QEAA@AEBV0@@Z
  ??0CLayeredDrivers@@QEAA@XZ="C:\Windows\System32\uxlib".??0CLayeredDrivers@@QEAA@XZ
  ??0CLoadDriver@@AEAA@XZ="C:\Windows\System32\uxlib".??0CLoadDriver@@AEAA@XZ
  ??0CLoadDriver@@QEAA@AEBV0@@Z="C:\Windows\System32\uxlib".??0CLoadDriver@@QEAA@AEBV0@@Z
  ??0CLocale@@QEAA@AEBV0@@Z="C:\Windows\System32\uxlib".??0CLocale@@QEAA@AEBV0@@Z
  ??0CLocale@@QEAA@V?$CStringT@GV?$StrTraitATL@GV?$ChTraitsCRT@G@ATL@@@ATL@@@ATL@@0@Z="C:\Windows\System32\uxlib".??0CLocale@@QEAA@V?$CStringT@GV?$StrTraitATL@GV?$ChTraitsCRT@G@ATL@@@ATL@@@ATL@@0@Z
  ??0CLocales@@QEAA@AEBV0@@Z="C:\Windows\System32\uxlib".??0CLocales@@QEAA@AEBV0@@Z
  ??0CLocales@@QEAA@XZ="C:\Windows\System32\uxlib".??0CLocales@@QEAA@XZ
  ??0COSK@@QEAA@XZ="C:\Windows\System32\uxlib".??0COSK@@QEAA@XZ
  ??0CProductKeyModule@@QEAA@AEBV0@@Z="C:\Windows\System32\uxlib".??0CProductKeyModule@@QEAA@AEBV0@@Z
  ??0CProductKeyModule@@QEAA@XZ="C:\Windows\System32\uxlib".??0CProductKeyModule@@QEAA@XZ
  ??0IImageData@@QEAA@$$QEAV0@@Z="C:\Windows\System32\uxlib".??0IImageData@@QEAA@$$QEAV0@@Z
  ??0IImageData@@QEAA@AEBV0@@Z="C:\Windows\System32\uxlib".??0IImageData@@QEAA@AEBV0@@Z
  ??0IImageData@@QEAA@XZ="C:\Windows\System32\uxlib".??0IImageData@@QEAA@XZ
  ??0IProductKeyModule@@QEAA@$$QEAV0@@Z="C:\Windows\System32\uxlib".??0IProductKeyModule@@QEAA@$$QEAV0@@Z
  ??0IProductKeyModule@@QEAA@AEBV0@@Z="C:\Windows\System32\uxlib".??0IProductKeyModule@@QEAA@AEBV0@@Z
  ??0IProductKeyModule@@QEAA@XZ="C:\Windows\System32\uxlib".??0IProductKeyModule@@QEAA@XZ
  ??0MyUtilString@@QEAA@XZ="C:\Windows\System32\uxlib".??0MyUtilString@@QEAA@XZ
  ??0PIDUtilStringView@@QEAA@AEBV0@@Z="C:\Windows\System32\uxlib".??0PIDUtilStringView@@QEAA@AEBV0@@Z
  ??0PIDUtilStringView@@QEAA@XZ="C:\Windows\System32\uxlib".??0PIDUtilStringView@@QEAA@XZ
  ??1?$CSimpleArray@PEAU_BLOCKED_REASON@@V?$CSimpleArrayEqualHelper@PEAU_BLOCKED_REASON@@@ATL@@@ATL@@QEAA@XZ="C:\Windows\System32\uxlib".??1?$CSimpleArray@PEAU_BLOCKED_REASON@@V?$CSimpleArrayEqualHelper@PEAU_BLOCKED_REASON@@@ATL@@@ATL@@QEAA@XZ
  ??1?$CSimpleArray@PEAVCLocale@@V?$CSimpleArrayEqualHelper@PEAVCLocale@@@ATL@@@ATL@@QEAA@XZ="C:\Windows\System32\uxlib".??1?$CSimpleArray@PEAVCLocale@@V?$CSimpleArrayEqualHelper@PEAVCLocale@@@ATL@@@ATL@@QEAA@XZ
  ??1?$CSimpleArray@VCDriverItem@@V?$CSimpleArrayEqualHelper@VCDriverItem@@@ATL@@@ATL@@QEAA@XZ="C:\Windows\System32\uxlib".??1?$CSimpleArray@VCDriverItem@@V?$CSimpleArrayEqualHelper@VCDriverItem@@@ATL@@@ATL@@QEAA@XZ
  ??1?$CSimpleArray@VCLanguageItem@@V?$CSimpleArrayEqualHelper@VCLanguageItem@@@ATL@@@ATL@@QEAA@XZ="C:\Windows\System32\uxlib".??1?$CSimpleArray@VCLanguageItem@@V?$CSimpleArrayEqualHelper@VCLanguageItem@@@ATL@@@ATL@@QEAA@XZ
  ??1?$CSimpleStringT@G$0A@@ATL@@QEAA@XZ="C:\Windows\System32\uxlib".??1?$CSimpleStringT@G$0A@@ATL@@QEAA@XZ
  ??1?$CStringT@GV?$StrTraitATL@GV?$ChTraitsCRT@G@ATL@@@ATL@@@ATL@@QEAA@XZ="C:\Windows\System32\uxlib".??1?$CStringT@GV?$StrTraitATL@GV?$ChTraitsCRT@G@ATL@@@ATL@@@ATL@@QEAA@XZ
  ??1CImageData@@EEAA@XZ="C:\Windows\System32\uxlib".??1CImageData@@EEAA@XZ
  ??1CInternationalUtils@@QEAA@XZ="C:\Windows\System32\uxlib".??1CInternationalUtils@@QEAA@XZ
  ??1CKeyboardLayout@@QEAA@XZ="C:\Windows\System32\uxlib".??1CKeyboardLayout@@QEAA@XZ
  ??1CKeyboardLayouts@@QEAA@XZ="C:\Windows\System32\uxlib".??1CKeyboardLayouts@@QEAA@XZ
  ??1CLanguage@@QEAA@XZ="C:\Windows\System32\uxlib".??1CLanguage@@QEAA@XZ
  ??1CLanguages@@QEAA@XZ="C:\Windows\System32\uxlib".??1CLanguages@@QEAA@XZ
  ??1CLayeredDriver@@QEAA@XZ="C:\Windows\System32\uxlib".??1CLayeredDriver@@QEAA@XZ
  ??1CLayeredDrivers@@QEAA@XZ="C:\Windows\System32\uxlib".??1CLayeredDrivers@@QEAA@XZ
  ??1CLoadDriver@@EEAA@XZ="C:\Windows\System32\uxlib".??1CLoadDriver@@EEAA@XZ
  ??1CLocale@@QEAA@XZ="C:\Windows\System32\uxlib".??1CLocale@@QEAA@XZ
  ??1CLocales@@QEAA@XZ="C:\Windows\System32\uxlib".??1CLocales@@QEAA@XZ
  ??1COSK@@QEAA@XZ="C:\Windows\System32\uxlib".??1COSK@@QEAA@XZ
  ??1PIDUtilStringView@@UEAA@XZ="C:\Windows\System32\uxlib".??1PIDUtilStringView@@UEAA@XZ
  ??4?$CSimpleArray@PEAU_BLOCKED_REASON@@V?$CSimpleArrayEqualHelper@PEAU_BLOCKED_REASON@@@ATL@@@ATL@@QEAAAEAV01@AEBV01@@Z="C:\Windows\System32\uxlib".??4?$CSimpleArray@PEAU_BLOCKED_REASON@@V?$CSimpleArrayEqualHelper@PEAU_BLOCKED_REASON@@@ATL@@@ATL@@QEAAAEAV01@AEBV01@@Z
  ??4?$CSimpleArray@PEAVCLocale@@V?$CSimpleArrayEqualHelper@PEAVCLocale@@@ATL@@@ATL@@QEAAAEAV01@AEBV01@@Z="C:\Windows\System32\uxlib".??4?$CSimpleArray@PEAVCLocale@@V?$CSimpleArrayEqualHelper@PEAVCLocale@@@ATL@@@ATL@@QEAAAEAV01@AEBV01@@Z
  ??4?$CSimpleArray@VCDriverItem@@V?$CSimpleArrayEqualHelper@VCDriverItem@@@ATL@@@ATL@@QEAAAEAV01@AEBV01@@Z="C:\Windows\System32\uxlib".??4?$CSimpleArray@VCDriverItem@@V?$CSimpleArrayEqualHelper@VCDriverItem@@@ATL@@@ATL@@QEAAAEAV01@AEBV01@@Z
  ??4?$CSimpleArray@VCLanguageItem@@V?$CSimpleArrayEqualHelper@VCLanguageItem@@@ATL@@@ATL@@QEAAAEAV01@AEBV01@@Z="C:\Windows\System32\uxlib".??4?$CSimpleArray@VCLanguageItem@@V?$CSimpleArrayEqualHelper@VCLanguageItem@@@ATL@@@ATL@@QEAAAEAV01@AEBV01@@Z
  ??4?$CSimpleStringT@G$0A@@ATL@@QEAAAEAV01@AEBV01@@Z="C:\Windows\System32\uxlib".??4?$CSimpleStringT@G$0A@@ATL@@QEAAAEAV01@AEBV01@@Z
  ??4?$CSimpleStringT@G$0A@@ATL@@QEAAAEAV01@AEBV?$CSimpleStringT@G$00@1@@Z="C:\Windows\System32\uxlib".??4?$CSimpleStringT@G$0A@@ATL@@QEAAAEAV01@AEBV?$CSimpleStringT@G$00@1@@Z
  ??4?$CSimpleStringT@G$0A@@ATL@@QEAAAEAV01@PEBG@Z="C:\Windows\System32\uxlib".??4?$CSimpleStringT@G$0A@@ATL@@QEAAAEAV01@PEBG@Z
  ??4?$CStringT@GV?$StrTraitATL@GV?$ChTraitsCRT@G@ATL@@@ATL@@@ATL@@QEAAAEAV01@AEBUtagVARIANT@@@Z="C:\Windows\System32\uxlib".??4?$CStringT@GV?$StrTraitATL@GV?$ChTraitsCRT@G@ATL@@@ATL@@@ATL@@QEAAAEAV01@AEBUtagVARIANT@@@Z
  ??4?$CStringT@GV?$StrTraitATL@GV?$ChTraitsCRT@G@ATL@@@ATL@@@ATL@@QEAAAEAV01@AEBV01@@Z="C:\Windows\System32\uxlib".??4?$CStringT@GV?$StrTraitATL@GV?$ChTraitsCRT@G@ATL@@@ATL@@@ATL@@QEAAAEAV01@AEBV01@@Z
  ??4?$CStringT@GV?$StrTraitATL@GV?$ChTraitsCRT@G@ATL@@@ATL@@@ATL@@QEAAAEAV01@D@Z="C:\Windows\System32\uxlib".??4?$CStringT@GV?$StrTraitATL@GV?$ChTraitsCRT@G@ATL@@@ATL@@@ATL@@QEAAAEAV01@D@Z
  ??4?$CStringT@GV?$StrTraitATL@GV?$ChTraitsCRT@G@ATL@@@ATL@@@ATL@@QEAAAEAV01@G@Z="C:\Windows\System32\uxlib".??4?$CStringT@GV?$StrTraitATL@GV?$ChTraitsCRT@G@ATL@@@ATL@@@ATL@@QEAAAEAV01@G@Z
  ??4?$CStringT@GV?$StrTraitATL@GV?$ChTraitsCRT@G@ATL@@@ATL@@@ATL@@QEAAAEAV01@PEBD@Z="C:\Windows\System32\uxlib".??4?$CStringT@GV?$StrTraitATL@GV?$ChTraitsCRT@G@ATL@@@ATL@@@ATL@@QEAAAEAV01@PEBD@Z
  ??4?$CStringT@GV?$StrTraitATL@GV?$ChTraitsCRT@G@ATL@@@ATL@@@ATL@@QEAAAEAV01@PEBE@Z="C:\Windows\System32\uxlib".??4?$CStringT@GV?$StrTraitATL@GV?$ChTraitsCRT@G@ATL@@@ATL@@@ATL@@QEAAAEAV01@PEBE@Z
  ??4?$CStringT@GV?$StrTraitATL@GV?$ChTraitsCRT@G@ATL@@@ATL@@@ATL@@QEAAAEAV01@PEBG@Z="C:\Windows\System32\uxlib".??4?$CStringT@GV?$StrTraitATL@GV?$ChTraitsCRT@G@ATL@@@ATL@@@ATL@@QEAAAEAV01@PEBG@Z
  ??4CImageData@@QEAAAEAV0@AEBV0@@Z="C:\Windows\System32\uxlib".??4CImageData@@QEAAAEAV0@AEBV0@@Z
  ??4CInternationalUtils@@QEAAAEAV0@AEBV0@@Z="C:\Windows\System32\uxlib".??4CInternationalUtils@@QEAAAEAV0@AEBV0@@Z
  ??4CKeyboardLayout@@QEAAAEAV0@AEBV0@@Z="C:\Windows\System32\uxlib".??4CKeyboardLayout@@QEAAAEAV0@AEBV0@@Z
  ??4CKeyboardLayouts@@QEAAAEAV0@AEBV0@@Z="C:\Windows\System32\uxlib".??4CKeyboardLayouts@@QEAAAEAV0@AEBV0@@Z
  ??4CLanguage@@QEAAAEAV0@AEBV0@@Z="C:\Windows\System32\uxlib".??4CLanguage@@QEAAAEAV0@AEBV0@@Z
  ??4CLanguages@@QEAAAEAV0@AEBV0@@Z="C:\Windows\System32\uxlib".??4CLanguages@@QEAAAEAV0@AEBV0@@Z
  ??4CLayeredDriver@@QEAAAEAV0@AEBV0@@Z="C:\Windows\System32\uxlib".??4CLayeredDriver@@QEAAAEAV0@AEBV0@@Z
  ??4CLayeredDrivers@@QEAAAEAV0@AEBV0@@Z="C:\Windows\System32\uxlib".??4CLayeredDrivers@@QEAAAEAV0@AEBV0@@Z
  ??4CLoadDriver@@QEAAAEAV0@AEBV0@@Z="C:\Windows\System32\uxlib".??4CLoadDriver@@QEAAAEAV0@AEBV0@@Z
  ??4CLocale@@QEAAAEAV0@AEBV0@@Z="C:\Windows\System32\uxlib".??4CLocale@@QEAAAEAV0@AEBV0@@Z
  ??4CLocales@@QEAAAEAV0@AEBV0@@Z="C:\Windows\System32\uxlib".??4CLocales@@QEAAAEAV0@AEBV0@@Z
  ??4COSK@@QEAAAEAV0@AEBV0@@Z="C:\Windows\System32\uxlib".??4COSK@@QEAAAEAV0@AEBV0@@Z
  ??4CProductKeyModule@@QEAAAEAV0@AEBV0@@Z="C:\Windows\System32\uxlib".??4CProductKeyModule@@QEAAAEAV0@AEBV0@@Z
  ??4IImageData@@QEAAAEAV0@$$QEAV0@@Z="C:\Windows\System32\uxlib".??4IImageData@@QEAAAEAV0@$$QEAV0@@Z
  ??4IImageData@@QEAAAEAV0@AEBV0@@Z="C:\Windows\System32\uxlib".??4IImageData@@QEAAAEAV0@AEBV0@@Z
  ??4IProductKeyModule@@QEAAAEAV0@$$QEAV0@@Z="C:\Windows\System32\uxlib".??4IProductKeyModule@@QEAAAEAV0@$$QEAV0@@Z
  ??4IProductKeyModule@@QEAAAEAV0@AEBV0@@Z="C:\Windows\System32\uxlib".??4IProductKeyModule@@QEAAAEAV0@AEBV0@@Z
  ??4MyUtilString@@QEAAAEAV0@$$QEAV0@@Z="C:\Windows\System32\uxlib".??4MyUtilString@@QEAAAEAV0@$$QEAV0@@Z
  ??4MyUtilString@@QEAAAEAV0@AEBV0@@Z="C:\Windows\System32\uxlib".??4MyUtilString@@QEAAAEAV0@AEBV0@@Z
  ??4PIDUtilStringView@@QEAAAEAV0@AEBV0@@Z="C:\Windows\System32\uxlib".??4PIDUtilStringView@@QEAAAEAV0@AEBV0@@Z
  ??A?$CSimpleArray@PEAU_BLOCKED_REASON@@V?$CSimpleArrayEqualHelper@PEAU_BLOCKED_REASON@@@ATL@@@ATL@@QEAAAEAPEAU_BLOCKED_REASON@@H@Z="C:\Windows\System32\uxlib".??A?$CSimpleArray@PEAU_BLOCKED_REASON@@V?$CSimpleArrayEqualHelper@PEAU_BLOCKED_REASON@@@ATL@@@ATL@@QEAAAEAPEAU_BLOCKED_REASON@@H@Z
  ??A?$CSimpleArray@PEAU_BLOCKED_REASON@@V?$CSimpleArrayEqualHelper@PEAU_BLOCKED_REASON@@@ATL@@@ATL@@QEBAAEBQEAU_BLOCKED_REASON@@H@Z="C:\Windows\System32\uxlib".??A?$CSimpleArray@PEAU_BLOCKED_REASON@@V?$CSimpleArrayEqualHelper@PEAU_BLOCKED_REASON@@@ATL@@@ATL@@QEBAAEBQEAU_BLOCKED_REASON@@H@Z
  ??A?$CSimpleArray@PEAVCLocale@@V?$CSimpleArrayEqualHelper@PEAVCLocale@@@ATL@@@ATL@@QEAAAEAPEAVCLocale@@H@Z="C:\Windows\System32\uxlib".??A?$CSimpleArray@PEAVCLocale@@V?$CSimpleArrayEqualHelper@PEAVCLocale@@@ATL@@@ATL@@QEAAAEAPEAVCLocale@@H@Z
  ??A?$CSimpleArray@PEAVCLocale@@V?$CSimpleArrayEqualHelper@PEAVCLocale@@@ATL@@@ATL@@QEBAAEBQEAVCLocale@@H@Z="C:\Windows\System32\uxlib".??A?$CSimpleArray@PEAVCLocale@@V?$CSimpleArrayEqualHelper@PEAVCLocale@@@ATL@@@ATL@@QEBAAEBQEAVCLocale@@H@Z
  ??A?$CSimpleArray@VCDriverItem@@V?$CSimpleArrayEqualHelper@VCDriverItem@@@ATL@@@ATL@@QEAAAEAVCDriverItem@@H@Z="C:\Windows\System32\uxlib".??A?$CSimpleArray@VCDriverItem@@V?$CSimpleArrayEqualHelper@VCDriverItem@@@ATL@@@ATL@@QEAAAEAVCDriverItem@@H@Z
  ??A?$CSimpleArray@VCDriverItem@@V?$CSimpleArrayEqualHelper@VCDriverItem@@@ATL@@@ATL@@QEBAAEBVCDriverItem@@H@Z="C:\Windows\System32\uxlib".??A?$CSimpleArray@VCDriverItem@@V?$CSimpleArrayEqualHelper@VCDriverItem@@@ATL@@@ATL@@QEBAAEBVCDriverItem@@H@Z
  ??A?$CSimpleArray@VCLanguageItem@@V?$CSimpleArrayEqualHelper@VCLanguageItem@@@ATL@@@ATL@@QEAAAEAVCLanguageItem@@H@Z="C:\Windows\System32\uxlib".??A?$CSimpleArray@VCLanguageItem@@V?$CSimpleArrayEqualHelper@VCLanguageItem@@@ATL@@@ATL@@QEAAAEAVCLanguageItem@@H@Z
  ??A?$CSimpleArray@VCLanguageItem@@V?$CSimpleArrayEqualHelper@VCLanguageItem@@@ATL@@@ATL@@QEBAAEBVCLanguageItem@@H@Z="C:\Windows\System32\uxlib".??A?$CSimpleArray@VCLanguageItem@@V?$CSimpleArrayEqualHelper@VCLanguageItem@@@ATL@@@ATL@@QEBAAEBVCLanguageItem@@H@Z
  ??A?$CSimpleStringT@G$0A@@ATL@@QEBAGH@Z="C:\Windows\System32\uxlib".??A?$CSimpleStringT@G$0A@@ATL@@QEBAGH@Z
  ??ACImageData@@UEAAAEAVCLanguageItem@@I@Z="C:\Windows\System32\uxlib".??ACImageData@@UEAAAEAVCLanguageItem@@I@Z
  ??ACKeyboardLayouts@@UEAA?AVCKeyboardLayout@@H@Z="C:\Windows\System32\uxlib".??ACKeyboardLayouts@@UEAA?AVCKeyboardLayout@@H@Z
  ??ACLanguages@@UEAA?AVCLanguage@@H@Z="C:\Windows\System32\uxlib".??ACLanguages@@UEAA?AVCLanguage@@H@Z
  ??ACLayeredDrivers@@UEAA?AVCLayeredDriver@@H@Z="C:\Windows\System32\uxlib".??ACLayeredDrivers@@UEAA?AVCLayeredDriver@@H@Z
  ??ACLoadDriver@@UEAAAEAVCDriverItem@@I@Z="C:\Windows\System32\uxlib".??ACLoadDriver@@UEAAAEAVCDriverItem@@I@Z
  ??ACLocales@@UEAA?AVCLocale@@H@Z="C:\Windows\System32\uxlib".??ACLocales@@UEAA?AVCLocale@@H@Z
  ??B?$CSimpleStringT@G$0A@@ATL@@QEAAAEAV?$CSimpleStringT@G$00@1@XZ="C:\Windows\System32\uxlib".??B?$CSimpleStringT@G$0A@@ATL@@QEAAAEAV?$CSimpleStringT@G$00@1@XZ
  ??B?$CSimpleStringT@G$0A@@ATL@@QEBAPEBGXZ="C:\Windows\System32\uxlib".??B?$CSimpleStringT@G$0A@@ATL@@QEBAPEBGXZ
  ??B?$CStringT@GV?$StrTraitATL@GV?$ChTraitsCRT@G@ATL@@@ATL@@@ATL@@QEAAAEAV?$CSimpleStringT@G$00@1@XZ="C:\Windows\System32\uxlib".??B?$CStringT@GV?$StrTraitATL@GV?$ChTraitsCRT@G@ATL@@@ATL@@@ATL@@QEAAAEAV?$CSimpleStringT@G$00@1@XZ
  ??Y?$CSimpleStringT@G$0A@@ATL@@QEAAAEAV01@AEBV01@@Z="C:\Windows\System32\uxlib".??Y?$CSimpleStringT@G$0A@@ATL@@QEAAAEAV01@AEBV01@@Z
  ??Y?$CSimpleStringT@G$0A@@ATL@@QEAAAEAV01@D@Z="C:\Windows\System32\uxlib".??Y?$CSimpleStringT@G$0A@@ATL@@QEAAAEAV01@D@Z
  ??Y?$CSimpleStringT@G$0A@@ATL@@QEAAAEAV01@E@Z="C:\Windows\System32\uxlib".??Y?$CSimpleStringT@G$0A@@ATL@@QEAAAEAV01@E@Z
  ??Y?$CSimpleStringT@G$0A@@ATL@@QEAAAEAV01@G@Z="C:\Windows\System32\uxlib".??Y?$CSimpleStringT@G$0A@@ATL@@QEAAAEAV01@G@Z
  ??Y?$CSimpleStringT@G$0A@@ATL@@QEAAAEAV01@PEBG@Z="C:\Windows\System32\uxlib".??Y?$CSimpleStringT@G$0A@@ATL@@QEAAAEAV01@PEBG@Z
  ??Y?$CStringT@GV?$StrTraitATL@GV?$ChTraitsCRT@G@ATL@@@ATL@@@ATL@@QEAAAEAV01@AEBUtagVARIANT@@@Z="C:\Windows\System32\uxlib".??Y?$CStringT@GV?$StrTraitATL@GV?$ChTraitsCRT@G@ATL@@@ATL@@@ATL@@QEAAAEAV01@AEBUtagVARIANT@@@Z
  ??Y?$CStringT@GV?$StrTraitATL@GV?$ChTraitsCRT@G@ATL@@@ATL@@@ATL@@QEAAAEAV01@AEBV?$CSimpleStringT@G$0A@@1@@Z="C:\Windows\System32\uxlib".??Y?$CStringT@GV?$StrTraitATL@GV?$ChTraitsCRT@G@ATL@@@ATL@@@ATL@@QEAAAEAV01@AEBV?$CSimpleStringT@G$0A@@1@@Z
  ??Y?$CStringT@GV?$StrTraitATL@GV?$ChTraitsCRT@G@ATL@@@ATL@@@ATL@@QEAAAEAV01@D@Z="C:\Windows\System32\uxlib".??Y?$CStringT@GV?$StrTraitATL@GV?$ChTraitsCRT@G@ATL@@@ATL@@@ATL@@QEAAAEAV01@D@Z
  ??Y?$CStringT@GV?$StrTraitATL@GV?$ChTraitsCRT@G@ATL@@@ATL@@@ATL@@QEAAAEAV01@E@Z="C:\Windows\System32\uxlib".??Y?$CStringT@GV?$StrTraitATL@GV?$ChTraitsCRT@G@ATL@@@ATL@@@ATL@@QEAAAEAV01@E@Z
  ??Y?$CStringT@GV?$StrTraitATL@GV?$ChTraitsCRT@G@ATL@@@ATL@@@ATL@@QEAAAEAV01@G@Z="C:\Windows\System32\uxlib".??Y?$CStringT@GV?$StrTraitATL@GV?$ChTraitsCRT@G@ATL@@@ATL@@@ATL@@QEAAAEAV01@G@Z
  ??Y?$CStringT@GV?$StrTraitATL@GV?$ChTraitsCRT@G@ATL@@@ATL@@@ATL@@QEAAAEAV01@PEBD@Z="C:\Windows\System32\uxlib".??Y?$CStringT@GV?$StrTraitATL@GV?$ChTraitsCRT@G@ATL@@@ATL@@@ATL@@QEAAAEAV01@PEBD@Z
  ??Y?$CStringT@GV?$StrTraitATL@GV?$ChTraitsCRT@G@ATL@@@ATL@@@ATL@@QEAAAEAV01@PEBG@Z="C:\Windows\System32\uxlib".??Y?$CStringT@GV?$StrTraitATL@GV?$ChTraitsCRT@G@ATL@@@ATL@@@ATL@@QEAAAEAV01@PEBG@Z
  ??_7CImageData@@6B@="C:\Windows\System32\uxlib".??_7CImageData@@6B@
  ??_7CKeyboardLayouts@@6B@="C:\Windows\System32\uxlib".??_7CKeyboardLayouts@@6B@
  ??_7CLanguages@@6B@="C:\Windows\System32\uxlib".??_7CLanguages@@6B@
  ??_7CLayeredDrivers@@6B@="C:\Windows\System32\uxlib".??_7CLayeredDrivers@@6B@
  ??_7CLoadDriver@@6B@="C:\Windows\System32\uxlib".??_7CLoadDriver@@6B@
  ??_7CLocales@@6B@="C:\Windows\System32\uxlib".??_7CLocales@@6B@
  ??_7CProductKeyModule@@6B@="C:\Windows\System32\uxlib".??_7CProductKeyModule@@6B@
  ??_7IImageData@@6B@="C:\Windows\System32\uxlib".??_7IImageData@@6B@
  ??_7IProductKeyModule@@6B@="C:\Windows\System32\uxlib".??_7IProductKeyModule@@6B@
  ??_7PIDUtilStringView@@6B@="C:\Windows\System32\uxlib".??_7PIDUtilStringView@@6B@
  ?Add@?$CSimpleArray@PEAU_BLOCKED_REASON@@V?$CSimpleArrayEqualHelper@PEAU_BLOCKED_REASON@@@ATL@@@ATL@@QEAAHAEBQEAU_BLOCKED_REASON@@@Z="C:\Windows\System32\uxlib".?Add@?$CSimpleArray@PEAU_BLOCKED_REASON@@V?$CSimpleArrayEqualHelper@PEAU_BLOCKED_REASON@@@ATL@@@ATL@@QEAAHAEBQEAU_BLOCKED_REASON@@@Z
  ?Add@?$CSimpleArray@PEAVCLocale@@V?$CSimpleArrayEqualHelper@PEAVCLocale@@@ATL@@@ATL@@QEAAHAEBQEAVCLocale@@@Z="C:\Windows\System32\uxlib".?Add@?$CSimpleArray@PEAVCLocale@@V?$CSimpleArrayEqualHelper@PEAVCLocale@@@ATL@@@ATL@@QEAAHAEBQEAVCLocale@@@Z
  ?Add@?$CSimpleArray@VCDriverItem@@V?$CSimpleArrayEqualHelper@VCDriverItem@@@ATL@@@ATL@@QEAAHAEBVCDriverItem@@@Z="C:\Windows\System32\uxlib".?Add@?$CSimpleArray@VCDriverItem@@V?$CSimpleArrayEqualHelper@VCDriverItem@@@ATL@@@ATL@@QEAAHAEBVCDriverItem@@@Z
  ?Add@?$CSimpleArray@VCLanguageItem@@V?$CSimpleArrayEqualHelper@VCLanguageItem@@@ATL@@@ATL@@QEAAHAEBVCLanguageItem@@@Z="C:\Windows\System32\uxlib".?Add@?$CSimpleArray@VCLanguageItem@@V?$CSimpleArrayEqualHelper@VCLanguageItem@@@ATL@@@ATL@@QEAAHAEBVCLanguageItem@@@Z
  ?AllocSysString@?$CStringT@GV?$StrTraitATL@GV?$ChTraitsCRT@G@ATL@@@ATL@@@ATL@@QEBAPEAGXZ="C:\Windows\System32\uxlib".?AllocSysString@?$CStringT@GV?$StrTraitATL@GV?$ChTraitsCRT@G@ATL@@@ATL@@@ATL@@QEBAPEAGXZ
  ?Append@?$CSimpleStringT@G$0A@@ATL@@QEAAXAEBV12@@Z="C:\Windows\System32\uxlib".?Append@?$CSimpleStringT@G$0A@@ATL@@QEAAXAEBV12@@Z
  ?Append@?$CSimpleStringT@G$0A@@ATL@@QEAAXPEBG@Z="C:\Windows\System32\uxlib".?Append@?$CSimpleStringT@G$0A@@ATL@@QEAAXPEBG@Z
  ?Append@?$CSimpleStringT@G$0A@@ATL@@QEAAXPEBGH@Z="C:\Windows\System32\uxlib".?Append@?$CSimpleStringT@G$0A@@ATL@@QEAAXPEBGH@Z
  ?AppendChar@?$CSimpleStringT@G$0A@@ATL@@QEAAXG@Z="C:\Windows\System32\uxlib".?AppendChar@?$CSimpleStringT@G$0A@@ATL@@QEAAXG@Z
  ?AppendFormat@?$CStringT@GV?$StrTraitATL@GV?$ChTraitsCRT@G@ATL@@@ATL@@@ATL@@QEAAXIZZ="C:\Windows\System32\uxlib".?AppendFormat@?$CStringT@GV?$StrTraitATL@GV?$ChTraitsCRT@G@ATL@@@ATL@@@ATL@@QEAAXIZZ
  ?AppendFormat@?$CStringT@GV?$StrTraitATL@GV?$ChTraitsCRT@G@ATL@@@ATL@@@ATL@@QEAAXPEBGZZ="C:\Windows\System32\uxlib".?AppendFormat@?$CStringT@GV?$StrTraitATL@GV?$ChTraitsCRT@G@ATL@@@ATL@@@ATL@@QEAAXPEBGZZ
  ?AppendFormatV@?$CStringT@GV?$StrTraitATL@GV?$ChTraitsCRT@G@ATL@@@ATL@@@ATL@@QEAAXPEBGPEAD@Z="C:\Windows\System32\uxlib".?AppendFormatV@?$CStringT@GV?$StrTraitATL@GV?$ChTraitsCRT@G@ATL@@@ATL@@@ATL@@QEAAXPEBGPEAD@Z
  ?Attach@?$CSimpleStringT@G$0A@@ATL@@AEAAXPEAUCStringData@2@@Z="C:\Windows\System32\uxlib".?Attach@?$CSimpleStringT@G$0A@@ATL@@AEAAXPEAUCStringData@2@@Z
  ?CanReadMedia@CLoadDriver@@UEAAHXZ="C:\Windows\System32\uxlib".?CanReadMedia@CLoadDriver@@UEAAHXZ
  ?CharToOemA@?$CStringT@GV?$StrTraitATL@GV?$ChTraitsCRT@G@ATL@@@ATL@@@ATL@@QEAAXXZ="C:\Windows\System32\uxlib".?CharToOemA@?$CStringT@GV?$StrTraitATL@GV?$ChTraitsCRT@G@ATL@@@ATL@@@ATL@@QEAAXXZ
  ?CheckImplicitLoad@?$CStringT@GV?$StrTraitATL@GV?$ChTraitsCRT@G@ATL@@@ATL@@@ATL@@AEAA_NPEBX@Z="C:\Windows\System32\uxlib".?CheckImplicitLoad@?$CStringT@GV?$StrTraitATL@GV?$ChTraitsCRT@G@ATL@@@ATL@@@ATL@@AEAA_NPEBX@Z
  ?ClearDriverList@CLoadDriver@@UEAAXXZ="C:\Windows\System32\uxlib".?ClearDriverList@CLoadDriver@@UEAAXXZ
  ?ClearString@MyUtilString@@QEAAXXZ="C:\Windows\System32\uxlib".?ClearString@MyUtilString@@QEAAXXZ
  ?ClearString@PIDUtilStringView@@QEAAXXZ="C:\Windows\System32\uxlib".?ClearString@PIDUtilStringView@@QEAAXXZ
  ?CloneData@?$CSimpleStringT@G$0A@@ATL@@CAPEAUCStringData@2@PEAU32@@Z="C:\Windows\System32\uxlib".?CloneData@?$CSimpleStringT@G$0A@@ATL@@CAPEAUCStringData@2@PEAU32@@Z
  ?CloseOSK@COSK@@QEAAHPEAX@Z="C:\Windows\System32\uxlib".?CloseOSK@COSK@@QEAAHPEAX@Z
  ?Collate@?$CStringT@GV?$StrTraitATL@GV?$ChTraitsCRT@G@ATL@@@ATL@@@ATL@@QEBAHPEBG@Z="C:\Windows\System32\uxlib".?Collate@?$CStringT@GV?$StrTraitATL@GV?$ChTraitsCRT@G@ATL@@@ATL@@@ATL@@QEBAHPEBG@Z
  ?CollateNoCase@?$CStringT@GV?$StrTraitATL@GV?$ChTraitsCRT@G@ATL@@@ATL@@@ATL@@QEBAHPEBG@Z="C:\Windows\System32\uxlib".?CollateNoCase@?$CStringT@GV?$StrTraitATL@GV?$ChTraitsCRT@G@ATL@@@ATL@@@ATL@@QEBAHPEBG@Z
  ?Compare@?$CStringT@GV?$StrTraitATL@GV?$ChTraitsCRT@G@ATL@@@ATL@@@ATL@@QEBAHPEBG@Z="C:\Windows\System32\uxlib".?Compare@?$CStringT@GV?$StrTraitATL@GV?$ChTraitsCRT@G@ATL@@@ATL@@@ATL@@QEBAHPEBG@Z
  ?CompareNoCase@?$CStringT@GV?$StrTraitATL@GV?$ChTraitsCRT@G@ATL@@@ATL@@@ATL@@QEBAHPEBG@Z="C:\Windows\System32\uxlib".?CompareNoCase@?$CStringT@GV?$StrTraitATL@GV?$ChTraitsCRT@G@ATL@@@ATL@@@ATL@@QEBAHPEBG@Z
  ?Concatenate@?$CSimpleStringT@G$0A@@ATL@@KAXAEAV12@PEBGH1H@Z="C:\Windows\System32\uxlib".?Concatenate@?$CSimpleStringT@G$0A@@ATL@@KAXAEAV12@PEBGH1H@Z
  ?Construct@?$CStringT@GV?$StrTraitATL@GV?$ChTraitsCRT@G@ATL@@@ATL@@@ATL@@SAXPEAV12@@Z="C:\Windows\System32\uxlib".?Construct@?$CStringT@GV?$StrTraitATL@GV?$ChTraitsCRT@G@ATL@@@ATL@@@ATL@@SAXPEAV12@@Z
  ?CopyChars@?$CSimpleStringT@G$0A@@ATL@@SAXPEAGPEBGH@Z="C:\Windows\System32\uxlib".?CopyChars@?$CSimpleStringT@G$0A@@ATL@@SAXPEAGPEBGH@Z
  ?CopyChars@?$CSimpleStringT@G$0A@@ATL@@SAXPEAG_KPEBGH@Z="C:\Windows\System32\uxlib".?CopyChars@?$CSimpleStringT@G$0A@@ATL@@SAXPEAG_KPEBGH@Z
  ?CopyCharsOverlapped@?$CSimpleStringT@G$0A@@ATL@@SAXPEAGPEBGH@Z="C:\Windows\System32\uxlib".?CopyCharsOverlapped@?$CSimpleStringT@G$0A@@ATL@@SAXPEAGPEBGH@Z
  ?CopyCharsOverlapped@?$CSimpleStringT@G$0A@@ATL@@SAXPEAG_KPEBGH@Z="C:\Windows\System32\uxlib".?CopyCharsOverlapped@?$CSimpleStringT@G$0A@@ATL@@SAXPEAG_KPEBGH@Z
  ?Delete@?$CStringT@GV?$StrTraitATL@GV?$ChTraitsCRT@G@ATL@@@ATL@@@ATL@@QEAAHHH@Z="C:\Windows\System32\uxlib".?Delete@?$CStringT@GV?$StrTraitATL@GV?$ChTraitsCRT@G@ATL@@@ATL@@@ATL@@QEAAHHH@Z
  ?Empty@?$CSimpleStringT@G$0A@@ATL@@QEAAXXZ="C:\Windows\System32\uxlib".?Empty@?$CSimpleStringT@G$0A@@ATL@@QEAAXXZ
  ?Find@?$CSimpleArray@PEAU_BLOCKED_REASON@@V?$CSimpleArrayEqualHelper@PEAU_BLOCKED_REASON@@@ATL@@@ATL@@QEBAHAEBQEAU_BLOCKED_REASON@@@Z="C:\Windows\System32\uxlib".?Find@?$CSimpleArray@PEAU_BLOCKED_REASON@@V?$CSimpleArrayEqualHelper@PEAU_BLOCKED_REASON@@@ATL@@@ATL@@QEBAHAEBQEAU_BLOCKED_REASON@@@Z
  ?Find@?$CSimpleArray@PEAVCLocale@@V?$CSimpleArrayEqualHelper@PEAVCLocale@@@ATL@@@ATL@@QEBAHAEBQEAVCLocale@@@Z="C:\Windows\System32\uxlib".?Find@?$CSimpleArray@PEAVCLocale@@V?$CSimpleArrayEqualHelper@PEAVCLocale@@@ATL@@@ATL@@QEBAHAEBQEAVCLocale@@@Z
  ?Find@?$CSimpleArray@VCDriverItem@@V?$CSimpleArrayEqualHelper@VCDriverItem@@@ATL@@@ATL@@QEBAHAEBVCDriverItem@@@Z="C:\Windows\System32\uxlib".?Find@?$CSimpleArray@VCDriverItem@@V?$CSimpleArrayEqualHelper@VCDriverItem@@@ATL@@@ATL@@QEBAHAEBVCDriverItem@@@Z
  ?Find@?$CSimpleArray@VCLanguageItem@@V?$CSimpleArrayEqualHelper@VCLanguageItem@@@ATL@@@ATL@@QEBAHAEBVCLanguageItem@@@Z="C:\Windows\System32\uxlib".?Find@?$CSimpleArray@VCLanguageItem@@V?$CSimpleArrayEqualHelper@VCLanguageItem@@@ATL@@@ATL@@QEBAHAEBVCLanguageItem@@@Z
  ?Find@?$CStringT@GV?$StrTraitATL@GV?$ChTraitsCRT@G@ATL@@@ATL@@@ATL@@QEBAHGH@Z="C:\Windows\System32\uxlib".?Find@?$CStringT@GV?$StrTraitATL@GV?$ChTraitsCRT@G@ATL@@@ATL@@@ATL@@QEBAHGH@Z
  ?Find@?$CStringT@GV?$StrTraitATL@GV?$ChTraitsCRT@G@ATL@@@ATL@@@ATL@@QEBAHPEBGH@Z="C:\Windows\System32\uxlib".?Find@?$CStringT@GV?$StrTraitATL@GV?$ChTraitsCRT@G@ATL@@@ATL@@@ATL@@QEBAHPEBGH@Z
  ?FindOneOf@?$CStringT@GV?$StrTraitATL@GV?$ChTraitsCRT@G@ATL@@@ATL@@@ATL@@QEBAHPEBG@Z="C:\Windows\System32\uxlib".?FindOneOf@?$CStringT@GV?$StrTraitATL@GV?$ChTraitsCRT@G@ATL@@@ATL@@@ATL@@QEBAHPEBG@Z
  ?Fork@?$CSimpleStringT@G$0A@@ATL@@AEAAXH@Z="C:\Windows\System32\uxlib".?Fork@?$CSimpleStringT@G$0A@@ATL@@AEAAXH@Z
  ?Format@?$CStringT@GV?$StrTraitATL@GV?$ChTraitsCRT@G@ATL@@@ATL@@@ATL@@QEAAXIZZ="C:\Windows\System32\uxlib".?Format@?$CStringT@GV?$StrTraitATL@GV?$ChTraitsCRT@G@ATL@@@ATL@@@ATL@@QEAAXIZZ
  ?Format@?$CStringT@GV?$StrTraitATL@GV?$ChTraitsCRT@G@ATL@@@ATL@@@ATL@@QEAAXPEBGZZ="C:\Windows\System32\uxlib".?Format@?$CStringT@GV?$StrTraitATL@GV?$ChTraitsCRT@G@ATL@@@ATL@@@ATL@@QEAAXPEBGZZ
  ?FormatMessageV@?$CStringT@GV?$StrTraitATL@GV?$ChTraitsCRT@G@ATL@@@ATL@@@ATL@@QEAAXPEBGPEAPEAD@Z="C:\Windows\System32\uxlib".?FormatMessageV@?$CStringT@GV?$StrTraitATL@GV?$ChTraitsCRT@G@ATL@@@ATL@@@ATL@@QEAAXPEBGPEAPEAD@Z
  ?FormatMessageW@?$CStringT@GV?$StrTraitATL@GV?$ChTraitsCRT@G@ATL@@@ATL@@@ATL@@QEAAXIZZ="C:\Windows\System32\uxlib".?FormatMessageW@?$CStringT@GV?$StrTraitATL@GV?$ChTraitsCRT@G@ATL@@@ATL@@@ATL@@QEAAXIZZ
  ?FormatMessageW@?$CStringT@GV?$StrTraitATL@GV?$ChTraitsCRT@G@ATL@@@ATL@@@ATL@@QEAAXPEBGZZ="C:\Windows\System32\uxlib".?FormatMessageW@?$CStringT@GV?$StrTraitATL@GV?$ChTraitsCRT@G@ATL@@@ATL@@@ATL@@QEAAXPEBGZZ
  ?FormatV@?$CStringT@GV?$StrTraitATL@GV?$ChTraitsCRT@G@ATL@@@ATL@@@ATL@@QEAAXPEBGPEAD@Z="C:\Windows\System32\uxlib".?FormatV@?$CStringT@GV?$StrTraitATL@GV?$ChTraitsCRT@G@ATL@@@ATL@@@ATL@@QEAAXPEBGPEAD@Z
  ?FreeExtra@?$CSimpleStringT@G$0A@@ATL@@QEAAXXZ="C:\Windows\System32\uxlib".?FreeExtra@?$CSimpleStringT@G$0A@@ATL@@QEAAXXZ
  ?FreeInstance@CImageData@@UEAAXXZ="C:\Windows\System32\uxlib".?FreeInstance@CImageData@@UEAAXXZ
  ?GetAbbrevName@CLanguage@@QEAA?AV?$CStringT@GV?$StrTraitATL@GV?$ChTraitsCRT@G@ATL@@@ATL@@@ATL@@XZ="C:\Windows\System32\uxlib".?GetAbbrevName@CLanguage@@QEAA?AV?$CStringT@GV?$StrTraitATL@GV?$ChTraitsCRT@G@ATL@@@ATL@@@ATL@@XZ
  ?GetAbbrevName@CLocale@@QEAA?AV?$CStringT@GV?$StrTraitATL@GV?$ChTraitsCRT@G@ATL@@@ATL@@@ATL@@XZ="C:\Windows\System32\uxlib".?GetAbbrevName@CLocale@@QEAA?AV?$CStringT@GV?$StrTraitATL@GV?$ChTraitsCRT@G@ATL@@@ATL@@@ATL@@XZ
  ?GetAllocLength@?$CSimpleStringT@G$0A@@ATL@@QEBAHXZ="C:\Windows\System32\uxlib".?GetAllocLength@?$CSimpleStringT@G$0A@@ATL@@QEBAHXZ
  ?GetAt@?$CSimpleStringT@G$0A@@ATL@@QEBAGH@Z="C:\Windows\System32\uxlib".?GetAt@?$CSimpleStringT@G$0A@@ATL@@QEBAGH@Z
  ?GetBuffer@?$CSimpleStringT@G$0A@@ATL@@QEAAPEAGH@Z="C:\Windows\System32\uxlib".?GetBuffer@?$CSimpleStringT@G$0A@@ATL@@QEAAPEAGH@Z
  ?GetBuffer@?$CSimpleStringT@G$0A@@ATL@@QEAAPEAGXZ="C:\Windows\System32\uxlib".?GetBuffer@?$CSimpleStringT@G$0A@@ATL@@QEAAPEAGXZ
  ?GetBufferSetLength@?$CSimpleStringT@G$0A@@ATL@@QEAAPEAGH@Z="C:\Windows\System32\uxlib".?GetBufferSetLength@?$CSimpleStringT@G$0A@@ATL@@QEAAPEAGH@Z
  ?GetColumnDataAtIndex@CImageData@@UEAAPEAGI@Z="C:\Windows\System32\uxlib".?GetColumnDataAtIndex@CImageData@@UEAAPEAGI@Z
  ?GetCount@CImageData@@UEAAIXZ="C:\Windows\System32\uxlib".?GetCount@CImageData@@UEAAIXZ
  ?GetCount@CLoadDriver@@UEAAIXZ="C:\Windows\System32\uxlib".?GetCount@CLoadDriver@@UEAAIXZ
  ?GetData@?$CSimpleArray@PEAU_BLOCKED_REASON@@V?$CSimpleArrayEqualHelper@PEAU_BLOCKED_REASON@@@ATL@@@ATL@@QEBAPEAPEAU_BLOCKED_REASON@@XZ="C:\Windows\System32\uxlib".?GetData@?$CSimpleArray@PEAU_BLOCKED_REASON@@V?$CSimpleArrayEqualHelper@PEAU_BLOCKED_REASON@@@ATL@@@ATL@@QEBAPEAPEAU_BLOCKED_REASON@@XZ
  ?GetData@?$CSimpleArray@PEAVCLocale@@V?$CSimpleArrayEqualHelper@PEAVCLocale@@@ATL@@@ATL@@QEBAPEAPEAVCLocale@@XZ="C:\Windows\System32\uxlib".?GetData@?$CSimpleArray@PEAVCLocale@@V?$CSimpleArrayEqualHelper@PEAVCLocale@@@ATL@@@ATL@@QEBAPEAPEAVCLocale@@XZ
  ?GetData@?$CSimpleArray@VCDriverItem@@V?$CSimpleArrayEqualHelper@VCDriverItem@@@ATL@@@ATL@@QEBAPEAVCDriverItem@@XZ="C:\Windows\System32\uxlib".?GetData@?$CSimpleArray@VCDriverItem@@V?$CSimpleArrayEqualHelper@VCDriverItem@@@ATL@@@ATL@@QEBAPEAVCDriverItem@@XZ
  ?GetData@?$CSimpleArray@VCLanguageItem@@V?$CSimpleArrayEqualHelper@VCLanguageItem@@@ATL@@@ATL@@QEBAPEAVCLanguageItem@@XZ="C:\Windows\System32\uxlib".?GetData@?$CSimpleArray@VCLanguageItem@@V?$CSimpleArrayEqualHelper@VCLanguageItem@@@ATL@@@ATL@@QEBAPEAVCLanguageItem@@XZ
  ?GetData@?$CSimpleStringT@G$0A@@ATL@@AEBAPEAUCStringData@2@XZ="C:\Windows\System32\uxlib".?GetData@?$CSimpleStringT@G$0A@@ATL@@AEBAPEAUCStringData@2@XZ
  ?GetDefault@CLoadDriver@@UEAAHXZ="C:\Windows\System32\uxlib".?GetDefault@CLoadDriver@@UEAAHXZ
  ?GetDefaultFallbackLanguage@CLanguages@@UEAA?AVCLanguage@@XZ="C:\Windows\System32\uxlib".?GetDefaultFallbackLanguage@CLanguages@@UEAA?AVCLanguage@@XZ
  ?GetDefaultLanguage@CImageData@@UEAAPEAGXZ="C:\Windows\System32\uxlib".?GetDefaultLanguage@CImageData@@UEAAPEAGXZ
  ?GetDefaultLayout@CKeyboardLayouts@@QEAA?AVCKeyboardLayout@@XZ="C:\Windows\System32\uxlib".?GetDefaultLayout@CKeyboardLayouts@@QEAA?AVCKeyboardLayout@@XZ
  ?GetDescription@CImageData@@UEAAPEAGXZ="C:\Windows\System32\uxlib".?GetDescription@CImageData@@UEAAPEAGXZ
  ?GetDriverListAsync@CLoadDriver@@UEAAHV?$CStringT@GV?$StrTraitATL@GV?$ChTraitsCRT@G@ATL@@@ATL@@@ATL@@HP6AXPEAXH@Z1@Z="C:\Windows\System32\uxlib".?GetDriverListAsync@CLoadDriver@@UEAAHV?$CStringT@GV?$StrTraitATL@GV?$ChTraitsCRT@G@ATL@@@ATL@@@ATL@@HP6AXPEAXH@Z1@Z
  ?GetEditionName@CImageData@@UEAAPEAGXZ="C:\Windows\System32\uxlib".?GetEditionName@CImageData@@UEAAPEAGXZ
  ?GetEnvironmentVariableW@?$CStringT@GV?$StrTraitATL@GV?$ChTraitsCRT@G@ATL@@@ATL@@@ATL@@QEAAHPEBG@Z="C:\Windows\System32\uxlib".?GetEnvironmentVariableW@?$CStringT@GV?$StrTraitATL@GV?$ChTraitsCRT@G@ATL@@@ATL@@@ATL@@QEAAHPEBG@Z
  ?GetFoundationFlag@CImageData@@UEAAHXZ="C:\Windows\System32\uxlib".?GetFoundationFlag@CImageData@@UEAAHXZ
  ?GetHardwareFilter@CLoadDriver@@UEAAHXZ="C:\Windows\System32\uxlib".?GetHardwareFilter@CLoadDriver@@UEAAHXZ
  ?GetID@CLayeredDriver@@QEAA?AV?$CStringT@GV?$StrTraitATL@GV?$ChTraitsCRT@G@ATL@@@ATL@@@ATL@@XZ="C:\Windows\System32\uxlib".?GetID@CLayeredDriver@@QEAA?AV?$CStringT@GV?$StrTraitATL@GV?$ChTraitsCRT@G@ATL@@@ATL@@@ATL@@XZ
  ?GetImageIdentifier@CImageData@@UEAAPEAGXZ="C:\Windows\System32\uxlib".?GetImageIdentifier@CImageData@@UEAAPEAGXZ
  ?GetInstance@CImageData@@SAPEAVIImageData@@XZ="C:\Windows\System32\uxlib".?GetInstance@CImageData@@SAPEAVIImageData@@XZ
  ?GetInstance@CLoadDriver@@SAPEAVILoadDriver@@XZ="C:\Windows\System32\uxlib".?GetInstance@CLoadDriver@@SAPEAVILoadDriver@@XZ
  ?GetKeyboard@CInternationalUtils@@SA?AV?$CStringT@GV?$StrTraitATL@GV?$ChTraitsCRT@G@ATL@@@ATL@@@ATL@@XZ="C:\Windows\System32\uxlib".?GetKeyboard@CInternationalUtils@@SA?AV?$CStringT@GV?$StrTraitATL@GV?$ChTraitsCRT@G@ATL@@@ATL@@@ATL@@XZ
  ?GetLanguage@CInternationalUtils@@SA?AV?$CStringT@GV?$StrTraitATL@GV?$ChTraitsCRT@G@ATL@@@ATL@@@ATL@@XZ="C:\Windows\System32\uxlib".?GetLanguage@CInternationalUtils@@SA?AV?$CStringT@GV?$StrTraitATL@GV?$ChTraitsCRT@G@ATL@@@ATL@@@ATL@@XZ
  ?GetLanguage@CLanguages@@UEAA?AVCLanguage@@H@Z="C:\Windows\System32\uxlib".?GetLanguage@CLanguages@@UEAA?AVCLanguage@@H@Z
  ?GetLanguageCount@CLanguages@@UEAAHXZ="C:\Windows\System32\uxlib".?GetLanguageCount@CLanguages@@UEAAHXZ
  ?GetLanguageFromLocalizedName@CLanguages@@UEAA?AVCLanguage@@V?$CStringT@GV?$StrTraitATL@GV?$ChTraitsCRT@G@ATL@@@ATL@@@ATL@@@Z="C:\Windows\System32\uxlib".?GetLanguageFromLocalizedName@CLanguages@@UEAA?AVCLanguage@@V?$CStringT@GV?$StrTraitATL@GV?$ChTraitsCRT@G@ATL@@@ATL@@@ATL@@@Z
  ?GetLanguageFromNativeDisplayName@CLanguages@@UEAA?AVCLanguage@@V?$CStringT@GV?$StrTraitATL@GV?$ChTraitsCRT@G@ATL@@@ATL@@@ATL@@@Z="C:\Windows\System32\uxlib".?GetLanguageFromNativeDisplayName@CLanguages@@UEAA?AVCLanguage@@V?$CStringT@GV?$StrTraitATL@GV?$ChTraitsCRT@G@ATL@@@ATL@@@ATL@@@Z
  ?GetLanguageFromNativeName@CLanguages@@UEAA?AVCLanguage@@V?$CStringT@GV?$StrTraitATL@GV?$ChTraitsCRT@G@ATL@@@ATL@@@ATL@@@Z="C:\Windows\System32\uxlib".?GetLanguageFromNativeName@CLanguages@@UEAA?AVCLanguage@@V?$CStringT@GV?$StrTraitATL@GV?$ChTraitsCRT@G@ATL@@@ATL@@@ATL@@@Z
  ?GetLanguageNativeDisplayNameCount@CLanguages@@QEAAHXZ="C:\Windows\System32\uxlib".?GetLanguageNativeDisplayNameCount@CLanguages@@QEAAHXZ
  ?GetLayeredDriver@CLayeredDrivers@@UEAA?AVCLayeredDriver@@H@Z="C:\Windows\System32\uxlib".?GetLayeredDriver@CLayeredDrivers@@UEAA?AVCLayeredDriver@@H@Z
  ?GetLayeredDriver@CLayeredDrivers@@UEAA?AVCLayeredDriver@@V?$CStringT@GV?$StrTraitATL@GV?$ChTraitsCRT@G@ATL@@@ATL@@@ATL@@@Z="C:\Windows\System32\uxlib".?GetLayeredDriver@CLayeredDrivers@@UEAA?AVCLayeredDriver@@V?$CStringT@GV?$StrTraitATL@GV?$ChTraitsCRT@G@ATL@@@ATL@@@ATL@@@Z
  ?GetLayeredDriverCount@CLayeredDrivers@@UEAAHXZ="C:\Windows\System32\uxlib".?GetLayeredDriverCount@CLayeredDrivers@@UEAAHXZ
  ?GetLayout@CKeyboardLayouts@@UEAA?AVCKeyboardLayout@@H@Z="C:\Windows\System32\uxlib".?GetLayout@CKeyboardLayouts@@UEAA?AVCKeyboardLayout@@H@Z
  ?GetLayout@CKeyboardLayouts@@UEAA?AVCKeyboardLayout@@V?$CStringT@GV?$StrTraitATL@GV?$ChTraitsCRT@G@ATL@@@ATL@@@ATL@@@Z="C:\Windows\System32\uxlib".?GetLayout@CKeyboardLayouts@@UEAA?AVCKeyboardLayout@@V?$CStringT@GV?$StrTraitATL@GV?$ChTraitsCRT@G@ATL@@@ATL@@@ATL@@@Z
  ?GetLayoutCount@CKeyboardLayouts@@UEAAHXZ="C:\Windows\System32\uxlib".?GetLayoutCount@CKeyboardLayouts@@UEAAHXZ
  ?GetLayoutID@CKeyboardLayout@@QEAA?AV?$CStringT@GV?$StrTraitATL@GV?$ChTraitsCRT@G@ATL@@@ATL@@@ATL@@XZ="C:\Windows\System32\uxlib".?GetLayoutID@CKeyboardLayout@@QEAA?AV?$CStringT@GV?$StrTraitATL@GV?$ChTraitsCRT@G@ATL@@@ATL@@@ATL@@XZ
  ?GetLayoutName@CKeyboardLayout@@QEAA?AV?$CStringT@GV?$StrTraitATL@GV?$ChTraitsCRT@G@ATL@@@ATL@@@ATL@@XZ="C:\Windows\System32\uxlib".?GetLayoutName@CKeyboardLayout@@QEAA?AV?$CStringT@GV?$StrTraitATL@GV?$ChTraitsCRT@G@ATL@@@ATL@@@ATL@@XZ
  ?GetLength@?$CSimpleStringT@G$0A@@ATL@@QEBAHXZ="C:\Windows\System32\uxlib".?GetLength@?$CSimpleStringT@G$0A@@ATL@@QEBAHXZ
  ?GetLocale@CInternationalUtils@@SA?AV?$CStringT@GV?$StrTraitATL@GV?$ChTraitsCRT@G@ATL@@@ATL@@@ATL@@XZ="C:\Windows\System32\uxlib".?GetLocale@CInternationalUtils@@SA?AV?$CStringT@GV?$StrTraitATL@GV?$ChTraitsCRT@G@ATL@@@ATL@@@ATL@@XZ
  ?GetLocale@CLocales@@UEAA?AVCLocale@@H@Z="C:\Windows\System32\uxlib".?GetLocale@CLocales@@UEAA?AVCLocale@@H@Z
  ?GetLocale@CLocales@@UEAA?AVCLocale@@V?$CStringT@GV?$StrTraitATL@GV?$ChTraitsCRT@G@ATL@@@ATL@@@ATL@@@Z="C:\Windows\System32\uxlib".?GetLocale@CLocales@@UEAA?AVCLocale@@V?$CStringT@GV?$StrTraitATL@GV?$ChTraitsCRT@G@ATL@@@ATL@@@ATL@@@Z
  ?GetLocaleCount@CLocales@@UEAAHXZ="C:\Windows\System32\uxlib".?GetLocaleCount@CLocales@@UEAAHXZ
  ?GetLocaleName@CLocale@@QEAA?AV?$CStringT@GV?$StrTraitATL@GV?$ChTraitsCRT@G@ATL@@@ATL@@@ATL@@XZ="C:\Windows\System32\uxlib".?GetLocaleName@CLocale@@QEAA?AV?$CStringT@GV?$StrTraitATL@GV?$ChTraitsCRT@G@ATL@@@ATL@@@ATL@@XZ
  ?GetLocalizedName@CLanguage@@QEAA?AV?$CStringT@GV?$StrTraitATL@GV?$ChTraitsCRT@G@ATL@@@ATL@@@ATL@@XZ="C:\Windows\System32\uxlib".?GetLocalizedName@CLanguage@@QEAA?AV?$CStringT@GV?$StrTraitATL@GV?$ChTraitsCRT@G@ATL@@@ATL@@@ATL@@XZ
  ?GetManager@?$CSimpleStringT@G$0A@@ATL@@QEBAPEAUIAtlStringMgr@2@XZ="C:\Windows\System32\uxlib".?GetManager@?$CSimpleStringT@G$0A@@ATL@@QEBAPEAUIAtlStringMgr@2@XZ
  ?GetManager@?$CStringT@GV?$StrTraitATL@GV?$ChTraitsCRT@G@ATL@@@ATL@@@ATL@@QEBAPEAUIAtlStringMgr@2@XZ="C:\Windows\System32\uxlib".?GetManager@?$CStringT@GV?$StrTraitATL@GV?$ChTraitsCRT@G@ATL@@@ATL@@@ATL@@QEBAPEAUIAtlStringMgr@2@XZ
  ?GetName@CLayeredDriver@@QEAA?AV?$CStringT@GV?$StrTraitATL@GV?$ChTraitsCRT@G@ATL@@@ATL@@@ATL@@XZ="C:\Windows\System32\uxlib".?GetName@CLayeredDriver@@QEAA?AV?$CStringT@GV?$StrTraitATL@GV?$ChTraitsCRT@G@ATL@@@ATL@@@ATL@@XZ
  ?GetNativeDisplayName@CLanguage@@QEAA?AV?$CStringT@GV?$StrTraitATL@GV?$ChTraitsCRT@G@ATL@@@ATL@@@ATL@@XZ="C:\Windows\System32\uxlib".?GetNativeDisplayName@CLanguage@@QEAA?AV?$CStringT@GV?$StrTraitATL@GV?$ChTraitsCRT@G@ATL@@@ATL@@@ATL@@XZ
  ?GetNativeName@CLanguage@@QEAA?AV?$CStringT@GV?$StrTraitATL@GV?$ChTraitsCRT@G@ATL@@@ATL@@@ATL@@XZ="C:\Windows\System32\uxlib".?GetNativeName@CLanguage@@QEAA?AV?$CStringT@GV?$StrTraitATL@GV?$ChTraitsCRT@G@ATL@@@ATL@@@ATL@@XZ
  ?GetPidStr@PIDUtilStringView@@QEAAPEBGXZ="C:\Windows\System32\uxlib".?GetPidStr@PIDUtilStringView@@QEAAPEBGXZ
  ?GetShowFlag@CProductKeyModule@@UEAAHXZ="C:\Windows\System32\uxlib".?GetShowFlag@CProductKeyModule@@UEAAHXZ
  ?GetShowFlagEarlyF6@CLoadDriver@@UEAAHXZ="C:\Windows\System32\uxlib".?GetShowFlagEarlyF6@CLoadDriver@@UEAAHXZ
  ?GetShowLangKeyboard@CInternationalUtils@@SAHXZ="C:\Windows\System32\uxlib".?GetShowLangKeyboard@CInternationalUtils@@SAHXZ
  ?GetShowLangNeutral@CInternationalUtils@@SAHXZ="C:\Windows\System32\uxlib".?GetShowLangNeutral@CInternationalUtils@@SAHXZ
  ?GetSize@?$CSimpleArray@PEAU_BLOCKED_REASON@@V?$CSimpleArrayEqualHelper@PEAU_BLOCKED_REASON@@@ATL@@@ATL@@QEBAHXZ="C:\Windows\System32\uxlib".?GetSize@?$CSimpleArray@PEAU_BLOCKED_REASON@@V?$CSimpleArrayEqualHelper@PEAU_BLOCKED_REASON@@@ATL@@@ATL@@QEBAHXZ
  ?GetSize@?$CSimpleArray@PEAVCLocale@@V?$CSimpleArrayEqualHelper@PEAVCLocale@@@ATL@@@ATL@@QEBAHXZ="C:\Windows\System32\uxlib".?GetSize@?$CSimpleArray@PEAVCLocale@@V?$CSimpleArrayEqualHelper@PEAVCLocale@@@ATL@@@ATL@@QEBAHXZ
  ?GetSize@?$CSimpleArray@VCDriverItem@@V?$CSimpleArrayEqualHelper@VCDriverItem@@@ATL@@@ATL@@QEBAHXZ="C:\Windows\System32\uxlib".?GetSize@?$CSimpleArray@VCDriverItem@@V?$CSimpleArrayEqualHelper@VCDriverItem@@@ATL@@@ATL@@QEBAHXZ
  ?GetSize@?$CSimpleArray@VCLanguageItem@@V?$CSimpleArrayEqualHelper@VCLanguageItem@@@ATL@@@ATL@@QEBAHXZ="C:\Windows\System32\uxlib".?GetSize@?$CSimpleArray@VCLanguageItem@@V?$CSimpleArrayEqualHelper@VCLanguageItem@@@ATL@@@ATL@@QEBAHXZ
  ?GetString@?$CSimpleStringT@G$0A@@ATL@@QEBAPEBGXZ="C:\Windows\System32\uxlib".?GetString@?$CSimpleStringT@G$0A@@ATL@@QEBAPEBGXZ
  ?GetString@MyUtilString@@QEAAPEBGXZ="C:\Windows\System32\uxlib".?GetString@MyUtilString@@QEAAPEBGXZ
  ?Initialize@CImageData@@UEAAHPEAX@Z="C:\Windows\System32\uxlib".?Initialize@CImageData@@UEAAHPEAX@Z
  ?Initialize@CKeyboardLayouts@@UEAAHV?$CStringT@GV?$StrTraitATL@GV?$ChTraitsCRT@G@ATL@@@ATL@@@ATL@@0@Z="C:\Windows\System32\uxlib".?Initialize@CKeyboardLayouts@@UEAAHV?$CStringT@GV?$StrTraitATL@GV?$ChTraitsCRT@G@ATL@@@ATL@@@ATL@@0@Z
  ?Initialize@CLanguages@@UEAAHXZ="C:\Windows\System32\uxlib".?Initialize@CLanguages@@UEAAHXZ
  ?Initialize@CLayeredDrivers@@UEAAHV?$CStringT@GV?$StrTraitATL@GV?$ChTraitsCRT@G@ATL@@@ATL@@@ATL@@0@Z="C:\Windows\System32\uxlib".?Initialize@CLayeredDrivers@@UEAAHV?$CStringT@GV?$StrTraitATL@GV?$ChTraitsCRT@G@ATL@@@ATL@@@ATL@@0@Z
  ?Initialize@CLoadDriver@@UEAAHPEAX@Z="C:\Windows\System32\uxlib".?Initialize@CLoadDriver@@UEAAHPEAX@Z
  ?Initialize@CLocales@@UEAAHV?$CStringT@GV?$StrTraitATL@GV?$ChTraitsCRT@G@ATL@@@ATL@@@ATL@@@Z="C:\Windows\System32\uxlib".?Initialize@CLocales@@UEAAHV?$CStringT@GV?$StrTraitATL@GV?$ChTraitsCRT@G@ATL@@@ATL@@@ATL@@@Z
  ?Initialize@CProductKeyModule@@UEAAHPEAX@Z="C:\Windows\System32\uxlib".?Initialize@CProductKeyModule@@UEAAHPEAX@Z
  ?Insert@?$CStringT@GV?$StrTraitATL@GV?$ChTraitsCRT@G@ATL@@@ATL@@@ATL@@QEAAHHG@Z="C:\Windows\System32\uxlib".?Insert@?$CStringT@GV?$StrTraitATL@GV?$ChTraitsCRT@G@ATL@@@ATL@@@ATL@@QEAAHHG@Z
  ?Insert@?$CStringT@GV?$StrTraitATL@GV?$ChTraitsCRT@G@ATL@@@ATL@@@ATL@@QEAAHHPEBG@Z="C:\Windows\System32\uxlib".?Insert@?$CStringT@GV?$StrTraitATL@GV?$ChTraitsCRT@G@ATL@@@ATL@@@ATL@@QEAAHHPEBG@Z
  ?InsertChar@MyUtilString@@QEAAHHG@Z="C:\Windows\System32\uxlib".?InsertChar@MyUtilString@@QEAAHHG@Z
  ?InsertString@MyUtilString@@QEAAHHPEBG@Z="C:\Windows\System32\uxlib".?InsertString@MyUtilString@@QEAAHHPEBG@Z
  ?InsertString@PIDUtilStringView@@QEAAHHPEBG@Z="C:\Windows\System32\uxlib".?InsertString@PIDUtilStringView@@QEAAHHPEBG@Z
  ?InstallDriver@CLoadDriver@@UEAAHJP6AXPEAXH@Z0@Z="C:\Windows\System32\uxlib".?InstallDriver@CLoadDriver@@UEAAHJP6AXPEAXH@Z0@Z
  ?InternalSetAtIndex@?$CSimpleArray@PEAU_BLOCKED_REASON@@V?$CSimpleArrayEqualHelper@PEAU_BLOCKED_REASON@@@ATL@@@ATL@@QEAAXHAEBQEAU_BLOCKED_REASON@@@Z="C:\Windows\System32\uxlib".?InternalSetAtIndex@?$CSimpleArray@PEAU_BLOCKED_REASON@@V?$CSimpleArrayEqualHelper@PEAU_BLOCKED_REASON@@@ATL@@@ATL@@QEAAXHAEBQEAU_BLOCKED_REASON@@@Z
  ?InternalSetAtIndex@?$CSimpleArray@PEAVCLocale@@V?$CSimpleArrayEqualHelper@PEAVCLocale@@@ATL@@@ATL@@QEAAXHAEBQEAVCLocale@@@Z="C:\Windows\System32\uxlib".?InternalSetAtIndex@?$CSimpleArray@PEAVCLocale@@V?$CSimpleArrayEqualHelper@PEAVCLocale@@@ATL@@@ATL@@QEAAXHAEBQEAVCLocale@@@Z
  ?InternalSetAtIndex@?$CSimpleArray@VCDriverItem@@V?$CSimpleArrayEqualHelper@VCDriverItem@@@ATL@@@ATL@@QEAAXHAEBVCDriverItem@@@Z="C:\Windows\System32\uxlib".?InternalSetAtIndex@?$CSimpleArray@VCDriverItem@@V?$CSimpleArrayEqualHelper@VCDriverItem@@@ATL@@@ATL@@QEAAXHAEBVCDriverItem@@@Z
  ?InternalSetAtIndex@?$CSimpleArray@VCLanguageItem@@V?$CSimpleArrayEqualHelper@VCLanguageItem@@@ATL@@@ATL@@QEAAXHAEBVCLanguageItem@@@Z="C:\Windows\System32\uxlib".?InternalSetAtIndex@?$CSimpleArray@VCLanguageItem@@V?$CSimpleArrayEqualHelper@VCLanguageItem@@@ATL@@@ATL@@QEAAXHAEBVCLanguageItem@@@Z
  ?IsDigitalMarkerKeyValid@CProductKeyModule@@AEAAHXZ="C:\Windows\System32\uxlib".?IsDigitalMarkerKeyValid@CProductKeyModule@@AEAAHXZ
  ?IsEmpty@?$CSimpleStringT@G$0A@@ATL@@QEBA_NXZ="C:\Windows\System32\uxlib".?IsEmpty@?$CSimpleStringT@G$0A@@ATL@@QEBA_NXZ
  ?IsLanguageEnabled@CInternationalUtils@@SAHV?$CStringT@GV?$StrTraitATL@GV?$ChTraitsCRT@G@ATL@@@ATL@@@ATL@@0@Z="C:\Windows\System32\uxlib".?IsLanguageEnabled@CInternationalUtils@@SAHV?$CStringT@GV?$StrTraitATL@GV?$ChTraitsCRT@G@ATL@@@ATL@@@ATL@@0@Z
  ?IsVolumeLicensingKeyValid@CProductKeyModule@@AEAAHXZ="C:\Windows\System32\uxlib".?IsVolumeLicensingKeyValid@CProductKeyModule@@AEAAHXZ
  ?Left@?$CStringT@GV?$StrTraitATL@GV?$ChTraitsCRT@G@ATL@@@ATL@@@ATL@@QEBA?AV12@H@Z="C:\Windows\System32\uxlib".?Left@?$CStringT@GV?$StrTraitATL@GV?$ChTraitsCRT@G@ATL@@@ATL@@@ATL@@QEBA?AV12@H@Z
  ?LoadStringW@?$CStringT@GV?$StrTraitATL@GV?$ChTraitsCRT@G@ATL@@@ATL@@@ATL@@QEAAHI@Z="C:\Windows\System32\uxlib".?LoadStringW@?$CStringT@GV?$StrTraitATL@GV?$ChTraitsCRT@G@ATL@@@ATL@@@ATL@@QEAAHI@Z
  ?LoadStringW@?$CStringT@GV?$StrTraitATL@GV?$ChTraitsCRT@G@ATL@@@ATL@@@ATL@@QEAAHPEAUHINSTANCE__@@I@Z="C:\Windows\System32\uxlib".?LoadStringW@?$CStringT@GV?$StrTraitATL@GV?$ChTraitsCRT@G@ATL@@@ATL@@@ATL@@QEAAHPEAUHINSTANCE__@@I@Z
  ?LoadStringW@?$CStringT@GV?$StrTraitATL@GV?$ChTraitsCRT@G@ATL@@@ATL@@@ATL@@QEAAHPEAUHINSTANCE__@@IG@Z="C:\Windows\System32\uxlib".?LoadStringW@?$CStringT@GV?$StrTraitATL@GV?$ChTraitsCRT@G@ATL@@@ATL@@@ATL@@QEAAHPEAUHINSTANCE__@@IG@Z
  ?LockBuffer@?$CSimpleStringT@G$0A@@ATL@@QEAAPEAGXZ="C:\Windows\System32\uxlib".?LockBuffer@?$CSimpleStringT@G$0A@@ATL@@QEAAPEAGXZ
  ?MakeLower@?$CStringT@GV?$StrTraitATL@GV?$ChTraitsCRT@G@ATL@@@ATL@@@ATL@@QEAAAEAV12@XZ="C:\Windows\System32\uxlib".?MakeLower@?$CStringT@GV?$StrTraitATL@GV?$ChTraitsCRT@G@ATL@@@ATL@@@ATL@@QEAAAEAV12@XZ
  ?MakeReverse@?$CStringT@GV?$StrTraitATL@GV?$ChTraitsCRT@G@ATL@@@ATL@@@ATL@@QEAAAEAV12@XZ="C:\Windows\System32\uxlib".?MakeReverse@?$CStringT@GV?$StrTraitATL@GV?$ChTraitsCRT@G@ATL@@@ATL@@@ATL@@QEAAAEAV12@XZ
  ?MakeUpper@?$CStringT@GV?$StrTraitATL@GV?$ChTraitsCRT@G@ATL@@@ATL@@@ATL@@QEAAAEAV12@XZ="C:\Windows\System32\uxlib".?MakeUpper@?$CStringT@GV?$StrTraitATL@GV?$ChTraitsCRT@G@ATL@@@ATL@@@ATL@@QEAAAEAV12@XZ
  ?Mid@?$CStringT@GV?$StrTraitATL@GV?$ChTraitsCRT@G@ATL@@@ATL@@@ATL@@QEBA?AV12@H@Z="C:\Windows\System32\uxlib".?Mid@?$CStringT@GV?$StrTraitATL@GV?$ChTraitsCRT@G@ATL@@@ATL@@@ATL@@QEBA?AV12@H@Z
  ?Mid@?$CStringT@GV?$StrTraitATL@GV?$ChTraitsCRT@G@ATL@@@ATL@@@ATL@@QEBA?AV12@HH@Z="C:\Windows\System32\uxlib".?Mid@?$CStringT@GV?$StrTraitATL@GV?$ChTraitsCRT@G@ATL@@@ATL@@@ATL@@QEBA?AV12@HH@Z
  ?OemToCharA@?$CStringT@GV?$StrTraitATL@GV?$ChTraitsCRT@G@ATL@@@ATL@@@ATL@@QEAAXXZ="C:\Windows\System32\uxlib".?OemToCharA@?$CStringT@GV?$StrTraitATL@GV?$ChTraitsCRT@G@ATL@@@ATL@@@ATL@@QEAAXXZ
  ?OnCallback@CProductKeyModule@@UEAA_KPEBUWDS_DATA@@@Z="C:\Windows\System32\uxlib".?OnCallback@CProductKeyModule@@UEAA_KPEBUWDS_DATA@@@Z
  ?PopulateDriverList@CLoadDriver@@AEAAHXZ="C:\Windows\System32\uxlib".?PopulateDriverList@CLoadDriver@@AEAAHXZ
  ?PopulateImageData@CImageData@@UEAAHPEBGPEAGHPEAUHINSTANCE__@@@Z="C:\Windows\System32\uxlib".?PopulateImageData@CImageData@@UEAAHPEBGPEAGHPEAUHINSTANCE__@@@Z
  ?Preallocate@?$CSimpleStringT@G$0A@@ATL@@QEAAXH@Z="C:\Windows\System32\uxlib".?Preallocate@?$CSimpleStringT@G$0A@@ATL@@QEAAXH@Z
  ?PrepareWrite2@?$CSimpleStringT@G$0A@@ATL@@AEAAXH@Z="C:\Windows\System32\uxlib".?PrepareWrite2@?$CSimpleStringT@G$0A@@ATL@@AEAAXH@Z
  ?PrepareWrite@?$CSimpleStringT@G$0A@@ATL@@AEAAPEAGH@Z="C:\Windows\System32\uxlib".?PrepareWrite@?$CSimpleStringT@G$0A@@ATL@@AEAAPEAGH@Z
  ?PublishLanguageGatherEvent@CInternationalUtils@@SAJPEAX@Z="C:\Windows\System32\uxlib".?PublishLanguageGatherEvent@CInternationalUtils@@SAJPEAX@Z
  ?Reallocate@?$CSimpleStringT@G$0A@@ATL@@AEAAXH@Z="C:\Windows\System32\uxlib".?Reallocate@?$CSimpleStringT@G$0A@@ATL@@AEAAXH@Z
  ?ReleaseBuffer@?$CSimpleStringT@G$0A@@ATL@@QEAAXH@Z="C:\Windows\System32\uxlib".?ReleaseBuffer@?$CSimpleStringT@G$0A@@ATL@@QEAAXH@Z
  ?ReleaseBufferSetLength@?$CSimpleStringT@G$0A@@ATL@@QEAAXH@Z="C:\Windows\System32\uxlib".?ReleaseBufferSetLength@?$CSimpleStringT@G$0A@@ATL@@QEAAXH@Z
  ?Remove@?$CSimpleArray@PEAU_BLOCKED_REASON@@V?$CSimpleArrayEqualHelper@PEAU_BLOCKED_REASON@@@ATL@@@ATL@@QEAAHAEBQEAU_BLOCKED_REASON@@@Z="C:\Windows\System32\uxlib".?Remove@?$CSimpleArray@PEAU_BLOCKED_REASON@@V?$CSimpleArrayEqualHelper@PEAU_BLOCKED_REASON@@@ATL@@@ATL@@QEAAHAEBQEAU_BLOCKED_REASON@@@Z
  ?Remove@?$CSimpleArray@PEAVCLocale@@V?$CSimpleArrayEqualHelper@PEAVCLocale@@@ATL@@@ATL@@QEAAHAEBQEAVCLocale@@@Z="C:\Windows\System32\uxlib".?Remove@?$CSimpleArray@PEAVCLocale@@V?$CSimpleArrayEqualHelper@PEAVCLocale@@@ATL@@@ATL@@QEAAHAEBQEAVCLocale@@@Z
  ?Remove@?$CSimpleArray@VCDriverItem@@V?$CSimpleArrayEqualHelper@VCDriverItem@@@ATL@@@ATL@@QEAAHAEBVCDriverItem@@@Z="C:\Windows\System32\uxlib".?Remove@?$CSimpleArray@VCDriverItem@@V?$CSimpleArrayEqualHelper@VCDriverItem@@@ATL@@@ATL@@QEAAHAEBVCDriverItem@@@Z
  ?Remove@?$CSimpleArray@VCLanguageItem@@V?$CSimpleArrayEqualHelper@VCLanguageItem@@@ATL@@@ATL@@QEAAHAEBVCLanguageItem@@@Z="C:\Windows\System32\uxlib".?Remove@?$CSimpleArray@VCLanguageItem@@V?$CSimpleArrayEqualHelper@VCLanguageItem@@@ATL@@@ATL@@QEAAHAEBVCLanguageItem@@@Z
  ?Remove@?$CStringT@GV?$StrTraitATL@GV?$ChTraitsCRT@G@ATL@@@ATL@@@ATL@@QEAAHG@Z="C:\Windows\System32\uxlib".?Remove@?$CStringT@GV?$StrTraitATL@GV?$ChTraitsCRT@G@ATL@@@ATL@@@ATL@@QEAAHG@Z
  ?RemoveAll@?$CSimpleArray@PEAU_BLOCKED_REASON@@V?$CSimpleArrayEqualHelper@PEAU_BLOCKED_REASON@@@ATL@@@ATL@@QEAAXXZ="C:\Windows\System32\uxlib".?RemoveAll@?$CSimpleArray@PEAU_BLOCKED_REASON@@V?$CSimpleArrayEqualHelper@PEAU_BLOCKED_REASON@@@ATL@@@ATL@@QEAAXXZ
  ?RemoveAll@?$CSimpleArray@PEAVCLocale@@V?$CSimpleArrayEqualHelper@PEAVCLocale@@@ATL@@@ATL@@QEAAXXZ="C:\Windows\System32\uxlib".?RemoveAll@?$CSimpleArray@PEAVCLocale@@V?$CSimpleArrayEqualHelper@PEAVCLocale@@@ATL@@@ATL@@QEAAXXZ
  ?RemoveAll@?$CSimpleArray@VCDriverItem@@V?$CSimpleArrayEqualHelper@VCDriverItem@@@ATL@@@ATL@@QEAAXXZ="C:\Windows\System32\uxlib".?RemoveAll@?$CSimpleArray@VCDriverItem@@V?$CSimpleArrayEqualHelper@VCDriverItem@@@ATL@@@ATL@@QEAAXXZ
  ?RemoveAll@?$CSimpleArray@VCLanguageItem@@V?$CSimpleArrayEqualHelper@VCLanguageItem@@@ATL@@@ATL@@QEAAXXZ="C:\Windows\System32\uxlib".?RemoveAll@?$CSimpleArray@VCLanguageItem@@V?$CSimpleArrayEqualHelper@VCLanguageItem@@@ATL@@@ATL@@QEAAXXZ
  ?RemoveAt@?$CSimpleArray@PEAU_BLOCKED_REASON@@V?$CSimpleArrayEqualHelper@PEAU_BLOCKED_REASON@@@ATL@@@ATL@@QEAAHH@Z="C:\Windows\System32\uxlib".?RemoveAt@?$CSimpleArray@PEAU_BLOCKED_REASON@@V?$CSimpleArrayEqualHelper@PEAU_BLOCKED_REASON@@@ATL@@@ATL@@QEAAHH@Z
  ?RemoveAt@?$CSimpleArray@PEAVCLocale@@V?$CSimpleArrayEqualHelper@PEAVCLocale@@@ATL@@@ATL@@QEAAHH@Z="C:\Windows\System32\uxlib".?RemoveAt@?$CSimpleArray@PEAVCLocale@@V?$CSimpleArrayEqualHelper@PEAVCLocale@@@ATL@@@ATL@@QEAAHH@Z
  ?RemoveAt@?$CSimpleArray@VCDriverItem@@V?$CSimpleArrayEqualHelper@VCDriverItem@@@ATL@@@ATL@@QEAAHH@Z="C:\Windows\System32\uxlib".?RemoveAt@?$CSimpleArray@VCDriverItem@@V?$CSimpleArrayEqualHelper@VCDriverItem@@@ATL@@@ATL@@QEAAHH@Z
  ?RemoveAt@?$CSimpleArray@VCLanguageItem@@V?$CSimpleArrayEqualHelper@VCLanguageItem@@@ATL@@@ATL@@QEAAHH@Z="C:\Windows\System32\uxlib".?RemoveAt@?$CSimpleArray@VCLanguageItem@@V?$CSimpleArrayEqualHelper@VCLanguageItem@@@ATL@@@ATL@@QEAAHH@Z
  ?RemoveChar@MyUtilString@@QEAAHH@Z="C:\Windows\System32\uxlib".?RemoveChar@MyUtilString@@QEAAHH@Z
  ?RemoveString@MyUtilString@@QEAAHHH@Z="C:\Windows\System32\uxlib".?RemoveString@MyUtilString@@QEAAHHH@Z
  ?RemoveString@PIDUtilStringView@@QEAAHHHH@Z="C:\Windows\System32\uxlib".?RemoveString@PIDUtilStringView@@QEAAHHHH@Z
  ?Replace@?$CStringT@GV?$StrTraitATL@GV?$ChTraitsCRT@G@ATL@@@ATL@@@ATL@@QEAAHGG@Z="C:\Windows\System32\uxlib".?Replace@?$CStringT@GV?$StrTraitATL@GV?$ChTraitsCRT@G@ATL@@@ATL@@@ATL@@QEAAHGG@Z
  ?Replace@?$CStringT@GV?$StrTraitATL@GV?$ChTraitsCRT@G@ATL@@@ATL@@@ATL@@QEAAHPEBG0@Z="C:\Windows\System32\uxlib".?Replace@?$CStringT@GV?$StrTraitATL@GV?$ChTraitsCRT@G@ATL@@@ATL@@@ATL@@QEAAHPEBG0@Z
  ?ReplaceString@PIDUtilStringView@@QEAAHHHPEBG@Z="C:\Windows\System32\uxlib".?ReplaceString@PIDUtilStringView@@QEAAHHHPEBG@Z
  ?ReverseFind@?$CStringT@GV?$StrTraitATL@GV?$ChTraitsCRT@G@ATL@@@ATL@@@ATL@@QEBAHG@Z="C:\Windows\System32\uxlib".?ReverseFind@?$CStringT@GV?$StrTraitATL@GV?$ChTraitsCRT@G@ATL@@@ATL@@@ATL@@QEBAHG@Z
  ?Right@?$CStringT@GV?$StrTraitATL@GV?$ChTraitsCRT@G@ATL@@@ATL@@@ATL@@QEBA?AV12@H@Z="C:\Windows\System32\uxlib".?Right@?$CStringT@GV?$StrTraitATL@GV?$ChTraitsCRT@G@ATL@@@ATL@@@ATL@@QEBA?AV12@H@Z
  ?SetActivation@CProductKeyModule@@UEAAHK@Z="C:\Windows\System32\uxlib".?SetActivation@CProductKeyModule@@UEAAHK@Z
  ?SetAt@?$CSimpleStringT@G$0A@@ATL@@QEAAXHG@Z="C:\Windows\System32\uxlib".?SetAt@?$CSimpleStringT@G$0A@@ATL@@QEAAXHG@Z
  ?SetAtIndex@?$CSimpleArray@PEAU_BLOCKED_REASON@@V?$CSimpleArrayEqualHelper@PEAU_BLOCKED_REASON@@@ATL@@@ATL@@QEAAHHAEBQEAU_BLOCKED_REASON@@@Z="C:\Windows\System32\uxlib".?SetAtIndex@?$CSimpleArray@PEAU_BLOCKED_REASON@@V?$CSimpleArrayEqualHelper@PEAU_BLOCKED_REASON@@@ATL@@@ATL@@QEAAHHAEBQEAU_BLOCKED_REASON@@@Z
  ?SetAtIndex@?$CSimpleArray@PEAVCLocale@@V?$CSimpleArrayEqualHelper@PEAVCLocale@@@ATL@@@ATL@@QEAAHHAEBQEAVCLocale@@@Z="C:\Windows\System32\uxlib".?SetAtIndex@?$CSimpleArray@PEAVCLocale@@V?$CSimpleArrayEqualHelper@PEAVCLocale@@@ATL@@@ATL@@QEAAHHAEBQEAVCLocale@@@Z
  ?SetAtIndex@?$CSimpleArray@VCDriverItem@@V?$CSimpleArrayEqualHelper@VCDriverItem@@@ATL@@@ATL@@QEAAHHAEBVCDriverItem@@@Z="C:\Windows\System32\uxlib".?SetAtIndex@?$CSimpleArray@VCDriverItem@@V?$CSimpleArrayEqualHelper@VCDriverItem@@@ATL@@@ATL@@QEAAHHAEBVCDriverItem@@@Z
  ?SetAtIndex@?$CSimpleArray@VCLanguageItem@@V?$CSimpleArrayEqualHelper@VCLanguageItem@@@ATL@@@ATL@@QEAAHHAEBVCLanguageItem@@@Z="C:\Windows\System32\uxlib".?SetAtIndex@?$CSimpleArray@VCLanguageItem@@V?$CSimpleArrayEqualHelper@VCLanguageItem@@@ATL@@@ATL@@QEAAHHAEBVCLanguageItem@@@Z
  ?SetEditionName@CImageData@@UEAAXPEAG@Z="C:\Windows\System32\uxlib".?SetEditionName@CImageData@@UEAAXPEAG@Z
  ?SetFoundationFlag@CImageData@@UEAAXH@Z="C:\Windows\System32\uxlib".?SetFoundationFlag@CImageData@@UEAAXH@Z
  ?SetHardwareFilter@CLoadDriver@@UEAAHH@Z="C:\Windows\System32\uxlib".?SetHardwareFilter@CLoadDriver@@UEAAHH@Z
  ?SetHideOOBELang@CInternationalUtils@@SAHV?$CStringT@GV?$StrTraitATL@GV?$ChTraitsCRT@G@ATL@@@ATL@@@ATL@@@Z="C:\Windows\System32\uxlib".?SetHideOOBELang@CInternationalUtils@@SAHV?$CStringT@GV?$StrTraitATL@GV?$ChTraitsCRT@G@ATL@@@ATL@@@ATL@@@Z
  ?SetInstance@CImageData@@SAXPEAVIImageData@@@Z="C:\Windows\System32\uxlib".?SetInstance@CImageData@@SAXPEAVIImageData@@@Z
  ?SetInstance@CLoadDriver@@SAXPEAVILoadDriver@@@Z="C:\Windows\System32\uxlib".?SetInstance@CLoadDriver@@SAXPEAVILoadDriver@@@Z
  ?SetLength@?$CSimpleStringT@G$0A@@ATL@@AEAAXH@Z="C:\Windows\System32\uxlib".?SetLength@?$CSimpleStringT@G$0A@@ATL@@AEAAXH@Z
  ?SetLocale@CLayeredDrivers@@UEAAHV?$CStringT@GV?$StrTraitATL@GV?$ChTraitsCRT@G@ATL@@@ATL@@@ATL@@@Z="C:\Windows\System32\uxlib".?SetLocale@CLayeredDrivers@@UEAAHV?$CStringT@GV?$StrTraitATL@GV?$ChTraitsCRT@G@ATL@@@ATL@@@ATL@@@Z
  ?SetManager@?$CSimpleStringT@G$0A@@ATL@@QEAAXPEAUIAtlStringMgr@2@@Z="C:\Windows\System32\uxlib".?SetManager@?$CSimpleStringT@G$0A@@ATL@@QEAAXPEAUIAtlStringMgr@2@@Z
  ?SetProductKey@CProductKeyModule@@AEAAXV?$CStringT@GV?$StrTraitATL@GV?$ChTraitsCRT@G@ATL@@@ATL@@@ATL@@@Z="C:\Windows\System32\uxlib".?SetProductKey@CProductKeyModule@@AEAAXV?$CStringT@GV?$StrTraitATL@GV?$ChTraitsCRT@G@ATL@@@ATL@@@ATL@@@Z
  ?SetString@?$CSimpleStringT@G$0A@@ATL@@QEAAXPEBG@Z="C:\Windows\System32\uxlib".?SetString@?$CSimpleStringT@G$0A@@ATL@@QEAAXPEBG@Z
  ?SetString@?$CSimpleStringT@G$0A@@ATL@@QEAAXPEBGH@Z="C:\Windows\System32\uxlib".?SetString@?$CSimpleStringT@G$0A@@ATL@@QEAAXPEBGH@Z
  ?SetSysString@?$CStringT@GV?$StrTraitATL@GV?$ChTraitsCRT@G@ATL@@@ATL@@@ATL@@QEBAPEAGPEAPEAG@Z="C:\Windows\System32\uxlib".?SetSysString@?$CStringT@GV?$StrTraitATL@GV?$ChTraitsCRT@G@ATL@@@ATL@@@ATL@@QEBAPEAGPEAPEAG@Z
  ?SetTargetKeyboard@CInternationalUtils@@SAHV?$CStringT@GV?$StrTraitATL@GV?$ChTraitsCRT@G@ATL@@@ATL@@@ATL@@@Z="C:\Windows\System32\uxlib".?SetTargetKeyboard@CInternationalUtils@@SAHV?$CStringT@GV?$StrTraitATL@GV?$ChTraitsCRT@G@ATL@@@ATL@@@ATL@@@Z
  ?SetTargetLanguage@CInternationalUtils@@SAHV?$CStringT@GV?$StrTraitATL@GV?$ChTraitsCRT@G@ATL@@@ATL@@@ATL@@@Z="C:\Windows\System32\uxlib".?SetTargetLanguage@CInternationalUtils@@SAHV?$CStringT@GV?$StrTraitATL@GV?$ChTraitsCRT@G@ATL@@@ATL@@@ATL@@@Z
  ?SetTargetLayeredDriver@CInternationalUtils@@SAHV?$CStringT@GV?$StrTraitATL@GV?$ChTraitsCRT@G@ATL@@@ATL@@@ATL@@@Z="C:\Windows\System32\uxlib".?SetTargetLayeredDriver@CInternationalUtils@@SAHV?$CStringT@GV?$StrTraitATL@GV?$ChTraitsCRT@G@ATL@@@ATL@@@ATL@@@Z
  ?SetTargetLocale@CInternationalUtils@@SAHV?$CStringT@GV?$StrTraitATL@GV?$ChTraitsCRT@G@ATL@@@ATL@@@ATL@@@Z="C:\Windows\System32\uxlib".?SetTargetLocale@CInternationalUtils@@SAHV?$CStringT@GV?$StrTraitATL@GV?$ChTraitsCRT@G@ATL@@@ATL@@@ATL@@@Z
  ?SetUILanguage@CInternationalUtils@@SAHV?$CStringT@GV?$StrTraitATL@GV?$ChTraitsCRT@G@ATL@@@ATL@@@ATL@@@Z="C:\Windows\System32\uxlib".?SetUILanguage@CInternationalUtils@@SAHV?$CStringT@GV?$StrTraitATL@GV?$ChTraitsCRT@G@ATL@@@ATL@@@ATL@@@Z
  ?SetUILanguage@CKeyboardLayouts@@UEAAHV?$CStringT@GV?$StrTraitATL@GV?$ChTraitsCRT@G@ATL@@@ATL@@@ATL@@@Z="C:\Windows\System32\uxlib".?SetUILanguage@CKeyboardLayouts@@UEAAHV?$CStringT@GV?$StrTraitATL@GV?$ChTraitsCRT@G@ATL@@@ATL@@@ATL@@@Z
  ?SetUILanguage@CLanguages@@UEAAHV?$CStringT@GV?$StrTraitATL@GV?$ChTraitsCRT@G@ATL@@@ATL@@@ATL@@@Z="C:\Windows\System32\uxlib".?SetUILanguage@CLanguages@@UEAAHV?$CStringT@GV?$StrTraitATL@GV?$ChTraitsCRT@G@ATL@@@ATL@@@ATL@@@Z
  ?SetUILanguage@CLayeredDrivers@@UEAAHV?$CStringT@GV?$StrTraitATL@GV?$ChTraitsCRT@G@ATL@@@ATL@@@ATL@@@Z="C:\Windows\System32\uxlib".?SetUILanguage@CLayeredDrivers@@UEAAHV?$CStringT@GV?$StrTraitATL@GV?$ChTraitsCRT@G@ATL@@@ATL@@@ATL@@@Z
  ?SetUILanguage@CLocales@@UEAAHV?$CStringT@GV?$StrTraitATL@GV?$ChTraitsCRT@G@ATL@@@ATL@@@ATL@@@Z="C:\Windows\System32\uxlib".?SetUILanguage@CLocales@@UEAAHV?$CStringT@GV?$StrTraitATL@GV?$ChTraitsCRT@G@ATL@@@ATL@@@ATL@@@Z
  ?ShowOSK@COSK@@QEAAPEAXHPEAG0@Z="C:\Windows\System32\uxlib".?ShowOSK@COSK@@QEAAPEAXHPEAG0@Z
  ?SpanExcluding@?$CStringT@GV?$StrTraitATL@GV?$ChTraitsCRT@G@ATL@@@ATL@@@ATL@@QEBA?AV12@PEBG@Z="C:\Windows\System32\uxlib".?SpanExcluding@?$CStringT@GV?$StrTraitATL@GV?$ChTraitsCRT@G@ATL@@@ATL@@@ATL@@QEBA?AV12@PEBG@Z
  ?SpanIncluding@?$CStringT@GV?$StrTraitATL@GV?$ChTraitsCRT@G@ATL@@@ATL@@@ATL@@QEBA?AV12@PEBG@Z="C:\Windows\System32\uxlib".?SpanIncluding@?$CStringT@GV?$StrTraitATL@GV?$ChTraitsCRT@G@ATL@@@ATL@@@ATL@@QEBA?AV12@PEBG@Z
  ?StaticInstallCallback@CLoadDriver@@CAXW4WDS_EVENT_RESULT@@PEBUWDS_DATA@@PEAX@Z="C:\Windows\System32\uxlib".?StaticInstallCallback@CLoadDriver@@CAXW4WDS_EVENT_RESULT@@PEBUWDS_DATA@@PEAX@Z
  ?StaticScanCallback@CLoadDriver@@CAXW4WDS_EVENT_RESULT@@PEBUWDS_DATA@@PEAX@Z="C:\Windows\System32\uxlib".?StaticScanCallback@CLoadDriver@@CAXW4WDS_EVENT_RESULT@@PEBUWDS_DATA@@PEAX@Z
  ?StringLength@?$CSimpleStringT@G$0A@@ATL@@SAHPEBD@Z="C:\Windows\System32\uxlib".?StringLength@?$CSimpleStringT@G$0A@@ATL@@SAHPEBD@Z
  ?StringLength@?$CSimpleStringT@G$0A@@ATL@@SAHPEBG@Z="C:\Windows\System32\uxlib".?StringLength@?$CSimpleStringT@G$0A@@ATL@@SAHPEBG@Z
  ?ThrowMemoryException@?$CSimpleStringT@G$0A@@ATL@@KAXXZ="C:\Windows\System32\uxlib".?ThrowMemoryException@?$CSimpleStringT@G$0A@@ATL@@KAXXZ
  ?Tokenize@?$CStringT@GV?$StrTraitATL@GV?$ChTraitsCRT@G@ATL@@@ATL@@@ATL@@QEBA?AV12@PEBGAEAH@Z="C:\Windows\System32\uxlib".?Tokenize@?$CStringT@GV?$StrTraitATL@GV?$ChTraitsCRT@G@ATL@@@ATL@@@ATL@@QEBA?AV12@PEBGAEAH@Z
  ?Trim@?$CStringT@GV?$StrTraitATL@GV?$ChTraitsCRT@G@ATL@@@ATL@@@ATL@@QEAAAEAV12@G@Z="C:\Windows\System32\uxlib".?Trim@?$CStringT@GV?$StrTraitATL@GV?$ChTraitsCRT@G@ATL@@@ATL@@@ATL@@QEAAAEAV12@G@Z
  ?Trim@?$CStringT@GV?$StrTraitATL@GV?$ChTraitsCRT@G@ATL@@@ATL@@@ATL@@QEAAAEAV12@PEBG@Z="C:\Windows\System32\uxlib".?Trim@?$CStringT@GV?$StrTraitATL@GV?$ChTraitsCRT@G@ATL@@@ATL@@@ATL@@QEAAAEAV12@PEBG@Z
  ?Trim@?$CStringT@GV?$StrTraitATL@GV?$ChTraitsCRT@G@ATL@@@ATL@@@ATL@@QEAAAEAV12@XZ="C:\Windows\System32\uxlib".?Trim@?$CStringT@GV?$StrTraitATL@GV?$ChTraitsCRT@G@ATL@@@ATL@@@ATL@@QEAAAEAV12@XZ
  ?TrimLeft@?$CStringT@GV?$StrTraitATL@GV?$ChTraitsCRT@G@ATL@@@ATL@@@ATL@@QEAAAEAV12@G@Z="C:\Windows\System32\uxlib".?TrimLeft@?$CStringT@GV?$StrTraitATL@GV?$ChTraitsCRT@G@ATL@@@ATL@@@ATL@@QEAAAEAV12@G@Z
  ?TrimLeft@?$CStringT@GV?$StrTraitATL@GV?$ChTraitsCRT@G@ATL@@@ATL@@@ATL@@QEAAAEAV12@PEBG@Z="C:\Windows\System32\uxlib".?TrimLeft@?$CStringT@GV?$StrTraitATL@GV?$ChTraitsCRT@G@ATL@@@ATL@@@ATL@@QEAAAEAV12@PEBG@Z
  ?TrimLeft@?$CStringT@GV?$StrTraitATL@GV?$ChTraitsCRT@G@ATL@@@ATL@@@ATL@@QEAAAEAV12@XZ="C:\Windows\System32\uxlib".?TrimLeft@?$CStringT@GV?$StrTraitATL@GV?$ChTraitsCRT@G@ATL@@@ATL@@@ATL@@QEAAAEAV12@XZ
  ?TrimRight@?$CStringT@GV?$StrTraitATL@GV?$ChTraitsCRT@G@ATL@@@ATL@@@ATL@@QEAAAEAV12@G@Z="C:\Windows\System32\uxlib".?TrimRight@?$CStringT@GV?$StrTraitATL@GV?$ChTraitsCRT@G@ATL@@@ATL@@@ATL@@QEAAAEAV12@G@Z
  ?TrimRight@?$CStringT@GV?$StrTraitATL@GV?$ChTraitsCRT@G@ATL@@@ATL@@@ATL@@QEAAAEAV12@PEBG@Z="C:\Windows\System32\uxlib".?TrimRight@?$CStringT@GV?$StrTraitATL@GV?$ChTraitsCRT@G@ATL@@@ATL@@@ATL@@QEAAAEAV12@PEBG@Z
  ?TrimRight@?$CStringT@GV?$StrTraitATL@GV?$ChTraitsCRT@G@ATL@@@ATL@@@ATL@@QEAAAEAV12@XZ="C:\Windows\System32\uxlib".?TrimRight@?$CStringT@GV?$StrTraitATL@GV?$ChTraitsCRT@G@ATL@@@ATL@@@ATL@@QEAAAEAV12@XZ
  ?Truncate@?$CSimpleStringT@G$0A@@ATL@@QEAAXH@Z="C:\Windows\System32\uxlib".?Truncate@?$CSimpleStringT@G$0A@@ATL@@QEAAXH@Z
  ?UnlockBuffer@?$CSimpleStringT@G$0A@@ATL@@QEAAXXZ="C:\Windows\System32\uxlib".?UnlockBuffer@?$CSimpleStringT@G$0A@@ATL@@QEAAXXZ
  ?ValidatePid@CProductKeyModule@@AEAAJXZ="C:\Windows\System32\uxlib".?ValidatePid@CProductKeyModule@@AEAAJXZ
  ?ValidateProductKey@CProductKeyModule@@UEAAHPEAXPEAGP6AX0_K@Z@Z="C:\Windows\System32\uxlib".?ValidateProductKey@CProductKeyModule@@UEAAHPEAXPEAGP6AX0_K@Z@Z
  ?s_Instance@CImageData@@0PEAVIImageData@@EA="C:\Windows\System32\uxlib".?s_Instance@CImageData@@0PEAVIImageData@@EA
  ?s_Instance@CLoadDriver@@0PEAVILoadDriver@@EA="C:\Windows\System32\uxlib".?s_Instance@CLoadDriver@@0PEAVILoadDriver@@EA
  ?v_AddBlockedReason@CImageData@@AEAAXPEBG0@Z="C:\Windows\System32\uxlib".?v_AddBlockedReason@CImageData@@AEAAXPEBG0@Z
  ?v_AddLanguage@CImageData@@AEAAXPEBG0H@Z="C:\Windows\System32\uxlib".?v_AddLanguage@CImageData@@AEAAXPEBG0H@Z
  ?v_BuildKey@CImageData@@AEAAPEAGPEBG0@Z="C:\Windows\System32\uxlib".?v_BuildKey@CImageData@@AEAAPEAGPEBG0@Z
  ?v_CopyStr@CImageData@@AEAAPEAGPEBG@Z="C:\Windows\System32\uxlib".?v_CopyStr@CImageData@@AEAAPEAGPEBG@Z
  ?v_DeleteKeyboardLayouts@CKeyboardLayouts@@AEAAXXZ="C:\Windows\System32\uxlib".?v_DeleteKeyboardLayouts@CKeyboardLayouts@@AEAAXXZ
  ?v_DeleteLanguages@CLanguages@@AEAAXXZ="C:\Windows\System32\uxlib".?v_DeleteLanguages@CLanguages@@AEAAXXZ
  ?v_DeleteLayeredDrivers@CLayeredDrivers@@AEAAXXZ="C:\Windows\System32\uxlib".?v_DeleteLayeredDrivers@CLayeredDrivers@@AEAAXXZ
  ?v_EnumLocalesProc@CLocales@@CAHPEAGK_J@Z="C:\Windows\System32\uxlib".?v_EnumLocalesProc@CLocales@@CAHPEAGK_J@Z
  ?v_FreeLanguages@CImageData@@AEAAXXZ="C:\Windows\System32\uxlib".?v_FreeLanguages@CImageData@@AEAAXXZ
  ?v_FreeReasons@CImageData@@AEAAXXZ="C:\Windows\System32\uxlib".?v_FreeReasons@CImageData@@AEAAXXZ
  ?v_GetArchitectureName@CImageData@@AEAAPEAGPEAUHINSTANCE__@@K@Z="C:\Windows\System32\uxlib".?v_GetArchitectureName@CImageData@@AEAAPEAGPEAUHINSTANCE__@@K@Z
  ?v_GetAvailableLanguages@CImageData@@AEAAXPEBG@Z="C:\Windows\System32\uxlib".?v_GetAvailableLanguages@CImageData@@AEAAXPEBG@Z
  ?v_GetBBStr@CImageData@@AEAAPEAGPEBG0@Z="C:\Windows\System32\uxlib".?v_GetBBStr@CImageData@@AEAAPEAGPEBG0@Z
  ?v_GetBBVal@CImageData@@AEAAKPEBG0K@Z="C:\Windows\System32\uxlib".?v_GetBBVal@CImageData@@AEAAKPEBG0K@Z
  ?v_GetBlockedReasons@CImageData@@AEAAXPEBG@Z="C:\Windows\System32\uxlib".?v_GetBlockedReasons@CImageData@@AEAAXPEBG@Z
  ?v_GetLangIniPath@CLanguages@@AEAA?AV?$CStringT@GV?$StrTraitATL@GV?$ChTraitsCRT@G@ATL@@@ATL@@@ATL@@XZ="C:\Windows\System32\uxlib".?v_GetLangIniPath@CLanguages@@AEAA?AV?$CStringT@GV?$StrTraitATL@GV?$ChTraitsCRT@G@ATL@@@ATL@@@ATL@@XZ
  ?v_InitInputProcs@CKeyboardLayouts@@AEAAHXZ="C:\Windows\System32\uxlib".?v_InitInputProcs@CKeyboardLayouts@@AEAAHXZ
  ?v_InitLanguage@CLanguages@@AEAAPEAVCLanguage@@V?$CStringT@GV?$StrTraitATL@GV?$ChTraitsCRT@G@ATL@@@ATL@@@ATL@@@Z="C:\Windows\System32\uxlib".?v_InitLanguage@CLanguages@@AEAAPEAVCLanguage@@V?$CStringT@GV?$StrTraitATL@GV?$ChTraitsCRT@G@ATL@@@ATL@@@ATL@@@Z
  ?v_IsValid@PIDUtilStringView@@AEAAHG@Z="C:\Windows\System32\uxlib".?v_IsValid@PIDUtilStringView@@AEAAHG@Z
  ?v_LoadInputProcs@CKeyboardLayouts@@AEAAHXZ="C:\Windows\System32\uxlib".?v_LoadInputProcs@CKeyboardLayouts@@AEAAHXZ
  ?v_MakePidString@PIDUtilStringView@@AEAAHXZ="C:\Windows\System32\uxlib".?v_MakePidString@PIDUtilStringView@@AEAAHXZ
  ?v_MakeValidString@PIDUtilStringView@@AEAA?AV?$CStringT@GV?$StrTraitATL@GV?$ChTraitsCRT@G@ATL@@@ATL@@@ATL@@PEBG@Z="C:\Windows\System32\uxlib".?v_MakeValidString@PIDUtilStringView@@AEAA?AV?$CStringT@GV?$StrTraitATL@GV?$ChTraitsCRT@G@ATL@@@ATL@@@ATL@@PEBG@Z
  ?v_PopulateKeyboardLayouts@CKeyboardLayouts@@AEAAHXZ="C:\Windows\System32\uxlib".?v_PopulateKeyboardLayouts@CKeyboardLayouts@@AEAAHXZ
  ?v_PopulateLanguages@CLanguages@@AEAAHXZ="C:\Windows\System32\uxlib".?v_PopulateLanguages@CLanguages@@AEAAHXZ
  ?v_PopulateLayeredDrivers@CLayeredDrivers@@AEAAHXZ="C:\Windows\System32\uxlib".?v_PopulateLayeredDrivers@CLayeredDrivers@@AEAAHXZ
  ?v_PopulateLocales@CLocales@@AEAAHXZ="C:\Windows\System32\uxlib".?v_PopulateLocales@CLocales@@AEAAHXZ
