EXPORTS
  ??0?$CVdsHandleImpl@$0?0@@QEAA@XZ="C:\Windows\System32\vdsutil".??0?$CVdsHandleImpl@$0?0@@QEAA@XZ
  ??0CGlobalResource@@QEAA@XZ="C:\Windows\System32\vdsutil".??0CGlobalResource@@QEAA@XZ
  ??0CPrvEnumObject@@QEAA@XZ="C:\Windows\System32\vdsutil".??0CPrvEnumObject@@QEAA@XZ
  ??0CRtlList@@QEAA@P6AXPEAVCRtlEntry@@@Z@Z="C:\Windows\System32\vdsutil".??0CRtlList@@QEAA@P6AXPEAVCRtlEntry@@@Z@Z
  ??0CRtlMap@@QEAA@KP6AXPEAVCRtlEntry@@@Z1@Z="C:\Windows\System32\vdsutil".??0CRtlMap@@QEAA@KP6AXPEAVCRtlEntry@@@Z1@Z
  ??0CRtlSharedLock@@QEAA@XZ="C:\Windows\System32\vdsutil".??0CRtlSharedLock@@QEAA@XZ
  ??0CVdsAsyncObjectBase@@QEAA@XZ="C:\Windows\System32\vdsutil".??0CVdsAsyncObjectBase@@QEAA@XZ
  ??0CVdsCallTracer@@QEAA@KPEBD@Z="C:\Windows\System32\vdsutil".??0CVdsCallTracer@@QEAA@KPEBD@Z
  ??0CVdsCriticalSection@@QEAA@PEAU_RTL_CRITICAL_SECTION@@@Z="C:\Windows\System32\vdsutil".??0CVdsCriticalSection@@QEAA@PEAU_RTL_CRITICAL_SECTION@@@Z
  ??0CVdsPnPNotificationBase@@QEAA@XZ="C:\Windows\System32\vdsutil".??0CVdsPnPNotificationBase@@QEAA@XZ
  ??0CVdsTraceSettings@@QEAA@XZ="C:\Windows\System32\vdsutil".??0CVdsTraceSettings@@QEAA@XZ
  ??0CVdsUnlockIt@@QEAA@AEAJ@Z="C:\Windows\System32\vdsutil".??0CVdsUnlockIt@@QEAA@AEAJ@Z
  ??0CVdsWmiVariantObjectArrayEnum@@QEAA@XZ="C:\Windows\System32\vdsutil".??0CVdsWmiVariantObjectArrayEnum@@QEAA@XZ
  ??1?$CVdsHandleImpl@$0?0@@QEAA@XZ="C:\Windows\System32\vdsutil".??1?$CVdsHandleImpl@$0?0@@QEAA@XZ
  ??1CGlobalResource@@QEAA@XZ="C:\Windows\System32\vdsutil".??1CGlobalResource@@QEAA@XZ
  ??1CPrvEnumObject@@QEAA@XZ="C:\Windows\System32\vdsutil".??1CPrvEnumObject@@QEAA@XZ
  ??1CRtlList@@QEAA@XZ="C:\Windows\System32\vdsutil".??1CRtlList@@QEAA@XZ
  ??1CRtlMap@@UEAA@XZ="C:\Windows\System32\vdsutil".??1CRtlMap@@UEAA@XZ
  ??1CRtlSharedLock@@QEAA@XZ="C:\Windows\System32\vdsutil".??1CRtlSharedLock@@QEAA@XZ
  ??1CVdsAsyncObjectBase@@QEAA@XZ="C:\Windows\System32\vdsutil".??1CVdsAsyncObjectBase@@QEAA@XZ
  ??1CVdsCallTracer@@QEAA@XZ="C:\Windows\System32\vdsutil".??1CVdsCallTracer@@QEAA@XZ
  ??1CVdsCriticalSection@@QEAA@XZ="C:\Windows\System32\vdsutil".??1CVdsCriticalSection@@QEAA@XZ
  ??1CVdsPnPNotificationBase@@QEAA@XZ="C:\Windows\System32\vdsutil".??1CVdsPnPNotificationBase@@QEAA@XZ
  ??1CVdsUnlockIt@@QEAA@XZ="C:\Windows\System32\vdsutil".??1CVdsUnlockIt@@QEAA@XZ
  ??1CVdsWmiVariantObjectArrayEnum@@QEAA@XZ="C:\Windows\System32\vdsutil".??1CVdsWmiVariantObjectArrayEnum@@QEAA@XZ
  ??4?$CVdsHandleImpl@$0?0@@QEAAPEAXPEAX@Z="C:\Windows\System32\vdsutil".??4?$CVdsHandleImpl@$0?0@@QEAAPEAXPEAX@Z
  ??4CRtlList@@QEAAAEAV0@AEAV0@@Z="C:\Windows\System32\vdsutil".??4CRtlList@@QEAAAEAV0@AEAV0@@Z
  ??8?$CVdsHandleImpl@$0?0@@QEBA_NPEAX@Z="C:\Windows\System32\vdsutil".??8?$CVdsHandleImpl@$0?0@@QEBA_NPEAX@Z
  ??B?$CVdsHandleImpl@$0?0@@QEAAPEAXXZ="C:\Windows\System32\vdsutil".??B?$CVdsHandleImpl@$0?0@@QEAAPEAXXZ
  ??_FCRtlList@@QEAAXXZ="C:\Windows\System32\vdsutil".??_FCRtlList@@QEAAXXZ
  ??_FCRtlMap@@QEAAXXZ="C:\Windows\System32\vdsutil".??_FCRtlMap@@QEAAXXZ
  ?AcquireRead@CRtlSharedLock@@AEAAXXZ="C:\Windows\System32\vdsutil".?AcquireRead@CRtlSharedLock@@AEAAXXZ
  ?AcquireWrite@CRtlSharedLock@@AEAAXXZ="C:\Windows\System32\vdsutil".?AcquireWrite@CRtlSharedLock@@AEAAXXZ
  ?AllowCancel@CVdsAsyncObjectBase@@QEAAXXZ="C:\Windows\System32\vdsutil".?AllowCancel@CVdsAsyncObjectBase@@QEAAXXZ
  ?Append@CPrvEnumObject@@QEAAJPEAUIUnknown@@@Z="C:\Windows\System32\vdsutil".?Append@CPrvEnumObject@@QEAAJPEAUIUnknown@@@Z
  ?Attach@CVdsWmiVariantObjectArrayEnum@@QEAAJPEAUtagVARIANT@@@Z="C:\Windows\System32\vdsutil".?Attach@CVdsWmiVariantObjectArrayEnum@@QEAAJPEAUtagVARIANT@@@Z
  ?Begin@CRtlList@@QEAA?AVCRtlListIter@@XZ="C:\Windows\System32\vdsutil".?Begin@CRtlList@@QEAA?AVCRtlListIter@@XZ
  ?Begin@CRtlMap@@QEAA?AVCRtlMapIter@@XZ="C:\Windows\System32\vdsutil".?Begin@CRtlMap@@QEAA?AVCRtlMapIter@@XZ
  ?Cancel@CVdsAsyncObjectBase@@UEAAJXZ="C:\Windows\System32\vdsutil".?Cancel@CVdsAsyncObjectBase@@UEAAJXZ
  ?Clear@CPrvEnumObject@@QEAAXXZ="C:\Windows\System32\vdsutil".?Clear@CPrvEnumObject@@QEAAXXZ
  ?Clone@CPrvEnumObject@@UEAAJPEAPEAUIEnumVdsObject@@@Z="C:\Windows\System32\vdsutil".?Clone@CPrvEnumObject@@UEAAJPEAPEAUIEnumVdsObject@@@Z
  ?CreateListenThread@CVdsPnPNotificationBase@@AEAAKXZ="C:\Windows\System32\vdsutil".?CreateListenThread@CVdsPnPNotificationBase@@AEAAKXZ
  ?CurrentThreadIsWriter@CRtlSharedLock@@QEAAHXZ="C:\Windows\System32\vdsutil".?CurrentThreadIsWriter@CRtlSharedLock@@QEAAHXZ
  ?Detach@CVdsWmiVariantObjectArrayEnum@@QEAAJXZ="C:\Windows\System32\vdsutil".?Detach@CVdsWmiVariantObjectArrayEnum@@QEAAJXZ
  ?DisallowCancel@CVdsAsyncObjectBase@@QEAAXXZ="C:\Windows\System32\vdsutil".?DisallowCancel@CVdsAsyncObjectBase@@QEAAXXZ
  ?Downgrade@CRtlSharedLock@@AEAAXXZ="C:\Windows\System32\vdsutil".?Downgrade@CRtlSharedLock@@AEAAXXZ
  ?End@CRtlList@@QEAA?AVCRtlListIter@@XZ="C:\Windows\System32\vdsutil".?End@CRtlList@@QEAA?AVCRtlListIter@@XZ
  ?Find@CRtlMap@@QEAAHAEAVCRtlEntry@@PEAV2@@Z="C:\Windows\System32\vdsutil".?Find@CRtlMap@@QEAAHAEAVCRtlEntry@@PEAV2@@Z
  ?FindPtr@CRtlMap@@QEAAHAEAVCRtlEntry@@PEAPEAV2@@Z="C:\Windows\System32\vdsutil".?FindPtr@CRtlMap@@QEAAHAEAVCRtlEntry@@PEAPEAV2@@Z
  ?GetEntry@CRtlListIter@@QEAAPEAVCRtlEntry@@XZ="C:\Windows\System32\vdsutil".?GetEntry@CRtlListIter@@QEAAPEAVCRtlEntry@@XZ
  ?GetEntryPointer@CRtlListIter@@QEAAPEAXXZ="C:\Windows\System32\vdsutil".?GetEntryPointer@CRtlListIter@@QEAAPEAXXZ
  ?GetNode@CRtlListIter@@QEAAPEAVCRtlListEntry@@XZ="C:\Windows\System32\vdsutil".?GetNode@CRtlListIter@@QEAAPEAVCRtlListEntry@@XZ
  ?GetOutputType@CVdsAsyncObjectBase@@QEAA?AW4_VDS_ASYNC_OUTPUT_TYPE@@XZ="C:\Windows\System32\vdsutil".?GetOutputType@CVdsAsyncObjectBase@@QEAA?AW4_VDS_ASYNC_OUTPUT_TYPE@@XZ
  ?GetWindowHandle@CVdsPnPNotificationBase@@QEAAPEAUHWND__@@XZ="C:\Windows\System32\vdsutil".?GetWindowHandle@CVdsPnPNotificationBase@@QEAAPEAUHWND__@@XZ
  ?Initialize@CGlobalResource@@QEAAJXZ="C:\Windows\System32\vdsutil".?Initialize@CGlobalResource@@QEAAJXZ
  ?Initialize@CVdsAsyncObjectBase@@SAKXZ="C:\Windows\System32\vdsutil".?Initialize@CVdsAsyncObjectBase@@SAKXZ
  ?Initialize@CVdsPnPNotificationBase@@QEAAKXZ="C:\Windows\System32\vdsutil".?Initialize@CVdsPnPNotificationBase@@QEAAKXZ
  ?Insert@CRtlList@@QEAAHAEAVCRtlListIter@@AEAVCRtlEntry@@@Z="C:\Windows\System32\vdsutil".?Insert@CRtlList@@QEAAHAEAVCRtlListIter@@AEAVCRtlEntry@@@Z
  ?Insert@CRtlMap@@QEAAHAEAVCRtlEntry@@0@Z="C:\Windows\System32\vdsutil".?Insert@CRtlMap@@QEAAHAEAVCRtlEntry@@0@Z
  ?InsertHead@CRtlList@@QEAAHAEAVCRtlEntry@@@Z="C:\Windows\System32\vdsutil".?InsertHead@CRtlList@@QEAAHAEAVCRtlEntry@@@Z
  ?InsertHeadPointer@CRtlList@@QEAAHPEAX@Z="C:\Windows\System32\vdsutil".?InsertHeadPointer@CRtlList@@QEAAHPEAX@Z
  ?InsertPointer@CRtlList@@QEAAHAEAVCRtlListIter@@PEAX@Z="C:\Windows\System32\vdsutil".?InsertPointer@CRtlList@@QEAAHAEAVCRtlListIter@@PEAX@Z
  ?InsertTail@CRtlList@@QEAAHAEAVCRtlEntry@@@Z="C:\Windows\System32\vdsutil".?InsertTail@CRtlList@@QEAAHAEAVCRtlEntry@@@Z
  ?InsertTailPointer@CRtlList@@QEAAHPEAX@Z="C:\Windows\System32\vdsutil".?InsertTailPointer@CRtlList@@QEAAHPEAX@Z
  ?InsertUnique@CRtlMap@@QEAAHAEAVCRtlEntry@@0@Z="C:\Windows\System32\vdsutil".?InsertUnique@CRtlMap@@QEAAHAEAVCRtlEntry@@0@Z
  ?IsCancelRequested@CVdsAsyncObjectBase@@QEAAHXZ="C:\Windows\System32\vdsutil".?IsCancelRequested@CVdsAsyncObjectBase@@QEAAHXZ
  ?IsDone@CRtlListIter@@QEAAHXZ="C:\Windows\System32\vdsutil".?IsDone@CRtlListIter@@QEAAHXZ
  ?IsFinished@CVdsAsyncObjectBase@@QEAAHXZ="C:\Windows\System32\vdsutil".?IsFinished@CVdsAsyncObjectBase@@QEAAHXZ
  ?Next@CPrvEnumObject@@UEAAJKPEAPEAUIUnknown@@PEAK@Z="C:\Windows\System32\vdsutil".?Next@CPrvEnumObject@@UEAAJKPEAPEAUIUnknown@@PEAK@Z
  ?Next@CRtlListIter@@QEAAAEAV1@XZ="C:\Windows\System32\vdsutil".?Next@CRtlListIter@@QEAAAEAV1@XZ
  ?Next@CRtlMapIter@@QEAAAEAV1@XZ="C:\Windows\System32\vdsutil".?Next@CRtlMapIter@@QEAAAEAV1@XZ
  ?Next@CVdsWmiVariantObjectArrayEnum@@QEAAJPEAPEAUIWbemClassObject@@@Z="C:\Windows\System32\vdsutil".?Next@CVdsWmiVariantObjectArrayEnum@@QEAAJPEAPEAUIWbemClassObject@@@Z
  ?NotificationThread@CVdsPnPNotificationBase@@AEAAKPEAX@Z="C:\Windows\System32\vdsutil".?NotificationThread@CVdsPnPNotificationBase@@AEAAKPEAX@Z
  ?NotificationThreadEntry@CVdsPnPNotificationBase@@CAKPEAX@Z="C:\Windows\System32\vdsutil".?NotificationThreadEntry@CVdsPnPNotificationBase@@CAKPEAX@Z
  ?Prev@CRtlListIter@@QEAAAEAV1@XZ="C:\Windows\System32\vdsutil".?Prev@CRtlListIter@@QEAAAEAV1@XZ
  ?QueryStatus@CVdsAsyncObjectBase@@UEAAJPEAJPEAK@Z="C:\Windows\System32\vdsutil".?QueryStatus@CVdsAsyncObjectBase@@UEAAJPEAJPEAK@Z
  ?Register@CVdsPnPNotificationBase@@QEAAKPEAU_NotificationListeningRequest@@K@Z="C:\Windows\System32\vdsutil".?Register@CVdsPnPNotificationBase@@QEAAKPEAU_NotificationListeningRequest@@K@Z
  ?RegisterHandle@CVdsPnPNotificationBase@@QEAAKPEAXPEAPEAX@Z="C:\Windows\System32\vdsutil".?RegisterHandle@CVdsPnPNotificationBase@@QEAAKPEAXPEAPEAX@Z
  ?Release@CRtlSharedLock@@AEAAXXZ="C:\Windows\System32\vdsutil".?Release@CRtlSharedLock@@AEAAXXZ
  ?Remove@CRtlList@@QEAAXAEAVCRtlListIter@@@Z="C:\Windows\System32\vdsutil".?Remove@CRtlList@@QEAAXAEAVCRtlListIter@@@Z
  ?Remove@CRtlMap@@QEAAHAEAVCRtlEntry@@@Z="C:\Windows\System32\vdsutil".?Remove@CRtlMap@@QEAAHAEAVCRtlEntry@@@Z
  ?RemoveAll@CRtlList@@QEAAXXZ="C:\Windows\System32\vdsutil".?RemoveAll@CRtlList@@QEAAXXZ
  ?RemoveAll@CRtlMap@@QEAAXH@Z="C:\Windows\System32\vdsutil".?RemoveAll@CRtlMap@@QEAAXH@Z
  ?Reset@CPrvEnumObject@@UEAAJXZ="C:\Windows\System32\vdsutil".?Reset@CPrvEnumObject@@UEAAJXZ
  ?Reset@CVdsWmiVariantObjectArrayEnum@@QEAAJXZ="C:\Windows\System32\vdsutil".?Reset@CVdsWmiVariantObjectArrayEnum@@QEAAJXZ
  ?SetCompletionStatus@CVdsAsyncObjectBase@@QEAAXJK@Z="C:\Windows\System32\vdsutil".?SetCompletionStatus@CVdsAsyncObjectBase@@QEAAXJK@Z
  ?SetOutput@CVdsAsyncObjectBase@@QEAAXU_VDS_ASYNC_OUTPUT@@@Z="C:\Windows\System32\vdsutil".?SetOutput@CVdsAsyncObjectBase@@QEAAXU_VDS_ASYNC_OUTPUT@@@Z
  ?SetOutputType@CVdsAsyncObjectBase@@QEAAXW4_VDS_ASYNC_OUTPUT_TYPE@@@Z="C:\Windows\System32\vdsutil".?SetOutputType@CVdsAsyncObjectBase@@QEAAXW4_VDS_ASYNC_OUTPUT_TYPE@@@Z
  ?SetPositionToLast@CPrvEnumObject@@QEAAXXZ="C:\Windows\System32\vdsutil".?SetPositionToLast@CPrvEnumObject@@QEAAXXZ
  ?Signal@CVdsAsyncObjectBase@@QEAAXXZ="C:\Windows\System32\vdsutil".?Signal@CVdsAsyncObjectBase@@QEAAXXZ
  ?Skip@CPrvEnumObject@@UEAAJK@Z="C:\Windows\System32\vdsutil".?Skip@CPrvEnumObject@@UEAAJK@Z
  ?Uninitialize@CVdsAsyncObjectBase@@SAXXZ="C:\Windows\System32\vdsutil".?Uninitialize@CVdsAsyncObjectBase@@SAXXZ
  ?Uninitialize@CVdsPnPNotificationBase@@QEAAXXZ="C:\Windows\System32\vdsutil".?Uninitialize@CVdsPnPNotificationBase@@QEAAXXZ
  ?Unregister@CVdsPnPNotificationBase@@QEAAXPEAU_NotificationListeningRequest@@@Z="C:\Windows\System32\vdsutil".?Unregister@CVdsPnPNotificationBase@@QEAAXPEAU_NotificationListeningRequest@@@Z
  ?UnregisterHandle@CVdsPnPNotificationBase@@QEAAXPEAX@Z="C:\Windows\System32\vdsutil".?UnregisterHandle@CVdsPnPNotificationBase@@QEAAXPEAX@Z
  ?Upgrade@CRtlSharedLock@@AEAAXXZ="C:\Windows\System32\vdsutil".?Upgrade@CRtlSharedLock@@AEAAXXZ
  ?WaitImpl@CVdsAsyncObjectBase@@QEAAJPEAJ@Z="C:\Windows\System32\vdsutil".?WaitImpl@CVdsAsyncObjectBase@@QEAAJPEAJ@Z
  ?WindowProcEntry@CVdsPnPNotificationBase@@CA_JPEAUHWND__@@I_K_J@Z="C:\Windows\System32\vdsutil".?WindowProcEntry@CVdsPnPNotificationBase@@CA_JPEAUHWND__@@I_K_J@Z
  ?ZeroAsyncOut@CVdsAsyncObjectBase@@QEAAXXZ="C:\Windows\System32\vdsutil".?ZeroAsyncOut@CVdsAsyncObjectBase@@QEAAXXZ
  ?m_ExtraLogging@CVdsTraceSettings@@QEAAHXZ="C:\Windows\System32\vdsutil".?m_ExtraLogging@CVdsTraceSettings@@QEAAHXZ
  ?m_NoDebuggerLogging@CVdsTraceSettings@@QEAAHXZ="C:\Windows\System32\vdsutil".?m_NoDebuggerLogging@CVdsTraceSettings@@QEAAHXZ
  AcquireRundownProtection="C:\Windows\System32\vdsutil".AcquireRundownProtection
  AddEventSource="C:\Windows\System32\vdsutil".AddEventSource
  AllocateAndGetVolumePathName="C:\Windows\System32\vdsutil".AllocateAndGetVolumePathName
  AssignTempVolumeName="C:\Windows\System32\vdsutil".AssignTempVolumeName
  BacksBootVolume="C:\Windows\System32\vdsutil".BacksBootVolume
  BootBackedByWim="C:\Windows\System32\vdsutil".BootBackedByWim
  CoFreeStringArray="C:\Windows\System32\vdsutil".CoFreeStringArray
  CreateDeviceInfoSet="C:\Windows\System32\vdsutil".CreateDeviceInfoSet
  DeleteBcdObjects="C:\Windows\System32\vdsutil".DeleteBcdObjects
  DeleteNetworkShare="C:\Windows\System32\vdsutil".DeleteNetworkShare
  DllMain="C:\Windows\System32\vdsutil".DllMain
  GarbageCollectDriveLetters="C:\Windows\System32\vdsutil".GarbageCollectDriveLetters
  GetBootDiskNumber="C:\Windows\System32\vdsutil".GetBootDiskNumber
  GetBootFromDiskNumber="C:\Windows\System32\vdsutil".GetBootFromDiskNumber
  GetBootVolumeHandle="C:\Windows\System32\vdsutil".GetBootVolumeHandle
  GetDefaultAlignment="C:\Windows\System32\vdsutil".GetDefaultAlignment
  GetDeviceAndMediaType="C:\Windows\System32\vdsutil".GetDeviceAndMediaType
  GetDeviceId="C:\Windows\System32\vdsutil".GetDeviceId
  GetDeviceLocation="C:\Windows\System32\vdsutil".GetDeviceLocation
  GetDeviceLocationEx="C:\Windows\System32\vdsutil".GetDeviceLocationEx
  GetDeviceLocationPath="C:\Windows\System32\vdsutil".GetDeviceLocationPath
  GetDeviceManufacturerInfo="C:\Windows\System32\vdsutil".GetDeviceManufacturerInfo
  GetDeviceName="C:\Windows\System32\vdsutil".GetDeviceName
  GetDeviceNumber="C:\Windows\System32\vdsutil".GetDeviceNumber
  GetDeviceRegistryPropertyByInfo="C:\Windows\System32\vdsutil".GetDeviceRegistryPropertyByInfo
  GetDeviceRegistryPropertyByInst="C:\Windows\System32\vdsutil".GetDeviceRegistryPropertyByInst
  GetDiskFlags="C:\Windows\System32\vdsutil".GetDiskFlags
  GetDiskIdentifiers="C:\Windows\System32\vdsutil".GetDiskIdentifiers
  GetDiskLayout="C:\Windows\System32\vdsutil".GetDiskLayout
  GetDiskOfflineReason="C:\Windows\System32\vdsutil".GetDiskOfflineReason
  GetDiskRedundancyCount="C:\Windows\System32\vdsutil".GetDiskRedundancyCount
  GetFMIFSEnableCompressionRoutine="C:\Windows\System32\vdsutil".GetFMIFSEnableCompressionRoutine
  GetFMIFSFormatEx2Routine="C:\Windows\System32\vdsutil".GetFMIFSFormatEx2Routine
  GetFMIFSGetDefaultFilesystemRoutine="C:\Windows\System32\vdsutil".GetFMIFSGetDefaultFilesystemRoutine
  GetFMIFSQueryDeviceInfo="C:\Windows\System32\vdsutil".GetFMIFSQueryDeviceInfo
  GetFMIFSQueryDeviceInfoByHandle="C:\Windows\System32\vdsutil".GetFMIFSQueryDeviceInfoByHandle
  GetFileSystemRecognitionName="C:\Windows\System32\vdsutil".GetFileSystemRecognitionName
  GetInterfaceDetailData="C:\Windows\System32\vdsutil".GetInterfaceDetailData
  GetIsRemovable="C:\Windows\System32\vdsutil".GetIsRemovable
  GetMediaGeometry="C:\Windows\System32\vdsutil".GetMediaGeometry
  GetMediaGeometryEx="C:\Windows\System32\vdsutil".GetMediaGeometryEx
  GetPartitionInformation="C:\Windows\System32\vdsutil".GetPartitionInformation
  GetRegistryValue="C:\Windows\System32\vdsutil".GetRegistryValue
  GetStorageAccessAlignmentProperty="C:\Windows\System32\vdsutil".GetStorageAccessAlignmentProperty
  GetSystemVolumeHandle="C:\Windows\System32\vdsutil".GetSystemVolumeHandle
  GetVolumeDiskExtentInfo="C:\Windows\System32\vdsutil".GetVolumeDiskExtentInfo
  GetVolumeGuidPathnames="C:\Windows\System32\vdsutil".GetVolumeGuidPathnames
  GetVolumeName="C:\Windows\System32\vdsutil".GetVolumeName
  GetVolumePath="C:\Windows\System32\vdsutil".GetVolumePath
  GetVolumeSize="C:\Windows\System32\vdsutil".GetVolumeSize
  GetVolumeUniqueId="C:\Windows\System32\vdsutil".GetVolumeUniqueId
  GuidToString="C:\Windows\System32\vdsutil".GuidToString
  InitializeRundownProtection="C:\Windows\System32\vdsutil".InitializeRundownProtection
  InitializeSecurityDescriptorHelper="C:\Windows\System32\vdsutil".InitializeSecurityDescriptorHelper
  InvalidateDiskCache="C:\Windows\System32\vdsutil".InvalidateDiskCache
  IoctlMountmgrQueryPointsDevicePath="C:\Windows\System32\vdsutil".IoctlMountmgrQueryPointsDevicePath
  IsClientSKU="C:\Windows\System32\vdsutil".IsClientSKU
  IsDeviceFullyInstalled="C:\Windows\System32\vdsutil".IsDeviceFullyInstalled
  IsDiskClustered="C:\Windows\System32\vdsutil".IsDiskClustered
  IsDiskCurrentStateReadOnly="C:\Windows\System32\vdsutil".IsDiskCurrentStateReadOnly
  IsDiskReadOnly="C:\Windows\System32\vdsutil".IsDiskReadOnly
  IsDriveLetter="C:\Windows\System32\vdsutil".IsDriveLetter
  IsEfiFirmware="C:\Windows\System32\vdsutil".IsEfiFirmware
  IsLocalComputer="C:\Windows\System32\vdsutil".IsLocalComputer
  IsMediaPresent="C:\Windows\System32\vdsutil".IsMediaPresent
  IsNoAutoMount="C:\Windows\System32\vdsutil".IsNoAutoMount
  IsRamDrive="C:\Windows\System32\vdsutil".IsRamDrive
  IsRunningOnAMD64="C:\Windows\System32\vdsutil".IsRunningOnAMD64
  IsVdsLoggingEnabled="C:\Windows\System32\vdsutil".IsVdsLoggingEnabled
  IsWinPE="C:\Windows\System32\vdsutil".IsWinPE
  LockDismountVolume="C:\Windows\System32\vdsutil".LockDismountVolume
  LockVolume="C:\Windows\System32\vdsutil".LockVolume
  LogError="C:\Windows\System32\vdsutil".LogError
  LogEvent="C:\Windows\System32\vdsutil".LogEvent
  LogInfo="C:\Windows\System32\vdsutil".LogInfo
  LogWarning="C:\Windows\System32\vdsutil".LogWarning
  MirrorBcdObjects="C:\Windows\System32\vdsutil".MirrorBcdObjects
  MountVolume="C:\Windows\System32\vdsutil".MountVolume
  OpenDevice="C:\Windows\System32\vdsutil".OpenDevice
  QueryObjects="C:\Windows\System32\vdsutil".QueryObjects
  QueryVolPersistentState="C:\Windows\System32\vdsutil".QueryVolPersistentState
  ReInitializeRundownProtection="C:\Windows\System32\vdsutil".ReInitializeRundownProtection
  RegisterProvider="C:\Windows\System32\vdsutil".RegisterProvider
  ReleaseRundownProtection="C:\Windows\System32\vdsutil".ReleaseRundownProtection
  RemoveEventSource="C:\Windows\System32\vdsutil".RemoveEventSource
  RemoveTempVolumeName="C:\Windows\System32\vdsutil".RemoveTempVolumeName
  RundownCompleted="C:\Windows\System32\vdsutil".RundownCompleted
  SetDiskLayout="C:\Windows\System32\vdsutil".SetDiskLayout
  StartReferenceHistory="C:\Windows\System32\vdsutil".StartReferenceHistory
  StopReferenceHistory="C:\Windows\System32\vdsutil".StopReferenceHistory
  UnInitializeGlobalResouce="C:\Windows\System32\vdsutil".UnInitializeGlobalResouce
  UnregisterProvider="C:\Windows\System32\vdsutil".UnregisterProvider
  VdsAllocateEmptyString="C:\Windows\System32\vdsutil".VdsAllocateEmptyString
  VdsAllocateString="C:\Windows\System32\vdsutil".VdsAllocateString
  VdsAssert="C:\Windows\System32\vdsutil".VdsAssert
  VdsDisableCOMFatalExceptionHandling="C:\Windows\System32\vdsutil".VdsDisableCOMFatalExceptionHandling
  VdsDoesDiskHaveArcPath="C:\Windows\System32\vdsutil".VdsDoesDiskHaveArcPath
  VdsHeapAlloc="C:\Windows\System32\vdsutil".VdsHeapAlloc
  VdsHeapFree="C:\Windows\System32\vdsutil".VdsHeapFree
  VdsInitializeCriticalSection="C:\Windows\System32\vdsutil".VdsInitializeCriticalSection
  VdsIscsiCacheSessionDevices="C:\Windows\System32\vdsutil".VdsIscsiCacheSessionDevices
  VdsIscsiCheckEqualIpAddress="C:\Windows\System32\vdsutil".VdsIscsiCheckEqualIpAddress
  VdsIscsiGetIpAddressFromInstance="C:\Windows\System32\vdsutil".VdsIscsiGetIpAddressFromInstance
  VdsIscsiIpAddressToIpsecId="C:\Windows\System32\vdsutil".VdsIscsiIpAddressToIpsecId
  VdsIscsiIpAddressToString="C:\Windows\System32\vdsutil".VdsIscsiIpAddressToString
  VdsIscsiIpsecIdToIpAddress="C:\Windows\System32\vdsutil".VdsIscsiIpsecIdToIpAddress
  VdsIscsiIsIscsiLun="C:\Windows\System32\vdsutil".VdsIscsiIsIscsiLun
  VdsIscsiSetIpAddressInInstance="C:\Windows\System32\vdsutil".VdsIscsiSetIpAddressInInstance
  VdsTrace="C:\Windows\System32\vdsutil".VdsTrace
  VdsTraceEx="C:\Windows\System32\vdsutil".VdsTraceEx
  VdsTraceExHelper="C:\Windows\System32\vdsutil".VdsTraceExHelper
  VdsTraceExW="C:\Windows\System32\vdsutil".VdsTraceExW
  VdsTraceExWHelper="C:\Windows\System32\vdsutil".VdsTraceExWHelper
  VdsTraceW="C:\Windows\System32\vdsutil".VdsTraceW
  VdsWmiCallMethod="C:\Windows\System32\vdsutil".VdsWmiCallMethod
  VdsWmiConnectToNamespace="C:\Windows\System32\vdsutil".VdsWmiConnectToNamespace
  VdsWmiCopyFromVariantByteArray="C:\Windows\System32\vdsutil".VdsWmiCopyFromVariantByteArray
  VdsWmiCopyToVariantByteArray="C:\Windows\System32\vdsutil".VdsWmiCopyToVariantByteArray
  VdsWmiCreateClassInstance="C:\Windows\System32\vdsutil".VdsWmiCreateClassInstance
  VdsWmiCreateVariantArray="C:\Windows\System32\vdsutil".VdsWmiCreateVariantArray
  VdsWmiFindInstanceOfClass="C:\Windows\System32\vdsutil".VdsWmiFindInstanceOfClass
  VdsWmiGetBoolFromInstance="C:\Windows\System32\vdsutil".VdsWmiGetBoolFromInstance
  VdsWmiGetByteFromInstance="C:\Windows\System32\vdsutil".VdsWmiGetByteFromInstance
  VdsWmiGetByteInVariantByteArray="C:\Windows\System32\vdsutil".VdsWmiGetByteInVariantByteArray
  VdsWmiGetMethodArgumentObject="C:\Windows\System32\vdsutil".VdsWmiGetMethodArgumentObject
  VdsWmiGetObjectFromInstance="C:\Windows\System32\vdsutil".VdsWmiGetObjectFromInstance
  VdsWmiGetObjectInVariantObjectArray="C:\Windows\System32\vdsutil".VdsWmiGetObjectInVariantObjectArray
  VdsWmiGetUlongFromInstance="C:\Windows\System32\vdsutil".VdsWmiGetUlongFromInstance
  VdsWmiGetUlonglongFromInstance="C:\Windows\System32\vdsutil".VdsWmiGetUlonglongFromInstance
  VdsWmiSetBoolInInstance="C:\Windows\System32\vdsutil".VdsWmiSetBoolInInstance
  VdsWmiSetByteInInstance="C:\Windows\System32\vdsutil".VdsWmiSetByteInInstance
  VdsWmiSetObjectInInstance="C:\Windows\System32\vdsutil".VdsWmiSetObjectInInstance
  VdsWmiSetStringInInstance="C:\Windows\System32\vdsutil".VdsWmiSetStringInInstance
  VdsWmiSetUlongInInstance="C:\Windows\System32\vdsutil".VdsWmiSetUlongInInstance
  VdsWmiSetUlonglongInInstance="C:\Windows\System32\vdsutil".VdsWmiSetUlonglongInInstance
  WaitForRundownProtectionRelease="C:\Windows\System32\vdsutil".WaitForRundownProtectionRelease
  WriteBootCode="C:\Windows\System32\vdsutil".WriteBootCode
