EXPORTS
  ??0?$CLockableFlexArray@VCStaticCritSec@@@@QEAA@$$QEAV0@@Z="C:\Windows\System32\wbemcomn".??0?$CLockableFlexArray@VCStaticCritSec@@@@QEAA@$$QEAV0@@Z
  ??0?$CLockableFlexArray@VCStaticCritSec@@@@QEAA@AEAV0@@Z="C:\Windows\System32\wbemcomn".??0?$CLockableFlexArray@VCStaticCritSec@@@@QEAA@AEAV0@@Z
  ??0?$CLockableFlexArray@VCStaticCritSec@@@@QEAA@XZ="C:\Windows\System32\wbemcomn".??0?$CLockableFlexArray@VCStaticCritSec@@@@QEAA@XZ
  ??0?$SZLess@PEBG@@QEAA@AEBU0@@Z="C:\Windows\System32\wbemcomn".??0?$SZLess@PEBG@@QEAA@AEBU0@@Z
  ??0?$SZLess@PEBG@@QEAA@XZ="C:\Windows\System32\wbemcomn".??0?$SZLess@PEBG@@QEAA@XZ
  ??0C9XAce@@QEAA@AEBV0@@Z="C:\Windows\System32\wbemcomn".??0C9XAce@@QEAA@AEBV0@@Z
  ??0C9XAce@@QEAA@KKKPEAG@Z="C:\Windows\System32\wbemcomn".??0C9XAce@@QEAA@KKKPEAG@Z
  ??0C9XAce@@QEAA@XZ="C:\Windows\System32\wbemcomn".??0C9XAce@@QEAA@XZ
  ??0CAbstractQl1Parser@@QEAA@AEBV0@@Z="C:\Windows\System32\wbemcomn".??0CAbstractQl1Parser@@QEAA@AEBV0@@Z
  ??0CAbstractQl1Parser@@QEAA@PEAVCGenLexSource@@@Z="C:\Windows\System32\wbemcomn".??0CAbstractQl1Parser@@QEAA@PEAVCGenLexSource@@@Z
  ??0CArena@@QEAA@$$QEAV0@@Z="C:\Windows\System32\wbemcomn".??0CArena@@QEAA@$$QEAV0@@Z
  ??0CArena@@QEAA@AEBV0@@Z="C:\Windows\System32\wbemcomn".??0CArena@@QEAA@AEBV0@@Z
  ??0CArena@@QEAA@XZ="C:\Windows\System32\wbemcomn".??0CArena@@QEAA@XZ
  ??0CBaseAce@@QEAA@AEBV0@@Z="C:\Windows\System32\wbemcomn".??0CBaseAce@@QEAA@AEBV0@@Z
  ??0CBaseAce@@QEAA@XZ="C:\Windows\System32\wbemcomn".??0CBaseAce@@QEAA@XZ
  ??0CBasicUnloadInstruction@@IEAA@XZ="C:\Windows\System32\wbemcomn".??0CBasicUnloadInstruction@@IEAA@XZ
  ??0CBasicUnloadInstruction@@QEAA@AEBV0@@Z="C:\Windows\System32\wbemcomn".??0CBasicUnloadInstruction@@QEAA@AEBV0@@Z
  ??0CBasicUnloadInstruction@@QEAA@VCWbemInterval@@@Z="C:\Windows\System32\wbemcomn".??0CBasicUnloadInstruction@@QEAA@VCWbemInterval@@@Z
  ??0CBuffer@@QEAA@AEBV0@@Z="C:\Windows\System32\wbemcomn".??0CBuffer@@QEAA@AEBV0@@Z
  ??0CBuffer@@QEAA@PEAEKH@Z="C:\Windows\System32\wbemcomn".??0CBuffer@@QEAA@PEAEKH@Z
  ??0CCheckedInCritSec@@QEAA@PEAVCCritSec@@@Z="C:\Windows\System32\wbemcomn".??0CCheckedInCritSec@@QEAA@PEAVCCritSec@@@Z
  ??0CCircularQueue@@QEAA@XZ="C:\Windows\System32\wbemcomn".??0CCircularQueue@@QEAA@XZ
  ??0CClientOpsNode@@QEAA@XZ="C:\Windows\System32\wbemcomn".??0CClientOpsNode@@QEAA@XZ
  ??0CContainerControl@@QEAA@$$QEAV0@@Z="C:\Windows\System32\wbemcomn".??0CContainerControl@@QEAA@$$QEAV0@@Z
  ??0CContainerControl@@QEAA@AEBV0@@Z="C:\Windows\System32\wbemcomn".??0CContainerControl@@QEAA@AEBV0@@Z
  ??0CContainerControl@@QEAA@PEAUIUnknown@@@Z="C:\Windows\System32\wbemcomn".??0CContainerControl@@QEAA@PEAUIUnknown@@@Z
  ??0CCritSec@@QEAA@XZ="C:\Windows\System32\wbemcomn".??0CCritSec@@QEAA@XZ
  ??0CDMTFParser@@QEAA@PEBG@Z="C:\Windows\System32\wbemcomn".??0CDMTFParser@@QEAA@PEBG@Z
  ??0CDatePart@@QEAA@XZ="C:\Windows\System32\wbemcomn".??0CDatePart@@QEAA@XZ
  ??0CDateTimeParser@@IEAA@XZ="C:\Windows\System32\wbemcomn".??0CDateTimeParser@@IEAA@XZ
  ??0CDateTimeParser@@QEAA@PEBG@Z="C:\Windows\System32\wbemcomn".??0CDateTimeParser@@QEAA@PEBG@Z
  ??0CEnterWbemCriticalSection@@QEAA@PEAVCWbemCriticalSection@@K@Z="C:\Windows\System32\wbemcomn".??0CEnterWbemCriticalSection@@QEAA@PEAVCWbemCriticalSection@@K@Z
  ??0CEventLog@@QEAA@AEBV0@@Z="C:\Windows\System32\wbemcomn".??0CEventLog@@QEAA@AEBV0@@Z
  ??0CEventLog@@QEAA@PEBGAEBU_GUID@@K@Z="C:\Windows\System32\wbemcomn".??0CEventLog@@QEAA@PEBGAEBU_GUID@@K@Z
  ??0CEventLogRecord@@QEAA@AEAV0@@Z="C:\Windows\System32\wbemcomn".??0CEventLogRecord@@QEAA@AEAV0@@Z
  ??0CEventLogRecord@@QEAA@GAEBU_EVENT_DESCRIPTOR@@VCInsertionString@@111111111@Z="C:\Windows\System32\wbemcomn".??0CEventLogRecord@@QEAA@GAEBU_EVENT_DESCRIPTOR@@VCInsertionString@@111111111@Z
  ??0CExecQueue@@QEAA@AEAV0@@Z="C:\Windows\System32\wbemcomn".??0CExecQueue@@QEAA@AEAV0@@Z
  ??0CExecQueue@@QEAA@XZ="C:\Windows\System32\wbemcomn".??0CExecQueue@@QEAA@XZ
  ??0CExecRequest@@QEAA@AEBV0@@Z="C:\Windows\System32\wbemcomn".??0CExecRequest@@QEAA@AEBV0@@Z
  ??0CExecRequest@@QEAA@XZ="C:\Windows\System32\wbemcomn".??0CExecRequest@@QEAA@XZ
  ??0CFlexArray@@QEAA@AEAV0@@Z="C:\Windows\System32\wbemcomn".??0CFlexArray@@QEAA@AEAV0@@Z
  ??0CFlexArray@@QEAA@HH@Z="C:\Windows\System32\wbemcomn".??0CFlexArray@@QEAA@HH@Z
  ??0CFlexQueue@@QEAA@H@Z="C:\Windows\System32\wbemcomn".??0CFlexQueue@@QEAA@H@Z
  ??0CHaltable@@QEAA@AEBV0@@Z="C:\Windows\System32\wbemcomn".??0CHaltable@@QEAA@AEBV0@@Z
  ??0CHaltable@@QEAA@XZ="C:\Windows\System32\wbemcomn".??0CHaltable@@QEAA@XZ
  ??0CHex@@QEAA@J@Z="C:\Windows\System32\wbemcomn".??0CHex@@QEAA@J@Z
  ??0CIdentitySecurity@@QEAA@AEBV0@@Z="C:\Windows\System32\wbemcomn".??0CIdentitySecurity@@QEAA@AEBV0@@Z
  ??0CIdentitySecurity@@QEAA@_N@Z="C:\Windows\System32\wbemcomn".??0CIdentitySecurity@@QEAA@_N@Z
  ??0CIdentityTest@@QEAA@AEBV0@@Z="C:\Windows\System32\wbemcomn".??0CIdentityTest@@QEAA@AEBV0@@Z
  ??0CIdentityTest@@QEAA@PEAVCTimerInstruction@@@Z="C:\Windows\System32\wbemcomn".??0CIdentityTest@@QEAA@PEAVCTimerInstruction@@@Z
  ??0CInCritSec@@QEAA@PEAU_RTL_CRITICAL_SECTION@@@Z="C:\Windows\System32\wbemcomn".??0CInCritSec@@QEAA@PEAU_RTL_CRITICAL_SECTION@@@Z
  ??0CInsertionString@@QEAA@$$QEAV0@@Z="C:\Windows\System32\wbemcomn".??0CInsertionString@@QEAA@$$QEAV0@@Z
  ??0CInsertionString@@QEAA@AEBV0@@Z="C:\Windows\System32\wbemcomn".??0CInsertionString@@QEAA@AEBV0@@Z
  ??0CInsertionString@@QEAA@J@Z="C:\Windows\System32\wbemcomn".??0CInsertionString@@QEAA@J@Z
  ??0CInsertionString@@QEAA@PEBD@Z="C:\Windows\System32\wbemcomn".??0CInsertionString@@QEAA@PEBD@Z
  ??0CInsertionString@@QEAA@PEBG@Z="C:\Windows\System32\wbemcomn".??0CInsertionString@@QEAA@PEBG@Z
  ??0CInsertionString@@QEAA@VCHex@@@Z="C:\Windows\System32\wbemcomn".??0CInsertionString@@QEAA@VCHex@@@Z
  ??0CInsertionString@@QEAA@XZ="C:\Windows\System32\wbemcomn".??0CInsertionString@@QEAA@XZ
  ??0CInstructionQueue@@QEAA@XZ="C:\Windows\System32\wbemcomn".??0CInstructionQueue@@QEAA@XZ
  ??0CInstructionTest@@QEAA@$$QEAV0@@Z="C:\Windows\System32\wbemcomn".??0CInstructionTest@@QEAA@$$QEAV0@@Z
  ??0CInstructionTest@@QEAA@AEBV0@@Z="C:\Windows\System32\wbemcomn".??0CInstructionTest@@QEAA@AEBV0@@Z
  ??0CInstructionTest@@QEAA@XZ="C:\Windows\System32\wbemcomn".??0CInstructionTest@@QEAA@XZ
  ??0CLifeControl@@QEAA@$$QEAV0@@Z="C:\Windows\System32\wbemcomn".??0CLifeControl@@QEAA@$$QEAV0@@Z
  ??0CLifeControl@@QEAA@AEBV0@@Z="C:\Windows\System32\wbemcomn".??0CLifeControl@@QEAA@AEBV0@@Z
  ??0CLifeControl@@QEAA@XZ="C:\Windows\System32\wbemcomn".??0CLifeControl@@QEAA@XZ
  ??0CLike@@QEAA@AEBV0@@Z="C:\Windows\System32\wbemcomn".??0CLike@@QEAA@AEBV0@@Z
  ??0CLike@@QEAA@PEBGG@Z="C:\Windows\System32\wbemcomn".??0CLike@@QEAA@PEBGG@Z
  ??0CLike@@QEAA@XZ="C:\Windows\System32\wbemcomn".??0CLike@@QEAA@XZ
  ??0CLimitControl@@QEAA@AEBV0@@Z="C:\Windows\System32\wbemcomn".??0CLimitControl@@QEAA@AEBV0@@Z
  ??0CLimitControl@@QEAA@XZ="C:\Windows\System32\wbemcomn".??0CLimitControl@@QEAA@XZ
  ??0CMRCICompression@@QEAA@XZ="C:\Windows\System32\wbemcomn".??0CMRCICompression@@QEAA@XZ
  ??0CMRCIControl@@QEAA@XZ="C:\Windows\System32\wbemcomn".??0CMRCIControl@@QEAA@XZ
  ??0CMUILocaleList@@QEAA@XZ="C:\Windows\System32\wbemcomn".??0CMUILocaleList@@QEAA@XZ
  ??0CMemoryLog@@QEAA@XZ="C:\Windows\System32\wbemcomn".??0CMemoryLog@@QEAA@XZ
  ??0CMinMaxLimitControl@@QEAA@$$QEAV0@@Z="C:\Windows\System32\wbemcomn".??0CMinMaxLimitControl@@QEAA@$$QEAV0@@Z
  ??0CMinMaxLimitControl@@QEAA@AEBV0@@Z="C:\Windows\System32\wbemcomn".??0CMinMaxLimitControl@@QEAA@AEBV0@@Z
  ??0CMinMaxLimitControl@@QEAA@HPEBG@Z="C:\Windows\System32\wbemcomn".??0CMinMaxLimitControl@@QEAA@HPEBG@Z
  ??0CNtAce@@QEAA@AEBV0@@Z="C:\Windows\System32\wbemcomn".??0CNtAce@@QEAA@AEBV0@@Z
  ??0CNtAce@@QEAA@KKKAEAVCNtSid@@@Z="C:\Windows\System32\wbemcomn".??0CNtAce@@QEAA@KKKAEAVCNtSid@@@Z
  ??0CNtAce@@QEAA@KKKPEAG@Z="C:\Windows\System32\wbemcomn".??0CNtAce@@QEAA@KKKPEAG@Z
  ??0CNtAce@@QEAA@PEAU_ACCESS_ALLOWED_ACE@@@Z="C:\Windows\System32\wbemcomn".??0CNtAce@@QEAA@PEAU_ACCESS_ALLOWED_ACE@@@Z
  ??0CNtAce@@QEAA@XZ="C:\Windows\System32\wbemcomn".??0CNtAce@@QEAA@XZ
  ??0CNtAcl@@QEAA@AEBV0@@Z="C:\Windows\System32\wbemcomn".??0CNtAcl@@QEAA@AEBV0@@Z
  ??0CNtAcl@@QEAA@K@Z="C:\Windows\System32\wbemcomn".??0CNtAcl@@QEAA@K@Z
  ??0CNtAcl@@QEAA@PEAU_ACL@@@Z="C:\Windows\System32\wbemcomn".??0CNtAcl@@QEAA@PEAU_ACL@@@Z
  ??0CNtSecurityDescriptor@@QEAA@AEAV0@@Z="C:\Windows\System32\wbemcomn".??0CNtSecurityDescriptor@@QEAA@AEAV0@@Z
  ??0CNtSecurityDescriptor@@QEAA@PEAX@Z="C:\Windows\System32\wbemcomn".??0CNtSecurityDescriptor@@QEAA@PEAX@Z
  ??0CNtSecurityDescriptor@@QEAA@XZ="C:\Windows\System32\wbemcomn".??0CNtSecurityDescriptor@@QEAA@XZ
  ??0CNtSid@@QEAA@AEBV0@@Z="C:\Windows\System32\wbemcomn".??0CNtSid@@QEAA@AEBV0@@Z
  ??0CNtSid@@QEAA@PEAG@Z="C:\Windows\System32\wbemcomn".??0CNtSid@@QEAA@PEAG@Z
  ??0CNtSid@@QEAA@PEAX@Z="C:\Windows\System32\wbemcomn".??0CNtSid@@QEAA@PEAX@Z
  ??0CNtSid@@QEAA@W4SidType@0@@Z="C:\Windows\System32\wbemcomn".??0CNtSid@@QEAA@W4SidType@0@@Z
  ??0CNtSid@@QEAA@XZ="C:\Windows\System32\wbemcomn".??0CNtSid@@QEAA@XZ
  ??0CPropertyName@@QEAA@AEBV0@@Z="C:\Windows\System32\wbemcomn".??0CPropertyName@@QEAA@AEBV0@@Z
  ??0CPropertyName@@QEAA@XZ="C:\Windows\System32\wbemcomn".??0CPropertyName@@QEAA@XZ
  ??0CQl1ParseSink@@QEAA@$$QEAV0@@Z="C:\Windows\System32\wbemcomn".??0CQl1ParseSink@@QEAA@$$QEAV0@@Z
  ??0CQl1ParseSink@@QEAA@AEBV0@@Z="C:\Windows\System32\wbemcomn".??0CQl1ParseSink@@QEAA@AEBV0@@Z
  ??0CQl1ParseSink@@QEAA@XZ="C:\Windows\System32\wbemcomn".??0CQl1ParseSink@@QEAA@XZ
  ??0CRegistryMinMaxLimitControl@@QEAA@$$QEAV0@@Z="C:\Windows\System32\wbemcomn".??0CRegistryMinMaxLimitControl@@QEAA@$$QEAV0@@Z
  ??0CRegistryMinMaxLimitControl@@QEAA@AEBV0@@Z="C:\Windows\System32\wbemcomn".??0CRegistryMinMaxLimitControl@@QEAA@AEBV0@@Z
  ??0CRegistryMinMaxLimitControl@@QEAA@HPEBG0000@Z="C:\Windows\System32\wbemcomn".??0CRegistryMinMaxLimitControl@@QEAA@HPEBG0000@Z
  ??0CSafeArray@@QEAA@AEAV0@@Z="C:\Windows\System32\wbemcomn".??0CSafeArray@@QEAA@AEAV0@@Z
  ??0CSafeArray@@QEAA@HHHH@Z="C:\Windows\System32\wbemcomn".??0CSafeArray@@QEAA@HHHH@Z
  ??0CSafeArray@@QEAA@PEAUtagSAFEARRAY@@HHH@Z="C:\Windows\System32\wbemcomn".??0CSafeArray@@QEAA@PEAUtagSAFEARRAY@@HHH@Z
  ??0CStaticCritSec@@QEAA@XZ="C:\Windows\System32\wbemcomn".??0CStaticCritSec@@QEAA@XZ
  ??0CTextTemplate@@QEAA@AEBV0@@Z="C:\Windows\System32\wbemcomn".??0CTextTemplate@@QEAA@AEBV0@@Z
  ??0CTextTemplate@@QEAA@PEBG@Z="C:\Windows\System32\wbemcomn".??0CTextTemplate@@QEAA@PEBG@Z
  ??0CTimerGenerator@@QEAA@AEBV0@@Z="C:\Windows\System32\wbemcomn".??0CTimerGenerator@@QEAA@AEBV0@@Z
  ??0CTimerGenerator@@QEAA@XZ="C:\Windows\System32\wbemcomn".??0CTimerGenerator@@QEAA@XZ
  ??0CTimerInstruction@@QEAA@AEBV0@@Z="C:\Windows\System32\wbemcomn".??0CTimerInstruction@@QEAA@AEBV0@@Z
  ??0CTimerInstruction@@QEAA@XZ="C:\Windows\System32\wbemcomn".??0CTimerInstruction@@QEAA@XZ
  ??0CTraceSessionControl@@QEAA@XZ="C:\Windows\System32\wbemcomn".??0CTraceSessionControl@@QEAA@XZ
  ??0CUnk@@QEAA@AEBV0@@Z="C:\Windows\System32\wbemcomn".??0CUnk@@QEAA@AEBV0@@Z
  ??0CUnk@@QEAA@PEAVCLifeControl@@PEAUIUnknown@@@Z="C:\Windows\System32\wbemcomn".??0CUnk@@QEAA@PEAVCLifeControl@@PEAUIUnknown@@@Z
  ??0CUnkInternal@@QEAA@AEBV0@@Z="C:\Windows\System32\wbemcomn".??0CUnkInternal@@QEAA@AEBV0@@Z
  ??0CUnkInternal@@QEAA@PEAVCLifeControl@@@Z="C:\Windows\System32\wbemcomn".??0CUnkInternal@@QEAA@PEAVCLifeControl@@@Z
  ??0CVar@@QEAA@AEBV0@@Z="C:\Windows\System32\wbemcomn".??0CVar@@QEAA@AEBV0@@Z
  ??0CVar@@QEAA@D@Z="C:\Windows\System32\wbemcomn".??0CVar@@QEAA@D@Z
  ??0CVar@@QEAA@E@Z="C:\Windows\System32\wbemcomn".??0CVar@@QEAA@E@Z
  ??0CVar@@QEAA@F@Z="C:\Windows\System32\wbemcomn".??0CVar@@QEAA@F@Z
  ??0CVar@@QEAA@FH@Z="C:\Windows\System32\wbemcomn".??0CVar@@QEAA@FH@Z
  ??0CVar@@QEAA@G@Z="C:\Windows\System32\wbemcomn".??0CVar@@QEAA@G@Z
  ??0CVar@@QEAA@HPEAG@Z="C:\Windows\System32\wbemcomn".??0CVar@@QEAA@HPEAG@Z
  ??0CVar@@QEAA@HPEAUtagSAFEARRAY@@@Z="C:\Windows\System32\wbemcomn".??0CVar@@QEAA@HPEAUtagSAFEARRAY@@@Z
  ??0CVar@@QEAA@HVauto_bstr@@@Z="C:\Windows\System32\wbemcomn".??0CVar@@QEAA@HVauto_bstr@@@Z
  ??0CVar@@QEAA@J@Z="C:\Windows\System32\wbemcomn".??0CVar@@QEAA@J@Z
  ??0CVar@@QEAA@K@Z="C:\Windows\System32\wbemcomn".??0CVar@@QEAA@K@Z
  ??0CVar@@QEAA@M@Z="C:\Windows\System32\wbemcomn".??0CVar@@QEAA@M@Z
  ??0CVar@@QEAA@N@Z="C:\Windows\System32\wbemcomn".??0CVar@@QEAA@N@Z
  ??0CVar@@QEAA@PEADH@Z="C:\Windows\System32\wbemcomn".??0CVar@@QEAA@PEADH@Z
  ??0CVar@@QEAA@PEAGH@Z="C:\Windows\System32\wbemcomn".??0CVar@@QEAA@PEAGH@Z
  ??0CVar@@QEAA@PEAU_FILETIME@@@Z="C:\Windows\System32\wbemcomn".??0CVar@@QEAA@PEAU_FILETIME@@@Z
  ??0CVar@@QEAA@PEAU_GUID@@H@Z="C:\Windows\System32\wbemcomn".??0CVar@@QEAA@PEAU_GUID@@H@Z
  ??0CVar@@QEAA@PEAUtagBLOB@@H@Z="C:\Windows\System32\wbemcomn".??0CVar@@QEAA@PEAUtagBLOB@@H@Z
  ??0CVar@@QEAA@PEAUtagVARIANT@@@Z="C:\Windows\System32\wbemcomn".??0CVar@@QEAA@PEAUtagVARIANT@@@Z
  ??0CVar@@QEAA@PEAVCVarVector@@H@Z="C:\Windows\System32\wbemcomn".??0CVar@@QEAA@PEAVCVarVector@@H@Z
  ??0CVar@@QEAA@XZ="C:\Windows\System32\wbemcomn".??0CVar@@QEAA@XZ
  ??0CVarVector@@QEAA@AEAV0@@Z="C:\Windows\System32\wbemcomn".??0CVarVector@@QEAA@AEAV0@@Z
  ??0CVarVector@@QEAA@HHH@Z="C:\Windows\System32\wbemcomn".??0CVarVector@@QEAA@HHH@Z
  ??0CVarVector@@QEAA@HPEAUtagSAFEARRAY@@H@Z="C:\Windows\System32\wbemcomn".??0CVarVector@@QEAA@HPEAUtagSAFEARRAY@@H@Z
  ??0CVarVector@@QEAA@XZ="C:\Windows\System32\wbemcomn".??0CVarVector@@QEAA@XZ
  ??0CWMITraceSettings@@QEAA@XZ="C:\Windows\System32\wbemcomn".??0CWMITraceSettings@@QEAA@XZ
  ??0CWQLScanner@@QEAA@AEAV0@@Z="C:\Windows\System32\wbemcomn".??0CWQLScanner@@QEAA@AEAV0@@Z
  ??0CWQLScanner@@QEAA@PEAVCGenLexSource@@@Z="C:\Windows\System32\wbemcomn".??0CWQLScanner@@QEAA@PEAVCGenLexSource@@@Z
  ??0CWStringArray@@QEAA@AEAV0@@Z="C:\Windows\System32\wbemcomn".??0CWStringArray@@QEAA@AEAV0@@Z
  ??0CWStringArray@@QEAA@HH@Z="C:\Windows\System32\wbemcomn".??0CWStringArray@@QEAA@HH@Z
  ??0CWbemCallSecurity@@AEAA@AEBV0@@Z="C:\Windows\System32\wbemcomn".??0CWbemCallSecurity@@AEAA@AEBV0@@Z
  ??0CWbemCallSecurity@@AEAA@XZ="C:\Windows\System32\wbemcomn".??0CWbemCallSecurity@@AEAA@XZ
  ??0CWbemCriticalSection@@QEAA@XZ="C:\Windows\System32\wbemcomn".??0CWbemCriticalSection@@QEAA@XZ
  ??0CWbemInstallObject@@QEAA@XZ="C:\Windows\System32\wbemcomn".??0CWbemInstallObject@@QEAA@XZ
  ??0CWbemInterval@@IEAA@K@Z="C:\Windows\System32\wbemcomn".??0CWbemInterval@@IEAA@K@Z
  ??0CWbemInterval@@QEAA@XZ="C:\Windows\System32\wbemcomn".??0CWbemInterval@@QEAA@XZ
  ??0CWbemTime@@IEAA@_J@Z="C:\Windows\System32\wbemcomn".??0CWbemTime@@IEAA@_J@Z
  ??0CWbemTime@@QEAA@AEBV0@@Z="C:\Windows\System32\wbemcomn".??0CWbemTime@@QEAA@AEBV0@@Z
  ??0CWbemTime@@QEAA@XZ="C:\Windows\System32\wbemcomn".??0CWbemTime@@QEAA@XZ
  ??0CWbemTimeSpan@@QEAA@HHHHHHH@Z="C:\Windows\System32\wbemcomn".??0CWbemTimeSpan@@QEAA@HHHHHHH@Z
  ??0CWin32DefaultArena@@QEAA@AEBV0@@Z="C:\Windows\System32\wbemcomn".??0CWin32DefaultArena@@QEAA@AEBV0@@Z
  ??0CWin32DefaultArena@@QEAA@XZ="C:\Windows\System32\wbemcomn".??0CWin32DefaultArena@@QEAA@XZ
  ??0QL1_Parser@@QEAA@AEBV0@@Z="C:\Windows\System32\wbemcomn".??0QL1_Parser@@QEAA@AEBV0@@Z
  ??0QL1_Parser@@QEAA@PEAVCGenLexSource@@@Z="C:\Windows\System32\wbemcomn".??0QL1_Parser@@QEAA@PEAVCGenLexSource@@@Z
  ??0QL_LEVEL_1_RPN_EXPRESSION@@QEAA@AEBU0@@Z="C:\Windows\System32\wbemcomn".??0QL_LEVEL_1_RPN_EXPRESSION@@QEAA@AEBU0@@Z
  ??0QL_LEVEL_1_RPN_EXPRESSION@@QEAA@XZ="C:\Windows\System32\wbemcomn".??0QL_LEVEL_1_RPN_EXPRESSION@@QEAA@XZ
  ??0QL_LEVEL_1_TOKEN@@QEAA@AEBU0@@Z="C:\Windows\System32\wbemcomn".??0QL_LEVEL_1_TOKEN@@QEAA@AEBU0@@Z
  ??0QL_LEVEL_1_TOKEN@@QEAA@XZ="C:\Windows\System32\wbemcomn".??0QL_LEVEL_1_TOKEN@@QEAA@XZ
  ??0Registry@@QEAA@PEAUHKEY__@@KKPEBG@Z="C:\Windows\System32\wbemcomn".??0Registry@@QEAA@PEAUHKEY__@@KKPEBG@Z
  ??0Registry@@QEAA@PEAUHKEY__@@KPEBG@Z="C:\Windows\System32\wbemcomn".??0Registry@@QEAA@PEAUHKEY__@@KPEBG@Z
  ??0Registry@@QEAA@PEBGK@Z="C:\Windows\System32\wbemcomn".??0Registry@@QEAA@PEBGK@Z
  ??0Registry@@QEAA@XZ="C:\Windows\System32\wbemcomn".??0Registry@@QEAA@XZ
  ??0WString2@@QEAA@AEBV0@@Z="C:\Windows\System32\wbemcomn".??0WString2@@QEAA@AEBV0@@Z
  ??0WString2@@QEAA@KPEAUHINSTANCE__@@@Z="C:\Windows\System32\wbemcomn".??0WString2@@QEAA@KPEAUHINSTANCE__@@@Z
  ??0WString2@@QEAA@PEAGH@Z="C:\Windows\System32\wbemcomn".??0WString2@@QEAA@PEAGH@Z
  ??0WString2@@QEAA@PEBD@Z="C:\Windows\System32\wbemcomn".??0WString2@@QEAA@PEBD@Z
  ??0WString2@@QEAA@PEBG@Z="C:\Windows\System32\wbemcomn".??0WString2@@QEAA@PEBG@Z
  ??0WString2@@QEAA@XZ="C:\Windows\System32\wbemcomn".??0WString2@@QEAA@XZ
  ??0WString2@@QEAA@_K@Z="C:\Windows\System32\wbemcomn".??0WString2@@QEAA@_K@Z
  ??0WString@@QEAA@AEBV0@@Z="C:\Windows\System32\wbemcomn".??0WString@@QEAA@AEBV0@@Z
  ??0WString@@QEAA@KPEAUHINSTANCE__@@@Z="C:\Windows\System32\wbemcomn".??0WString@@QEAA@KPEAUHINSTANCE__@@@Z
  ??0WString@@QEAA@PEAGH@Z="C:\Windows\System32\wbemcomn".??0WString@@QEAA@PEAGH@Z
  ??0WString@@QEAA@PEBD@Z="C:\Windows\System32\wbemcomn".??0WString@@QEAA@PEBD@Z
  ??0WString@@QEAA@PEBG@Z="C:\Windows\System32\wbemcomn".??0WString@@QEAA@PEBG@Z
  ??0WString@@QEAA@XZ="C:\Windows\System32\wbemcomn".??0WString@@QEAA@XZ
  ??1?$CLockableFlexArray@VCStaticCritSec@@@@QEAA@XZ="C:\Windows\System32\wbemcomn".??1?$CLockableFlexArray@VCStaticCritSec@@@@QEAA@XZ
  ??1?$SZLess@PEBG@@UEAA@XZ="C:\Windows\System32\wbemcomn".??1?$SZLess@PEBG@@UEAA@XZ
  ??1C9XAce@@UEAA@XZ="C:\Windows\System32\wbemcomn".??1C9XAce@@UEAA@XZ
  ??1CAbstractQl1Parser@@UEAA@XZ="C:\Windows\System32\wbemcomn".??1CAbstractQl1Parser@@UEAA@XZ
  ??1CBaseAce@@UEAA@XZ="C:\Windows\System32\wbemcomn".??1CBaseAce@@UEAA@XZ
  ??1CBasicUnloadInstruction@@UEAA@XZ="C:\Windows\System32\wbemcomn".??1CBasicUnloadInstruction@@UEAA@XZ
  ??1CBuffer@@QEAA@XZ="C:\Windows\System32\wbemcomn".??1CBuffer@@QEAA@XZ
  ??1CCheckedInCritSec@@QEAA@XZ="C:\Windows\System32\wbemcomn".??1CCheckedInCritSec@@QEAA@XZ
  ??1CClientOpsNode@@QEAA@XZ="C:\Windows\System32\wbemcomn".??1CClientOpsNode@@QEAA@XZ
  ??1CCritSec@@QEAA@XZ="C:\Windows\System32\wbemcomn".??1CCritSec@@QEAA@XZ
  ??1CDMTFParser@@QEAA@XZ="C:\Windows\System32\wbemcomn".??1CDMTFParser@@QEAA@XZ
  ??1CDatePart@@QEAA@XZ="C:\Windows\System32\wbemcomn".??1CDatePart@@QEAA@XZ
  ??1CDateTimeParser@@QEAA@XZ="C:\Windows\System32\wbemcomn".??1CDateTimeParser@@QEAA@XZ
  ??1CEnterWbemCriticalSection@@QEAA@XZ="C:\Windows\System32\wbemcomn".??1CEnterWbemCriticalSection@@QEAA@XZ
  ??1CEventLog@@QEAA@XZ="C:\Windows\System32\wbemcomn".??1CEventLog@@QEAA@XZ
  ??1CEventLogRecord@@QEAA@XZ="C:\Windows\System32\wbemcomn".??1CEventLogRecord@@QEAA@XZ
  ??1CExecQueue@@QEAA@XZ="C:\Windows\System32\wbemcomn".??1CExecQueue@@QEAA@XZ
  ??1CExecRequest@@UEAA@XZ="C:\Windows\System32\wbemcomn".??1CExecRequest@@UEAA@XZ
  ??1CFlexArray@@QEAA@XZ="C:\Windows\System32\wbemcomn".??1CFlexArray@@QEAA@XZ
  ??1CFlexQueue@@QEAA@XZ="C:\Windows\System32\wbemcomn".??1CFlexQueue@@QEAA@XZ
  ??1CHaltable@@UEAA@XZ="C:\Windows\System32\wbemcomn".??1CHaltable@@UEAA@XZ
  ??1CIdentitySecurity@@QEAA@XZ="C:\Windows\System32\wbemcomn".??1CIdentitySecurity@@QEAA@XZ
  ??1CIdentityTest@@QEAA@XZ="C:\Windows\System32\wbemcomn".??1CIdentityTest@@QEAA@XZ
  ??1CInCritSec@@QEAA@XZ="C:\Windows\System32\wbemcomn".??1CInCritSec@@QEAA@XZ
  ??1CInsertionString@@QEAA@XZ="C:\Windows\System32\wbemcomn".??1CInsertionString@@QEAA@XZ
  ??1CInstructionQueue@@QEAA@XZ="C:\Windows\System32\wbemcomn".??1CInstructionQueue@@QEAA@XZ
  ??1CLike@@QEAA@XZ="C:\Windows\System32\wbemcomn".??1CLike@@QEAA@XZ
  ??1CLimitControl@@UEAA@XZ="C:\Windows\System32\wbemcomn".??1CLimitControl@@UEAA@XZ
  ??1CMRCICompression@@QEAA@XZ="C:\Windows\System32\wbemcomn".??1CMRCICompression@@QEAA@XZ
  ??1CMUILocaleList@@QEAA@XZ="C:\Windows\System32\wbemcomn".??1CMUILocaleList@@QEAA@XZ
  ??1CMinMaxLimitControl@@UEAA@XZ="C:\Windows\System32\wbemcomn".??1CMinMaxLimitControl@@UEAA@XZ
  ??1CNtAce@@UEAA@XZ="C:\Windows\System32\wbemcomn".??1CNtAce@@UEAA@XZ
  ??1CNtAcl@@QEAA@XZ="C:\Windows\System32\wbemcomn".??1CNtAcl@@QEAA@XZ
  ??1CNtSecurityDescriptor@@QEAA@XZ="C:\Windows\System32\wbemcomn".??1CNtSecurityDescriptor@@QEAA@XZ
  ??1CNtSid@@QEAA@XZ="C:\Windows\System32\wbemcomn".??1CNtSid@@QEAA@XZ
  ??1CPropertyName@@QEAA@XZ="C:\Windows\System32\wbemcomn".??1CPropertyName@@QEAA@XZ
  ??1CPublishWMIOperationEvent@@QEAA@XZ="C:\Windows\System32\wbemcomn".??1CPublishWMIOperationEvent@@QEAA@XZ
  ??1CRegistryMinMaxLimitControl@@UEAA@XZ="C:\Windows\System32\wbemcomn".??1CRegistryMinMaxLimitControl@@UEAA@XZ
  ??1CSafeArray@@QEAA@XZ="C:\Windows\System32\wbemcomn".??1CSafeArray@@QEAA@XZ
  ??1CStaticCritSec@@QEAA@XZ="C:\Windows\System32\wbemcomn".??1CStaticCritSec@@QEAA@XZ
  ??1CTextTemplate@@QEAA@XZ="C:\Windows\System32\wbemcomn".??1CTextTemplate@@QEAA@XZ
  ??1CTimerGenerator@@UEAA@XZ="C:\Windows\System32\wbemcomn".??1CTimerGenerator@@UEAA@XZ
  ??1CTimerInstruction@@UEAA@XZ="C:\Windows\System32\wbemcomn".??1CTimerInstruction@@UEAA@XZ
  ??1CUnk@@UEAA@XZ="C:\Windows\System32\wbemcomn".??1CUnk@@UEAA@XZ
  ??1CUnkInternal@@UEAA@XZ="C:\Windows\System32\wbemcomn".??1CUnkInternal@@UEAA@XZ
  ??1CVar@@QEAA@XZ="C:\Windows\System32\wbemcomn".??1CVar@@QEAA@XZ
  ??1CVarVector@@QEAA@XZ="C:\Windows\System32\wbemcomn".??1CVarVector@@QEAA@XZ
  ??1CWQLScanner@@QEAA@XZ="C:\Windows\System32\wbemcomn".??1CWQLScanner@@QEAA@XZ
  ??1CWStringArray@@QEAA@XZ="C:\Windows\System32\wbemcomn".??1CWStringArray@@QEAA@XZ
  ??1CWbemCallSecurity@@AEAA@XZ="C:\Windows\System32\wbemcomn".??1CWbemCallSecurity@@AEAA@XZ
  ??1CWbemCriticalSection@@QEAA@XZ="C:\Windows\System32\wbemcomn".??1CWbemCriticalSection@@QEAA@XZ
  ??1CWbemInstallObject@@QEAA@XZ="C:\Windows\System32\wbemcomn".??1CWbemInstallObject@@QEAA@XZ
  ??1CWin32DefaultArena@@QEAA@XZ="C:\Windows\System32\wbemcomn".??1CWin32DefaultArena@@QEAA@XZ
  ??1QL1_Parser@@UEAA@XZ="C:\Windows\System32\wbemcomn".??1QL1_Parser@@UEAA@XZ
  ??1QL_LEVEL_1_RPN_EXPRESSION@@QEAA@XZ="C:\Windows\System32\wbemcomn".??1QL_LEVEL_1_RPN_EXPRESSION@@QEAA@XZ
  ??1QL_LEVEL_1_TOKEN@@QEAA@XZ="C:\Windows\System32\wbemcomn".??1QL_LEVEL_1_TOKEN@@QEAA@XZ
  ??1Registry@@QEAA@XZ="C:\Windows\System32\wbemcomn".??1Registry@@QEAA@XZ
  ??1WString2@@QEAA@XZ="C:\Windows\System32\wbemcomn".??1WString2@@QEAA@XZ
  ??1WString@@QEAA@XZ="C:\Windows\System32\wbemcomn".??1WString@@QEAA@XZ
  ??4?$CLockableFlexArray@VCStaticCritSec@@@@QEAAAEAV0@$$QEAV0@@Z="C:\Windows\System32\wbemcomn".??4?$CLockableFlexArray@VCStaticCritSec@@@@QEAAAEAV0@$$QEAV0@@Z
  ??4?$CLockableFlexArray@VCStaticCritSec@@@@QEAAAEAV0@AEAV0@@Z="C:\Windows\System32\wbemcomn".??4?$CLockableFlexArray@VCStaticCritSec@@@@QEAAAEAV0@AEAV0@@Z
  ??4?$SZLess@PEBG@@QEAAAEAU0@AEBU0@@Z="C:\Windows\System32\wbemcomn".??4?$SZLess@PEBG@@QEAAAEAU0@AEBU0@@Z
  ??4C9XAce@@QEAAAEAV0@AEBV0@@Z="C:\Windows\System32\wbemcomn".??4C9XAce@@QEAAAEAV0@AEBV0@@Z
  ??4CAbstractQl1Parser@@QEAAAEAV0@AEBV0@@Z="C:\Windows\System32\wbemcomn".??4CAbstractQl1Parser@@QEAAAEAV0@AEBV0@@Z
  ??4CArena@@QEAAAEAV0@$$QEAV0@@Z="C:\Windows\System32\wbemcomn".??4CArena@@QEAAAEAV0@$$QEAV0@@Z
  ??4CArena@@QEAAAEAV0@AEBV0@@Z="C:\Windows\System32\wbemcomn".??4CArena@@QEAAAEAV0@AEBV0@@Z
  ??4CBaseAce@@QEAAAEAV0@AEBV0@@Z="C:\Windows\System32\wbemcomn".??4CBaseAce@@QEAAAEAV0@AEBV0@@Z
  ??4CBaseMrciCompression@@QEAAAEAV0@$$QEAV0@@Z="C:\Windows\System32\wbemcomn".??4CBaseMrciCompression@@QEAAAEAV0@$$QEAV0@@Z
  ??4CBaseMrciCompression@@QEAAAEAV0@AEBV0@@Z="C:\Windows\System32\wbemcomn".??4CBaseMrciCompression@@QEAAAEAV0@AEBV0@@Z
  ??4CBasicUnloadInstruction@@QEAAAEAV0@AEBV0@@Z="C:\Windows\System32\wbemcomn".??4CBasicUnloadInstruction@@QEAAAEAV0@AEBV0@@Z
  ??4CBuffer@@QEAAAEAV0@AEBV0@@Z="C:\Windows\System32\wbemcomn".??4CBuffer@@QEAAAEAV0@AEBV0@@Z
  ??4CCheckedInCritSec@@QEAAAEAV0@AEBV0@@Z="C:\Windows\System32\wbemcomn".??4CCheckedInCritSec@@QEAAAEAV0@AEBV0@@Z
  ??4CCircularQueue@@QEAAAEAV0@$$QEAV0@@Z="C:\Windows\System32\wbemcomn".??4CCircularQueue@@QEAAAEAV0@$$QEAV0@@Z
  ??4CCircularQueue@@QEAAAEAV0@AEBV0@@Z="C:\Windows\System32\wbemcomn".??4CCircularQueue@@QEAAAEAV0@AEBV0@@Z
  ??4CClientOpsNode@@QEAAAEAV0@AEBV0@@Z="C:\Windows\System32\wbemcomn".??4CClientOpsNode@@QEAAAEAV0@AEBV0@@Z
  ??4CContainerControl@@QEAAAEAV0@$$QEAV0@@Z="C:\Windows\System32\wbemcomn".??4CContainerControl@@QEAAAEAV0@$$QEAV0@@Z
  ??4CContainerControl@@QEAAAEAV0@AEBV0@@Z="C:\Windows\System32\wbemcomn".??4CContainerControl@@QEAAAEAV0@AEBV0@@Z
  ??4CCritSec@@QEAAAEAV0@AEBV0@@Z="C:\Windows\System32\wbemcomn".??4CCritSec@@QEAAAEAV0@AEBV0@@Z
  ??4CDMTFParser@@QEAAAEAV0@AEBV0@@Z="C:\Windows\System32\wbemcomn".??4CDMTFParser@@QEAAAEAV0@AEBV0@@Z
  ??4CDatePart@@QEAAAEAV0@AEBV0@@Z="C:\Windows\System32\wbemcomn".??4CDatePart@@QEAAAEAV0@AEBV0@@Z
  ??4CDateTimeParser@@QEAAAEAV0@AEBV0@@Z="C:\Windows\System32\wbemcomn".??4CDateTimeParser@@QEAAAEAV0@AEBV0@@Z
  ??4CEnterWbemCriticalSection@@QEAAAEAV0@AEBV0@@Z="C:\Windows\System32\wbemcomn".??4CEnterWbemCriticalSection@@QEAAAEAV0@AEBV0@@Z
  ??4CExecQueue@@QEAAAEAV0@AEAV0@@Z="C:\Windows\System32\wbemcomn".??4CExecQueue@@QEAAAEAV0@AEAV0@@Z
  ??4CExecRequest@@QEAAAEAV0@AEBV0@@Z="C:\Windows\System32\wbemcomn".??4CExecRequest@@QEAAAEAV0@AEBV0@@Z
  ??4CFlexArray@@QEAAAEAV0@AEAV0@@Z="C:\Windows\System32\wbemcomn".??4CFlexArray@@QEAAAEAV0@AEAV0@@Z
  ??4CFlexQueue@@QEAAAEAV0@AEBV0@@Z="C:\Windows\System32\wbemcomn".??4CFlexQueue@@QEAAAEAV0@AEBV0@@Z
  ??4CHaltable@@QEAAAEAV0@AEBV0@@Z="C:\Windows\System32\wbemcomn".??4CHaltable@@QEAAAEAV0@AEBV0@@Z
  ??4CHex@@QEAAAEAV0@$$QEAV0@@Z="C:\Windows\System32\wbemcomn".??4CHex@@QEAAAEAV0@$$QEAV0@@Z
  ??4CHex@@QEAAAEAV0@AEBV0@@Z="C:\Windows\System32\wbemcomn".??4CHex@@QEAAAEAV0@AEBV0@@Z
  ??4CIdentitySecurity@@QEAAAEAV0@AEBV0@@Z="C:\Windows\System32\wbemcomn".??4CIdentitySecurity@@QEAAAEAV0@AEBV0@@Z
  ??4CIdentityTest@@QEAAAEAV0@AEBV0@@Z="C:\Windows\System32\wbemcomn".??4CIdentityTest@@QEAAAEAV0@AEBV0@@Z
  ??4CInCritSec@@QEAAAEAV0@AEBV0@@Z="C:\Windows\System32\wbemcomn".??4CInCritSec@@QEAAAEAV0@AEBV0@@Z
  ??4CInsertionString@@QEAAAEAV0@$$QEAV0@@Z="C:\Windows\System32\wbemcomn".??4CInsertionString@@QEAAAEAV0@$$QEAV0@@Z
  ??4CInsertionString@@QEAAAEAV0@AEBV0@@Z="C:\Windows\System32\wbemcomn".??4CInsertionString@@QEAAAEAV0@AEBV0@@Z
  ??4CInstructionQueue@@QEAAAEAV0@AEBV0@@Z="C:\Windows\System32\wbemcomn".??4CInstructionQueue@@QEAAAEAV0@AEBV0@@Z
  ??4CInstructionTest@@QEAAAEAV0@$$QEAV0@@Z="C:\Windows\System32\wbemcomn".??4CInstructionTest@@QEAAAEAV0@$$QEAV0@@Z
  ??4CInstructionTest@@QEAAAEAV0@AEBV0@@Z="C:\Windows\System32\wbemcomn".??4CInstructionTest@@QEAAAEAV0@AEBV0@@Z
  ??4CLifeControl@@QEAAAEAV0@$$QEAV0@@Z="C:\Windows\System32\wbemcomn".??4CLifeControl@@QEAAAEAV0@$$QEAV0@@Z
  ??4CLifeControl@@QEAAAEAV0@AEBV0@@Z="C:\Windows\System32\wbemcomn".??4CLifeControl@@QEAAAEAV0@AEBV0@@Z
  ??4CLike@@QEAAAEAV0@AEBV0@@Z="C:\Windows\System32\wbemcomn".??4CLike@@QEAAAEAV0@AEBV0@@Z
  ??4CLimitControl@@QEAAAEAV0@AEBV0@@Z="C:\Windows\System32\wbemcomn".??4CLimitControl@@QEAAAEAV0@AEBV0@@Z
  ??4CMRCICompression@@QEAAAEAV0@AEBV0@@Z="C:\Windows\System32\wbemcomn".??4CMRCICompression@@QEAAAEAV0@AEBV0@@Z
  ??4CMRCIControl@@QEAAAEAV0@$$QEAV0@@Z="C:\Windows\System32\wbemcomn".??4CMRCIControl@@QEAAAEAV0@$$QEAV0@@Z
  ??4CMRCIControl@@QEAAAEAV0@AEBV0@@Z="C:\Windows\System32\wbemcomn".??4CMRCIControl@@QEAAAEAV0@AEBV0@@Z
  ??4CMUILocale@@QEAAAEAV0@$$QEAV0@@Z="C:\Windows\System32\wbemcomn".??4CMUILocale@@QEAAAEAV0@$$QEAV0@@Z
  ??4CMUILocale@@QEAAAEAV0@AEBV0@@Z="C:\Windows\System32\wbemcomn".??4CMUILocale@@QEAAAEAV0@AEBV0@@Z
  ??4CMUILocaleList@@QEAAAEAV0@AEBV0@@Z="C:\Windows\System32\wbemcomn".??4CMUILocaleList@@QEAAAEAV0@AEBV0@@Z
  ??4CMemoryLog@@QEAAAEAV0@$$QEAV0@@Z="C:\Windows\System32\wbemcomn".??4CMemoryLog@@QEAAAEAV0@$$QEAV0@@Z
  ??4CMemoryLog@@QEAAAEAV0@AEBV0@@Z="C:\Windows\System32\wbemcomn".??4CMemoryLog@@QEAAAEAV0@AEBV0@@Z
  ??4CMinMaxLimitControl@@QEAAAEAV0@$$QEAV0@@Z="C:\Windows\System32\wbemcomn".??4CMinMaxLimitControl@@QEAAAEAV0@$$QEAV0@@Z
  ??4CMinMaxLimitControl@@QEAAAEAV0@AEBV0@@Z="C:\Windows\System32\wbemcomn".??4CMinMaxLimitControl@@QEAAAEAV0@AEBV0@@Z
  ??4CNtAce@@QEAAAEAV0@AEBV0@@Z="C:\Windows\System32\wbemcomn".??4CNtAce@@QEAAAEAV0@AEBV0@@Z
  ??4CNtAcl@@QEAAAEAV0@AEBV0@@Z="C:\Windows\System32\wbemcomn".??4CNtAcl@@QEAAAEAV0@AEBV0@@Z
  ??4CNtSecurity@@QEAAAEAV0@$$QEAV0@@Z="C:\Windows\System32\wbemcomn".??4CNtSecurity@@QEAAAEAV0@$$QEAV0@@Z
  ??4CNtSecurity@@QEAAAEAV0@AEBV0@@Z="C:\Windows\System32\wbemcomn".??4CNtSecurity@@QEAAAEAV0@AEBV0@@Z
  ??4CNtSecurityDescriptor@@QEAAAEAV0@AEAV0@@Z="C:\Windows\System32\wbemcomn".??4CNtSecurityDescriptor@@QEAAAEAV0@AEAV0@@Z
  ??4CNtSid@@QEAAAEAV0@AEBV0@@Z="C:\Windows\System32\wbemcomn".??4CNtSid@@QEAAAEAV0@AEBV0@@Z
  ??4CPersistentConfig@@QEAAAEAV0@$$QEAV0@@Z="C:\Windows\System32\wbemcomn".??4CPersistentConfig@@QEAAAEAV0@$$QEAV0@@Z
  ??4CPersistentConfig@@QEAAAEAV0@AEBV0@@Z="C:\Windows\System32\wbemcomn".??4CPersistentConfig@@QEAAAEAV0@AEBV0@@Z
  ??4CPropertyName@@QEAAXAEBU_tag_WbemPropertyName@@@Z="C:\Windows\System32\wbemcomn".??4CPropertyName@@QEAAXAEBU_tag_WbemPropertyName@@@Z
  ??4CPropertyName@@QEAAXAEBV0@@Z="C:\Windows\System32\wbemcomn".??4CPropertyName@@QEAAXAEBV0@@Z
  ??4CPublishWMIOperationEvent@@QEAAAEAV0@AEBV0@@Z="C:\Windows\System32\wbemcomn".??4CPublishWMIOperationEvent@@QEAAAEAV0@AEBV0@@Z
  ??4CQl1ParseSink@@QEAAAEAV0@$$QEAV0@@Z="C:\Windows\System32\wbemcomn".??4CQl1ParseSink@@QEAAAEAV0@$$QEAV0@@Z
  ??4CQl1ParseSink@@QEAAAEAV0@AEBV0@@Z="C:\Windows\System32\wbemcomn".??4CQl1ParseSink@@QEAAAEAV0@AEBV0@@Z
  ??4CRegistryMinMaxLimitControl@@QEAAAEAV0@$$QEAV0@@Z="C:\Windows\System32\wbemcomn".??4CRegistryMinMaxLimitControl@@QEAAAEAV0@$$QEAV0@@Z
  ??4CRegistryMinMaxLimitControl@@QEAAAEAV0@AEBV0@@Z="C:\Windows\System32\wbemcomn".??4CRegistryMinMaxLimitControl@@QEAAAEAV0@AEBV0@@Z
  ??4CSafeArray@@QEAAAEAV0@AEAV0@@Z="C:\Windows\System32\wbemcomn".??4CSafeArray@@QEAAAEAV0@AEAV0@@Z
  ??4CSmallArrayBlob@@QEAAAEAV0@$$QEAV0@@Z="C:\Windows\System32\wbemcomn".??4CSmallArrayBlob@@QEAAAEAV0@$$QEAV0@@Z
  ??4CSmallArrayBlob@@QEAAAEAV0@AEBV0@@Z="C:\Windows\System32\wbemcomn".??4CSmallArrayBlob@@QEAAAEAV0@AEBV0@@Z
  ??4CStaticCritSec@@QEAAAEAV0@AEBV0@@Z="C:\Windows\System32\wbemcomn".??4CStaticCritSec@@QEAAAEAV0@AEBV0@@Z
  ??4CTextTemplate@@QEAAAEAV0@AEBV0@@Z="C:\Windows\System32\wbemcomn".??4CTextTemplate@@QEAAAEAV0@AEBV0@@Z
  ??4CTimerGenerator@@QEAAAEAV0@AEBV0@@Z="C:\Windows\System32\wbemcomn".??4CTimerGenerator@@QEAAAEAV0@AEBV0@@Z
  ??4CTimerInstruction@@QEAAAEAV0@AEBV0@@Z="C:\Windows\System32\wbemcomn".??4CTimerInstruction@@QEAAAEAV0@AEBV0@@Z
  ??4CTraceSessionControl@@QEAAAEAV0@$$QEAV0@@Z="C:\Windows\System32\wbemcomn".??4CTraceSessionControl@@QEAAAEAV0@$$QEAV0@@Z
  ??4CTraceSessionControl@@QEAAAEAV0@AEBV0@@Z="C:\Windows\System32\wbemcomn".??4CTraceSessionControl@@QEAAAEAV0@AEBV0@@Z
  ??4CUnk@@QEAAAEAV0@AEBV0@@Z="C:\Windows\System32\wbemcomn".??4CUnk@@QEAAAEAV0@AEBV0@@Z
  ??4CUnkInternal@@QEAAAEAV0@AEBV0@@Z="C:\Windows\System32\wbemcomn".??4CUnkInternal@@QEAAAEAV0@AEBV0@@Z
  ??4CVar@@QEAAAEAV0@AEBV0@@Z="C:\Windows\System32\wbemcomn".??4CVar@@QEAAAEAV0@AEBV0@@Z
  ??4CVarVector@@QEAAAEAV0@AEAV0@@Z="C:\Windows\System32\wbemcomn".??4CVarVector@@QEAAAEAV0@AEAV0@@Z
  ??4CWMITraceSettings@@QEAAAEAV0@$$QEAV0@@Z="C:\Windows\System32\wbemcomn".??4CWMITraceSettings@@QEAAAEAV0@$$QEAV0@@Z
  ??4CWMITraceSettings@@QEAAAEAV0@AEBV0@@Z="C:\Windows\System32\wbemcomn".??4CWMITraceSettings@@QEAAAEAV0@AEBV0@@Z
  ??4CWQLScanner@@QEAAAEAV0@AEAV0@@Z="C:\Windows\System32\wbemcomn".??4CWQLScanner@@QEAAAEAV0@AEAV0@@Z
  ??4CWStringArray@@QEAAAEAV0@AEAV0@@Z="C:\Windows\System32\wbemcomn".??4CWStringArray@@QEAAAEAV0@AEAV0@@Z
  ??4CWbemCallSecurity@@AEAAAEAV0@AEBV0@@Z="C:\Windows\System32\wbemcomn".??4CWbemCallSecurity@@AEAAAEAV0@AEBV0@@Z
  ??4CWbemCriticalSection@@QEAAAEAV0@AEBV0@@Z="C:\Windows\System32\wbemcomn".??4CWbemCriticalSection@@QEAAAEAV0@AEBV0@@Z
  ??4CWbemInstallObject@@QEAAAEAV0@AEBV0@@Z="C:\Windows\System32\wbemcomn".??4CWbemInstallObject@@QEAAAEAV0@AEBV0@@Z
  ??4CWbemInterval@@QEAAAEAV0@$$QEAV0@@Z="C:\Windows\System32\wbemcomn".??4CWbemInterval@@QEAAAEAV0@$$QEAV0@@Z
  ??4CWbemInterval@@QEAAAEAV0@AEBV0@@Z="C:\Windows\System32\wbemcomn".??4CWbemInterval@@QEAAAEAV0@AEBV0@@Z
  ??4CWbemTime@@QEAAXAEBV0@@Z="C:\Windows\System32\wbemcomn".??4CWbemTime@@QEAAXAEBV0@@Z
  ??4CWbemTimeSpan@@QEAAAEAV0@$$QEAV0@@Z="C:\Windows\System32\wbemcomn".??4CWbemTimeSpan@@QEAAAEAV0@$$QEAV0@@Z
  ??4CWbemTimeSpan@@QEAAAEAV0@AEBV0@@Z="C:\Windows\System32\wbemcomn".??4CWbemTimeSpan@@QEAAAEAV0@AEBV0@@Z
  ??4CWin32DefaultArena@@QEAAAEAV0@AEBV0@@Z="C:\Windows\System32\wbemcomn".??4CWin32DefaultArena@@QEAAAEAV0@AEBV0@@Z
  ??4MD5@@QEAAAEAV0@$$QEAV0@@Z="C:\Windows\System32\wbemcomn".??4MD5@@QEAAAEAV0@$$QEAV0@@Z
  ??4MD5@@QEAAAEAV0@AEBV0@@Z="C:\Windows\System32\wbemcomn".??4MD5@@QEAAAEAV0@AEBV0@@Z
  ??4QL1_Parser@@QEAAAEAV0@AEBV0@@Z="C:\Windows\System32\wbemcomn".??4QL1_Parser@@QEAAAEAV0@AEBV0@@Z
  ??4QL_LEVEL_1_RPN_EXPRESSION@@QEAAAEAU0@AEBU0@@Z="C:\Windows\System32\wbemcomn".??4QL_LEVEL_1_RPN_EXPRESSION@@QEAAAEAU0@AEBU0@@Z
  ??4QL_LEVEL_1_TOKEN@@QEAAAEAU0@AEBU0@@Z="C:\Windows\System32\wbemcomn".??4QL_LEVEL_1_TOKEN@@QEAAAEAU0@AEBU0@@Z
  ??4QL_LEVEL_1_TOKEN@@QEAAAEAU0@AEBU_tag_WbemQl1Token@@@Z="C:\Windows\System32\wbemcomn".??4QL_LEVEL_1_TOKEN@@QEAAAEAU0@AEBU_tag_WbemQl1Token@@@Z
  ??4Registry@@QEAAAEAV0@AEBV0@@Z="C:\Windows\System32\wbemcomn".??4Registry@@QEAAAEAV0@AEBV0@@Z
  ??4SHA256@@QEAAAEAV0@$$QEAV0@@Z="C:\Windows\System32\wbemcomn".??4SHA256@@QEAAAEAV0@$$QEAV0@@Z
  ??4SHA256@@QEAAAEAV0@AEBV0@@Z="C:\Windows\System32\wbemcomn".??4SHA256@@QEAAAEAV0@AEBV0@@Z
  ??4WString2@@QEAAAEAV0@AEBV0@@Z="C:\Windows\System32\wbemcomn".??4WString2@@QEAAAEAV0@AEBV0@@Z
  ??4WString2@@QEAAAEAV0@PEBG@Z="C:\Windows\System32\wbemcomn".??4WString2@@QEAAAEAV0@PEBG@Z
  ??4WString@@QEAAAEAV0@AEBV0@@Z="C:\Windows\System32\wbemcomn".??4WString@@QEAAAEAV0@AEBV0@@Z
  ??4WString@@QEAAAEAV0@PEBG@Z="C:\Windows\System32\wbemcomn".??4WString@@QEAAAEAV0@PEBG@Z
  ??8CEventLogRecord@@QEAAHAEBV0@@Z="C:\Windows\System32\wbemcomn".??8CEventLogRecord@@QEAAHAEBV0@@Z
  ??8CNtSid@@QEAAHAEAV0@@Z="C:\Windows\System32\wbemcomn".??8CNtSid@@QEAAHAEAV0@@Z
  ??8CPropertyName@@QEAAHAEBU_tag_WbemPropertyName@@@Z="C:\Windows\System32\wbemcomn".??8CPropertyName@@QEAAHAEBU_tag_WbemPropertyName@@@Z
  ??8CVar@@QEAAHAEAV0@@Z="C:\Windows\System32\wbemcomn".??8CVar@@QEAAHAEAV0@@Z
  ??8CVarVector@@QEAAHAEAV0@@Z="C:\Windows\System32\wbemcomn".??8CVarVector@@QEAAHAEAV0@@Z
  ??ACFlexArray@@QEAAAEAPEAXH@Z="C:\Windows\System32\wbemcomn".??ACFlexArray@@QEAAAEAPEAXH@Z
  ??ACFlexArray@@QEBAPEAXH@Z="C:\Windows\System32\wbemcomn".??ACFlexArray@@QEBAPEAXH@Z
  ??ACSmallArrayBlob@@QEBAPEAXH@Z="C:\Windows\System32\wbemcomn".??ACSmallArrayBlob@@QEBAPEAXH@Z
  ??ACVarVector@@QEAAAEAVCVar@@H@Z="C:\Windows\System32\wbemcomn".??ACVarVector@@QEAAAEAVCVar@@H@Z
  ??ACWStringArray@@QEBAPEAGH@Z="C:\Windows\System32\wbemcomn".??ACWStringArray@@QEBAPEAGH@Z
  ??AWString2@@QEBAGH@Z="C:\Windows\System32\wbemcomn".??AWString2@@QEBAGH@Z
  ??AWString@@QEBAGH@Z="C:\Windows\System32\wbemcomn".??AWString@@QEBAGH@Z
  ??BCHex@@QEAAJXZ="C:\Windows\System32\wbemcomn".??BCHex@@QEAAJXZ
  ??BCVar@@QEAA?AU_FILETIME@@XZ="C:\Windows\System32\wbemcomn".??BCVar@@QEAA?AU_FILETIME@@XZ
  ??BCVar@@QEAADXZ="C:\Windows\System32\wbemcomn".??BCVar@@QEAADXZ
  ??BCVar@@QEAAEXZ="C:\Windows\System32\wbemcomn".??BCVar@@QEAAEXZ
  ??BCVar@@QEAAFXZ="C:\Windows\System32\wbemcomn".??BCVar@@QEAAFXZ
  ??BCVar@@QEAAGXZ="C:\Windows\System32\wbemcomn".??BCVar@@QEAAGXZ
  ??BCVar@@QEAAJXZ="C:\Windows\System32\wbemcomn".??BCVar@@QEAAJXZ
  ??BCVar@@QEAAKXZ="C:\Windows\System32\wbemcomn".??BCVar@@QEAAKXZ
  ??BCVar@@QEAAMXZ="C:\Windows\System32\wbemcomn".??BCVar@@QEAAMXZ
  ??BCVar@@QEAANXZ="C:\Windows\System32\wbemcomn".??BCVar@@QEAANXZ
  ??BCVar@@QEAAPEADXZ="C:\Windows\System32\wbemcomn".??BCVar@@QEAAPEADXZ
  ??BCVar@@QEAAPEAGXZ="C:\Windows\System32\wbemcomn".??BCVar@@QEAAPEAGXZ
  ??BCVar@@QEAAPEAU_GUID@@XZ="C:\Windows\System32\wbemcomn".??BCVar@@QEAAPEAU_GUID@@XZ
  ??BCVar@@QEAAPEAUtagBLOB@@XZ="C:\Windows\System32\wbemcomn".??BCVar@@QEAAPEAUtagBLOB@@XZ
  ??BCVar@@QEAAPEAVCVarVector@@XZ="C:\Windows\System32\wbemcomn".??BCVar@@QEAAPEAVCVarVector@@XZ
  ??BWString2@@QEAAPEAGXZ="C:\Windows\System32\wbemcomn".??BWString2@@QEAAPEAGXZ
  ??BWString2@@QEBAPEBGXZ="C:\Windows\System32\wbemcomn".??BWString2@@QEBAPEBGXZ
  ??BWString@@QEAAPEAGXZ="C:\Windows\System32\wbemcomn".??BWString@@QEAAPEAGXZ
  ??BWString@@QEBAPEBGXZ="C:\Windows\System32\wbemcomn".??BWString@@QEBAPEBGXZ
  ??DCWbemInterval@@QEBA?AV0@N@Z="C:\Windows\System32\wbemcomn".??DCWbemInterval@@QEBA?AV0@N@Z
  ??GCWbemTime@@QEBA?AV0@AEBVCWbemTimeSpan@@@Z="C:\Windows\System32\wbemcomn".??GCWbemTime@@QEBA?AV0@AEBVCWbemTimeSpan@@@Z
  ??GCWbemTime@@QEBA?AVCWbemInterval@@AEBV0@@Z="C:\Windows\System32\wbemcomn".??GCWbemTime@@QEBA?AVCWbemInterval@@AEBV0@@Z
  ??HCWbemInterval@@QEBA?AV0@V0@@Z="C:\Windows\System32\wbemcomn".??HCWbemInterval@@QEBA?AV0@V0@@Z
  ??HCWbemTime@@QEBA?AV0@AEBVCWbemInterval@@@Z="C:\Windows\System32\wbemcomn".??HCWbemTime@@QEBA?AV0@AEBVCWbemInterval@@@Z
  ??HCWbemTime@@QEBA?AV0@AEBVCWbemTimeSpan@@@Z="C:\Windows\System32\wbemcomn".??HCWbemTime@@QEBA?AV0@AEBVCWbemTimeSpan@@@Z
  ??MCWbemInterval@@QEAAHV0@@Z="C:\Windows\System32\wbemcomn".??MCWbemInterval@@QEAAHV0@@Z
  ??MCWbemTime@@QEBAHAEBV0@@Z="C:\Windows\System32\wbemcomn".??MCWbemTime@@QEBAHAEBV0@@Z
  ??MWString2@@QEBAHPEBG@Z="C:\Windows\System32\wbemcomn".??MWString2@@QEBAHPEBG@Z
  ??MWString@@QEBAHPEBG@Z="C:\Windows\System32\wbemcomn".??MWString@@QEBAHPEBG@Z
  ??NCWbemTime@@QEBAHAEBV0@@Z="C:\Windows\System32\wbemcomn".??NCWbemTime@@QEBAHAEBV0@@Z
  ??NWString2@@QEBAHPEBG@Z="C:\Windows\System32\wbemcomn".??NWString2@@QEBAHPEBG@Z
  ??NWString@@QEBAHPEBG@Z="C:\Windows\System32\wbemcomn".??NWString@@QEBAHPEBG@Z
  ??OCWbemInterval@@QEAAHV0@@Z="C:\Windows\System32\wbemcomn".??OCWbemInterval@@QEAAHV0@@Z
  ??OCWbemTime@@QEBAHAEBV0@@Z="C:\Windows\System32\wbemcomn".??OCWbemTime@@QEBAHAEBV0@@Z
  ??OWString2@@QEBAHPEBG@Z="C:\Windows\System32\wbemcomn".??OWString2@@QEBAHPEBG@Z
  ??OWString@@QEBAHPEBG@Z="C:\Windows\System32\wbemcomn".??OWString@@QEBAHPEBG@Z
  ??PCWbemTime@@QEBAHAEBV0@@Z="C:\Windows\System32\wbemcomn".??PCWbemTime@@QEBAHAEBV0@@Z
  ??PWString2@@QEBAHPEBG@Z="C:\Windows\System32\wbemcomn".??PWString2@@QEBAHPEBG@Z
  ??PWString@@QEBAHPEBG@Z="C:\Windows\System32\wbemcomn".??PWString@@QEBAHPEBG@Z
  ??R?$SZLess@PEBG@@QEBA_NAEBQEBG0@Z="C:\Windows\System32\wbemcomn".??R?$SZLess@PEBG@@QEBA_NAEBQEBG0@Z
  ??RCIdentityTest@@UEAAHPEAVCTimerInstruction@@@Z="C:\Windows\System32\wbemcomn".??RCIdentityTest@@UEAAHPEAVCTimerInstruction@@@Z
  ??RWString2@@QEBA?AV0@HH@Z="C:\Windows\System32\wbemcomn".??RWString2@@QEBA?AV0@HH@Z
  ??RWString@@QEBA?AV0@HH@Z="C:\Windows\System32\wbemcomn".??RWString@@QEBA?AV0@HH@Z
  ??YCWbemInterval@@QEAAXV0@@Z="C:\Windows\System32\wbemcomn".??YCWbemInterval@@QEAAXV0@@Z
  ??YWString2@@QEAAAEAV0@AEBV0@@Z="C:\Windows\System32\wbemcomn".??YWString2@@QEAAAEAV0@AEBV0@@Z
  ??YWString2@@QEAAAEAV0@G@Z="C:\Windows\System32\wbemcomn".??YWString2@@QEAAAEAV0@G@Z
  ??YWString2@@QEAAAEAV0@PEBG@Z="C:\Windows\System32\wbemcomn".??YWString2@@QEAAAEAV0@PEBG@Z
  ??YWString@@QEAAAEAV0@AEBV0@@Z="C:\Windows\System32\wbemcomn".??YWString@@QEAAAEAV0@AEBV0@@Z
  ??YWString@@QEAAAEAV0@G@Z="C:\Windows\System32\wbemcomn".??YWString@@QEAAAEAV0@G@Z
  ??YWString@@QEAAAEAV0@PEBG@Z="C:\Windows\System32\wbemcomn".??YWString@@QEAAAEAV0@PEBG@Z
  ??_7?$SZLess@PEBG@@6B@="C:\Windows\System32\wbemcomn".??_7?$SZLess@PEBG@@6B@
  ??_7C9XAce@@6B@="C:\Windows\System32\wbemcomn".??_7C9XAce@@6B@
  ??_7CAbstractQl1Parser@@6B@="C:\Windows\System32\wbemcomn".??_7CAbstractQl1Parser@@6B@
  ??_7CArena@@6B@="C:\Windows\System32\wbemcomn".??_7CArena@@6B@
  ??_7CBaseAce@@6B@="C:\Windows\System32\wbemcomn".??_7CBaseAce@@6B@
  ??_7CBasicUnloadInstruction@@6B@="C:\Windows\System32\wbemcomn".??_7CBasicUnloadInstruction@@6B@
  ??_7CBuffer@@6B@="C:\Windows\System32\wbemcomn".??_7CBuffer@@6B@
  ??_7CContainerControl@@6B@="C:\Windows\System32\wbemcomn".??_7CContainerControl@@6B@
  ??_7CExecQueue@@6B@="C:\Windows\System32\wbemcomn".??_7CExecQueue@@6B@
  ??_7CExecRequest@@6B@="C:\Windows\System32\wbemcomn".??_7CExecRequest@@6B@
  ??_7CHaltable@@6B@="C:\Windows\System32\wbemcomn".??_7CHaltable@@6B@
  ??_7CIdentityTest@@6B@="C:\Windows\System32\wbemcomn".??_7CIdentityTest@@6B@
  ??_7CInstructionTest@@6B@="C:\Windows\System32\wbemcomn".??_7CInstructionTest@@6B@
  ??_7CLifeControl@@6B@="C:\Windows\System32\wbemcomn".??_7CLifeControl@@6B@
  ??_7CLimitControl@@6B@="C:\Windows\System32\wbemcomn".??_7CLimitControl@@6B@
  ??_7CMinMaxLimitControl@@6B@="C:\Windows\System32\wbemcomn".??_7CMinMaxLimitControl@@6B@
  ??_7CNtAce@@6B@="C:\Windows\System32\wbemcomn".??_7CNtAce@@6B@
  ??_7CQl1ParseSink@@6B@="C:\Windows\System32\wbemcomn".??_7CQl1ParseSink@@6B@
  ??_7CRegistryMinMaxLimitControl@@6B@="C:\Windows\System32\wbemcomn".??_7CRegistryMinMaxLimitControl@@6B@
  ??_7CTimerGenerator@@6B@="C:\Windows\System32\wbemcomn".??_7CTimerGenerator@@6B@
  ??_7CTimerInstruction@@6B@="C:\Windows\System32\wbemcomn".??_7CTimerInstruction@@6B@
  ??_7CUnk@@6B@="C:\Windows\System32\wbemcomn".??_7CUnk@@6B@
  ??_7CUnkInternal@@6B@="C:\Windows\System32\wbemcomn".??_7CUnkInternal@@6B@
  ??_7CWbemCallSecurity@@6B@="C:\Windows\System32\wbemcomn".??_7CWbemCallSecurity@@6B@
  ??_7CWin32DefaultArena@@6B@="C:\Windows\System32\wbemcomn".??_7CWin32DefaultArena@@6B@
  ??_7QL1_Parser@@6B@="C:\Windows\System32\wbemcomn".??_7QL1_Parser@@6B@
  ??_7QL_LEVEL_1_RPN_EXPRESSION@@6B@="C:\Windows\System32\wbemcomn".??_7QL_LEVEL_1_RPN_EXPRESSION@@6B@
  ??_FCBuffer@@QEAAXXZ="C:\Windows\System32\wbemcomn".??_FCBuffer@@QEAAXXZ
  ??_FCEventLog@@QEAAXXZ="C:\Windows\System32\wbemcomn".??_FCEventLog@@QEAAXXZ
  ??_FCFlexArray@@QEAAXXZ="C:\Windows\System32\wbemcomn".??_FCFlexArray@@QEAAXXZ
  ??_FCFlexQueue@@QEAAXXZ="C:\Windows\System32\wbemcomn".??_FCFlexQueue@@QEAAXXZ
  ??_FCNtAcl@@QEAAXXZ="C:\Windows\System32\wbemcomn".??_FCNtAcl@@QEAAXXZ
  ??_FCTextTemplate@@QEAAXXZ="C:\Windows\System32\wbemcomn".??_FCTextTemplate@@QEAAXXZ
  ??_FCUnk@@QEAAXXZ="C:\Windows\System32\wbemcomn".??_FCUnk@@QEAAXXZ
  ??_FCWStringArray@@QEAAXXZ="C:\Windows\System32\wbemcomn".??_FCWStringArray@@QEAAXXZ
  ?AbortCompression@CMRCIControl@@QEAAXXZ="C:\Windows\System32\wbemcomn".?AbortCompression@CMRCIControl@@QEAAXXZ
  ?AbortRequested@CMRCIControl@@QEAAHXZ="C:\Windows\System32\wbemcomn".?AbortRequested@CMRCIControl@@QEAAHXZ
  ?Access@CSafeArray@@QEAAJPEAPEAX@Z="C:\Windows\System32\wbemcomn".?Access@CSafeArray@@QEAAJPEAPEAX@Z
  ?AccessCheck@CIdentitySecurity@@QEAAHXZ="C:\Windows\System32\wbemcomn".?AccessCheck@CIdentitySecurity@@QEAAHXZ
  ?AccessRawArray@CVarVector@@QEAAJPEAPEAX@Z="C:\Windows\System32\wbemcomn".?AccessRawArray@CVarVector@@QEAAJPEAPEAX@Z
  ?Add@CFlexArray@@QEAAHPEAX@Z="C:\Windows\System32\wbemcomn".?Add@CFlexArray@@QEAAHPEAX@Z
  ?Add@CMinMaxLimitControl@@UEAAJKKPEAK@Z="C:\Windows\System32\wbemcomn".?Add@CMinMaxLimitControl@@UEAAJKKPEAK@Z
  ?Add@CVarVector@@QEAAHAEAVCVar@@@Z="C:\Windows\System32\wbemcomn".?Add@CVarVector@@QEAAHAEAVCVar@@@Z
  ?Add@CVarVector@@QEAAHPEAVCVar@@@Z="C:\Windows\System32\wbemcomn".?Add@CVarVector@@QEAAHPEAVCVar@@@Z
  ?Add@CWStringArray@@QEAAHPEBG@Z="C:\Windows\System32\wbemcomn".?Add@CWStringArray@@QEAAHPEBG@Z
  ?AddAce@CNtAcl@@QEAAHPEAVCNtAce@@@Z="C:\Windows\System32\wbemcomn".?AddAce@CNtAcl@@QEAAHPEAVCNtAce@@@Z
  ?AddAggregationProperty@QL_LEVEL_1_RPN_EXPRESSION@@UEAAXAEBVCPropertyName@@@Z="C:\Windows\System32\wbemcomn".?AddAggregationProperty@QL_LEVEL_1_RPN_EXPRESSION@@UEAAXAEBVCPropertyName@@@Z
  ?AddAllAggregationProperties@QL_LEVEL_1_RPN_EXPRESSION@@UEAAXXZ="C:\Windows\System32\wbemcomn".?AddAllAggregationProperties@QL_LEVEL_1_RPN_EXPRESSION@@UEAAXXZ
  ?AddAllProperties@QL_LEVEL_1_RPN_EXPRESSION@@UEAAXXZ="C:\Windows\System32\wbemcomn".?AddAllProperties@QL_LEVEL_1_RPN_EXPRESSION@@UEAAXXZ
  ?AddAppropriateToken@CAbstractQl1Parser@@IEAAXAEBU_tag_WbemQl1Token@@@Z="C:\Windows\System32\wbemcomn".?AddAppropriateToken@CAbstractQl1Parser@@IEAAXAEBU_tag_WbemQl1Token@@@Z
  ?AddBSTR@CSafeArray@@QEAAHPEAG@Z="C:\Windows\System32\wbemcomn".?AddBSTR@CSafeArray@@QEAAHPEAG@Z
  ?AddBool@CSafeArray@@QEAAHF@Z="C:\Windows\System32\wbemcomn".?AddBool@CSafeArray@@QEAAHF@Z
  ?AddByte@CSafeArray@@QEAAHE@Z="C:\Windows\System32\wbemcomn".?AddByte@CSafeArray@@QEAAHE@Z
  ?AddChild@CClientOpsNode@@QEAAXPEAV1@@Z="C:\Windows\System32\wbemcomn".?AddChild@CClientOpsNode@@QEAAXPEAV1@@Z
  ?AddCulture@CMUILocaleList@@AEAAJPEBGW4LocaleType@CMUILocale@@K@Z="C:\Windows\System32\wbemcomn".?AddCulture@CMUILocaleList@@AEAAJPEBGW4LocaleType@CMUILocale@@K@Z
  ?AddDispatch@CSafeArray@@QEAAHPEAUIDispatch@@@Z="C:\Windows\System32\wbemcomn".?AddDispatch@CSafeArray@@QEAAHPEAUIDispatch@@@Z
  ?AddDouble@CSafeArray@@QEAAHN@Z="C:\Windows\System32\wbemcomn".?AddDouble@CSafeArray@@QEAAHN@Z
  ?AddElement@CPropertyName@@QEAAXPEBG@Z="C:\Windows\System32\wbemcomn".?AddElement@CPropertyName@@QEAAXPEBG@Z
  ?AddEnvironmentValue@CWbemInstallObject@@SAJPEBG0@Z="C:\Windows\System32\wbemcomn".?AddEnvironmentValue@CWbemInstallObject@@SAJPEBG0@Z
  ?AddFloat@CSafeArray@@QEAAHM@Z="C:\Windows\System32\wbemcomn".?AddFloat@CSafeArray@@QEAAHM@Z
  ?AddHavingToken@QL_LEVEL_1_RPN_EXPRESSION@@UEAAXAEBU_tag_WbemQl1Token@@@Z="C:\Windows\System32\wbemcomn".?AddHavingToken@QL_LEVEL_1_RPN_EXPRESSION@@UEAAXAEBU_tag_WbemQl1Token@@@Z
  ?AddInsertionString@CEventLogRecord@@IEAAXAEAVCInsertionString@@@Z="C:\Windows\System32\wbemcomn".?AddInsertionString@CEventLogRecord@@IEAAXAEAVCInsertionString@@@Z
  ?AddLocale@CMUILocaleList@@AEAAJPEBGW4LocaleType@CMUILocale@@K@Z="C:\Windows\System32\wbemcomn".?AddLocale@CMUILocaleList@@AEAAJPEBGW4LocaleType@CMUILocale@@K@Z
  ?AddLong@CSafeArray@@QEAAHJ@Z="C:\Windows\System32\wbemcomn".?AddLong@CSafeArray@@QEAAHJ@Z
  ?AddMember@CLimitControl@@UEAAJXZ="C:\Windows\System32\wbemcomn".?AddMember@CLimitControl@@UEAAJXZ
  ?AddProperty@QL_LEVEL_1_RPN_EXPRESSION@@UEAAXAEBVCPropertyName@@@Z="C:\Windows\System32\wbemcomn".?AddProperty@QL_LEVEL_1_RPN_EXPRESSION@@UEAAXAEBVCPropertyName@@@Z
  ?AddRecord@CEventLog@@IEAAHPEAVCEventLogRecord@@@Z="C:\Windows\System32\wbemcomn".?AddRecord@CEventLog@@IEAAHPEAVCEventLogRecord@@@Z
  ?AddRef@CBasicUnloadInstruction@@UEAAXXZ="C:\Windows\System32\wbemcomn".?AddRef@CBasicUnloadInstruction@@UEAAXXZ
  ?AddRef@CBuffer@@UEAAKXZ="C:\Windows\System32\wbemcomn".?AddRef@CBuffer@@UEAAKXZ
  ?AddRef@CContainerControl@@UEAAXPEAUIUnknown@@@Z="C:\Windows\System32\wbemcomn".?AddRef@CContainerControl@@UEAAXPEAUIUnknown@@@Z
  ?AddRef@CExecQueue@@QEAAXXZ="C:\Windows\System32\wbemcomn".?AddRef@CExecQueue@@QEAAXXZ
  ?AddRef@CUnk@@UEAAKXZ="C:\Windows\System32\wbemcomn".?AddRef@CUnk@@UEAAKXZ
  ?AddRef@CUnkInternal@@UEAAKXZ="C:\Windows\System32\wbemcomn".?AddRef@CUnkInternal@@UEAAKXZ
  ?AddRef@CWbemCallSecurity@@UEAAKXZ="C:\Windows\System32\wbemcomn".?AddRef@CWbemCallSecurity@@UEAAKXZ
  ?AddRef@QL_LEVEL_1_RPN_EXPRESSION@@QEAAXXZ="C:\Windows\System32\wbemcomn".?AddRef@QL_LEVEL_1_RPN_EXPRESSION@@QEAAXXZ
  ?AddScalar@CSafeArray@@AEAAHTSA_ArrayScalar@@@Z="C:\Windows\System32\wbemcomn".?AddScalar@CSafeArray@@AEAAHTSA_ArrayScalar@@@Z
  ?AddShort@CSafeArray@@QEAAHF@Z="C:\Windows\System32\wbemcomn".?AddShort@CSafeArray@@QEAAHF@Z
  ?AddToken@QL_LEVEL_1_RPN_EXPRESSION@@QEAAXAEBUQL_LEVEL_1_TOKEN@@@Z="C:\Windows\System32\wbemcomn".?AddToken@QL_LEVEL_1_RPN_EXPRESSION@@QEAAXAEBUQL_LEVEL_1_TOKEN@@@Z
  ?AddToken@QL_LEVEL_1_RPN_EXPRESSION@@UEAAXAEBU_tag_WbemQl1Token@@@Z="C:\Windows\System32\wbemcomn".?AddToken@QL_LEVEL_1_RPN_EXPRESSION@@UEAAXAEBU_tag_WbemQl1Token@@@Z
  ?AddUnknown@CSafeArray@@QEAAHPEAUIUnknown@@@Z="C:\Windows\System32\wbemcomn".?AddUnknown@CSafeArray@@QEAAHPEAUIUnknown@@@Z
  ?AddVariant@CSafeArray@@QEAAHPEAUtagVARIANT@@@Z="C:\Windows\System32\wbemcomn".?AddVariant@CSafeArray@@QEAAHPEAUtagVARIANT@@@Z
  ?AdjustInitialPriority@CExecQueue@@MEAAXPEAVCExecRequest@@@Z="C:\Windows\System32\wbemcomn".?AdjustInitialPriority@CExecQueue@@MEAAXPEAVCExecRequest@@@Z
  ?AdjustPriorityForPassing@CExecQueue@@MEAAXPEAVCExecRequest@@@Z="C:\Windows\System32\wbemcomn".?AdjustPriorityForPassing@CExecQueue@@MEAAXPEAVCExecRequest@@@Z
  ?Advance@CBuffer@@QEAAJK@Z="C:\Windows\System32\wbemcomn".?Advance@CBuffer@@QEAAJK@Z
  ?AliasToTable@CWQLScanner@@QEAAQEAGPEAG@Z="C:\Windows\System32\wbemcomn".?AliasToTable@CWQLScanner@@QEAAQEAGPEAG@Z
  ?Alloc@CWin32DefaultArena@@UEAAPEAX_K@Z="C:\Windows\System32\wbemcomn".?Alloc@CWin32DefaultArena@@UEAAPEAX_K@Z
  ?AllocAmPm@CDateTimeParser@@IEAAPEAGXZ="C:\Windows\System32\wbemcomn".?AllocAmPm@CDateTimeParser@@IEAAPEAGXZ
  ?AppendBuffer@WString2@@AEAAXPEBG_K@Z="C:\Windows\System32\wbemcomn".?AppendBuffer@WString2@@AEAAXPEBG_K@Z
  ?AppendCulture@CMUILocaleList@@AEAAJPEBG@Z="C:\Windows\System32\wbemcomn".?AppendCulture@CMUILocaleList@@AEAAJPEBG@Z
  ?AppendLocale@CMUILocaleList@@AEAAJPEBG@Z="C:\Windows\System32\wbemcomn".?AppendLocale@CMUILocaleList@@AEAAJPEBG@Z
  ?Apply@CTextTemplate@@QEAAPEAGPEAUIWbemClassObject@@@Z="C:\Windows\System32\wbemcomn".?Apply@CTextTemplate@@QEAAPEAGPEAUIWbemClassObject@@@Z
  ?Bind@CFlexArray@@QEAAXAEAV1@@Z="C:\Windows\System32\wbemcomn".?Bind@CFlexArray@@QEAAXAEAV1@@Z
  ?BindPtr@WString2@@QEAAXPEAG@Z="C:\Windows\System32\wbemcomn".?BindPtr@WString2@@QEAAXPEAG@Z
  ?BindPtr@WString@@QEAAXPEAG@Z="C:\Windows\System32\wbemcomn".?BindPtr@WString@@QEAAXPEAG@Z
  ?BreakWait@CInstructionQueue@@QEAAXXZ="C:\Windows\System32\wbemcomn".?BreakWait@CInstructionQueue@@QEAAXXZ
  ?BuildSWQLColRef@CWQLScanner@@AEAAHAEAVCFlexArray@@AEAUSWQLColRef@@@Z="C:\Windows\System32\wbemcomn".?BuildSWQLColRef@CWQLScanner@@AEAAHAEAVCFlexArray@@AEAUSWQLColRef@@@Z
  ?CalcSitOutPenalty@CExecQueue@@MEAAKJ@Z="C:\Windows\System32\wbemcomn".?CalcSitOutPenalty@CExecQueue@@MEAAKJ@Z
  ?CanDelete@CVar@@QEAAHXZ="C:\Windows\System32\wbemcomn".?CanDelete@CVar@@QEAAHXZ
  ?CaptureStackTrace@CMemoryLog@@AEAAXQEAPEAX@Z="C:\Windows\System32\wbemcomn".?CaptureStackTrace@CMemoryLog@@AEAAXQEAPEAX@Z
  ?Change@CInstructionQueue@@QEAAJPEAVCTimerInstruction@@VCWbemTime@@@Z="C:\Windows\System32\wbemcomn".?Change@CInstructionQueue@@QEAAJPEAVCTimerInstruction@@VCWbemTime@@@Z
  ?ChangeTypeTo@CVar@@QEAAHG@Z="C:\Windows\System32\wbemcomn".?ChangeTypeTo@CVar@@QEAAHG@Z
  ?ChangeTypeToEx@CVar@@QEAAHGK@Z="C:\Windows\System32\wbemcomn".?ChangeTypeToEx@CVar@@QEAAHGK@Z
  ?CheckDMTFDateTimeFormat@CDateTimeParser@@SAHPEBGHH@Z="C:\Windows\System32\wbemcomn".?CheckDMTFDateTimeFormat@CDateTimeParser@@SAHPEBGHH@Z
  ?CheckDMTFDateTimeFormatInternal@CDateTimeParser@@IEAAHPEBG@Z="C:\Windows\System32\wbemcomn".?CheckDMTFDateTimeFormatInternal@CDateTimeParser@@IEAAHPEBG@Z
  ?CheckDMTFDateTimeInterval@CDateTimeParser@@SAHPEBG@Z="C:\Windows\System32\wbemcomn".?CheckDMTFDateTimeInterval@CDateTimeParser@@SAHPEBG@Z
  ?CheckDateFormat@CDateTimeParser@@IEAAHPEBGH@Z="C:\Windows\System32\wbemcomn".?CheckDateFormat@CDateTimeParser@@IEAAHPEBGH@Z
  ?CheckLangNeutral@CMUILocale@@SAJPEBGPEA_N@Z="C:\Windows\System32\wbemcomn".?CheckLangNeutral@CMUILocale@@SAJPEBGPEA_N@Z
  ?CheckTimeFormat@CDateTimeParser@@IEAAHPEBGH@Z="C:\Windows\System32\wbemcomn".?CheckTimeFormat@CDateTimeParser@@IEAAHPEBGH@Z
  ?CheckType@CSafeArray@@AEAAXH@Z="C:\Windows\System32\wbemcomn".?CheckType@CSafeArray@@AEAAXH@Z
  ?CleanUp@CWbemInstallObject@@SAXXZ="C:\Windows\System32\wbemcomn".?CleanUp@CWbemInstallObject@@SAXXZ
  ?ClearPropRefs@CWQLScanner@@AEAAXXZ="C:\Windows\System32\wbemcomn".?ClearPropRefs@CWQLScanner@@AEAAXXZ
  ?ClearTableRefs@CWQLScanner@@AEAAXXZ="C:\Windows\System32\wbemcomn".?ClearTableRefs@CWQLScanner@@AEAAXXZ
  ?ClearTokens@CWQLScanner@@AEAAXXZ="C:\Windows\System32\wbemcomn".?ClearTokens@CWQLScanner@@AEAAXXZ
  ?Clone@CBuffer@@UEAAJPEAPEAUIStream@@@Z="C:\Windows\System32\wbemcomn".?Clone@CBuffer@@UEAAJPEAPEAUIStream@@@Z
  ?CloneData@CSmallArrayBlob@@QEAAPEAPEAXXZ="C:\Windows\System32\wbemcomn".?CloneData@CSmallArrayBlob@@QEAAPEAPEAXXZ
  ?CloneThreadContext@CWbemCallSecurity@@UEAAJH@Z="C:\Windows\System32\wbemcomn".?CloneThreadContext@CWbemCallSecurity@@UEAAJH@Z
  ?CloneThreadToken@CWbemCallSecurity@@AEAAJK@Z="C:\Windows\System32\wbemcomn".?CloneThreadToken@CWbemCallSecurity@@AEAAJK@Z
  ?Close@CEventLog@@QEAAHXZ="C:\Windows\System32\wbemcomn".?Close@CEventLog@@QEAAHXZ
  ?CoCreateInstance@CWbemInstallObject@@SAJAEBU_GUID@@PEAUIUnknown@@K0PEAPEAX@Z="C:\Windows\System32\wbemcomn".?CoCreateInstance@CWbemInstallObject@@SAJAEBU_GUID@@PEAUIUnknown@@K0PEAPEAX@Z
  ?CoGetClassObject@CWbemInstallObject@@SAJAEBU_GUID@@KPEAU_COSERVERINFO@@0PEAPEAX@Z="C:\Windows\System32\wbemcomn".?CoGetClassObject@CWbemInstallObject@@SAJAEBU_GUID@@KPEAU_COSERVERINFO@@0PEAPEAX@Z
  ?Commit@CBuffer@@UEAAJK@Z="C:\Windows\System32\wbemcomn".?Commit@CBuffer@@UEAAJK@Z
  ?CompareEls@CFlexArray@@KAHPEBX0@Z="C:\Windows\System32\wbemcomn".?CompareEls@CFlexArray@@KAHPEBX0@Z
  ?CompareEls@CSmallArrayBlob@@KAHPEBX0@Z="C:\Windows\System32\wbemcomn".?CompareEls@CSmallArrayBlob@@KAHPEBX0@Z
  ?CompareTo@CVar@@QEAAHAEAV1@H@Z="C:\Windows\System32\wbemcomn".?CompareTo@CVar@@QEAAHAEAV1@H@Z
  ?CompareTo@CVarVector@@QEAAHAEAV1@H@Z="C:\Windows\System32\wbemcomn".?CompareTo@CVarVector@@QEAAHAEAV1@H@Z
  ?Compress@CFlexArray@@QEAAXXZ="C:\Windows\System32\wbemcomn".?Compress@CFlexArray@@QEAAXXZ
  ?Compress@CWStringArray@@QEAAXXZ="C:\Windows\System32\wbemcomn".?Compress@CWStringArray@@QEAAXXZ
  ?CompressBuffer@CMRCICompression@@QEAAIPEAEK0KW4CompressionLevel@1@@Z="C:\Windows\System32\wbemcomn".?CompressBuffer@CMRCICompression@@QEAAIPEAEK0KW4CompressionLevel@1@@Z
  ?CompressFile@CMRCICompression@@QEAAHPEBG0KW4CompressionLevel@1@PEAVCMRCIControl@@@Z="C:\Windows\System32\wbemcomn".?CompressFile@CMRCICompression@@QEAAHPEBG0KW4CompressionLevel@1@PEAVCMRCIControl@@@Z
  ?CompressFileV1@CMRCICompression@@IEAAHHHKW4CompressionLevel@1@PEAVCMRCIControl@@@Z="C:\Windows\System32\wbemcomn".?CompressFileV1@CMRCICompression@@IEAAHHHKW4CompressionLevel@1@PEAVCMRCIControl@@@Z
  ?ComputePenalty@CMinMaxLimitControl@@IEAAJKKPEAKPEAH@Z="C:\Windows\System32\wbemcomn".?ComputePenalty@CMinMaxLimitControl@@IEAAJKKPEAKPEAH@Z
  ?ConcatWithoutQuotes@CTextTemplate@@AEAAXAEAVWString2@@AEAPEAG@Z="C:\Windows\System32\wbemcomn".?ConcatWithoutQuotes@CTextTemplate@@AEAAXAEAVWString2@@AEAPEAG@Z
  ?ContainsSid@CNtAcl@@QEAAHAEAVCNtSid@@AEAE@Z="C:\Windows\System32\wbemcomn".?ContainsSid@CNtAcl@@QEAAHAEAVCNtSid@@AEAE@Z
  ?CopyBuffer@WString2@@AEAAXPEBG_K@Z="C:\Windows\System32\wbemcomn".?CopyBuffer@WString2@@AEAAXPEBG_K@Z
  ?CopyData@CSmallArrayBlob@@IEAAXPEAV1@@Z="C:\Windows\System32\wbemcomn".?CopyData@CSmallArrayBlob@@IEAAXPEAV1@@Z
  ?CopyDataFrom@CFlexArray@@QEAAHAEBV1@@Z="C:\Windows\System32\wbemcomn".?CopyDataFrom@CFlexArray@@QEAAHAEBV1@@Z
  ?CopyTo@CBuffer@@UEAAJPEAUIStream@@T_ULARGE_INTEGER@@PEAT3@2@Z="C:\Windows\System32\wbemcomn".?CopyTo@CBuffer@@UEAAJPEAUIStream@@T_ULARGE_INTEGER@@PEAT3@2@Z
  ?CopyTo@CNtSid@@QEAAHPEAX@Z="C:\Windows\System32\wbemcomn".?CopyTo@CNtSid@@QEAAHPEAX@Z
  ?CountQuery@CWQLScanner@@QEAAHXZ="C:\Windows\System32\wbemcomn".?CountQuery@CWQLScanner@@QEAAHXZ
  ?CreateBlob@CSmallArrayBlob@@SAPEAV1@H@Z="C:\Windows\System32\wbemcomn".?CreateBlob@CSmallArrayBlob@@SAPEAV1@H@Z
  ?CreateInst@CWbemCallSecurity@@SAPEAVIWbemCallSecurity@@XZ="C:\Windows\System32\wbemcomn".?CreateInst@CWbemCallSecurity@@SAPEAVIWbemCallSecurity@@XZ
  ?CreateNewThread@CExecQueue@@MEAAHXZ="C:\Windows\System32\wbemcomn".?CreateNewThread@CExecQueue@@MEAAHXZ
  ?CurrentLine@CAbstractQl1Parser@@QEAAHXZ="C:\Windows\System32\wbemcomn".?CurrentLine@CAbstractQl1Parser@@QEAAHXZ
  ?CurrentToken@CAbstractQl1Parser@@QEAAPEAGXZ="C:\Windows\System32\wbemcomn".?CurrentToken@CAbstractQl1Parser@@QEAAPEAGXZ
  ?DateFormat10@CDateTimeParser@@IEAAHPEBG0H@Z="C:\Windows\System32\wbemcomn".?DateFormat10@CDateTimeParser@@IEAAHPEBG0H@Z
  ?DateFormat11@CDateTimeParser@@IEAAHPEBG0H@Z="C:\Windows\System32\wbemcomn".?DateFormat11@CDateTimeParser@@IEAAHPEBG0H@Z
  ?DateFormat12@CDateTimeParser@@IEAAHPEBG0H@Z="C:\Windows\System32\wbemcomn".?DateFormat12@CDateTimeParser@@IEAAHPEBG0H@Z
  ?DateFormat13@CDateTimeParser@@IEAAHPEBG0H@Z="C:\Windows\System32\wbemcomn".?DateFormat13@CDateTimeParser@@IEAAHPEBG0H@Z
  ?DateFormat14@CDateTimeParser@@IEAAHPEBG0H@Z="C:\Windows\System32\wbemcomn".?DateFormat14@CDateTimeParser@@IEAAHPEBG0H@Z
  ?DateFormat15@CDateTimeParser@@IEAAHPEBGH@Z="C:\Windows\System32\wbemcomn".?DateFormat15@CDateTimeParser@@IEAAHPEBGH@Z
  ?DateFormat1@CDateTimeParser@@IEAAHPEBGH@Z="C:\Windows\System32\wbemcomn".?DateFormat1@CDateTimeParser@@IEAAHPEBGH@Z
  ?DateFormat2@CDateTimeParser@@IEAAHPEBGH@Z="C:\Windows\System32\wbemcomn".?DateFormat2@CDateTimeParser@@IEAAHPEBGH@Z
  ?DateFormat3@CDateTimeParser@@IEAAHPEBGH@Z="C:\Windows\System32\wbemcomn".?DateFormat3@CDateTimeParser@@IEAAHPEBGH@Z
  ?DateFormat4@CDateTimeParser@@IEAAHPEBGH@Z="C:\Windows\System32\wbemcomn".?DateFormat4@CDateTimeParser@@IEAAHPEBGH@Z
  ?DateFormat5@CDateTimeParser@@IEAAHPEBGH@Z="C:\Windows\System32\wbemcomn".?DateFormat5@CDateTimeParser@@IEAAHPEBGH@Z
  ?DateFormat6@CDateTimeParser@@IEAAHPEBGH@Z="C:\Windows\System32\wbemcomn".?DateFormat6@CDateTimeParser@@IEAAHPEBGH@Z
  ?DateFormat7@CDateTimeParser@@IEAAHPEBGH@Z="C:\Windows\System32\wbemcomn".?DateFormat7@CDateTimeParser@@IEAAHPEBGH@Z
  ?DateFormat8@CDateTimeParser@@IEAAHPEBGH@Z="C:\Windows\System32\wbemcomn".?DateFormat8@CDateTimeParser@@IEAAHPEBGH@Z
  ?DateFormat9@CDateTimeParser@@IEAAHPEBG0H@Z="C:\Windows\System32\wbemcomn".?DateFormat9@CDateTimeParser@@IEAAHPEBG0H@Z
  ?DebugDump@CFlexArray@@QEAAXXZ="C:\Windows\System32\wbemcomn".?DebugDump@CFlexArray@@QEAAXXZ
  ?DecrementIndex@CFlexQueue@@IEAAXAEAH@Z="C:\Windows\System32\wbemcomn".?DecrementIndex@CFlexQueue@@IEAAXAEAH@Z
  ?DeleteAce@CNtAcl@@QEAAHH@Z="C:\Windows\System32\wbemcomn".?DeleteAce@CNtAcl@@QEAAHH@Z
  ?DeletePropertyName@CAbstractQl1Parser@@IEAAXXZ="C:\Windows\System32\wbemcomn".?DeletePropertyName@CAbstractQl1Parser@@IEAAXXZ
  ?DeleteSacl@CNtSecurityDescriptor@@QEAAJXZ="C:\Windows\System32\wbemcomn".?DeleteSacl@CNtSecurityDescriptor@@QEAAJXZ
  ?DeleteStr@CWStringArray@@QEAAHH@Z="C:\Windows\System32\wbemcomn".?DeleteStr@CWStringArray@@QEAAHH@Z
  ?DeleteString@WString2@@AEAAX_N@Z="C:\Windows\System32\wbemcomn".?DeleteString@WString2@@AEAAX_N@Z
  ?DeleteString@WString@@AEAAXPEAG@Z="C:\Windows\System32\wbemcomn".?DeleteString@WString@@AEAAXPEAG@Z
  ?DeleteValue@Registry@@QEAAHPEBG@Z="C:\Windows\System32\wbemcomn".?DeleteValue@Registry@@QEAAHPEBG@Z
  ?Dequeue@CFlexQueue@@QEAAPEAXXZ="C:\Windows\System32\wbemcomn".?Dequeue@CFlexQueue@@QEAAPEAXXZ
  ?Dequeue@CInstructionQueue@@QEAAJAEAPEAVCTimerInstruction@@AEAVCWbemTime@@@Z="C:\Windows\System32\wbemcomn".?Dequeue@CInstructionQueue@@QEAAJAEAPEAVCTimerInstruction@@AEAVCWbemTime@@@Z
  ?Deserialize@C9XAce@@UEAA_NPEAE@Z="C:\Windows\System32\wbemcomn".?Deserialize@C9XAce@@UEAA_NPEAE@Z
  ?Deserialize@CNtAce@@UEAA_NPEAE@Z="C:\Windows\System32\wbemcomn".?Deserialize@CNtAce@@UEAA_NPEAE@Z
  ?Difference@CWStringArray@@SAXAEAV1@00@Z="C:\Windows\System32\wbemcomn".?Difference@CWStringArray@@SAXAEAV1@00@Z
  ?Disable@CTraceSessionControl@@QEAAKXZ="C:\Windows\System32\wbemcomn".?Disable@CTraceSessionControl@@QEAAKXZ
  ?DoLike@CLike@@IEAA_NPEBG0G@Z="C:\Windows\System32\wbemcomn".?DoLike@CLike@@IEAA_NPEBG0G@Z
  ?DoesNeedNewThread@CExecQueue@@MEAAHPEAVCExecRequest@@@Z="C:\Windows\System32\wbemcomn".?DoesNeedNewThread@CExecQueue@@MEAAHPEAVCExecRequest@@@Z
  ?DoesVectorTypeMatchArrayType@CVarVector@@QEAAHXZ="C:\Windows\System32\wbemcomn".?DoesVectorTypeMatchArrayType@CVarVector@@QEAAHXZ
  ?Dump@CWQLScanner@@QEAAXXZ="C:\Windows\System32\wbemcomn".?Dump@CWQLScanner@@QEAAXXZ
  ?Dump@QL_LEVEL_1_RPN_EXPRESSION@@QEAAXPEBD@Z="C:\Windows\System32\wbemcomn".?Dump@QL_LEVEL_1_RPN_EXPRESSION@@QEAAXPEBD@Z
  ?Dump@QL_LEVEL_1_TOKEN@@QEAAXPEAU_iobuf@@@Z="C:\Windows\System32\wbemcomn".?Dump@QL_LEVEL_1_TOKEN@@QEAAXPEAU_iobuf@@@Z
  ?DumpError@CExecRequest@@UEAAXXZ="C:\Windows\System32\wbemcomn".?DumpError@CExecRequest@@UEAAXXZ
  ?DumpText@CVar@@QEAAHPEAU_iobuf@@@Z="C:\Windows\System32\wbemcomn".?DumpText@CVar@@QEAAHPEAU_iobuf@@@Z
  ?ElementSize@CSafeArray@@QEAAHXZ="C:\Windows\System32\wbemcomn".?ElementSize@CSafeArray@@QEAAHXZ
  ?Empty@CFlexArray@@QEAAXXZ="C:\Windows\System32\wbemcomn".?Empty@CFlexArray@@QEAAXXZ
  ?Empty@CPropertyName@@QEAAXXZ="C:\Windows\System32\wbemcomn".?Empty@CPropertyName@@QEAAXXZ
  ?Empty@CSafeArray@@QEAAXXZ="C:\Windows\System32\wbemcomn".?Empty@CSafeArray@@QEAAXXZ
  ?Empty@CVar@@QEAAXXZ="C:\Windows\System32\wbemcomn".?Empty@CVar@@QEAAXXZ
  ?Empty@CVarVector@@QEAAXXZ="C:\Windows\System32\wbemcomn".?Empty@CVarVector@@QEAAXXZ
  ?Empty@CWStringArray@@QEAAXXZ="C:\Windows\System32\wbemcomn".?Empty@CWStringArray@@QEAAXXZ
  ?Empty@WString2@@QEAAXXZ="C:\Windows\System32\wbemcomn".?Empty@WString2@@QEAAXXZ
  ?Empty@WString@@QEAAXXZ="C:\Windows\System32\wbemcomn".?Empty@WString@@QEAAXXZ
  ?Enable@CTraceSessionControl@@QEAAKXZ="C:\Windows\System32\wbemcomn".?Enable@CTraceSessionControl@@QEAAKXZ
  ?EncryptedCall@CIdentitySecurity@@AEAA_NXZ="C:\Windows\System32\wbemcomn".?EncryptedCall@CIdentitySecurity@@AEAA_NXZ
  ?Enqueue@CExecQueue@@UEAAJPEAVCExecRequest@@PEAPEAX@Z="C:\Windows\System32\wbemcomn".?Enqueue@CExecQueue@@UEAAJPEAVCExecRequest@@PEAPEAX@Z
  ?Enqueue@CFlexQueue@@QEAA_NPEAX@Z="C:\Windows\System32\wbemcomn".?Enqueue@CFlexQueue@@QEAA_NPEAX@Z
  ?Enqueue@CInstructionQueue@@QEAAJVCWbemTime@@PEAVCTimerInstruction@@@Z="C:\Windows\System32\wbemcomn".?Enqueue@CInstructionQueue@@QEAAJVCWbemTime@@PEAVCTimerInstruction@@@Z
  ?EnqueueAndWait@CExecQueue@@QEAAJPEAVCExecRequest@@@Z="C:\Windows\System32\wbemcomn".?EnqueueAndWait@CExecQueue@@QEAAJPEAVCExecRequest@@@Z
  ?EnqueueWithoutSleep@CExecQueue@@QEAAJPEAVCExecRequest@@PEAPEAX@Z="C:\Windows\System32\wbemcomn".?EnqueueWithoutSleep@CExecQueue@@QEAAJPEAVCExecRequest@@PEAPEAX@Z
  ?EnsureAllocated@CPropertyName@@IEAAXJ@Z="C:\Windows\System32\wbemcomn".?EnsureAllocated@CPropertyName@@IEAAXJ@Z
  ?EnsureExtent@CFlexArray@@QEAAHH@Z="C:\Windows\System32\wbemcomn".?EnsureExtent@CFlexArray@@QEAAHH@Z
  ?EnsureExtent@CSmallArrayBlob@@IEAAPEAV1@H@Z="C:\Windows\System32\wbemcomn".?EnsureExtent@CSmallArrayBlob@@IEAAPEAV1@H@Z
  ?EnsureMatchState@CLike@@AEAAX_K@Z="C:\Windows\System32\wbemcomn".?EnsureMatchState@CLike@@AEAAX_K@Z
  ?EnsureRunning@CTimerGenerator@@AEAAXXZ="C:\Windows\System32\wbemcomn".?EnsureRunning@CTimerGenerator@@AEAAXXZ
  ?EnsureSize@CBuffer@@AEAAXK@Z="C:\Windows\System32\wbemcomn".?EnsureSize@CBuffer@@AEAAXK@Z
  ?Enter@CCheckedInCritSec@@QEAAXXZ="C:\Windows\System32\wbemcomn".?Enter@CCheckedInCritSec@@QEAAXXZ
  ?Enter@CCritSec@@QEAAXXZ="C:\Windows\System32\wbemcomn".?Enter@CCritSec@@QEAAXXZ
  ?Enter@CExecQueue@@QEAAXXZ="C:\Windows\System32\wbemcomn".?Enter@CExecQueue@@QEAAXXZ
  ?Enter@CStaticCritSec@@QEAAXXZ="C:\Windows\System32\wbemcomn".?Enter@CStaticCritSec@@QEAAXXZ
  ?Enter@CWbemCriticalSection@@QEAAHK@Z="C:\Windows\System32\wbemcomn".?Enter@CWbemCriticalSection@@QEAAHK@Z
  ?Equal@WString2@@QEBAHPEBG@Z="C:\Windows\System32\wbemcomn".?Equal@WString2@@QEBAHPEBG@Z
  ?Equal@WString@@QEBAHPEBG@Z="C:\Windows\System32\wbemcomn".?Equal@WString@@QEBAHPEBG@Z
  ?EqualNoCase@WString2@@QEBAHPEBG@Z="C:\Windows\System32\wbemcomn".?EqualNoCase@WString2@@QEBAHPEBG@Z
  ?EqualNoCase@WString@@QEBAHPEBG@Z="C:\Windows\System32\wbemcomn".?EqualNoCase@WString@@QEBAHPEBG@Z
  ?EscapeQuotes@WString2@@QEBA?AV1@XZ="C:\Windows\System32\wbemcomn".?EscapeQuotes@WString2@@QEBA?AV1@XZ
  ?EscapeQuotes@WString@@QEBA?AV1@XZ="C:\Windows\System32\wbemcomn".?EscapeQuotes@WString@@QEBA?AV1@XZ
  ?Execute@CExecQueue@@MEAAHPEAVCThreadRecord@1@@Z="C:\Windows\System32\wbemcomn".?Execute@CExecQueue@@MEAAHPEAVCThreadRecord@1@@Z
  ?ExpandEnvironmentStringsW@CWbemInstallObject@@SAKPEBGPEAGK@Z="C:\Windows\System32\wbemcomn".?ExpandEnvironmentStringsW@CWbemInstallObject@@SAKPEBGPEAGK@Z
  ?ExpandVariableValue@CWbemInstallObject@@CAJPEBGPEAG_KPEA_K@Z="C:\Windows\System32\wbemcomn".?ExpandVariableValue@CWbemInstallObject@@CAJPEBGPEAG_KPEA_K@Z
  ?ExtractNext@CWQLScanner@@AEAAPEAUWSLexToken@@H@Z="C:\Windows\System32\wbemcomn".?ExtractNext@CWQLScanner@@AEAAPEAUWSLexToken@@H@Z
  ?ExtractSelectType@CWQLScanner@@AEAAHXZ="C:\Windows\System32\wbemcomn".?ExtractSelectType@CWQLScanner@@AEAAHXZ
  ?ExtractToken@WString2@@QEAAHGAEAV1@@Z="C:\Windows\System32\wbemcomn".?ExtractToken@WString2@@QEAAHGAEAV1@@Z
  ?ExtractToken@WString2@@QEAAHPEBGAEAV1@@Z="C:\Windows\System32\wbemcomn".?ExtractToken@WString2@@QEAAHPEBGAEAV1@@Z
  ?ExtractToken@WString@@QEAAHGAEAV1@@Z="C:\Windows\System32\wbemcomn".?ExtractToken@WString@@QEAAHGAEAV1@@Z
  ?ExtractToken@WString@@QEAAHPEBGAEAV1@@Z="C:\Windows\System32\wbemcomn".?ExtractToken@WString@@QEAAHPEBGAEAV1@@Z
  ?Fatal@CSafeArray@@AEAAXPEBD@Z="C:\Windows\System32\wbemcomn".?Fatal@CSafeArray@@AEAAXPEBD@Z
  ?FillCVarAt@CVarVector@@QEAAXHAEAVCVar@@@Z="C:\Windows\System32\wbemcomn".?FillCVarAt@CVarVector@@QEAAXHAEAVCVar@@@Z
  ?FillDMTF@CDateTimeParser@@QEAAHPEAG_K@Z="C:\Windows\System32\wbemcomn".?FillDMTF@CDateTimeParser@@QEAAHPEAG_K@Z
  ?FillVariant@CVar@@QEAAXPEAUtagVARIANT@@H@Z="C:\Windows\System32\wbemcomn".?FillVariant@CVar@@QEAAXPEAUtagVARIANT@@H@Z
  ?FinalizeMatchState@CLike@@AEAAXXZ="C:\Windows\System32\wbemcomn".?FinalizeMatchState@CLike@@AEAAXXZ
  ?FindStr@CWStringArray@@QEAAHPEBGH@Z="C:\Windows\System32\wbemcomn".?FindStr@CWStringArray@@QEAAHPEBGH@Z
  ?FlipOperator@CAbstractQl1Parser@@IEAAHH@Z="C:\Windows\System32\wbemcomn".?FlipOperator@CAbstractQl1Parser@@IEAAHH@Z
  ?FlushRepository@CWbemInstallObject@@SAJXZ="C:\Windows\System32\wbemcomn".?FlushRepository@CWbemInstallObject@@SAJXZ
  ?Free@CWin32DefaultArena@@UEAAHPEAX@Z="C:\Windows\System32\wbemcomn".?Free@CWin32DefaultArena@@UEAAHPEAX@Z
  ?FreeMap@CWbemInstallObject@@SAXXZ="C:\Windows\System32\wbemcomn".?FreeMap@CWbemInstallObject@@SAXXZ
  ?Get100nss@CWbemTime@@QEBA_JXZ="C:\Windows\System32\wbemcomn".?Get100nss@CWbemTime@@QEBA_JXZ
  ?GetAbsoluteCopy@CNtSecurityDescriptor@@QEAAPEAUSNtAbsoluteSD@@XZ="C:\Windows\System32\wbemcomn".?GetAbsoluteCopy@CNtSecurityDescriptor@@QEAAPEAUSNtAbsoluteSD@@XZ
  ?GetAccessMask@C9XAce@@UEAAKXZ="C:\Windows\System32\wbemcomn".?GetAccessMask@C9XAce@@UEAAKXZ
  ?GetAccessMask@CNtAce@@UEAAKXZ="C:\Windows\System32\wbemcomn".?GetAccessMask@CNtAce@@UEAAKXZ
  ?GetAce@CNtAcl@@QEAAHHAEAVCNtAce@@@Z="C:\Windows\System32\wbemcomn".?GetAce@CNtAcl@@QEAAHHAEAVCNtAce@@@Z
  ?GetAce@CNtAcl@@QEAAPEAVCNtAce@@H@Z="C:\Windows\System32\wbemcomn".?GetAce@CNtAcl@@QEAAPEAVCNtAce@@H@Z
  ?GetAclSizeInfo@CNtAcl@@QEAAHPEAK0@Z="C:\Windows\System32\wbemcomn".?GetAclSizeInfo@CNtAcl@@QEAAHPEAK0@Z
  ?GetActiveImpersonation@CWbemCallSecurity@@UEAAJXZ="C:\Windows\System32\wbemcomn".?GetActiveImpersonation@CWbemCallSecurity@@UEAAJXZ
  ?GetActualVarType@CSafeArray@@QEAAHPEAG@Z="C:\Windows\System32\wbemcomn".?GetActualVarType@CSafeArray@@QEAAHPEAG@Z
  ?GetAreaFlags@CWMITraceSettings@@QEAAKXZ="C:\Windows\System32\wbemcomn".?GetAreaFlags@CWMITraceSettings@@QEAAKXZ
  ?GetArenaHeap@CWin32DefaultArena@@SAPEAXXZ="C:\Windows\System32\wbemcomn".?GetArenaHeap@CWin32DefaultArena@@SAPEAXXZ
  ?GetArray@CSafeArray@@QEAAPEAUtagSAFEARRAY@@XZ="C:\Windows\System32\wbemcomn".?GetArray@CSafeArray@@QEAAPEAUtagSAFEARRAY@@XZ
  ?GetArrayCopy@CSafeArray@@QEAAPEAUtagSAFEARRAY@@XZ="C:\Windows\System32\wbemcomn".?GetArrayCopy@CSafeArray@@QEAAPEAUtagSAFEARRAY@@XZ
  ?GetArrayPtr@CFlexArray@@QEAAPEAPEAXXZ="C:\Windows\System32\wbemcomn".?GetArrayPtr@CFlexArray@@QEAAPEAPEAXXZ
  ?GetArrayPtr@CFlexArray@@QEBAPEBQEAXXZ="C:\Windows\System32\wbemcomn".?GetArrayPtr@CFlexArray@@QEBAPEBQEAXXZ
  ?GetArrayPtr@CSmallArrayBlob@@QEAAPEAPEAXXZ="C:\Windows\System32\wbemcomn".?GetArrayPtr@CSmallArrayBlob@@QEAAPEAPEAXXZ
  ?GetArrayPtr@CSmallArrayBlob@@QEBAPEBQEAXXZ="C:\Windows\System32\wbemcomn".?GetArrayPtr@CSmallArrayBlob@@QEBAPEBQEAXXZ
  ?GetArrayPtr@CWStringArray@@QEAAPEAPEBGXZ="C:\Windows\System32\wbemcomn".?GetArrayPtr@CWStringArray@@QEAAPEAPEBGXZ
  ?GetAt@CFlexArray@@QEBAPEAXH@Z="C:\Windows\System32\wbemcomn".?GetAt@CFlexArray@@QEBAPEAXH@Z
  ?GetAt@CSmallArrayBlob@@QEBAPEAXH@Z="C:\Windows\System32\wbemcomn".?GetAt@CSmallArrayBlob@@QEBAPEAXH@Z
  ?GetAt@CVarVector@@QEAAAEAVCVar@@H@Z="C:\Windows\System32\wbemcomn".?GetAt@CVarVector@@QEAAAEAVCVar@@H@Z
  ?GetAt@CWStringArray@@QEBAPEAGH@Z="C:\Windows\System32\wbemcomn".?GetAt@CWStringArray@@QEBAPEAGH@Z
  ?GetAuthenticationId@CWbemCallSecurity@@UEAAKAEAU_LUID@@@Z="C:\Windows\System32\wbemcomn".?GetAuthenticationId@CWbemCallSecurity@@UEAAKAEAU_LUID@@@Z
  ?GetAutoRecoverFolder@CWbemInstallObject@@SAPEBGXZ="C:\Windows\System32\wbemcomn".?GetAutoRecoverFolder@CWbemInstallObject@@SAPEBGXZ
  ?GetBSTR@CVar@@QEAAPEAGXZ="C:\Windows\System32\wbemcomn".?GetBSTR@CVar@@QEAAPEAGXZ
  ?GetBSTRAt@CSafeArray@@QEAAPEAGH@Z="C:\Windows\System32\wbemcomn".?GetBSTRAt@CSafeArray@@QEAAPEAGH@Z
  ?GetBSTRAtThrow@CSafeArray@@QEAAPEAGH@Z="C:\Windows\System32\wbemcomn".?GetBSTRAtThrow@CSafeArray@@QEAAPEAGH@Z
  ?GetBinary@Registry@@QEAAHPEBGPEAPEAEPEAK@Z="C:\Windows\System32\wbemcomn".?GetBinary@Registry@@QEAAHPEBGPEAPEAEPEAK@Z
  ?GetBinaryPath@CWbemInstallObject@@SAPEBGXZ="C:\Windows\System32\wbemcomn".?GetBinaryPath@CWbemInstallObject@@SAPEBGXZ
  ?GetBlob@CVar@@QEAAPEAUtagBLOB@@XZ="C:\Windows\System32\wbemcomn".?GetBlob@CVar@@QEAAPEAUtagBLOB@@XZ
  ?GetBool@CVar@@QEAAFXZ="C:\Windows\System32\wbemcomn".?GetBool@CVar@@QEAAFXZ
  ?GetBoolAt@CSafeArray@@QEAAFH@Z="C:\Windows\System32\wbemcomn".?GetBoolAt@CSafeArray@@QEAAFH@Z
  ?GetByte@CVar@@QEAAEXZ="C:\Windows\System32\wbemcomn".?GetByte@CVar@@QEAAEXZ
  ?GetByteAt@CSafeArray@@QEAAEH@Z="C:\Windows\System32\wbemcomn".?GetByteAt@CSafeArray@@QEAAEH@Z
  ?GetCallerIdentity@CWbemCallSecurity@@QEAAPEBGXZ="C:\Windows\System32\wbemcomn".?GetCallerIdentity@CWbemCallSecurity@@QEAAPEBGXZ
  ?GetChar@CVar@@QEAADXZ="C:\Windows\System32\wbemcomn".?GetChar@CVar@@QEAADXZ
  ?GetChildren@CClientOpsNode@@QEAAPEAV1@XZ="C:\Windows\System32\wbemcomn".?GetChildren@CClientOpsNode@@QEAAPEAV1@XZ
  ?GetClsId@CVar@@QEAAPEAU_GUID@@XZ="C:\Windows\System32\wbemcomn".?GetClsId@CVar@@QEAAPEAU_GUID@@XZ
  ?GetCompressedFileInfo@CMRCICompression@@SAHPEBGAEAW4CompressionLevel@1@AEAKAEAU_FILETIME@@AEA_J@Z="C:\Windows\System32\wbemcomn".?GetCompressedFileInfo@CMRCICompression@@SAHPEBGAEAW4CompressionLevel@1@AEAKAEAU_FILETIME@@AEA_J@Z
  ?GetCreationTime@CEventLogRecord@@QEAA?AVCWbemTime@@XZ="C:\Windows\System32\wbemcomn".?GetCreationTime@CEventLogRecord@@QEAA?AVCWbemTime@@XZ
  ?GetCultures@CMUILocaleList@@QEAAPEBGXZ="C:\Windows\System32\wbemcomn".?GetCultures@CMUILocaleList@@QEAAPEBGXZ
  ?GetDMTF@CWbemTime@@AEAAHHKPEAG@Z="C:\Windows\System32\wbemcomn".?GetDMTF@CWbemTime@@AEAAHHKPEAG@Z
  ?GetDWORD@CVar@@QEAAKXZ="C:\Windows\System32\wbemcomn".?GetDWORD@CVar@@QEAAKXZ
  ?GetDWORD@Registry@@QEAAHPEBGPEAK@Z="C:\Windows\System32\wbemcomn".?GetDWORD@Registry@@QEAAHPEBGPEAK@Z
  ?GetDWORDStr@Registry@@QEAAHPEBGPEAK@Z="C:\Windows\System32\wbemcomn".?GetDWORDStr@Registry@@QEAAHPEBGPEAK@Z
  ?GetDacl@CNtSecurityDescriptor@@QEAAHAEAVCNtAcl@@@Z="C:\Windows\System32\wbemcomn".?GetDacl@CNtSecurityDescriptor@@QEAAHAEAVCNtAcl@@@Z
  ?GetDacl@CNtSecurityDescriptor@@QEAAJPEAPEAVCNtAcl@@@Z="C:\Windows\System32\wbemcomn".?GetDacl@CNtSecurityDescriptor@@QEAAJPEAPEAVCNtAcl@@@Z
  ?GetDacl@CNtSecurityDescriptor@@QEAAPEAVCNtAcl@@XZ="C:\Windows\System32\wbemcomn".?GetDacl@CNtSecurityDescriptor@@QEAAPEAVCNtAcl@@XZ
  ?GetDay@CDateTimeParser@@QEAAEXZ="C:\Windows\System32\wbemcomn".?GetDay@CDateTimeParser@@QEAAEXZ
  ?GetDispatch@CVar@@QEAAPEAUIDispatch@@XZ="C:\Windows\System32\wbemcomn".?GetDispatch@CVar@@QEAAPEAUIDispatch@@XZ
  ?GetDispatchAt@CSafeArray@@QEAAPEAUIDispatch@@H@Z="C:\Windows\System32\wbemcomn".?GetDispatchAt@CSafeArray@@QEAAPEAUIDispatch@@H@Z
  ?GetDouble@CVar@@QEAANXZ="C:\Windows\System32\wbemcomn".?GetDouble@CVar@@QEAANXZ
  ?GetDoubleAt@CSafeArray@@QEAANH@Z="C:\Windows\System32\wbemcomn".?GetDoubleAt@CSafeArray@@QEAANH@Z
  ?GetElementSize@CVarVector@@QEAAHXZ="C:\Windows\System32\wbemcomn".?GetElementSize@CVarVector@@QEAAHXZ
  ?GetEmbeddedObject@CVar@@QEAAPEAUIUnknown@@XZ="C:\Windows\System32\wbemcomn".?GetEmbeddedObject@CVar@@QEAAPEAUIUnknown@@XZ
  ?GetEnvironmentValue@CWbemInstallObject@@CAJPEBGPEAPEBG@Z="C:\Windows\System32\wbemcomn".?GetEnvironmentValue@CWbemInstallObject@@CAJPEBGPEAPEBG@Z
  ?GetEventTraceProperties@CWMITraceSettings@@QEAAPEAU_EVENT_TRACE_PROPERTIES@@XZ="C:\Windows\System32\wbemcomn".?GetEventTraceProperties@CWMITraceSettings@@QEAAPEAU_EVENT_TRACE_PROPERTIES@@XZ
  ?GetExpression@CLike@@QEAAPEBGXZ="C:\Windows\System32\wbemcomn".?GetExpression@CLike@@QEAAPEBGXZ
  ?GetFILETIME@CWbemTime@@QEBAHPEAU_FILETIME@@@Z="C:\Windows\System32\wbemcomn".?GetFILETIME@CWbemTime@@QEBAHPEAU_FILETIME@@@Z
  ?GetFileTime@CVar@@QEAA?AU_FILETIME@@XZ="C:\Windows\System32\wbemcomn".?GetFileTime@CVar@@QEAA?AU_FILETIME@@XZ
  ?GetFirstFiringTime@CBasicUnloadInstruction@@UEBA?AVCWbemTime@@XZ="C:\Windows\System32\wbemcomn".?GetFirstFiringTime@CBasicUnloadInstruction@@UEBA?AVCWbemTime@@XZ
  ?GetFirst_ms_XXX_Locale@CMUILocaleList@@QEAAJPEAPEAG@Z="C:\Windows\System32\wbemcomn".?GetFirst_ms_XXX_Locale@CMUILocaleList@@QEAAJPEAPEAG@Z
  ?GetFlags@C9XAce@@UEAAHXZ="C:\Windows\System32\wbemcomn".?GetFlags@C9XAce@@UEAAHXZ
  ?GetFlags@CNtAce@@UEAAHXZ="C:\Windows\System32\wbemcomn".?GetFlags@CNtAce@@UEAAHXZ
  ?GetFloat@CVar@@QEAAMXZ="C:\Windows\System32\wbemcomn".?GetFloat@CVar@@QEAAMXZ
  ?GetFloatAt@CSafeArray@@QEAAMH@Z="C:\Windows\System32\wbemcomn".?GetFloatAt@CSafeArray@@QEAAMH@Z
  ?GetFunctionPointers@CMUILocale@@CAJXZ="C:\Windows\System32\wbemcomn".?GetFunctionPointers@CMUILocale@@CAJXZ
  ?GetFunctionPointers@CPublishWMIOperationEvent@@SAJXZ="C:\Windows\System32\wbemcomn".?GetFunctionPointers@CPublishWMIOperationEvent@@SAJXZ
  ?GetGroup@CNtSecurityDescriptor@@QEAAPEAVCNtSid@@XZ="C:\Windows\System32\wbemcomn".?GetGroup@CNtSecurityDescriptor@@QEAAPEAVCNtSid@@XZ
  ?GetHandle@CPropertyName@@QEAAPEAXXZ="C:\Windows\System32\wbemcomn".?GetHandle@CPropertyName@@QEAAPEAXXZ
  ?GetHours@CDateTimeParser@@QEAAEXZ="C:\Windows\System32\wbemcomn".?GetHours@CDateTimeParser@@QEAAEXZ
  ?GetIdleTimeout@CExecQueue@@MEAAKPEAVCThreadRecord@1@@Z="C:\Windows\System32\wbemcomn".?GetIdleTimeout@CExecQueue@@MEAAKPEAVCThreadRecord@1@@Z
  ?GetIndex@CBuffer@@QEAAKXZ="C:\Windows\System32\wbemcomn".?GetIndex@CBuffer@@QEAAKXZ
  ?GetInfinity@CWbemInterval@@SA?AV1@XZ="C:\Windows\System32\wbemcomn".?GetInfinity@CWbemInterval@@SA?AV1@XZ
  ?GetInfinity@CWbemTime@@SA?AV1@XZ="C:\Windows\System32\wbemcomn".?GetInfinity@CWbemTime@@SA?AV1@XZ
  ?GetInfo@CClientOpsNode@@QEAAPEAXXZ="C:\Windows\System32\wbemcomn".?GetInfo@CClientOpsNode@@QEAAPEAXXZ
  ?GetInfo@CNtSid@@QEAAHPEAPEAG0PEAK@Z="C:\Windows\System32\wbemcomn".?GetInfo@CNtSid@@QEAAHPEAPEAG0PEAK@Z
  ?GetInnerUnknown@CUnk@@QEAAPEAUIUnknown@@XZ="C:\Windows\System32\wbemcomn".?GetInnerUnknown@CUnk@@QEAAPEAUIUnknown@@XZ
  ?GetInstructionType@CBasicUnloadInstruction@@UEAAHXZ="C:\Windows\System32\wbemcomn".?GetInstructionType@CBasicUnloadInstruction@@UEAAHXZ
  ?GetLPSTR@CVar@@QEAAPEADXZ="C:\Windows\System32\wbemcomn".?GetLPSTR@CVar@@QEAAPEADXZ
  ?GetLPSTR@WString2@@QEBAPEADXZ="C:\Windows\System32\wbemcomn".?GetLPSTR@WString2@@QEBAPEADXZ
  ?GetLPSTR@WString@@QEBAPEADXZ="C:\Windows\System32\wbemcomn".?GetLPSTR@WString@@QEBAPEADXZ
  ?GetLPWSTR@CVar@@QEAAPEAGXZ="C:\Windows\System32\wbemcomn".?GetLPWSTR@CVar@@QEAAPEAGXZ
  ?GetLToken@WString2@@QEBAPEAGG@Z="C:\Windows\System32\wbemcomn".?GetLToken@WString2@@QEBAPEAGG@Z
  ?GetLToken@WString@@QEBAPEAGG@Z="C:\Windows\System32\wbemcomn".?GetLToken@WString@@QEBAPEAGG@Z
  ?GetLastError@Registry@@QEAAJXZ="C:\Windows\System32\wbemcomn".?GetLastError@Registry@@QEAAJXZ
  ?GetLocalInfoAndAlloc@CDateTimeParser@@IEAAXKAEAPEAG@Z="C:\Windows\System32\wbemcomn".?GetLocalInfoAndAlloc@CDateTimeParser@@IEAAXKAEAPEAG@Z
  ?GetLocalOffsetForDate@CWbemTime@@SAJPEBU_SYSTEMTIME@@@Z="C:\Windows\System32\wbemcomn".?GetLocalOffsetForDate@CWbemTime@@SAJPEBU_SYSTEMTIME@@@Z
  ?GetLocales@CMUILocaleList@@QEAAPEBGXZ="C:\Windows\System32\wbemcomn".?GetLocales@CMUILocaleList@@QEAAPEBGXZ
  ?GetLockCount@CWbemCriticalSection@@QEAAJXZ="C:\Windows\System32\wbemcomn".?GetLockCount@CWbemCriticalSection@@QEAAJXZ
  ?GetLong@CVar@@QEAAJXZ="C:\Windows\System32\wbemcomn".?GetLong@CVar@@QEAAJXZ
  ?GetLongAt@CSafeArray@@QEAAJH@Z="C:\Windows\System32\wbemcomn".?GetLongAt@CSafeArray@@QEAAJH@Z
  ?GetMicroseconds@CDateTimeParser@@QEAAIXZ="C:\Windows\System32\wbemcomn".?GetMicroseconds@CDateTimeParser@@QEAAIXZ
  ?GetMilliseconds@CWbemInterval@@QEBAKXZ="C:\Windows\System32\wbemcomn".?GetMilliseconds@CWbemInterval@@QEBAKXZ
  ?GetMinutes@CDateTimeParser@@QEAAEXZ="C:\Windows\System32\wbemcomn".?GetMinutes@CDateTimeParser@@QEAAEXZ
  ?GetMonth@CDateTimeParser@@QEAAEXZ="C:\Windows\System32\wbemcomn".?GetMonth@CDateTimeParser@@QEAAEXZ
  ?GetMultiStr@Registry@@QEAAPEAGPEBGAEAK@Z="C:\Windows\System32\wbemcomn".?GetMultiStr@Registry@@QEAAPEAGPEBGAEAK@Z
  ?GetNewSafeArray@CVar@@QEAAPEAUtagSAFEARRAY@@XZ="C:\Windows\System32\wbemcomn".?GetNewSafeArray@CVar@@QEAAPEAUtagSAFEARRAY@@XZ
  ?GetNewSafeArray@CVarVector@@QEAAPEAUtagSAFEARRAY@@XZ="C:\Windows\System32\wbemcomn".?GetNewSafeArray@CVarVector@@QEAAPEAUtagSAFEARRAY@@XZ
  ?GetNewVariant@CVar@@QEAAPEAUtagVARIANT@@XZ="C:\Windows\System32\wbemcomn".?GetNewVariant@CVar@@QEAAPEAUtagVARIANT@@XZ
  ?GetNext@CClientOpsNode@@QEAAPEAV1@XZ="C:\Windows\System32\wbemcomn".?GetNext@CClientOpsNode@@QEAAPEAV1@XZ
  ?GetNext@CExecRequest@@QEAAPEAV1@XZ="C:\Windows\System32\wbemcomn".?GetNext@CExecRequest@@QEAAPEAV1@XZ
  ?GetNextElement@CCircularQueue@@QEAAKPEAPEAULOG_ELEMENT@@@Z="C:\Windows\System32\wbemcomn".?GetNextElement@CCircularQueue@@QEAAKPEAPEAULOG_ELEMENT@@@Z
  ?GetNextFiringTime@CBasicUnloadInstruction@@UEBA?AVCWbemTime@@V2@PEAJ@Z="C:\Windows\System32\wbemcomn".?GetNextFiringTime@CBasicUnloadInstruction@@UEBA?AVCWbemTime@@V2@PEAJ@Z
  ?GetNumAces@CNtAcl@@QEAAHXZ="C:\Windows\System32\wbemcomn".?GetNumAces@CNtAcl@@QEAAHXZ
  ?GetNumElements@CPropertyName@@QEBAJXZ="C:\Windows\System32\wbemcomn".?GetNumElements@CPropertyName@@QEBAJXZ
  ?GetNumInstructions@CInstructionQueue@@QEAAJXZ="C:\Windows\System32\wbemcomn".?GetNumInstructions@CInstructionQueue@@QEAAJXZ
  ?GetNumStrings@CEventLogRecord@@QEAAGXZ="C:\Windows\System32\wbemcomn".?GetNumStrings@CEventLogRecord@@QEAAGXZ
  ?GetOleType@CVar@@QEAAHXZ="C:\Windows\System32\wbemcomn".?GetOleType@CVar@@QEAAHXZ
  ?GetOwner@CNtSecurityDescriptor@@QEAAPEAVCNtSid@@XZ="C:\Windows\System32\wbemcomn".?GetOwner@CNtSecurityDescriptor@@QEAAPEAVCNtSid@@XZ
  ?GetOwningThreadId@CWbemCriticalSection@@QEAAKXZ="C:\Windows\System32\wbemcomn".?GetOwningThreadId@CWbemCriticalSection@@QEAAKXZ
  ?GetPart@CDatePart@@QEAAJHPEAH@Z="C:\Windows\System32\wbemcomn".?GetPart@CDatePart@@QEAAJHPEAH@Z
  ?GetPersistentCfgValue@CPersistentConfig@@QEAAHKAEAK@Z="C:\Windows\System32\wbemcomn".?GetPersistentCfgValue@CPersistentConfig@@QEAAHKAEAK@Z
  ?GetPotentialImpersonation@CWbemCallSecurity@@UEAAJXZ="C:\Windows\System32\wbemcomn".?GetPotentialImpersonation@CWbemCallSecurity@@UEAAJXZ
  ?GetPreferedDateFormat@CDateTimeParser@@IEAAXXZ="C:\Windows\System32\wbemcomn".?GetPreferedDateFormat@CDateTimeParser@@IEAAXXZ
  ?GetPreferredLanguages@CMUILocale@@SAJKPEAPEAGPEAK@Z="C:\Windows\System32\wbemcomn".?GetPreferredLanguages@CMUILocale@@SAJKPEAPEAGPEAK@Z
  ?GetPreferredLanguages@CMUILocale@@SAJPEAPEAGPEAK@Z="C:\Windows\System32\wbemcomn".?GetPreferredLanguages@CMUILocale@@SAJPEAPEAGPEAK@Z
  ?GetPrevious@CClientOpsNode@@QEAAPEAV1@XZ="C:\Windows\System32\wbemcomn".?GetPrevious@CClientOpsNode@@QEAAPEAV1@XZ
  ?GetPriority@CExecRequest@@QEAAJXZ="C:\Windows\System32\wbemcomn".?GetPriority@CExecRequest@@QEAAJXZ
  ?GetPropertyFromIUnknown@CTextTemplate@@AEAAPEAGPEAGPEAUIUnknown@@@Z="C:\Windows\System32\wbemcomn".?GetPropertyFromIUnknown@CTextTemplate@@AEAAPEAGPEAGPEAUIUnknown@@@Z
  ?GetPtr@CNtAce@@QEAAPEAU_ACCESS_ALLOWED_ACE@@XZ="C:\Windows\System32\wbemcomn".?GetPtr@CNtAce@@QEAAPEAU_ACCESS_ALLOWED_ACE@@XZ
  ?GetPtr@CNtAcl@@QEAAPEAU_ACL@@XZ="C:\Windows\System32\wbemcomn".?GetPtr@CNtAcl@@QEAAPEAU_ACL@@XZ
  ?GetPtr@CNtSecurityDescriptor@@QEAAPEAXXZ="C:\Windows\System32\wbemcomn".?GetPtr@CNtSecurityDescriptor@@QEAAPEAXXZ
  ?GetPtr@CNtSid@@QEAAPEAXXZ="C:\Windows\System32\wbemcomn".?GetPtr@CNtSid@@QEAAPEAXXZ
  ?GetQWORD@Registry@@QEAAHPEBGPEA_K@Z="C:\Windows\System32\wbemcomn".?GetQWORD@Registry@@QEAAHPEBGPEA_K@Z
  ?GetQueryClass@QL1_Parser@@QEAAHPEAGH@Z="C:\Windows\System32\wbemcomn".?GetQueryClass@QL1_Parser@@QEAAHPEAGH@Z
  ?GetQueueSize@CFlexQueue@@QEBAHXZ="C:\Windows\System32\wbemcomn".?GetQueueSize@CFlexQueue@@QEBAHXZ
  ?GetRawArrayData@CVarVector@@QEAAJPEAXH@Z="C:\Windows\System32\wbemcomn".?GetRawArrayData@CVarVector@@QEAAJPEAXH@Z
  ?GetRawData@CBuffer@@QEAAPEAEXZ="C:\Windows\System32\wbemcomn".?GetRawData@CBuffer@@QEAAPEAEXZ
  ?GetRawData@CSafeArray@@QEAAHPEAXH@Z="C:\Windows\System32\wbemcomn".?GetRawData@CSafeArray@@QEAAHPEAXH@Z
  ?GetRawData@CVar@@QEAAPEAXXZ="C:\Windows\System32\wbemcomn".?GetRawData@CVar@@QEAAPEAXXZ
  ?GetRecursionCount@CWbemCriticalSection@@QEAAJXZ="C:\Windows\System32\wbemcomn".?GetRecursionCount@CWbemCriticalSection@@QEAAJXZ
  ?GetReferencedAliases@CWQLScanner@@QEAAHAEAVCWStringArray@@@Z="C:\Windows\System32\wbemcomn".?GetReferencedAliases@CWQLScanner@@QEAAHAEAVCWStringArray@@@Z
  ?GetReferencedTables@CWQLScanner@@QEAAHAEAVCWStringArray@@@Z="C:\Windows\System32\wbemcomn".?GetReferencedTables@CWQLScanner@@QEAAHAEAVCWStringArray@@@Z
  ?GetRegistryPathCIMOM@CWbemInstallObject@@SAPEBGXZ="C:\Windows\System32\wbemcomn".?GetRegistryPathCIMOM@CWbemInstallObject@@SAPEBGXZ
  ?GetRegistryPathWbem@CWbemInstallObject@@SAPEBGXZ="C:\Windows\System32\wbemcomn".?GetRegistryPathWbem@CWbemInstallObject@@SAPEBGXZ
  ?GetRepositoryFolder@CWbemInstallObject@@SAPEBGXZ="C:\Windows\System32\wbemcomn".?GetRepositoryFolder@CWbemInstallObject@@SAPEBGXZ
  ?GetSYSTEMTIME@CWbemTime@@QEBAHPEAU_SYSTEMTIME@@@Z="C:\Windows\System32\wbemcomn".?GetSYSTEMTIME@CWbemTime@@QEBAHPEAU_SYSTEMTIME@@@Z
  ?GetSacl@CNtSecurityDescriptor@@QEAAJPEAPEAVCNtAcl@@@Z="C:\Windows\System32\wbemcomn".?GetSacl@CNtSecurityDescriptor@@QEAAJPEAPEAVCNtAcl@@@Z
  ?GetSacl@CNtSecurityDescriptor@@QEAAPEAVCNtAcl@@XZ="C:\Windows\System32\wbemcomn".?GetSacl@CNtSecurityDescriptor@@QEAAPEAVCNtAcl@@XZ
  ?GetSafeArray@CVarVector@@QEAAPEAUtagSAFEARRAY@@H@Z="C:\Windows\System32\wbemcomn".?GetSafeArray@CVarVector@@QEAAPEAUtagSAFEARRAY@@H@Z
  ?GetScalarAt@CSafeArray@@AEAA?ATSA_ArrayScalar@@H@Z="C:\Windows\System32\wbemcomn".?GetScalarAt@CSafeArray@@AEAA?ATSA_ArrayScalar@@H@Z
  ?GetSeconds@CDateTimeParser@@QEAAEXZ="C:\Windows\System32\wbemcomn".?GetSeconds@CDateTimeParser@@QEAAEXZ
  ?GetSeconds@CWbemInterval@@QEBAKXZ="C:\Windows\System32\wbemcomn".?GetSeconds@CWbemInterval@@QEBAKXZ
  ?GetSelectedColumns@CWQLScanner@@QEAAPEBVCFlexArray@@XZ="C:\Windows\System32\wbemcomn".?GetSelectedColumns@CWQLScanner@@QEAAPEBVCFlexArray@@XZ
  ?GetSerializedSize@C9XAce@@UEAAKXZ="C:\Windows\System32\wbemcomn".?GetSerializedSize@C9XAce@@UEAAKXZ
  ?GetSerializedSize@CNtAce@@UEAAKXZ="C:\Windows\System32\wbemcomn".?GetSerializedSize@CNtAce@@UEAAKXZ
  ?GetSessionName@CWMITraceSettings@@QEAAPEAGXZ="C:\Windows\System32\wbemcomn".?GetSessionName@CWMITraceSettings@@QEAAPEAGXZ
  ?GetShort@CVar@@QEAAFXZ="C:\Windows\System32\wbemcomn".?GetShort@CVar@@QEAAFXZ
  ?GetShortAt@CSafeArray@@QEAAFH@Z="C:\Windows\System32\wbemcomn".?GetShortAt@CSafeArray@@QEAAFH@Z
  ?GetSid@CNtAce@@QEAAHAEAVCNtSid@@@Z="C:\Windows\System32\wbemcomn".?GetSid@CNtAce@@QEAAHAEAVCNtSid@@@Z
  ?GetSid@CNtAce@@QEAAPEAVCNtSid@@XZ="C:\Windows\System32\wbemcomn".?GetSid@CNtAce@@QEAAPEAVCNtSid@@XZ
  ?GetSidFromThreadOrProcess@CIdentitySecurity@@AEAAJAEAVCNtSid@@@Z="C:\Windows\System32\wbemcomn".?GetSidFromThreadOrProcess@CIdentitySecurity@@AEAAJAEAVCNtSid@@@Z
  ?GetSinglePropertyName@CAbstractQl1Parser@@IEAAPEBGXZ="C:\Windows\System32\wbemcomn".?GetSinglePropertyName@CAbstractQl1Parser@@IEAAPEBGXZ
  ?GetSitoutPenalty@CExecQueue@@QEAAKXZ="C:\Windows\System32\wbemcomn".?GetSitoutPenalty@CExecQueue@@QEAAKXZ
  ?GetSize@CBuffer@@QEAAKXZ="C:\Windows\System32\wbemcomn".?GetSize@CBuffer@@QEAAKXZ
  ?GetSize@CNtAce@@QEAAKXZ="C:\Windows\System32\wbemcomn".?GetSize@CNtAce@@QEAAKXZ
  ?GetSize@CNtAcl@@QEAAKXZ="C:\Windows\System32\wbemcomn".?GetSize@CNtAcl@@QEAAKXZ
  ?GetSize@CNtSecurityDescriptor@@QEAAKXZ="C:\Windows\System32\wbemcomn".?GetSize@CNtSecurityDescriptor@@QEAAKXZ
  ?GetSize@CNtSid@@QEAAKXZ="C:\Windows\System32\wbemcomn".?GetSize@CNtSid@@QEAAKXZ
  ?GetStatus@C9XAce@@UEAAKXZ="C:\Windows\System32\wbemcomn".?GetStatus@C9XAce@@UEAAKXZ
  ?GetStatus@CNtAce@@UEAAKXZ="C:\Windows\System32\wbemcomn".?GetStatus@CNtAce@@UEAAKXZ
  ?GetStatus@CNtAcl@@QEAAKXZ="C:\Windows\System32\wbemcomn".?GetStatus@CNtAcl@@QEAAKXZ
  ?GetStatus@CNtSecurityDescriptor@@QEAAKXZ="C:\Windows\System32\wbemcomn".?GetStatus@CNtSecurityDescriptor@@QEAAKXZ
  ?GetStatus@CNtSid@@QEAAKXZ="C:\Windows\System32\wbemcomn".?GetStatus@CNtSid@@QEAAKXZ
  ?GetStr@Registry@@QEAAHPEBGPEAPEAG@Z="C:\Windows\System32\wbemcomn".?GetStr@Registry@@QEAAHPEBGPEAPEAG@Z
  ?GetString@CInsertionString@@QEAAPEBGXZ="C:\Windows\System32\wbemcomn".?GetString@CInsertionString@@QEAAPEBGXZ
  ?GetStringAt@CEventLogRecord@@QEAAPEBGH@Z="C:\Windows\System32\wbemcomn".?GetStringAt@CEventLogRecord@@QEAAPEBGH@Z
  ?GetStringAt@CPropertyName@@QEBAPEBGJ@Z="C:\Windows\System32\wbemcomn".?GetStringAt@CPropertyName@@QEBAPEBGJ@Z
  ?GetStringPointerByRef@WString2@@QEBAAEBQEBGXZ="C:\Windows\System32\wbemcomn".?GetStringPointerByRef@WString2@@QEBAAEBQEBGXZ
  ?GetStringPointerByRef@WString@@QEBAAEBQEBGXZ="C:\Windows\System32\wbemcomn".?GetStringPointerByRef@WString@@QEBAAEBQEBGXZ
  ?GetText@CPropertyName@@QEAAPEAGXZ="C:\Windows\System32\wbemcomn".?GetText@CPropertyName@@QEAAPEAGXZ
  ?GetText@CVar@@QEAAPEAGJJPEBG@Z="C:\Windows\System32\wbemcomn".?GetText@CVar@@QEAAPEAGJJPEBG@Z
  ?GetText@CVarVector@@QEAAPEAGJJ@Z="C:\Windows\System32\wbemcomn".?GetText@CVarVector@@QEAAPEAGJJ@Z
  ?GetText@QL_LEVEL_1_RPN_EXPRESSION@@QEAAPEAGXZ="C:\Windows\System32\wbemcomn".?GetText@QL_LEVEL_1_RPN_EXPRESSION@@QEAAPEAGXZ
  ?GetText@QL_LEVEL_1_TOKEN@@QEAAPEAGXZ="C:\Windows\System32\wbemcomn".?GetText@QL_LEVEL_1_TOKEN@@QEAAPEAGXZ
  ?GetTextSid@CNtSid@@QEAAHPEAGPEAK@Z="C:\Windows\System32\wbemcomn".?GetTextSid@CNtSid@@QEAAHPEAGPEAK@Z
  ?GetTextSid@CNtSid@@QEAAJPEAPEAG@Z="C:\Windows\System32\wbemcomn".?GetTextSid@CNtSid@@QEAAJPEAPEAG@Z
  ?GetTickCount@CWbemTime@@SA?AV1@XZ="C:\Windows\System32\wbemcomn".?GetTickCount@CWbemTime@@SA?AV1@XZ
  ?GetTlsIndex@CExecQueue@@SAKXZ="C:\Windows\System32\wbemcomn".?GetTlsIndex@CExecQueue@@SAKXZ
  ?GetToken@CWbemCallSecurity@@UEAAPEAXXZ="C:\Windows\System32\wbemcomn".?GetToken@CWbemCallSecurity@@UEAAPEAXXZ
  ?GetTraceLevel@CWMITraceSettings@@QEAAEXZ="C:\Windows\System32\wbemcomn".?GetTraceLevel@CWMITraceSettings@@QEAAEXZ
  ?GetType@C9XAce@@UEAAHXZ="C:\Windows\System32\wbemcomn".?GetType@C9XAce@@UEAAHXZ
  ?GetType@CExecQueue@@UEAAPEBGXZ="C:\Windows\System32\wbemcomn".?GetType@CExecQueue@@UEAAPEBGXZ
  ?GetType@CNtAce@@UEAAHXZ="C:\Windows\System32\wbemcomn".?GetType@CNtAce@@UEAAHXZ
  ?GetType@CSafeArray@@QEAAHXZ="C:\Windows\System32\wbemcomn".?GetType@CSafeArray@@QEAAHXZ
  ?GetType@CVar@@QEAAHXZ="C:\Windows\System32\wbemcomn".?GetType@CVar@@QEAAHXZ
  ?GetType@CVarVector@@QEAAHXZ="C:\Windows\System32\wbemcomn".?GetType@CVarVector@@QEAAHXZ
  ?GetType@Registry@@QEAAHPEBGPEAK@Z="C:\Windows\System32\wbemcomn".?GetType@Registry@@QEAAHPEBGPEAK@Z
  ?GetTypeText@CVar@@QEAAPEAGXZ="C:\Windows\System32\wbemcomn".?GetTypeText@CVar@@QEAAPEAGXZ
  ?GetUTC@CDateTimeParser@@QEAAHXZ="C:\Windows\System32\wbemcomn".?GetUTC@CDateTimeParser@@QEAAHXZ
  ?GetUnknown@CUnk@@QEAAPEAUIUnknown@@XZ="C:\Windows\System32\wbemcomn".?GetUnknown@CUnk@@QEAAPEAUIUnknown@@XZ
  ?GetUnknown@CUnkInternal@@QEAAPEAUIUnknown@@XZ="C:\Windows\System32\wbemcomn".?GetUnknown@CUnkInternal@@QEAAPEAUIUnknown@@XZ
  ?GetUnknown@CVar@@QEAAPEAUIUnknown@@XZ="C:\Windows\System32\wbemcomn".?GetUnknown@CVar@@QEAAPEAUIUnknown@@XZ
  ?GetUnknownAt@CSafeArray@@QEAAPEAUIUnknown@@H@Z="C:\Windows\System32\wbemcomn".?GetUnknownAt@CSafeArray@@QEAAPEAUIUnknown@@H@Z
  ?GetValue@CDMTFParser@@QEAAHH@Z="C:\Windows\System32\wbemcomn".?GetValue@CDMTFParser@@QEAAHH@Z
  ?GetVarVector@CVar@@QEAAPEAVCVarVector@@XZ="C:\Windows\System32\wbemcomn".?GetVarVector@CVar@@QEAAPEAVCVarVector@@XZ
  ?GetVariantAt@CSafeArray@@QEAA?AUtagVARIANT@@H@Z="C:\Windows\System32\wbemcomn".?GetVariantAt@CSafeArray@@QEAA?AUtagVARIANT@@H@Z
  ?GetWhenDoneHandle@CExecRequest@@QEAAPEAXXZ="C:\Windows\System32\wbemcomn".?GetWhenDoneHandle@CExecRequest@@QEAAPEAXXZ
  ?GetWord@CVar@@QEAAGXZ="C:\Windows\System32\wbemcomn".?GetWord@CVar@@QEAAGXZ
  ?GetYear@CDateTimeParser@@QEAAIXZ="C:\Windows\System32\wbemcomn".?GetYear@CDateTimeParser@@QEAAIXZ
  ?GetZero@CWbemTime@@SA?AV1@XZ="C:\Windows\System32\wbemcomn".?GetZero@CWbemTime@@SA?AV1@XZ
  ?Grow@CFlexQueue@@IEAA_NXZ="C:\Windows\System32\wbemcomn".?Grow@CFlexQueue@@IEAA_NXZ
  ?Grow@CSmallArrayBlob@@IEAAPEAV1@XZ="C:\Windows\System32\wbemcomn".?Grow@CSmallArrayBlob@@IEAAPEAV1@XZ
  ?Halt@CHaltable@@QEAAJXZ="C:\Windows\System32\wbemcomn".?Halt@CHaltable@@QEAAJXZ
  ?HandleEmbeddedObjectProperties@CTextTemplate@@AEAAPEAGPEAGPEAUIWbemClassObject@@@Z="C:\Windows\System32\wbemcomn".?HandleEmbeddedObjectProperties@CTextTemplate@@AEAAPEAGPEAGPEAUIWbemClassObject@@@Z
  ?HasChildren@CClientOpsNode@@QEAA_NXZ="C:\Windows\System32\wbemcomn".?HasChildren@CClientOpsNode@@QEAA_NXZ
  ?HasOwner@CNtSecurityDescriptor@@QEAAHXZ="C:\Windows\System32\wbemcomn".?HasOwner@CNtSecurityDescriptor@@QEAAHXZ
  ?HasToBeEnabled@CTraceSessionControl@@QEAA_NXZ="C:\Windows\System32\wbemcomn".?HasToBeEnabled@CTraceSessionControl@@QEAA_NXZ
  ?ImpersonateClient@CWbemCallSecurity@@UEAAJXZ="C:\Windows\System32\wbemcomn".?ImpersonateClient@CWbemCallSecurity@@UEAAJXZ
  ?InOrder@CQl1ParseSink@@UEAAXJ@Z="C:\Windows\System32\wbemcomn".?InOrder@CQl1ParseSink@@UEAAXJ@Z
  ?IncrementIndex@CFlexQueue@@IEAAXAEAH@Z="C:\Windows\System32\wbemcomn".?IncrementIndex@CFlexQueue@@IEAAXAEAH@Z
  ?Init@CPropertyName@@QEAAXXZ="C:\Windows\System32\wbemcomn".?Init@CPropertyName@@QEAAXXZ
  ?Init@CPublishWMIOperationEvent@@SAJXZ="C:\Windows\System32\wbemcomn".?Init@CPublishWMIOperationEvent@@SAJXZ
  ?Init@CVar@@AEAAXXZ="C:\Windows\System32\wbemcomn".?Init@CVar@@AEAAXXZ
  ?InitMap@CWbemInstallObject@@SAXXZ="C:\Windows\System32\wbemcomn".?InitMap@CWbemInstallObject@@SAXXZ
  ?InitTls@CExecQueue@@KAXXZ="C:\Windows\System32\wbemcomn".?InitTls@CExecQueue@@KAXXZ
  ?InitToken@CAbstractQl1Parser@@KAXPEAU_tag_WbemQl1Token@@@Z="C:\Windows\System32\wbemcomn".?InitToken@CAbstractQl1Parser@@KAXPEAU_tag_WbemQl1Token@@@Z
  ?Initialize@CMUILocaleList@@QEAAJPEAG_N@Z="C:\Windows\System32\wbemcomn".?Initialize@CMUILocaleList@@QEAAJPEAG_N@Z
  ?Initialize@CSmallArrayBlob@@IEAAXH@Z="C:\Windows\System32\wbemcomn".?Initialize@CSmallArrayBlob@@IEAAXH@Z
  ?Initialize@CTraceSessionControl@@QEAAKPEBG@Z="C:\Windows\System32\wbemcomn".?Initialize@CTraceSessionControl@@QEAAKPEBG@Z
  ?Initialize@CUnk@@UEAAHXZ="C:\Windows\System32\wbemcomn".?Initialize@CUnk@@UEAAHXZ
  ?InitializeThread@CExecQueue@@MEAAJXZ="C:\Windows\System32\wbemcomn".?InitializeThread@CExecQueue@@MEAAJXZ
  ?Insert@CClientOpsNode@@AEAAXPEAV1@@Z="C:\Windows\System32\wbemcomn".?Insert@CClientOpsNode@@AEAAXPEAV1@@Z
  ?InsertAt@CFlexArray@@QEAAHHPEAX@Z="C:\Windows\System32\wbemcomn".?InsertAt@CFlexArray@@QEAAHHPEAX@Z
  ?InsertAt@CSmallArrayBlob@@QEAAPEAV1@HPEAX@Z="C:\Windows\System32\wbemcomn".?InsertAt@CSmallArrayBlob@@QEAAPEAV1@HPEAX@Z
  ?InsertAt@CVarVector@@QEAAHHAEAVCVar@@@Z="C:\Windows\System32\wbemcomn".?InsertAt@CVarVector@@QEAAHHAEAVCVar@@@Z
  ?InsertAt@CWStringArray@@QEAAHHPEBG@Z="C:\Windows\System32\wbemcomn".?InsertAt@CWStringArray@@QEAAHHPEBG@Z
  ?InternalAddRef@CUnkInternal@@QEAAKXZ="C:\Windows\System32\wbemcomn".?InternalAddRef@CUnkInternal@@QEAAKXZ
  ?InternalQueryInterface@CUnkInternal@@QEAAJAEBU_GUID@@PEAPEAX@Z="C:\Windows\System32\wbemcomn".?InternalQueryInterface@CUnkInternal@@QEAAJAEBU_GUID@@PEAPEAX@Z
  ?InternalRawArrayAccess@CVarVector@@QEAAJXZ="C:\Windows\System32\wbemcomn".?InternalRawArrayAccess@CVarVector@@QEAAJXZ
  ?InternalRelease@CUnkInternal@@QEAAKXZ="C:\Windows\System32\wbemcomn".?InternalRelease@CUnkInternal@@QEAAKXZ
  ?Intersection@CWStringArray@@SAXAEAV1@00@Z="C:\Windows\System32\wbemcomn".?Intersection@CWStringArray@@SAXAEAV1@00@Z
  ?IsAppropriateThread@CExecQueue@@MEAAHXZ="C:\Windows\System32\wbemcomn".?IsAppropriateThread@CExecQueue@@MEAAHXZ
  ?IsDataNull@CVar@@QEAAHXZ="C:\Windows\System32\wbemcomn".?IsDataNull@CVar@@QEAAHXZ
  ?IsEmbeddedObjectProperty@CTextTemplate@@AEAAHPEAG@Z="C:\Windows\System32\wbemcomn".?IsEmbeddedObjectProperty@CTextTemplate@@AEAAHPEAG@Z
  ?IsEmpty@CInsertionString@@QEAAHXZ="C:\Windows\System32\wbemcomn".?IsEmpty@CInsertionString@@QEAAHXZ
  ?IsEmpty@CInstructionQueue@@QEAAHXZ="C:\Windows\System32\wbemcomn".?IsEmpty@CInstructionQueue@@QEAAHXZ
  ?IsEnabled@CTraceSessionControl@@QEAA_NXZ="C:\Windows\System32\wbemcomn".?IsEnabled@CTraceSessionControl@@QEAA_NXZ
  ?IsEntered@CCheckedInCritSec@@QEAAHXZ="C:\Windows\System32\wbemcomn".?IsEntered@CCheckedInCritSec@@QEAAHXZ
  ?IsEntered@CEnterWbemCriticalSection@@QEAAHXZ="C:\Windows\System32\wbemcomn".?IsEntered@CEnterWbemCriticalSection@@QEAAHXZ
  ?IsEventEnabled@CPublishWMIOperationEvent@@SAJAEBU_EVENT_DESCRIPTOR@@@Z="C:\Windows\System32\wbemcomn".?IsEventEnabled@CPublishWMIOperationEvent@@SAJAEBU_EVENT_DESCRIPTOR@@@Z
  ?IsFinite@CWbemInterval@@QEBAHXZ="C:\Windows\System32\wbemcomn".?IsFinite@CWbemInterval@@QEBAHXZ
  ?IsFinite@CWbemTime@@QEBAHXZ="C:\Windows\System32\wbemcomn".?IsFinite@CWbemTime@@QEBAHXZ
  ?IsHalted@CHaltable@@QEAAHXZ="C:\Windows\System32\wbemcomn".?IsHalted@CHaltable@@QEAAHXZ
  ?IsIdleTooLong@CExecQueue@@MEAAHPEAVCThreadRecord@1@K@Z="C:\Windows\System32\wbemcomn".?IsIdleTooLong@CExecQueue@@MEAAHPEAVCThreadRecord@1@K@Z
  ?IsImpersonating@CWbemCallSecurity@@UEAAHXZ="C:\Windows\System32\wbemcomn".?IsImpersonating@CWbemCallSecurity@@UEAAHXZ
  ?IsInitialized@CWbemInstallObject@@CA_NXZ="C:\Windows\System32\wbemcomn".?IsInitialized@CWbemInstallObject@@CA_NXZ
  ?IsInterval@CDMTFParser@@QEAA_NXZ="C:\Windows\System32\wbemcomn".?IsInterval@CDMTFParser@@QEAA_NXZ
  ?IsNull@CVar@@QEAAHXZ="C:\Windows\System32\wbemcomn".?IsNull@CVar@@QEAAHXZ
  ?IsOffline@CWbemInstallObject@@SA_NXZ="C:\Windows\System32\wbemcomn".?IsOffline@CWbemInstallObject@@SA_NXZ
  ?IsOk@CExecRequest@@QEAA_NXZ="C:\Windows\System32\wbemcomn".?IsOk@CExecRequest@@QEAA_NXZ
  ?IsOptimized@CVarVector@@QEAAHXZ="C:\Windows\System32\wbemcomn".?IsOptimized@CVarVector@@QEAAHXZ
  ?IsSTA@CExecQueue@@MEAAHXZ="C:\Windows\System32\wbemcomn".?IsSTA@CExecQueue@@MEAAHXZ
  ?IsSTAThread@CExecQueue@@SAHXZ="C:\Windows\System32\wbemcomn".?IsSTAThread@CExecQueue@@SAHXZ
  ?IsSuitableThread@CExecQueue@@MEAAHPEAVCThreadRecord@1@PEAVCExecRequest@@@Z="C:\Windows\System32\wbemcomn".?IsSuitableThread@CExecQueue@@MEAAHPEAVCThreadRecord@1@PEAVCExecRequest@@@Z
  ?IsUsed@CDMTFParser@@QEAA_NH@Z="C:\Windows\System32\wbemcomn".?IsUsed@CDMTFParser@@QEAA_NH@Z
  ?IsUser@CNtSid@@QEAA_NXZ="C:\Windows\System32\wbemcomn".?IsUser@CNtSid@@QEAA_NXZ
  ?IsUserInGroup@CNtSecurity@@SAHPEAXAEAVCNtSid@@PEAH@Z="C:\Windows\System32\wbemcomn".?IsUserInGroup@CNtSecurity@@SAHPEAXAEAVCNtSid@@PEAH@Z
  ?IsValid@CDMTFParser@@QEAA_NXZ="C:\Windows\System32\wbemcomn".?IsValid@CDMTFParser@@QEAA_NXZ
  ?IsValid@CNtAcl@@QEAAHXZ="C:\Windows\System32\wbemcomn".?IsValid@CNtAcl@@QEAAHXZ
  ?IsValid@CNtSecurityDescriptor@@QEAAHXZ="C:\Windows\System32\wbemcomn".?IsValid@CNtSecurityDescriptor@@QEAAHXZ
  ?IsValid@CNtSid@@QEAAHXZ="C:\Windows\System32\wbemcomn".?IsValid@CNtSid@@QEAAHXZ
  ?IsValidAmPmString@CDateTimeParser@@IEAAHPEAGPEBGQEAPEAG@Z="C:\Windows\System32\wbemcomn".?IsValidAmPmString@CDateTimeParser@@IEAAHPEAGPEBGQEAPEAG@Z
  ?IsValidColonMillisecond@CDateTimeParser@@IEAAHPEAGPEBG@Z="C:\Windows\System32\wbemcomn".?IsValidColonMillisecond@CDateTimeParser@@IEAAHPEAGPEBG@Z
  ?IsValidDateTime@CDateTimeParser@@QEAAHXZ="C:\Windows\System32\wbemcomn".?IsValidDateTime@CDateTimeParser@@QEAAHXZ
  ?IsValidDayNumber@CDateTimeParser@@IEAAHPEAGPEBG@Z="C:\Windows\System32\wbemcomn".?IsValidDayNumber@CDateTimeParser@@IEAAHPEAGPEBG@Z
  ?IsValidDotMillisecond@CDateTimeParser@@IEAAHPEAGPEBG@Z="C:\Windows\System32\wbemcomn".?IsValidDotMillisecond@CDateTimeParser@@IEAAHPEAGPEBG@Z
  ?IsValidHourNumber@CDateTimeParser@@IEAAHPEAGPEBG@Z="C:\Windows\System32\wbemcomn".?IsValidHourNumber@CDateTimeParser@@IEAAHPEAGPEBG@Z
  ?IsValidMinuteNumber@CDateTimeParser@@IEAAHPEAGPEBG@Z="C:\Windows\System32\wbemcomn".?IsValidMinuteNumber@CDateTimeParser@@IEAAHPEAGPEBG@Z
  ?IsValidMonthNumber@CDateTimeParser@@IEAAHPEAGPEBG@Z="C:\Windows\System32\wbemcomn".?IsValidMonthNumber@CDateTimeParser@@IEAAHPEAGPEBG@Z
  ?IsValidMonthString@CDateTimeParser@@IEAAHPEAGPEBGQEAPEAG2@Z="C:\Windows\System32\wbemcomn".?IsValidMonthString@CDateTimeParser@@IEAAHPEAGPEBGQEAPEAG2@Z
  ?IsValidSecondNumber@CDateTimeParser@@IEAAHPEAGPEBG@Z="C:\Windows\System32\wbemcomn".?IsValidSecondNumber@CDateTimeParser@@IEAAHPEAGPEBG@Z
  ?IsValidVectorArray@CVarVector@@SAHHPEAUtagSAFEARRAY@@@Z="C:\Windows\System32\wbemcomn".?IsValidVectorArray@CVarVector@@SAHHPEAUtagSAFEARRAY@@@Z
  ?IsValidVectorType@CVarVector@@SAHH@Z="C:\Windows\System32\wbemcomn".?IsValidVectorType@CVarVector@@SAHH@Z
  ?IsValidYearMonthDayNumber@CDateTimeParser@@IEAAHPEAG@Z="C:\Windows\System32\wbemcomn".?IsValidYearMonthDayNumber@CDateTimeParser@@IEAAHPEAG@Z
  ?IsValidYearNumber@CDateTimeParser@@IEAAHPEAGPEBGH@Z="C:\Windows\System32\wbemcomn".?IsValidYearNumber@CDateTimeParser@@IEAAHPEAGPEBGH@Z
  ?IsWildcard@CDMTFParser@@QEAA_NH@Z="C:\Windows\System32\wbemcomn".?IsWildcard@CDMTFParser@@QEAA_NH@Z
  ?IsZero@CWbemInterval@@QEBAHXZ="C:\Windows\System32\wbemcomn".?IsZero@CWbemInterval@@QEBAHXZ
  ?IsZero@CWbemTime@@QEBAHXZ="C:\Windows\System32\wbemcomn".?IsZero@CWbemTime@@QEBAHXZ
  ?LCID_To_Culture_Format@CMUILocale@@SAJKPEAG_K@Z="C:\Windows\System32\wbemcomn".?LCID_To_Culture_Format@CMUILocale@@SAJKPEAG_K@Z
  ?LCID_To_ms_XXX_Format@CMUILocale@@SAJKPEAG_K@Z="C:\Windows\System32\wbemcomn".?LCID_To_ms_XXX_Format@CMUILocale@@SAJKPEAG_K@Z
  ?Leave@CCheckedInCritSec@@QEAAXXZ="C:\Windows\System32\wbemcomn".?Leave@CCheckedInCritSec@@QEAAXXZ
  ?Leave@CCritSec@@QEAAXXZ="C:\Windows\System32\wbemcomn".?Leave@CCritSec@@QEAAXXZ
  ?Leave@CExecQueue@@QEAAXXZ="C:\Windows\System32\wbemcomn".?Leave@CExecQueue@@QEAAXXZ
  ?Leave@CStaticCritSec@@QEAAXXZ="C:\Windows\System32\wbemcomn".?Leave@CStaticCritSec@@QEAAXXZ
  ?Leave@CWbemCriticalSection@@QEAAXXZ="C:\Windows\System32\wbemcomn".?Leave@CWbemCriticalSection@@QEAAXXZ
  ?Length@WString2@@QEBAHXZ="C:\Windows\System32\wbemcomn".?Length@WString2@@QEBAHXZ
  ?Length@WString@@QEBAHXZ="C:\Windows\System32\wbemcomn".?Length@WString@@QEBAHXZ
  ?LocaleName_To_LCID@CMUILocale@@SAJPEBGPEA_NPEAK@Z="C:\Windows\System32\wbemcomn".?LocaleName_To_LCID@CMUILocale@@SAJPEBGPEA_NPEAK@Z
  ?Lock@?$CLockableFlexArray@VCStaticCritSec@@@@QEAAXXZ="C:\Windows\System32\wbemcomn".?Lock@?$CLockableFlexArray@VCStaticCritSec@@@@QEAAXXZ
  ?Lock@CClientOpsNode@@QEAAXXZ="C:\Windows\System32\wbemcomn".?Lock@CClientOpsNode@@QEAAXXZ
  ?LockRegion@CBuffer@@UEAAJT_ULARGE_INTEGER@@0K@Z="C:\Windows\System32\wbemcomn".?LockRegion@CBuffer@@UEAAJT_ULARGE_INTEGER@@0K@Z
  ?LogError@CExecQueue@@MEAAXPEAVCExecRequest@@H@Z="C:\Windows\System32\wbemcomn".?LogError@CExecQueue@@MEAAXPEAVCExecRequest@@H@Z
  ?MakeInternalCopyOfThread@CWbemCallSecurity@@SAPEAV1@XZ="C:\Windows\System32\wbemcomn".?MakeInternalCopyOfThread@CWbemCallSecurity@@SAPEAV1@XZ
  ?MakeOptimized@CVarVector@@QEAAHHHH@Z="C:\Windows\System32\wbemcomn".?MakeOptimized@CVarVector@@QEAAHHHH@Z
  ?MarkForRemoval@CTimerInstruction@@UEAAJXZ="C:\Windows\System32\wbemcomn".?MarkForRemoval@CTimerInstruction@@UEAAJXZ
  ?Match@CLike@@QEAA_NPEBG@Z="C:\Windows\System32\wbemcomn".?Match@CLike@@QEAA_NPEBG@Z
  ?MatchSet@CLike@@IEAA_NPEBG0AEAH@Z="C:\Windows\System32\wbemcomn".?MatchSet@CLike@@IEAA_NPEBG0AEAH@Z
  ?MoveToSubkey@Registry@@QEAAHPEBG@Z="C:\Windows\System32\wbemcomn".?MoveToSubkey@Registry@@QEAAHPEBG@Z
  ?Mrci1Decompress@CBaseMrciCompression@@QEAAIPEAEI0I@Z="C:\Windows\System32\wbemcomn".?Mrci1Decompress@CBaseMrciCompression@@QEAAIPEAEI0I@Z
  ?Mrci1MaxCompress@CBaseMrciCompression@@QEAAIPEAEI0I@Z="C:\Windows\System32\wbemcomn".?Mrci1MaxCompress@CBaseMrciCompression@@QEAAIPEAEI0I@Z
  ?Mrci2Decompress@CBaseMrciCompression@@QEAAIPEAEI0I@Z="C:\Windows\System32\wbemcomn".?Mrci2Decompress@CBaseMrciCompression@@QEAAIPEAEI0I@Z
  ?Mrci2MaxCompress@CBaseMrciCompression@@QEAAIPEAEI0I@Z="C:\Windows\System32\wbemcomn".?Mrci2MaxCompress@CBaseMrciCompression@@QEAAIPEAEI0I@Z
  ?Next@CAbstractQl1Parser@@MEAAHH@Z="C:\Windows\System32\wbemcomn".?Next@CAbstractQl1Parser@@MEAAHH@Z
  ?Next@CWQLScanner@@AEAAHXZ="C:\Windows\System32\wbemcomn".?Next@CWQLScanner@@AEAAHXZ
  ?NotifyStartingThread@CTimerGenerator@@MEAAXXZ="C:\Windows\System32\wbemcomn".?NotifyStartingThread@CTimerGenerator@@MEAAXXZ
  ?NotifyStoppingThread@CTimerGenerator@@MEAAXXZ="C:\Windows\System32\wbemcomn".?NotifyStoppingThread@CTimerGenerator@@MEAAXXZ
  ?ObjectCreated@CContainerControl@@UEAAHPEAUIUnknown@@@Z="C:\Windows\System32\wbemcomn".?ObjectCreated@CContainerControl@@UEAAHPEAUIUnknown@@@Z
  ?ObjectDestroyed@CContainerControl@@UEAAXPEAUIUnknown@@@Z="C:\Windows\System32\wbemcomn".?ObjectDestroyed@CContainerControl@@UEAAXPEAUIUnknown@@@Z
  ?OnInitialize@CUnk@@UEAAHXZ="C:\Windows\System32\wbemcomn".?OnInitialize@CUnk@@UEAAHXZ
  ?Open@CEventLog@@QEAAHXZ="C:\Windows\System32\wbemcomn".?Open@CEventLog@@QEAAHXZ
  ?Open@Registry@@QEAAHPEAUHKEY__@@PEBGK@Z="C:\Windows\System32\wbemcomn".?Open@Registry@@QEAAHPEAUHKEY__@@PEBGK@Z
  ?OrderAces@CNtAcl@@QEAAPEAV1@XZ="C:\Windows\System32\wbemcomn".?OrderAces@CNtAcl@@QEAAPEAV1@XZ
  ?Parse@CAbstractQl1Parser@@QEAAHPEAVCQl1ParseSink@@H@Z="C:\Windows\System32\wbemcomn".?Parse@CAbstractQl1Parser@@QEAAHPEAVCQl1ParseSink@@H@Z
  ?Parse@CWQLScanner@@QEAAHXZ="C:\Windows\System32\wbemcomn".?Parse@CWQLScanner@@QEAAHXZ
  ?Parse@QL1_Parser@@QEAAHPEAPEAUQL_LEVEL_1_RPN_EXPRESSION@@@Z="C:\Windows\System32\wbemcomn".?Parse@QL1_Parser@@QEAAHPEAPEAUQL_LEVEL_1_RPN_EXPRESSION@@@Z
  ?ParseAbsolute@CDMTFParser@@IEAAXPEBG@Z="C:\Windows\System32\wbemcomn".?ParseAbsolute@CDMTFParser@@IEAAXPEBG@Z
  ?ParseDate@CDMTFParser@@IEAAXPEBG@Z="C:\Windows\System32\wbemcomn".?ParseDate@CDMTFParser@@IEAAXPEBG@Z
  ?ParseInterval@CDMTFParser@@IEAAXPEBG@Z="C:\Windows\System32\wbemcomn".?ParseInterval@CDMTFParser@@IEAAXPEBG@Z
  ?ParsePart@CDMTFParser@@IEAAHPEBGHHPEAHHH@Z="C:\Windows\System32\wbemcomn".?ParsePart@CDMTFParser@@IEAAHPEBGHHPEAHHH@Z
  ?Peek@CFlexQueue@@QEAAPEAXXZ="C:\Windows\System32\wbemcomn".?Peek@CFlexQueue@@QEAAPEAXXZ
  ?ProcessArray@CTextTemplate@@AEAAPEAGAEBUtagVARIANT@@PEAG@Z="C:\Windows\System32\wbemcomn".?ProcessArray@CTextTemplate@@AEAAPEAGAEBUtagVARIANT@@PEAG@Z
  ?Publish@CPublishWMIOperationEvent@@SAJPEAGKK0000K_K0H@Z="C:\Windows\System32\wbemcomn".?Publish@CPublishWMIOperationEvent@@SAJPEAGKK0000K_K0H@Z
  ?PublishClientRequestFailure@CPublishWMIOperationEvent@@SAJPEBGPEAG1K10J0@Z="C:\Windows\System32\wbemcomn".?PublishClientRequestFailure@CPublishWMIOperationEvent@@SAJPEBGPEAG1K10J0@Z
  ?PublishESSDrop@CPublishWMIOperationEvent@@SAJPEAG0@Z="C:\Windows\System32\wbemcomn".?PublishESSDrop@CPublishWMIOperationEvent@@SAJPEAG0@Z
  ?PublishEssStarted@CPublishWMIOperationEvent@@SAJPEAG00K0K0@Z="C:\Windows\System32\wbemcomn".?PublishEssStarted@CPublishWMIOperationEvent@@SAJPEAG00K0K0@Z
  ?PublishEssToConsumer@CPublishWMIOperationEvent@@SAJPEAG0@Z="C:\Windows\System32\wbemcomn".?PublishEssToConsumer@CPublishWMIOperationEvent@@SAJPEAG0@Z
  ?PublishEssToConsumerBinding@CPublishWMIOperationEvent@@SAJPEAG000@Z="C:\Windows\System32\wbemcomn".?PublishEssToConsumerBinding@CPublishWMIOperationEvent@@SAJPEAG000@Z
  ?PublishMethodExec@CPublishWMIOperationEvent@@SAJPEAGKK000000K_K0H@Z="C:\Windows\System32\wbemcomn".?PublishMethodExec@CPublishWMIOperationEvent@@SAJPEAGKK000000K_K0H@Z
  ?PublishProviderInfo@CPublishWMIOperationEvent@@SAJKPEAGK000PEAUIWbemContext@@@Z="C:\Windows\System32\wbemcomn".?PublishProviderInfo@CPublishWMIOperationEvent@@SAJKPEAGK000PEAUIWbemContext@@@Z
  ?PublishProviderStarted@CPublishWMIOperationEvent@@SAJPEAGJ0K0@Z="C:\Windows\System32\wbemcomn".?PublishProviderStarted@CPublishWMIOperationEvent@@SAJPEAGJ0K0@Z
  ?PublishRepDelete@CPublishWMIOperationEvent@@SAJKPEAGPEAUIWbemContext@@K0_KH@Z="C:\Windows\System32\wbemcomn".?PublishRepDelete@CPublishWMIOperationEvent@@SAJKPEAGPEAUIWbemContext@@K0_KH@Z
  ?PublishRepUpdate@CPublishWMIOperationEvent@@SAJKPEAGKPEAUIWbemContext@@K0_KH@Z="C:\Windows\System32\wbemcomn".?PublishRepUpdate@CPublishWMIOperationEvent@@SAJKPEAGKPEAUIWbemContext@@K0_KH@Z
  ?PublishStop@CPublishWMIOperationEvent@@SAJKJPEAG@Z="C:\Windows\System32\wbemcomn".?PublishStop@CPublishWMIOperationEvent@@SAJKJPEAG@Z
  ?PublishTemporaryEssStarted@CPublishWMIOperationEvent@@SAJPEAG00K00@Z="C:\Windows\System32\wbemcomn".?PublishTemporaryEssStarted@CPublishWMIOperationEvent@@SAJPEAG00K00@Z
  ?PublishWin32ProcessCreation@CPublishWMIOperationEvent@@SAJPEAGKK0K_K000K1H@Z="C:\Windows\System32\wbemcomn".?PublishWin32ProcessCreation@CPublishWMIOperationEvent@@SAJPEAGKK0K_K000K1H@Z
  ?Pushback@CWQLScanner@@AEAAHPEAUWSLexToken@@@Z="C:\Windows\System32\wbemcomn".?Pushback@CWQLScanner@@AEAAHPEAUWSLexToken@@@Z
  ?Query@CTraceSessionControl@@SAK_KPEAGPEAPEAVCWMITraceSettings@@@Z="C:\Windows\System32\wbemcomn".?Query@CTraceSessionControl@@SAK_KPEAGPEAPEAVCWMITraceSettings@@@Z
  ?QueryBlanket@CWbemCallSecurity@@UEAAJPEAK0PEAPEAG00PEAPEAX0@Z="C:\Windows\System32\wbemcomn".?QueryBlanket@CWbemCallSecurity@@UEAAJPEAK0PEAPEAG00PEAPEAX0@Z
  ?QueryInterface@CBuffer@@UEAAJAEBU_GUID@@PEAPEAX@Z="C:\Windows\System32\wbemcomn".?QueryInterface@CBuffer@@UEAAJAEBU_GUID@@PEAPEAX@Z
  ?QueryInterface@CUnk@@UEAAJAEBU_GUID@@PEAPEAX@Z="C:\Windows\System32\wbemcomn".?QueryInterface@CUnk@@UEAAJAEBU_GUID@@PEAPEAX@Z
  ?QueryInterface@CUnkInternal@@UEAAJAEBU_GUID@@PEAPEAX@Z="C:\Windows\System32\wbemcomn".?QueryInterface@CUnkInternal@@UEAAJAEBU_GUID@@PEAPEAX@Z
  ?QueryInterface@CWbemCallSecurity@@UEAAJAEBU_GUID@@PEAPEAX@Z="C:\Windows\System32\wbemcomn".?QueryInterface@CWbemCallSecurity@@UEAAJAEBU_GUID@@PEAPEAX@Z
  ?QueueUnblockedWaitForSingleObject@CExecQueue@@SAKPEAXK@Z="C:\Windows\System32\wbemcomn".?QueueUnblockedWaitForSingleObject@CExecQueue@@SAKPEAXK@Z
  ?QueueWaitForSingleObject@CExecQueue@@SAKPEAXK@Z="C:\Windows\System32\wbemcomn".?QueueWaitForSingleObject@CExecQueue@@SAKPEAXK@Z
  ?Read@CBuffer@@UEAAJPEAXKPEAK@Z="C:\Windows\System32\wbemcomn".?Read@CBuffer@@UEAAJPEAXKPEAK@Z
  ?ReadFromRegistry@CWMITraceSettings@@QEAAKPEBG@Z="C:\Windows\System32\wbemcomn".?ReadFromRegistry@CWMITraceSettings@@QEAAKPEBG@Z
  ?ReadLPWSTR@CBuffer@@QEAAJAEAPEBG@Z="C:\Windows\System32\wbemcomn".?ReadLPWSTR@CBuffer@@QEAAJAEAPEBG@Z
  ?Realloc@CWin32DefaultArena@@UEAAPEAXPEAX_K@Z="C:\Windows\System32\wbemcomn".?Realloc@CWin32DefaultArena@@UEAAPEAXPEAX_K@Z
  ?ReduceSql89Joins@CWQLScanner@@AEAAHXZ="C:\Windows\System32\wbemcomn".?ReduceSql89Joins@CWQLScanner@@AEAAHXZ
  ?ReduceSql92Joins@CWQLScanner@@AEAAHXZ="C:\Windows\System32\wbemcomn".?ReduceSql92Joins@CWQLScanner@@AEAAHXZ
  ?Register@CExecQueue@@KAXPEAVCThreadRecord@1@@Z="C:\Windows\System32\wbemcomn".?Register@CExecQueue@@KAXPEAVCThreadRecord@1@@Z
  ?RegisterCMIFlushRepositoryCacheHook@CWbemInstallObject@@SAXP6AJH@Z@Z="C:\Windows\System32\wbemcomn".?RegisterCMIFlushRepositoryCacheHook@CWbemInstallObject@@SAXP6AJH@Z@Z
  ?Release@CBasicUnloadInstruction@@UEAAXXZ="C:\Windows\System32\wbemcomn".?Release@CBasicUnloadInstruction@@UEAAXXZ
  ?Release@CBuffer@@UEAAKXZ="C:\Windows\System32\wbemcomn".?Release@CBuffer@@UEAAKXZ
  ?Release@CContainerControl@@UEAAXPEAUIUnknown@@@Z="C:\Windows\System32\wbemcomn".?Release@CContainerControl@@UEAAXPEAUIUnknown@@@Z
  ?Release@CExecQueue@@QEAAXXZ="C:\Windows\System32\wbemcomn".?Release@CExecQueue@@QEAAXXZ
  ?Release@CUnk@@UEAAKXZ="C:\Windows\System32\wbemcomn".?Release@CUnk@@UEAAKXZ
  ?Release@CUnkInternal@@UEAAKXZ="C:\Windows\System32\wbemcomn".?Release@CUnkInternal@@UEAAKXZ
  ?Release@CWbemCallSecurity@@UEAAKXZ="C:\Windows\System32\wbemcomn".?Release@CWbemCallSecurity@@UEAAKXZ
  ?Release@QL_LEVEL_1_RPN_EXPRESSION@@QEAAXXZ="C:\Windows\System32\wbemcomn".?Release@QL_LEVEL_1_RPN_EXPRESSION@@QEAAXXZ
  ?RemainsUntil@CWbemTime@@QEBA?AVCWbemInterval@@AEBV1@@Z="C:\Windows\System32\wbemcomn".?RemainsUntil@CWbemTime@@QEBA?AVCWbemInterval@@AEBV1@@Z
  ?Remove@CInstructionQueue@@QEAAJPEAVCInstructionTest@@PEAPEAVCTimerInstruction@@@Z="C:\Windows\System32\wbemcomn".?Remove@CInstructionQueue@@QEAAJPEAVCInstructionTest@@PEAPEAVCTimerInstruction@@@Z
  ?Remove@CMinMaxLimitControl@@UEAAJK@Z="C:\Windows\System32\wbemcomn".?Remove@CMinMaxLimitControl@@UEAAJK@Z
  ?Remove@CTimerGenerator@@QEAAJPEAVCInstructionTest@@@Z="C:\Windows\System32\wbemcomn".?Remove@CTimerGenerator@@QEAAJPEAVCInstructionTest@@@Z
  ?RemoveAt@CFlexArray@@QEAAHH@Z="C:\Windows\System32\wbemcomn".?RemoveAt@CFlexArray@@QEAAHH@Z
  ?RemoveAt@CSafeArray@@QEAAHH@Z="C:\Windows\System32\wbemcomn".?RemoveAt@CSafeArray@@QEAAHH@Z
  ?RemoveAt@CSmallArrayBlob@@QEAAPEAV1@HPEAPEAX@Z="C:\Windows\System32\wbemcomn".?RemoveAt@CSmallArrayBlob@@QEAAPEAV1@HPEAPEAX@Z
  ?RemoveAt@CVarVector@@QEAAHH@Z="C:\Windows\System32\wbemcomn".?RemoveAt@CVarVector@@QEAAHH@Z
  ?RemoveAt@CWStringArray@@QEAAHH@Z="C:\Windows\System32\wbemcomn".?RemoveAt@CWStringArray@@QEAAHH@Z
  ?RemoveMember@CLimitControl@@UEAAJXZ="C:\Windows\System32\wbemcomn".?RemoveMember@CLimitControl@@UEAAJXZ
  ?RemoveSelf@CClientOpsNode@@QEAAXXZ="C:\Windows\System32\wbemcomn".?RemoveSelf@CClientOpsNode@@QEAAXXZ
  ?ReplaceAt@CWStringArray@@QEAAHHPEAG@Z="C:\Windows\System32\wbemcomn".?ReplaceAt@CWStringArray@@QEAAHHPEAG@Z
  ?ReplaceClassName@QL1_Parser@@SAPEAGPEAUQL_LEVEL_1_RPN_EXPRESSION@@PEBG@Z="C:\Windows\System32\wbemcomn".?ReplaceClassName@QL1_Parser@@SAPEAGPEAUQL_LEVEL_1_RPN_EXPRESSION@@PEBG@Z
  ?Report@CEventLog@@QEAAHGAEBU_EVENT_DESCRIPTOR@@VCInsertionString@@111111111@Z="C:\Windows\System32\wbemcomn".?Report@CEventLog@@QEAAHGAEBU_EVENT_DESCRIPTOR@@VCInsertionString@@111111111@Z
  ?Requeue@CFlexQueue@@QEAA_NPEAX@Z="C:\Windows\System32\wbemcomn".?Requeue@CFlexQueue@@QEAA_NPEAX@Z
  ?Reread@CRegistryMinMaxLimitControl@@QEAAJXZ="C:\Windows\System32\wbemcomn".?Reread@CRegistryMinMaxLimitControl@@QEAAJXZ
  ?Reset@CBuffer@@QEAAXXZ="C:\Windows\System32\wbemcomn".?Reset@CBuffer@@QEAAXXZ
  ?Reset@CMRCIControl@@QEAAXXZ="C:\Windows\System32\wbemcomn".?Reset@CMRCIControl@@QEAAXXZ
  ?ResetDate@CDateTimeParser@@IEAAXH@Z="C:\Windows\System32\wbemcomn".?ResetDate@CDateTimeParser@@IEAAXH@Z
  ?ResetDateTime@CDateTimeParser@@IEAAXH@Z="C:\Windows\System32\wbemcomn".?ResetDateTime@CDateTimeParser@@IEAAXH@Z
  ?ResetQueue@CFlexQueue@@QEAAXXZ="C:\Windows\System32\wbemcomn".?ResetQueue@CFlexQueue@@QEAAXXZ
  ?ResetTime@CDateTimeParser@@IEAAXH@Z="C:\Windows\System32\wbemcomn".?ResetTime@CDateTimeParser@@IEAAXH@Z
  ?Resize@CNtAcl@@QEAAHK@Z="C:\Windows\System32\wbemcomn".?Resize@CNtAcl@@QEAAHK@Z
  ?Resume@CHaltable@@QEAAJXZ="C:\Windows\System32\wbemcomn".?Resume@CHaltable@@QEAAJXZ
  ?ResumeAll@CHaltable@@QEAAJXZ="C:\Windows\System32\wbemcomn".?ResumeAll@CHaltable@@QEAAJXZ
  ?ReturnEscapedReturns@CTextTemplate@@AEAAPEAGPEAG@Z="C:\Windows\System32\wbemcomn".?ReturnEscapedReturns@CTextTemplate@@AEAAPEAGPEAG@Z
  ?Revert@CBuffer@@UEAAJXZ="C:\Windows\System32\wbemcomn".?Revert@CBuffer@@UEAAJXZ
  ?RevertToSelf@CWbemCallSecurity@@UEAAJXZ="C:\Windows\System32\wbemcomn".?RevertToSelf@CWbemCallSecurity@@UEAAJXZ
  ?ScheduleFreeUnusedLibraries@CTimerGenerator@@QEAAXXZ="C:\Windows\System32\wbemcomn".?ScheduleFreeUnusedLibraries@CTimerGenerator@@QEAAXXZ
  ?SchedulerThread@CTimerGenerator@@CAKPEAX@Z="C:\Windows\System32\wbemcomn".?SchedulerThread@CTimerGenerator@@CAKPEAX@Z
  ?SearchForRecord@CEventLog@@IEAAHPEAVCEventLogRecord@@@Z="C:\Windows\System32\wbemcomn".?SearchForRecord@CEventLog@@IEAAHPEAVCEventLogRecord@@@Z
  ?SearchForSuitableRequest@CExecQueue@@MEAAPEAVCExecRequest@@PEAVCThreadRecord@1@@Z="C:\Windows\System32\wbemcomn".?SearchForSuitableRequest@CExecQueue@@MEAAPEAVCExecRequest@@PEAVCThreadRecord@1@@Z
  ?Seek@CBuffer@@UEAAJT_LARGE_INTEGER@@KPEAT_ULARGE_INTEGER@@@Z="C:\Windows\System32\wbemcomn".?Seek@CBuffer@@UEAAJT_LARGE_INTEGER@@KPEAT_ULARGE_INTEGER@@@Z
  ?SelectList@CWQLScanner@@AEAAHXZ="C:\Windows\System32\wbemcomn".?SelectList@CWQLScanner@@AEAAHXZ
  ?Serialize@C9XAce@@UEAA_NPEAE_K@Z="C:\Windows\System32\wbemcomn".?Serialize@C9XAce@@UEAA_NPEAE_K@Z
  ?Serialize@CNtAce@@UEAA_NPEAE_K@Z="C:\Windows\System32\wbemcomn".?Serialize@CNtAce@@UEAA_NPEAE_K@Z
  ?Set100nss@CWbemTime@@QEAAX_J@Z="C:\Windows\System32\wbemcomn".?Set100nss@CWbemTime@@QEAAX_J@Z
  ?Set@CTimerGenerator@@QEAAJPEAVCTimerInstruction@@VCWbemTime@@@Z="C:\Windows\System32\wbemcomn".?Set@CTimerGenerator@@QEAAJPEAVCTimerInstruction@@VCWbemTime@@@Z
  ?SetAggregated@QL_LEVEL_1_RPN_EXPRESSION@@UEAAXXZ="C:\Windows\System32\wbemcomn".?SetAggregated@QL_LEVEL_1_RPN_EXPRESSION@@UEAAXXZ
  ?SetAggregationTolerance@QL_LEVEL_1_RPN_EXPRESSION@@UEAAXAEBU_tag_WbemQl1Tolerance@@@Z="C:\Windows\System32\wbemcomn".?SetAggregationTolerance@QL_LEVEL_1_RPN_EXPRESSION@@UEAAXAEBU_tag_WbemQl1Tolerance@@@Z
  ?SetAreaFlags@CWMITraceSettings@@QEAAXK@Z="C:\Windows\System32\wbemcomn".?SetAreaFlags@CWMITraceSettings@@QEAAXK@Z
  ?SetAsNull@CVar@@QEAAXXZ="C:\Windows\System32\wbemcomn".?SetAsNull@CVar@@QEAAXXZ
  ?SetAt@CFlexArray@@QEAAXHPEAX@Z="C:\Windows\System32\wbemcomn".?SetAt@CFlexArray@@QEAAXHPEAX@Z
  ?SetAt@CSmallArrayBlob@@QEAAPEAV1@HPEAXPEAPEAX@Z="C:\Windows\System32\wbemcomn".?SetAt@CSmallArrayBlob@@QEAAPEAV1@HPEAXPEAPEAX@Z
  ?SetAt@CWStringArray@@QEAAHHPEBG@Z="C:\Windows\System32\wbemcomn".?SetAt@CWStringArray@@QEAAHHPEBG@Z
  ?SetAutoRecoverFolder@CWbemInstallObject@@SAXPEBG@Z="C:\Windows\System32\wbemcomn".?SetAutoRecoverFolder@CWbemInstallObject@@SAXPEBG@Z
  ?SetBSTR@CVar@@QEAAHPEAG@Z="C:\Windows\System32\wbemcomn".?SetBSTR@CVar@@QEAAHPEAG@Z
  ?SetBSTR@CVar@@QEAAHVauto_bstr@@@Z="C:\Windows\System32\wbemcomn".?SetBSTR@CVar@@QEAAHVauto_bstr@@@Z
  ?SetBSTRAt@CSafeArray@@QEAAHHPEAG@Z="C:\Windows\System32\wbemcomn".?SetBSTRAt@CSafeArray@@QEAAHHPEAG@Z
  ?SetBinary@Registry@@QEAAHPEBGPEAEK@Z="C:\Windows\System32\wbemcomn".?SetBinary@Registry@@QEAAHPEBGPEAEK@Z
  ?SetBinaryPath@CWbemInstallObject@@SAXPEBG@Z="C:\Windows\System32\wbemcomn".?SetBinaryPath@CWbemInstallObject@@SAXPEBG@Z
  ?SetBlob@CVar@@QEAAXPEAUtagBLOB@@H@Z="C:\Windows\System32\wbemcomn".?SetBlob@CVar@@QEAAXPEAUtagBLOB@@H@Z
  ?SetBool@CVar@@QEAAXF@Z="C:\Windows\System32\wbemcomn".?SetBool@CVar@@QEAAXF@Z
  ?SetBoolAt@CSafeArray@@QEAAHHF@Z="C:\Windows\System32\wbemcomn".?SetBoolAt@CSafeArray@@QEAAHHF@Z
  ?SetByte@CVar@@QEAAXE@Z="C:\Windows\System32\wbemcomn".?SetByte@CVar@@QEAAXE@Z
  ?SetByteAt@CSafeArray@@QEAAHHE@Z="C:\Windows\System32\wbemcomn".?SetByteAt@CSafeArray@@QEAAHHE@Z
  ?SetCanDelete@CVar@@QEAAXH@Z="C:\Windows\System32\wbemcomn".?SetCanDelete@CVar@@QEAAXH@Z
  ?SetChar@CVar@@QEAAXD@Z="C:\Windows\System32\wbemcomn".?SetChar@CVar@@QEAAXD@Z
  ?SetClassName@QL_LEVEL_1_RPN_EXPRESSION@@UEAAXPEBG@Z="C:\Windows\System32\wbemcomn".?SetClassName@QL_LEVEL_1_RPN_EXPRESSION@@UEAAXPEBG@Z
  ?SetClsId@CVar@@QEAAXPEAU_GUID@@H@Z="C:\Windows\System32\wbemcomn".?SetClsId@CVar@@QEAAXPEAU_GUID@@H@Z
  ?SetCountQuery@QL_LEVEL_1_RPN_EXPRESSION@@UEAAXXZ="C:\Windows\System32\wbemcomn".?SetCountQuery@QL_LEVEL_1_RPN_EXPRESSION@@UEAAXXZ
  ?SetDMTF@CWbemTime@@QEAAHPEBG@Z="C:\Windows\System32\wbemcomn".?SetDMTF@CWbemTime@@QEAAHPEBG@Z
  ?SetDWORD@CVar@@QEAAXK@Z="C:\Windows\System32\wbemcomn".?SetDWORD@CVar@@QEAAXK@Z
  ?SetDWORD@Registry@@QEAAHPEBGK@Z="C:\Windows\System32\wbemcomn".?SetDWORD@Registry@@QEAAHPEBGK@Z
  ?SetDWORDStr@Registry@@QEAAHPEBGK@Z="C:\Windows\System32\wbemcomn".?SetDWORDStr@Registry@@QEAAHPEBGK@Z
  ?SetDacl@CNtSecurityDescriptor@@QEAAHPEAVCNtAcl@@@Z="C:\Windows\System32\wbemcomn".?SetDacl@CNtSecurityDescriptor@@QEAAHPEAVCNtAcl@@@Z
  ?SetDate@CDatePart@@QEAAJPEBD@Z="C:\Windows\System32\wbemcomn".?SetDate@CDatePart@@QEAAJPEBD@Z
  ?SetDate@CDatePart@@QEAAJPEBG@Z="C:\Windows\System32\wbemcomn".?SetDate@CDatePart@@QEAAJPEBG@Z
  ?SetDateTime@CDateTimeParser@@QEAAHPEBG@Z="C:\Windows\System32\wbemcomn".?SetDateTime@CDateTimeParser@@QEAAHPEBG@Z
  ?SetDefaultValues@CWMITraceSettings@@QEAAKXZ="C:\Windows\System32\wbemcomn".?SetDefaultValues@CWMITraceSettings@@QEAAKXZ
  ?SetDestructorPolicy@CSafeArray@@QEAAXH@Z="C:\Windows\System32\wbemcomn".?SetDestructorPolicy@CSafeArray@@QEAAXH@Z
  ?SetDispatch@CVar@@QEAAXPEAUIDispatch@@@Z="C:\Windows\System32\wbemcomn".?SetDispatch@CVar@@QEAAXPEAUIDispatch@@@Z
  ?SetDispatchAt@CSafeArray@@QEAAHHPEAUIDispatch@@@Z="C:\Windows\System32\wbemcomn".?SetDispatchAt@CSafeArray@@QEAAHHPEAUIDispatch@@@Z
  ?SetDouble@CVar@@QEAAXN@Z="C:\Windows\System32\wbemcomn".?SetDouble@CVar@@QEAAXN@Z
  ?SetDoubleAt@CSafeArray@@QEAAHHN@Z="C:\Windows\System32\wbemcomn".?SetDoubleAt@CSafeArray@@QEAAHHN@Z
  ?SetEmbeddedObject@CVar@@QEAAXPEAUIUnknown@@@Z="C:\Windows\System32\wbemcomn".?SetEmbeddedObject@CVar@@QEAAXPEAUIUnknown@@@Z
  ?SetExpandStr@Registry@@QEAAHPEBG0@Z="C:\Windows\System32\wbemcomn".?SetExpandStr@Registry@@QEAAHPEBG0@Z
  ?SetExpression@CLike@@QEAAXPEBGG@Z="C:\Windows\System32\wbemcomn".?SetExpression@CLike@@QEAAXPEBGG@Z
  ?SetFailure@CStaticCritSec@@SAXXZ="C:\Windows\System32\wbemcomn".?SetFailure@CStaticCritSec@@SAXXZ
  ?SetFileTime@CVar@@QEAAXPEAU_FILETIME@@@Z="C:\Windows\System32\wbemcomn".?SetFileTime@CVar@@QEAAXPEAU_FILETIME@@@Z
  ?SetFileTime@CWbemTime@@QEAAHAEBU_FILETIME@@@Z="C:\Windows\System32\wbemcomn".?SetFileTime@CWbemTime@@QEAAHAEBU_FILETIME@@@Z
  ?SetFlags@C9XAce@@UEAAXJ@Z="C:\Windows\System32\wbemcomn".?SetFlags@C9XAce@@UEAAXJ@Z
  ?SetFlags@CNtAce@@UEAAXJ@Z="C:\Windows\System32\wbemcomn".?SetFlags@CNtAce@@UEAAXJ@Z
  ?SetFloat@CVar@@QEAAXM@Z="C:\Windows\System32\wbemcomn".?SetFloat@CVar@@QEAAXM@Z
  ?SetFloatAt@CSafeArray@@QEAAHHM@Z="C:\Windows\System32\wbemcomn".?SetFloatAt@CSafeArray@@QEAAHHM@Z
  ?SetFromAbsoluteCopy@CNtSecurityDescriptor@@QEAAHPEAUSNtAbsoluteSD@@@Z="C:\Windows\System32\wbemcomn".?SetFromAbsoluteCopy@CNtSecurityDescriptor@@QEAAHPEAUSNtAbsoluteSD@@@Z
  ?SetGroup@CNtSecurityDescriptor@@QEAAHPEAVCNtSid@@@Z="C:\Windows\System32\wbemcomn".?SetGroup@CNtSecurityDescriptor@@QEAAHPEAVCNtSid@@@Z
  ?SetGrowGranularity@CSafeArray@@QEAAXH@Z="C:\Windows\System32\wbemcomn".?SetGrowGranularity@CSafeArray@@QEAAXH@Z
  ?SetHandle@CPropertyName@@QEAAXPEAX@Z="C:\Windows\System32\wbemcomn".?SetHandle@CPropertyName@@QEAAXPEAX@Z
  ?SetIdleTimeout@CExecQueue@@QEAAXK@Z="C:\Windows\System32\wbemcomn".?SetIdleTimeout@CExecQueue@@QEAAXK@Z
  ?SetInfo@CClientOpsNode@@QEAAXPEAX@Z="C:\Windows\System32\wbemcomn".?SetInfo@CClientOpsNode@@QEAAXPEAX@Z
  ?SetInterval@CBasicUnloadInstruction@@QEAAXAEAVCWbemInterval@@@Z="C:\Windows\System32\wbemcomn".?SetInterval@CBasicUnloadInstruction@@QEAAXAEAVCWbemInterval@@@Z
  ?SetLPSTR@CVar@@QEAAHPEADH@Z="C:\Windows\System32\wbemcomn".?SetLPSTR@CVar@@QEAAHPEADH@Z
  ?SetLPWSTR@CVar@@QEAAHPEAGH@Z="C:\Windows\System32\wbemcomn".?SetLPWSTR@CVar@@QEAAHPEAGH@Z
  ?SetLogingEnabled@CMemoryLog@@QEAAX_N@Z="C:\Windows\System32\wbemcomn".?SetLogingEnabled@CMemoryLog@@QEAAX_N@Z
  ?SetLong@CVar@@QEAAXJ@Z="C:\Windows\System32\wbemcomn".?SetLong@CVar@@QEAAXJ@Z
  ?SetLongAt@CSafeArray@@QEAAHHJ@Z="C:\Windows\System32\wbemcomn".?SetLongAt@CSafeArray@@QEAAHHJ@Z
  ?SetMax@CMinMaxLimitControl@@QEAAXK@Z="C:\Windows\System32\wbemcomn".?SetMax@CMinMaxLimitControl@@QEAAXK@Z
  ?SetMilliseconds@CWbemInterval@@QEAAXK@Z="C:\Windows\System32\wbemcomn".?SetMilliseconds@CWbemInterval@@QEAAXK@Z
  ?SetMin@CMinMaxLimitControl@@QEAAXK@Z="C:\Windows\System32\wbemcomn".?SetMin@CMinMaxLimitControl@@QEAAXK@Z
  ?SetMultiStr@Registry@@QEAAHPEBGPEAGK@Z="C:\Windows\System32\wbemcomn".?SetMultiStr@Registry@@QEAAHPEBGPEAGK@Z
  ?SetNext@CExecRequest@@QEAAXPEAV1@@Z="C:\Windows\System32\wbemcomn".?SetNext@CExecRequest@@QEAAXPEAV1@@Z
  ?SetOffline@CWbemInstallObject@@SAX_N@Z="C:\Windows\System32\wbemcomn".?SetOffline@CWbemInstallObject@@SAX_N@Z
  ?SetOverflowIdleTimeout@CExecQueue@@QEAAXK@Z="C:\Windows\System32\wbemcomn".?SetOverflowIdleTimeout@CExecQueue@@QEAAXK@Z
  ?SetOwner@CNtSecurityDescriptor@@QEAAHPEAVCNtSid@@@Z="C:\Windows\System32\wbemcomn".?SetOwner@CNtSecurityDescriptor@@QEAAHPEAVCNtSid@@@Z
  ?SetPersistentCfgValue@CPersistentConfig@@QEAAHKK@Z="C:\Windows\System32\wbemcomn".?SetPersistentCfgValue@CPersistentConfig@@QEAAHKK@Z
  ?SetPreferredLanguages@CMUILocale@@SAJKPEBGPEAK@Z="C:\Windows\System32\wbemcomn".?SetPreferredLanguages@CMUILocale@@SAJKPEBGPEAK@Z
  ?SetPriority@CExecRequest@@QEAAXJ@Z="C:\Windows\System32\wbemcomn".?SetPriority@CExecRequest@@QEAAXJ@Z
  ?SetQWORD@Registry@@QEAAHPEBG_K@Z="C:\Windows\System32\wbemcomn".?SetQWORD@Registry@@QEAAHPEBG_K@Z
  ?SetRaw@CVar@@QEAAXHPEAXH@Z="C:\Windows\System32\wbemcomn".?SetRaw@CVar@@QEAAXHPEAXH@Z
  ?SetRawArrayBinding@CVarVector@@QEAAXH@Z="C:\Windows\System32\wbemcomn".?SetRawArrayBinding@CVarVector@@QEAAXH@Z
  ?SetRawArrayData@CVarVector@@QEAAJPEAXHH@Z="C:\Windows\System32\wbemcomn".?SetRawArrayData@CVarVector@@QEAAJPEAXHH@Z
  ?SetRawArrayMaxElement@CSafeArray@@QEAAXH@Z="C:\Windows\System32\wbemcomn".?SetRawArrayMaxElement@CSafeArray@@QEAAXH@Z
  ?SetRawArraySize@CVarVector@@QEAAHH@Z="C:\Windows\System32\wbemcomn".?SetRawArraySize@CVarVector@@QEAAHH@Z
  ?SetRawData@CSafeArray@@QEAAHPEAXHH@Z="C:\Windows\System32\wbemcomn".?SetRawData@CSafeArray@@QEAAHPEAXHH@Z
  ?SetRegistryPathCIMOM@CWbemInstallObject@@SAXPEBG@Z="C:\Windows\System32\wbemcomn".?SetRegistryPathCIMOM@CWbemInstallObject@@SAXPEBG@Z
  ?SetRegistryPathWbem@CWbemInstallObject@@SAXPEBG@Z="C:\Windows\System32\wbemcomn".?SetRegistryPathWbem@CWbemInstallObject@@SAXPEBG@Z
  ?SetRepositoryFolder@CWbemInstallObject@@SAXPEBG@Z="C:\Windows\System32\wbemcomn".?SetRepositoryFolder@CWbemInstallObject@@SAXPEBG@Z
  ?SetRequestLimits@CExecQueue@@QEAAXJJJ@Z="C:\Windows\System32\wbemcomn".?SetRequestLimits@CExecQueue@@QEAAXJJJ@Z
  ?SetSacl@CNtSecurityDescriptor@@QEAAHPEAVCNtAcl@@@Z="C:\Windows\System32\wbemcomn".?SetSacl@CNtSecurityDescriptor@@QEAAHPEAVCNtAcl@@@Z
  ?SetSafeArray@CVar@@QEAAXHPEAUtagSAFEARRAY@@@Z="C:\Windows\System32\wbemcomn".?SetSafeArray@CVar@@QEAAXHPEAUtagSAFEARRAY@@@Z
  ?SetScalarAt@CSafeArray@@AEAAHHTSA_ArrayScalar@@@Z="C:\Windows\System32\wbemcomn".?SetScalarAt@CSafeArray@@AEAAHHTSA_ArrayScalar@@@Z
  ?SetShort@CVar@@QEAAXF@Z="C:\Windows\System32\wbemcomn".?SetShort@CVar@@QEAAXF@Z
  ?SetShortAt@CSafeArray@@QEAAHHF@Z="C:\Windows\System32\wbemcomn".?SetShortAt@CSafeArray@@QEAAHHF@Z
  ?SetSize@CBuffer@@QEAAJK@Z="C:\Windows\System32\wbemcomn".?SetSize@CBuffer@@QEAAJK@Z
  ?SetSize@CBuffer@@UEAAJT_ULARGE_INTEGER@@@Z="C:\Windows\System32\wbemcomn".?SetSize@CBuffer@@UEAAJT_ULARGE_INTEGER@@@Z
  ?SetSize@CFlexArray@@QEAAXH@Z="C:\Windows\System32\wbemcomn".?SetSize@CFlexArray@@QEAAXH@Z
  ?SetSleepAtMax@CMinMaxLimitControl@@QEAAXK@Z="C:\Windows\System32\wbemcomn".?SetSleepAtMax@CMinMaxLimitControl@@QEAAXK@Z
  ?SetStr@Registry@@QEAAHPEBG0@Z="C:\Windows\System32\wbemcomn".?SetStr@Registry@@QEAAHPEBG0@Z
  ?SetSystemTime@CWbemTime@@QEAAHAEBU_SYSTEMTIME@@@Z="C:\Windows\System32\wbemcomn".?SetSystemTime@CWbemTime@@QEAAHAEBU_SYSTEMTIME@@@Z
  ?SetTemplate@CTextTemplate@@QEAAXPEBG@Z="C:\Windows\System32\wbemcomn".?SetTemplate@CTextTemplate@@QEAAXPEBG@Z
  ?SetThreadLimits@CExecQueue@@QEAAXJJJ@Z="C:\Windows\System32\wbemcomn".?SetThreadLimits@CExecQueue@@QEAAXJJJ@Z
  ?SetTolerance@QL_LEVEL_1_RPN_EXPRESSION@@UEAAXAEBU_tag_WbemQl1Tolerance@@@Z="C:\Windows\System32\wbemcomn".?SetTolerance@QL_LEVEL_1_RPN_EXPRESSION@@UEAAXAEBU_tag_WbemQl1Tolerance@@@Z
  ?SetTraceLevel@CWMITraceSettings@@QEAAXE@Z="C:\Windows\System32\wbemcomn".?SetTraceLevel@CWMITraceSettings@@QEAAXE@Z
  ?SetUnknown@CVar@@QEAAXPEAUIUnknown@@@Z="C:\Windows\System32\wbemcomn".?SetUnknown@CVar@@QEAAXPEAUIUnknown@@@Z
  ?SetUnknownAt@CSafeArray@@QEAAHHPEAUIUnknown@@@Z="C:\Windows\System32\wbemcomn".?SetUnknownAt@CSafeArray@@QEAAHHPEAUIUnknown@@@Z
  ?SetVarVector@CVar@@QEAAXPEAVCVarVector@@H@Z="C:\Windows\System32\wbemcomn".?SetVarVector@CVar@@QEAAXPEAVCVarVector@@H@Z
  ?SetVariant@CVar@@QEAAHPEAUtagVARIANT@@H@Z="C:\Windows\System32\wbemcomn".?SetVariant@CVar@@QEAAHPEAUtagVARIANT@@H@Z
  ?SetVariantAt@CSafeArray@@QEAAHHPEAUtagVARIANT@@@Z="C:\Windows\System32\wbemcomn".?SetVariantAt@CSafeArray@@QEAAHHPEAUtagVARIANT@@@Z
  ?SetWhenDoneHandle@CExecRequest@@QEAAXPEAX@Z="C:\Windows\System32\wbemcomn".?SetWhenDoneHandle@CExecRequest@@QEAAXPEAX@Z
  ?SetWord@CVar@@QEAAXG@Z="C:\Windows\System32\wbemcomn".?SetWord@CVar@@QEAAXG@Z
  ?Shrink@CSmallArrayBlob@@IEAAPEAV1@XZ="C:\Windows\System32\wbemcomn".?Shrink@CSmallArrayBlob@@IEAAPEAV1@XZ
  ?ShrinkIfNeeded@CSmallArrayBlob@@IEAAPEAV1@XZ="C:\Windows\System32\wbemcomn".?ShrinkIfNeeded@CSmallArrayBlob@@IEAAPEAV1@XZ
  ?Shutdown@CExecQueue@@QEAAXXZ="C:\Windows\System32\wbemcomn".?Shutdown@CExecQueue@@QEAAXXZ
  ?Shutdown@CTimerGenerator@@UEAAJXZ="C:\Windows\System32\wbemcomn".?Shutdown@CTimerGenerator@@UEAAJXZ
  ?Shutdown@CWbemInstallObject@@SAXXZ="C:\Windows\System32\wbemcomn".?Shutdown@CWbemInstallObject@@SAXXZ
  ?ShutdownThread@CExecQueue@@MEAAXPEAVCThreadRecord@1@@Z="C:\Windows\System32\wbemcomn".?ShutdownThread@CExecQueue@@MEAAXPEAVCThreadRecord@1@@Z
  ?SitOutPenalty@CExecQueue@@MEAAXJ@Z="C:\Windows\System32\wbemcomn".?SitOutPenalty@CExecQueue@@MEAAXJ@Z
  ?Size@CFlexArray@@QEBAHXZ="C:\Windows\System32\wbemcomn".?Size@CFlexArray@@QEBAHXZ
  ?Size@CSafeArray@@QEAAHXZ="C:\Windows\System32\wbemcomn".?Size@CSafeArray@@QEAAHXZ
  ?Size@CSmallArrayBlob@@QEBAHXZ="C:\Windows\System32\wbemcomn".?Size@CSmallArrayBlob@@QEBAHXZ
  ?Size@CVarVector@@QEAAHXZ="C:\Windows\System32\wbemcomn".?Size@CVarVector@@QEAAHXZ
  ?Size@CWStringArray@@QEBAHXZ="C:\Windows\System32\wbemcomn".?Size@CWStringArray@@QEBAHXZ
  ?Sort@CFlexArray@@QEAAXXZ="C:\Windows\System32\wbemcomn".?Sort@CFlexArray@@QEAAXXZ
  ?Sort@CSmallArrayBlob@@QEAAXXZ="C:\Windows\System32\wbemcomn".?Sort@CSmallArrayBlob@@QEAAXXZ
  ?Sort@CWStringArray@@QEAAXXZ="C:\Windows\System32\wbemcomn".?Sort@CWStringArray@@QEAAXXZ
  ?Start@CTraceSessionControl@@SAKPEBU_GUID@@PEAVCWMITraceSettings@@@Z="C:\Windows\System32\wbemcomn".?Start@CTraceSessionControl@@SAKPEBU_GUID@@PEAVCWMITraceSettings@@@Z
  ?Stat@CBuffer@@UEAAJPEAUtagSTATSTG@@K@Z="C:\Windows\System32\wbemcomn".?Stat@CBuffer@@UEAAJPEAUtagSTATSTG@@K@Z
  ?Status@CSafeArray@@QEAAHXZ="C:\Windows\System32\wbemcomn".?Status@CSafeArray@@QEAAHXZ
  ?Status@CVar@@QEAAHXZ="C:\Windows\System32\wbemcomn".?Status@CVar@@QEAAHXZ
  ?Status@CVarVector@@QEAAHXZ="C:\Windows\System32\wbemcomn".?Status@CVarVector@@QEAAHXZ
  ?StripToToken@WString2@@QEAAAEAV1@GH@Z="C:\Windows\System32\wbemcomn".?StripToToken@WString2@@QEAAAEAV1@GH@Z
  ?StripToToken@WString@@QEAAAEAV1@GH@Z="C:\Windows\System32\wbemcomn".?StripToToken@WString@@QEAAAEAV1@GH@Z
  ?StripWhereClause@CWQLScanner@@AEAAHXZ="C:\Windows\System32\wbemcomn".?StripWhereClause@CWQLScanner@@AEAAHXZ
  ?StripWs@WString2@@QEAAAEAV1@H@Z="C:\Windows\System32\wbemcomn".?StripWs@WString2@@QEAAAEAV1@H@Z
  ?StripWs@WString@@QEAAAEAV1@H@Z="C:\Windows\System32\wbemcomn".?StripWs@WString@@QEAAAEAV1@H@Z
  ?SwitchRow@CLike@@AEAAX_KAEAPEAE1@Z="C:\Windows\System32\wbemcomn".?SwitchRow@CLike@@AEAAX_KAEAPEAE1@Z
  ?Terminate@CBasicUnloadInstruction@@QEAAXXZ="C:\Windows\System32\wbemcomn".?Terminate@CBasicUnloadInstruction@@QEAAXXZ
  ?ThreadMain@CExecQueue@@MEAAXPEAVCThreadRecord@1@@Z="C:\Windows\System32\wbemcomn".?ThreadMain@CExecQueue@@MEAAXPEAVCThreadRecord@1@@Z
  ?TimeFormat1@CDateTimeParser@@IEAAHPEBGH@Z="C:\Windows\System32\wbemcomn".?TimeFormat1@CDateTimeParser@@IEAAHPEBGH@Z
  ?TimeFormat2@CDateTimeParser@@IEAAHPEBGH@Z="C:\Windows\System32\wbemcomn".?TimeFormat2@CDateTimeParser@@IEAAHPEBGH@Z
  ?TimeFormat3@CDateTimeParser@@IEAAHPEBGH@Z="C:\Windows\System32\wbemcomn".?TimeFormat3@CDateTimeParser@@IEAAHPEBGH@Z
  ?TimeFormat4@CDateTimeParser@@IEAAHPEBGH@Z="C:\Windows\System32\wbemcomn".?TimeFormat4@CDateTimeParser@@IEAAHPEBGH@Z
  ?TimeFormat5@CDateTimeParser@@IEAAHPEBGH@Z="C:\Windows\System32\wbemcomn".?TimeFormat5@CDateTimeParser@@IEAAHPEBGH@Z
  ?TimeFormat6@CDateTimeParser@@IEAAHPEBGH@Z="C:\Windows\System32\wbemcomn".?TimeFormat6@CDateTimeParser@@IEAAHPEBGH@Z
  ?TimeFormat7@CDateTimeParser@@IEAAHPEBGH@Z="C:\Windows\System32\wbemcomn".?TimeFormat7@CDateTimeParser@@IEAAHPEBGH@Z
  ?TimeFormat8@CDateTimeParser@@IEAAHPEBGH@Z="C:\Windows\System32\wbemcomn".?TimeFormat8@CDateTimeParser@@IEAAHPEBGH@Z
  ?TimeFormat9@CDateTimeParser@@IEAAHPEBGH@Z="C:\Windows\System32\wbemcomn".?TimeFormat9@CDateTimeParser@@IEAAHPEBGH@Z
  ?TimeToWait@CInstructionQueue@@IEAA?AVCWbemInterval@@XZ="C:\Windows\System32\wbemcomn".?TimeToWait@CInstructionQueue@@IEAA?AVCWbemInterval@@XZ
  ?ToSingleChar@CVar@@QEAAHXZ="C:\Windows\System32\wbemcomn".?ToSingleChar@CVar@@QEAAHXZ
  ?ToSingleChar@CVarVector@@QEAAHXZ="C:\Windows\System32\wbemcomn".?ToSingleChar@CVarVector@@QEAAHXZ
  ?ToUI4@CVar@@QEAAHXZ="C:\Windows\System32\wbemcomn".?ToUI4@CVar@@QEAAHXZ
  ?ToUI4@CVarVector@@QEAAHXZ="C:\Windows\System32\wbemcomn".?ToUI4@CVarVector@@QEAAHXZ
  ?TouchHead@CInstructionQueue@@IEAAXXZ="C:\Windows\System32\wbemcomn".?TouchHead@CInstructionQueue@@IEAAXXZ
  ?Transform@MD5@@SAXPEAXIQEAE@Z="C:\Windows\System32\wbemcomn".?Transform@MD5@@SAXPEAXIQEAE@Z
  ?Transform@SHA256@@SAXPEAXIQEAE@Z="C:\Windows\System32\wbemcomn".?Transform@SHA256@@SAXPEAXIQEAE@Z
  ?TranslateIntrinsic@CAbstractQl1Parser@@KAKPEBG@Z="C:\Windows\System32\wbemcomn".?TranslateIntrinsic@CAbstractQl1Parser@@KAKPEBG@Z
  ?Trim@CFlexArray@@QEAAXXZ="C:\Windows\System32\wbemcomn".?Trim@CFlexArray@@QEAAXXZ
  ?Trim@CSafeArray@@QEAAHXZ="C:\Windows\System32\wbemcomn".?Trim@CSafeArray@@QEAAHXZ
  ?Trim@CSmallArrayBlob@@QEAAXXZ="C:\Windows\System32\wbemcomn".?Trim@CSmallArrayBlob@@QEAAXXZ
  ?TruncAtLToken@WString2@@QEAAAEAV1@G@Z="C:\Windows\System32\wbemcomn".?TruncAtLToken@WString2@@QEAAAEAV1@G@Z
  ?TruncAtLToken@WString@@QEAAAEAV1@G@Z="C:\Windows\System32\wbemcomn".?TruncAtLToken@WString@@QEAAAEAV1@G@Z
  ?TruncAtRToken@WString2@@QEAAAEAV1@G@Z="C:\Windows\System32\wbemcomn".?TruncAtRToken@WString2@@QEAAAEAV1@G@Z
  ?TruncAtRToken@WString@@QEAAAEAV1@G@Z="C:\Windows\System32\wbemcomn".?TruncAtRToken@WString@@QEAAAEAV1@G@Z
  ?TypeToText@CVar@@SAPEAGH@Z="C:\Windows\System32\wbemcomn".?TypeToText@CVar@@SAPEAGH@Z
  ?Unaccess@CSafeArray@@QEAAJXZ="C:\Windows\System32\wbemcomn".?Unaccess@CSafeArray@@QEAAJXZ
  ?UnaccessRawArray@CVarVector@@QEAAJXZ="C:\Windows\System32\wbemcomn".?UnaccessRawArray@CVarVector@@QEAAJXZ
  ?UnbindPtr@CFlexArray@@QEAAPEAPEAXXZ="C:\Windows\System32\wbemcomn".?UnbindPtr@CFlexArray@@QEAAPEAPEAXXZ
  ?UnbindPtr@WString2@@QEAAPEAGXZ="C:\Windows\System32\wbemcomn".?UnbindPtr@WString2@@QEAAPEAGXZ
  ?UnbindPtr@WString@@QEAAPEAGXZ="C:\Windows\System32\wbemcomn".?UnbindPtr@WString@@QEAAPEAGXZ
  ?UnblockedWaitForSingleObject@CExecQueue@@MEAAKPEAXKPEAVCThreadRecord@1@@Z="C:\Windows\System32\wbemcomn".?UnblockedWaitForSingleObject@CExecQueue@@MEAAKPEAXKPEAVCThreadRecord@1@@Z
  ?UncompressBuffer@CMRCICompression@@QEAAIPEAEK0KW4CompressionLevel@1@@Z="C:\Windows\System32\wbemcomn".?UncompressBuffer@CMRCICompression@@QEAAIPEAEK0KW4CompressionLevel@1@@Z
  ?UncompressFile@CMRCICompression@@QEAAHPEBG0@Z="C:\Windows\System32\wbemcomn".?UncompressFile@CMRCICompression@@QEAAHPEBG0@Z
  ?UncompressFileV1@CMRCICompression@@IEAAHHH@Z="C:\Windows\System32\wbemcomn".?UncompressFileV1@CMRCICompression@@IEAAHHH@Z
  ?UninitializeThread@CExecQueue@@MEAAXXZ="C:\Windows\System32\wbemcomn".?UninitializeThread@CExecQueue@@MEAAXXZ
  ?Union@CWStringArray@@SAXAEAV1@00@Z="C:\Windows\System32\wbemcomn".?Union@CWStringArray@@SAXAEAV1@00@Z
  ?Unlock@?$CLockableFlexArray@VCStaticCritSec@@@@QEAAXXZ="C:\Windows\System32\wbemcomn".?Unlock@?$CLockableFlexArray@VCStaticCritSec@@@@QEAAXXZ
  ?Unlock@CClientOpsNode@@QEAAXXZ="C:\Windows\System32\wbemcomn".?Unlock@CClientOpsNode@@QEAAXXZ
  ?UnlockRegion@CBuffer@@UEAAJT_ULARGE_INTEGER@@0K@Z="C:\Windows\System32\wbemcomn".?UnlockRegion@CBuffer@@UEAAJT_ULARGE_INTEGER@@0K@Z
  ?Unqueue@CFlexQueue@@QEAAPEAXXZ="C:\Windows\System32\wbemcomn".?Unqueue@CFlexQueue@@QEAAPEAXXZ
  ?Unquote@WString2@@QEAAXXZ="C:\Windows\System32\wbemcomn".?Unquote@WString2@@QEAAXXZ
  ?Unquote@WString@@QEAAXXZ="C:\Windows\System32\wbemcomn".?Unquote@WString@@QEAAXXZ
  ?UnregisterCMIFlushRepositoryCacheHook@CWbemInstallObject@@SAXXZ="C:\Windows\System32\wbemcomn".?UnregisterCMIFlushRepositoryCacheHook@CWbemInstallObject@@SAXXZ
  ?UpdateChildren@CClientOpsNode@@AEAAXPEAV1@@Z="C:\Windows\System32\wbemcomn".?UpdateChildren@CClientOpsNode@@AEAAXPEAV1@@Z
  ?ValidateMemSize@CWin32DefaultArena@@SAHH@Z="C:\Windows\System32\wbemcomn".?ValidateMemSize@CWin32DefaultArena@@SAHH@Z
  ?WaitAndPeek@CInstructionQueue@@QEAAJAEAPEAVCTimerInstruction@@AEAVCWbemTime@@@Z="C:\Windows\System32\wbemcomn".?WaitAndPeek@CInstructionQueue@@QEAAJAEAPEAVCTimerInstruction@@AEAVCWbemTime@@@Z
  ?WaitForResumption@CHaltable@@QEAAJXZ="C:\Windows\System32\wbemcomn".?WaitForResumption@CHaltable@@QEAAJXZ
  ?WaitForSingleObjectWhileBusy@CExecQueue@@MEAAKPEAXKPEAVCThreadRecord@1@@Z="C:\Windows\System32\wbemcomn".?WaitForSingleObjectWhileBusy@CExecQueue@@MEAAKPEAXKPEAVCThreadRecord@1@@Z
  ?WbemHeapFree@CWin32DefaultArena@@SAXXZ="C:\Windows\System32\wbemcomn".?WbemHeapFree@CWin32DefaultArena@@SAXXZ
  ?WbemHeapInitialize@CWin32DefaultArena@@SAHPEAX@Z="C:\Windows\System32\wbemcomn".?WbemHeapInitialize@CWin32DefaultArena@@SAHPEAX@Z
  ?WbemMemAlloc@CWin32DefaultArena@@SAPEAX_K@Z="C:\Windows\System32\wbemcomn".?WbemMemAlloc@CWin32DefaultArena@@SAPEAX_K@Z
  ?WbemMemFree@CWin32DefaultArena@@SAHPEAX@Z="C:\Windows\System32\wbemcomn".?WbemMemFree@CWin32DefaultArena@@SAHPEAX@Z
  ?WbemMemReAlloc@CWin32DefaultArena@@SAPEAXPEAX_K@Z="C:\Windows\System32\wbemcomn".?WbemMemReAlloc@CWin32DefaultArena@@SAPEAXPEAX_K@Z
  ?WbemMemSize@CWin32DefaultArena@@SA_KPEAX@Z="C:\Windows\System32\wbemcomn".?WbemMemSize@CWin32DefaultArena@@SA_KPEAX@Z
  ?WbemOutOfMemory@CWin32DefaultArena@@SAHXZ="C:\Windows\System32\wbemcomn".?WbemOutOfMemory@CWin32DefaultArena@@SAHXZ
  ?WbemSysAllocString@CWin32DefaultArena@@SAPEAGPEBG@Z="C:\Windows\System32\wbemcomn".?WbemSysAllocString@CWin32DefaultArena@@SAPEAGPEBG@Z
  ?WbemSysAllocStringByteLen@CWin32DefaultArena@@SAPEAGPEBDI@Z="C:\Windows\System32\wbemcomn".?WbemSysAllocStringByteLen@CWin32DefaultArena@@SAPEAGPEBDI@Z
  ?WbemSysAllocStringLen@CWin32DefaultArena@@SAPEAGPEBGI@Z="C:\Windows\System32\wbemcomn".?WbemSysAllocStringLen@CWin32DefaultArena@@SAPEAGPEBGI@Z
  ?WbemSysFreeString@CWin32DefaultArena@@SAXPEAG@Z="C:\Windows\System32\wbemcomn".?WbemSysFreeString@CWin32DefaultArena@@SAXPEAG@Z
  ?WbemSysReAllocString@CWin32DefaultArena@@SAHPEAPEAGPEBG@Z="C:\Windows\System32\wbemcomn".?WbemSysReAllocString@CWin32DefaultArena@@SAHPEAPEAGPEBG@Z
  ?WbemSysReAllocStringLen@CWin32DefaultArena@@SAHPEAPEAGPEBGI@Z="C:\Windows\System32\wbemcomn".?WbemSysReAllocStringLen@CWin32DefaultArena@@SAHPEAPEAGPEBGI@Z
  ?WildcardTest@WString@@QEBAHPEBG@Z="C:\Windows\System32\wbemcomn".?WildcardTest@WString@@QEBAHPEBG@Z
  ?Write@CBuffer@@UEAAJPEBXKPEAK@Z="C:\Windows\System32\wbemcomn".?Write@CBuffer@@UEAAJPEBXKPEAK@Z
  ?Write@CMemoryLog@@QEAAXJ@Z="C:\Windows\System32\wbemcomn".?Write@CMemoryLog@@QEAAXJ@Z
  ?Write@CMemoryLog@@QEAAXPEAXK@Z="C:\Windows\System32\wbemcomn".?Write@CMemoryLog@@QEAAXPEAXK@Z
  ?WriteLPWSTR@CBuffer@@QEAAJPEBG@Z="C:\Windows\System32\wbemcomn".?WriteLPWSTR@CBuffer@@QEAAJPEBG@Z
  ?WriteToRegistry@CWMITraceSettings@@QEAAKPEBG@Z="C:\Windows\System32\wbemcomn".?WriteToRegistry@CWMITraceSettings@@QEAAKPEBG@Z
  ?_Alloc@CMUILocale@@SAPEAX_K@Z="C:\Windows\System32\wbemcomn".?_Alloc@CMUILocale@@SAPEAX_K@Z
  ?_Free@CMUILocale@@SAHPEAX@Z="C:\Windows\System32\wbemcomn".?_Free@CMUILocale@@SAHPEAX@Z
  ?_GetSystemDefaultLocale@CMUILocale@@SAJPEAPEAGK@Z="C:\Windows\System32\wbemcomn".?_GetSystemDefaultLocale@CMUILocale@@SAJPEAPEAGK@Z
  ?_GetSystemDefaultLocaleName@CMUILocale@@SAJPEAPEAG@Z="C:\Windows\System32\wbemcomn".?_GetSystemDefaultLocaleName@CMUILocale@@SAJPEAPEAG@Z
  ?_GetThreadPreferredUILanguages@CMUILocale@@SAJKPEAKPEAG0@Z="C:\Windows\System32\wbemcomn".?_GetThreadPreferredUILanguages@CMUILocale@@SAJKPEAKPEAG0@Z
  ?_LCIDToLocaleName@CMUILocale@@SAJKPEAGHK@Z="C:\Windows\System32\wbemcomn".?_LCIDToLocaleName@CMUILocale@@SAJKPEAGHK@Z
  ?_LocaleNameToLCID@CMUILocale@@SAJPEAGKPEAK@Z="C:\Windows\System32\wbemcomn".?_LocaleNameToLCID@CMUILocale@@SAJPEAGKPEAK@Z
  ?_RetrieveSidFromCall@CIdentitySecurity@@AEAAJAEAVCNtSid@@@Z="C:\Windows\System32\wbemcomn".?_RetrieveSidFromCall@CIdentitySecurity@@AEAAJAEAVCNtSid@@@Z
  ?_SetThreadPreferredUILanguages@CMUILocale@@SAJKPEBGPEAK@Z="C:\Windows\System32\wbemcomn".?_SetThreadPreferredUILanguages@CMUILocale@@SAJKPEBGPEAK@Z
  ?_ThreadEntry@CExecQueue@@KAKPEAX@Z="C:\Windows\System32\wbemcomn".?_ThreadEntry@CExecQueue@@KAKPEAX@Z
  ?aggregate_by@CAbstractQl1Parser@@IEAAHXZ="C:\Windows\System32\wbemcomn".?aggregate_by@CAbstractQl1Parser@@IEAAHXZ
  ?aggregate_within@CAbstractQl1Parser@@IEAAHXZ="C:\Windows\System32\wbemcomn".?aggregate_within@CAbstractQl1Parser@@IEAAHXZ
  ?aggregation_params@CAbstractQl1Parser@@IEAAHXZ="C:\Windows\System32\wbemcomn".?aggregation_params@CAbstractQl1Parser@@IEAAHXZ
  ?anyFailed_@CStaticCritSec@@0HA="C:\Windows\System32\wbemcomn".?anyFailed_@CStaticCritSec@@0HA
  ?anyFailure@CStaticCritSec@@SAHXZ="C:\Windows\System32\wbemcomn".?anyFailure@CStaticCritSec@@SAHXZ
  ?charbuf@CBaseMrciCompression@@AEAAXI@Z="C:\Windows\System32\wbemcomn".?charbuf@CBaseMrciCompression@@AEAAXI@Z
  ?class_name@CAbstractQl1Parser@@IEAAHXZ="C:\Windows\System32\wbemcomn".?class_name@CAbstractQl1Parser@@IEAAHXZ
  ?comp_operator@CAbstractQl1Parser@@IEAAHXZ="C:\Windows\System32\wbemcomn".?comp_operator@CAbstractQl1Parser@@IEAAHXZ
  ?equiv_operator@CAbstractQl1Parser@@IEAAHXZ="C:\Windows\System32\wbemcomn".?equiv_operator@CAbstractQl1Parser@@IEAAHXZ
  ?expandstring@CBaseMrciCompression@@AEAAXPEAPEAEII@Z="C:\Windows\System32\wbemcomn".?expandstring@CBaseMrciCompression@@AEAAXPEAPEAEII@Z
  ?expr2@CAbstractQl1Parser@@IEAAHXZ="C:\Windows\System32\wbemcomn".?expr2@CAbstractQl1Parser@@IEAAHXZ
  ?expr@CAbstractQl1Parser@@IEAAHXZ="C:\Windows\System32\wbemcomn".?expr@CAbstractQl1Parser@@IEAAHXZ
  ?finalize@CAbstractQl1Parser@@IEAAHXZ="C:\Windows\System32\wbemcomn".?finalize@CAbstractQl1Parser@@IEAAHXZ
  ?getbit@CBaseMrciCompression@@AEAAIXZ="C:\Windows\System32\wbemcomn".?getbit@CBaseMrciCompression@@AEAAIXZ
  ?getbits@CBaseMrciCompression@@AEAAII@Z="C:\Windows\System32\wbemcomn".?getbits@CBaseMrciCompression@@AEAAII@Z
  ?inithash@CBaseMrciCompression@@AEAAXXZ="C:\Windows\System32\wbemcomn".?inithash@CBaseMrciCompression@@AEAAXXZ
  ?isValid@CHaltable@@QEAA_NXZ="C:\Windows\System32\wbemcomn".?isValid@CHaltable@@QEAA_NXZ
  ?is_operator@CAbstractQl1Parser@@IEAAHXZ="C:\Windows\System32\wbemcomn".?is_operator@CAbstractQl1Parser@@IEAAHXZ
  ?leading_ident_expr@CAbstractQl1Parser@@IEAAHXZ="C:\Windows\System32\wbemcomn".?leading_ident_expr@CAbstractQl1Parser@@IEAAHXZ
  ?m_bOffline@CWbemInstallObject@@0_NA="C:\Windows\System32\wbemcomn".?m_bOffline@CWbemInstallObject@@0_NA
  ?m_csFunctionPointers@CMUILocale@@0VCCritSec@@A="C:\Windows\System32\wbemcomn".?m_csFunctionPointers@CMUILocale@@0VCCritSec@@A
  ?m_csFunctionPointers@CPublishWMIOperationEvent@@0VCCritSec@@A="C:\Windows\System32\wbemcomn".?m_csFunctionPointers@CPublishWMIOperationEvent@@0VCCritSec@@A
  ?m_csGlobal@CClientOpsNode@@0VCCritSec@@A="C:\Windows\System32\wbemcomn".?m_csGlobal@CClientOpsNode@@0VCCritSec@@A
  ?m_fEventActivityIdControl@CPublishWMIOperationEvent@@2P6AKKPEAU_GUID@@@ZEA="C:\Windows\System32\wbemcomn".?m_fEventActivityIdControl@CPublishWMIOperationEvent@@2P6AKKPEAU_GUID@@@ZEA
  ?m_fEventEnabled@CPublishWMIOperationEvent@@0P6AE_KPEBU_EVENT_DESCRIPTOR@@@ZEA="C:\Windows\System32\wbemcomn".?m_fEventEnabled@CPublishWMIOperationEvent@@0P6AE_KPEBU_EVENT_DESCRIPTOR@@@ZEA
  ?m_fEventRegister@CPublishWMIOperationEvent@@0P6AKPEBU_GUID@@P6AX0KE_K1PEAU_EVENT_FILTER_DESCRIPTOR@@PEAX@Z3PEA_K@ZEA="C:\Windows\System32\wbemcomn".?m_fEventRegister@CPublishWMIOperationEvent@@0P6AKPEBU_GUID@@P6AX0KE_K1PEAU_EVENT_FILTER_DESCRIPTOR@@PEAX@Z3PEA_K@ZEA
  ?m_fEventUnregister@CPublishWMIOperationEvent@@0P6AK_K@ZEA="C:\Windows\System32\wbemcomn".?m_fEventUnregister@CPublishWMIOperationEvent@@0P6AK_K@ZEA
  ?m_fEventWrite@CPublishWMIOperationEvent@@0P6AK_KPEAU_EVENT_DESCRIPTOR@@KPEAU_EVENT_DATA_DESCRIPTOR@@@ZEA="C:\Windows\System32\wbemcomn".?m_fEventWrite@CPublishWMIOperationEvent@@0P6AK_KPEAU_EVENT_DESCRIPTOR@@KPEAU_EVENT_DATA_DESCRIPTOR@@@ZEA
  ?m_fEventWriteTransfer@CPublishWMIOperationEvent@@2P6AK_KPEBU_EVENT_DESCRIPTOR@@PEBU_GUID@@2KPEAU_EVENT_DATA_DESCRIPTOR@@@ZEA="C:\Windows\System32\wbemcomn".?m_fEventWriteTransfer@CPublishWMIOperationEvent@@2P6AK_KPEBU_EVENT_DESCRIPTOR@@PEBU_GUID@@2KPEAU_EVENT_DATA_DESCRIPTOR@@@ZEA
  ?m_fGetLocaleInfoEx@CMUILocale@@0PEAXEA="C:\Windows\System32\wbemcomn".?m_fGetLocaleInfoEx@CMUILocale@@0PEAXEA
  ?m_fGetSystemDefaultLocaleName@CMUILocale@@0PEAXEA="C:\Windows\System32\wbemcomn".?m_fGetSystemDefaultLocaleName@CMUILocale@@0PEAXEA
  ?m_fGetThreadPreferredUILanguages@CMUILocale@@0PEAXEA="C:\Windows\System32\wbemcomn".?m_fGetThreadPreferredUILanguages@CMUILocale@@0PEAXEA
  ?m_fLCIDToLocaleName@CMUILocale@@0PEAXEA="C:\Windows\System32\wbemcomn".?m_fLCIDToLocaleName@CMUILocale@@0PEAXEA
  ?m_fLocaleNameToLCID@CMUILocale@@0PEAXEA="C:\Windows\System32\wbemcomn".?m_fLocaleNameToLCID@CMUILocale@@0PEAXEA
  ?m_fSetThreadPreferredUILanguages@CMUILocale@@0PEAXEA="C:\Windows\System32\wbemcomn".?m_fSetThreadPreferredUILanguages@CMUILocale@@0PEAXEA
  ?m_hAdvAPI32@CPublishWMIOperationEvent@@0PEAUHINSTANCE__@@EA="C:\Windows\System32\wbemcomn".?m_hAdvAPI32@CPublishWMIOperationEvent@@0PEAUHINSTANCE__@@EA
  ?m_hKernel32@CMUILocale@@0PEAUHINSTANCE__@@EA="C:\Windows\System32\wbemcomn".?m_hKernel32@CMUILocale@@0PEAUHINSTANCE__@@EA
  ?m_pEnvironmentMap@CWbemInstallObject@@0PEAV?$map@PEBGPEBGU?$SZLess@PEBG@@V?$wbem_allocator@PEBG@@@std@@EA="C:\Windows\System32\wbemcomn".?m_pEnvironmentMap@CWbemInstallObject@@0PEAV?$map@PEBGPEBGU?$SZLess@PEBG@@V?$wbem_allocator@PEBG@@@std@@EA
  ?m_pfFlushCache@CWbemInstallObject@@0P6AJH@ZEA="C:\Windows\System32\wbemcomn".?m_pfFlushCache@CWbemInstallObject@@0P6AJH@ZEA
  ?m_publisher@CPublishWMIOperationEvent@@2_KA="C:\Windows\System32\wbemcomn".?m_publisher@CPublishWMIOperationEvent@@2_KA
  ?m_pwszAutoRecoverPath@CWbemInstallObject@@0PEBGEB="C:\Windows\System32\wbemcomn".?m_pwszAutoRecoverPath@CWbemInstallObject@@0PEBGEB
  ?m_pwszBinaryPath@CWbemInstallObject@@0PEBGEB="C:\Windows\System32\wbemcomn".?m_pwszBinaryPath@CWbemInstallObject@@0PEBGEB
  ?m_pwszRegistryPathCIMOM@CWbemInstallObject@@0PEBGEB="C:\Windows\System32\wbemcomn".?m_pwszRegistryPathCIMOM@CWbemInstallObject@@0PEBGEB
  ?m_pwszRegistryPathWbem@CWbemInstallObject@@0PEBGEB="C:\Windows\System32\wbemcomn".?m_pwszRegistryPathWbem@CWbemInstallObject@@0PEBGEB
  ?m_pwszRepositoryPath@CWbemInstallObject@@0PEBGEB="C:\Windows\System32\wbemcomn".?m_pwszRepositoryPath@CWbemInstallObject@@0PEBGEB
  ?m_rgClsidDllMap@CWbemInstallObject@@0PAUClsidDllMapping@@A="C:\Windows\System32\wbemcomn".?m_rgClsidDllMap@CWbemInstallObject@@0PAUClsidDllMapping@@A
  ?m_rgDllModules@CWbemInstallObject@@0PAUDllModuleHandle@@A="C:\Windows\System32\wbemcomn".?m_rgDllModules@CWbemInstallObject@@0PAUDllModuleHandle@@A
  ?mrci1outsingle@CBaseMrciCompression@@AEAAXI@Z="C:\Windows\System32\wbemcomn".?mrci1outsingle@CBaseMrciCompression@@AEAAXI@Z
  ?mrci1outstring@CBaseMrciCompression@@AEAAXII@Z="C:\Windows\System32\wbemcomn".?mrci1outstring@CBaseMrciCompression@@AEAAXII@Z
  ?mrci2outsingle@CBaseMrciCompression@@AEAAXI@Z="C:\Windows\System32\wbemcomn".?mrci2outsingle@CBaseMrciCompression@@AEAAXI@Z
  ?mrci2outstring@CBaseMrciCompression@@AEAAXII@Z="C:\Windows\System32\wbemcomn".?mrci2outstring@CBaseMrciCompression@@AEAAXII@Z
  ?ms_XXX_Locale_From_LCID@CMUILocale@@SAJKPEAPEAG@Z="C:\Windows\System32\wbemcomn".?ms_XXX_Locale_From_LCID@CMUILocale@@SAJKPEAPEAG@Z
  ?ms_XXX_Locale_To_LCID@CMUILocale@@SAJPEBGPEAK@Z="C:\Windows\System32\wbemcomn".?ms_XXX_Locale_To_LCID@CMUILocale@@SAJPEBGPEAK@Z
  ?mstatic_lNumInits@CExecQueue@@1JA="C:\Windows\System32\wbemcomn".?mstatic_lNumInits@CExecQueue@@1JA
  ?opt_aggregation@CAbstractQl1Parser@@IEAAHXZ="C:\Windows\System32\wbemcomn".?opt_aggregation@CAbstractQl1Parser@@IEAAHXZ
  ?opt_having@CAbstractQl1Parser@@IEAAHXZ="C:\Windows\System32\wbemcomn".?opt_having@CAbstractQl1Parser@@IEAAHXZ
  ?opt_where@CAbstractQl1Parser@@IEAAHXZ="C:\Windows\System32\wbemcomn".?opt_where@CAbstractQl1Parser@@IEAAHXZ
  ?outlength@CBaseMrciCompression@@AEAAXI@Z="C:\Windows\System32\wbemcomn".?outlength@CBaseMrciCompression@@AEAAXI@Z
  ?parse@CAbstractQl1Parser@@IEAAHH@Z="C:\Windows\System32\wbemcomn".?parse@CAbstractQl1Parser@@IEAAHH@Z
  ?parse_property_name@CAbstractQl1Parser@@IEAAHAEAVCPropertyName@@@Z="C:\Windows\System32\wbemcomn".?parse_property_name@CAbstractQl1Parser@@IEAAHAEAVCPropertyName@@@Z
  ?prop_list@CAbstractQl1Parser@@IEAAHXZ="C:\Windows\System32\wbemcomn".?prop_list@CAbstractQl1Parser@@IEAAHXZ
  ?prop_list_2@CAbstractQl1Parser@@IEAAHXZ="C:\Windows\System32\wbemcomn".?prop_list_2@CAbstractQl1Parser@@IEAAHXZ
  ?property_name@CAbstractQl1Parser@@IEAAHXZ="C:\Windows\System32\wbemcomn".?property_name@CAbstractQl1Parser@@IEAAHXZ
  ?putbits@CBaseMrciCompression@@AEAAXII@Z="C:\Windows\System32\wbemcomn".?putbits@CBaseMrciCompression@@AEAAXII@Z
  ?rel_operator@CAbstractQl1Parser@@IEAAHXZ="C:\Windows\System32\wbemcomn".?rel_operator@CAbstractQl1Parser@@IEAAHXZ
  ?sMatachedWithOneChar@CLike@@0EB="C:\Windows\System32\wbemcomn".?sMatachedWithOneChar@CLike@@0EB
  ?sMatachedWithWildcardChar@CLike@@0EB="C:\Windows\System32\wbemcomn".?sMatachedWithWildcardChar@CLike@@0EB
  ?sNoMatch@CLike@@0EB="C:\Windows\System32\wbemcomn".?sNoMatch@CLike@@0EB
  ?simple_expr@CAbstractQl1Parser@@IEAAHXZ="C:\Windows\System32\wbemcomn".?simple_expr@CAbstractQl1Parser@@IEAAHXZ
  ?staticRead@CBasicUnloadInstruction@@SA?AVCWbemInterval@@PEAUIWbemServices@@PEAUIWbemContext@@PEBG@Z="C:\Windows\System32\wbemcomn".?staticRead@CBasicUnloadInstruction@@SA?AVCWbemInterval@@PEAUIWbemServices@@PEAUIWbemContext@@PEBG@Z
  ?term2@CAbstractQl1Parser@@IEAAHXZ="C:\Windows\System32\wbemcomn".?term2@CAbstractQl1Parser@@IEAAHXZ
  ?term@CAbstractQl1Parser@@IEAAHXZ="C:\Windows\System32\wbemcomn".?term@CAbstractQl1Parser@@IEAAHXZ
  ?tolerance@CAbstractQl1Parser@@IEAAHXZ="C:\Windows\System32\wbemcomn".?tolerance@CAbstractQl1Parser@@IEAAHXZ
  ?trailing_const_expr@CAbstractQl1Parser@@IEAAHXZ="C:\Windows\System32\wbemcomn".?trailing_const_expr@CAbstractQl1Parser@@IEAAHXZ
  ?trailing_ident_expr@CAbstractQl1Parser@@IEAAHXZ="C:\Windows\System32\wbemcomn".?trailing_ident_expr@CAbstractQl1Parser@@IEAAHXZ
  ?trailing_or_null@CAbstractQl1Parser@@IEAAHXZ="C:\Windows\System32\wbemcomn".?trailing_or_null@CAbstractQl1Parser@@IEAAHXZ
  ?trailing_prop_expr@CAbstractQl1Parser@@IEAAHXZ="C:\Windows\System32\wbemcomn".?trailing_prop_expr@CAbstractQl1Parser@@IEAAHXZ
  ?typed_constant@CAbstractQl1Parser@@IEAAHXZ="C:\Windows\System32\wbemcomn".?typed_constant@CAbstractQl1Parser@@IEAAHXZ
  AdjustPrivIfLocalSystem="C:\Windows\System32\wbemcomn".AdjustPrivIfLocalSystem
  BlobAssign="C:\Windows\System32\wbemcomn".BlobAssign
  BlobClear="C:\Windows\System32\wbemcomn".BlobClear
  BlobCopy="C:\Windows\System32\wbemcomn".BlobCopy
  BreakOnDbgAndRenterLoop="C:\Windows\System32\wbemcomn".BreakOnDbgAndRenterLoop
  BuildOperationInfo="C:\Windows\System32\wbemcomn".BuildOperationInfo
  BuildSecurityDescriptorParameter="C:\Windows\System32\wbemcomn".BuildSecurityDescriptorParameter
  ChangeVariantToCIMTYPE="C:\Windows\System32\wbemcomn".ChangeVariantToCIMTYPE
  ComposeName="C:\Windows\System32\wbemcomn".ComposeName
  CopyFileToAutorecover="C:\Windows\System32\wbemcomn".CopyFileToAutorecover
  CriticalFailADAPTrace="C:\Windows\System32\wbemcomn".CriticalFailADAPTrace
  DebugTrace="C:\Windows\System32\wbemcomn".DebugTrace
  DumpClientOps="C:\Windows\System32\wbemcomn".DumpClientOps
  EnableAllPrivileges="C:\Windows\System32\wbemcomn".EnableAllPrivileges
  EnablePrivilege="C:\Windows\System32\wbemcomn".EnablePrivilege
  ErrorTrace="C:\Windows\System32\wbemcomn".ErrorTrace
  ExtractMachineName="C:\Windows\System32\wbemcomn".ExtractMachineName
  GetAccessToken="C:\Windows\System32\wbemcomn".GetAccessToken
  GetFQDN_Ipv4="C:\Windows\System32\wbemcomn".GetFQDN_Ipv4
  GetGlobalClientOps="C:\Windows\System32\wbemcomn".GetGlobalClientOps
  GetLoggingLevelEnabled="C:\Windows\System32\wbemcomn".GetLoggingLevelEnabled
  GetMemLogObject="C:\Windows\System32\wbemcomn".GetMemLogObject
  GetQFDN_Ipv6="C:\Windows\System32\wbemcomn".GetQFDN_Ipv6
  GetSecurityDescriptorFromParameters="C:\Windows\System32\wbemcomn".GetSecurityDescriptorFromParameters
  GetWMIADAPCmdLine="C:\Windows\System32\wbemcomn".GetWMIADAPCmdLine
  GetWMITraceSession="C:\Windows\System32\wbemcomn".GetWMITraceSession
  Get_WPP_INIT_TRACING_Call_State="C:\Windows\System32\wbemcomn".Get_WPP_INIT_TRACING_Call_State
  IsAdmin="C:\Windows\System32\wbemcomn".IsAdmin
  IsInAdminGroup="C:\Windows\System32\wbemcomn".IsInAdminGroup
  IsLocalConnection="C:\Windows\System32\wbemcomn".IsLocalConnection
  IsLocalService="C:\Windows\System32\wbemcomn".IsLocalService
  IsNT="C:\Windows\System32\wbemcomn".IsNT
  IsNetworkService="C:\Windows\System32\wbemcomn".IsNetworkService
  IsNtSetupRunning="C:\Windows\System32\wbemcomn".IsNtSetupRunning
  IsPrivilegePresent="C:\Windows\System32\wbemcomn".IsPrivilegePresent
  IsValidElementName="C:\Windows\System32\wbemcomn".IsValidElementName
  IsValidElementName2="C:\Windows\System32\wbemcomn".IsValidElementName2
  IsW2KOrMore="C:\Windows\System32\wbemcomn".IsW2KOrMore
  LoggingLevelEnabled="C:\Windows\System32\wbemcomn".LoggingLevelEnabled
  NormalizeCimDateTime="C:\Windows\System32\wbemcomn".NormalizeCimDateTime
  ReadI64="C:\Windows\System32\wbemcomn".ReadI64
  ReadUI64="C:\Windows\System32\wbemcomn".ReadUI64
  RegisterDLL="C:\Windows\System32\wbemcomn".RegisterDLL
  RegisterDllAppid="C:\Windows\System32\wbemcomn".RegisterDllAppid
  RemoveFileFromAutoRecoverFolder="C:\Windows\System32\wbemcomn".RemoveFileFromAutoRecoverFolder
  RetrieveSidFromCall="C:\Windows\System32\wbemcomn".RetrieveSidFromCall
  RetrieveSidFromToken="C:\Windows\System32\wbemcomn".RetrieveSidFromToken
  SetObjectAccess2="C:\Windows\System32\wbemcomn".SetObjectAccess2
  SetWMITraceSession="C:\Windows\System32\wbemcomn".SetWMITraceSession
  Set_WPP_INIT_TRACING_Call_State="C:\Windows\System32\wbemcomn".Set_WPP_INIT_TRACING_Call_State
  TestDirExistAndCreateWithSDIfNotThere="C:\Windows\System32\wbemcomn".TestDirExistAndCreateWithSDIfNotThere
  Throttle="C:\Windows\System32\wbemcomn".Throttle
  UnRegisterDLL="C:\Windows\System32\wbemcomn".UnRegisterDLL
  UnregisterDllAppid="C:\Windows\System32\wbemcomn".UnregisterDllAppid
  WMIControlCallback="C:\Windows\System32\wbemcomn".WMIControlCallback
  WMIControlClientOpsCallback="C:\Windows\System32\wbemcomn".WMIControlClientOpsCallback
  WbemGetMachineShutdown="C:\Windows\System32\wbemcomn".WbemGetMachineShutdown
  WbemSetDynamicCloaking="C:\Windows\System32\wbemcomn".WbemSetDynamicCloaking
  WbemSetMachineShutdown="C:\Windows\System32\wbemcomn".WbemSetMachineShutdown
  WbemVariantChangeType="C:\Windows\System32\wbemcomn".WbemVariantChangeType
  WinPEKey="C:\Windows\System32\wbemcomn".WinPEKey
  _DoTraceHRFailure_="C:\Windows\System32\wbemcomn"._DoTraceHRFailure_
  _IsValidElementName="C:\Windows\System32\wbemcomn"._IsValidElementName
  _ThrowMemoryException_="C:\Windows\System32\wbemcomn"._ThrowMemoryException_
  bAreWeLocal="C:\Windows\System32\wbemcomn".bAreWeLocal
  isunialpha="C:\Windows\System32\wbemcomn".isunialpha
  isunialphanum="C:\Windows\System32\wbemcomn".isunialphanum
  mstatic_dwTlsIndex="C:\Windows\System32\wbemcomn".mstatic_dwTlsIndex
