EXPORTS
  ??0?$AutoCleanup@V?$AutoDeleteVector@E@@PEAE@@QEAA@PEAE@Z="C:\Windows\System32\WsmAuto".??0?$AutoCleanup@V?$AutoDeleteVector@E@@PEAE@@QEAA@PEAE@Z
  ??0?$AutoCleanup@V?$AutoDeleteVector@G@@PEAG@@QEAA@PEAG@Z="C:\Windows\System32\WsmAuto".??0?$AutoCleanup@V?$AutoDeleteVector@G@@PEAG@@QEAA@PEAG@Z
  ??0?$AutoCleanup@V?$AutoFree@E@@PEAE@@QEAA@PEAE@Z="C:\Windows\System32\WsmAuto".??0?$AutoCleanup@V?$AutoFree@E@@PEAE@@QEAA@PEAE@Z
  ??0?$AutoCleanup@V?$AutoRelease@VCRequestContext@@@@PEAVCRequestContext@@@@QEAA@PEAVCRequestContext@@@Z="C:\Windows\System32\WsmAuto".??0?$AutoCleanup@V?$AutoRelease@VCRequestContext@@@@PEAVCRequestContext@@@@QEAA@PEAVCRequestContext@@@Z
  ??0?$AutoCleanup@V?$AutoRelease@VCWSManSecurityUI@@@@PEAVCWSManSecurityUI@@@@QEAA@PEAVCWSManSecurityUI@@@Z="C:\Windows\System32\WsmAuto".??0?$AutoCleanup@V?$AutoRelease@VCWSManSecurityUI@@@@PEAVCWSManSecurityUI@@@@QEAA@PEAVCWSManSecurityUI@@@Z
  ??0?$AutoCleanup@VAutoBstr@@PEAG@@QEAA@PEAG@Z="C:\Windows\System32\WsmAuto".??0?$AutoCleanup@VAutoBstr@@PEAG@@QEAA@PEAG@Z
  ??0?$AutoCleanup@VAutoBstr@@PEAG@@QEAA@XZ="C:\Windows\System32\WsmAuto".??0?$AutoCleanup@VAutoBstr@@PEAG@@QEAA@XZ
  ??0?$AutoCleanup@VAutoBstrNoAlloc@@PEAG@@QEAA@PEAG@Z="C:\Windows\System32\WsmAuto".??0?$AutoCleanup@VAutoBstrNoAlloc@@PEAG@@QEAA@PEAG@Z
  ??0?$AutoCleanup@VAutoBstrNoAlloc@@PEAG@@QEAA@XZ="C:\Windows\System32\WsmAuto".??0?$AutoCleanup@VAutoBstrNoAlloc@@PEAG@@QEAA@XZ
  ??0?$AutoCleanup@VAutoCertContext@@PEBU_CERT_CONTEXT@@@@QEAA@PEBU_CERT_CONTEXT@@@Z="C:\Windows\System32\WsmAuto".??0?$AutoCleanup@VAutoCertContext@@PEBU_CERT_CONTEXT@@@@QEAA@PEBU_CERT_CONTEXT@@@Z
  ??0?$AutoCleanup@VAutoCertContext@@PEBU_CERT_CONTEXT@@@@QEAA@XZ="C:\Windows\System32\WsmAuto".??0?$AutoCleanup@VAutoCertContext@@PEBU_CERT_CONTEXT@@@@QEAA@XZ
  ??0?$AutoCleanup@VAutoChainContext@@PEBU_CERT_CHAIN_CONTEXT@@@@QEAA@PEBU_CERT_CHAIN_CONTEXT@@@Z="C:\Windows\System32\WsmAuto".??0?$AutoCleanup@VAutoChainContext@@PEBU_CERT_CHAIN_CONTEXT@@@@QEAA@PEBU_CERT_CHAIN_CONTEXT@@@Z
  ??0?$AutoCleanup@VAutoChainContext@@PEBU_CERT_CHAIN_CONTEXT@@@@QEAA@XZ="C:\Windows\System32\WsmAuto".??0?$AutoCleanup@VAutoChainContext@@PEBU_CERT_CHAIN_CONTEXT@@@@QEAA@XZ
  ??0?$AutoCleanup@VAutoCoTaskMemFree@@PEAX@@QEAA@PEAX@Z="C:\Windows\System32\WsmAuto".??0?$AutoCleanup@VAutoCoTaskMemFree@@PEAX@@QEAA@PEAX@Z
  ??0?$AutoCleanup@VAutoCoTaskMemFree@@PEAX@@QEAA@XZ="C:\Windows\System32\WsmAuto".??0?$AutoCleanup@VAutoCoTaskMemFree@@PEAX@@QEAA@XZ
  ??0?$AutoCleanup@VAutoFwXmlCloseParser@@PEAX@@QEAA@PEAX@Z="C:\Windows\System32\WsmAuto".??0?$AutoCleanup@VAutoFwXmlCloseParser@@PEAX@@QEAA@PEAX@Z
  ??0?$AutoCleanup@VAutoFwXmlCloseParser@@PEAX@@QEAA@XZ="C:\Windows\System32\WsmAuto".??0?$AutoCleanup@VAutoFwXmlCloseParser@@PEAX@@QEAA@XZ
  ??0?$AutoCleanup@VAutoHandle@@PEAX@@QEAA@PEAX@Z="C:\Windows\System32\WsmAuto".??0?$AutoCleanup@VAutoHandle@@PEAX@@QEAA@PEAX@Z
  ??0?$AutoCleanup@VAutoHandle@@PEAX@@QEAA@XZ="C:\Windows\System32\WsmAuto".??0?$AutoCleanup@VAutoHandle@@PEAX@@QEAA@XZ
  ??0?$AutoCleanup@VAutoImpersonateUser@@PEAX@@QEAA@PEAX@Z="C:\Windows\System32\WsmAuto".??0?$AutoCleanup@VAutoImpersonateUser@@PEAX@@QEAA@PEAX@Z
  ??0?$AutoCleanup@VAutoImpersonateUser@@PEAX@@QEAA@XZ="C:\Windows\System32\WsmAuto".??0?$AutoCleanup@VAutoImpersonateUser@@PEAX@@QEAA@XZ
  ??0?$AutoCleanup@VAutoLibrary@@PEAUHINSTANCE__@@@@QEAA@PEAUHINSTANCE__@@@Z="C:\Windows\System32\WsmAuto".??0?$AutoCleanup@VAutoLibrary@@PEAUHINSTANCE__@@@@QEAA@PEAUHINSTANCE__@@@Z
  ??0?$AutoCleanup@VAutoLibrary@@PEAUHINSTANCE__@@@@QEAA@XZ="C:\Windows\System32\WsmAuto".??0?$AutoCleanup@VAutoLibrary@@PEAUHINSTANCE__@@@@QEAA@XZ
  ??0?$AutoCleanup@VAutoLocalFree@@PEAX@@QEAA@PEAX@Z="C:\Windows\System32\WsmAuto".??0?$AutoCleanup@VAutoLocalFree@@PEAX@@QEAA@PEAX@Z
  ??0?$AutoCleanup@VAutoLocalFree@@PEAX@@QEAA@XZ="C:\Windows\System32\WsmAuto".??0?$AutoCleanup@VAutoLocalFree@@PEAX@@QEAA@XZ
  ??0?$AutoCleanup@VAutoMIClass@@PEAU_MI_Class@@@@QEAA@PEAU_MI_Class@@@Z="C:\Windows\System32\WsmAuto".??0?$AutoCleanup@VAutoMIClass@@PEAU_MI_Class@@@@QEAA@PEAU_MI_Class@@@Z
  ??0?$AutoCleanup@VAutoMIClass@@PEAU_MI_Class@@@@QEAA@XZ="C:\Windows\System32\WsmAuto".??0?$AutoCleanup@VAutoMIClass@@PEAU_MI_Class@@@@QEAA@XZ
  ??0?$AutoCleanup@VAutoMIInstance@@PEAU_MI_Instance@@@@QEAA@PEAU_MI_Instance@@@Z="C:\Windows\System32\WsmAuto".??0?$AutoCleanup@VAutoMIInstance@@PEAU_MI_Instance@@@@QEAA@PEAU_MI_Instance@@@Z
  ??0?$AutoCleanup@VAutoMIInstance@@PEAU_MI_Instance@@@@QEAA@XZ="C:\Windows\System32\WsmAuto".??0?$AutoCleanup@VAutoMIInstance@@PEAU_MI_Instance@@@@QEAA@XZ
  ??0?$AutoCleanup@VAutoObject@@PEAUWSMAN_OBJECT@@@@QEAA@PEAUWSMAN_OBJECT@@@Z="C:\Windows\System32\WsmAuto".??0?$AutoCleanup@VAutoObject@@PEAUWSMAN_OBJECT@@@@QEAA@PEAUWSMAN_OBJECT@@@Z
  ??0?$AutoCleanup@VAutoObject@@PEAUWSMAN_OBJECT@@@@QEAA@XZ="C:\Windows\System32\WsmAuto".??0?$AutoCleanup@VAutoObject@@PEAUWSMAN_OBJECT@@@@QEAA@XZ
  ??0?$AutoCleanup@VAutoRegKey@@PEAUHKEY__@@@@QEAA@PEAUHKEY__@@@Z="C:\Windows\System32\WsmAuto".??0?$AutoCleanup@VAutoRegKey@@PEAUHKEY__@@@@QEAA@PEAUHKEY__@@@Z
  ??0?$AutoCleanup@VAutoRegKey@@PEAUHKEY__@@@@QEAA@XZ="C:\Windows\System32\WsmAuto".??0?$AutoCleanup@VAutoRegKey@@PEAUHKEY__@@@@QEAA@XZ
  ??0?$AutoCleanup@VAutoSecurityDescriptor@@PEAX@@QEAA@PEAX@Z="C:\Windows\System32\WsmAuto".??0?$AutoCleanup@VAutoSecurityDescriptor@@PEAX@@QEAA@PEAX@Z
  ??0?$AutoCleanup@VAutoSecurityDescriptor@@PEAX@@QEAA@XZ="C:\Windows\System32\WsmAuto".??0?$AutoCleanup@VAutoSecurityDescriptor@@PEAX@@QEAA@XZ
  ??0?$AutoCleanup@VAutoWaitHandle@@PEAX@@QEAA@PEAX@Z="C:\Windows\System32\WsmAuto".??0?$AutoCleanup@VAutoWaitHandle@@PEAX@@QEAA@PEAX@Z
  ??0?$AutoCleanup@VAutoWaitHandle@@PEAX@@QEAA@XZ="C:\Windows\System32\WsmAuto".??0?$AutoCleanup@VAutoWaitHandle@@PEAX@@QEAA@XZ
  ??0?$AutoDeleteVector@E@@QEAA@XZ="C:\Windows\System32\WsmAuto".??0?$AutoDeleteVector@E@@QEAA@XZ
  ??0?$AutoDeleteVector@G@@QEAA@PEAG@Z="C:\Windows\System32\WsmAuto".??0?$AutoDeleteVector@G@@QEAA@PEAG@Z
  ??0?$AutoDeleteVector@G@@QEAA@XZ="C:\Windows\System32\WsmAuto".??0?$AutoDeleteVector@G@@QEAA@XZ
  ??0?$AutoFree@E@@QEAA@PEAE@Z="C:\Windows\System32\WsmAuto".??0?$AutoFree@E@@QEAA@PEAE@Z
  ??0?$AutoRelease@VCRequestContext@@@@QEAA@PEAVCRequestContext@@@Z="C:\Windows\System32\WsmAuto".??0?$AutoRelease@VCRequestContext@@@@QEAA@PEAVCRequestContext@@@Z
  ??0?$AutoRelease@VCWSManSecurityUI@@@@QEAA@XZ="C:\Windows\System32\WsmAuto".??0?$AutoRelease@VCWSManSecurityUI@@@@QEAA@XZ
  ??0?$SafeMap@VKey@Locale@@KV?$SafeMap_Iterator@VKey@Locale@@K@@@@QEAA@XZ="C:\Windows\System32\WsmAuto".??0?$SafeMap@VKey@Locale@@KV?$SafeMap_Iterator@VKey@Locale@@K@@@@QEAA@XZ
  ??0?$SafeMap_Iterator@VKey@Locale@@K@@QEAA@AEAV?$SafeMap@VKey@Locale@@KV?$SafeMap_Iterator@VKey@Locale@@K@@@@_N@Z="C:\Windows\System32\WsmAuto".??0?$SafeMap_Iterator@VKey@Locale@@K@@QEAA@AEAV?$SafeMap@VKey@Locale@@KV?$SafeMap_Iterator@VKey@Locale@@K@@@@_N@Z
  ??0?$SafeMap_Lock@VKey@Locale@@KV?$SafeMap_Iterator@VKey@Locale@@K@@@@QEAA@AEBV?$SafeMap@VKey@Locale@@KV?$SafeMap_Iterator@VKey@Locale@@K@@@@_N@Z="C:\Windows\System32\WsmAuto".??0?$SafeMap_Lock@VKey@Locale@@KV?$SafeMap_Iterator@VKey@Locale@@K@@@@QEAA@AEBV?$SafeMap@VKey@Locale@@KV?$SafeMap_Iterator@VKey@Locale@@K@@@@_N@Z
  ??0?$SimpleQueue@T_LARGE_INTEGER@@@@QEAA@XZ="C:\Windows\System32\WsmAuto".??0?$SimpleQueue@T_LARGE_INTEGER@@@@QEAA@XZ
  ??0AutoBstr@@QEAA@PEAG@Z="C:\Windows\System32\WsmAuto".??0AutoBstr@@QEAA@PEAG@Z
  ??0AutoBstr@@QEAA@XZ="C:\Windows\System32\WsmAuto".??0AutoBstr@@QEAA@XZ
  ??0AutoBstrNoAlloc@@QEAA@PEAG@Z="C:\Windows\System32\WsmAuto".??0AutoBstrNoAlloc@@QEAA@PEAG@Z
  ??0AutoBstrNoAlloc@@QEAA@XZ="C:\Windows\System32\WsmAuto".??0AutoBstrNoAlloc@@QEAA@XZ
  ??0AutoCertContext@@QEAA@PEBU_CERT_CONTEXT@@@Z="C:\Windows\System32\WsmAuto".??0AutoCertContext@@QEAA@PEBU_CERT_CONTEXT@@@Z
  ??0AutoCertContext@@QEAA@XZ="C:\Windows\System32\WsmAuto".??0AutoCertContext@@QEAA@XZ
  ??0AutoChainContext@@QEAA@PEBU_CERT_CHAIN_CONTEXT@@@Z="C:\Windows\System32\WsmAuto".??0AutoChainContext@@QEAA@PEBU_CERT_CHAIN_CONTEXT@@@Z
  ??0AutoChainContext@@QEAA@XZ="C:\Windows\System32\WsmAuto".??0AutoChainContext@@QEAA@XZ
  ??0AutoCoTaskMemFree@@QEAA@PEAX@Z="C:\Windows\System32\WsmAuto".??0AutoCoTaskMemFree@@QEAA@PEAX@Z
  ??0AutoCoTaskMemFree@@QEAA@XZ="C:\Windows\System32\WsmAuto".??0AutoCoTaskMemFree@@QEAA@XZ
  ??0AutoFwXmlCloseParser@@QEAA@PEAX@Z="C:\Windows\System32\WsmAuto".??0AutoFwXmlCloseParser@@QEAA@PEAX@Z
  ??0AutoFwXmlCloseParser@@QEAA@XZ="C:\Windows\System32\WsmAuto".??0AutoFwXmlCloseParser@@QEAA@XZ
  ??0AutoHandle@@QEAA@PEAX@Z="C:\Windows\System32\WsmAuto".??0AutoHandle@@QEAA@PEAX@Z
  ??0AutoHandle@@QEAA@XZ="C:\Windows\System32\WsmAuto".??0AutoHandle@@QEAA@XZ
  ??0AutoImpersonateUser@@QEAA@PEAX@Z="C:\Windows\System32\WsmAuto".??0AutoImpersonateUser@@QEAA@PEAX@Z
  ??0AutoImpersonateUser@@QEAA@XZ="C:\Windows\System32\WsmAuto".??0AutoImpersonateUser@@QEAA@XZ
  ??0AutoLibrary@@QEAA@PEAUHINSTANCE__@@@Z="C:\Windows\System32\WsmAuto".??0AutoLibrary@@QEAA@PEAUHINSTANCE__@@@Z
  ??0AutoLibrary@@QEAA@XZ="C:\Windows\System32\WsmAuto".??0AutoLibrary@@QEAA@XZ
  ??0AutoLocalFree@@QEAA@PEAX@Z="C:\Windows\System32\WsmAuto".??0AutoLocalFree@@QEAA@PEAX@Z
  ??0AutoLocalFree@@QEAA@XZ="C:\Windows\System32\WsmAuto".??0AutoLocalFree@@QEAA@XZ
  ??0AutoMIClass@@QEAA@PEAU_MI_Class@@@Z="C:\Windows\System32\WsmAuto".??0AutoMIClass@@QEAA@PEAU_MI_Class@@@Z
  ??0AutoMIClass@@QEAA@XZ="C:\Windows\System32\WsmAuto".??0AutoMIClass@@QEAA@XZ
  ??0AutoMIInstance@@QEAA@PEAU_MI_Instance@@@Z="C:\Windows\System32\WsmAuto".??0AutoMIInstance@@QEAA@PEAU_MI_Instance@@@Z
  ??0AutoMIInstance@@QEAA@XZ="C:\Windows\System32\WsmAuto".??0AutoMIInstance@@QEAA@XZ
  ??0AutoObject@@QEAA@PEAUWSMAN_OBJECT@@@Z="C:\Windows\System32\WsmAuto".??0AutoObject@@QEAA@PEAUWSMAN_OBJECT@@@Z
  ??0AutoObject@@QEAA@XZ="C:\Windows\System32\WsmAuto".??0AutoObject@@QEAA@XZ
  ??0AutoRegKey@@QEAA@PEAUHKEY__@@@Z="C:\Windows\System32\WsmAuto".??0AutoRegKey@@QEAA@PEAUHKEY__@@@Z
  ??0AutoRegKey@@QEAA@XZ="C:\Windows\System32\WsmAuto".??0AutoRegKey@@QEAA@XZ
  ??0AutoSecurityDescriptor@@QEAA@PEAX@Z="C:\Windows\System32\WsmAuto".??0AutoSecurityDescriptor@@QEAA@PEAX@Z
  ??0AutoSecurityDescriptor@@QEAA@XZ="C:\Windows\System32\WsmAuto".??0AutoSecurityDescriptor@@QEAA@XZ
  ??0AutoWaitHandle@@QEAA@PEAX@Z="C:\Windows\System32\WsmAuto".??0AutoWaitHandle@@QEAA@PEAX@Z
  ??0AutoWaitHandle@@QEAA@XZ="C:\Windows\System32\WsmAuto".??0AutoWaitHandle@@QEAA@XZ
  ??0BufferFormatter@@QEAA@PEAEK@Z="C:\Windows\System32\WsmAuto".??0BufferFormatter@@QEAA@PEAEK@Z
  ??0BufferFormatter@@QEAA@XZ="C:\Windows\System32\WsmAuto".??0BufferFormatter@@QEAA@XZ
  ??0CWSManResource@@QEAA@H@Z="C:\Windows\System32\WsmAuto".??0CWSManResource@@QEAA@H@Z
  ??0ChildLifeTimeManager@@QEAA@AEBV0@@Z="C:\Windows\System32\WsmAuto".??0ChildLifeTimeManager@@QEAA@AEBV0@@Z
  ??0ChildLifeTimeManager@@QEAA@XZ="C:\Windows\System32\WsmAuto".??0ChildLifeTimeManager@@QEAA@XZ
  ??0CircularBufferFormatter@@QEAA@XZ="C:\Windows\System32\WsmAuto".??0CircularBufferFormatter@@QEAA@XZ
  ??0EtwCorrelationHelper@@QEAA@AEBV0@@Z="C:\Windows\System32\WsmAuto".??0EtwCorrelationHelper@@QEAA@AEBV0@@Z
  ??0FastLock@@QEAA@XZ="C:\Windows\System32\WsmAuto".??0FastLock@@QEAA@XZ
  ??0ILifeTimeMgmt@@QEAA@AEBV0@@Z="C:\Windows\System32\WsmAuto".??0ILifeTimeMgmt@@QEAA@AEBV0@@Z
  ??0ILifeTimeMgmt@@QEAA@XZ="C:\Windows\System32\WsmAuto".??0ILifeTimeMgmt@@QEAA@XZ
  ??0IRequestContext@@IEAA@XZ="C:\Windows\System32\WsmAuto".??0IRequestContext@@IEAA@XZ
  ??0OwnLock@@QEAA@AEAVFastLock@@@Z="C:\Windows\System32\WsmAuto".??0OwnLock@@QEAA@AEAVFastLock@@@Z
  ??0ShareLock@@QEAA@AEAVFastLock@@@Z="C:\Windows\System32\WsmAuto".??0ShareLock@@QEAA@AEAVFastLock@@@Z
  ??1?$AutoCleanup@V?$AutoDelete@G@@PEAG@@QEAA@XZ="C:\Windows\System32\WsmAuto".??1?$AutoCleanup@V?$AutoDelete@G@@PEAG@@QEAA@XZ
  ??1?$AutoCleanup@V?$AutoDeleteVector@E@@PEAE@@QEAA@XZ="C:\Windows\System32\WsmAuto".??1?$AutoCleanup@V?$AutoDeleteVector@E@@PEAE@@QEAA@XZ
  ??1?$AutoCleanup@V?$AutoDeleteVector@G@@PEAG@@QEAA@XZ="C:\Windows\System32\WsmAuto".??1?$AutoCleanup@V?$AutoDeleteVector@G@@PEAG@@QEAA@XZ
  ??1?$AutoCleanup@V?$AutoDeleteVector@PEBG@@PEAPEBG@@QEAA@XZ="C:\Windows\System32\WsmAuto".??1?$AutoCleanup@V?$AutoDeleteVector@PEBG@@PEAPEBG@@QEAA@XZ
  ??1?$AutoCleanup@V?$AutoDeleteVector@U_WSMAN_OPTION@@@@PEAU_WSMAN_OPTION@@@@QEAA@XZ="C:\Windows\System32\WsmAuto".??1?$AutoCleanup@V?$AutoDeleteVector@U_WSMAN_OPTION@@@@PEAU_WSMAN_OPTION@@@@QEAA@XZ
  ??1?$AutoCleanup@V?$AutoFree@E@@PEAE@@QEAA@XZ="C:\Windows\System32\WsmAuto".??1?$AutoCleanup@V?$AutoFree@E@@PEAE@@QEAA@XZ
  ??1?$AutoCleanup@V?$AutoRelease@VCRequestContext@@@@PEAVCRequestContext@@@@QEAA@XZ="C:\Windows\System32\WsmAuto".??1?$AutoCleanup@V?$AutoRelease@VCRequestContext@@@@PEAVCRequestContext@@@@QEAA@XZ
  ??1?$AutoCleanup@V?$AutoRelease@VCWSManSecurityUI@@@@PEAVCWSManSecurityUI@@@@QEAA@XZ="C:\Windows\System32\WsmAuto".??1?$AutoCleanup@V?$AutoRelease@VCWSManSecurityUI@@@@PEAVCWSManSecurityUI@@@@QEAA@XZ
  ??1?$AutoCleanup@VAutoBstr@@PEAG@@QEAA@XZ="C:\Windows\System32\WsmAuto".??1?$AutoCleanup@VAutoBstr@@PEAG@@QEAA@XZ
  ??1?$AutoCleanup@VAutoBstrNoAlloc@@PEAG@@QEAA@XZ="C:\Windows\System32\WsmAuto".??1?$AutoCleanup@VAutoBstrNoAlloc@@PEAG@@QEAA@XZ
  ??1?$AutoCleanup@VAutoCertContext@@PEBU_CERT_CONTEXT@@@@QEAA@XZ="C:\Windows\System32\WsmAuto".??1?$AutoCleanup@VAutoCertContext@@PEBU_CERT_CONTEXT@@@@QEAA@XZ
  ??1?$AutoCleanup@VAutoChainContext@@PEBU_CERT_CHAIN_CONTEXT@@@@QEAA@XZ="C:\Windows\System32\WsmAuto".??1?$AutoCleanup@VAutoChainContext@@PEBU_CERT_CHAIN_CONTEXT@@@@QEAA@XZ
  ??1?$AutoCleanup@VAutoCoTaskMemFree@@PEAX@@QEAA@XZ="C:\Windows\System32\WsmAuto".??1?$AutoCleanup@VAutoCoTaskMemFree@@PEAX@@QEAA@XZ
  ??1?$AutoCleanup@VAutoFwXmlCloseParser@@PEAX@@QEAA@XZ="C:\Windows\System32\WsmAuto".??1?$AutoCleanup@VAutoFwXmlCloseParser@@PEAX@@QEAA@XZ
  ??1?$AutoCleanup@VAutoHandle@@PEAX@@QEAA@XZ="C:\Windows\System32\WsmAuto".??1?$AutoCleanup@VAutoHandle@@PEAX@@QEAA@XZ
  ??1?$AutoCleanup@VAutoImpersonateUser@@PEAX@@QEAA@XZ="C:\Windows\System32\WsmAuto".??1?$AutoCleanup@VAutoImpersonateUser@@PEAX@@QEAA@XZ
  ??1?$AutoCleanup@VAutoLibrary@@PEAUHINSTANCE__@@@@QEAA@XZ="C:\Windows\System32\WsmAuto".??1?$AutoCleanup@VAutoLibrary@@PEAUHINSTANCE__@@@@QEAA@XZ
  ??1?$AutoCleanup@VAutoLocalFree@@PEAX@@QEAA@XZ="C:\Windows\System32\WsmAuto".??1?$AutoCleanup@VAutoLocalFree@@PEAX@@QEAA@XZ
  ??1?$AutoCleanup@VAutoMIClass@@PEAU_MI_Class@@@@QEAA@XZ="C:\Windows\System32\WsmAuto".??1?$AutoCleanup@VAutoMIClass@@PEAU_MI_Class@@@@QEAA@XZ
  ??1?$AutoCleanup@VAutoMIInstance@@PEAU_MI_Instance@@@@QEAA@XZ="C:\Windows\System32\WsmAuto".??1?$AutoCleanup@VAutoMIInstance@@PEAU_MI_Instance@@@@QEAA@XZ
  ??1?$AutoCleanup@VAutoObject@@PEAUWSMAN_OBJECT@@@@QEAA@XZ="C:\Windows\System32\WsmAuto".??1?$AutoCleanup@VAutoObject@@PEAUWSMAN_OBJECT@@@@QEAA@XZ
  ??1?$AutoCleanup@VAutoRegKey@@PEAUHKEY__@@@@QEAA@XZ="C:\Windows\System32\WsmAuto".??1?$AutoCleanup@VAutoRegKey@@PEAUHKEY__@@@@QEAA@XZ
  ??1?$AutoCleanup@VAutoSecurityDescriptor@@PEAX@@QEAA@XZ="C:\Windows\System32\WsmAuto".??1?$AutoCleanup@VAutoSecurityDescriptor@@PEAX@@QEAA@XZ
  ??1?$AutoCleanup@VAutoWaitHandle@@PEAX@@QEAA@XZ="C:\Windows\System32\WsmAuto".??1?$AutoCleanup@VAutoWaitHandle@@PEAX@@QEAA@XZ
  ??1?$AutoDelete@G@@QEAA@XZ="C:\Windows\System32\WsmAuto".??1?$AutoDelete@G@@QEAA@XZ
  ??1?$AutoDeleteVector@E@@QEAA@XZ="C:\Windows\System32\WsmAuto".??1?$AutoDeleteVector@E@@QEAA@XZ
  ??1?$AutoDeleteVector@G@@QEAA@XZ="C:\Windows\System32\WsmAuto".??1?$AutoDeleteVector@G@@QEAA@XZ
  ??1?$AutoDeleteVector@PEBG@@QEAA@XZ="C:\Windows\System32\WsmAuto".??1?$AutoDeleteVector@PEBG@@QEAA@XZ
  ??1?$AutoDeleteVector@U_WSMAN_OPTION@@@@QEAA@XZ="C:\Windows\System32\WsmAuto".??1?$AutoDeleteVector@U_WSMAN_OPTION@@@@QEAA@XZ
  ??1?$AutoFree@E@@QEAA@XZ="C:\Windows\System32\WsmAuto".??1?$AutoFree@E@@QEAA@XZ
  ??1?$AutoRelease@VCRequestContext@@@@QEAA@XZ="C:\Windows\System32\WsmAuto".??1?$AutoRelease@VCRequestContext@@@@QEAA@XZ
  ??1?$AutoRelease@VCWSManSecurityUI@@@@QEAA@XZ="C:\Windows\System32\WsmAuto".??1?$AutoRelease@VCWSManSecurityUI@@@@QEAA@XZ
  ??1?$SafeMap@VKey@Locale@@KV?$SafeMap_Iterator@VKey@Locale@@K@@@@QEAA@XZ="C:\Windows\System32\WsmAuto".??1?$SafeMap@VKey@Locale@@KV?$SafeMap_Iterator@VKey@Locale@@K@@@@QEAA@XZ
  ??1?$SafeMap_Iterator@VKey@Locale@@K@@QEAA@XZ="C:\Windows\System32\WsmAuto".??1?$SafeMap_Iterator@VKey@Locale@@K@@QEAA@XZ
  ??1?$SafeMap_Lock@VKey@Locale@@KV?$SafeMap_Iterator@VKey@Locale@@K@@@@QEAA@XZ="C:\Windows\System32\WsmAuto".??1?$SafeMap_Lock@VKey@Locale@@KV?$SafeMap_Iterator@VKey@Locale@@K@@@@QEAA@XZ
  ??1?$SimpleQueue@T_LARGE_INTEGER@@@@QEAA@XZ="C:\Windows\System32\WsmAuto".??1?$SimpleQueue@T_LARGE_INTEGER@@@@QEAA@XZ
  ??1AutoBstr@@QEAA@XZ="C:\Windows\System32\WsmAuto".??1AutoBstr@@QEAA@XZ
  ??1AutoBstrNoAlloc@@QEAA@XZ="C:\Windows\System32\WsmAuto".??1AutoBstrNoAlloc@@QEAA@XZ
  ??1AutoCertContext@@QEAA@XZ="C:\Windows\System32\WsmAuto".??1AutoCertContext@@QEAA@XZ
  ??1AutoChainContext@@QEAA@XZ="C:\Windows\System32\WsmAuto".??1AutoChainContext@@QEAA@XZ
  ??1AutoCoTaskMemFree@@QEAA@XZ="C:\Windows\System32\WsmAuto".??1AutoCoTaskMemFree@@QEAA@XZ
  ??1AutoFwXmlCloseParser@@QEAA@XZ="C:\Windows\System32\WsmAuto".??1AutoFwXmlCloseParser@@QEAA@XZ
  ??1AutoHandle@@QEAA@XZ="C:\Windows\System32\WsmAuto".??1AutoHandle@@QEAA@XZ
  ??1AutoImpersonateUser@@QEAA@XZ="C:\Windows\System32\WsmAuto".??1AutoImpersonateUser@@QEAA@XZ
  ??1AutoLibrary@@QEAA@XZ="C:\Windows\System32\WsmAuto".??1AutoLibrary@@QEAA@XZ
  ??1AutoLocalFree@@QEAA@XZ="C:\Windows\System32\WsmAuto".??1AutoLocalFree@@QEAA@XZ
  ??1AutoMIClass@@QEAA@XZ="C:\Windows\System32\WsmAuto".??1AutoMIClass@@QEAA@XZ
  ??1AutoMIInstance@@QEAA@XZ="C:\Windows\System32\WsmAuto".??1AutoMIInstance@@QEAA@XZ
  ??1AutoObject@@QEAA@XZ="C:\Windows\System32\WsmAuto".??1AutoObject@@QEAA@XZ
  ??1AutoRegKey@@QEAA@XZ="C:\Windows\System32\WsmAuto".??1AutoRegKey@@QEAA@XZ
  ??1AutoSecurityDescriptor@@QEAA@XZ="C:\Windows\System32\WsmAuto".??1AutoSecurityDescriptor@@QEAA@XZ
  ??1AutoWaitHandle@@QEAA@XZ="C:\Windows\System32\WsmAuto".??1AutoWaitHandle@@QEAA@XZ
  ??1BufferFormatter@@UEAA@XZ="C:\Windows\System32\WsmAuto".??1BufferFormatter@@UEAA@XZ
  ??1CWSManCriticalSectionWithConditionVar@@QEAA@XZ="C:\Windows\System32\WsmAuto".??1CWSManCriticalSectionWithConditionVar@@QEAA@XZ
  ??1CWSManResource@@UEAA@XZ="C:\Windows\System32\WsmAuto".??1CWSManResource@@UEAA@XZ
  ??1ChildLifeTimeManager@@QEAA@XZ="C:\Windows\System32\WsmAuto".??1ChildLifeTimeManager@@QEAA@XZ
  ??1CircularBufferFormatter@@UEAA@XZ="C:\Windows\System32\WsmAuto".??1CircularBufferFormatter@@UEAA@XZ
  ??1EtwCorrelationHelper@@UEAA@XZ="C:\Windows\System32\WsmAuto".??1EtwCorrelationHelper@@UEAA@XZ
  ??1ILifeTimeMgmt@@UEAA@XZ="C:\Windows\System32\WsmAuto".??1ILifeTimeMgmt@@UEAA@XZ
  ??1IRequestContext@@UEAA@XZ="C:\Windows\System32\WsmAuto".??1IRequestContext@@UEAA@XZ
  ??1OwnLock@@QEAA@XZ="C:\Windows\System32\WsmAuto".??1OwnLock@@QEAA@XZ
  ??1ShareLock@@QEAA@XZ="C:\Windows\System32\WsmAuto".??1ShareLock@@QEAA@XZ
  ??4?$AutoCleanup@V?$AutoDeleteVector@G@@PEAG@@QEAAAEAV?$AutoDeleteVector@G@@PEAG@Z="C:\Windows\System32\WsmAuto".??4?$AutoCleanup@V?$AutoDeleteVector@G@@PEAG@@QEAAAEAV?$AutoDeleteVector@G@@PEAG@Z
  ??4?$AutoCleanup@V?$AutoRelease@VCWSManSecurityUI@@@@PEAVCWSManSecurityUI@@@@QEAAAEAV?$AutoRelease@VCWSManSecurityUI@@@@PEAVCWSManSecurityUI@@@Z="C:\Windows\System32\WsmAuto".??4?$AutoCleanup@V?$AutoRelease@VCWSManSecurityUI@@@@PEAVCWSManSecurityUI@@@@QEAAAEAV?$AutoRelease@VCWSManSecurityUI@@@@PEAVCWSManSecurityUI@@@Z
  ??4?$AutoCleanup@VAutoBstr@@PEAG@@QEAAAEAVAutoBstr@@PEAG@Z="C:\Windows\System32\WsmAuto".??4?$AutoCleanup@VAutoBstr@@PEAG@@QEAAAEAVAutoBstr@@PEAG@Z
  ??4?$AutoCleanup@VAutoBstrNoAlloc@@PEAG@@QEAAAEAVAutoBstrNoAlloc@@PEAG@Z="C:\Windows\System32\WsmAuto".??4?$AutoCleanup@VAutoBstrNoAlloc@@PEAG@@QEAAAEAVAutoBstrNoAlloc@@PEAG@Z
  ??4?$AutoCleanup@VAutoCertContext@@PEBU_CERT_CONTEXT@@@@QEAAAEAVAutoCertContext@@PEBU_CERT_CONTEXT@@@Z="C:\Windows\System32\WsmAuto".??4?$AutoCleanup@VAutoCertContext@@PEBU_CERT_CONTEXT@@@@QEAAAEAVAutoCertContext@@PEBU_CERT_CONTEXT@@@Z
  ??4?$AutoCleanup@VAutoChainContext@@PEBU_CERT_CHAIN_CONTEXT@@@@QEAAAEAVAutoChainContext@@PEBU_CERT_CHAIN_CONTEXT@@@Z="C:\Windows\System32\WsmAuto".??4?$AutoCleanup@VAutoChainContext@@PEBU_CERT_CHAIN_CONTEXT@@@@QEAAAEAVAutoChainContext@@PEBU_CERT_CHAIN_CONTEXT@@@Z
  ??4?$AutoCleanup@VAutoCoTaskMemFree@@PEAX@@QEAAAEAVAutoCoTaskMemFree@@PEAX@Z="C:\Windows\System32\WsmAuto".??4?$AutoCleanup@VAutoCoTaskMemFree@@PEAX@@QEAAAEAVAutoCoTaskMemFree@@PEAX@Z
  ??4?$AutoCleanup@VAutoFwXmlCloseParser@@PEAX@@QEAAAEAVAutoFwXmlCloseParser@@PEAX@Z="C:\Windows\System32\WsmAuto".??4?$AutoCleanup@VAutoFwXmlCloseParser@@PEAX@@QEAAAEAVAutoFwXmlCloseParser@@PEAX@Z
  ??4?$AutoCleanup@VAutoHandle@@PEAX@@QEAAAEAVAutoHandle@@PEAX@Z="C:\Windows\System32\WsmAuto".??4?$AutoCleanup@VAutoHandle@@PEAX@@QEAAAEAVAutoHandle@@PEAX@Z
  ??4?$AutoCleanup@VAutoImpersonateUser@@PEAX@@QEAAAEAVAutoImpersonateUser@@PEAX@Z="C:\Windows\System32\WsmAuto".??4?$AutoCleanup@VAutoImpersonateUser@@PEAX@@QEAAAEAVAutoImpersonateUser@@PEAX@Z
  ??4?$AutoCleanup@VAutoLibrary@@PEAUHINSTANCE__@@@@QEAAAEAVAutoLibrary@@PEAUHINSTANCE__@@@Z="C:\Windows\System32\WsmAuto".??4?$AutoCleanup@VAutoLibrary@@PEAUHINSTANCE__@@@@QEAAAEAVAutoLibrary@@PEAUHINSTANCE__@@@Z
  ??4?$AutoCleanup@VAutoLocalFree@@PEAX@@QEAAAEAVAutoLocalFree@@PEAX@Z="C:\Windows\System32\WsmAuto".??4?$AutoCleanup@VAutoLocalFree@@PEAX@@QEAAAEAVAutoLocalFree@@PEAX@Z
  ??4?$AutoCleanup@VAutoMIClass@@PEAU_MI_Class@@@@QEAAAEAVAutoMIClass@@PEAU_MI_Class@@@Z="C:\Windows\System32\WsmAuto".??4?$AutoCleanup@VAutoMIClass@@PEAU_MI_Class@@@@QEAAAEAVAutoMIClass@@PEAU_MI_Class@@@Z
  ??4?$AutoCleanup@VAutoMIInstance@@PEAU_MI_Instance@@@@QEAAAEAVAutoMIInstance@@PEAU_MI_Instance@@@Z="C:\Windows\System32\WsmAuto".??4?$AutoCleanup@VAutoMIInstance@@PEAU_MI_Instance@@@@QEAAAEAVAutoMIInstance@@PEAU_MI_Instance@@@Z
  ??4?$AutoCleanup@VAutoObject@@PEAUWSMAN_OBJECT@@@@QEAAAEAVAutoObject@@PEAUWSMAN_OBJECT@@@Z="C:\Windows\System32\WsmAuto".??4?$AutoCleanup@VAutoObject@@PEAUWSMAN_OBJECT@@@@QEAAAEAVAutoObject@@PEAUWSMAN_OBJECT@@@Z
  ??4?$AutoCleanup@VAutoRegKey@@PEAUHKEY__@@@@QEAAAEAVAutoRegKey@@PEAUHKEY__@@@Z="C:\Windows\System32\WsmAuto".??4?$AutoCleanup@VAutoRegKey@@PEAUHKEY__@@@@QEAAAEAVAutoRegKey@@PEAUHKEY__@@@Z
  ??4?$AutoCleanup@VAutoSecurityDescriptor@@PEAX@@QEAAAEAVAutoSecurityDescriptor@@PEAX@Z="C:\Windows\System32\WsmAuto".??4?$AutoCleanup@VAutoSecurityDescriptor@@PEAX@@QEAAAEAVAutoSecurityDescriptor@@PEAX@Z
  ??4?$AutoCleanup@VAutoWaitHandle@@PEAX@@QEAAAEAVAutoWaitHandle@@PEAX@Z="C:\Windows\System32\WsmAuto".??4?$AutoCleanup@VAutoWaitHandle@@PEAX@@QEAAAEAVAutoWaitHandle@@PEAX@Z
  ??4?$AutoDeleteVector@G@@QEAAAEAV0@PEAG@Z="C:\Windows\System32\WsmAuto".??4?$AutoDeleteVector@G@@QEAAAEAV0@PEAG@Z
  ??4?$AutoRelease@VCWSManSecurityUI@@@@QEAAAEAV0@PEAVCWSManSecurityUI@@@Z="C:\Windows\System32\WsmAuto".??4?$AutoRelease@VCWSManSecurityUI@@@@QEAAAEAV0@PEAVCWSManSecurityUI@@@Z
  ??4?$SimpleQueue@T_LARGE_INTEGER@@@@QEAAAEAV0@AEBV0@@Z="C:\Windows\System32\WsmAuto".??4?$SimpleQueue@T_LARGE_INTEGER@@@@QEAAAEAV0@AEBV0@@Z
  ??4AutoBstr@@QEAAAEAV0@PEAG@Z="C:\Windows\System32\WsmAuto".??4AutoBstr@@QEAAAEAV0@PEAG@Z
  ??4AutoBstrNoAlloc@@QEAAAEAV0@PEAG@Z="C:\Windows\System32\WsmAuto".??4AutoBstrNoAlloc@@QEAAAEAV0@PEAG@Z
  ??4AutoCertContext@@QEAAAEAV0@PEBU_CERT_CONTEXT@@@Z="C:\Windows\System32\WsmAuto".??4AutoCertContext@@QEAAAEAV0@PEBU_CERT_CONTEXT@@@Z
  ??4AutoChainContext@@QEAAAEAV0@PEBU_CERT_CHAIN_CONTEXT@@@Z="C:\Windows\System32\WsmAuto".??4AutoChainContext@@QEAAAEAV0@PEBU_CERT_CHAIN_CONTEXT@@@Z
  ??4AutoCoTaskMemFree@@QEAAAEAV0@PEAX@Z="C:\Windows\System32\WsmAuto".??4AutoCoTaskMemFree@@QEAAAEAV0@PEAX@Z
  ??4AutoFwXmlCloseParser@@QEAAAEAV0@PEAX@Z="C:\Windows\System32\WsmAuto".??4AutoFwXmlCloseParser@@QEAAAEAV0@PEAX@Z
  ??4AutoHandle@@QEAAAEAV0@PEAX@Z="C:\Windows\System32\WsmAuto".??4AutoHandle@@QEAAAEAV0@PEAX@Z
  ??4AutoImpersonateUser@@QEAAAEAV0@PEAX@Z="C:\Windows\System32\WsmAuto".??4AutoImpersonateUser@@QEAAAEAV0@PEAX@Z
  ??4AutoLibrary@@QEAAAEAV0@PEAUHINSTANCE__@@@Z="C:\Windows\System32\WsmAuto".??4AutoLibrary@@QEAAAEAV0@PEAUHINSTANCE__@@@Z
  ??4AutoLocalFree@@QEAAAEAV0@PEAX@Z="C:\Windows\System32\WsmAuto".??4AutoLocalFree@@QEAAAEAV0@PEAX@Z
  ??4AutoMIClass@@QEAAAEAV0@PEAU_MI_Class@@@Z="C:\Windows\System32\WsmAuto".??4AutoMIClass@@QEAAAEAV0@PEAU_MI_Class@@@Z
  ??4AutoMIInstance@@QEAAAEAV0@PEAU_MI_Instance@@@Z="C:\Windows\System32\WsmAuto".??4AutoMIInstance@@QEAAAEAV0@PEAU_MI_Instance@@@Z
  ??4AutoObject@@QEAAAEAV0@PEAUWSMAN_OBJECT@@@Z="C:\Windows\System32\WsmAuto".??4AutoObject@@QEAAAEAV0@PEAUWSMAN_OBJECT@@@Z
  ??4AutoRegKey@@QEAAAEAV0@PEAUHKEY__@@@Z="C:\Windows\System32\WsmAuto".??4AutoRegKey@@QEAAAEAV0@PEAUHKEY__@@@Z
  ??4AutoSecurityDescriptor@@QEAAAEAV0@PEAX@Z="C:\Windows\System32\WsmAuto".??4AutoSecurityDescriptor@@QEAAAEAV0@PEAX@Z
  ??4AutoWaitHandle@@QEAAAEAV0@PEAX@Z="C:\Windows\System32\WsmAuto".??4AutoWaitHandle@@QEAAAEAV0@PEAX@Z
  ??4ChildLifeTimeManager@@QEAAAEAV0@AEBV0@@Z="C:\Windows\System32\WsmAuto".??4ChildLifeTimeManager@@QEAAAEAV0@AEBV0@@Z
  ??4EtwCorrelationHelper@@QEAAAEAV0@AEBV0@@Z="C:\Windows\System32\WsmAuto".??4EtwCorrelationHelper@@QEAAAEAV0@AEBV0@@Z
  ??4EventLog@@QEAAAEAV0@$$QEAV0@@Z="C:\Windows\System32\WsmAuto".??4EventLog@@QEAAAEAV0@$$QEAV0@@Z
  ??4EventLog@@QEAAAEAV0@AEBV0@@Z="C:\Windows\System32\WsmAuto".??4EventLog@@QEAAAEAV0@AEBV0@@Z
  ??4FastLock@@QEAAAEAV0@$$QEAV0@@Z="C:\Windows\System32\WsmAuto".??4FastLock@@QEAAAEAV0@$$QEAV0@@Z
  ??4FastLock@@QEAAAEAV0@AEBV0@@Z="C:\Windows\System32\WsmAuto".??4FastLock@@QEAAAEAV0@AEBV0@@Z
  ??4ILifeTimeMgmt@@QEAAAEAV0@AEBV0@@Z="C:\Windows\System32\WsmAuto".??4ILifeTimeMgmt@@QEAAAEAV0@AEBV0@@Z
  ??4PacketFormatter@@QEAAAEAV0@$$QEAV0@@Z="C:\Windows\System32\WsmAuto".??4PacketFormatter@@QEAAAEAV0@$$QEAV0@@Z
  ??4PacketFormatter@@QEAAAEAV0@AEBV0@@Z="C:\Windows\System32\WsmAuto".??4PacketFormatter@@QEAAAEAV0@AEBV0@@Z
  ??7?$AutoCleanup@V?$AutoDeleteVector@G@@PEAG@@QEBA_NXZ="C:\Windows\System32\WsmAuto".??7?$AutoCleanup@V?$AutoDeleteVector@G@@PEAG@@QEBA_NXZ
  ??7?$AutoCleanup@V?$AutoRelease@VCRequestContext@@@@PEAVCRequestContext@@@@QEBA_NXZ="C:\Windows\System32\WsmAuto".??7?$AutoCleanup@V?$AutoRelease@VCRequestContext@@@@PEAVCRequestContext@@@@QEBA_NXZ
  ??7?$AutoCleanup@V?$AutoRelease@VCWSManSecurityUI@@@@PEAVCWSManSecurityUI@@@@QEBA_NXZ="C:\Windows\System32\WsmAuto".??7?$AutoCleanup@V?$AutoRelease@VCWSManSecurityUI@@@@PEAVCWSManSecurityUI@@@@QEBA_NXZ
  ??B?$AutoCleanup@V?$AutoDeleteVector@E@@PEAE@@QEAAPEAEXZ="C:\Windows\System32\WsmAuto".??B?$AutoCleanup@V?$AutoDeleteVector@E@@PEAE@@QEAAPEAEXZ
  ??B?$AutoCleanup@V?$AutoDeleteVector@G@@PEAG@@QEAAPEAGXZ="C:\Windows\System32\WsmAuto".??B?$AutoCleanup@V?$AutoDeleteVector@G@@PEAG@@QEAAPEAGXZ
  ??B?$AutoCleanup@V?$AutoDeleteVector@PEBG@@PEAPEBG@@QEAAPEAPEBGXZ="C:\Windows\System32\WsmAuto".??B?$AutoCleanup@V?$AutoDeleteVector@PEBG@@PEAPEBG@@QEAAPEAPEBGXZ
  ??B?$AutoCleanup@V?$AutoDeleteVector@U_WSMAN_OPTION@@@@PEAU_WSMAN_OPTION@@@@QEAAPEAU_WSMAN_OPTION@@XZ="C:\Windows\System32\WsmAuto".??B?$AutoCleanup@V?$AutoDeleteVector@U_WSMAN_OPTION@@@@PEAU_WSMAN_OPTION@@@@QEAAPEAU_WSMAN_OPTION@@XZ
  ??B?$AutoCleanup@V?$AutoFree@E@@PEAE@@QEAAPEAEXZ="C:\Windows\System32\WsmAuto".??B?$AutoCleanup@V?$AutoFree@E@@PEAE@@QEAAPEAEXZ
  ??B?$AutoCleanup@V?$AutoFree@E@@PEAE@@QEBAQEAEXZ="C:\Windows\System32\WsmAuto".??B?$AutoCleanup@V?$AutoFree@E@@PEAE@@QEBAQEAEXZ
  ??B?$AutoCleanup@V?$AutoRelease@VCWSManSecurityUI@@@@PEAVCWSManSecurityUI@@@@QEAAPEAVCWSManSecurityUI@@XZ="C:\Windows\System32\WsmAuto".??B?$AutoCleanup@V?$AutoRelease@VCWSManSecurityUI@@@@PEAVCWSManSecurityUI@@@@QEAAPEAVCWSManSecurityUI@@XZ
  ??B?$AutoCleanup@VAutoLocalFree@@PEAX@@QEAAPEAXXZ="C:\Windows\System32\WsmAuto".??B?$AutoCleanup@VAutoLocalFree@@PEAX@@QEAAPEAXXZ
  ??C?$AutoCleanup@V?$AutoRelease@VCRequestContext@@@@PEAVCRequestContext@@@@QEAAPEAVCRequestContext@@XZ="C:\Windows\System32\WsmAuto".??C?$AutoCleanup@V?$AutoRelease@VCRequestContext@@@@PEAVCRequestContext@@@@QEAAPEAVCRequestContext@@XZ
  ??C?$AutoCleanup@V?$AutoRelease@VCWSManSecurityUI@@@@PEAVCWSManSecurityUI@@@@QEAAPEAVCWSManSecurityUI@@XZ="C:\Windows\System32\WsmAuto".??C?$AutoCleanup@V?$AutoRelease@VCWSManSecurityUI@@@@PEAVCWSManSecurityUI@@@@QEAAPEAVCWSManSecurityUI@@XZ
  ??_7?$SafeMap@VKey@Locale@@KV?$SafeMap_Iterator@VKey@Locale@@K@@@@6B@="C:\Windows\System32\WsmAuto".??_7?$SafeMap@VKey@Locale@@KV?$SafeMap_Iterator@VKey@Locale@@K@@@@6B@
  ??_7BufferFormatter@@6B@="C:\Windows\System32\WsmAuto".??_7BufferFormatter@@6B@
  ??_7CWSManResource@@6B@="C:\Windows\System32\WsmAuto".??_7CWSManResource@@6B@
  ??_7CircularBufferFormatter@@6B@="C:\Windows\System32\WsmAuto".??_7CircularBufferFormatter@@6B@
  ??_7EtwCorrelationHelper@@6B@="C:\Windows\System32\WsmAuto".??_7EtwCorrelationHelper@@6B@
  ??_7ILifeTimeMgmt@@6B@="C:\Windows\System32\WsmAuto".??_7ILifeTimeMgmt@@6B@
  ??_7IRequestContext@@6B@="C:\Windows\System32\WsmAuto".??_7IRequestContext@@6B@
  ??_FCErrorContext@@QEAAXXZ="C:\Windows\System32\WsmAuto".??_FCErrorContext@@QEAAXXZ
  ?Acquire@?$SafeMap@VKey@Locale@@KV?$SafeMap_Iterator@VKey@Locale@@K@@@@UEBAXXZ="C:\Windows\System32\WsmAuto".?Acquire@?$SafeMap@VKey@Locale@@KV?$SafeMap_Iterator@VKey@Locale@@K@@@@UEBAXXZ
  ?Acquire@?$SafeMap_Lock@VKey@Locale@@KV?$SafeMap_Iterator@VKey@Locale@@K@@@@QEAAXXZ="C:\Windows\System32\WsmAuto".?Acquire@?$SafeMap_Lock@VKey@Locale@@KV?$SafeMap_Iterator@VKey@Locale@@K@@@@QEAAXXZ
  ?AcquireExclusive@FastLock@@QEAAXXZ="C:\Windows\System32\WsmAuto".?AcquireExclusive@FastLock@@QEAAXXZ
  ?AcquireShared@FastLock@@QEAAXXZ="C:\Windows\System32\WsmAuto".?AcquireShared@FastLock@@QEAAXXZ
  ?Acquired@?$SafeMap_Lock@VKey@Locale@@KV?$SafeMap_Iterator@VKey@Locale@@K@@@@QEAA_NXZ="C:\Windows\System32\WsmAuto".?Acquired@?$SafeMap_Lock@VKey@Locale@@KV?$SafeMap_Iterator@VKey@Locale@@K@@@@QEAA_NXZ
  ?AddRef@ILifeTimeMgmt@@UEAAJXZ="C:\Windows\System32\WsmAuto".?AddRef@ILifeTimeMgmt@@UEAAJXZ
  ?AsReference@?$SafeMap@VKey@Locale@@KV?$SafeMap_Iterator@VKey@Locale@@K@@@@QEAAAEAV1@XZ="C:\Windows\System32\WsmAuto".?AsReference@?$SafeMap@VKey@Locale@@KV?$SafeMap_Iterator@VKey@Locale@@K@@@@QEAAAEAV1@XZ
  ?Data@?$SafeMap_Iterator@VKey@Locale@@K@@IEBAAEAV?$STLMap@VKey@Locale@@K@@XZ="C:\Windows\System32\WsmAuto".?Data@?$SafeMap_Iterator@VKey@Locale@@K@@IEBAAEAV?$STLMap@VKey@Locale@@K@@XZ
  ?DeInitialize@?$SafeMap@VKey@Locale@@KV?$SafeMap_Iterator@VKey@Locale@@K@@@@UEAA_NAEAVIRequestContext@@@Z="C:\Windows\System32\WsmAuto".?DeInitialize@?$SafeMap@VKey@Locale@@KV?$SafeMap_Iterator@VKey@Locale@@K@@@@UEAA_NAEAVIRequestContext@@@Z
  ?Detach@?$AutoCleanup@V?$AutoDeleteVector@G@@PEAG@@QEAAPEAGXZ="C:\Windows\System32\WsmAuto".?Detach@?$AutoCleanup@V?$AutoDeleteVector@G@@PEAG@@QEAAPEAGXZ
  ?Detach@?$AutoCleanup@V?$AutoFree@E@@PEAE@@QEAAPEAEXZ="C:\Windows\System32\WsmAuto".?Detach@?$AutoCleanup@V?$AutoFree@E@@PEAE@@QEAAPEAEXZ
  ?Detach@BufferFormatter@@QEAAPEAEXZ="C:\Windows\System32\WsmAuto".?Detach@BufferFormatter@@QEAAPEAEXZ
  ?GetBomIndex@PacketFormatter@@QEBA?AW4Charset@1@XZ="C:\Windows\System32\WsmAuto".?GetBomIndex@PacketFormatter@@QEBA?AW4Charset@1@XZ
  ?GetBuffer@BufferFormatter@@UEAAPEAEXZ="C:\Windows\System32\WsmAuto".?GetBuffer@BufferFormatter@@UEAAPEAEXZ
  ?GetBuffer@BufferFormatter@@UEBAPEBEXZ="C:\Windows\System32\WsmAuto".?GetBuffer@BufferFormatter@@UEBAPEBEXZ
  ?GetBuffer@CircularBufferFormatter@@UEBAPEBEXZ="C:\Windows\System32\WsmAuto".?GetBuffer@CircularBufferFormatter@@UEBAPEBEXZ
  ?GetBuffer@XmlReader@@QEAAPEBGXZ="C:\Windows\System32\WsmAuto".?GetBuffer@XmlReader@@QEAAPEBGXZ
  ?GetBufferSize@BufferFormatter@@QEBAKXZ="C:\Windows\System32\WsmAuto".?GetBufferSize@BufferFormatter@@QEBAKXZ
  ?GetCalculationSize@BufferFormatter@@UEBAK_N@Z="C:\Windows\System32\WsmAuto".?GetCalculationSize@BufferFormatter@@UEBAK_N@Z
  ?GetCharset@PacketFormatter@@QEBA?AW4Charset@1@XZ="C:\Windows\System32\WsmAuto".?GetCharset@PacketFormatter@@QEBA?AW4Charset@1@XZ
  ?GetChildCount@ChildLifeTimeManager@@QEBAJXZ="C:\Windows\System32\WsmAuto".?GetChildCount@ChildLifeTimeManager@@QEBAJXZ
  ?GetError@BufferFormatter@@QEBAKXZ="C:\Windows\System32\WsmAuto".?GetError@BufferFormatter@@QEBAKXZ
  ?GetErrorCode@CErrorContext@@UEBAKXZ="C:\Windows\System32\WsmAuto".?GetErrorCode@CErrorContext@@UEBAKXZ
  ?GetFaultXML@CErrorContext@@UEBAPEBGXZ="C:\Windows\System32\WsmAuto".?GetFaultXML@CErrorContext@@UEBAPEBGXZ
  ?GetFaultXML@CRequestContext@@UEBAPEBGXZ="C:\Windows\System32\WsmAuto".?GetFaultXML@CRequestContext@@UEBAPEBGXZ
  ?GetFormatterMode@BufferFormatter@@QEAA?AW4Charset@PacketFormatter@@XZ="C:\Windows\System32\WsmAuto".?GetFormatterMode@BufferFormatter@@QEAA?AW4Charset@PacketFormatter@@XZ
  ?GetInitError@CWSManCriticalSection@@QEBAKXZ="C:\Windows\System32\WsmAuto".?GetInitError@CWSManCriticalSection@@QEBAKXZ
  ?GetLCID@Locale@@QEAAKXZ="C:\Windows\System32\WsmAuto".?GetLCID@Locale@@QEAAKXZ
  ?GetLength@XmlReader@@QEAA_KXZ="C:\Windows\System32\WsmAuto".?GetLength@XmlReader@@QEAA_KXZ
  ?GetLocale@CRequestContext@@QEAAAEAVLocale@@XZ="C:\Windows\System32\WsmAuto".?GetLocale@CRequestContext@@QEAAAEAVLocale@@XZ
  ?GetLocaleString@CRequestContext@@QEAAPEBGXZ="C:\Windows\System32\WsmAuto".?GetLocaleString@CRequestContext@@QEAAPEBGXZ
  ?GetMap@?$SafeMap_Iterator@VKey@Locale@@K@@QEBAAEAV?$SafeMap@VKey@Locale@@KV?$SafeMap_Iterator@VKey@Locale@@K@@@@XZ="C:\Windows\System32\WsmAuto".?GetMap@?$SafeMap_Iterator@VKey@Locale@@K@@QEBAAEAV?$SafeMap@VKey@Locale@@KV?$SafeMap_Iterator@VKey@Locale@@K@@@@XZ
  ?GetMap@?$SafeMap_Lock@VKey@Locale@@KV?$SafeMap_Iterator@VKey@Locale@@K@@@@QEBAAEBV?$SafeMap@VKey@Locale@@KV?$SafeMap_Iterator@VKey@Locale@@K@@@@XZ="C:\Windows\System32\WsmAuto".?GetMap@?$SafeMap_Lock@VKey@Locale@@KV?$SafeMap_Iterator@VKey@Locale@@K@@@@QEBAAEBV?$SafeMap@VKey@Locale@@KV?$SafeMap_Iterator@VKey@Locale@@K@@@@XZ
  ?GetMessageId@CErrorContext@@UEBAKXZ="C:\Windows\System32\WsmAuto".?GetMessageId@CErrorContext@@UEBAKXZ
  ?GetMessageId@CRequestContext@@UEBAKXZ="C:\Windows\System32\WsmAuto".?GetMessageId@CRequestContext@@UEBAKXZ
  ?GetOptionCount@CWSManResourceNoResourceUri@@QEAAKXZ="C:\Windows\System32\WsmAuto".?GetOptionCount@CWSManResourceNoResourceUri@@QEAAKXZ
  ?GetOptionTypes@CWSManResourceNoResourceUri@@QEAAPEAPEBGXZ="C:\Windows\System32\WsmAuto".?GetOptionTypes@CWSManResourceNoResourceUri@@QEAAPEAPEBGXZ
  ?GetOptions@CWSManResourceNoResourceUri@@QEAAPEAU_WSMAN_OPTION@@XZ="C:\Windows\System32\WsmAuto".?GetOptions@CWSManResourceNoResourceUri@@QEAAPEAU_WSMAN_OPTION@@XZ
  ?GetOptionsMustUnderstandValue@CWSManResourceNoResourceUri@@QEAAHXZ="C:\Windows\System32\WsmAuto".?GetOptionsMustUnderstandValue@CWSManResourceNoResourceUri@@QEAAHXZ
  ?GetParser@XmlReader@@QEAAPEAXXZ="C:\Windows\System32\WsmAuto".?GetParser@XmlReader@@QEAAPEAXXZ
  ?GetRefCount@ILifeTimeMgmt@@QEAAJXZ="C:\Windows\System32\WsmAuto".?GetRefCount@ILifeTimeMgmt@@QEAAJXZ
  ?GetSpaceUsed@BufferFormatter@@UEBAK_N@Z="C:\Windows\System32\WsmAuto".?GetSpaceUsed@BufferFormatter@@UEBAK_N@Z
  ?HasFaultXML@CRequestContext@@QEBAHXZ="C:\Windows\System32\WsmAuto".?HasFaultXML@CRequestContext@@QEBAHXZ
  ?HasHtmlError@CRequestContext@@AEBAHXZ="C:\Windows\System32\WsmAuto".?HasHtmlError@CRequestContext@@AEBAHXZ
  ?Initialize@?$SafeMap@VKey@Locale@@KV?$SafeMap_Iterator@VKey@Locale@@K@@@@UEAA_NAEAVIRequestContext@@@Z="C:\Windows\System32\WsmAuto".?Initialize@?$SafeMap@VKey@Locale@@KV?$SafeMap_Iterator@VKey@Locale@@K@@@@UEAA_NAEAVIRequestContext@@@Z
  ?IsActive@ChildLifeTimeManager@@QEAA_NXZ="C:\Windows\System32\WsmAuto".?IsActive@ChildLifeTimeManager@@QEAA_NXZ
  ?IsCIM_Error@CRequestContext@@QEAAHXZ="C:\Windows\System32\WsmAuto".?IsCIM_Error@CRequestContext@@QEAAHXZ
  ?IsGeneratingError@CErrorContext@@UEBA_NXZ="C:\Windows\System32\WsmAuto".?IsGeneratingError@CErrorContext@@UEBA_NXZ
  ?IsInCommitMode@BufferFormatter@@QEAA_NXZ="C:\Windows\System32\WsmAuto".?IsInCommitMode@BufferFormatter@@QEAA_NXZ
  ?IsValid@?$SafeMap_Iterator@VKey@Locale@@K@@QEBA_NXZ="C:\Windows\System32\WsmAuto".?IsValid@?$SafeMap_Iterator@VKey@Locale@@K@@QEBA_NXZ
  ?LogErrorCode@CRequestContext@@QEAAXXZ="C:\Windows\System32\WsmAuto".?LogErrorCode@CRequestContext@@QEAAXXZ
  ?Me@?$AutoCleanup@V?$AutoDelete@G@@PEAG@@AEAAAEAV?$AutoDelete@G@@XZ="C:\Windows\System32\WsmAuto".?Me@?$AutoCleanup@V?$AutoDelete@G@@PEAG@@AEAAAEAV?$AutoDelete@G@@XZ
  ?Me@?$AutoCleanup@V?$AutoDeleteVector@E@@PEAE@@AEAAAEAV?$AutoDeleteVector@E@@XZ="C:\Windows\System32\WsmAuto".?Me@?$AutoCleanup@V?$AutoDeleteVector@E@@PEAE@@AEAAAEAV?$AutoDeleteVector@E@@XZ
  ?Me@?$AutoCleanup@V?$AutoDeleteVector@G@@PEAG@@AEAAAEAV?$AutoDeleteVector@G@@XZ="C:\Windows\System32\WsmAuto".?Me@?$AutoCleanup@V?$AutoDeleteVector@G@@PEAG@@AEAAAEAV?$AutoDeleteVector@G@@XZ
  ?Me@?$AutoCleanup@V?$AutoDeleteVector@PEBG@@PEAPEBG@@AEAAAEAV?$AutoDeleteVector@PEBG@@XZ="C:\Windows\System32\WsmAuto".?Me@?$AutoCleanup@V?$AutoDeleteVector@PEBG@@PEAPEBG@@AEAAAEAV?$AutoDeleteVector@PEBG@@XZ
  ?Me@?$AutoCleanup@V?$AutoDeleteVector@U_WSMAN_OPTION@@@@PEAU_WSMAN_OPTION@@@@AEAAAEAV?$AutoDeleteVector@U_WSMAN_OPTION@@@@XZ="C:\Windows\System32\WsmAuto".?Me@?$AutoCleanup@V?$AutoDeleteVector@U_WSMAN_OPTION@@@@PEAU_WSMAN_OPTION@@@@AEAAAEAV?$AutoDeleteVector@U_WSMAN_OPTION@@@@XZ
  ?Me@?$AutoCleanup@V?$AutoFree@E@@PEAE@@AEAAAEAV?$AutoFree@E@@XZ="C:\Windows\System32\WsmAuto".?Me@?$AutoCleanup@V?$AutoFree@E@@PEAE@@AEAAAEAV?$AutoFree@E@@XZ
  ?Me@?$AutoCleanup@V?$AutoRelease@VCRequestContext@@@@PEAVCRequestContext@@@@AEAAAEAV?$AutoRelease@VCRequestContext@@@@XZ="C:\Windows\System32\WsmAuto".?Me@?$AutoCleanup@V?$AutoRelease@VCRequestContext@@@@PEAVCRequestContext@@@@AEAAAEAV?$AutoRelease@VCRequestContext@@@@XZ
  ?Me@?$AutoCleanup@V?$AutoRelease@VCWSManSecurityUI@@@@PEAVCWSManSecurityUI@@@@AEAAAEAV?$AutoRelease@VCWSManSecurityUI@@@@XZ="C:\Windows\System32\WsmAuto".?Me@?$AutoCleanup@V?$AutoRelease@VCWSManSecurityUI@@@@PEAVCWSManSecurityUI@@@@AEAAAEAV?$AutoRelease@VCWSManSecurityUI@@@@XZ
  ?Me@?$AutoCleanup@VAutoBstr@@PEAG@@AEAAAEAVAutoBstr@@XZ="C:\Windows\System32\WsmAuto".?Me@?$AutoCleanup@VAutoBstr@@PEAG@@AEAAAEAVAutoBstr@@XZ
  ?Me@?$AutoCleanup@VAutoBstrNoAlloc@@PEAG@@AEAAAEAVAutoBstrNoAlloc@@XZ="C:\Windows\System32\WsmAuto".?Me@?$AutoCleanup@VAutoBstrNoAlloc@@PEAG@@AEAAAEAVAutoBstrNoAlloc@@XZ
  ?Me@?$AutoCleanup@VAutoCertContext@@PEBU_CERT_CONTEXT@@@@AEAAAEAVAutoCertContext@@XZ="C:\Windows\System32\WsmAuto".?Me@?$AutoCleanup@VAutoCertContext@@PEBU_CERT_CONTEXT@@@@AEAAAEAVAutoCertContext@@XZ
  ?Me@?$AutoCleanup@VAutoChainContext@@PEBU_CERT_CHAIN_CONTEXT@@@@AEAAAEAVAutoChainContext@@XZ="C:\Windows\System32\WsmAuto".?Me@?$AutoCleanup@VAutoChainContext@@PEBU_CERT_CHAIN_CONTEXT@@@@AEAAAEAVAutoChainContext@@XZ
  ?Me@?$AutoCleanup@VAutoCoTaskMemFree@@PEAX@@AEAAAEAVAutoCoTaskMemFree@@XZ="C:\Windows\System32\WsmAuto".?Me@?$AutoCleanup@VAutoCoTaskMemFree@@PEAX@@AEAAAEAVAutoCoTaskMemFree@@XZ
  ?Me@?$AutoCleanup@VAutoFwXmlCloseParser@@PEAX@@AEAAAEAVAutoFwXmlCloseParser@@XZ="C:\Windows\System32\WsmAuto".?Me@?$AutoCleanup@VAutoFwXmlCloseParser@@PEAX@@AEAAAEAVAutoFwXmlCloseParser@@XZ
  ?Me@?$AutoCleanup@VAutoHandle@@PEAX@@AEAAAEAVAutoHandle@@XZ="C:\Windows\System32\WsmAuto".?Me@?$AutoCleanup@VAutoHandle@@PEAX@@AEAAAEAVAutoHandle@@XZ
  ?Me@?$AutoCleanup@VAutoImpersonateUser@@PEAX@@AEAAAEAVAutoImpersonateUser@@XZ="C:\Windows\System32\WsmAuto".?Me@?$AutoCleanup@VAutoImpersonateUser@@PEAX@@AEAAAEAVAutoImpersonateUser@@XZ
  ?Me@?$AutoCleanup@VAutoLibrary@@PEAUHINSTANCE__@@@@AEAAAEAVAutoLibrary@@XZ="C:\Windows\System32\WsmAuto".?Me@?$AutoCleanup@VAutoLibrary@@PEAUHINSTANCE__@@@@AEAAAEAVAutoLibrary@@XZ
  ?Me@?$AutoCleanup@VAutoLocalFree@@PEAX@@AEAAAEAVAutoLocalFree@@XZ="C:\Windows\System32\WsmAuto".?Me@?$AutoCleanup@VAutoLocalFree@@PEAX@@AEAAAEAVAutoLocalFree@@XZ
  ?Me@?$AutoCleanup@VAutoMIClass@@PEAU_MI_Class@@@@AEAAAEAVAutoMIClass@@XZ="C:\Windows\System32\WsmAuto".?Me@?$AutoCleanup@VAutoMIClass@@PEAU_MI_Class@@@@AEAAAEAVAutoMIClass@@XZ
  ?Me@?$AutoCleanup@VAutoMIInstance@@PEAU_MI_Instance@@@@AEAAAEAVAutoMIInstance@@XZ="C:\Windows\System32\WsmAuto".?Me@?$AutoCleanup@VAutoMIInstance@@PEAU_MI_Instance@@@@AEAAAEAVAutoMIInstance@@XZ
  ?Me@?$AutoCleanup@VAutoObject@@PEAUWSMAN_OBJECT@@@@AEAAAEAVAutoObject@@XZ="C:\Windows\System32\WsmAuto".?Me@?$AutoCleanup@VAutoObject@@PEAUWSMAN_OBJECT@@@@AEAAAEAVAutoObject@@XZ
  ?Me@?$AutoCleanup@VAutoRegKey@@PEAUHKEY__@@@@AEAAAEAVAutoRegKey@@XZ="C:\Windows\System32\WsmAuto".?Me@?$AutoCleanup@VAutoRegKey@@PEAUHKEY__@@@@AEAAAEAVAutoRegKey@@XZ
  ?Me@?$AutoCleanup@VAutoSecurityDescriptor@@PEAX@@AEAAAEAVAutoSecurityDescriptor@@XZ="C:\Windows\System32\WsmAuto".?Me@?$AutoCleanup@VAutoSecurityDescriptor@@PEAX@@AEAAAEAVAutoSecurityDescriptor@@XZ
  ?Me@?$AutoCleanup@VAutoWaitHandle@@PEAX@@AEAAAEAVAutoWaitHandle@@XZ="C:\Windows\System32\WsmAuto".?Me@?$AutoCleanup@VAutoWaitHandle@@PEAX@@AEAAAEAVAutoWaitHandle@@XZ
  ?Passed@CErrorContext@@UEBAHXZ="C:\Windows\System32\WsmAuto".?Passed@CErrorContext@@UEBAHXZ
  ?PrepareToCommitWithSize@CircularBufferFormatter@@UEAAKK@Z="C:\Windows\System32\WsmAuto".?PrepareToCommitWithSize@CircularBufferFormatter@@UEAAKK@Z
  ?ProcessContext@CRequestContext@@QEAAHHPEAU_WSMAN_ENUMERATOR_RESULT@@@Z="C:\Windows\System32\WsmAuto".?ProcessContext@CRequestContext@@QEAAHHPEAU_WSMAN_ENUMERATOR_RESULT@@@Z
  ?ProcessContext@CRequestContext@@QEAAHHPEAU_WSMAN_EVENTS_RESULT@@@Z="C:\Windows\System32\WsmAuto".?ProcessContext@CRequestContext@@QEAAHHPEAU_WSMAN_EVENTS_RESULT@@@Z
  ?ProcessContext@CRequestContext@@QEAAHHPEAU_WSMAN_RESULT@@@Z="C:\Windows\System32\WsmAuto".?ProcessContext@CRequestContext@@QEAAHHPEAU_WSMAN_RESULT@@@Z
  ?ProcessContext@CRequestContext@@QEAAHHPEAU_WSMAN_STATUS@@@Z="C:\Windows\System32\WsmAuto".?ProcessContext@CRequestContext@@QEAAHHPEAU_WSMAN_STATUS@@@Z
  ?ProviderFailure@CErrorContext@@UEBAHXZ="C:\Windows\System32\WsmAuto".?ProviderFailure@CErrorContext@@UEBAHXZ
  ?RecordAccessDenied@CRequestContext@@UEAAXXZ="C:\Windows\System32\WsmAuto".?RecordAccessDenied@CRequestContext@@UEAAXXZ
  ?RecordFailure@CRequestContext@@UEAAXK@Z="C:\Windows\System32\WsmAuto".?RecordFailure@CRequestContext@@UEAAXK@Z
  ?RecordHtmlError@CRequestContext@@QEAAHKPEAU_FWXML_ELEMENT@@@Z="C:\Windows\System32\WsmAuto".?RecordHtmlError@CRequestContext@@QEAAHKPEAU_FWXML_ELEMENT@@@Z
  ?RecordHtmlError@CRequestContext@@QEAAHKPEBGK@Z="C:\Windows\System32\WsmAuto".?RecordHtmlError@CRequestContext@@QEAAHKPEBGK@Z
  ?RecordMIFailure@IRequestContext@@QEAAXW4_MI_Result@@K@Z="C:\Windows\System32\WsmAuto".?RecordMIFailure@IRequestContext@@QEAAXW4_MI_Result@@K@Z
  ?RecordOutOfMemory@CRequestContext@@UEAAXXZ="C:\Windows\System32\WsmAuto".?RecordOutOfMemory@CRequestContext@@UEAAXXZ
  ?RecordProviderFailure@CRequestContext@@QEAAXKHPEBG00@Z="C:\Windows\System32\WsmAuto".?RecordProviderFailure@CRequestContext@@QEAAXKHPEBG00@Z
  ?RecordSoapError@CRequestContext@@QEAAHKPEAU_FWXML_ELEMENT@@@Z="C:\Windows\System32\WsmAuto".?RecordSoapError@CRequestContext@@QEAAHKPEAU_FWXML_ELEMENT@@@Z
  ?RecordSoapError@CRequestContext@@UEAAHKPEBG@Z="C:\Windows\System32\WsmAuto".?RecordSoapError@CRequestContext@@UEAAHKPEBG@Z
  ?RegisterChild@ChildLifeTimeManager@@QEAA_NXZ="C:\Windows\System32\WsmAuto".?RegisterChild@ChildLifeTimeManager@@QEAA_NXZ
  ?Release@?$SafeMap@VKey@Locale@@KV?$SafeMap_Iterator@VKey@Locale@@K@@@@UEBAXXZ="C:\Windows\System32\WsmAuto".?Release@?$SafeMap@VKey@Locale@@KV?$SafeMap_Iterator@VKey@Locale@@K@@@@UEBAXXZ
  ?Release@ILifeTimeMgmt@@UEAAJP6AXPEAX@Z0@Z="C:\Windows\System32\WsmAuto".?Release@ILifeTimeMgmt@@UEAAJP6AXPEAX@Z0@Z
  ?ReleaseExclusive@FastLock@@QEAAXXZ="C:\Windows\System32\WsmAuto".?ReleaseExclusive@FastLock@@QEAAXXZ
  ?ReleasePtr@?$AutoCleanup@V?$AutoDelete@G@@PEAG@@AEAAXXZ="C:\Windows\System32\WsmAuto".?ReleasePtr@?$AutoCleanup@V?$AutoDelete@G@@PEAG@@AEAAXXZ
  ?ReleasePtr@?$AutoCleanup@V?$AutoDeleteVector@E@@PEAE@@AEAAXXZ="C:\Windows\System32\WsmAuto".?ReleasePtr@?$AutoCleanup@V?$AutoDeleteVector@E@@PEAE@@AEAAXXZ
  ?ReleasePtr@?$AutoCleanup@V?$AutoDeleteVector@G@@PEAG@@AEAAXXZ="C:\Windows\System32\WsmAuto".?ReleasePtr@?$AutoCleanup@V?$AutoDeleteVector@G@@PEAG@@AEAAXXZ
  ?ReleasePtr@?$AutoCleanup@V?$AutoDeleteVector@PEBG@@PEAPEBG@@AEAAXXZ="C:\Windows\System32\WsmAuto".?ReleasePtr@?$AutoCleanup@V?$AutoDeleteVector@PEBG@@PEAPEBG@@AEAAXXZ
  ?ReleasePtr@?$AutoCleanup@V?$AutoDeleteVector@U_WSMAN_OPTION@@@@PEAU_WSMAN_OPTION@@@@AEAAXXZ="C:\Windows\System32\WsmAuto".?ReleasePtr@?$AutoCleanup@V?$AutoDeleteVector@U_WSMAN_OPTION@@@@PEAU_WSMAN_OPTION@@@@AEAAXXZ
  ?ReleasePtr@?$AutoCleanup@V?$AutoFree@E@@PEAE@@AEAAXXZ="C:\Windows\System32\WsmAuto".?ReleasePtr@?$AutoCleanup@V?$AutoFree@E@@PEAE@@AEAAXXZ
  ?ReleasePtr@?$AutoCleanup@V?$AutoRelease@VCRequestContext@@@@PEAVCRequestContext@@@@AEAAXXZ="C:\Windows\System32\WsmAuto".?ReleasePtr@?$AutoCleanup@V?$AutoRelease@VCRequestContext@@@@PEAVCRequestContext@@@@AEAAXXZ
  ?ReleasePtr@?$AutoCleanup@V?$AutoRelease@VCWSManSecurityUI@@@@PEAVCWSManSecurityUI@@@@AEAAXXZ="C:\Windows\System32\WsmAuto".?ReleasePtr@?$AutoCleanup@V?$AutoRelease@VCWSManSecurityUI@@@@PEAVCWSManSecurityUI@@@@AEAAXXZ
  ?ReleasePtr@?$AutoCleanup@VAutoBstr@@PEAG@@AEAAXXZ="C:\Windows\System32\WsmAuto".?ReleasePtr@?$AutoCleanup@VAutoBstr@@PEAG@@AEAAXXZ
  ?ReleasePtr@?$AutoCleanup@VAutoBstrNoAlloc@@PEAG@@AEAAXXZ="C:\Windows\System32\WsmAuto".?ReleasePtr@?$AutoCleanup@VAutoBstrNoAlloc@@PEAG@@AEAAXXZ
  ?ReleasePtr@?$AutoCleanup@VAutoCertContext@@PEBU_CERT_CONTEXT@@@@AEAAXXZ="C:\Windows\System32\WsmAuto".?ReleasePtr@?$AutoCleanup@VAutoCertContext@@PEBU_CERT_CONTEXT@@@@AEAAXXZ
  ?ReleasePtr@?$AutoCleanup@VAutoChainContext@@PEBU_CERT_CHAIN_CONTEXT@@@@AEAAXXZ="C:\Windows\System32\WsmAuto".?ReleasePtr@?$AutoCleanup@VAutoChainContext@@PEBU_CERT_CHAIN_CONTEXT@@@@AEAAXXZ
  ?ReleasePtr@?$AutoCleanup@VAutoCoTaskMemFree@@PEAX@@AEAAXXZ="C:\Windows\System32\WsmAuto".?ReleasePtr@?$AutoCleanup@VAutoCoTaskMemFree@@PEAX@@AEAAXXZ
  ?ReleasePtr@?$AutoCleanup@VAutoFwXmlCloseParser@@PEAX@@AEAAXXZ="C:\Windows\System32\WsmAuto".?ReleasePtr@?$AutoCleanup@VAutoFwXmlCloseParser@@PEAX@@AEAAXXZ
  ?ReleasePtr@?$AutoCleanup@VAutoHandle@@PEAX@@AEAAXXZ="C:\Windows\System32\WsmAuto".?ReleasePtr@?$AutoCleanup@VAutoHandle@@PEAX@@AEAAXXZ
  ?ReleasePtr@?$AutoCleanup@VAutoImpersonateUser@@PEAX@@AEAAXXZ="C:\Windows\System32\WsmAuto".?ReleasePtr@?$AutoCleanup@VAutoImpersonateUser@@PEAX@@AEAAXXZ
  ?ReleasePtr@?$AutoCleanup@VAutoLibrary@@PEAUHINSTANCE__@@@@AEAAXXZ="C:\Windows\System32\WsmAuto".?ReleasePtr@?$AutoCleanup@VAutoLibrary@@PEAUHINSTANCE__@@@@AEAAXXZ
  ?ReleasePtr@?$AutoCleanup@VAutoLocalFree@@PEAX@@AEAAXXZ="C:\Windows\System32\WsmAuto".?ReleasePtr@?$AutoCleanup@VAutoLocalFree@@PEAX@@AEAAXXZ
  ?ReleasePtr@?$AutoCleanup@VAutoMIClass@@PEAU_MI_Class@@@@AEAAXXZ="C:\Windows\System32\WsmAuto".?ReleasePtr@?$AutoCleanup@VAutoMIClass@@PEAU_MI_Class@@@@AEAAXXZ
  ?ReleasePtr@?$AutoCleanup@VAutoMIInstance@@PEAU_MI_Instance@@@@AEAAXXZ="C:\Windows\System32\WsmAuto".?ReleasePtr@?$AutoCleanup@VAutoMIInstance@@PEAU_MI_Instance@@@@AEAAXXZ
  ?ReleasePtr@?$AutoCleanup@VAutoObject@@PEAUWSMAN_OBJECT@@@@AEAAXXZ="C:\Windows\System32\WsmAuto".?ReleasePtr@?$AutoCleanup@VAutoObject@@PEAUWSMAN_OBJECT@@@@AEAAXXZ
  ?ReleasePtr@?$AutoCleanup@VAutoRegKey@@PEAUHKEY__@@@@AEAAXXZ="C:\Windows\System32\WsmAuto".?ReleasePtr@?$AutoCleanup@VAutoRegKey@@PEAUHKEY__@@@@AEAAXXZ
  ?ReleasePtr@?$AutoCleanup@VAutoSecurityDescriptor@@PEAX@@AEAAXXZ="C:\Windows\System32\WsmAuto".?ReleasePtr@?$AutoCleanup@VAutoSecurityDescriptor@@PEAX@@AEAAXXZ
  ?ReleasePtr@?$AutoCleanup@VAutoWaitHandle@@PEAX@@AEAAXXZ="C:\Windows\System32\WsmAuto".?ReleasePtr@?$AutoCleanup@VAutoWaitHandle@@PEAX@@AEAAXXZ
  ?ReleaseShared@FastLock@@QEAAXXZ="C:\Windows\System32\WsmAuto".?ReleaseShared@FastLock@@QEAAXXZ
  ?Reset@?$SafeMap_Iterator@VKey@Locale@@K@@QEAAXXZ="C:\Windows\System32\WsmAuto".?Reset@?$SafeMap_Iterator@VKey@Locale@@K@@QEAAXXZ
  ?Reset@BufferFormatter@@UEAAXXZ="C:\Windows\System32\WsmAuto".?Reset@BufferFormatter@@UEAAXXZ
  ?Reset@CircularBufferFormatter@@UEAAXXZ="C:\Windows\System32\WsmAuto".?Reset@CircularBufferFormatter@@UEAAXXZ
  ?SetCIM_Error@CErrorContext@@UEAAXXZ="C:\Windows\System32\WsmAuto".?SetCIM_Error@CErrorContext@@UEAAXXZ
  ?SetCIM_Error@CRequestContext@@UEAAXXZ="C:\Windows\System32\WsmAuto".?SetCIM_Error@CRequestContext@@UEAAXXZ
  ?SetExtraLogInfo@CErrorContext@@QEAAXPEBG000@Z="C:\Windows\System32\WsmAuto".?SetExtraLogInfo@CErrorContext@@QEAAXPEBG000@Z
  ?SetFormatterMode@BufferFormatter@@QEAAXW4Charset@PacketFormatter@@0@Z="C:\Windows\System32\WsmAuto".?SetFormatterMode@BufferFormatter@@QEAAXW4Charset@PacketFormatter@@0@Z
  ?SetGeneratingError@CErrorContext@@UEAAXXZ="C:\Windows\System32\WsmAuto".?SetGeneratingError@CErrorContext@@UEAAXXZ
  ?SetLocale@CRequestContext@@QEAA_NPEBGK@Z="C:\Windows\System32\WsmAuto".?SetLocale@CRequestContext@@QEAA_NPEBGK@Z
  ?SetMachineName@CRequestContext@@QEAAKPEBG@Z="C:\Windows\System32\WsmAuto".?SetMachineName@CRequestContext@@QEAAKPEBG@Z
  ?SetMaxEnvelopeSize@CircularBufferFormatter@@QEAAXK@Z="C:\Windows\System32\WsmAuto".?SetMaxEnvelopeSize@CircularBufferFormatter@@QEAAXK@Z
  ?SetOptionsMustUnderstandValue@CWSManResourceNoResourceUri@@QEAAXH@Z="C:\Windows\System32\WsmAuto".?SetOptionsMustUnderstandValue@CWSManResourceNoResourceUri@@QEAAXH@Z
  ?SetUpdateMode@BufferFormatter@@UEAAXW4Mode@1@@Z="C:\Windows\System32\WsmAuto".?SetUpdateMode@BufferFormatter@@UEAAXW4Mode@1@@Z
  ?SetUpdateMode@CircularBufferFormatter@@UEAAXW4Mode@BufferFormatter@@@Z="C:\Windows\System32\WsmAuto".?SetUpdateMode@CircularBufferFormatter@@UEAAXW4Mode@BufferFormatter@@@Z
  ?Shutdown@ChildLifeTimeManager@@QEAAXXZ="C:\Windows\System32\WsmAuto".?Shutdown@ChildLifeTimeManager@@QEAAXXZ
  ?SkipOrphans@?$SafeMap_Iterator@VKey@Locale@@K@@IEAAXXZ="C:\Windows\System32\WsmAuto".?SkipOrphans@?$SafeMap_Iterator@VKey@Locale@@K@@IEAAXXZ
  ?UnregisterChild@ChildLifeTimeManager@@QEAAXXZ="C:\Windows\System32\WsmAuto".?UnregisterChild@ChildLifeTimeManager@@QEAAXXZ
  ?UseDefaultConfig@CErrorContext@@UEBAHXZ="C:\Windows\System32\WsmAuto".?UseDefaultConfig@CErrorContext@@UEBAHXZ
  ?UsingDefaultLCID@Locale@@QEAA_NXZ="C:\Windows\System32\WsmAuto".?UsingDefaultLCID@Locale@@QEAA_NXZ
  ?WaitForAllChildrenToUnregister@ChildLifeTimeManager@@QEAAXK@Z="C:\Windows\System32\WsmAuto".?WaitForAllChildrenToUnregister@ChildLifeTimeManager@@QEAAXK@Z
  ?WakeAllWaitingOnNoOfChildren@ChildLifeTimeManager@@AEAAXXZ="C:\Windows\System32\WsmAuto".?WakeAllWaitingOnNoOfChildren@ChildLifeTimeManager@@AEAAXXZ
  ?empty@?$SimpleQueue@T_LARGE_INTEGER@@@@QEBA_NXZ="C:\Windows\System32\WsmAuto".?empty@?$SimpleQueue@T_LARGE_INTEGER@@@@QEBA_NXZ
  ?getBufSync@BufferFormatter@@UEAAPEAVCWSManCriticalSection@@XZ="C:\Windows\System32\WsmAuto".?getBufSync@BufferFormatter@@UEAAPEAVCWSManCriticalSection@@XZ
  ?pop@?$SimpleQueue@T_LARGE_INTEGER@@@@QEAAXXZ="C:\Windows\System32\WsmAuto".?pop@?$SimpleQueue@T_LARGE_INTEGER@@@@QEAAXXZ
  DllCanUnloadNow="C:\Windows\System32\WsmAuto".DllCanUnloadNow
  DllGetClassObject="C:\Windows\System32\WsmAuto".DllGetClassObject
  DllRegisterServer="C:\Windows\System32\WsmAuto".DllRegisterServer
  DllUnregisterServer="C:\Windows\System32\WsmAuto".DllUnregisterServer
