EXPORTS
  ??0CPerfMon@@QAE@PAGPAU_PERF_ITEM@0@@Z="C:\Windows\SysWOW64\bitsperf".??0CPerfMon@@QAE@PAGPAU_PERF_ITEM@0@@Z
  ??1CPerfMon@@QAE@XZ="C:\Windows\SysWOW64\bitsperf".??1CPerfMon@@QAE@XZ
  ??4CPerfMon@@QAEAAV0@ABV0@@Z="C:\Windows\SysWOW64\bitsperf".??4CPerfMon@@QAEAAV0@ABV0@@Z
  ?CalcBytesForPerfObject@CPerfMon@@ABEKPAU__OBJECT_ORD@1@@Z="C:\Windows\SysWOW64\bitsperf".?CalcBytesForPerfObject@CPerfMon@@ABEKPAU__OBJECT_ORD@1@@Z
  ?CalcPerfMetrics@CPerfMon@@ABEXPAU__OBJECT_ORD@1@PAU__INSTANCE_ID@1@PAU_PERF_METRICS@1@PAPAU_PERF_ITEM@1@@Z="C:\Windows\SysWOW64\bitsperf".?CalcPerfMetrics@CPerfMon@@ABEXPAU__OBJECT_ORD@1@PAU__INSTANCE_ID@1@PAU_PERF_METRICS@1@PAPAU_PERF_ITEM@1@@Z
  ?Collect@CPerfMon@@QAEKPAGPAPAEPAK2@Z="C:\Windows\SysWOW64\bitsperf".?Collect@CPerfMon@@QAEKPAGPAPAEPAK2@Z
  ?CollectAllObjects@CPerfMon@@ABEKPAGPAPAEPAK2@Z="C:\Windows\SysWOW64\bitsperf".?CollectAllObjects@CPerfMon@@ABEKPAGPAPAEPAK2@Z
  ?CollectAnObject@CPerfMon@@ABEKPAU__OBJECT_ORD@1@PAPAE@Z="C:\Windows\SysWOW64\bitsperf".?CollectAnObject@CPerfMon@@ABEKPAU__OBJECT_ORD@1@PAPAE@Z
  ?ConvertInstIdToInUseInstId@CPerfMon@@ABEHPAU__OBJECT_ORD@1@PAU__INSTANCE_ID@1@@Z="C:\Windows\SysWOW64\bitsperf".?ConvertInstIdToInUseInstId@CPerfMon@@ABEHPAU__OBJECT_ORD@1@PAU__INSTANCE_ID@1@@Z
  ?CounterIdToObjectOrd@CPerfMon@@ABEPAU__OBJECT_ORD@1@PAU__COUNTER_ID@1@PAH@Z="C:\Windows\SysWOW64\bitsperf".?CounterIdToObjectOrd@CPerfMon@@ABEPAU__OBJECT_ORD@1@PAU__COUNTER_ID@1@PAH@Z
  ?CounterIdToPerfItem@CPerfMon@@ABEPAU_PERF_ITEM@1@PAU__COUNTER_ID@1@@Z="C:\Windows\SysWOW64\bitsperf".?CounterIdToPerfItem@CPerfMon@@ABEPAU_PERF_ITEM@1@PAU__COUNTER_ID@1@@Z
  ?CounterIdToPerfItemIndex@CPerfMon@@ABEHPAU__COUNTER_ID@1@PAH@Z="C:\Windows\SysWOW64\bitsperf".?CounterIdToPerfItemIndex@CPerfMon@@ABEHPAU__COUNTER_ID@1@PAH@Z
  ?CounterOrdToPerfItem@CPerfMon@@ABEPAU_PERF_ITEM@1@PAU__OBJECT_ORD@1@PAU__COUNTER_ORD@1@@Z="C:\Windows\SysWOW64\bitsperf".?CounterOrdToPerfItem@CPerfMon@@ABEPAU_PERF_ITEM@1@PAU__OBJECT_ORD@1@PAU__COUNTER_ORD@1@@Z
  ?DetermineObjectsToCollect@CPerfMon@@ABEXPAU__OBJECT_ORD@1@@Z="C:\Windows\SysWOW64\bitsperf".?DetermineObjectsToCollect@CPerfMon@@ABEXPAU__OBJECT_ORD@1@@Z
  ?GetCounter32@CPerfMon@@QAEPAJPAU__COUNTER_ID@1@PAU__INSTANCE_ID@1@@Z="C:\Windows\SysWOW64\bitsperf".?GetCounter32@CPerfMon@@QAEPAJPAU__COUNTER_ID@1@PAU__INSTANCE_ID@1@@Z
  ?GetCounter64@CPerfMon@@QAEPA_JPAU__COUNTER_ID@1@PAU__INSTANCE_ID@1@@Z="C:\Windows\SysWOW64\bitsperf".?GetCounter64@CPerfMon@@QAEPA_JPAU__COUNTER_ID@1@PAU__INSTANCE_ID@1@@Z
  ?GetCounter@CPerfMon@@AAEPAEPAU__COUNTER_ID@1@PAU__INSTANCE_ID@1@@Z="C:\Windows\SysWOW64\bitsperf".?GetCounter@CPerfMon@@AAEPAEPAU__COUNTER_ID@1@PAU__INSTANCE_ID@1@@Z
  ?HowManyInstancesAreInUse@CPerfMon@@ABEHPAU__OBJECT_ORD@1@@Z="C:\Windows\SysWOW64\bitsperf".?HowManyInstancesAreInUse@CPerfMon@@ABEHPAU__OBJECT_ORD@1@@Z
  ?IdToPerfItemIndex@CPerfMon@@ABEHHK@Z="C:\Windows\SysWOW64\bitsperf".?IdToPerfItemIndex@CPerfMon@@ABEHHK@Z
  ?Initialize@CPerfMon@@QAEKH@Z="C:\Windows\SysWOW64\bitsperf".?Initialize@CPerfMon@@QAEKH@Z
  ?InitializePerfMon@CPerfMon@@AAEKH@Z="C:\Windows\SysWOW64\bitsperf".?InitializePerfMon@CPerfMon@@AAEKH@Z
  ?IsValidInstId@CPerfMon@@ABEHPAU__OBJECT_ORD@1@PAU__INSTANCE_ID@1@@Z="C:\Windows\SysWOW64\bitsperf".?IsValidInstId@CPerfMon@@ABEHPAU__OBJECT_ORD@1@PAU__INSTANCE_ID@1@@Z
  ?IsValidObjOrd@CPerfMon@@ABEHPAU__OBJECT_ORD@1@@Z="C:\Windows\SysWOW64\bitsperf".?IsValidObjOrd@CPerfMon@@ABEHPAU__OBJECT_ORD@1@@Z
  ?ObjectIdToObjectOrd@CPerfMon@@ABEPAU__OBJECT_ORD@1@PAU__OBJECT_ID@1@@Z="C:\Windows\SysWOW64\bitsperf".?ObjectIdToObjectOrd@CPerfMon@@ABEPAU__OBJECT_ORD@1@PAU__OBJECT_ID@1@@Z
  ?ObjectIdToPerfItem@CPerfMon@@ABEPAU_PERF_ITEM@1@PAU__OBJECT_ID@1@@Z="C:\Windows\SysWOW64\bitsperf".?ObjectIdToPerfItem@CPerfMon@@ABEPAU_PERF_ITEM@1@PAU__OBJECT_ID@1@@Z
  ?ObjectIdToPerfItemIndex@CPerfMon@@ABEHPAU__OBJECT_ID@1@@Z="C:\Windows\SysWOW64\bitsperf".?ObjectIdToPerfItemIndex@CPerfMon@@ABEHPAU__OBJECT_ID@1@@Z
  ?ObjectOrdToPerfItem@CPerfMon@@ABEPAU_PERF_ITEM@1@PAU__OBJECT_ORD@1@@Z="C:\Windows\SysWOW64\bitsperf".?ObjectOrdToPerfItem@CPerfMon@@ABEPAU_PERF_ITEM@1@PAU__OBJECT_ORD@1@@Z
  ?ObjectOrdToPerfItemIndex@CPerfMon@@ABEHPAU__OBJECT_ORD@1@@Z="C:\Windows\SysWOW64\bitsperf".?ObjectOrdToPerfItemIndex@CPerfMon@@ABEHPAU__OBJECT_ORD@1@@Z
  ?VerifyPerfItemTable@CPerfMon@@AAEKXZ="C:\Windows\SysWOW64\bitsperf".?VerifyPerfItemTable@CPerfMon@@AAEKXZ
  PerfMon_Close="C:\Windows\SysWOW64\bitsperf".PerfMon_Close
  PerfMon_Collect="C:\Windows\SysWOW64\bitsperf".PerfMon_Collect
  PerfMon_Open="C:\Windows\SysWOW64\bitsperf".PerfMon_Open
