EXPORTS
  ??0CIniA@@QAE@PAUHINSTANCE__@@PBD111@Z="C:\Windows\SysWOW64\cmutil".??0CIniA@@QAE@PAUHINSTANCE__@@PBD111@Z
  ??0CIniW@@QAE@PAUHINSTANCE__@@PBG111@Z="C:\Windows\SysWOW64\cmutil".??0CIniW@@QAE@PAUHINSTANCE__@@PBG111@Z
  ??0CRandom@@QAE@I@Z="C:\Windows\SysWOW64\cmutil".??0CRandom@@QAE@I@Z
  ??0CRandom@@QAE@XZ="C:\Windows\SysWOW64\cmutil".??0CRandom@@QAE@XZ
  ??0CmLogFile@@QAE@XZ="C:\Windows\SysWOW64\cmutil".??0CmLogFile@@QAE@XZ
  ??1CIniA@@QAE@XZ="C:\Windows\SysWOW64\cmutil".??1CIniA@@QAE@XZ
  ??1CIniW@@QAE@XZ="C:\Windows\SysWOW64\cmutil".??1CIniW@@QAE@XZ
  ??1CmLogFile@@QAE@XZ="C:\Windows\SysWOW64\cmutil".??1CmLogFile@@QAE@XZ
  ??4CIniA@@QAEAAV0@ABV0@@Z="C:\Windows\SysWOW64\cmutil".??4CIniA@@QAEAAV0@ABV0@@Z
  ??4CIniW@@QAEAAV0@ABV0@@Z="C:\Windows\SysWOW64\cmutil".??4CIniW@@QAEAAV0@ABV0@@Z
  ??4CRandom@@QAEAAV0@$$QAV0@@Z="C:\Windows\SysWOW64\cmutil".??4CRandom@@QAEAAV0@$$QAV0@@Z
  ??4CRandom@@QAEAAV0@ABV0@@Z="C:\Windows\SysWOW64\cmutil".??4CRandom@@QAEAAV0@ABV0@@Z
  ??4CmLogFile@@QAEAAV0@ABV0@@Z="C:\Windows\SysWOW64\cmutil".??4CmLogFile@@QAEAAV0@ABV0@@Z
  ??_FCIniA@@QAEXXZ="C:\Windows\SysWOW64\cmutil".??_FCIniA@@QAEXXZ
  ??_FCIniW@@QAEXXZ="C:\Windows\SysWOW64\cmutil".??_FCIniW@@QAEXXZ
  ?Banner@CmLogFile@@QAEXXZ="C:\Windows\SysWOW64\cmutil".?Banner@CmLogFile@@QAEXXZ
  ?CIniA_DeleteEntryFromReg@CIniA@@IBEHPAUHKEY__@@PBD1@Z="C:\Windows\SysWOW64\cmutil".?CIniA_DeleteEntryFromReg@CIniA@@IBEHPAUHKEY__@@PBD1@Z
  ?CIniA_GetEntryFromReg@CIniA@@IBEPAEPAUHKEY__@@PBD1KK@Z="C:\Windows\SysWOW64\cmutil".?CIniA_GetEntryFromReg@CIniA@@IBEPAEPAUHKEY__@@PBD1KK@Z
  ?CIniA_WriteEntryToReg@CIniA@@IBEHPAUHKEY__@@PBD1PBEKK@Z="C:\Windows\SysWOW64\cmutil".?CIniA_WriteEntryToReg@CIniA@@IBEHPAUHKEY__@@PBD1PBEKK@Z
  ?CIniW_DeleteEntryFromReg@CIniW@@IBEHPAUHKEY__@@PBG1@Z="C:\Windows\SysWOW64\cmutil".?CIniW_DeleteEntryFromReg@CIniW@@IBEHPAUHKEY__@@PBG1@Z
  ?CIniW_GetEntryFromReg@CIniW@@IBEPAEPAUHKEY__@@PBG1KK@Z="C:\Windows\SysWOW64\cmutil".?CIniW_GetEntryFromReg@CIniW@@IBEPAEPAUHKEY__@@PBG1KK@Z
  ?CIniW_WriteEntryToReg@CIniW@@IBEHPAUHKEY__@@PBG1PBEKK@Z="C:\Windows\SysWOW64\cmutil".?CIniW_WriteEntryToReg@CIniW@@IBEHPAUHKEY__@@PBG1PBEKK@Z
  ?CIni_SetFile@CIniA@@KGXPAPADPBD@Z="C:\Windows\SysWOW64\cmutil".?CIni_SetFile@CIniA@@KGXPAPADPBD@Z
  ?CIni_SetFile@CIniW@@KGXPAPAGPBG@Z="C:\Windows\SysWOW64\cmutil".?CIni_SetFile@CIniW@@KGXPAPAGPBG@Z
  ?Clear@CIniA@@QAEXXZ="C:\Windows\SysWOW64\cmutil".?Clear@CIniA@@QAEXXZ
  ?Clear@CIniW@@QAEXXZ="C:\Windows\SysWOW64\cmutil".?Clear@CIniW@@QAEXXZ
  ?Clear@CmLogFile@@QAEXH@Z="C:\Windows\SysWOW64\cmutil".?Clear@CmLogFile@@QAEXH@Z
  ?CloseFile@CmLogFile@@AAEJXZ="C:\Windows\SysWOW64\cmutil".?CloseFile@CmLogFile@@AAEJXZ
  ?DeInit@CmLogFile@@QAEJXZ="C:\Windows\SysWOW64\cmutil".?DeInit@CmLogFile@@QAEJXZ
  ?FormatWrite@CmLogFile@@AAEXW4_CMLOG_ITEM@@PAG@Z="C:\Windows\SysWOW64\cmutil".?FormatWrite@CmLogFile@@AAEXW4_CMLOG_ITEM@@PAG@Z
  ?GPPB@CIniA@@QBEHPBD0H@Z="C:\Windows\SysWOW64\cmutil".?GPPB@CIniA@@QBEHPBD0H@Z
  ?GPPB@CIniW@@QBEHPBG0H@Z="C:\Windows\SysWOW64\cmutil".?GPPB@CIniW@@QBEHPBG0H@Z
  ?GPPI@CIniA@@QBEKPBD0K@Z="C:\Windows\SysWOW64\cmutil".?GPPI@CIniA@@QBEKPBD0K@Z
  ?GPPI@CIniW@@QBEKPBG0K@Z="C:\Windows\SysWOW64\cmutil".?GPPI@CIniW@@QBEKPBG0K@Z
  ?GPPS@CIniA@@QBEPADPBD00@Z="C:\Windows\SysWOW64\cmutil".?GPPS@CIniA@@QBEPADPBD00@Z
  ?GPPS@CIniW@@QBEPAGPBG00@Z="C:\Windows\SysWOW64\cmutil".?GPPS@CIniW@@QBEPAGPBG00@Z
  ?Generate@CRandom@@QAEHXZ="C:\Windows\SysWOW64\cmutil".?Generate@CRandom@@QAEHXZ
  ?GetFile@CIniA@@QBEPBDXZ="C:\Windows\SysWOW64\cmutil".?GetFile@CIniA@@QBEPBDXZ
  ?GetFile@CIniW@@QBEPBGXZ="C:\Windows\SysWOW64\cmutil".?GetFile@CIniW@@QBEPBGXZ
  ?GetHInst@CIniA@@QBEPAUHINSTANCE__@@XZ="C:\Windows\SysWOW64\cmutil".?GetHInst@CIniA@@QBEPAUHINSTANCE__@@XZ
  ?GetHInst@CIniW@@QBEPAUHINSTANCE__@@XZ="C:\Windows\SysWOW64\cmutil".?GetHInst@CIniW@@QBEPAUHINSTANCE__@@XZ
  ?GetLogFilePath@CmLogFile@@QAEPBGXZ="C:\Windows\SysWOW64\cmutil".?GetLogFilePath@CmLogFile@@QAEPBGXZ
  ?GetPrimaryFile@CIniA@@QBEPBDXZ="C:\Windows\SysWOW64\cmutil".?GetPrimaryFile@CIniA@@QBEPBDXZ
  ?GetPrimaryFile@CIniW@@QBEPBGXZ="C:\Windows\SysWOW64\cmutil".?GetPrimaryFile@CIniW@@QBEPBGXZ
  ?GetPrimaryRegPath@CIniA@@QBEPBDXZ="C:\Windows\SysWOW64\cmutil".?GetPrimaryRegPath@CIniA@@QBEPBDXZ
  ?GetPrimaryRegPath@CIniW@@QBEPBGXZ="C:\Windows\SysWOW64\cmutil".?GetPrimaryRegPath@CIniW@@QBEPBGXZ
  ?GetRegPath@CIniA@@QBEPBDXZ="C:\Windows\SysWOW64\cmutil".?GetRegPath@CIniA@@QBEPBDXZ
  ?GetRegPath@CIniW@@QBEPBGXZ="C:\Windows\SysWOW64\cmutil".?GetRegPath@CIniW@@QBEPBGXZ
  ?GetSection@CIniA@@QBEPBDXZ="C:\Windows\SysWOW64\cmutil".?GetSection@CIniA@@QBEPBDXZ
  ?GetSection@CIniW@@QBEPBGXZ="C:\Windows\SysWOW64\cmutil".?GetSection@CIniW@@QBEPBGXZ
  ?Init@CRandom@@QAEXK@Z="C:\Windows\SysWOW64\cmutil".?Init@CRandom@@QAEXK@Z
  ?Init@CmLogFile@@QAEJPAUHINSTANCE__@@HPBD@Z="C:\Windows\SysWOW64\cmutil".?Init@CmLogFile@@QAEJPAUHINSTANCE__@@HPBD@Z
  ?Init@CmLogFile@@QAEJPAUHINSTANCE__@@HPBG@Z="C:\Windows\SysWOW64\cmutil".?Init@CmLogFile@@QAEJPAUHINSTANCE__@@HPBG@Z
  ?IsEnabled@CmLogFile@@QAEHXZ="C:\Windows\SysWOW64\cmutil".?IsEnabled@CmLogFile@@QAEHXZ
  ?LoadEntry@CIniA@@IBEPADPBD@Z="C:\Windows\SysWOW64\cmutil".?LoadEntry@CIniA@@IBEPADPBD@Z
  ?LoadEntry@CIniW@@IBEPAGPBG@Z="C:\Windows\SysWOW64\cmutil".?LoadEntry@CIniW@@IBEPAGPBG@Z
  ?LoadSection@CIniA@@QBEPADPBD@Z="C:\Windows\SysWOW64\cmutil".?LoadSection@CIniA@@QBEPADPBD@Z
  ?LoadSection@CIniW@@QBEPAGPBG@Z="C:\Windows\SysWOW64\cmutil".?LoadSection@CIniW@@QBEPAGPBG@Z
  ?Log@CmLogFile@@QAAXW4_CMLOG_ITEM@@ZZ="C:\Windows\SysWOW64\cmutil".?Log@CmLogFile@@QAAXW4_CMLOG_ITEM@@ZZ
  ?OpenFile@CmLogFile@@AAEJXZ="C:\Windows\SysWOW64\cmutil".?OpenFile@CmLogFile@@AAEJXZ
  ?SetEntry@CIniA@@QAEXPBD@Z="C:\Windows\SysWOW64\cmutil".?SetEntry@CIniA@@QAEXPBD@Z
  ?SetEntry@CIniW@@QAEXPBG@Z="C:\Windows\SysWOW64\cmutil".?SetEntry@CIniW@@QAEXPBG@Z
  ?SetEntryFromIdx@CIniA@@QAEXK@Z="C:\Windows\SysWOW64\cmutil".?SetEntryFromIdx@CIniA@@QAEXK@Z
  ?SetEntryFromIdx@CIniW@@QAEXK@Z="C:\Windows\SysWOW64\cmutil".?SetEntryFromIdx@CIniW@@QAEXK@Z
  ?SetFile@CIniA@@QAEXPBD@Z="C:\Windows\SysWOW64\cmutil".?SetFile@CIniA@@QAEXPBD@Z
  ?SetFile@CIniW@@QAEXPBG@Z="C:\Windows\SysWOW64\cmutil".?SetFile@CIniW@@QAEXPBG@Z
  ?SetHInst@CIniA@@QAEXPAUHINSTANCE__@@@Z="C:\Windows\SysWOW64\cmutil".?SetHInst@CIniA@@QAEXPAUHINSTANCE__@@@Z
  ?SetHInst@CIniW@@QAEXPAUHINSTANCE__@@@Z="C:\Windows\SysWOW64\cmutil".?SetHInst@CIniW@@QAEXPAUHINSTANCE__@@@Z
  ?SetICSDataPath@CIniA@@QAEXPBD@Z="C:\Windows\SysWOW64\cmutil".?SetICSDataPath@CIniA@@QAEXPBD@Z
  ?SetICSDataPath@CIniW@@QAEXPBG@Z="C:\Windows\SysWOW64\cmutil".?SetICSDataPath@CIniW@@QAEXPBG@Z
  ?SetParams@CmLogFile@@QAEJHKPBD@Z="C:\Windows\SysWOW64\cmutil".?SetParams@CmLogFile@@QAEJHKPBD@Z
  ?SetParams@CmLogFile@@QAEJHKPBG@Z="C:\Windows\SysWOW64\cmutil".?SetParams@CmLogFile@@QAEJHKPBG@Z
  ?SetPrimaryFile@CIniA@@QAEXPBD@Z="C:\Windows\SysWOW64\cmutil".?SetPrimaryFile@CIniA@@QAEXPBD@Z
  ?SetPrimaryFile@CIniW@@QAEXPBG@Z="C:\Windows\SysWOW64\cmutil".?SetPrimaryFile@CIniW@@QAEXPBG@Z
  ?SetPrimaryRegPath@CIniA@@QAEXPBD@Z="C:\Windows\SysWOW64\cmutil".?SetPrimaryRegPath@CIniA@@QAEXPBD@Z
  ?SetPrimaryRegPath@CIniW@@QAEXPBG@Z="C:\Windows\SysWOW64\cmutil".?SetPrimaryRegPath@CIniW@@QAEXPBG@Z
  ?SetReadICSData@CIniA@@QAEXH@Z="C:\Windows\SysWOW64\cmutil".?SetReadICSData@CIniA@@QAEXH@Z
  ?SetReadICSData@CIniW@@QAEXH@Z="C:\Windows\SysWOW64\cmutil".?SetReadICSData@CIniW@@QAEXH@Z
  ?SetRegPath@CIniA@@QAEXPBD@Z="C:\Windows\SysWOW64\cmutil".?SetRegPath@CIniA@@QAEXPBD@Z
  ?SetRegPath@CIniW@@QAEXPBG@Z="C:\Windows\SysWOW64\cmutil".?SetRegPath@CIniW@@QAEXPBG@Z
  ?SetSection@CIniA@@QAEXPBD@Z="C:\Windows\SysWOW64\cmutil".?SetSection@CIniA@@QAEXPBD@Z
  ?SetSection@CIniW@@QAEXPBG@Z="C:\Windows\SysWOW64\cmutil".?SetSection@CIniW@@QAEXPBG@Z
  ?SetWriteICSData@CIniA@@QAEXH@Z="C:\Windows\SysWOW64\cmutil".?SetWriteICSData@CIniA@@QAEXH@Z
  ?SetWriteICSData@CIniW@@QAEXH@Z="C:\Windows\SysWOW64\cmutil".?SetWriteICSData@CIniW@@QAEXH@Z
  ?Start@CmLogFile@@QAEJH@Z="C:\Windows\SysWOW64\cmutil".?Start@CmLogFile@@QAEJH@Z
  ?Stop@CmLogFile@@QAEJXZ="C:\Windows\SysWOW64\cmutil".?Stop@CmLogFile@@QAEJXZ
  ?WPPB@CIniA@@QAEXPBD0H@Z="C:\Windows\SysWOW64\cmutil".?WPPB@CIniA@@QAEXPBD0H@Z
  ?WPPB@CIniW@@QAEXPBG0H@Z="C:\Windows\SysWOW64\cmutil".?WPPB@CIniW@@QAEXPBG0H@Z
  ?WPPI@CIniA@@QAEXPBD0K@Z="C:\Windows\SysWOW64\cmutil".?WPPI@CIniA@@QAEXPBD0K@Z
  ?WPPI@CIniW@@QAEXPBG0K@Z="C:\Windows\SysWOW64\cmutil".?WPPI@CIniW@@QAEXPBG0K@Z
  ?WPPS@CIniA@@QAEXPBD00@Z="C:\Windows\SysWOW64\cmutil".?WPPS@CIniA@@QAEXPBD00@Z
  ?WPPS@CIniW@@QAEXPBG00@Z="C:\Windows\SysWOW64\cmutil".?WPPS@CIniW@@QAEXPBG00@Z
  ?Write@CmLogFile@@AAEJPAG@Z="C:\Windows\SysWOW64\cmutil".?Write@CmLogFile@@AAEJPAG@Z
  ?kMaxValueLength@CIniW@@2KB="C:\Windows\SysWOW64\cmutil".?kMaxValueLength@CIniW@@2KB
  CmAtolA="C:\Windows\SysWOW64\cmutil".CmAtolA
  CmAtolW="C:\Windows\SysWOW64\cmutil".CmAtolW
  CmBuildFullPathFromRelativeA="C:\Windows\SysWOW64\cmutil".CmBuildFullPathFromRelativeA
  CmBuildFullPathFromRelativeW="C:\Windows\SysWOW64\cmutil".CmBuildFullPathFromRelativeW
  CmCompareStringA="C:\Windows\SysWOW64\cmutil".CmCompareStringA
  CmCompareStringW="C:\Windows\SysWOW64\cmutil".CmCompareStringW
  CmConvertRelativePathW="C:\Windows\SysWOW64\cmutil".CmConvertRelativePathW
  CmConvertStrToIPv6AddrA="C:\Windows\SysWOW64\cmutil".CmConvertStrToIPv6AddrA
  CmConvertStrToIPv6AddrW="C:\Windows\SysWOW64\cmutil".CmConvertStrToIPv6AddrW
  CmEndOfStrW="C:\Windows\SysWOW64\cmutil".CmEndOfStrW
  CmFmtMsgA="C:\Windows\SysWOW64\cmutil".CmFmtMsgA
  CmFmtMsgW="C:\Windows\SysWOW64\cmutil".CmFmtMsgW
  CmFree="C:\Windows\SysWOW64\cmutil".CmFree
  CmIsDigitW="C:\Windows\SysWOW64\cmutil".CmIsDigitW
  CmIsIPv6AddressA="C:\Windows\SysWOW64\cmutil".CmIsIPv6AddressA
  CmIsIPv6AddressW="C:\Windows\SysWOW64\cmutil".CmIsIPv6AddressW
  CmIsSpaceW="C:\Windows\SysWOW64\cmutil".CmIsSpaceW
  CmLoadIconA="C:\Windows\SysWOW64\cmutil".CmLoadIconA
  CmLoadIconW="C:\Windows\SysWOW64\cmutil".CmLoadIconW
  CmLoadImageW="C:\Windows\SysWOW64\cmutil".CmLoadImageW
  CmLoadSmallIconA="C:\Windows\SysWOW64\cmutil".CmLoadSmallIconA
  CmLoadSmallIconW="C:\Windows\SysWOW64\cmutil".CmLoadSmallIconW
  CmLoadStringW="C:\Windows\SysWOW64\cmutil".CmLoadStringW
  CmMalloc="C:\Windows\SysWOW64\cmutil".CmMalloc
  CmMoveMemory="C:\Windows\SysWOW64\cmutil".CmMoveMemory
  CmParsePathW="C:\Windows\SysWOW64\cmutil".CmParsePathW
  CmRealloc="C:\Windows\SysWOW64\cmutil".CmRealloc
  CmStrCatAllocA="C:\Windows\SysWOW64\cmutil".CmStrCatAllocA
  CmStrCatAllocW="C:\Windows\SysWOW64\cmutil".CmStrCatAllocW
  CmStrCharCountA="C:\Windows\SysWOW64\cmutil".CmStrCharCountA
  CmStrCharCountW="C:\Windows\SysWOW64\cmutil".CmStrCharCountW
  CmStrCharStuffingA="C:\Windows\SysWOW64\cmutil".CmStrCharStuffingA
  CmStrCharStuffingW="C:\Windows\SysWOW64\cmutil".CmStrCharStuffingW
  CmStrCpyAllocA="C:\Windows\SysWOW64\cmutil".CmStrCpyAllocA
  CmStrCpyAllocW="C:\Windows\SysWOW64\cmutil".CmStrCpyAllocW
  CmStrStrA="C:\Windows\SysWOW64\cmutil".CmStrStrA
  CmStrStrW="C:\Windows\SysWOW64\cmutil".CmStrStrW
  CmStrTrimW="C:\Windows\SysWOW64\cmutil".CmStrTrimW
  CmStrchrA="C:\Windows\SysWOW64\cmutil".CmStrchrA
  CmStrchrW="C:\Windows\SysWOW64\cmutil".CmStrchrW
  CmStripFileNameW="C:\Windows\SysWOW64\cmutil".CmStripFileNameW
  CmStripPathAndExtW="C:\Windows\SysWOW64\cmutil".CmStripPathAndExtW
  CmStrrchrA="C:\Windows\SysWOW64\cmutil".CmStrrchrA
  CmStrrchrW="C:\Windows\SysWOW64\cmutil".CmStrrchrW
  CmStrtokA="C:\Windows\SysWOW64\cmutil".CmStrtokA
  CmStrtokW="C:\Windows\SysWOW64\cmutil".CmStrtokW
  GetOSBuildNumber="C:\Windows\SysWOW64\cmutil".GetOSBuildNumber
  GetOSMajorVersion="C:\Windows\SysWOW64\cmutil".GetOSMajorVersion
  GetOSMinorVersion="C:\Windows\SysWOW64\cmutil".GetOSMinorVersion
  GetOSVersion="C:\Windows\SysWOW64\cmutil".GetOSVersion
  IsFarEastNonOSR2Win95="C:\Windows\SysWOW64\cmutil".IsFarEastNonOSR2Win95
  IsLogonAsSystem="C:\Windows\SysWOW64\cmutil".IsLogonAsSystem
  MakeBold="C:\Windows\SysWOW64\cmutil".MakeBold
  ReleaseBold="C:\Windows\SysWOW64\cmutil".ReleaseBold
  SzToWz="C:\Windows\SysWOW64\cmutil".SzToWz
  SzToWzWithAlloc="C:\Windows\SysWOW64\cmutil".SzToWzWithAlloc
  WzToSz="C:\Windows\SysWOW64\cmutil".WzToSz
  WzToSzWithAlloc="C:\Windows\SysWOW64\cmutil".WzToSzWithAlloc
