EXPORTS
  ??0?$PatternProvider@VExpandCollapseProvider@DirectUI@@UIExpandCollapseProvider@@$00@DirectUI@@QAE@XZ="C:\Windows\SysWOW64\dui70".??0?$PatternProvider@VExpandCollapseProvider@DirectUI@@UIExpandCollapseProvider@@$00@DirectUI@@QAE@XZ
  ??0?$PatternProvider@VGridItemProvider@DirectUI@@UIGridItemProvider@@$01@DirectUI@@QAE@XZ="C:\Windows\SysWOW64\dui70".??0?$PatternProvider@VGridItemProvider@DirectUI@@UIGridItemProvider@@$01@DirectUI@@QAE@XZ
  ??0?$PatternProvider@VGridProvider@DirectUI@@UIGridProvider@@$02@DirectUI@@QAE@XZ="C:\Windows\SysWOW64\dui70".??0?$PatternProvider@VGridProvider@DirectUI@@UIGridProvider@@$02@DirectUI@@QAE@XZ
  ??0?$PatternProvider@VInvokeProvider@DirectUI@@UIInvokeProvider@@$0A@@DirectUI@@QAE@XZ="C:\Windows\SysWOW64\dui70".??0?$PatternProvider@VInvokeProvider@DirectUI@@UIInvokeProvider@@$0A@@DirectUI@@QAE@XZ
  ??0?$PatternProvider@VRangeValueProvider@DirectUI@@UIRangeValueProvider@@$03@DirectUI@@QAE@XZ="C:\Windows\SysWOW64\dui70".??0?$PatternProvider@VRangeValueProvider@DirectUI@@UIRangeValueProvider@@$03@DirectUI@@QAE@XZ
  ??0?$PatternProvider@VScrollItemProvider@DirectUI@@UIScrollItemProvider@@$05@DirectUI@@QAE@XZ="C:\Windows\SysWOW64\dui70".??0?$PatternProvider@VScrollItemProvider@DirectUI@@UIScrollItemProvider@@$05@DirectUI@@QAE@XZ
  ??0?$PatternProvider@VScrollProvider@DirectUI@@UIScrollProvider@@$04@DirectUI@@QAE@XZ="C:\Windows\SysWOW64\dui70".??0?$PatternProvider@VScrollProvider@DirectUI@@UIScrollProvider@@$04@DirectUI@@QAE@XZ
  ??0?$PatternProvider@VSelectionItemProvider@DirectUI@@UISelectionItemProvider@@$06@DirectUI@@QAE@XZ="C:\Windows\SysWOW64\dui70".??0?$PatternProvider@VSelectionItemProvider@DirectUI@@UISelectionItemProvider@@$06@DirectUI@@QAE@XZ
  ??0?$PatternProvider@VSelectionProvider@DirectUI@@UISelectionProvider@@$07@DirectUI@@QAE@XZ="C:\Windows\SysWOW64\dui70".??0?$PatternProvider@VSelectionProvider@DirectUI@@UISelectionProvider@@$07@DirectUI@@QAE@XZ
  ??0?$PatternProvider@VTableItemProvider@DirectUI@@UITableItemProvider@@$09@DirectUI@@QAE@XZ="C:\Windows\SysWOW64\dui70".??0?$PatternProvider@VTableItemProvider@DirectUI@@UITableItemProvider@@$09@DirectUI@@QAE@XZ
  ??0?$PatternProvider@VTableProvider@DirectUI@@UITableProvider@@$08@DirectUI@@QAE@XZ="C:\Windows\SysWOW64\dui70".??0?$PatternProvider@VTableProvider@DirectUI@@UITableProvider@@$08@DirectUI@@QAE@XZ
  ??0?$PatternProvider@VToggleProvider@DirectUI@@UIToggleProvider@@$0L@@DirectUI@@QAE@XZ="C:\Windows\SysWOW64\dui70".??0?$PatternProvider@VToggleProvider@DirectUI@@UIToggleProvider@@$0L@@DirectUI@@QAE@XZ
  ??0?$PatternProvider@VValueProvider@DirectUI@@UIValueProvider@@$0M@@DirectUI@@QAE@XZ="C:\Windows\SysWOW64\dui70".??0?$PatternProvider@VValueProvider@DirectUI@@UIValueProvider@@$0M@@DirectUI@@QAE@XZ
  ??0?$SafeArrayAccessor@H@DirectUI@@QAE@XZ="C:\Windows\SysWOW64\dui70".??0?$SafeArrayAccessor@H@DirectUI@@QAE@XZ
  ??0AccessibleButton@DirectUI@@QAE@$$QAV01@@Z="C:\Windows\SysWOW64\dui70".??0AccessibleButton@DirectUI@@QAE@$$QAV01@@Z
  ??0AccessibleButton@DirectUI@@QAE@ABV01@@Z="C:\Windows\SysWOW64\dui70".??0AccessibleButton@DirectUI@@QAE@ABV01@@Z
  ??0AccessibleButton@DirectUI@@QAE@XZ="C:\Windows\SysWOW64\dui70".??0AccessibleButton@DirectUI@@QAE@XZ
  ??0AnimationStrip@DirectUI@@QAE@ABV01@@Z="C:\Windows\SysWOW64\dui70".??0AnimationStrip@DirectUI@@QAE@ABV01@@Z
  ??0AnimationStrip@DirectUI@@QAE@XZ="C:\Windows\SysWOW64\dui70".??0AnimationStrip@DirectUI@@QAE@XZ
  ??0AutoButton@DirectUI@@QAE@$$QAV01@@Z="C:\Windows\SysWOW64\dui70".??0AutoButton@DirectUI@@QAE@$$QAV01@@Z
  ??0AutoButton@DirectUI@@QAE@ABV01@@Z="C:\Windows\SysWOW64\dui70".??0AutoButton@DirectUI@@QAE@ABV01@@Z
  ??0AutoButton@DirectUI@@QAE@XZ="C:\Windows\SysWOW64\dui70".??0AutoButton@DirectUI@@QAE@XZ
  ??0AutoLock@DirectUI@@QAE@PAU_RTL_CRITICAL_SECTION@@@Z="C:\Windows\SysWOW64\dui70".??0AutoLock@DirectUI@@QAE@PAU_RTL_CRITICAL_SECTION@@@Z
  ??0AutoThread@DirectUI@@QAE@XZ="C:\Windows\SysWOW64\dui70".??0AutoThread@DirectUI@@QAE@XZ
  ??0AutoVariant@DirectUI@@QAE@XZ="C:\Windows\SysWOW64\dui70".??0AutoVariant@DirectUI@@QAE@XZ
  ??0BaseScrollBar@DirectUI@@QAE@$$QAV01@@Z="C:\Windows\SysWOW64\dui70".??0BaseScrollBar@DirectUI@@QAE@$$QAV01@@Z
  ??0BaseScrollBar@DirectUI@@QAE@ABV01@@Z="C:\Windows\SysWOW64\dui70".??0BaseScrollBar@DirectUI@@QAE@ABV01@@Z
  ??0BaseScrollBar@DirectUI@@QAE@XZ="C:\Windows\SysWOW64\dui70".??0BaseScrollBar@DirectUI@@QAE@XZ
  ??0BaseScrollViewer@DirectUI@@QAE@ABV01@@Z="C:\Windows\SysWOW64\dui70".??0BaseScrollViewer@DirectUI@@QAE@ABV01@@Z
  ??0BaseScrollViewer@DirectUI@@QAE@XZ="C:\Windows\SysWOW64\dui70".??0BaseScrollViewer@DirectUI@@QAE@XZ
  ??0Bind@DirectUI@@QAE@$$QAV01@@Z="C:\Windows\SysWOW64\dui70".??0Bind@DirectUI@@QAE@$$QAV01@@Z
  ??0Bind@DirectUI@@QAE@ABV01@@Z="C:\Windows\SysWOW64\dui70".??0Bind@DirectUI@@QAE@ABV01@@Z
  ??0Bind@DirectUI@@QAE@XZ="C:\Windows\SysWOW64\dui70".??0Bind@DirectUI@@QAE@XZ
  ??0BorderLayout@DirectUI@@QAE@ABV01@@Z="C:\Windows\SysWOW64\dui70".??0BorderLayout@DirectUI@@QAE@ABV01@@Z
  ??0BorderLayout@DirectUI@@QAE@XZ="C:\Windows\SysWOW64\dui70".??0BorderLayout@DirectUI@@QAE@XZ
  ??0Browser@DirectUI@@QAE@$$QAV01@@Z="C:\Windows\SysWOW64\dui70".??0Browser@DirectUI@@QAE@$$QAV01@@Z
  ??0Browser@DirectUI@@QAE@ABV01@@Z="C:\Windows\SysWOW64\dui70".??0Browser@DirectUI@@QAE@ABV01@@Z
  ??0Browser@DirectUI@@QAE@XZ="C:\Windows\SysWOW64\dui70".??0Browser@DirectUI@@QAE@XZ
  ??0BrowserSelectionProxy@DirectUI@@QAE@$$QAV01@@Z="C:\Windows\SysWOW64\dui70".??0BrowserSelectionProxy@DirectUI@@QAE@$$QAV01@@Z
  ??0BrowserSelectionProxy@DirectUI@@QAE@ABV01@@Z="C:\Windows\SysWOW64\dui70".??0BrowserSelectionProxy@DirectUI@@QAE@ABV01@@Z
  ??0BrowserSelectionProxy@DirectUI@@QAE@XZ="C:\Windows\SysWOW64\dui70".??0BrowserSelectionProxy@DirectUI@@QAE@XZ
  ??0Button@DirectUI@@QAE@ABV01@@Z="C:\Windows\SysWOW64\dui70".??0Button@DirectUI@@QAE@ABV01@@Z
  ??0Button@DirectUI@@QAE@XZ="C:\Windows\SysWOW64\dui70".??0Button@DirectUI@@QAE@XZ
  ??0CCAVI@DirectUI@@QAE@$$QAV01@@Z="C:\Windows\SysWOW64\dui70".??0CCAVI@DirectUI@@QAE@$$QAV01@@Z
  ??0CCAVI@DirectUI@@QAE@ABV01@@Z="C:\Windows\SysWOW64\dui70".??0CCAVI@DirectUI@@QAE@ABV01@@Z
  ??0CCAVI@DirectUI@@QAE@XZ="C:\Windows\SysWOW64\dui70".??0CCAVI@DirectUI@@QAE@XZ
  ??0CCBase@DirectUI@@QAE@ABV01@@Z="C:\Windows\SysWOW64\dui70".??0CCBase@DirectUI@@QAE@ABV01@@Z
  ??0CCBase@DirectUI@@QAE@KPBG@Z="C:\Windows\SysWOW64\dui70".??0CCBase@DirectUI@@QAE@KPBG@Z
  ??0CCBaseCheckRadioButton@DirectUI@@QAE@$$QAV01@@Z="C:\Windows\SysWOW64\dui70".??0CCBaseCheckRadioButton@DirectUI@@QAE@$$QAV01@@Z
  ??0CCBaseCheckRadioButton@DirectUI@@QAE@ABV01@@Z="C:\Windows\SysWOW64\dui70".??0CCBaseCheckRadioButton@DirectUI@@QAE@ABV01@@Z
  ??0CCBaseCheckRadioButton@DirectUI@@QAE@K@Z="C:\Windows\SysWOW64\dui70".??0CCBaseCheckRadioButton@DirectUI@@QAE@K@Z
  ??0CCBaseScrollBar@DirectUI@@QAE@$$QAV01@@Z="C:\Windows\SysWOW64\dui70".??0CCBaseScrollBar@DirectUI@@QAE@$$QAV01@@Z
  ??0CCBaseScrollBar@DirectUI@@QAE@ABV01@@Z="C:\Windows\SysWOW64\dui70".??0CCBaseScrollBar@DirectUI@@QAE@ABV01@@Z
  ??0CCBaseScrollBar@DirectUI@@QAE@K@Z="C:\Windows\SysWOW64\dui70".??0CCBaseScrollBar@DirectUI@@QAE@K@Z
  ??0CCCheckBox@DirectUI@@QAE@$$QAV01@@Z="C:\Windows\SysWOW64\dui70".??0CCCheckBox@DirectUI@@QAE@$$QAV01@@Z
  ??0CCCheckBox@DirectUI@@QAE@ABV01@@Z="C:\Windows\SysWOW64\dui70".??0CCCheckBox@DirectUI@@QAE@ABV01@@Z
  ??0CCCheckBox@DirectUI@@QAE@K@Z="C:\Windows\SysWOW64\dui70".??0CCCheckBox@DirectUI@@QAE@K@Z
  ??0CCCommandLink@DirectUI@@QAE@$$QAV01@@Z="C:\Windows\SysWOW64\dui70".??0CCCommandLink@DirectUI@@QAE@$$QAV01@@Z
  ??0CCCommandLink@DirectUI@@QAE@ABV01@@Z="C:\Windows\SysWOW64\dui70".??0CCCommandLink@DirectUI@@QAE@ABV01@@Z
  ??0CCCommandLink@DirectUI@@QAE@K@Z="C:\Windows\SysWOW64\dui70".??0CCCommandLink@DirectUI@@QAE@K@Z
  ??0CCHScrollBar@DirectUI@@QAE@$$QAV01@@Z="C:\Windows\SysWOW64\dui70".??0CCHScrollBar@DirectUI@@QAE@$$QAV01@@Z
  ??0CCHScrollBar@DirectUI@@QAE@ABV01@@Z="C:\Windows\SysWOW64\dui70".??0CCHScrollBar@DirectUI@@QAE@ABV01@@Z
  ??0CCHScrollBar@DirectUI@@QAE@XZ="C:\Windows\SysWOW64\dui70".??0CCHScrollBar@DirectUI@@QAE@XZ
  ??0CCListBox@DirectUI@@QAE@$$QAV01@@Z="C:\Windows\SysWOW64\dui70".??0CCListBox@DirectUI@@QAE@$$QAV01@@Z
  ??0CCListBox@DirectUI@@QAE@ABV01@@Z="C:\Windows\SysWOW64\dui70".??0CCListBox@DirectUI@@QAE@ABV01@@Z
  ??0CCListBox@DirectUI@@QAE@XZ="C:\Windows\SysWOW64\dui70".??0CCListBox@DirectUI@@QAE@XZ
  ??0CCListView@DirectUI@@QAE@$$QAV01@@Z="C:\Windows\SysWOW64\dui70".??0CCListView@DirectUI@@QAE@$$QAV01@@Z
  ??0CCListView@DirectUI@@QAE@ABV01@@Z="C:\Windows\SysWOW64\dui70".??0CCListView@DirectUI@@QAE@ABV01@@Z
  ??0CCListView@DirectUI@@QAE@XZ="C:\Windows\SysWOW64\dui70".??0CCListView@DirectUI@@QAE@XZ
  ??0CCProgressBar@DirectUI@@QAE@$$QAV01@@Z="C:\Windows\SysWOW64\dui70".??0CCProgressBar@DirectUI@@QAE@$$QAV01@@Z
  ??0CCProgressBar@DirectUI@@QAE@ABV01@@Z="C:\Windows\SysWOW64\dui70".??0CCProgressBar@DirectUI@@QAE@ABV01@@Z
  ??0CCProgressBar@DirectUI@@QAE@XZ="C:\Windows\SysWOW64\dui70".??0CCProgressBar@DirectUI@@QAE@XZ
  ??0CCPushButton@DirectUI@@QAE@$$QAV01@@Z="C:\Windows\SysWOW64\dui70".??0CCPushButton@DirectUI@@QAE@$$QAV01@@Z
  ??0CCPushButton@DirectUI@@QAE@ABV01@@Z="C:\Windows\SysWOW64\dui70".??0CCPushButton@DirectUI@@QAE@ABV01@@Z
  ??0CCPushButton@DirectUI@@QAE@K@Z="C:\Windows\SysWOW64\dui70".??0CCPushButton@DirectUI@@QAE@K@Z
  ??0CCRadioButton@DirectUI@@QAE@$$QAV01@@Z="C:\Windows\SysWOW64\dui70".??0CCRadioButton@DirectUI@@QAE@$$QAV01@@Z
  ??0CCRadioButton@DirectUI@@QAE@ABV01@@Z="C:\Windows\SysWOW64\dui70".??0CCRadioButton@DirectUI@@QAE@ABV01@@Z
  ??0CCRadioButton@DirectUI@@QAE@XZ="C:\Windows\SysWOW64\dui70".??0CCRadioButton@DirectUI@@QAE@XZ
  ??0CCSysLink@DirectUI@@QAE@$$QAV01@@Z="C:\Windows\SysWOW64\dui70".??0CCSysLink@DirectUI@@QAE@$$QAV01@@Z
  ??0CCSysLink@DirectUI@@QAE@ABV01@@Z="C:\Windows\SysWOW64\dui70".??0CCSysLink@DirectUI@@QAE@ABV01@@Z
  ??0CCSysLink@DirectUI@@QAE@XZ="C:\Windows\SysWOW64\dui70".??0CCSysLink@DirectUI@@QAE@XZ
  ??0CCTrackBar@DirectUI@@QAE@$$QAV01@@Z="C:\Windows\SysWOW64\dui70".??0CCTrackBar@DirectUI@@QAE@$$QAV01@@Z
  ??0CCTrackBar@DirectUI@@QAE@ABV01@@Z="C:\Windows\SysWOW64\dui70".??0CCTrackBar@DirectUI@@QAE@ABV01@@Z
  ??0CCTrackBar@DirectUI@@QAE@XZ="C:\Windows\SysWOW64\dui70".??0CCTrackBar@DirectUI@@QAE@XZ
  ??0CCTreeView@DirectUI@@QAE@$$QAV01@@Z="C:\Windows\SysWOW64\dui70".??0CCTreeView@DirectUI@@QAE@$$QAV01@@Z
  ??0CCTreeView@DirectUI@@QAE@ABV01@@Z="C:\Windows\SysWOW64\dui70".??0CCTreeView@DirectUI@@QAE@ABV01@@Z
  ??0CCTreeView@DirectUI@@QAE@K@Z="C:\Windows\SysWOW64\dui70".??0CCTreeView@DirectUI@@QAE@K@Z
  ??0CCVScrollBar@DirectUI@@QAE@$$QAV01@@Z="C:\Windows\SysWOW64\dui70".??0CCVScrollBar@DirectUI@@QAE@$$QAV01@@Z
  ??0CCVScrollBar@DirectUI@@QAE@ABV01@@Z="C:\Windows\SysWOW64\dui70".??0CCVScrollBar@DirectUI@@QAE@ABV01@@Z
  ??0CCVScrollBar@DirectUI@@QAE@XZ="C:\Windows\SysWOW64\dui70".??0CCVScrollBar@DirectUI@@QAE@XZ
  ??0CallstackTracker@DirectUI@@QAE@XZ="C:\Windows\SysWOW64\dui70".??0CallstackTracker@DirectUI@@QAE@XZ
  ??0CheckBoxGlyph@DirectUI@@QAE@ABV01@@Z="C:\Windows\SysWOW64\dui70".??0CheckBoxGlyph@DirectUI@@QAE@ABV01@@Z
  ??0CheckBoxGlyph@DirectUI@@QAE@XZ="C:\Windows\SysWOW64\dui70".??0CheckBoxGlyph@DirectUI@@QAE@XZ
  ??0ClassInfoBase@DirectUI@@QAE@ABV01@@Z="C:\Windows\SysWOW64\dui70".??0ClassInfoBase@DirectUI@@QAE@ABV01@@Z
  ??0ClassInfoBase@DirectUI@@QAE@XZ="C:\Windows\SysWOW64\dui70".??0ClassInfoBase@DirectUI@@QAE@XZ
  ??0Clipper@DirectUI@@QAE@$$QAV01@@Z="C:\Windows\SysWOW64\dui70".??0Clipper@DirectUI@@QAE@$$QAV01@@Z
  ??0Clipper@DirectUI@@QAE@ABV01@@Z="C:\Windows\SysWOW64\dui70".??0Clipper@DirectUI@@QAE@ABV01@@Z
  ??0Clipper@DirectUI@@QAE@XZ="C:\Windows\SysWOW64\dui70".??0Clipper@DirectUI@@QAE@XZ
  ??0Combobox@DirectUI@@QAE@ABV01@@Z="C:\Windows\SysWOW64\dui70".??0Combobox@DirectUI@@QAE@ABV01@@Z
  ??0Combobox@DirectUI@@QAE@XZ="C:\Windows\SysWOW64\dui70".??0Combobox@DirectUI@@QAE@XZ
  ??0CritSecLock@DirectUI@@QAE@PAU_RTL_CRITICAL_SECTION@@@Z="C:\Windows\SysWOW64\dui70".??0CritSecLock@DirectUI@@QAE@PAU_RTL_CRITICAL_SECTION@@@Z
  ??0DCSurface@DirectUI@@QAE@ABV01@@Z="C:\Windows\SysWOW64\dui70".??0DCSurface@DirectUI@@QAE@ABV01@@Z
  ??0DCSurface@DirectUI@@QAE@PAUHDC__@@@Z="C:\Windows\SysWOW64\dui70".??0DCSurface@DirectUI@@QAE@PAUHDC__@@@Z
  ??0DUIFactory@DirectUI@@QAE@PAUHWND__@@@Z="C:\Windows\SysWOW64\dui70".??0DUIFactory@DirectUI@@QAE@PAUHWND__@@@Z
  ??0DUIXmlParser@DirectUI@@QAE@ABV01@@Z="C:\Windows\SysWOW64\dui70".??0DUIXmlParser@DirectUI@@QAE@ABV01@@Z
  ??0DUIXmlParser@DirectUI@@QAE@XZ="C:\Windows\SysWOW64\dui70".??0DUIXmlParser@DirectUI@@QAE@XZ
  ??0DialogElement@DirectUI@@QAE@$$QAV01@@Z="C:\Windows\SysWOW64\dui70".??0DialogElement@DirectUI@@QAE@$$QAV01@@Z
  ??0DialogElement@DirectUI@@QAE@ABV01@@Z="C:\Windows\SysWOW64\dui70".??0DialogElement@DirectUI@@QAE@ABV01@@Z
  ??0DialogElement@DirectUI@@QAE@XZ="C:\Windows\SysWOW64\dui70".??0DialogElement@DirectUI@@QAE@XZ
  ??0DuiAccessible@DirectUI@@QAE@XZ="C:\Windows\SysWOW64\dui70".??0DuiAccessible@DirectUI@@QAE@XZ
  ??0Edit@DirectUI@@QAE@ABV01@@Z="C:\Windows\SysWOW64\dui70".??0Edit@DirectUI@@QAE@ABV01@@Z
  ??0Edit@DirectUI@@QAE@XZ="C:\Windows\SysWOW64\dui70".??0Edit@DirectUI@@QAE@XZ
  ??0Element@DirectUI@@QAE@ABV01@@Z="C:\Windows\SysWOW64\dui70".??0Element@DirectUI@@QAE@ABV01@@Z
  ??0Element@DirectUI@@QAE@XZ="C:\Windows\SysWOW64\dui70".??0Element@DirectUI@@QAE@XZ
  ??0ElementProvider@DirectUI@@QAE@XZ="C:\Windows\SysWOW64\dui70".??0ElementProvider@DirectUI@@QAE@XZ
  ??0ElementProxy@DirectUI@@IAE@XZ="C:\Windows\SysWOW64\dui70".??0ElementProxy@DirectUI@@IAE@XZ
  ??0ElementProxy@DirectUI@@QAE@$$QAV01@@Z="C:\Windows\SysWOW64\dui70".??0ElementProxy@DirectUI@@QAE@$$QAV01@@Z
  ??0ElementProxy@DirectUI@@QAE@ABV01@@Z="C:\Windows\SysWOW64\dui70".??0ElementProxy@DirectUI@@QAE@ABV01@@Z
  ??0ElementWithHWND@DirectUI@@QAE@$$QAV01@@Z="C:\Windows\SysWOW64\dui70".??0ElementWithHWND@DirectUI@@QAE@$$QAV01@@Z
  ??0ElementWithHWND@DirectUI@@QAE@ABV01@@Z="C:\Windows\SysWOW64\dui70".??0ElementWithHWND@DirectUI@@QAE@ABV01@@Z
  ??0ElementWithHWND@DirectUI@@QAE@XZ="C:\Windows\SysWOW64\dui70".??0ElementWithHWND@DirectUI@@QAE@XZ
  ??0ExpandCollapseProvider@DirectUI@@QAE@XZ="C:\Windows\SysWOW64\dui70".??0ExpandCollapseProvider@DirectUI@@QAE@XZ
  ??0ExpandCollapseProxy@DirectUI@@QAE@$$QAV01@@Z="C:\Windows\SysWOW64\dui70".??0ExpandCollapseProxy@DirectUI@@QAE@$$QAV01@@Z
  ??0ExpandCollapseProxy@DirectUI@@QAE@ABV01@@Z="C:\Windows\SysWOW64\dui70".??0ExpandCollapseProxy@DirectUI@@QAE@ABV01@@Z
  ??0ExpandCollapseProxy@DirectUI@@QAE@XZ="C:\Windows\SysWOW64\dui70".??0ExpandCollapseProxy@DirectUI@@QAE@XZ
  ??0Expandable@DirectUI@@QAE@$$QAV01@@Z="C:\Windows\SysWOW64\dui70".??0Expandable@DirectUI@@QAE@$$QAV01@@Z
  ??0Expandable@DirectUI@@QAE@ABV01@@Z="C:\Windows\SysWOW64\dui70".??0Expandable@DirectUI@@QAE@ABV01@@Z
  ??0Expandable@DirectUI@@QAE@XZ="C:\Windows\SysWOW64\dui70".??0Expandable@DirectUI@@QAE@XZ
  ??0Expando@DirectUI@@QAE@$$QAV01@@Z="C:\Windows\SysWOW64\dui70".??0Expando@DirectUI@@QAE@$$QAV01@@Z
  ??0Expando@DirectUI@@QAE@ABV01@@Z="C:\Windows\SysWOW64\dui70".??0Expando@DirectUI@@QAE@ABV01@@Z
  ??0Expando@DirectUI@@QAE@XZ="C:\Windows\SysWOW64\dui70".??0Expando@DirectUI@@QAE@XZ
  ??0ExpandoButtonGlyph@DirectUI@@QAE@ABV01@@Z="C:\Windows\SysWOW64\dui70".??0ExpandoButtonGlyph@DirectUI@@QAE@ABV01@@Z
  ??0ExpandoButtonGlyph@DirectUI@@QAE@XZ="C:\Windows\SysWOW64\dui70".??0ExpandoButtonGlyph@DirectUI@@QAE@XZ
  ??0FillLayout@DirectUI@@QAE@ABV01@@Z="C:\Windows\SysWOW64\dui70".??0FillLayout@DirectUI@@QAE@ABV01@@Z
  ??0FillLayout@DirectUI@@QAE@XZ="C:\Windows\SysWOW64\dui70".??0FillLayout@DirectUI@@QAE@XZ
  ??0FlowLayout@DirectUI@@QAE@ABV01@@Z="C:\Windows\SysWOW64\dui70".??0FlowLayout@DirectUI@@QAE@ABV01@@Z
  ??0FlowLayout@DirectUI@@QAE@XZ="C:\Windows\SysWOW64\dui70".??0FlowLayout@DirectUI@@QAE@XZ
  ??0FontCache@DirectUI@@QAE@$$QAV01@@Z="C:\Windows\SysWOW64\dui70".??0FontCache@DirectUI@@QAE@$$QAV01@@Z
  ??0FontCache@DirectUI@@QAE@ABV01@@Z="C:\Windows\SysWOW64\dui70".??0FontCache@DirectUI@@QAE@ABV01@@Z
  ??0FontCache@DirectUI@@QAE@XZ="C:\Windows\SysWOW64\dui70".??0FontCache@DirectUI@@QAE@XZ
  ??0FontCheckOut@DirectUI@@QAE@PAVElement@1@PAUHDC__@@@Z="C:\Windows\SysWOW64\dui70".??0FontCheckOut@DirectUI@@QAE@PAVElement@1@PAUHDC__@@@Z
  ??0GridItemProvider@DirectUI@@QAE@XZ="C:\Windows\SysWOW64\dui70".??0GridItemProvider@DirectUI@@QAE@XZ
  ??0GridItemProxy@DirectUI@@QAE@$$QAV01@@Z="C:\Windows\SysWOW64\dui70".??0GridItemProxy@DirectUI@@QAE@$$QAV01@@Z
  ??0GridItemProxy@DirectUI@@QAE@ABV01@@Z="C:\Windows\SysWOW64\dui70".??0GridItemProxy@DirectUI@@QAE@ABV01@@Z
  ??0GridItemProxy@DirectUI@@QAE@XZ="C:\Windows\SysWOW64\dui70".??0GridItemProxy@DirectUI@@QAE@XZ
  ??0GridLayout@DirectUI@@QAE@ABV01@@Z="C:\Windows\SysWOW64\dui70".??0GridLayout@DirectUI@@QAE@ABV01@@Z
  ??0GridLayout@DirectUI@@QAE@XZ="C:\Windows\SysWOW64\dui70".??0GridLayout@DirectUI@@QAE@XZ
  ??0GridProvider@DirectUI@@QAE@XZ="C:\Windows\SysWOW64\dui70".??0GridProvider@DirectUI@@QAE@XZ
  ??0GridProxy@DirectUI@@QAE@$$QAV01@@Z="C:\Windows\SysWOW64\dui70".??0GridProxy@DirectUI@@QAE@$$QAV01@@Z
  ??0GridProxy@DirectUI@@QAE@ABV01@@Z="C:\Windows\SysWOW64\dui70".??0GridProxy@DirectUI@@QAE@ABV01@@Z
  ??0GridProxy@DirectUI@@QAE@XZ="C:\Windows\SysWOW64\dui70".??0GridProxy@DirectUI@@QAE@XZ
  ??0HWNDElement@DirectUI@@QAE@ABV01@@Z="C:\Windows\SysWOW64\dui70".??0HWNDElement@DirectUI@@QAE@ABV01@@Z
  ??0HWNDElement@DirectUI@@QAE@XZ="C:\Windows\SysWOW64\dui70".??0HWNDElement@DirectUI@@QAE@XZ
  ??0HWNDElementAccessible@DirectUI@@QAE@XZ="C:\Windows\SysWOW64\dui70".??0HWNDElementAccessible@DirectUI@@QAE@XZ
  ??0HWNDElementProvider@DirectUI@@QAE@XZ="C:\Windows\SysWOW64\dui70".??0HWNDElementProvider@DirectUI@@QAE@XZ
  ??0HWNDElementProxy@DirectUI@@IAE@XZ="C:\Windows\SysWOW64\dui70".??0HWNDElementProxy@DirectUI@@IAE@XZ
  ??0HWNDElementProxy@DirectUI@@QAE@$$QAV01@@Z="C:\Windows\SysWOW64\dui70".??0HWNDElementProxy@DirectUI@@QAE@$$QAV01@@Z
  ??0HWNDElementProxy@DirectUI@@QAE@ABV01@@Z="C:\Windows\SysWOW64\dui70".??0HWNDElementProxy@DirectUI@@QAE@ABV01@@Z
  ??0HWNDHost@DirectUI@@QAE@ABV01@@Z="C:\Windows\SysWOW64\dui70".??0HWNDHost@DirectUI@@QAE@ABV01@@Z
  ??0HWNDHost@DirectUI@@QAE@XZ="C:\Windows\SysWOW64\dui70".??0HWNDHost@DirectUI@@QAE@XZ
  ??0HWNDHostAccessible@DirectUI@@QAE@XZ="C:\Windows\SysWOW64\dui70".??0HWNDHostAccessible@DirectUI@@QAE@XZ
  ??0HWNDHostClientAccessible@DirectUI@@QAE@XZ="C:\Windows\SysWOW64\dui70".??0HWNDHostClientAccessible@DirectUI@@QAE@XZ
  ??0IDataEngine@DirectUI@@QAE@ABU01@@Z="C:\Windows\SysWOW64\dui70".??0IDataEngine@DirectUI@@QAE@ABU01@@Z
  ??0IDataEngine@DirectUI@@QAE@XZ="C:\Windows\SysWOW64\dui70".??0IDataEngine@DirectUI@@QAE@XZ
  ??0IDataEntry@DirectUI@@QAE@ABU01@@Z="C:\Windows\SysWOW64\dui70".??0IDataEntry@DirectUI@@QAE@ABU01@@Z
  ??0IDataEntry@DirectUI@@QAE@XZ="C:\Windows\SysWOW64\dui70".??0IDataEntry@DirectUI@@QAE@XZ
  ??0IProvider@DirectUI@@QAE@$$QAV01@@Z="C:\Windows\SysWOW64\dui70".??0IProvider@DirectUI@@QAE@$$QAV01@@Z
  ??0IProvider@DirectUI@@QAE@ABV01@@Z="C:\Windows\SysWOW64\dui70".??0IProvider@DirectUI@@QAE@ABV01@@Z
  ??0IProvider@DirectUI@@QAE@XZ="C:\Windows\SysWOW64\dui70".??0IProvider@DirectUI@@QAE@XZ
  ??0ISBLeak@DirectUI@@QAE@$$QAU01@@Z="C:\Windows\SysWOW64\dui70".??0ISBLeak@DirectUI@@QAE@$$QAU01@@Z
  ??0ISBLeak@DirectUI@@QAE@ABU01@@Z="C:\Windows\SysWOW64\dui70".??0ISBLeak@DirectUI@@QAE@ABU01@@Z
  ??0ISBLeak@DirectUI@@QAE@XZ="C:\Windows\SysWOW64\dui70".??0ISBLeak@DirectUI@@QAE@XZ
  ??0IXElementCP@DirectUI@@QAE@$$QAV01@@Z="C:\Windows\SysWOW64\dui70".??0IXElementCP@DirectUI@@QAE@$$QAV01@@Z
  ??0IXElementCP@DirectUI@@QAE@ABV01@@Z="C:\Windows\SysWOW64\dui70".??0IXElementCP@DirectUI@@QAE@ABV01@@Z
  ??0IXElementCP@DirectUI@@QAE@XZ="C:\Windows\SysWOW64\dui70".??0IXElementCP@DirectUI@@QAE@XZ
  ??0IXProviderCP@DirectUI@@QAE@$$QAV01@@Z="C:\Windows\SysWOW64\dui70".??0IXProviderCP@DirectUI@@QAE@$$QAV01@@Z
  ??0IXProviderCP@DirectUI@@QAE@ABV01@@Z="C:\Windows\SysWOW64\dui70".??0IXProviderCP@DirectUI@@QAE@ABV01@@Z
  ??0IXProviderCP@DirectUI@@QAE@XZ="C:\Windows\SysWOW64\dui70".??0IXProviderCP@DirectUI@@QAE@XZ
  ??0InvokeHelper@DirectUI@@QAE@XZ="C:\Windows\SysWOW64\dui70".??0InvokeHelper@DirectUI@@QAE@XZ
  ??0InvokeProvider@DirectUI@@QAE@XZ="C:\Windows\SysWOW64\dui70".??0InvokeProvider@DirectUI@@QAE@XZ
  ??0InvokeProxy@DirectUI@@QAE@$$QAV01@@Z="C:\Windows\SysWOW64\dui70".??0InvokeProxy@DirectUI@@QAE@$$QAV01@@Z
  ??0InvokeProxy@DirectUI@@QAE@ABV01@@Z="C:\Windows\SysWOW64\dui70".??0InvokeProxy@DirectUI@@QAE@ABV01@@Z
  ??0InvokeProxy@DirectUI@@QAE@XZ="C:\Windows\SysWOW64\dui70".??0InvokeProxy@DirectUI@@QAE@XZ
  ??0ItemList@DirectUI@@QAE@XZ="C:\Windows\SysWOW64\dui70".??0ItemList@DirectUI@@QAE@XZ
  ??0Layout@DirectUI@@QAE@ABV01@@Z="C:\Windows\SysWOW64\dui70".??0Layout@DirectUI@@QAE@ABV01@@Z
  ??0Layout@DirectUI@@QAE@XZ="C:\Windows\SysWOW64\dui70".??0Layout@DirectUI@@QAE@XZ
  ??0LinkedList@DirectUI@@QAE@XZ="C:\Windows\SysWOW64\dui70".??0LinkedList@DirectUI@@QAE@XZ
  ??0Macro@DirectUI@@QAE@$$QAV01@@Z="C:\Windows\SysWOW64\dui70".??0Macro@DirectUI@@QAE@$$QAV01@@Z
  ??0Macro@DirectUI@@QAE@ABV01@@Z="C:\Windows\SysWOW64\dui70".??0Macro@DirectUI@@QAE@ABV01@@Z
  ??0Macro@DirectUI@@QAE@XZ="C:\Windows\SysWOW64\dui70".??0Macro@DirectUI@@QAE@XZ
  ??0ModernProgressBar@DirectUI@@QAE@XZ="C:\Windows\SysWOW64\dui70".??0ModernProgressBar@DirectUI@@QAE@XZ
  ??0ModernProgressBarRangeValueProxy@DirectUI@@QAE@$$QAV01@@Z="C:\Windows\SysWOW64\dui70".??0ModernProgressBarRangeValueProxy@DirectUI@@QAE@$$QAV01@@Z
  ??0ModernProgressBarRangeValueProxy@DirectUI@@QAE@ABV01@@Z="C:\Windows\SysWOW64\dui70".??0ModernProgressBarRangeValueProxy@DirectUI@@QAE@ABV01@@Z
  ??0ModernProgressBarRangeValueProxy@DirectUI@@QAE@XZ="C:\Windows\SysWOW64\dui70".??0ModernProgressBarRangeValueProxy@DirectUI@@QAE@XZ
  ??0ModernProgressRing@DirectUI@@QAE@XZ="C:\Windows\SysWOW64\dui70".??0ModernProgressRing@DirectUI@@QAE@XZ
  ??0Movie@DirectUI@@QAE@ABV01@@Z="C:\Windows\SysWOW64\dui70".??0Movie@DirectUI@@QAE@ABV01@@Z
  ??0Movie@DirectUI@@QAE@XZ="C:\Windows\SysWOW64\dui70".??0Movie@DirectUI@@QAE@XZ
  ??0NativeHWNDHost@DirectUI@@QAE@ABV01@@Z="C:\Windows\SysWOW64\dui70".??0NativeHWNDHost@DirectUI@@QAE@ABV01@@Z
  ??0NativeHWNDHost@DirectUI@@QAE@XZ="C:\Windows\SysWOW64\dui70".??0NativeHWNDHost@DirectUI@@QAE@XZ
  ??0Navigator@DirectUI@@QAE@$$QAV01@@Z="C:\Windows\SysWOW64\dui70".??0Navigator@DirectUI@@QAE@$$QAV01@@Z
  ??0Navigator@DirectUI@@QAE@ABV01@@Z="C:\Windows\SysWOW64\dui70".??0Navigator@DirectUI@@QAE@ABV01@@Z
  ??0Navigator@DirectUI@@QAE@XZ="C:\Windows\SysWOW64\dui70".??0Navigator@DirectUI@@QAE@XZ
  ??0NavigatorSelectionItemProxy@DirectUI@@QAE@$$QAV01@@Z="C:\Windows\SysWOW64\dui70".??0NavigatorSelectionItemProxy@DirectUI@@QAE@$$QAV01@@Z
  ??0NavigatorSelectionItemProxy@DirectUI@@QAE@ABV01@@Z="C:\Windows\SysWOW64\dui70".??0NavigatorSelectionItemProxy@DirectUI@@QAE@ABV01@@Z
  ??0NavigatorSelectionItemProxy@DirectUI@@QAE@XZ="C:\Windows\SysWOW64\dui70".??0NavigatorSelectionItemProxy@DirectUI@@QAE@XZ
  ??0NineGridLayout@DirectUI@@QAE@ABV01@@Z="C:\Windows\SysWOW64\dui70".??0NineGridLayout@DirectUI@@QAE@ABV01@@Z
  ??0NineGridLayout@DirectUI@@QAE@XZ="C:\Windows\SysWOW64\dui70".??0NineGridLayout@DirectUI@@QAE@XZ
  ??0PText@DirectUI@@QAE@ABV01@@Z="C:\Windows\SysWOW64\dui70".??0PText@DirectUI@@QAE@ABV01@@Z
  ??0PText@DirectUI@@QAE@XZ="C:\Windows\SysWOW64\dui70".??0PText@DirectUI@@QAE@XZ
  ??0Page@DirectUI@@QAE@$$QAV01@@Z="C:\Windows\SysWOW64\dui70".??0Page@DirectUI@@QAE@$$QAV01@@Z
  ??0Page@DirectUI@@QAE@ABV01@@Z="C:\Windows\SysWOW64\dui70".??0Page@DirectUI@@QAE@ABV01@@Z
  ??0Page@DirectUI@@QAE@XZ="C:\Windows\SysWOW64\dui70".??0Page@DirectUI@@QAE@XZ
  ??0Pages@DirectUI@@QAE@$$QAV01@@Z="C:\Windows\SysWOW64\dui70".??0Pages@DirectUI@@QAE@$$QAV01@@Z
  ??0Pages@DirectUI@@QAE@ABV01@@Z="C:\Windows\SysWOW64\dui70".??0Pages@DirectUI@@QAE@ABV01@@Z
  ??0Pages@DirectUI@@QAE@XZ="C:\Windows\SysWOW64\dui70".??0Pages@DirectUI@@QAE@XZ
  ??0Progress@DirectUI@@QAE@ABV01@@Z="C:\Windows\SysWOW64\dui70".??0Progress@DirectUI@@QAE@ABV01@@Z
  ??0Progress@DirectUI@@QAE@XZ="C:\Windows\SysWOW64\dui70".??0Progress@DirectUI@@QAE@XZ
  ??0ProgressRangeValueProxy@DirectUI@@QAE@$$QAV01@@Z="C:\Windows\SysWOW64\dui70".??0ProgressRangeValueProxy@DirectUI@@QAE@$$QAV01@@Z
  ??0ProgressRangeValueProxy@DirectUI@@QAE@ABV01@@Z="C:\Windows\SysWOW64\dui70".??0ProgressRangeValueProxy@DirectUI@@QAE@ABV01@@Z
  ??0ProgressRangeValueProxy@DirectUI@@QAE@XZ="C:\Windows\SysWOW64\dui70".??0ProgressRangeValueProxy@DirectUI@@QAE@XZ
  ??0ProviderProxy@DirectUI@@IAE@XZ="C:\Windows\SysWOW64\dui70".??0ProviderProxy@DirectUI@@IAE@XZ
  ??0ProviderProxy@DirectUI@@QAE@$$QAV01@@Z="C:\Windows\SysWOW64\dui70".??0ProviderProxy@DirectUI@@QAE@$$QAV01@@Z
  ??0ProviderProxy@DirectUI@@QAE@ABV01@@Z="C:\Windows\SysWOW64\dui70".??0ProviderProxy@DirectUI@@QAE@ABV01@@Z
  ??0Proxy@DirectUI@@QAE@ABV01@@Z="C:\Windows\SysWOW64\dui70".??0Proxy@DirectUI@@QAE@ABV01@@Z
  ??0Proxy@DirectUI@@QAE@XZ="C:\Windows\SysWOW64\dui70".??0Proxy@DirectUI@@QAE@XZ
  ??0PushButton@DirectUI@@QAE@$$QAV01@@Z="C:\Windows\SysWOW64\dui70".??0PushButton@DirectUI@@QAE@$$QAV01@@Z
  ??0PushButton@DirectUI@@QAE@ABV01@@Z="C:\Windows\SysWOW64\dui70".??0PushButton@DirectUI@@QAE@ABV01@@Z
  ??0PushButton@DirectUI@@QAE@XZ="C:\Windows\SysWOW64\dui70".??0PushButton@DirectUI@@QAE@XZ
  ??0RadioButtonGlyph@DirectUI@@QAE@ABV01@@Z="C:\Windows\SysWOW64\dui70".??0RadioButtonGlyph@DirectUI@@QAE@ABV01@@Z
  ??0RadioButtonGlyph@DirectUI@@QAE@XZ="C:\Windows\SysWOW64\dui70".??0RadioButtonGlyph@DirectUI@@QAE@XZ
  ??0RangeValueProvider@DirectUI@@QAE@XZ="C:\Windows\SysWOW64\dui70".??0RangeValueProvider@DirectUI@@QAE@XZ
  ??0RangeValueProxy@DirectUI@@IAE@XZ="C:\Windows\SysWOW64\dui70".??0RangeValueProxy@DirectUI@@IAE@XZ
  ??0RangeValueProxy@DirectUI@@QAE@$$QAV01@@Z="C:\Windows\SysWOW64\dui70".??0RangeValueProxy@DirectUI@@QAE@$$QAV01@@Z
  ??0RangeValueProxy@DirectUI@@QAE@ABV01@@Z="C:\Windows\SysWOW64\dui70".??0RangeValueProxy@DirectUI@@QAE@ABV01@@Z
  ??0RefPointElement@DirectUI@@QAE@ABV01@@Z="C:\Windows\SysWOW64\dui70".??0RefPointElement@DirectUI@@QAE@ABV01@@Z
  ??0RefPointElement@DirectUI@@QAE@XZ="C:\Windows\SysWOW64\dui70".??0RefPointElement@DirectUI@@QAE@XZ
  ??0RefcountBase@DirectUI@@QAE@XZ="C:\Windows\SysWOW64\dui70".??0RefcountBase@DirectUI@@QAE@XZ
  ??0RepeatButton@DirectUI@@QAE@ABV01@@Z="C:\Windows\SysWOW64\dui70".??0RepeatButton@DirectUI@@QAE@ABV01@@Z
  ??0RepeatButton@DirectUI@@QAE@XZ="C:\Windows\SysWOW64\dui70".??0RepeatButton@DirectUI@@QAE@XZ
  ??0Repeater@DirectUI@@QAE@$$QAV01@@Z="C:\Windows\SysWOW64\dui70".??0Repeater@DirectUI@@QAE@$$QAV01@@Z
  ??0Repeater@DirectUI@@QAE@ABV01@@Z="C:\Windows\SysWOW64\dui70".??0Repeater@DirectUI@@QAE@ABV01@@Z
  ??0Repeater@DirectUI@@QAE@XZ="C:\Windows\SysWOW64\dui70".??0Repeater@DirectUI@@QAE@XZ
  ??0ResourceModuleHandles@DirectUI@@QAE@XZ="C:\Windows\SysWOW64\dui70".??0ResourceModuleHandles@DirectUI@@QAE@XZ
  ??0RichText@DirectUI@@QAE@XZ="C:\Windows\SysWOW64\dui70".??0RichText@DirectUI@@QAE@XZ
  ??0RowLayout@DirectUI@@QAE@ABV01@@Z="C:\Windows\SysWOW64\dui70".??0RowLayout@DirectUI@@QAE@ABV01@@Z
  ??0RowLayout@DirectUI@@QAE@XZ="C:\Windows\SysWOW64\dui70".??0RowLayout@DirectUI@@QAE@XZ
  ??0ScrollBar@DirectUI@@QAE@ABV01@@Z="C:\Windows\SysWOW64\dui70".??0ScrollBar@DirectUI@@QAE@ABV01@@Z
  ??0ScrollBar@DirectUI@@QAE@XZ="C:\Windows\SysWOW64\dui70".??0ScrollBar@DirectUI@@QAE@XZ
  ??0ScrollBarRangeValueProxy@DirectUI@@QAE@$$QAV01@@Z="C:\Windows\SysWOW64\dui70".??0ScrollBarRangeValueProxy@DirectUI@@QAE@$$QAV01@@Z
  ??0ScrollBarRangeValueProxy@DirectUI@@QAE@ABV01@@Z="C:\Windows\SysWOW64\dui70".??0ScrollBarRangeValueProxy@DirectUI@@QAE@ABV01@@Z
  ??0ScrollBarRangeValueProxy@DirectUI@@QAE@XZ="C:\Windows\SysWOW64\dui70".??0ScrollBarRangeValueProxy@DirectUI@@QAE@XZ
  ??0ScrollItemProvider@DirectUI@@QAE@XZ="C:\Windows\SysWOW64\dui70".??0ScrollItemProvider@DirectUI@@QAE@XZ
  ??0ScrollItemProxy@DirectUI@@QAE@$$QAV01@@Z="C:\Windows\SysWOW64\dui70".??0ScrollItemProxy@DirectUI@@QAE@$$QAV01@@Z
  ??0ScrollItemProxy@DirectUI@@QAE@ABV01@@Z="C:\Windows\SysWOW64\dui70".??0ScrollItemProxy@DirectUI@@QAE@ABV01@@Z
  ??0ScrollItemProxy@DirectUI@@QAE@XZ="C:\Windows\SysWOW64\dui70".??0ScrollItemProxy@DirectUI@@QAE@XZ
  ??0ScrollProvider@DirectUI@@QAE@XZ="C:\Windows\SysWOW64\dui70".??0ScrollProvider@DirectUI@@QAE@XZ
  ??0ScrollProxy@DirectUI@@QAE@$$QAV01@@Z="C:\Windows\SysWOW64\dui70".??0ScrollProxy@DirectUI@@QAE@$$QAV01@@Z
  ??0ScrollProxy@DirectUI@@QAE@ABV01@@Z="C:\Windows\SysWOW64\dui70".??0ScrollProxy@DirectUI@@QAE@ABV01@@Z
  ??0ScrollProxy@DirectUI@@QAE@XZ="C:\Windows\SysWOW64\dui70".??0ScrollProxy@DirectUI@@QAE@XZ
  ??0ScrollViewer@DirectUI@@QAE@ABV01@@Z="C:\Windows\SysWOW64\dui70".??0ScrollViewer@DirectUI@@QAE@ABV01@@Z
  ??0ScrollViewer@DirectUI@@QAE@XZ="C:\Windows\SysWOW64\dui70".??0ScrollViewer@DirectUI@@QAE@XZ
  ??0SelectionItemProvider@DirectUI@@QAE@XZ="C:\Windows\SysWOW64\dui70".??0SelectionItemProvider@DirectUI@@QAE@XZ
  ??0SelectionItemProxy@DirectUI@@IAE@XZ="C:\Windows\SysWOW64\dui70".??0SelectionItemProxy@DirectUI@@IAE@XZ
  ??0SelectionItemProxy@DirectUI@@QAE@$$QAV01@@Z="C:\Windows\SysWOW64\dui70".??0SelectionItemProxy@DirectUI@@QAE@$$QAV01@@Z
  ??0SelectionItemProxy@DirectUI@@QAE@ABV01@@Z="C:\Windows\SysWOW64\dui70".??0SelectionItemProxy@DirectUI@@QAE@ABV01@@Z
  ??0SelectionProvider@DirectUI@@QAE@XZ="C:\Windows\SysWOW64\dui70".??0SelectionProvider@DirectUI@@QAE@XZ
  ??0SelectionProxy@DirectUI@@IAE@XZ="C:\Windows\SysWOW64\dui70".??0SelectionProxy@DirectUI@@IAE@XZ
  ??0SelectionProxy@DirectUI@@QAE@$$QAV01@@Z="C:\Windows\SysWOW64\dui70".??0SelectionProxy@DirectUI@@QAE@$$QAV01@@Z
  ??0SelectionProxy@DirectUI@@QAE@ABV01@@Z="C:\Windows\SysWOW64\dui70".??0SelectionProxy@DirectUI@@QAE@ABV01@@Z
  ??0Selector@DirectUI@@QAE@ABV01@@Z="C:\Windows\SysWOW64\dui70".??0Selector@DirectUI@@QAE@ABV01@@Z
  ??0Selector@DirectUI@@QAE@XZ="C:\Windows\SysWOW64\dui70".??0Selector@DirectUI@@QAE@XZ
  ??0SelectorNoDefault@DirectUI@@QAE@$$QAV01@@Z="C:\Windows\SysWOW64\dui70".??0SelectorNoDefault@DirectUI@@QAE@$$QAV01@@Z
  ??0SelectorNoDefault@DirectUI@@QAE@ABV01@@Z="C:\Windows\SysWOW64\dui70".??0SelectorNoDefault@DirectUI@@QAE@ABV01@@Z
  ??0SelectorNoDefault@DirectUI@@QAE@XZ="C:\Windows\SysWOW64\dui70".??0SelectorNoDefault@DirectUI@@QAE@XZ
  ??0SelectorSelectionItemProxy@DirectUI@@QAE@$$QAV01@@Z="C:\Windows\SysWOW64\dui70".??0SelectorSelectionItemProxy@DirectUI@@QAE@$$QAV01@@Z
  ??0SelectorSelectionItemProxy@DirectUI@@QAE@ABV01@@Z="C:\Windows\SysWOW64\dui70".??0SelectorSelectionItemProxy@DirectUI@@QAE@ABV01@@Z
  ??0SelectorSelectionItemProxy@DirectUI@@QAE@XZ="C:\Windows\SysWOW64\dui70".??0SelectorSelectionItemProxy@DirectUI@@QAE@XZ
  ??0SelectorSelectionProxy@DirectUI@@QAE@$$QAV01@@Z="C:\Windows\SysWOW64\dui70".??0SelectorSelectionProxy@DirectUI@@QAE@$$QAV01@@Z
  ??0SelectorSelectionProxy@DirectUI@@QAE@ABV01@@Z="C:\Windows\SysWOW64\dui70".??0SelectorSelectionProxy@DirectUI@@QAE@ABV01@@Z
  ??0SelectorSelectionProxy@DirectUI@@QAE@XZ="C:\Windows\SysWOW64\dui70".??0SelectorSelectionProxy@DirectUI@@QAE@XZ
  ??0ShellBorderLayout@DirectUI@@QAE@ABV01@@Z="C:\Windows\SysWOW64\dui70".??0ShellBorderLayout@DirectUI@@QAE@ABV01@@Z
  ??0ShellBorderLayout@DirectUI@@QAE@XZ="C:\Windows\SysWOW64\dui70".??0ShellBorderLayout@DirectUI@@QAE@XZ
  ??0StyleSheet@DirectUI@@QAE@$$QAV01@@Z="C:\Windows\SysWOW64\dui70".??0StyleSheet@DirectUI@@QAE@$$QAV01@@Z
  ??0StyleSheet@DirectUI@@QAE@ABV01@@Z="C:\Windows\SysWOW64\dui70".??0StyleSheet@DirectUI@@QAE@ABV01@@Z
  ??0StyleSheet@DirectUI@@QAE@XZ="C:\Windows\SysWOW64\dui70".??0StyleSheet@DirectUI@@QAE@XZ
  ??0StyledScrollViewer@DirectUI@@QAE@ABV01@@Z="C:\Windows\SysWOW64\dui70".??0StyledScrollViewer@DirectUI@@QAE@ABV01@@Z
  ??0StyledScrollViewer@DirectUI@@QAE@XZ="C:\Windows\SysWOW64\dui70".??0StyledScrollViewer@DirectUI@@QAE@XZ
  ??0Surface@DirectUI@@QAE@ABV01@@Z="C:\Windows\SysWOW64\dui70".??0Surface@DirectUI@@QAE@ABV01@@Z
  ??0Surface@DirectUI@@QAE@XZ="C:\Windows\SysWOW64\dui70".??0Surface@DirectUI@@QAE@XZ
  ??0TableItemProvider@DirectUI@@QAE@XZ="C:\Windows\SysWOW64\dui70".??0TableItemProvider@DirectUI@@QAE@XZ
  ??0TableItemProxy@DirectUI@@QAE@$$QAV01@@Z="C:\Windows\SysWOW64\dui70".??0TableItemProxy@DirectUI@@QAE@$$QAV01@@Z
  ??0TableItemProxy@DirectUI@@QAE@ABV01@@Z="C:\Windows\SysWOW64\dui70".??0TableItemProxy@DirectUI@@QAE@ABV01@@Z
  ??0TableItemProxy@DirectUI@@QAE@XZ="C:\Windows\SysWOW64\dui70".??0TableItemProxy@DirectUI@@QAE@XZ
  ??0TableLayout@DirectUI@@QAE@ABV01@@Z="C:\Windows\SysWOW64\dui70".??0TableLayout@DirectUI@@QAE@ABV01@@Z
  ??0TableLayout@DirectUI@@QAE@XZ="C:\Windows\SysWOW64\dui70".??0TableLayout@DirectUI@@QAE@XZ
  ??0TableProvider@DirectUI@@QAE@XZ="C:\Windows\SysWOW64\dui70".??0TableProvider@DirectUI@@QAE@XZ
  ??0TableProxy@DirectUI@@QAE@$$QAV01@@Z="C:\Windows\SysWOW64\dui70".??0TableProxy@DirectUI@@QAE@$$QAV01@@Z
  ??0TableProxy@DirectUI@@QAE@ABV01@@Z="C:\Windows\SysWOW64\dui70".??0TableProxy@DirectUI@@QAE@ABV01@@Z
  ??0TableProxy@DirectUI@@QAE@XZ="C:\Windows\SysWOW64\dui70".??0TableProxy@DirectUI@@QAE@XZ
  ??0TaskPage@DirectUI@@QAE@ABV01@@Z="C:\Windows\SysWOW64\dui70".??0TaskPage@DirectUI@@QAE@ABV01@@Z
  ??0TaskPage@DirectUI@@QAE@XZ="C:\Windows\SysWOW64\dui70".??0TaskPage@DirectUI@@QAE@XZ
  ??0TextGraphic@DirectUI@@QAE@$$QAV01@@Z="C:\Windows\SysWOW64\dui70".??0TextGraphic@DirectUI@@QAE@$$QAV01@@Z
  ??0TextGraphic@DirectUI@@QAE@ABV01@@Z="C:\Windows\SysWOW64\dui70".??0TextGraphic@DirectUI@@QAE@ABV01@@Z
  ??0TextGraphic@DirectUI@@QAE@XZ="C:\Windows\SysWOW64\dui70".??0TextGraphic@DirectUI@@QAE@XZ
  ??0Thumb@DirectUI@@QAE@ABV01@@Z="C:\Windows\SysWOW64\dui70".??0Thumb@DirectUI@@QAE@ABV01@@Z
  ??0Thumb@DirectUI@@QAE@XZ="C:\Windows\SysWOW64\dui70".??0Thumb@DirectUI@@QAE@XZ
  ??0ToggleProvider@DirectUI@@QAE@XZ="C:\Windows\SysWOW64\dui70".??0ToggleProvider@DirectUI@@QAE@XZ
  ??0ToggleProxy@DirectUI@@QAE@$$QAV01@@Z="C:\Windows\SysWOW64\dui70".??0ToggleProxy@DirectUI@@QAE@$$QAV01@@Z
  ??0ToggleProxy@DirectUI@@QAE@ABV01@@Z="C:\Windows\SysWOW64\dui70".??0ToggleProxy@DirectUI@@QAE@ABV01@@Z
  ??0ToggleProxy@DirectUI@@QAE@XZ="C:\Windows\SysWOW64\dui70".??0ToggleProxy@DirectUI@@QAE@XZ
  ??0TouchButton@DirectUI@@QAE@XZ="C:\Windows\SysWOW64\dui70".??0TouchButton@DirectUI@@QAE@XZ
  ??0TouchCheckBox@DirectUI@@QAE@XZ="C:\Windows\SysWOW64\dui70".??0TouchCheckBox@DirectUI@@QAE@XZ
  ??0TouchCheckBoxGlyph@DirectUI@@QAE@XZ="C:\Windows\SysWOW64\dui70".??0TouchCheckBoxGlyph@DirectUI@@QAE@XZ
  ??0TouchCommandButton@DirectUI@@QAE@XZ="C:\Windows\SysWOW64\dui70".??0TouchCommandButton@DirectUI@@QAE@XZ
  ??0TouchEdit2@DirectUI@@QAE@XZ="C:\Windows\SysWOW64\dui70".??0TouchEdit2@DirectUI@@QAE@XZ
  ??0TouchHWNDElement@DirectUI@@QAE@XZ="C:\Windows\SysWOW64\dui70".??0TouchHWNDElement@DirectUI@@QAE@XZ
  ??0TouchHyperLink@DirectUI@@QAE@XZ="C:\Windows\SysWOW64\dui70".??0TouchHyperLink@DirectUI@@QAE@XZ
  ??0TouchRepeatButton@DirectUI@@QAE@XZ="C:\Windows\SysWOW64\dui70".??0TouchRepeatButton@DirectUI@@QAE@XZ
  ??0TouchScrollBar@DirectUI@@QAE@XZ="C:\Windows\SysWOW64\dui70".??0TouchScrollBar@DirectUI@@QAE@XZ
  ??0TouchSelect@DirectUI@@QAE@XZ="C:\Windows\SysWOW64\dui70".??0TouchSelect@DirectUI@@QAE@XZ
  ??0TouchSelectItem@DirectUI@@QAE@XZ="C:\Windows\SysWOW64\dui70".??0TouchSelectItem@DirectUI@@QAE@XZ
  ??0UnknownElement@DirectUI@@QAE@ABV01@@Z="C:\Windows\SysWOW64\dui70".??0UnknownElement@DirectUI@@QAE@ABV01@@Z
  ??0UnknownElement@DirectUI@@QAE@XZ="C:\Windows\SysWOW64\dui70".??0UnknownElement@DirectUI@@QAE@XZ
  ??0ValueProvider@DirectUI@@QAE@XZ="C:\Windows\SysWOW64\dui70".??0ValueProvider@DirectUI@@QAE@XZ
  ??0ValueProxy@DirectUI@@QAE@$$QAV01@@Z="C:\Windows\SysWOW64\dui70".??0ValueProxy@DirectUI@@QAE@$$QAV01@@Z
  ??0ValueProxy@DirectUI@@QAE@ABV01@@Z="C:\Windows\SysWOW64\dui70".??0ValueProxy@DirectUI@@QAE@ABV01@@Z
  ??0ValueProxy@DirectUI@@QAE@XZ="C:\Windows\SysWOW64\dui70".??0ValueProxy@DirectUI@@QAE@XZ
  ??0VerticalFlowLayout@DirectUI@@QAE@ABV01@@Z="C:\Windows\SysWOW64\dui70".??0VerticalFlowLayout@DirectUI@@QAE@ABV01@@Z
  ??0VerticalFlowLayout@DirectUI@@QAE@XZ="C:\Windows\SysWOW64\dui70".??0VerticalFlowLayout@DirectUI@@QAE@XZ
  ??0Viewer@DirectUI@@QAE@ABV01@@Z="C:\Windows\SysWOW64\dui70".??0Viewer@DirectUI@@QAE@ABV01@@Z
  ??0Viewer@DirectUI@@QAE@XZ="C:\Windows\SysWOW64\dui70".??0Viewer@DirectUI@@QAE@XZ
  ??0XBaby@DirectUI@@QAE@ABV01@@Z="C:\Windows\SysWOW64\dui70".??0XBaby@DirectUI@@QAE@ABV01@@Z
  ??0XBaby@DirectUI@@QAE@XZ="C:\Windows\SysWOW64\dui70".??0XBaby@DirectUI@@QAE@XZ
  ??0XElement@DirectUI@@QAE@ABV01@@Z="C:\Windows\SysWOW64\dui70".??0XElement@DirectUI@@QAE@ABV01@@Z
  ??0XElement@DirectUI@@QAE@XZ="C:\Windows\SysWOW64\dui70".??0XElement@DirectUI@@QAE@XZ
  ??0XHost@DirectUI@@QAE@XZ="C:\Windows\SysWOW64\dui70".??0XHost@DirectUI@@QAE@XZ
  ??0XProvider@DirectUI@@QAE@ABV01@@Z="C:\Windows\SysWOW64\dui70".??0XProvider@DirectUI@@QAE@ABV01@@Z
  ??0XProvider@DirectUI@@QAE@XZ="C:\Windows\SysWOW64\dui70".??0XProvider@DirectUI@@QAE@XZ
  ??0XResourceProvider@DirectUI@@QAE@$$QAV01@@Z="C:\Windows\SysWOW64\dui70".??0XResourceProvider@DirectUI@@QAE@$$QAV01@@Z
  ??0XResourceProvider@DirectUI@@QAE@ABV01@@Z="C:\Windows\SysWOW64\dui70".??0XResourceProvider@DirectUI@@QAE@ABV01@@Z
  ??0XResourceProvider@DirectUI@@QAE@XZ="C:\Windows\SysWOW64\dui70".??0XResourceProvider@DirectUI@@QAE@XZ
  ??1?$PatternProvider@VExpandCollapseProvider@DirectUI@@UIExpandCollapseProvider@@$00@DirectUI@@UAE@XZ="C:\Windows\SysWOW64\dui70".??1?$PatternProvider@VExpandCollapseProvider@DirectUI@@UIExpandCollapseProvider@@$00@DirectUI@@UAE@XZ
  ??1?$PatternProvider@VGridItemProvider@DirectUI@@UIGridItemProvider@@$01@DirectUI@@UAE@XZ="C:\Windows\SysWOW64\dui70".??1?$PatternProvider@VGridItemProvider@DirectUI@@UIGridItemProvider@@$01@DirectUI@@UAE@XZ
  ??1?$PatternProvider@VGridProvider@DirectUI@@UIGridProvider@@$02@DirectUI@@UAE@XZ="C:\Windows\SysWOW64\dui70".??1?$PatternProvider@VGridProvider@DirectUI@@UIGridProvider@@$02@DirectUI@@UAE@XZ
  ??1?$PatternProvider@VInvokeProvider@DirectUI@@UIInvokeProvider@@$0A@@DirectUI@@UAE@XZ="C:\Windows\SysWOW64\dui70".??1?$PatternProvider@VInvokeProvider@DirectUI@@UIInvokeProvider@@$0A@@DirectUI@@UAE@XZ
  ??1?$PatternProvider@VRangeValueProvider@DirectUI@@UIRangeValueProvider@@$03@DirectUI@@UAE@XZ="C:\Windows\SysWOW64\dui70".??1?$PatternProvider@VRangeValueProvider@DirectUI@@UIRangeValueProvider@@$03@DirectUI@@UAE@XZ
  ??1?$PatternProvider@VScrollItemProvider@DirectUI@@UIScrollItemProvider@@$05@DirectUI@@UAE@XZ="C:\Windows\SysWOW64\dui70".??1?$PatternProvider@VScrollItemProvider@DirectUI@@UIScrollItemProvider@@$05@DirectUI@@UAE@XZ
  ??1?$PatternProvider@VScrollProvider@DirectUI@@UIScrollProvider@@$04@DirectUI@@UAE@XZ="C:\Windows\SysWOW64\dui70".??1?$PatternProvider@VScrollProvider@DirectUI@@UIScrollProvider@@$04@DirectUI@@UAE@XZ
  ??1?$PatternProvider@VSelectionItemProvider@DirectUI@@UISelectionItemProvider@@$06@DirectUI@@UAE@XZ="C:\Windows\SysWOW64\dui70".??1?$PatternProvider@VSelectionItemProvider@DirectUI@@UISelectionItemProvider@@$06@DirectUI@@UAE@XZ
  ??1?$PatternProvider@VSelectionProvider@DirectUI@@UISelectionProvider@@$07@DirectUI@@UAE@XZ="C:\Windows\SysWOW64\dui70".??1?$PatternProvider@VSelectionProvider@DirectUI@@UISelectionProvider@@$07@DirectUI@@UAE@XZ
  ??1?$PatternProvider@VTableItemProvider@DirectUI@@UITableItemProvider@@$09@DirectUI@@UAE@XZ="C:\Windows\SysWOW64\dui70".??1?$PatternProvider@VTableItemProvider@DirectUI@@UITableItemProvider@@$09@DirectUI@@UAE@XZ
  ??1?$PatternProvider@VTableProvider@DirectUI@@UITableProvider@@$08@DirectUI@@UAE@XZ="C:\Windows\SysWOW64\dui70".??1?$PatternProvider@VTableProvider@DirectUI@@UITableProvider@@$08@DirectUI@@UAE@XZ
  ??1?$PatternProvider@VToggleProvider@DirectUI@@UIToggleProvider@@$0L@@DirectUI@@UAE@XZ="C:\Windows\SysWOW64\dui70".??1?$PatternProvider@VToggleProvider@DirectUI@@UIToggleProvider@@$0L@@DirectUI@@UAE@XZ
  ??1?$PatternProvider@VValueProvider@DirectUI@@UIValueProvider@@$0M@@DirectUI@@UAE@XZ="C:\Windows\SysWOW64\dui70".??1?$PatternProvider@VValueProvider@DirectUI@@UIValueProvider@@$0M@@DirectUI@@UAE@XZ
  ??1?$SafeArrayAccessor@H@DirectUI@@QAE@XZ="C:\Windows\SysWOW64\dui70".??1?$SafeArrayAccessor@H@DirectUI@@QAE@XZ
  ??1AccessibleButton@DirectUI@@UAE@XZ="C:\Windows\SysWOW64\dui70".??1AccessibleButton@DirectUI@@UAE@XZ
  ??1AnimationStrip@DirectUI@@UAE@XZ="C:\Windows\SysWOW64\dui70".??1AnimationStrip@DirectUI@@UAE@XZ
  ??1AutoButton@DirectUI@@UAE@XZ="C:\Windows\SysWOW64\dui70".??1AutoButton@DirectUI@@UAE@XZ
  ??1AutoLock@DirectUI@@QAE@XZ="C:\Windows\SysWOW64\dui70".??1AutoLock@DirectUI@@QAE@XZ
  ??1AutoThread@DirectUI@@QAE@XZ="C:\Windows\SysWOW64\dui70".??1AutoThread@DirectUI@@QAE@XZ
  ??1AutoVariant@DirectUI@@QAE@XZ="C:\Windows\SysWOW64\dui70".??1AutoVariant@DirectUI@@QAE@XZ
  ??1BaseScrollViewer@DirectUI@@UAE@XZ="C:\Windows\SysWOW64\dui70".??1BaseScrollViewer@DirectUI@@UAE@XZ
  ??1Bind@DirectUI@@UAE@XZ="C:\Windows\SysWOW64\dui70".??1Bind@DirectUI@@UAE@XZ
  ??1BorderLayout@DirectUI@@UAE@XZ="C:\Windows\SysWOW64\dui70".??1BorderLayout@DirectUI@@UAE@XZ
  ??1Browser@DirectUI@@UAE@XZ="C:\Windows\SysWOW64\dui70".??1Browser@DirectUI@@UAE@XZ
  ??1Button@DirectUI@@UAE@XZ="C:\Windows\SysWOW64\dui70".??1Button@DirectUI@@UAE@XZ
  ??1CCAVI@DirectUI@@UAE@XZ="C:\Windows\SysWOW64\dui70".??1CCAVI@DirectUI@@UAE@XZ
  ??1CCBase@DirectUI@@UAE@XZ="C:\Windows\SysWOW64\dui70".??1CCBase@DirectUI@@UAE@XZ
  ??1CCBaseCheckRadioButton@DirectUI@@UAE@XZ="C:\Windows\SysWOW64\dui70".??1CCBaseCheckRadioButton@DirectUI@@UAE@XZ
  ??1CCBaseScrollBar@DirectUI@@UAE@XZ="C:\Windows\SysWOW64\dui70".??1CCBaseScrollBar@DirectUI@@UAE@XZ
  ??1CCCheckBox@DirectUI@@UAE@XZ="C:\Windows\SysWOW64\dui70".??1CCCheckBox@DirectUI@@UAE@XZ
  ??1CCCommandLink@DirectUI@@UAE@XZ="C:\Windows\SysWOW64\dui70".??1CCCommandLink@DirectUI@@UAE@XZ
  ??1CCHScrollBar@DirectUI@@UAE@XZ="C:\Windows\SysWOW64\dui70".??1CCHScrollBar@DirectUI@@UAE@XZ
  ??1CCListBox@DirectUI@@UAE@XZ="C:\Windows\SysWOW64\dui70".??1CCListBox@DirectUI@@UAE@XZ
  ??1CCListView@DirectUI@@UAE@XZ="C:\Windows\SysWOW64\dui70".??1CCListView@DirectUI@@UAE@XZ
  ??1CCProgressBar@DirectUI@@UAE@XZ="C:\Windows\SysWOW64\dui70".??1CCProgressBar@DirectUI@@UAE@XZ
  ??1CCPushButton@DirectUI@@UAE@XZ="C:\Windows\SysWOW64\dui70".??1CCPushButton@DirectUI@@UAE@XZ
  ??1CCRadioButton@DirectUI@@UAE@XZ="C:\Windows\SysWOW64\dui70".??1CCRadioButton@DirectUI@@UAE@XZ
  ??1CCSysLink@DirectUI@@UAE@XZ="C:\Windows\SysWOW64\dui70".??1CCSysLink@DirectUI@@UAE@XZ
  ??1CCTrackBar@DirectUI@@UAE@XZ="C:\Windows\SysWOW64\dui70".??1CCTrackBar@DirectUI@@UAE@XZ
  ??1CCTreeView@DirectUI@@UAE@XZ="C:\Windows\SysWOW64\dui70".??1CCTreeView@DirectUI@@UAE@XZ
  ??1CCVScrollBar@DirectUI@@UAE@XZ="C:\Windows\SysWOW64\dui70".??1CCVScrollBar@DirectUI@@UAE@XZ
  ??1CallstackTracker@DirectUI@@QAE@XZ="C:\Windows\SysWOW64\dui70".??1CallstackTracker@DirectUI@@QAE@XZ
  ??1CheckBoxGlyph@DirectUI@@UAE@XZ="C:\Windows\SysWOW64\dui70".??1CheckBoxGlyph@DirectUI@@UAE@XZ
  ??1ClassInfoBase@DirectUI@@UAE@XZ="C:\Windows\SysWOW64\dui70".??1ClassInfoBase@DirectUI@@UAE@XZ
  ??1Clipper@DirectUI@@UAE@XZ="C:\Windows\SysWOW64\dui70".??1Clipper@DirectUI@@UAE@XZ
  ??1Combobox@DirectUI@@UAE@XZ="C:\Windows\SysWOW64\dui70".??1Combobox@DirectUI@@UAE@XZ
  ??1CritSecLock@DirectUI@@QAE@XZ="C:\Windows\SysWOW64\dui70".??1CritSecLock@DirectUI@@QAE@XZ
  ??1DCSurface@DirectUI@@UAE@XZ="C:\Windows\SysWOW64\dui70".??1DCSurface@DirectUI@@UAE@XZ
  ??1DUIFactory@DirectUI@@QAE@XZ="C:\Windows\SysWOW64\dui70".??1DUIFactory@DirectUI@@QAE@XZ
  ??1DUIXmlParser@DirectUI@@UAE@XZ="C:\Windows\SysWOW64\dui70".??1DUIXmlParser@DirectUI@@UAE@XZ
  ??1DialogElement@DirectUI@@UAE@XZ="C:\Windows\SysWOW64\dui70".??1DialogElement@DirectUI@@UAE@XZ
  ??1DuiAccessible@DirectUI@@UAE@XZ="C:\Windows\SysWOW64\dui70".??1DuiAccessible@DirectUI@@UAE@XZ
  ??1Edit@DirectUI@@UAE@XZ="C:\Windows\SysWOW64\dui70".??1Edit@DirectUI@@UAE@XZ
  ??1Element@DirectUI@@UAE@XZ="C:\Windows\SysWOW64\dui70".??1Element@DirectUI@@UAE@XZ
  ??1ElementProvider@DirectUI@@UAE@XZ="C:\Windows\SysWOW64\dui70".??1ElementProvider@DirectUI@@UAE@XZ
  ??1ElementWithHWND@DirectUI@@UAE@XZ="C:\Windows\SysWOW64\dui70".??1ElementWithHWND@DirectUI@@UAE@XZ
  ??1ExpandCollapseProvider@DirectUI@@UAE@XZ="C:\Windows\SysWOW64\dui70".??1ExpandCollapseProvider@DirectUI@@UAE@XZ
  ??1Expandable@DirectUI@@UAE@XZ="C:\Windows\SysWOW64\dui70".??1Expandable@DirectUI@@UAE@XZ
  ??1Expando@DirectUI@@UAE@XZ="C:\Windows\SysWOW64\dui70".??1Expando@DirectUI@@UAE@XZ
  ??1ExpandoButtonGlyph@DirectUI@@UAE@XZ="C:\Windows\SysWOW64\dui70".??1ExpandoButtonGlyph@DirectUI@@UAE@XZ
  ??1FillLayout@DirectUI@@UAE@XZ="C:\Windows\SysWOW64\dui70".??1FillLayout@DirectUI@@UAE@XZ
  ??1FlowLayout@DirectUI@@UAE@XZ="C:\Windows\SysWOW64\dui70".??1FlowLayout@DirectUI@@UAE@XZ
  ??1FontCheckOut@DirectUI@@QAE@XZ="C:\Windows\SysWOW64\dui70".??1FontCheckOut@DirectUI@@QAE@XZ
  ??1GridItemProvider@DirectUI@@UAE@XZ="C:\Windows\SysWOW64\dui70".??1GridItemProvider@DirectUI@@UAE@XZ
  ??1GridLayout@DirectUI@@UAE@XZ="C:\Windows\SysWOW64\dui70".??1GridLayout@DirectUI@@UAE@XZ
  ??1GridProvider@DirectUI@@UAE@XZ="C:\Windows\SysWOW64\dui70".??1GridProvider@DirectUI@@UAE@XZ
  ??1HWNDElement@DirectUI@@UAE@XZ="C:\Windows\SysWOW64\dui70".??1HWNDElement@DirectUI@@UAE@XZ
  ??1HWNDElementAccessible@DirectUI@@UAE@XZ="C:\Windows\SysWOW64\dui70".??1HWNDElementAccessible@DirectUI@@UAE@XZ
  ??1HWNDElementProvider@DirectUI@@UAE@XZ="C:\Windows\SysWOW64\dui70".??1HWNDElementProvider@DirectUI@@UAE@XZ
  ??1HWNDHost@DirectUI@@UAE@XZ="C:\Windows\SysWOW64\dui70".??1HWNDHost@DirectUI@@UAE@XZ
  ??1HWNDHostAccessible@DirectUI@@UAE@XZ="C:\Windows\SysWOW64\dui70".??1HWNDHostAccessible@DirectUI@@UAE@XZ
  ??1HWNDHostClientAccessible@DirectUI@@UAE@XZ="C:\Windows\SysWOW64\dui70".??1HWNDHostClientAccessible@DirectUI@@UAE@XZ
  ??1IDataEngine@DirectUI@@UAE@XZ="C:\Windows\SysWOW64\dui70".??1IDataEngine@DirectUI@@UAE@XZ
  ??1IDataEntry@DirectUI@@UAE@XZ="C:\Windows\SysWOW64\dui70".??1IDataEntry@DirectUI@@UAE@XZ
  ??1InvokeHelper@DirectUI@@UAE@XZ="C:\Windows\SysWOW64\dui70".??1InvokeHelper@DirectUI@@UAE@XZ
  ??1InvokeProvider@DirectUI@@UAE@XZ="C:\Windows\SysWOW64\dui70".??1InvokeProvider@DirectUI@@UAE@XZ
  ??1ItemList@DirectUI@@UAE@XZ="C:\Windows\SysWOW64\dui70".??1ItemList@DirectUI@@UAE@XZ
  ??1Layout@DirectUI@@UAE@XZ="C:\Windows\SysWOW64\dui70".??1Layout@DirectUI@@UAE@XZ
  ??1LinkedList@DirectUI@@QAE@XZ="C:\Windows\SysWOW64\dui70".??1LinkedList@DirectUI@@QAE@XZ
  ??1Macro@DirectUI@@UAE@XZ="C:\Windows\SysWOW64\dui70".??1Macro@DirectUI@@UAE@XZ
  ??1ModernProgressBar@DirectUI@@UAE@XZ="C:\Windows\SysWOW64\dui70".??1ModernProgressBar@DirectUI@@UAE@XZ
  ??1ModernProgressRing@DirectUI@@UAE@XZ="C:\Windows\SysWOW64\dui70".??1ModernProgressRing@DirectUI@@UAE@XZ
  ??1Movie@DirectUI@@UAE@XZ="C:\Windows\SysWOW64\dui70".??1Movie@DirectUI@@UAE@XZ
  ??1NativeHWNDHost@DirectUI@@UAE@XZ="C:\Windows\SysWOW64\dui70".??1NativeHWNDHost@DirectUI@@UAE@XZ
  ??1Navigator@DirectUI@@UAE@XZ="C:\Windows\SysWOW64\dui70".??1Navigator@DirectUI@@UAE@XZ
  ??1NineGridLayout@DirectUI@@UAE@XZ="C:\Windows\SysWOW64\dui70".??1NineGridLayout@DirectUI@@UAE@XZ
  ??1PText@DirectUI@@UAE@XZ="C:\Windows\SysWOW64\dui70".??1PText@DirectUI@@UAE@XZ
  ??1Page@DirectUI@@UAE@XZ="C:\Windows\SysWOW64\dui70".??1Page@DirectUI@@UAE@XZ
  ??1Pages@DirectUI@@UAE@XZ="C:\Windows\SysWOW64\dui70".??1Pages@DirectUI@@UAE@XZ
  ??1Progress@DirectUI@@UAE@XZ="C:\Windows\SysWOW64\dui70".??1Progress@DirectUI@@UAE@XZ
  ??1Proxy@DirectUI@@UAE@XZ="C:\Windows\SysWOW64\dui70".??1Proxy@DirectUI@@UAE@XZ
  ??1PushButton@DirectUI@@UAE@XZ="C:\Windows\SysWOW64\dui70".??1PushButton@DirectUI@@UAE@XZ
  ??1RadioButtonGlyph@DirectUI@@UAE@XZ="C:\Windows\SysWOW64\dui70".??1RadioButtonGlyph@DirectUI@@UAE@XZ
  ??1RangeValueProvider@DirectUI@@UAE@XZ="C:\Windows\SysWOW64\dui70".??1RangeValueProvider@DirectUI@@UAE@XZ
  ??1RefPointElement@DirectUI@@UAE@XZ="C:\Windows\SysWOW64\dui70".??1RefPointElement@DirectUI@@UAE@XZ
  ??1RefcountBase@DirectUI@@UAE@XZ="C:\Windows\SysWOW64\dui70".??1RefcountBase@DirectUI@@UAE@XZ
  ??1RepeatButton@DirectUI@@UAE@XZ="C:\Windows\SysWOW64\dui70".??1RepeatButton@DirectUI@@UAE@XZ
  ??1Repeater@DirectUI@@UAE@XZ="C:\Windows\SysWOW64\dui70".??1Repeater@DirectUI@@UAE@XZ
  ??1ResourceModuleHandles@DirectUI@@QAE@XZ="C:\Windows\SysWOW64\dui70".??1ResourceModuleHandles@DirectUI@@QAE@XZ
  ??1RichText@DirectUI@@UAE@XZ="C:\Windows\SysWOW64\dui70".??1RichText@DirectUI@@UAE@XZ
  ??1RowLayout@DirectUI@@UAE@XZ="C:\Windows\SysWOW64\dui70".??1RowLayout@DirectUI@@UAE@XZ
  ??1ScrollBar@DirectUI@@UAE@XZ="C:\Windows\SysWOW64\dui70".??1ScrollBar@DirectUI@@UAE@XZ
  ??1ScrollItemProvider@DirectUI@@UAE@XZ="C:\Windows\SysWOW64\dui70".??1ScrollItemProvider@DirectUI@@UAE@XZ
  ??1ScrollProvider@DirectUI@@UAE@XZ="C:\Windows\SysWOW64\dui70".??1ScrollProvider@DirectUI@@UAE@XZ
  ??1ScrollViewer@DirectUI@@UAE@XZ="C:\Windows\SysWOW64\dui70".??1ScrollViewer@DirectUI@@UAE@XZ
  ??1SelectionItemProvider@DirectUI@@UAE@XZ="C:\Windows\SysWOW64\dui70".??1SelectionItemProvider@DirectUI@@UAE@XZ
  ??1SelectionProvider@DirectUI@@UAE@XZ="C:\Windows\SysWOW64\dui70".??1SelectionProvider@DirectUI@@UAE@XZ
  ??1Selector@DirectUI@@UAE@XZ="C:\Windows\SysWOW64\dui70".??1Selector@DirectUI@@UAE@XZ
  ??1SelectorNoDefault@DirectUI@@UAE@XZ="C:\Windows\SysWOW64\dui70".??1SelectorNoDefault@DirectUI@@UAE@XZ
  ??1ShellBorderLayout@DirectUI@@UAE@XZ="C:\Windows\SysWOW64\dui70".??1ShellBorderLayout@DirectUI@@UAE@XZ
  ??1StyledScrollViewer@DirectUI@@UAE@XZ="C:\Windows\SysWOW64\dui70".??1StyledScrollViewer@DirectUI@@UAE@XZ
  ??1Surface@DirectUI@@UAE@XZ="C:\Windows\SysWOW64\dui70".??1Surface@DirectUI@@UAE@XZ
  ??1TableItemProvider@DirectUI@@UAE@XZ="C:\Windows\SysWOW64\dui70".??1TableItemProvider@DirectUI@@UAE@XZ
  ??1TableLayout@DirectUI@@UAE@XZ="C:\Windows\SysWOW64\dui70".??1TableLayout@DirectUI@@UAE@XZ
  ??1TableProvider@DirectUI@@UAE@XZ="C:\Windows\SysWOW64\dui70".??1TableProvider@DirectUI@@UAE@XZ
  ??1TaskPage@DirectUI@@UAE@XZ="C:\Windows\SysWOW64\dui70".??1TaskPage@DirectUI@@UAE@XZ
  ??1TextGraphic@DirectUI@@UAE@XZ="C:\Windows\SysWOW64\dui70".??1TextGraphic@DirectUI@@UAE@XZ
  ??1Thumb@DirectUI@@UAE@XZ="C:\Windows\SysWOW64\dui70".??1Thumb@DirectUI@@UAE@XZ
  ??1ToggleProvider@DirectUI@@UAE@XZ="C:\Windows\SysWOW64\dui70".??1ToggleProvider@DirectUI@@UAE@XZ
  ??1TouchButton@DirectUI@@UAE@XZ="C:\Windows\SysWOW64\dui70".??1TouchButton@DirectUI@@UAE@XZ
  ??1TouchCheckBox@DirectUI@@UAE@XZ="C:\Windows\SysWOW64\dui70".??1TouchCheckBox@DirectUI@@UAE@XZ
  ??1TouchCheckBoxGlyph@DirectUI@@UAE@XZ="C:\Windows\SysWOW64\dui70".??1TouchCheckBoxGlyph@DirectUI@@UAE@XZ
  ??1TouchHWNDElement@DirectUI@@UAE@XZ="C:\Windows\SysWOW64\dui70".??1TouchHWNDElement@DirectUI@@UAE@XZ
  ??1TouchHyperLink@DirectUI@@UAE@XZ="C:\Windows\SysWOW64\dui70".??1TouchHyperLink@DirectUI@@UAE@XZ
  ??1TouchScrollBar@DirectUI@@UAE@XZ="C:\Windows\SysWOW64\dui70".??1TouchScrollBar@DirectUI@@UAE@XZ
  ??1TouchSelect@DirectUI@@UAE@XZ="C:\Windows\SysWOW64\dui70".??1TouchSelect@DirectUI@@UAE@XZ
  ??1TouchSelectItem@DirectUI@@UAE@XZ="C:\Windows\SysWOW64\dui70".??1TouchSelectItem@DirectUI@@UAE@XZ
  ??1UnknownElement@DirectUI@@UAE@XZ="C:\Windows\SysWOW64\dui70".??1UnknownElement@DirectUI@@UAE@XZ
  ??1ValueProvider@DirectUI@@UAE@XZ="C:\Windows\SysWOW64\dui70".??1ValueProvider@DirectUI@@UAE@XZ
  ??1VerticalFlowLayout@DirectUI@@UAE@XZ="C:\Windows\SysWOW64\dui70".??1VerticalFlowLayout@DirectUI@@UAE@XZ
  ??1Viewer@DirectUI@@UAE@XZ="C:\Windows\SysWOW64\dui70".??1Viewer@DirectUI@@UAE@XZ
  ??1XBaby@DirectUI@@UAE@XZ="C:\Windows\SysWOW64\dui70".??1XBaby@DirectUI@@UAE@XZ
  ??1XElement@DirectUI@@UAE@XZ="C:\Windows\SysWOW64\dui70".??1XElement@DirectUI@@UAE@XZ
  ??1XHost@DirectUI@@QAE@XZ="C:\Windows\SysWOW64\dui70".??1XHost@DirectUI@@QAE@XZ
  ??1XProvider@DirectUI@@UAE@XZ="C:\Windows\SysWOW64\dui70".??1XProvider@DirectUI@@UAE@XZ
  ??4?$FunctionDefinition@H@DUIXmlParser@DirectUI@@QAEAAU012@$$QAU012@@Z="C:\Windows\SysWOW64\dui70".??4?$FunctionDefinition@H@DUIXmlParser@DirectUI@@QAEAAU012@$$QAU012@@Z
  ??4?$FunctionDefinition@H@DUIXmlParser@DirectUI@@QAEAAU012@ABU012@@Z="C:\Windows\SysWOW64\dui70".??4?$FunctionDefinition@H@DUIXmlParser@DirectUI@@QAEAAU012@ABU012@@Z
  ??4?$FunctionDefinition@K@DUIXmlParser@DirectUI@@QAEAAU012@$$QAU012@@Z="C:\Windows\SysWOW64\dui70".??4?$FunctionDefinition@K@DUIXmlParser@DirectUI@@QAEAAU012@$$QAU012@@Z
  ??4?$FunctionDefinition@K@DUIXmlParser@DirectUI@@QAEAAU012@ABU012@@Z="C:\Windows\SysWOW64\dui70".??4?$FunctionDefinition@K@DUIXmlParser@DirectUI@@QAEAAU012@ABU012@@Z
  ??4?$FunctionDefinition@PAVValue@DirectUI@@@DUIXmlParser@DirectUI@@QAEAAU012@$$QAU012@@Z="C:\Windows\SysWOW64\dui70".??4?$FunctionDefinition@PAVValue@DirectUI@@@DUIXmlParser@DirectUI@@QAEAAU012@$$QAU012@@Z
  ??4?$FunctionDefinition@PAVValue@DirectUI@@@DUIXmlParser@DirectUI@@QAEAAU012@ABU012@@Z="C:\Windows\SysWOW64\dui70".??4?$FunctionDefinition@PAVValue@DirectUI@@@DUIXmlParser@DirectUI@@QAEAAU012@ABU012@@Z
  ??4?$FunctionDefinition@UScaledRECT@DirectUI@@@DUIXmlParser@DirectUI@@QAEAAU012@$$QAU012@@Z="C:\Windows\SysWOW64\dui70".??4?$FunctionDefinition@UScaledRECT@DirectUI@@@DUIXmlParser@DirectUI@@QAEAAU012@$$QAU012@@Z
  ??4?$FunctionDefinition@UScaledRECT@DirectUI@@@DUIXmlParser@DirectUI@@QAEAAU012@ABU012@@Z="C:\Windows\SysWOW64\dui70".??4?$FunctionDefinition@UScaledRECT@DirectUI@@@DUIXmlParser@DirectUI@@QAEAAU012@ABU012@@Z
  ??4?$FunctionDefinition@UScaledSIZE@DirectUI@@@DUIXmlParser@DirectUI@@QAEAAU012@$$QAU012@@Z="C:\Windows\SysWOW64\dui70".??4?$FunctionDefinition@UScaledSIZE@DirectUI@@@DUIXmlParser@DirectUI@@QAEAAU012@$$QAU012@@Z
  ??4?$FunctionDefinition@UScaledSIZE@DirectUI@@@DUIXmlParser@DirectUI@@QAEAAU012@ABU012@@Z="C:\Windows\SysWOW64\dui70".??4?$FunctionDefinition@UScaledSIZE@DirectUI@@@DUIXmlParser@DirectUI@@QAEAAU012@ABU012@@Z
  ??4ACCESSIBLEROLE@AccessibleButton@DirectUI@@QAEAAU012@$$QAU012@@Z="C:\Windows\SysWOW64\dui70".??4ACCESSIBLEROLE@AccessibleButton@DirectUI@@QAEAAU012@$$QAU012@@Z
  ??4ACCESSIBLEROLE@AccessibleButton@DirectUI@@QAEAAU012@ABU012@@Z="C:\Windows\SysWOW64\dui70".??4ACCESSIBLEROLE@AccessibleButton@DirectUI@@QAEAAU012@ABU012@@Z
  ??4AccessibleButton@DirectUI@@QAEAAV01@$$QAV01@@Z="C:\Windows\SysWOW64\dui70".??4AccessibleButton@DirectUI@@QAEAAV01@$$QAV01@@Z
  ??4AccessibleButton@DirectUI@@QAEAAV01@ABV01@@Z="C:\Windows\SysWOW64\dui70".??4AccessibleButton@DirectUI@@QAEAAV01@ABV01@@Z
  ??4AnimationStrip@DirectUI@@QAEAAV01@ABV01@@Z="C:\Windows\SysWOW64\dui70".??4AnimationStrip@DirectUI@@QAEAAV01@ABV01@@Z
  ??4AutoButton@DirectUI@@QAEAAV01@$$QAV01@@Z="C:\Windows\SysWOW64\dui70".??4AutoButton@DirectUI@@QAEAAV01@$$QAV01@@Z
  ??4AutoButton@DirectUI@@QAEAAV01@ABV01@@Z="C:\Windows\SysWOW64\dui70".??4AutoButton@DirectUI@@QAEAAV01@ABV01@@Z
  ??4AutoLock@DirectUI@@QAEAAV01@ABV01@@Z="C:\Windows\SysWOW64\dui70".??4AutoLock@DirectUI@@QAEAAV01@ABV01@@Z
  ??4AutoThread@DirectUI@@QAEAAV01@ABV01@@Z="C:\Windows\SysWOW64\dui70".??4AutoThread@DirectUI@@QAEAAV01@ABV01@@Z
  ??4AutoVariant@DirectUI@@QAEAAV01@ABV01@@Z="C:\Windows\SysWOW64\dui70".??4AutoVariant@DirectUI@@QAEAAV01@ABV01@@Z
  ??4BaseScrollBar@DirectUI@@QAEAAV01@$$QAV01@@Z="C:\Windows\SysWOW64\dui70".??4BaseScrollBar@DirectUI@@QAEAAV01@$$QAV01@@Z
  ??4BaseScrollBar@DirectUI@@QAEAAV01@ABV01@@Z="C:\Windows\SysWOW64\dui70".??4BaseScrollBar@DirectUI@@QAEAAV01@ABV01@@Z
  ??4BaseScrollViewer@DirectUI@@QAEAAV01@ABV01@@Z="C:\Windows\SysWOW64\dui70".??4BaseScrollViewer@DirectUI@@QAEAAV01@ABV01@@Z
  ??4Bind@DirectUI@@QAEAAV01@$$QAV01@@Z="C:\Windows\SysWOW64\dui70".??4Bind@DirectUI@@QAEAAV01@$$QAV01@@Z
  ??4Bind@DirectUI@@QAEAAV01@ABV01@@Z="C:\Windows\SysWOW64\dui70".??4Bind@DirectUI@@QAEAAV01@ABV01@@Z
  ??4BorderLayout@DirectUI@@QAEAAV01@ABV01@@Z="C:\Windows\SysWOW64\dui70".??4BorderLayout@DirectUI@@QAEAAV01@ABV01@@Z
  ??4Browser@DirectUI@@QAEAAV01@$$QAV01@@Z="C:\Windows\SysWOW64\dui70".??4Browser@DirectUI@@QAEAAV01@$$QAV01@@Z
  ??4Browser@DirectUI@@QAEAAV01@ABV01@@Z="C:\Windows\SysWOW64\dui70".??4Browser@DirectUI@@QAEAAV01@ABV01@@Z
  ??4BrowserSelectionProxy@DirectUI@@QAEAAV01@$$QAV01@@Z="C:\Windows\SysWOW64\dui70".??4BrowserSelectionProxy@DirectUI@@QAEAAV01@$$QAV01@@Z
  ??4BrowserSelectionProxy@DirectUI@@QAEAAV01@ABV01@@Z="C:\Windows\SysWOW64\dui70".??4BrowserSelectionProxy@DirectUI@@QAEAAV01@ABV01@@Z
  ??4Button@DirectUI@@QAEAAV01@ABV01@@Z="C:\Windows\SysWOW64\dui70".??4Button@DirectUI@@QAEAAV01@ABV01@@Z
  ??4CCAVI@DirectUI@@QAEAAV01@$$QAV01@@Z="C:\Windows\SysWOW64\dui70".??4CCAVI@DirectUI@@QAEAAV01@$$QAV01@@Z
  ??4CCAVI@DirectUI@@QAEAAV01@ABV01@@Z="C:\Windows\SysWOW64\dui70".??4CCAVI@DirectUI@@QAEAAV01@ABV01@@Z
  ??4CCBase@DirectUI@@QAEAAV01@ABV01@@Z="C:\Windows\SysWOW64\dui70".??4CCBase@DirectUI@@QAEAAV01@ABV01@@Z
  ??4CCBaseCheckRadioButton@DirectUI@@QAEAAV01@$$QAV01@@Z="C:\Windows\SysWOW64\dui70".??4CCBaseCheckRadioButton@DirectUI@@QAEAAV01@$$QAV01@@Z
  ??4CCBaseCheckRadioButton@DirectUI@@QAEAAV01@ABV01@@Z="C:\Windows\SysWOW64\dui70".??4CCBaseCheckRadioButton@DirectUI@@QAEAAV01@ABV01@@Z
  ??4CCBaseScrollBar@DirectUI@@QAEAAV01@$$QAV01@@Z="C:\Windows\SysWOW64\dui70".??4CCBaseScrollBar@DirectUI@@QAEAAV01@$$QAV01@@Z
  ??4CCBaseScrollBar@DirectUI@@QAEAAV01@ABV01@@Z="C:\Windows\SysWOW64\dui70".??4CCBaseScrollBar@DirectUI@@QAEAAV01@ABV01@@Z
  ??4CCCheckBox@DirectUI@@QAEAAV01@$$QAV01@@Z="C:\Windows\SysWOW64\dui70".??4CCCheckBox@DirectUI@@QAEAAV01@$$QAV01@@Z
  ??4CCCheckBox@DirectUI@@QAEAAV01@ABV01@@Z="C:\Windows\SysWOW64\dui70".??4CCCheckBox@DirectUI@@QAEAAV01@ABV01@@Z
  ??4CCCommandLink@DirectUI@@QAEAAV01@$$QAV01@@Z="C:\Windows\SysWOW64\dui70".??4CCCommandLink@DirectUI@@QAEAAV01@$$QAV01@@Z
  ??4CCCommandLink@DirectUI@@QAEAAV01@ABV01@@Z="C:\Windows\SysWOW64\dui70".??4CCCommandLink@DirectUI@@QAEAAV01@ABV01@@Z
  ??4CCHScrollBar@DirectUI@@QAEAAV01@$$QAV01@@Z="C:\Windows\SysWOW64\dui70".??4CCHScrollBar@DirectUI@@QAEAAV01@$$QAV01@@Z
  ??4CCHScrollBar@DirectUI@@QAEAAV01@ABV01@@Z="C:\Windows\SysWOW64\dui70".??4CCHScrollBar@DirectUI@@QAEAAV01@ABV01@@Z
  ??4CCListBox@DirectUI@@QAEAAV01@$$QAV01@@Z="C:\Windows\SysWOW64\dui70".??4CCListBox@DirectUI@@QAEAAV01@$$QAV01@@Z
  ??4CCListBox@DirectUI@@QAEAAV01@ABV01@@Z="C:\Windows\SysWOW64\dui70".??4CCListBox@DirectUI@@QAEAAV01@ABV01@@Z
  ??4CCListView@DirectUI@@QAEAAV01@$$QAV01@@Z="C:\Windows\SysWOW64\dui70".??4CCListView@DirectUI@@QAEAAV01@$$QAV01@@Z
  ??4CCListView@DirectUI@@QAEAAV01@ABV01@@Z="C:\Windows\SysWOW64\dui70".??4CCListView@DirectUI@@QAEAAV01@ABV01@@Z
  ??4CCProgressBar@DirectUI@@QAEAAV01@$$QAV01@@Z="C:\Windows\SysWOW64\dui70".??4CCProgressBar@DirectUI@@QAEAAV01@$$QAV01@@Z
  ??4CCProgressBar@DirectUI@@QAEAAV01@ABV01@@Z="C:\Windows\SysWOW64\dui70".??4CCProgressBar@DirectUI@@QAEAAV01@ABV01@@Z
  ??4CCPushButton@DirectUI@@QAEAAV01@$$QAV01@@Z="C:\Windows\SysWOW64\dui70".??4CCPushButton@DirectUI@@QAEAAV01@$$QAV01@@Z
  ??4CCPushButton@DirectUI@@QAEAAV01@ABV01@@Z="C:\Windows\SysWOW64\dui70".??4CCPushButton@DirectUI@@QAEAAV01@ABV01@@Z
  ??4CCRadioButton@DirectUI@@QAEAAV01@$$QAV01@@Z="C:\Windows\SysWOW64\dui70".??4CCRadioButton@DirectUI@@QAEAAV01@$$QAV01@@Z
  ??4CCRadioButton@DirectUI@@QAEAAV01@ABV01@@Z="C:\Windows\SysWOW64\dui70".??4CCRadioButton@DirectUI@@QAEAAV01@ABV01@@Z
  ??4CCSysLink@DirectUI@@QAEAAV01@$$QAV01@@Z="C:\Windows\SysWOW64\dui70".??4CCSysLink@DirectUI@@QAEAAV01@$$QAV01@@Z
  ??4CCSysLink@DirectUI@@QAEAAV01@ABV01@@Z="C:\Windows\SysWOW64\dui70".??4CCSysLink@DirectUI@@QAEAAV01@ABV01@@Z
  ??4CCTrackBar@DirectUI@@QAEAAV01@$$QAV01@@Z="C:\Windows\SysWOW64\dui70".??4CCTrackBar@DirectUI@@QAEAAV01@$$QAV01@@Z
  ??4CCTrackBar@DirectUI@@QAEAAV01@ABV01@@Z="C:\Windows\SysWOW64\dui70".??4CCTrackBar@DirectUI@@QAEAAV01@ABV01@@Z
  ??4CCTreeView@DirectUI@@QAEAAV01@$$QAV01@@Z="C:\Windows\SysWOW64\dui70".??4CCTreeView@DirectUI@@QAEAAV01@$$QAV01@@Z
  ??4CCTreeView@DirectUI@@QAEAAV01@ABV01@@Z="C:\Windows\SysWOW64\dui70".??4CCTreeView@DirectUI@@QAEAAV01@ABV01@@Z
  ??4CCVScrollBar@DirectUI@@QAEAAV01@$$QAV01@@Z="C:\Windows\SysWOW64\dui70".??4CCVScrollBar@DirectUI@@QAEAAV01@$$QAV01@@Z
  ??4CCVScrollBar@DirectUI@@QAEAAV01@ABV01@@Z="C:\Windows\SysWOW64\dui70".??4CCVScrollBar@DirectUI@@QAEAAV01@ABV01@@Z
  ??4CallstackTracker@DirectUI@@QAEAAV01@ABV01@@Z="C:\Windows\SysWOW64\dui70".??4CallstackTracker@DirectUI@@QAEAAV01@ABV01@@Z
  ??4CheckBoxGlyph@DirectUI@@QAEAAV01@ABV01@@Z="C:\Windows\SysWOW64\dui70".??4CheckBoxGlyph@DirectUI@@QAEAAV01@ABV01@@Z
  ??4ClassInfoBase@DirectUI@@QAEAAV01@ABV01@@Z="C:\Windows\SysWOW64\dui70".??4ClassInfoBase@DirectUI@@QAEAAV01@ABV01@@Z
  ??4Clipper@DirectUI@@QAEAAV01@$$QAV01@@Z="C:\Windows\SysWOW64\dui70".??4Clipper@DirectUI@@QAEAAV01@$$QAV01@@Z
  ??4Clipper@DirectUI@@QAEAAV01@ABV01@@Z="C:\Windows\SysWOW64\dui70".??4Clipper@DirectUI@@QAEAAV01@ABV01@@Z
  ??4Combobox@DirectUI@@QAEAAV01@ABV01@@Z="C:\Windows\SysWOW64\dui70".??4Combobox@DirectUI@@QAEAAV01@ABV01@@Z
  ??4CritSecLock@DirectUI@@QAEAAV01@ABV01@@Z="C:\Windows\SysWOW64\dui70".??4CritSecLock@DirectUI@@QAEAAV01@ABV01@@Z
  ??4DCSurface@DirectUI@@QAEAAV01@ABV01@@Z="C:\Windows\SysWOW64\dui70".??4DCSurface@DirectUI@@QAEAAV01@ABV01@@Z
  ??4DUIFactory@DirectUI@@QAEAAV01@ABV01@@Z="C:\Windows\SysWOW64\dui70".??4DUIFactory@DirectUI@@QAEAAV01@ABV01@@Z
  ??4DUIXmlParser@DirectUI@@QAEAAV01@ABV01@@Z="C:\Windows\SysWOW64\dui70".??4DUIXmlParser@DirectUI@@QAEAAV01@ABV01@@Z
  ??4DialogElement@DirectUI@@QAEAAV01@$$QAV01@@Z="C:\Windows\SysWOW64\dui70".??4DialogElement@DirectUI@@QAEAAV01@$$QAV01@@Z
  ??4DialogElement@DirectUI@@QAEAAV01@ABV01@@Z="C:\Windows\SysWOW64\dui70".??4DialogElement@DirectUI@@QAEAAV01@ABV01@@Z
  ??4DialogElementCore@DirectUI@@QAEAAV01@$$QAV01@@Z="C:\Windows\SysWOW64\dui70".??4DialogElementCore@DirectUI@@QAEAAV01@$$QAV01@@Z
  ??4DialogElementCore@DirectUI@@QAEAAV01@ABV01@@Z="C:\Windows\SysWOW64\dui70".??4DialogElementCore@DirectUI@@QAEAAV01@ABV01@@Z
  ??4DuiNavigate@DirectUI@@QAEAAV01@$$QAV01@@Z="C:\Windows\SysWOW64\dui70".??4DuiNavigate@DirectUI@@QAEAAV01@$$QAV01@@Z
  ??4DuiNavigate@DirectUI@@QAEAAV01@ABV01@@Z="C:\Windows\SysWOW64\dui70".??4DuiNavigate@DirectUI@@QAEAAV01@ABV01@@Z
  ??4Edit@DirectUI@@QAEAAV01@ABV01@@Z="C:\Windows\SysWOW64\dui70".??4Edit@DirectUI@@QAEAAV01@ABV01@@Z
  ??4Element@DirectUI@@QAEAAV01@ABV01@@Z="C:\Windows\SysWOW64\dui70".??4Element@DirectUI@@QAEAAV01@ABV01@@Z
  ??4ElementProviderManager@DirectUI@@QAEAAV01@$$QAV01@@Z="C:\Windows\SysWOW64\dui70".??4ElementProviderManager@DirectUI@@QAEAAV01@$$QAV01@@Z
  ??4ElementProviderManager@DirectUI@@QAEAAV01@ABV01@@Z="C:\Windows\SysWOW64\dui70".??4ElementProviderManager@DirectUI@@QAEAAV01@ABV01@@Z
  ??4ElementProxy@DirectUI@@QAEAAV01@$$QAV01@@Z="C:\Windows\SysWOW64\dui70".??4ElementProxy@DirectUI@@QAEAAV01@$$QAV01@@Z
  ??4ElementProxy@DirectUI@@QAEAAV01@ABV01@@Z="C:\Windows\SysWOW64\dui70".??4ElementProxy@DirectUI@@QAEAAV01@ABV01@@Z
  ??4ElementWithHWND@DirectUI@@QAEAAV01@$$QAV01@@Z="C:\Windows\SysWOW64\dui70".??4ElementWithHWND@DirectUI@@QAEAAV01@$$QAV01@@Z
  ??4ElementWithHWND@DirectUI@@QAEAAV01@ABV01@@Z="C:\Windows\SysWOW64\dui70".??4ElementWithHWND@DirectUI@@QAEAAV01@ABV01@@Z
  ??4EventManager@DirectUI@@QAEAAV01@$$QAV01@@Z="C:\Windows\SysWOW64\dui70".??4EventManager@DirectUI@@QAEAAV01@$$QAV01@@Z
  ??4EventManager@DirectUI@@QAEAAV01@ABV01@@Z="C:\Windows\SysWOW64\dui70".??4EventManager@DirectUI@@QAEAAV01@ABV01@@Z
  ??4ExpandCollapseProxy@DirectUI@@QAEAAV01@$$QAV01@@Z="C:\Windows\SysWOW64\dui70".??4ExpandCollapseProxy@DirectUI@@QAEAAV01@$$QAV01@@Z
  ??4ExpandCollapseProxy@DirectUI@@QAEAAV01@ABV01@@Z="C:\Windows\SysWOW64\dui70".??4ExpandCollapseProxy@DirectUI@@QAEAAV01@ABV01@@Z
  ??4Expandable@DirectUI@@QAEAAV01@$$QAV01@@Z="C:\Windows\SysWOW64\dui70".??4Expandable@DirectUI@@QAEAAV01@$$QAV01@@Z
  ??4Expandable@DirectUI@@QAEAAV01@ABV01@@Z="C:\Windows\SysWOW64\dui70".??4Expandable@DirectUI@@QAEAAV01@ABV01@@Z
  ??4Expando@DirectUI@@QAEAAV01@$$QAV01@@Z="C:\Windows\SysWOW64\dui70".??4Expando@DirectUI@@QAEAAV01@$$QAV01@@Z
  ??4Expando@DirectUI@@QAEAAV01@ABV01@@Z="C:\Windows\SysWOW64\dui70".??4Expando@DirectUI@@QAEAAV01@ABV01@@Z
  ??4ExpandoButtonGlyph@DirectUI@@QAEAAV01@ABV01@@Z="C:\Windows\SysWOW64\dui70".??4ExpandoButtonGlyph@DirectUI@@QAEAAV01@ABV01@@Z
  ??4Expression@DirectUI@@QAEAAV01@$$QAV01@@Z="C:\Windows\SysWOW64\dui70".??4Expression@DirectUI@@QAEAAV01@$$QAV01@@Z
  ??4Expression@DirectUI@@QAEAAV01@ABV01@@Z="C:\Windows\SysWOW64\dui70".??4Expression@DirectUI@@QAEAAV01@ABV01@@Z
  ??4FillLayout@DirectUI@@QAEAAV01@ABV01@@Z="C:\Windows\SysWOW64\dui70".??4FillLayout@DirectUI@@QAEAAV01@ABV01@@Z
  ??4FlowLayout@DirectUI@@QAEAAV01@ABV01@@Z="C:\Windows\SysWOW64\dui70".??4FlowLayout@DirectUI@@QAEAAV01@ABV01@@Z
  ??4FontCache@DirectUI@@QAEAAV01@$$QAV01@@Z="C:\Windows\SysWOW64\dui70".??4FontCache@DirectUI@@QAEAAV01@$$QAV01@@Z
  ??4FontCache@DirectUI@@QAEAAV01@ABV01@@Z="C:\Windows\SysWOW64\dui70".??4FontCache@DirectUI@@QAEAAV01@ABV01@@Z
  ??4FontCheckOut@DirectUI@@QAEAAV01@ABV01@@Z="C:\Windows\SysWOW64\dui70".??4FontCheckOut@DirectUI@@QAEAAV01@ABV01@@Z
  ??4GridItemProxy@DirectUI@@QAEAAV01@$$QAV01@@Z="C:\Windows\SysWOW64\dui70".??4GridItemProxy@DirectUI@@QAEAAV01@$$QAV01@@Z
  ??4GridItemProxy@DirectUI@@QAEAAV01@ABV01@@Z="C:\Windows\SysWOW64\dui70".??4GridItemProxy@DirectUI@@QAEAAV01@ABV01@@Z
  ??4GridLayout@DirectUI@@QAEAAV01@ABV01@@Z="C:\Windows\SysWOW64\dui70".??4GridLayout@DirectUI@@QAEAAV01@ABV01@@Z
  ??4GridProxy@DirectUI@@QAEAAV01@$$QAV01@@Z="C:\Windows\SysWOW64\dui70".??4GridProxy@DirectUI@@QAEAAV01@$$QAV01@@Z
  ??4GridProxy@DirectUI@@QAEAAV01@ABV01@@Z="C:\Windows\SysWOW64\dui70".??4GridProxy@DirectUI@@QAEAAV01@ABV01@@Z
  ??4HWNDElement@DirectUI@@QAEAAV01@ABV01@@Z="C:\Windows\SysWOW64\dui70".??4HWNDElement@DirectUI@@QAEAAV01@ABV01@@Z
  ??4HWNDElementProxy@DirectUI@@QAEAAV01@$$QAV01@@Z="C:\Windows\SysWOW64\dui70".??4HWNDElementProxy@DirectUI@@QAEAAV01@$$QAV01@@Z
  ??4HWNDElementProxy@DirectUI@@QAEAAV01@ABV01@@Z="C:\Windows\SysWOW64\dui70".??4HWNDElementProxy@DirectUI@@QAEAAV01@ABV01@@Z
  ??4HWNDHost@DirectUI@@QAEAAV01@ABV01@@Z="C:\Windows\SysWOW64\dui70".??4HWNDHost@DirectUI@@QAEAAV01@ABV01@@Z
  ??4IDataEngine@DirectUI@@QAEAAU01@ABU01@@Z="C:\Windows\SysWOW64\dui70".??4IDataEngine@DirectUI@@QAEAAU01@ABU01@@Z
  ??4IDataEntry@DirectUI@@QAEAAU01@ABU01@@Z="C:\Windows\SysWOW64\dui70".??4IDataEntry@DirectUI@@QAEAAU01@ABU01@@Z
  ??4IProvider@DirectUI@@QAEAAV01@$$QAV01@@Z="C:\Windows\SysWOW64\dui70".??4IProvider@DirectUI@@QAEAAV01@$$QAV01@@Z
  ??4IProvider@DirectUI@@QAEAAV01@ABV01@@Z="C:\Windows\SysWOW64\dui70".??4IProvider@DirectUI@@QAEAAV01@ABV01@@Z
  ??4ISBLeak@DirectUI@@QAEAAU01@$$QAU01@@Z="C:\Windows\SysWOW64\dui70".??4ISBLeak@DirectUI@@QAEAAU01@$$QAU01@@Z
  ??4ISBLeak@DirectUI@@QAEAAU01@ABU01@@Z="C:\Windows\SysWOW64\dui70".??4ISBLeak@DirectUI@@QAEAAU01@ABU01@@Z
  ??4IXElementCP@DirectUI@@QAEAAV01@$$QAV01@@Z="C:\Windows\SysWOW64\dui70".??4IXElementCP@DirectUI@@QAEAAV01@$$QAV01@@Z
  ??4IXElementCP@DirectUI@@QAEAAV01@ABV01@@Z="C:\Windows\SysWOW64\dui70".??4IXElementCP@DirectUI@@QAEAAV01@ABV01@@Z
  ??4IXProviderCP@DirectUI@@QAEAAV01@$$QAV01@@Z="C:\Windows\SysWOW64\dui70".??4IXProviderCP@DirectUI@@QAEAAV01@$$QAV01@@Z
  ??4IXProviderCP@DirectUI@@QAEAAV01@ABV01@@Z="C:\Windows\SysWOW64\dui70".??4IXProviderCP@DirectUI@@QAEAAV01@ABV01@@Z
  ??4InvokeManager@DirectUI@@QAEAAV01@$$QAV01@@Z="C:\Windows\SysWOW64\dui70".??4InvokeManager@DirectUI@@QAEAAV01@$$QAV01@@Z
  ??4InvokeManager@DirectUI@@QAEAAV01@ABV01@@Z="C:\Windows\SysWOW64\dui70".??4InvokeManager@DirectUI@@QAEAAV01@ABV01@@Z
  ??4InvokeProxy@DirectUI@@QAEAAV01@$$QAV01@@Z="C:\Windows\SysWOW64\dui70".??4InvokeProxy@DirectUI@@QAEAAV01@$$QAV01@@Z
  ??4InvokeProxy@DirectUI@@QAEAAV01@ABV01@@Z="C:\Windows\SysWOW64\dui70".??4InvokeProxy@DirectUI@@QAEAAV01@ABV01@@Z
  ??4Layout@DirectUI@@QAEAAV01@ABV01@@Z="C:\Windows\SysWOW64\dui70".??4Layout@DirectUI@@QAEAAV01@ABV01@@Z
  ??4LinkedList@DirectUI@@QAEAAV01@ABV01@@Z="C:\Windows\SysWOW64\dui70".??4LinkedList@DirectUI@@QAEAAV01@ABV01@@Z
  ??4LinkedListNode@DirectUI@@QAEAAV01@$$QAV01@@Z="C:\Windows\SysWOW64\dui70".??4LinkedListNode@DirectUI@@QAEAAV01@$$QAV01@@Z
  ??4LinkedListNode@DirectUI@@QAEAAV01@ABV01@@Z="C:\Windows\SysWOW64\dui70".??4LinkedListNode@DirectUI@@QAEAAV01@ABV01@@Z
  ??4Macro@DirectUI@@QAEAAV01@$$QAV01@@Z="C:\Windows\SysWOW64\dui70".??4Macro@DirectUI@@QAEAAV01@$$QAV01@@Z
  ??4Macro@DirectUI@@QAEAAV01@ABV01@@Z="C:\Windows\SysWOW64\dui70".??4Macro@DirectUI@@QAEAAV01@ABV01@@Z
  ??4ModernProgressBarRangeValueProxy@DirectUI@@QAEAAV01@$$QAV01@@Z="C:\Windows\SysWOW64\dui70".??4ModernProgressBarRangeValueProxy@DirectUI@@QAEAAV01@$$QAV01@@Z
  ??4ModernProgressBarRangeValueProxy@DirectUI@@QAEAAV01@ABV01@@Z="C:\Windows\SysWOW64\dui70".??4ModernProgressBarRangeValueProxy@DirectUI@@QAEAAV01@ABV01@@Z
  ??4Movie@DirectUI@@QAEAAV01@ABV01@@Z="C:\Windows\SysWOW64\dui70".??4Movie@DirectUI@@QAEAAV01@ABV01@@Z
  ??4NativeHWNDHost@DirectUI@@QAEAAV01@ABV01@@Z="C:\Windows\SysWOW64\dui70".??4NativeHWNDHost@DirectUI@@QAEAAV01@ABV01@@Z
  ??4NavReference@DirectUI@@QAEAAU01@$$QAU01@@Z="C:\Windows\SysWOW64\dui70".??4NavReference@DirectUI@@QAEAAU01@$$QAU01@@Z
  ??4NavReference@DirectUI@@QAEAAU01@ABU01@@Z="C:\Windows\SysWOW64\dui70".??4NavReference@DirectUI@@QAEAAU01@ABU01@@Z
  ??4NavScoring@DirectUI@@QAEAAU01@$$QAU01@@Z="C:\Windows\SysWOW64\dui70".??4NavScoring@DirectUI@@QAEAAU01@$$QAU01@@Z
  ??4NavScoring@DirectUI@@QAEAAU01@ABU01@@Z="C:\Windows\SysWOW64\dui70".??4NavScoring@DirectUI@@QAEAAU01@ABU01@@Z
  ??4Navigator@DirectUI@@QAEAAV01@$$QAV01@@Z="C:\Windows\SysWOW64\dui70".??4Navigator@DirectUI@@QAEAAV01@$$QAV01@@Z
  ??4Navigator@DirectUI@@QAEAAV01@ABV01@@Z="C:\Windows\SysWOW64\dui70".??4Navigator@DirectUI@@QAEAAV01@ABV01@@Z
  ??4NavigatorSelectionItemProxy@DirectUI@@QAEAAV01@$$QAV01@@Z="C:\Windows\SysWOW64\dui70".??4NavigatorSelectionItemProxy@DirectUI@@QAEAAV01@$$QAV01@@Z
  ??4NavigatorSelectionItemProxy@DirectUI@@QAEAAV01@ABV01@@Z="C:\Windows\SysWOW64\dui70".??4NavigatorSelectionItemProxy@DirectUI@@QAEAAV01@ABV01@@Z
  ??4NineGridLayout@DirectUI@@QAEAAV01@ABV01@@Z="C:\Windows\SysWOW64\dui70".??4NineGridLayout@DirectUI@@QAEAAV01@ABV01@@Z
  ??4PText@DirectUI@@QAEAAV01@ABV01@@Z="C:\Windows\SysWOW64\dui70".??4PText@DirectUI@@QAEAAV01@ABV01@@Z
  ??4PVLAnimation@DirectUI@@QAEAAV01@$$QAV01@@Z="C:\Windows\SysWOW64\dui70".??4PVLAnimation@DirectUI@@QAEAAV01@$$QAV01@@Z
  ??4PVLAnimation@DirectUI@@QAEAAV01@ABV01@@Z="C:\Windows\SysWOW64\dui70".??4PVLAnimation@DirectUI@@QAEAAV01@ABV01@@Z
  ??4Page@DirectUI@@QAEAAV01@$$QAV01@@Z="C:\Windows\SysWOW64\dui70".??4Page@DirectUI@@QAEAAV01@$$QAV01@@Z
  ??4Page@DirectUI@@QAEAAV01@ABV01@@Z="C:\Windows\SysWOW64\dui70".??4Page@DirectUI@@QAEAAV01@ABV01@@Z
  ??4Pages@DirectUI@@QAEAAV01@$$QAV01@@Z="C:\Windows\SysWOW64\dui70".??4Pages@DirectUI@@QAEAAV01@$$QAV01@@Z
  ??4Pages@DirectUI@@QAEAAV01@ABV01@@Z="C:\Windows\SysWOW64\dui70".??4Pages@DirectUI@@QAEAAV01@ABV01@@Z
  ??4Progress@DirectUI@@QAEAAV01@ABV01@@Z="C:\Windows\SysWOW64\dui70".??4Progress@DirectUI@@QAEAAV01@ABV01@@Z
  ??4ProgressRangeValueProxy@DirectUI@@QAEAAV01@$$QAV01@@Z="C:\Windows\SysWOW64\dui70".??4ProgressRangeValueProxy@DirectUI@@QAEAAV01@$$QAV01@@Z
  ??4ProgressRangeValueProxy@DirectUI@@QAEAAV01@ABV01@@Z="C:\Windows\SysWOW64\dui70".??4ProgressRangeValueProxy@DirectUI@@QAEAAV01@ABV01@@Z
  ??4ProviderProxy@DirectUI@@QAEAAV01@$$QAV01@@Z="C:\Windows\SysWOW64\dui70".??4ProviderProxy@DirectUI@@QAEAAV01@$$QAV01@@Z
  ??4ProviderProxy@DirectUI@@QAEAAV01@ABV01@@Z="C:\Windows\SysWOW64\dui70".??4ProviderProxy@DirectUI@@QAEAAV01@ABV01@@Z
  ??4Proxy@DirectUI@@QAEAAV01@ABV01@@Z="C:\Windows\SysWOW64\dui70".??4Proxy@DirectUI@@QAEAAV01@ABV01@@Z
  ??4PushButton@DirectUI@@QAEAAV01@$$QAV01@@Z="C:\Windows\SysWOW64\dui70".??4PushButton@DirectUI@@QAEAAV01@$$QAV01@@Z
  ??4PushButton@DirectUI@@QAEAAV01@ABV01@@Z="C:\Windows\SysWOW64\dui70".??4PushButton@DirectUI@@QAEAAV01@ABV01@@Z
  ??4RadioButtonGlyph@DirectUI@@QAEAAV01@ABV01@@Z="C:\Windows\SysWOW64\dui70".??4RadioButtonGlyph@DirectUI@@QAEAAV01@ABV01@@Z
  ??4RangeValueProxy@DirectUI@@QAEAAV01@$$QAV01@@Z="C:\Windows\SysWOW64\dui70".??4RangeValueProxy@DirectUI@@QAEAAV01@$$QAV01@@Z
  ??4RangeValueProxy@DirectUI@@QAEAAV01@ABV01@@Z="C:\Windows\SysWOW64\dui70".??4RangeValueProxy@DirectUI@@QAEAAV01@ABV01@@Z
  ??4RefPointElement@DirectUI@@QAEAAV01@ABV01@@Z="C:\Windows\SysWOW64\dui70".??4RefPointElement@DirectUI@@QAEAAV01@ABV01@@Z
  ??4RepeatButton@DirectUI@@QAEAAV01@ABV01@@Z="C:\Windows\SysWOW64\dui70".??4RepeatButton@DirectUI@@QAEAAV01@ABV01@@Z
  ??4Repeater@DirectUI@@QAEAAV01@$$QAV01@@Z="C:\Windows\SysWOW64\dui70".??4Repeater@DirectUI@@QAEAAV01@$$QAV01@@Z
  ??4Repeater@DirectUI@@QAEAAV01@ABV01@@Z="C:\Windows\SysWOW64\dui70".??4Repeater@DirectUI@@QAEAAV01@ABV01@@Z
  ??4ResourceModuleHandles@DirectUI@@QAEAAV01@ABV01@@Z="C:\Windows\SysWOW64\dui70".??4ResourceModuleHandles@DirectUI@@QAEAAV01@ABV01@@Z
  ??4RowLayout@DirectUI@@QAEAAV01@ABV01@@Z="C:\Windows\SysWOW64\dui70".??4RowLayout@DirectUI@@QAEAAV01@ABV01@@Z
  ??4Schema@DirectUI@@QAEAAV01@$$QAV01@@Z="C:\Windows\SysWOW64\dui70".??4Schema@DirectUI@@QAEAAV01@$$QAV01@@Z
  ??4Schema@DirectUI@@QAEAAV01@ABV01@@Z="C:\Windows\SysWOW64\dui70".??4Schema@DirectUI@@QAEAAV01@ABV01@@Z
  ??4ScrollBar@DirectUI@@QAEAAV01@ABV01@@Z="C:\Windows\SysWOW64\dui70".??4ScrollBar@DirectUI@@QAEAAV01@ABV01@@Z
  ??4ScrollBarRangeValueProxy@DirectUI@@QAEAAV01@$$QAV01@@Z="C:\Windows\SysWOW64\dui70".??4ScrollBarRangeValueProxy@DirectUI@@QAEAAV01@$$QAV01@@Z
  ??4ScrollBarRangeValueProxy@DirectUI@@QAEAAV01@ABV01@@Z="C:\Windows\SysWOW64\dui70".??4ScrollBarRangeValueProxy@DirectUI@@QAEAAV01@ABV01@@Z
  ??4ScrollItemProxy@DirectUI@@QAEAAV01@$$QAV01@@Z="C:\Windows\SysWOW64\dui70".??4ScrollItemProxy@DirectUI@@QAEAAV01@$$QAV01@@Z
  ??4ScrollItemProxy@DirectUI@@QAEAAV01@ABV01@@Z="C:\Windows\SysWOW64\dui70".??4ScrollItemProxy@DirectUI@@QAEAAV01@ABV01@@Z
  ??4ScrollProxy@DirectUI@@QAEAAV01@$$QAV01@@Z="C:\Windows\SysWOW64\dui70".??4ScrollProxy@DirectUI@@QAEAAV01@$$QAV01@@Z
  ??4ScrollProxy@DirectUI@@QAEAAV01@ABV01@@Z="C:\Windows\SysWOW64\dui70".??4ScrollProxy@DirectUI@@QAEAAV01@ABV01@@Z
  ??4ScrollViewer@DirectUI@@QAEAAV01@ABV01@@Z="C:\Windows\SysWOW64\dui70".??4ScrollViewer@DirectUI@@QAEAAV01@ABV01@@Z
  ??4SelectionItemProxy@DirectUI@@QAEAAV01@$$QAV01@@Z="C:\Windows\SysWOW64\dui70".??4SelectionItemProxy@DirectUI@@QAEAAV01@$$QAV01@@Z
  ??4SelectionItemProxy@DirectUI@@QAEAAV01@ABV01@@Z="C:\Windows\SysWOW64\dui70".??4SelectionItemProxy@DirectUI@@QAEAAV01@ABV01@@Z
  ??4SelectionProxy@DirectUI@@QAEAAV01@$$QAV01@@Z="C:\Windows\SysWOW64\dui70".??4SelectionProxy@DirectUI@@QAEAAV01@$$QAV01@@Z
  ??4SelectionProxy@DirectUI@@QAEAAV01@ABV01@@Z="C:\Windows\SysWOW64\dui70".??4SelectionProxy@DirectUI@@QAEAAV01@ABV01@@Z
  ??4Selector@DirectUI@@QAEAAV01@ABV01@@Z="C:\Windows\SysWOW64\dui70".??4Selector@DirectUI@@QAEAAV01@ABV01@@Z
  ??4SelectorNoDefault@DirectUI@@QAEAAV01@$$QAV01@@Z="C:\Windows\SysWOW64\dui70".??4SelectorNoDefault@DirectUI@@QAEAAV01@$$QAV01@@Z
  ??4SelectorNoDefault@DirectUI@@QAEAAV01@ABV01@@Z="C:\Windows\SysWOW64\dui70".??4SelectorNoDefault@DirectUI@@QAEAAV01@ABV01@@Z
  ??4SelectorSelectionItemProxy@DirectUI@@QAEAAV01@$$QAV01@@Z="C:\Windows\SysWOW64\dui70".??4SelectorSelectionItemProxy@DirectUI@@QAEAAV01@$$QAV01@@Z
  ??4SelectorSelectionItemProxy@DirectUI@@QAEAAV01@ABV01@@Z="C:\Windows\SysWOW64\dui70".??4SelectorSelectionItemProxy@DirectUI@@QAEAAV01@ABV01@@Z
  ??4SelectorSelectionProxy@DirectUI@@QAEAAV01@$$QAV01@@Z="C:\Windows\SysWOW64\dui70".??4SelectorSelectionProxy@DirectUI@@QAEAAV01@$$QAV01@@Z
  ??4SelectorSelectionProxy@DirectUI@@QAEAAV01@ABV01@@Z="C:\Windows\SysWOW64\dui70".??4SelectorSelectionProxy@DirectUI@@QAEAAV01@ABV01@@Z
  ??4ShellBorderLayout@DirectUI@@QAEAAV01@ABV01@@Z="C:\Windows\SysWOW64\dui70".??4ShellBorderLayout@DirectUI@@QAEAAV01@ABV01@@Z
  ??4StyleSheet@DirectUI@@QAEAAV01@$$QAV01@@Z="C:\Windows\SysWOW64\dui70".??4StyleSheet@DirectUI@@QAEAAV01@$$QAV01@@Z
  ??4StyleSheet@DirectUI@@QAEAAV01@ABV01@@Z="C:\Windows\SysWOW64\dui70".??4StyleSheet@DirectUI@@QAEAAV01@ABV01@@Z
  ??4StyledScrollViewer@DirectUI@@QAEAAV01@ABV01@@Z="C:\Windows\SysWOW64\dui70".??4StyledScrollViewer@DirectUI@@QAEAAV01@ABV01@@Z
  ??4Surface@DirectUI@@QAEAAV01@ABV01@@Z="C:\Windows\SysWOW64\dui70".??4Surface@DirectUI@@QAEAAV01@ABV01@@Z
  ??4TableItemProxy@DirectUI@@QAEAAV01@$$QAV01@@Z="C:\Windows\SysWOW64\dui70".??4TableItemProxy@DirectUI@@QAEAAV01@$$QAV01@@Z
  ??4TableItemProxy@DirectUI@@QAEAAV01@ABV01@@Z="C:\Windows\SysWOW64\dui70".??4TableItemProxy@DirectUI@@QAEAAV01@ABV01@@Z
  ??4TableLayout@DirectUI@@QAEAAV01@ABV01@@Z="C:\Windows\SysWOW64\dui70".??4TableLayout@DirectUI@@QAEAAV01@ABV01@@Z
  ??4TableProxy@DirectUI@@QAEAAV01@$$QAV01@@Z="C:\Windows\SysWOW64\dui70".??4TableProxy@DirectUI@@QAEAAV01@$$QAV01@@Z
  ??4TableProxy@DirectUI@@QAEAAV01@ABV01@@Z="C:\Windows\SysWOW64\dui70".??4TableProxy@DirectUI@@QAEAAV01@ABV01@@Z
  ??4TaskPage@DirectUI@@QAEAAV01@ABV01@@Z="C:\Windows\SysWOW64\dui70".??4TaskPage@DirectUI@@QAEAAV01@ABV01@@Z
  ??4TextGraphic@DirectUI@@QAEAAV01@$$QAV01@@Z="C:\Windows\SysWOW64\dui70".??4TextGraphic@DirectUI@@QAEAAV01@$$QAV01@@Z
  ??4TextGraphic@DirectUI@@QAEAAV01@ABV01@@Z="C:\Windows\SysWOW64\dui70".??4TextGraphic@DirectUI@@QAEAAV01@ABV01@@Z
  ??4Thumb@DirectUI@@QAEAAV01@ABV01@@Z="C:\Windows\SysWOW64\dui70".??4Thumb@DirectUI@@QAEAAV01@ABV01@@Z
  ??4ToggleProxy@DirectUI@@QAEAAV01@$$QAV01@@Z="C:\Windows\SysWOW64\dui70".??4ToggleProxy@DirectUI@@QAEAAV01@$$QAV01@@Z
  ??4ToggleProxy@DirectUI@@QAEAAV01@ABV01@@Z="C:\Windows\SysWOW64\dui70".??4ToggleProxy@DirectUI@@QAEAAV01@ABV01@@Z
  ??4UnknownElement@DirectUI@@QAEAAV01@ABV01@@Z="C:\Windows\SysWOW64\dui70".??4UnknownElement@DirectUI@@QAEAAV01@ABV01@@Z
  ??4Value@DirectUI@@QAEAAV01@$$QAV01@@Z="C:\Windows\SysWOW64\dui70".??4Value@DirectUI@@QAEAAV01@$$QAV01@@Z
  ??4Value@DirectUI@@QAEAAV01@ABV01@@Z="C:\Windows\SysWOW64\dui70".??4Value@DirectUI@@QAEAAV01@ABV01@@Z
  ??4ValueProxy@DirectUI@@QAEAAV01@$$QAV01@@Z="C:\Windows\SysWOW64\dui70".??4ValueProxy@DirectUI@@QAEAAV01@$$QAV01@@Z
  ??4ValueProxy@DirectUI@@QAEAAV01@ABV01@@Z="C:\Windows\SysWOW64\dui70".??4ValueProxy@DirectUI@@QAEAAV01@ABV01@@Z
  ??4VerticalFlowLayout@DirectUI@@QAEAAV01@ABV01@@Z="C:\Windows\SysWOW64\dui70".??4VerticalFlowLayout@DirectUI@@QAEAAV01@ABV01@@Z
  ??4Viewer@DirectUI@@QAEAAV01@ABV01@@Z="C:\Windows\SysWOW64\dui70".??4Viewer@DirectUI@@QAEAAV01@ABV01@@Z
  ??4XBaby@DirectUI@@QAEAAV01@ABV01@@Z="C:\Windows\SysWOW64\dui70".??4XBaby@DirectUI@@QAEAAV01@ABV01@@Z
  ??4XElement@DirectUI@@QAEAAV01@ABV01@@Z="C:\Windows\SysWOW64\dui70".??4XElement@DirectUI@@QAEAAV01@ABV01@@Z
  ??4XHost@DirectUI@@QAEAAV01@ABV01@@Z="C:\Windows\SysWOW64\dui70".??4XHost@DirectUI@@QAEAAV01@ABV01@@Z
  ??4XProvider@DirectUI@@QAEAAV01@ABV01@@Z="C:\Windows\SysWOW64\dui70".??4XProvider@DirectUI@@QAEAAV01@ABV01@@Z
  ??4XResourceProvider@DirectUI@@QAEAAV01@$$QAV01@@Z="C:\Windows\SysWOW64\dui70".??4XResourceProvider@DirectUI@@QAEAAV01@$$QAV01@@Z
  ??4XResourceProvider@DirectUI@@QAEAAV01@ABV01@@Z="C:\Windows\SysWOW64\dui70".??4XResourceProvider@DirectUI@@QAEAAV01@ABV01@@Z
  ??B?$SafeArrayAccessor@H@DirectUI@@QAEPAHXZ="C:\Windows\SysWOW64\dui70".??B?$SafeArrayAccessor@H@DirectUI@@QAEPAHXZ
  ??BTaskPage@DirectUI@@QAEPAU_PSP@@XZ="C:\Windows\SysWOW64\dui70".??BTaskPage@DirectUI@@QAEPAU_PSP@@XZ
  ??_7?$PatternProvider@VExpandCollapseProvider@DirectUI@@UIExpandCollapseProvider@@$00@DirectUI@@6BIProvider@1@@="C:\Windows\SysWOW64\dui70".??_7?$PatternProvider@VExpandCollapseProvider@DirectUI@@UIExpandCollapseProvider@@$00@DirectUI@@6BIProvider@1@@
  ??_7?$PatternProvider@VExpandCollapseProvider@DirectUI@@UIExpandCollapseProvider@@$00@DirectUI@@6BRefcountBase@1@@="C:\Windows\SysWOW64\dui70".??_7?$PatternProvider@VExpandCollapseProvider@DirectUI@@UIExpandCollapseProvider@@$00@DirectUI@@6BRefcountBase@1@@
  ??_7?$PatternProvider@VGridItemProvider@DirectUI@@UIGridItemProvider@@$01@DirectUI@@6BIProvider@1@@="C:\Windows\SysWOW64\dui70".??_7?$PatternProvider@VGridItemProvider@DirectUI@@UIGridItemProvider@@$01@DirectUI@@6BIProvider@1@@
  ??_7?$PatternProvider@VGridItemProvider@DirectUI@@UIGridItemProvider@@$01@DirectUI@@6BRefcountBase@1@@="C:\Windows\SysWOW64\dui70".??_7?$PatternProvider@VGridItemProvider@DirectUI@@UIGridItemProvider@@$01@DirectUI@@6BRefcountBase@1@@
  ??_7?$PatternProvider@VGridProvider@DirectUI@@UIGridProvider@@$02@DirectUI@@6BIProvider@1@@="C:\Windows\SysWOW64\dui70".??_7?$PatternProvider@VGridProvider@DirectUI@@UIGridProvider@@$02@DirectUI@@6BIProvider@1@@
  ??_7?$PatternProvider@VGridProvider@DirectUI@@UIGridProvider@@$02@DirectUI@@6BRefcountBase@1@@="C:\Windows\SysWOW64\dui70".??_7?$PatternProvider@VGridProvider@DirectUI@@UIGridProvider@@$02@DirectUI@@6BRefcountBase@1@@
  ??_7?$PatternProvider@VInvokeProvider@DirectUI@@UIInvokeProvider@@$0A@@DirectUI@@6BIProvider@1@@="C:\Windows\SysWOW64\dui70".??_7?$PatternProvider@VInvokeProvider@DirectUI@@UIInvokeProvider@@$0A@@DirectUI@@6BIProvider@1@@
  ??_7?$PatternProvider@VInvokeProvider@DirectUI@@UIInvokeProvider@@$0A@@DirectUI@@6BRefcountBase@1@@="C:\Windows\SysWOW64\dui70".??_7?$PatternProvider@VInvokeProvider@DirectUI@@UIInvokeProvider@@$0A@@DirectUI@@6BRefcountBase@1@@
  ??_7?$PatternProvider@VRangeValueProvider@DirectUI@@UIRangeValueProvider@@$03@DirectUI@@6BIProvider@1@@="C:\Windows\SysWOW64\dui70".??_7?$PatternProvider@VRangeValueProvider@DirectUI@@UIRangeValueProvider@@$03@DirectUI@@6BIProvider@1@@
  ??_7?$PatternProvider@VRangeValueProvider@DirectUI@@UIRangeValueProvider@@$03@DirectUI@@6BRefcountBase@1@@="C:\Windows\SysWOW64\dui70".??_7?$PatternProvider@VRangeValueProvider@DirectUI@@UIRangeValueProvider@@$03@DirectUI@@6BRefcountBase@1@@
  ??_7?$PatternProvider@VScrollItemProvider@DirectUI@@UIScrollItemProvider@@$05@DirectUI@@6BIProvider@1@@="C:\Windows\SysWOW64\dui70".??_7?$PatternProvider@VScrollItemProvider@DirectUI@@UIScrollItemProvider@@$05@DirectUI@@6BIProvider@1@@
  ??_7?$PatternProvider@VScrollItemProvider@DirectUI@@UIScrollItemProvider@@$05@DirectUI@@6BRefcountBase@1@@="C:\Windows\SysWOW64\dui70".??_7?$PatternProvider@VScrollItemProvider@DirectUI@@UIScrollItemProvider@@$05@DirectUI@@6BRefcountBase@1@@
  ??_7?$PatternProvider@VScrollProvider@DirectUI@@UIScrollProvider@@$04@DirectUI@@6BIProvider@1@@="C:\Windows\SysWOW64\dui70".??_7?$PatternProvider@VScrollProvider@DirectUI@@UIScrollProvider@@$04@DirectUI@@6BIProvider@1@@
  ??_7?$PatternProvider@VScrollProvider@DirectUI@@UIScrollProvider@@$04@DirectUI@@6BRefcountBase@1@@="C:\Windows\SysWOW64\dui70".??_7?$PatternProvider@VScrollProvider@DirectUI@@UIScrollProvider@@$04@DirectUI@@6BRefcountBase@1@@
  ??_7?$PatternProvider@VSelectionItemProvider@DirectUI@@UISelectionItemProvider@@$06@DirectUI@@6BIProvider@1@@="C:\Windows\SysWOW64\dui70".??_7?$PatternProvider@VSelectionItemProvider@DirectUI@@UISelectionItemProvider@@$06@DirectUI@@6BIProvider@1@@
  ??_7?$PatternProvider@VSelectionItemProvider@DirectUI@@UISelectionItemProvider@@$06@DirectUI@@6BRefcountBase@1@@="C:\Windows\SysWOW64\dui70".??_7?$PatternProvider@VSelectionItemProvider@DirectUI@@UISelectionItemProvider@@$06@DirectUI@@6BRefcountBase@1@@
  ??_7?$PatternProvider@VSelectionProvider@DirectUI@@UISelectionProvider@@$07@DirectUI@@6BIProvider@1@@="C:\Windows\SysWOW64\dui70".??_7?$PatternProvider@VSelectionProvider@DirectUI@@UISelectionProvider@@$07@DirectUI@@6BIProvider@1@@
  ??_7?$PatternProvider@VSelectionProvider@DirectUI@@UISelectionProvider@@$07@DirectUI@@6BRefcountBase@1@@="C:\Windows\SysWOW64\dui70".??_7?$PatternProvider@VSelectionProvider@DirectUI@@UISelectionProvider@@$07@DirectUI@@6BRefcountBase@1@@
  ??_7?$PatternProvider@VTableItemProvider@DirectUI@@UITableItemProvider@@$09@DirectUI@@6BIProvider@1@@="C:\Windows\SysWOW64\dui70".??_7?$PatternProvider@VTableItemProvider@DirectUI@@UITableItemProvider@@$09@DirectUI@@6BIProvider@1@@
  ??_7?$PatternProvider@VTableItemProvider@DirectUI@@UITableItemProvider@@$09@DirectUI@@6BRefcountBase@1@@="C:\Windows\SysWOW64\dui70".??_7?$PatternProvider@VTableItemProvider@DirectUI@@UITableItemProvider@@$09@DirectUI@@6BRefcountBase@1@@
  ??_7?$PatternProvider@VTableProvider@DirectUI@@UITableProvider@@$08@DirectUI@@6BIProvider@1@@="C:\Windows\SysWOW64\dui70".??_7?$PatternProvider@VTableProvider@DirectUI@@UITableProvider@@$08@DirectUI@@6BIProvider@1@@
  ??_7?$PatternProvider@VTableProvider@DirectUI@@UITableProvider@@$08@DirectUI@@6BRefcountBase@1@@="C:\Windows\SysWOW64\dui70".??_7?$PatternProvider@VTableProvider@DirectUI@@UITableProvider@@$08@DirectUI@@6BRefcountBase@1@@
  ??_7?$PatternProvider@VToggleProvider@DirectUI@@UIToggleProvider@@$0L@@DirectUI@@6BIProvider@1@@="C:\Windows\SysWOW64\dui70".??_7?$PatternProvider@VToggleProvider@DirectUI@@UIToggleProvider@@$0L@@DirectUI@@6BIProvider@1@@
  ??_7?$PatternProvider@VToggleProvider@DirectUI@@UIToggleProvider@@$0L@@DirectUI@@6BRefcountBase@1@@="C:\Windows\SysWOW64\dui70".??_7?$PatternProvider@VToggleProvider@DirectUI@@UIToggleProvider@@$0L@@DirectUI@@6BRefcountBase@1@@
  ??_7?$PatternProvider@VValueProvider@DirectUI@@UIValueProvider@@$0M@@DirectUI@@6BIProvider@1@@="C:\Windows\SysWOW64\dui70".??_7?$PatternProvider@VValueProvider@DirectUI@@UIValueProvider@@$0M@@DirectUI@@6BIProvider@1@@
  ??_7?$PatternProvider@VValueProvider@DirectUI@@UIValueProvider@@$0M@@DirectUI@@6BRefcountBase@1@@="C:\Windows\SysWOW64\dui70".??_7?$PatternProvider@VValueProvider@DirectUI@@UIValueProvider@@$0M@@DirectUI@@6BRefcountBase@1@@
  ??_7AccessibleButton@DirectUI@@6B@="C:\Windows\SysWOW64\dui70".??_7AccessibleButton@DirectUI@@6B@
  ??_7AnimationStrip@DirectUI@@6B@="C:\Windows\SysWOW64\dui70".??_7AnimationStrip@DirectUI@@6B@
  ??_7AutoButton@DirectUI@@6B@="C:\Windows\SysWOW64\dui70".??_7AutoButton@DirectUI@@6B@
  ??_7BaseScrollBar@DirectUI@@6B@="C:\Windows\SysWOW64\dui70".??_7BaseScrollBar@DirectUI@@6B@
  ??_7BaseScrollViewer@DirectUI@@6BElement@1@@="C:\Windows\SysWOW64\dui70".??_7BaseScrollViewer@DirectUI@@6BElement@1@@
  ??_7BaseScrollViewer@DirectUI@@6BIElementListener@1@@="C:\Windows\SysWOW64\dui70".??_7BaseScrollViewer@DirectUI@@6BIElementListener@1@@
  ??_7Bind@DirectUI@@6B@="C:\Windows\SysWOW64\dui70".??_7Bind@DirectUI@@6B@
  ??_7BorderLayout@DirectUI@@6B@="C:\Windows\SysWOW64\dui70".??_7BorderLayout@DirectUI@@6B@
  ??_7Browser@DirectUI@@6B@="C:\Windows\SysWOW64\dui70".??_7Browser@DirectUI@@6B@
  ??_7BrowserSelectionProxy@DirectUI@@6B@="C:\Windows\SysWOW64\dui70".??_7BrowserSelectionProxy@DirectUI@@6B@
  ??_7Button@DirectUI@@6B@="C:\Windows\SysWOW64\dui70".??_7Button@DirectUI@@6B@
  ??_7CCAVI@DirectUI@@6B@="C:\Windows\SysWOW64\dui70".??_7CCAVI@DirectUI@@6B@
  ??_7CCBase@DirectUI@@6B@="C:\Windows\SysWOW64\dui70".??_7CCBase@DirectUI@@6B@
  ??_7CCBaseCheckRadioButton@DirectUI@@6B@="C:\Windows\SysWOW64\dui70".??_7CCBaseCheckRadioButton@DirectUI@@6B@
  ??_7CCBaseScrollBar@DirectUI@@6BBaseScrollBar@1@@="C:\Windows\SysWOW64\dui70".??_7CCBaseScrollBar@DirectUI@@6BBaseScrollBar@1@@
  ??_7CCBaseScrollBar@DirectUI@@6BCCBase@1@@="C:\Windows\SysWOW64\dui70".??_7CCBaseScrollBar@DirectUI@@6BCCBase@1@@
  ??_7CCCheckBox@DirectUI@@6B@="C:\Windows\SysWOW64\dui70".??_7CCCheckBox@DirectUI@@6B@
  ??_7CCCommandLink@DirectUI@@6B@="C:\Windows\SysWOW64\dui70".??_7CCCommandLink@DirectUI@@6B@
  ??_7CCHScrollBar@DirectUI@@6BBaseScrollBar@1@@="C:\Windows\SysWOW64\dui70".??_7CCHScrollBar@DirectUI@@6BBaseScrollBar@1@@
  ??_7CCHScrollBar@DirectUI@@6BCCBase@1@@="C:\Windows\SysWOW64\dui70".??_7CCHScrollBar@DirectUI@@6BCCBase@1@@
  ??_7CCListBox@DirectUI@@6B@="C:\Windows\SysWOW64\dui70".??_7CCListBox@DirectUI@@6B@
  ??_7CCListView@DirectUI@@6B@="C:\Windows\SysWOW64\dui70".??_7CCListView@DirectUI@@6B@
  ??_7CCProgressBar@DirectUI@@6B@="C:\Windows\SysWOW64\dui70".??_7CCProgressBar@DirectUI@@6B@
  ??_7CCPushButton@DirectUI@@6B@="C:\Windows\SysWOW64\dui70".??_7CCPushButton@DirectUI@@6B@
  ??_7CCRadioButton@DirectUI@@6B@="C:\Windows\SysWOW64\dui70".??_7CCRadioButton@DirectUI@@6B@
  ??_7CCSysLink@DirectUI@@6B@="C:\Windows\SysWOW64\dui70".??_7CCSysLink@DirectUI@@6B@
  ??_7CCTrackBar@DirectUI@@6B@="C:\Windows\SysWOW64\dui70".??_7CCTrackBar@DirectUI@@6B@
  ??_7CCTreeView@DirectUI@@6B@="C:\Windows\SysWOW64\dui70".??_7CCTreeView@DirectUI@@6B@
  ??_7CCVScrollBar@DirectUI@@6BBaseScrollBar@1@@="C:\Windows\SysWOW64\dui70".??_7CCVScrollBar@DirectUI@@6BBaseScrollBar@1@@
  ??_7CCVScrollBar@DirectUI@@6BCCBase@1@@="C:\Windows\SysWOW64\dui70".??_7CCVScrollBar@DirectUI@@6BCCBase@1@@
  ??_7CheckBoxGlyph@DirectUI@@6B@="C:\Windows\SysWOW64\dui70".??_7CheckBoxGlyph@DirectUI@@6B@
  ??_7ClassInfoBase@DirectUI@@6B@="C:\Windows\SysWOW64\dui70".??_7ClassInfoBase@DirectUI@@6B@
  ??_7Clipper@DirectUI@@6B@="C:\Windows\SysWOW64\dui70".??_7Clipper@DirectUI@@6B@
  ??_7Combobox@DirectUI@@6B@="C:\Windows\SysWOW64\dui70".??_7Combobox@DirectUI@@6B@
  ??_7DCSurface@DirectUI@@6B@="C:\Windows\SysWOW64\dui70".??_7DCSurface@DirectUI@@6B@
  ??_7DUIXmlParser@DirectUI@@6B@="C:\Windows\SysWOW64\dui70".??_7DUIXmlParser@DirectUI@@6B@
  ??_7DialogElement@DirectUI@@6BHWNDElement@1@@="C:\Windows\SysWOW64\dui70".??_7DialogElement@DirectUI@@6BHWNDElement@1@@
  ??_7DialogElement@DirectUI@@6BIDialogElement@1@@="C:\Windows\SysWOW64\dui70".??_7DialogElement@DirectUI@@6BIDialogElement@1@@
  ??_7DialogElement@DirectUI@@6BIElementListener@1@@="C:\Windows\SysWOW64\dui70".??_7DialogElement@DirectUI@@6BIElementListener@1@@
  ??_7DuiAccessible@DirectUI@@6BIAccIdentity@@@="C:\Windows\SysWOW64\dui70".??_7DuiAccessible@DirectUI@@6BIAccIdentity@@@
  ??_7DuiAccessible@DirectUI@@6BIAccessible@@@="C:\Windows\SysWOW64\dui70".??_7DuiAccessible@DirectUI@@6BIAccessible@@@
  ??_7DuiAccessible@DirectUI@@6BIEnumVARIANT@@@="C:\Windows\SysWOW64\dui70".??_7DuiAccessible@DirectUI@@6BIEnumVARIANT@@@
  ??_7DuiAccessible@DirectUI@@6BIOleWindow@@@="C:\Windows\SysWOW64\dui70".??_7DuiAccessible@DirectUI@@6BIOleWindow@@@
  ??_7DuiAccessible@DirectUI@@6BIServiceProvider@@@="C:\Windows\SysWOW64\dui70".??_7DuiAccessible@DirectUI@@6BIServiceProvider@@@
  ??_7Edit@DirectUI@@6B@="C:\Windows\SysWOW64\dui70".??_7Edit@DirectUI@@6B@
  ??_7Element@DirectUI@@6B@="C:\Windows\SysWOW64\dui70".??_7Element@DirectUI@@6B@
  ??_7ElementProvider@DirectUI@@6BIRawElementProviderAdviseEvents@@@="C:\Windows\SysWOW64\dui70".??_7ElementProvider@DirectUI@@6BIRawElementProviderAdviseEvents@@@
  ??_7ElementProvider@DirectUI@@6BIRawElementProviderFragment@@@="C:\Windows\SysWOW64\dui70".??_7ElementProvider@DirectUI@@6BIRawElementProviderFragment@@@
  ??_7ElementProvider@DirectUI@@6BIRawElementProviderSimple2@@@="C:\Windows\SysWOW64\dui70".??_7ElementProvider@DirectUI@@6BIRawElementProviderSimple2@@@
  ??_7ElementProvider@DirectUI@@6BRefcountBase@1@@="C:\Windows\SysWOW64\dui70".??_7ElementProvider@DirectUI@@6BRefcountBase@1@@
  ??_7ElementWithHWND@DirectUI@@6B@="C:\Windows\SysWOW64\dui70".??_7ElementWithHWND@DirectUI@@6B@
  ??_7ExpandCollapseProvider@DirectUI@@6B@="C:\Windows\SysWOW64\dui70".??_7ExpandCollapseProvider@DirectUI@@6B@
  ??_7ExpandCollapseProvider@DirectUI@@6BIProvider@1@@="C:\Windows\SysWOW64\dui70".??_7ExpandCollapseProvider@DirectUI@@6BIProvider@1@@
  ??_7ExpandCollapseProvider@DirectUI@@6BRefcountBase@1@@="C:\Windows\SysWOW64\dui70".??_7ExpandCollapseProvider@DirectUI@@6BRefcountBase@1@@
  ??_7ExpandCollapseProxy@DirectUI@@6B@="C:\Windows\SysWOW64\dui70".??_7ExpandCollapseProxy@DirectUI@@6B@
  ??_7Expandable@DirectUI@@6B@="C:\Windows\SysWOW64\dui70".??_7Expandable@DirectUI@@6B@
  ??_7Expando@DirectUI@@6B@="C:\Windows\SysWOW64\dui70".??_7Expando@DirectUI@@6B@
  ??_7ExpandoButtonGlyph@DirectUI@@6B@="C:\Windows\SysWOW64\dui70".??_7ExpandoButtonGlyph@DirectUI@@6B@
  ??_7FillLayout@DirectUI@@6B@="C:\Windows\SysWOW64\dui70".??_7FillLayout@DirectUI@@6B@
  ??_7FlowLayout@DirectUI@@6B@="C:\Windows\SysWOW64\dui70".??_7FlowLayout@DirectUI@@6B@
  ??_7FontCache@DirectUI@@6B@="C:\Windows\SysWOW64\dui70".??_7FontCache@DirectUI@@6B@
  ??_7GridItemProvider@DirectUI@@6B@="C:\Windows\SysWOW64\dui70".??_7GridItemProvider@DirectUI@@6B@
  ??_7GridItemProvider@DirectUI@@6BIProvider@1@@="C:\Windows\SysWOW64\dui70".??_7GridItemProvider@DirectUI@@6BIProvider@1@@
  ??_7GridItemProvider@DirectUI@@6BRefcountBase@1@@="C:\Windows\SysWOW64\dui70".??_7GridItemProvider@DirectUI@@6BRefcountBase@1@@
  ??_7GridItemProxy@DirectUI@@6B@="C:\Windows\SysWOW64\dui70".??_7GridItemProxy@DirectUI@@6B@
  ??_7GridLayout@DirectUI@@6B@="C:\Windows\SysWOW64\dui70".??_7GridLayout@DirectUI@@6B@
  ??_7GridProvider@DirectUI@@6B@="C:\Windows\SysWOW64\dui70".??_7GridProvider@DirectUI@@6B@
  ??_7GridProvider@DirectUI@@6BIProvider@1@@="C:\Windows\SysWOW64\dui70".??_7GridProvider@DirectUI@@6BIProvider@1@@
  ??_7GridProvider@DirectUI@@6BRefcountBase@1@@="C:\Windows\SysWOW64\dui70".??_7GridProvider@DirectUI@@6BRefcountBase@1@@
  ??_7GridProxy@DirectUI@@6B@="C:\Windows\SysWOW64\dui70".??_7GridProxy@DirectUI@@6B@
  ??_7HWNDElement@DirectUI@@6B@="C:\Windows\SysWOW64\dui70".??_7HWNDElement@DirectUI@@6B@
  ??_7HWNDElementAccessible@DirectUI@@6BIAccIdentity@@@="C:\Windows\SysWOW64\dui70".??_7HWNDElementAccessible@DirectUI@@6BIAccIdentity@@@
  ??_7HWNDElementAccessible@DirectUI@@6BIAccessible@@@="C:\Windows\SysWOW64\dui70".??_7HWNDElementAccessible@DirectUI@@6BIAccessible@@@
  ??_7HWNDElementAccessible@DirectUI@@6BIEnumVARIANT@@@="C:\Windows\SysWOW64\dui70".??_7HWNDElementAccessible@DirectUI@@6BIEnumVARIANT@@@
  ??_7HWNDElementAccessible@DirectUI@@6BIOleWindow@@@="C:\Windows\SysWOW64\dui70".??_7HWNDElementAccessible@DirectUI@@6BIOleWindow@@@
  ??_7HWNDElementAccessible@DirectUI@@6BIServiceProvider@@@="C:\Windows\SysWOW64\dui70".??_7HWNDElementAccessible@DirectUI@@6BIServiceProvider@@@
  ??_7HWNDElementProvider@DirectUI@@6B@="C:\Windows\SysWOW64\dui70".??_7HWNDElementProvider@DirectUI@@6B@
  ??_7HWNDElementProvider@DirectUI@@6BIRawElementProviderAdviseEvents@@@="C:\Windows\SysWOW64\dui70".??_7HWNDElementProvider@DirectUI@@6BIRawElementProviderAdviseEvents@@@
  ??_7HWNDElementProvider@DirectUI@@6BIRawElementProviderFragment@@@="C:\Windows\SysWOW64\dui70".??_7HWNDElementProvider@DirectUI@@6BIRawElementProviderFragment@@@
  ??_7HWNDElementProvider@DirectUI@@6BIRawElementProviderSimple2@@@="C:\Windows\SysWOW64\dui70".??_7HWNDElementProvider@DirectUI@@6BIRawElementProviderSimple2@@@
  ??_7HWNDElementProvider@DirectUI@@6BRefcountBase@1@@="C:\Windows\SysWOW64\dui70".??_7HWNDElementProvider@DirectUI@@6BRefcountBase@1@@
  ??_7HWNDHost@DirectUI@@6B@="C:\Windows\SysWOW64\dui70".??_7HWNDHost@DirectUI@@6B@
  ??_7HWNDHostAccessible@DirectUI@@6BIAccIdentity@@@="C:\Windows\SysWOW64\dui70".??_7HWNDHostAccessible@DirectUI@@6BIAccIdentity@@@
  ??_7HWNDHostAccessible@DirectUI@@6BIAccessible@@@="C:\Windows\SysWOW64\dui70".??_7HWNDHostAccessible@DirectUI@@6BIAccessible@@@
  ??_7HWNDHostAccessible@DirectUI@@6BIEnumVARIANT@@@="C:\Windows\SysWOW64\dui70".??_7HWNDHostAccessible@DirectUI@@6BIEnumVARIANT@@@
  ??_7HWNDHostAccessible@DirectUI@@6BIOleWindow@@@="C:\Windows\SysWOW64\dui70".??_7HWNDHostAccessible@DirectUI@@6BIOleWindow@@@
  ??_7HWNDHostAccessible@DirectUI@@6BIServiceProvider@@@="C:\Windows\SysWOW64\dui70".??_7HWNDHostAccessible@DirectUI@@6BIServiceProvider@@@
  ??_7HWNDHostClientAccessible@DirectUI@@6BIAccIdentity@@@="C:\Windows\SysWOW64\dui70".??_7HWNDHostClientAccessible@DirectUI@@6BIAccIdentity@@@
  ??_7HWNDHostClientAccessible@DirectUI@@6BIAccessible@@@="C:\Windows\SysWOW64\dui70".??_7HWNDHostClientAccessible@DirectUI@@6BIAccessible@@@
  ??_7HWNDHostClientAccessible@DirectUI@@6BIEnumVARIANT@@@="C:\Windows\SysWOW64\dui70".??_7HWNDHostClientAccessible@DirectUI@@6BIEnumVARIANT@@@
  ??_7HWNDHostClientAccessible@DirectUI@@6BIOleWindow@@@="C:\Windows\SysWOW64\dui70".??_7HWNDHostClientAccessible@DirectUI@@6BIOleWindow@@@
  ??_7HWNDHostClientAccessible@DirectUI@@6BIServiceProvider@@@="C:\Windows\SysWOW64\dui70".??_7HWNDHostClientAccessible@DirectUI@@6BIServiceProvider@@@
  ??_7IDataEngine@DirectUI@@6B@="C:\Windows\SysWOW64\dui70".??_7IDataEngine@DirectUI@@6B@
  ??_7IDataEntry@DirectUI@@6B@="C:\Windows\SysWOW64\dui70".??_7IDataEntry@DirectUI@@6B@
  ??_7ISBLeak@DirectUI@@6B@="C:\Windows\SysWOW64\dui70".??_7ISBLeak@DirectUI@@6B@
  ??_7IXElementCP@DirectUI@@6B@="C:\Windows\SysWOW64\dui70".??_7IXElementCP@DirectUI@@6B@
  ??_7IXProviderCP@DirectUI@@6B@="C:\Windows\SysWOW64\dui70".??_7IXProviderCP@DirectUI@@6B@
  ??_7InvokeHelper@DirectUI@@6B@="C:\Windows\SysWOW64\dui70".??_7InvokeHelper@DirectUI@@6B@
  ??_7InvokeProvider@DirectUI@@6B@="C:\Windows\SysWOW64\dui70".??_7InvokeProvider@DirectUI@@6B@
  ??_7InvokeProvider@DirectUI@@6BIProvider@1@@="C:\Windows\SysWOW64\dui70".??_7InvokeProvider@DirectUI@@6BIProvider@1@@
  ??_7InvokeProvider@DirectUI@@6BRefcountBase@1@@="C:\Windows\SysWOW64\dui70".??_7InvokeProvider@DirectUI@@6BRefcountBase@1@@
  ??_7InvokeProxy@DirectUI@@6B@="C:\Windows\SysWOW64\dui70".??_7InvokeProxy@DirectUI@@6B@
  ??_7Layout@DirectUI@@6B@="C:\Windows\SysWOW64\dui70".??_7Layout@DirectUI@@6B@
  ??_7Macro@DirectUI@@6B@="C:\Windows\SysWOW64\dui70".??_7Macro@DirectUI@@6B@
  ??_7ModernProgressBarRangeValueProxy@DirectUI@@6B@="C:\Windows\SysWOW64\dui70".??_7ModernProgressBarRangeValueProxy@DirectUI@@6B@
  ??_7Movie@DirectUI@@6B@="C:\Windows\SysWOW64\dui70".??_7Movie@DirectUI@@6B@
  ??_7NativeHWNDHost@DirectUI@@6B@="C:\Windows\SysWOW64\dui70".??_7NativeHWNDHost@DirectUI@@6B@
  ??_7Navigator@DirectUI@@6B@="C:\Windows\SysWOW64\dui70".??_7Navigator@DirectUI@@6B@
  ??_7NavigatorSelectionItemProxy@DirectUI@@6B@="C:\Windows\SysWOW64\dui70".??_7NavigatorSelectionItemProxy@DirectUI@@6B@
  ??_7NineGridLayout@DirectUI@@6B@="C:\Windows\SysWOW64\dui70".??_7NineGridLayout@DirectUI@@6B@
  ??_7PText@DirectUI@@6B@="C:\Windows\SysWOW64\dui70".??_7PText@DirectUI@@6B@
  ??_7Page@DirectUI@@6B@="C:\Windows\SysWOW64\dui70".??_7Page@DirectUI@@6B@
  ??_7Pages@DirectUI@@6B@="C:\Windows\SysWOW64\dui70".??_7Pages@DirectUI@@6B@
  ??_7Progress@DirectUI@@6B@="C:\Windows\SysWOW64\dui70".??_7Progress@DirectUI@@6B@
  ??_7ProgressRangeValueProxy@DirectUI@@6B@="C:\Windows\SysWOW64\dui70".??_7ProgressRangeValueProxy@DirectUI@@6B@
  ??_7Proxy@DirectUI@@6B@="C:\Windows\SysWOW64\dui70".??_7Proxy@DirectUI@@6B@
  ??_7PushButton@DirectUI@@6B@="C:\Windows\SysWOW64\dui70".??_7PushButton@DirectUI@@6B@
  ??_7RadioButtonGlyph@DirectUI@@6B@="C:\Windows\SysWOW64\dui70".??_7RadioButtonGlyph@DirectUI@@6B@
  ??_7RangeValueProvider@DirectUI@@6B@="C:\Windows\SysWOW64\dui70".??_7RangeValueProvider@DirectUI@@6B@
  ??_7RangeValueProvider@DirectUI@@6BIProvider@1@@="C:\Windows\SysWOW64\dui70".??_7RangeValueProvider@DirectUI@@6BIProvider@1@@
  ??_7RangeValueProvider@DirectUI@@6BRefcountBase@1@@="C:\Windows\SysWOW64\dui70".??_7RangeValueProvider@DirectUI@@6BRefcountBase@1@@
  ??_7RangeValueProxy@DirectUI@@6B@="C:\Windows\SysWOW64\dui70".??_7RangeValueProxy@DirectUI@@6B@
  ??_7RefPointElement@DirectUI@@6B@="C:\Windows\SysWOW64\dui70".??_7RefPointElement@DirectUI@@6B@
  ??_7RefcountBase@DirectUI@@6B@="C:\Windows\SysWOW64\dui70".??_7RefcountBase@DirectUI@@6B@
  ??_7RepeatButton@DirectUI@@6B@="C:\Windows\SysWOW64\dui70".??_7RepeatButton@DirectUI@@6B@
  ??_7Repeater@DirectUI@@6B@="C:\Windows\SysWOW64\dui70".??_7Repeater@DirectUI@@6B@
  ??_7RowLayout@DirectUI@@6B@="C:\Windows\SysWOW64\dui70".??_7RowLayout@DirectUI@@6B@
  ??_7ScrollBar@DirectUI@@6BBaseScrollBar@1@@="C:\Windows\SysWOW64\dui70".??_7ScrollBar@DirectUI@@6BBaseScrollBar@1@@
  ??_7ScrollBar@DirectUI@@6BElement@1@@="C:\Windows\SysWOW64\dui70".??_7ScrollBar@DirectUI@@6BElement@1@@
  ??_7ScrollBarRangeValueProxy@DirectUI@@6B@="C:\Windows\SysWOW64\dui70".??_7ScrollBarRangeValueProxy@DirectUI@@6B@
  ??_7ScrollItemProvider@DirectUI@@6B@="C:\Windows\SysWOW64\dui70".??_7ScrollItemProvider@DirectUI@@6B@
  ??_7ScrollItemProvider@DirectUI@@6BIProvider@1@@="C:\Windows\SysWOW64\dui70".??_7ScrollItemProvider@DirectUI@@6BIProvider@1@@
  ??_7ScrollItemProvider@DirectUI@@6BRefcountBase@1@@="C:\Windows\SysWOW64\dui70".??_7ScrollItemProvider@DirectUI@@6BRefcountBase@1@@
  ??_7ScrollItemProxy@DirectUI@@6B@="C:\Windows\SysWOW64\dui70".??_7ScrollItemProxy@DirectUI@@6B@
  ??_7ScrollProvider@DirectUI@@6B@="C:\Windows\SysWOW64\dui70".??_7ScrollProvider@DirectUI@@6B@
  ??_7ScrollProvider@DirectUI@@6BIProvider@1@@="C:\Windows\SysWOW64\dui70".??_7ScrollProvider@DirectUI@@6BIProvider@1@@
  ??_7ScrollProvider@DirectUI@@6BRefcountBase@1@@="C:\Windows\SysWOW64\dui70".??_7ScrollProvider@DirectUI@@6BRefcountBase@1@@
  ??_7ScrollProxy@DirectUI@@6B@="C:\Windows\SysWOW64\dui70".??_7ScrollProxy@DirectUI@@6B@
  ??_7ScrollViewer@DirectUI@@6BElement@1@@="C:\Windows\SysWOW64\dui70".??_7ScrollViewer@DirectUI@@6BElement@1@@
  ??_7ScrollViewer@DirectUI@@6BIElementListener@1@@="C:\Windows\SysWOW64\dui70".??_7ScrollViewer@DirectUI@@6BIElementListener@1@@
  ??_7SelectionItemProvider@DirectUI@@6B@="C:\Windows\SysWOW64\dui70".??_7SelectionItemProvider@DirectUI@@6B@
  ??_7SelectionItemProvider@DirectUI@@6BIProvider@1@@="C:\Windows\SysWOW64\dui70".??_7SelectionItemProvider@DirectUI@@6BIProvider@1@@
  ??_7SelectionItemProvider@DirectUI@@6BRefcountBase@1@@="C:\Windows\SysWOW64\dui70".??_7SelectionItemProvider@DirectUI@@6BRefcountBase@1@@
  ??_7SelectionItemProxy@DirectUI@@6B@="C:\Windows\SysWOW64\dui70".??_7SelectionItemProxy@DirectUI@@6B@
  ??_7SelectionProvider@DirectUI@@6B@="C:\Windows\SysWOW64\dui70".??_7SelectionProvider@DirectUI@@6B@
  ??_7SelectionProvider@DirectUI@@6BIProvider@1@@="C:\Windows\SysWOW64\dui70".??_7SelectionProvider@DirectUI@@6BIProvider@1@@
  ??_7SelectionProvider@DirectUI@@6BRefcountBase@1@@="C:\Windows\SysWOW64\dui70".??_7SelectionProvider@DirectUI@@6BRefcountBase@1@@
  ??_7SelectionProxy@DirectUI@@6B@="C:\Windows\SysWOW64\dui70".??_7SelectionProxy@DirectUI@@6B@
  ??_7Selector@DirectUI@@6B@="C:\Windows\SysWOW64\dui70".??_7Selector@DirectUI@@6B@
  ??_7SelectorNoDefault@DirectUI@@6B@="C:\Windows\SysWOW64\dui70".??_7SelectorNoDefault@DirectUI@@6B@
  ??_7SelectorSelectionItemProxy@DirectUI@@6B@="C:\Windows\SysWOW64\dui70".??_7SelectorSelectionItemProxy@DirectUI@@6B@
  ??_7SelectorSelectionProxy@DirectUI@@6B@="C:\Windows\SysWOW64\dui70".??_7SelectorSelectionProxy@DirectUI@@6B@
  ??_7ShellBorderLayout@DirectUI@@6B@="C:\Windows\SysWOW64\dui70".??_7ShellBorderLayout@DirectUI@@6B@
  ??_7StyleSheet@DirectUI@@6B@="C:\Windows\SysWOW64\dui70".??_7StyleSheet@DirectUI@@6B@
  ??_7StyledScrollViewer@DirectUI@@6BElement@1@@="C:\Windows\SysWOW64\dui70".??_7StyledScrollViewer@DirectUI@@6BElement@1@@
  ??_7StyledScrollViewer@DirectUI@@6BIElementListener@1@@="C:\Windows\SysWOW64\dui70".??_7StyledScrollViewer@DirectUI@@6BIElementListener@1@@
  ??_7Surface@DirectUI@@6B@="C:\Windows\SysWOW64\dui70".??_7Surface@DirectUI@@6B@
  ??_7TableItemProvider@DirectUI@@6B@="C:\Windows\SysWOW64\dui70".??_7TableItemProvider@DirectUI@@6B@
  ??_7TableItemProvider@DirectUI@@6BIProvider@1@@="C:\Windows\SysWOW64\dui70".??_7TableItemProvider@DirectUI@@6BIProvider@1@@
  ??_7TableItemProvider@DirectUI@@6BRefcountBase@1@@="C:\Windows\SysWOW64\dui70".??_7TableItemProvider@DirectUI@@6BRefcountBase@1@@
  ??_7TableItemProxy@DirectUI@@6B@="C:\Windows\SysWOW64\dui70".??_7TableItemProxy@DirectUI@@6B@
  ??_7TableLayout@DirectUI@@6B@="C:\Windows\SysWOW64\dui70".??_7TableLayout@DirectUI@@6B@
  ??_7TableProvider@DirectUI@@6B@="C:\Windows\SysWOW64\dui70".??_7TableProvider@DirectUI@@6B@
  ??_7TableProvider@DirectUI@@6BIProvider@1@@="C:\Windows\SysWOW64\dui70".??_7TableProvider@DirectUI@@6BIProvider@1@@
  ??_7TableProvider@DirectUI@@6BRefcountBase@1@@="C:\Windows\SysWOW64\dui70".??_7TableProvider@DirectUI@@6BRefcountBase@1@@
  ??_7TableProxy@DirectUI@@6B@="C:\Windows\SysWOW64\dui70".??_7TableProxy@DirectUI@@6B@
  ??_7TaskPage@DirectUI@@6BIElementListener@1@@="C:\Windows\SysWOW64\dui70".??_7TaskPage@DirectUI@@6BIElementListener@1@@
  ??_7TaskPage@DirectUI@@6BIXProviderCP@1@@="C:\Windows\SysWOW64\dui70".??_7TaskPage@DirectUI@@6BIXProviderCP@1@@
  ??_7TextGraphic@DirectUI@@6B@="C:\Windows\SysWOW64\dui70".??_7TextGraphic@DirectUI@@6B@
  ??_7Thumb@DirectUI@@6B@="C:\Windows\SysWOW64\dui70".??_7Thumb@DirectUI@@6B@
  ??_7ToggleProvider@DirectUI@@6B@="C:\Windows\SysWOW64\dui70".??_7ToggleProvider@DirectUI@@6B@
  ??_7ToggleProvider@DirectUI@@6BIProvider@1@@="C:\Windows\SysWOW64\dui70".??_7ToggleProvider@DirectUI@@6BIProvider@1@@
  ??_7ToggleProvider@DirectUI@@6BRefcountBase@1@@="C:\Windows\SysWOW64\dui70".??_7ToggleProvider@DirectUI@@6BRefcountBase@1@@
  ??_7ToggleProxy@DirectUI@@6B@="C:\Windows\SysWOW64\dui70".??_7ToggleProxy@DirectUI@@6B@
  ??_7UnknownElement@DirectUI@@6B@="C:\Windows\SysWOW64\dui70".??_7UnknownElement@DirectUI@@6B@
  ??_7ValueProvider@DirectUI@@6B@="C:\Windows\SysWOW64\dui70".??_7ValueProvider@DirectUI@@6B@
  ??_7ValueProvider@DirectUI@@6BIProvider@1@@="C:\Windows\SysWOW64\dui70".??_7ValueProvider@DirectUI@@6BIProvider@1@@
  ??_7ValueProvider@DirectUI@@6BRefcountBase@1@@="C:\Windows\SysWOW64\dui70".??_7ValueProvider@DirectUI@@6BRefcountBase@1@@
  ??_7ValueProxy@DirectUI@@6B@="C:\Windows\SysWOW64\dui70".??_7ValueProxy@DirectUI@@6B@
  ??_7VerticalFlowLayout@DirectUI@@6B@="C:\Windows\SysWOW64\dui70".??_7VerticalFlowLayout@DirectUI@@6B@
  ??_7Viewer@DirectUI@@6B@="C:\Windows\SysWOW64\dui70".??_7Viewer@DirectUI@@6B@
  ??_7XBaby@DirectUI@@6B@="C:\Windows\SysWOW64\dui70".??_7XBaby@DirectUI@@6B@
  ??_7XBaby@DirectUI@@6BHWNDElement@1@@="C:\Windows\SysWOW64\dui70".??_7XBaby@DirectUI@@6BHWNDElement@1@@
  ??_7XBaby@DirectUI@@6BIDialogElement@1@@="C:\Windows\SysWOW64\dui70".??_7XBaby@DirectUI@@6BIDialogElement@1@@
  ??_7XBaby@DirectUI@@6BIElementListener@1@@="C:\Windows\SysWOW64\dui70".??_7XBaby@DirectUI@@6BIElementListener@1@@
  ??_7XElement@DirectUI@@6BHWNDHost@1@@="C:\Windows\SysWOW64\dui70".??_7XElement@DirectUI@@6BHWNDHost@1@@
  ??_7XElement@DirectUI@@6BIXElementCP@1@@="C:\Windows\SysWOW64\dui70".??_7XElement@DirectUI@@6BIXElementCP@1@@
  ??_7XProvider@DirectUI@@6B@="C:\Windows\SysWOW64\dui70".??_7XProvider@DirectUI@@6B@
  ??_7XResourceProvider@DirectUI@@6B@="C:\Windows\SysWOW64\dui70".??_7XResourceProvider@DirectUI@@6B@
  ??_FCCBase@DirectUI@@QAEXXZ="C:\Windows\SysWOW64\dui70".??_FCCBase@DirectUI@@QAEXXZ
  ??_FCCBaseScrollBar@DirectUI@@QAEXXZ="C:\Windows\SysWOW64\dui70".??_FCCBaseScrollBar@DirectUI@@QAEXXZ
  ??_FCCCheckBox@DirectUI@@QAEXXZ="C:\Windows\SysWOW64\dui70".??_FCCCheckBox@DirectUI@@QAEXXZ
  ??_FCCCommandLink@DirectUI@@QAEXXZ="C:\Windows\SysWOW64\dui70".??_FCCCommandLink@DirectUI@@QAEXXZ
  ??_FCCPushButton@DirectUI@@QAEXXZ="C:\Windows\SysWOW64\dui70".??_FCCPushButton@DirectUI@@QAEXXZ
  ??_FCCTreeView@DirectUI@@QAEXXZ="C:\Windows\SysWOW64\dui70".??_FCCTreeView@DirectUI@@QAEXXZ
  ?AbsorbsShortcutProp@Element@DirectUI@@SGPBUPropertyInfo@2@XZ="C:\Windows\SysWOW64\dui70".?AbsorbsShortcutProp@Element@DirectUI@@SGPBUPropertyInfo@2@XZ
  ?AccDefActionProp@Element@DirectUI@@SGPBUPropertyInfo@2@XZ="C:\Windows\SysWOW64\dui70".?AccDefActionProp@Element@DirectUI@@SGPBUPropertyInfo@2@XZ
  ?AccDescProp@Element@DirectUI@@SGPBUPropertyInfo@2@XZ="C:\Windows\SysWOW64\dui70".?AccDescProp@Element@DirectUI@@SGPBUPropertyInfo@2@XZ
  ?AccHelpProp@Element@DirectUI@@SGPBUPropertyInfo@2@XZ="C:\Windows\SysWOW64\dui70".?AccHelpProp@Element@DirectUI@@SGPBUPropertyInfo@2@XZ
  ?AccItemStatusProp@Element@DirectUI@@SGPBUPropertyInfo@2@XZ="C:\Windows\SysWOW64\dui70".?AccItemStatusProp@Element@DirectUI@@SGPBUPropertyInfo@2@XZ
  ?AccItemTypeProp@Element@DirectUI@@SGPBUPropertyInfo@2@XZ="C:\Windows\SysWOW64\dui70".?AccItemTypeProp@Element@DirectUI@@SGPBUPropertyInfo@2@XZ
  ?AccNameProp@Element@DirectUI@@SGPBUPropertyInfo@2@XZ="C:\Windows\SysWOW64\dui70".?AccNameProp@Element@DirectUI@@SGPBUPropertyInfo@2@XZ
  ?AccNavigate@DuiAccessible@DirectUI@@SGJPAVElement@2@JPAPAV32@@Z="C:\Windows\SysWOW64\dui70".?AccNavigate@DuiAccessible@DirectUI@@SGJPAVElement@2@JPAPAV32@@Z
  ?AccRoleProp@Element@DirectUI@@SGPBUPropertyInfo@2@XZ="C:\Windows\SysWOW64\dui70".?AccRoleProp@Element@DirectUI@@SGPBUPropertyInfo@2@XZ
  ?AccStateProp@Element@DirectUI@@SGPBUPropertyInfo@2@XZ="C:\Windows\SysWOW64\dui70".?AccStateProp@Element@DirectUI@@SGPBUPropertyInfo@2@XZ
  ?AccValueProp@Element@DirectUI@@SGPBUPropertyInfo@2@XZ="C:\Windows\SysWOW64\dui70".?AccValueProp@Element@DirectUI@@SGPBUPropertyInfo@2@XZ
  ?AcceleratorKeyProperty@Schema@DirectUI@@2HA="C:\Windows\SysWOW64\dui70".?AcceleratorKeyProperty@Schema@DirectUI@@2HA
  ?Access@?$SafeArrayAccessor@H@DirectUI@@QAEJPAUtagSAFEARRAY@@G@Z="C:\Windows\SysWOW64\dui70".?Access@?$SafeArrayAccessor@H@DirectUI@@QAEJPAUtagSAFEARRAY@@G@Z
  ?AccessKeyProperty@Schema@DirectUI@@2HA="C:\Windows\SysWOW64\dui70".?AccessKeyProperty@Schema@DirectUI@@2HA
  ?AccessibleProp@Element@DirectUI@@SGPBUPropertyInfo@2@XZ="C:\Windows\SysWOW64\dui70".?AccessibleProp@Element@DirectUI@@SGPBUPropertyInfo@2@XZ
  ?ActionInitiated@Navigator@DirectUI@@SG?AVUID@@XZ="C:\Windows\SysWOW64\dui70".?ActionInitiated@Navigator@DirectUI@@SG?AVUID@@XZ
  ?ActivateTooltip@Element@DirectUI@@MAEXPAV12@K@Z="C:\Windows\SysWOW64\dui70".?ActivateTooltip@Element@DirectUI@@MAEXPAV12@K@Z
  ?ActivateTooltip@HWNDElement@DirectUI@@UAEXPAVElement@2@K@Z="C:\Windows\SysWOW64\dui70".?ActivateTooltip@HWNDElement@DirectUI@@UAEXPAVElement@2@K@Z
  ?ActivateTooltip@TouchHWNDElement@DirectUI@@UAEXPAVElement@2@K@Z="C:\Windows\SysWOW64\dui70".?ActivateTooltip@TouchHWNDElement@DirectUI@@UAEXPAVElement@2@K@Z
  ?ActiveProp@Element@DirectUI@@SGPBUPropertyInfo@2@XZ="C:\Windows\SysWOW64\dui70".?ActiveProp@Element@DirectUI@@SGPBUPropertyInfo@2@XZ
  ?ActiveStateChanged@TouchScrollBar@DirectUI@@SG?AVUID@@XZ="C:\Windows\SysWOW64\dui70".?ActiveStateChanged@TouchScrollBar@DirectUI@@SG?AVUID@@XZ
  ?ActualReferencePointProp@RefPointElement@DirectUI@@SGPBUPropertyInfo@2@XZ="C:\Windows\SysWOW64\dui70".?ActualReferencePointProp@RefPointElement@DirectUI@@SGPBUPropertyInfo@2@XZ
  ?Add@BaseScrollViewer@DirectUI@@UAEJPAPAVElement@2@I@Z="C:\Windows\SysWOW64\dui70".?Add@BaseScrollViewer@DirectUI@@UAEJPAPAVElement@2@I@Z
  ?Add@Element@DirectUI@@QAEJPAV12@@Z="C:\Windows\SysWOW64\dui70".?Add@Element@DirectUI@@QAEJPAV12@@Z
  ?Add@Element@DirectUI@@QAEJPAV12@P6AHPBX1@Z@Z="C:\Windows\SysWOW64\dui70".?Add@Element@DirectUI@@QAEJPAV12@P6AHPBX1@Z@Z
  ?Add@Element@DirectUI@@UAEJPAPAV12@I@Z="C:\Windows\SysWOW64\dui70".?Add@Element@DirectUI@@UAEJPAPAV12@I@Z
  ?Add@ElementProviderManager@DirectUI@@SGJPAVElementProvider@2@@Z="C:\Windows\SysWOW64\dui70".?Add@ElementProviderManager@DirectUI@@SGJPAVElementProvider@2@@Z
  ?Add@Expando@DirectUI@@UAEJPAPAVElement@2@I@Z="C:\Windows\SysWOW64\dui70".?Add@Expando@DirectUI@@UAEJPAPAVElement@2@I@Z
  ?Add@LinkedList@DirectUI@@QAEXPAVLinkedListNode@2@@Z="C:\Windows\SysWOW64\dui70".?Add@LinkedList@DirectUI@@QAEXPAVLinkedListNode@2@@Z
  ?Add@Macro@DirectUI@@UAEJPAPAVElement@2@I@Z="C:\Windows\SysWOW64\dui70".?Add@Macro@DirectUI@@UAEJPAPAVElement@2@I@Z
  ?Add@Pages@DirectUI@@UAEJPAPAVElement@2@I@Z="C:\Windows\SysWOW64\dui70".?Add@Pages@DirectUI@@UAEJPAPAVElement@2@I@Z
  ?Add@TouchEdit2@DirectUI@@UAEJPAPAVElement@2@I@Z="C:\Windows\SysWOW64\dui70".?Add@TouchEdit2@DirectUI@@UAEJPAPAVElement@2@I@Z
  ?Add@TouchSelect@DirectUI@@UAEJPAPAVElement@2@I@Z="C:\Windows\SysWOW64\dui70".?Add@TouchSelect@DirectUI@@UAEJPAPAVElement@2@I@Z
  ?AddBehavior@Element@DirectUI@@UAEJPAUIDuiBehavior@@@Z="C:\Windows\SysWOW64\dui70".?AddBehavior@Element@DirectUI@@UAEJPAUIDuiBehavior@@@Z
  ?AddChild@ClassInfoBase@DirectUI@@UAEXXZ="C:\Windows\SysWOW64\dui70".?AddChild@ClassInfoBase@DirectUI@@UAEXXZ
  ?AddChildren@ScrollViewer@DirectUI@@MAEJXZ="C:\Windows\SysWOW64\dui70".?AddChildren@ScrollViewer@DirectUI@@MAEJXZ
  ?AddChildren@StyledScrollViewer@DirectUI@@MAEJXZ="C:\Windows\SysWOW64\dui70".?AddChildren@StyledScrollViewer@DirectUI@@MAEJXZ
  ?AddElement@TouchSelect@DirectUI@@QAEJPAVElement@2@PBG@Z="C:\Windows\SysWOW64\dui70".?AddElement@TouchSelect@DirectUI@@QAEJPAVElement@2@PBG@Z
  ?AddListener@Element@DirectUI@@QAEJPAUIElementListener@2@@Z="C:\Windows\SysWOW64\dui70".?AddListener@Element@DirectUI@@QAEJPAUIElementListener@2@@Z
  ?AddRectangleChange@EventManager@DirectUI@@CGJPAVElement@2@_N1@Z="C:\Windows\SysWOW64\dui70".?AddRectangleChange@EventManager@DirectUI@@CGJPAVElement@2@_N1@Z
  ?AddRef@ClassInfoBase@DirectUI@@UAEXXZ="C:\Windows\SysWOW64\dui70".?AddRef@ClassInfoBase@DirectUI@@UAEXXZ
  ?AddRef@DuiAccessible@DirectUI@@UAGKXZ="C:\Windows\SysWOW64\dui70".?AddRef@DuiAccessible@DirectUI@@UAGKXZ
  ?AddRef@Element@DirectUI@@QAGKXZ="C:\Windows\SysWOW64\dui70".?AddRef@Element@DirectUI@@QAGKXZ
  ?AddRef@ElementProvider@DirectUI@@UAGKXZ="C:\Windows\SysWOW64\dui70".?AddRef@ElementProvider@DirectUI@@UAGKXZ
  ?AddRef@ExpandCollapseProvider@DirectUI@@UAGKXZ="C:\Windows\SysWOW64\dui70".?AddRef@ExpandCollapseProvider@DirectUI@@UAGKXZ
  ?AddRef@GridItemProvider@DirectUI@@UAGKXZ="C:\Windows\SysWOW64\dui70".?AddRef@GridItemProvider@DirectUI@@UAGKXZ
  ?AddRef@GridProvider@DirectUI@@UAGKXZ="C:\Windows\SysWOW64\dui70".?AddRef@GridProvider@DirectUI@@UAGKXZ
  ?AddRef@HWNDElementProvider@DirectUI@@UAGKXZ="C:\Windows\SysWOW64\dui70".?AddRef@HWNDElementProvider@DirectUI@@UAGKXZ
  ?AddRef@InvokeProvider@DirectUI@@UAGKXZ="C:\Windows\SysWOW64\dui70".?AddRef@InvokeProvider@DirectUI@@UAGKXZ
  ?AddRef@RangeValueProvider@DirectUI@@UAGKXZ="C:\Windows\SysWOW64\dui70".?AddRef@RangeValueProvider@DirectUI@@UAGKXZ
  ?AddRef@RefcountBase@DirectUI@@QAEJXZ="C:\Windows\SysWOW64\dui70".?AddRef@RefcountBase@DirectUI@@QAEJXZ
  ?AddRef@ScrollItemProvider@DirectUI@@UAGKXZ="C:\Windows\SysWOW64\dui70".?AddRef@ScrollItemProvider@DirectUI@@UAGKXZ
  ?AddRef@ScrollProvider@DirectUI@@UAGKXZ="C:\Windows\SysWOW64\dui70".?AddRef@ScrollProvider@DirectUI@@UAGKXZ
  ?AddRef@SelectionItemProvider@DirectUI@@UAGKXZ="C:\Windows\SysWOW64\dui70".?AddRef@SelectionItemProvider@DirectUI@@UAGKXZ
  ?AddRef@SelectionProvider@DirectUI@@UAGKXZ="C:\Windows\SysWOW64\dui70".?AddRef@SelectionProvider@DirectUI@@UAGKXZ
  ?AddRef@TableItemProvider@DirectUI@@UAGKXZ="C:\Windows\SysWOW64\dui70".?AddRef@TableItemProvider@DirectUI@@UAGKXZ
  ?AddRef@TableProvider@DirectUI@@UAGKXZ="C:\Windows\SysWOW64\dui70".?AddRef@TableProvider@DirectUI@@UAGKXZ
  ?AddRef@ToggleProvider@DirectUI@@UAGKXZ="C:\Windows\SysWOW64\dui70".?AddRef@ToggleProvider@DirectUI@@UAGKXZ
  ?AddRef@Value@DirectUI@@QAEXXZ="C:\Windows\SysWOW64\dui70".?AddRef@Value@DirectUI@@QAEXXZ
  ?AddRef@ValueProvider@DirectUI@@UAGKXZ="C:\Windows\SysWOW64\dui70".?AddRef@ValueProvider@DirectUI@@UAGKXZ
  ?AddRef@XProvider@DirectUI@@UAGKXZ="C:\Windows\SysWOW64\dui70".?AddRef@XProvider@DirectUI@@UAGKXZ
  ?AddRulesToStyleSheet@DUIXmlParser@DirectUI@@IAEJPAUIXmlReader@@PAVStyleSheet@2@PBGPAV?$DynamicArray@UXMLParserCond@DirectUI@@$0A@@2@PAV?$DynamicArray@PAG$0A@@2@@Z="C:\Windows\SysWOW64\dui70".?AddRulesToStyleSheet@DUIXmlParser@DirectUI@@IAEJPAUIXmlReader@@PAVStyleSheet@2@PBGPAV?$DynamicArray@UXMLParserCond@DirectUI@@$0A@@2@PAV?$DynamicArray@PAG$0A@@2@@Z
  ?AddString@CCListBox@DirectUI@@QAEHPBG@Z="C:\Windows\SysWOW64\dui70".?AddString@CCListBox@DirectUI@@QAEHPBG@Z
  ?AddString@Combobox@DirectUI@@QAEHPBG@Z="C:\Windows\SysWOW64\dui70".?AddString@Combobox@DirectUI@@QAEHPBG@Z
  ?AddString@TouchSelect@DirectUI@@QAEJPBG@Z="C:\Windows\SysWOW64\dui70".?AddString@TouchSelect@DirectUI@@QAEJPBG@Z
  ?AddString@TouchSelect@DirectUI@@QAEJPBGPAPAVElement@2@@Z="C:\Windows\SysWOW64\dui70".?AddString@TouchSelect@DirectUI@@QAEJPBGPAPAVElement@2@@Z
  ?AddStringWithLabelOverride@TouchSelect@DirectUI@@QAEJPBG0PAPAVElement@2@@Z="C:\Windows\SysWOW64\dui70".?AddStringWithLabelOverride@TouchSelect@DirectUI@@QAEJPBG0PAPAVElement@2@@Z
  ?AddToSelection@NavigatorSelectionItemProxy@DirectUI@@AAEJPAVBrowser@2@@Z="C:\Windows\SysWOW64\dui70".?AddToSelection@NavigatorSelectionItemProxy@DirectUI@@AAEJPAVBrowser@2@@Z
  ?AddToSelection@SelectionItemProvider@DirectUI@@UAGJXZ="C:\Windows\SysWOW64\dui70".?AddToSelection@SelectionItemProvider@DirectUI@@UAGJXZ
  ?AddToSelection@SelectorSelectionItemProxy@DirectUI@@AAEJXZ="C:\Windows\SysWOW64\dui70".?AddToSelection@SelectorSelectionItemProxy@DirectUI@@AAEJXZ
  ?AdvanceFrame@AnimationStrip@DirectUI@@IAEXXZ="C:\Windows\SysWOW64\dui70".?AdvanceFrame@AnimationStrip@DirectUI@@IAEXXZ
  ?AdvanceFrame@Movie@DirectUI@@SG?AVUID@@XZ="C:\Windows\SysWOW64\dui70".?AdvanceFrame@Movie@DirectUI@@SG?AVUID@@XZ
  ?AdviseEventAdded@ElementProvider@DirectUI@@UAGJHPAUtagSAFEARRAY@@@Z="C:\Windows\SysWOW64\dui70".?AdviseEventAdded@ElementProvider@DirectUI@@UAGJHPAUtagSAFEARRAY@@@Z
  ?AdviseEventAdded@EventManager@DirectUI@@SGJHPAUtagSAFEARRAY@@@Z="C:\Windows\SysWOW64\dui70".?AdviseEventAdded@EventManager@DirectUI@@SGJHPAUtagSAFEARRAY@@@Z
  ?AdviseEventRemoved@ElementProvider@DirectUI@@UAGJHPAUtagSAFEARRAY@@@Z="C:\Windows\SysWOW64\dui70".?AdviseEventRemoved@ElementProvider@DirectUI@@UAGJHPAUtagSAFEARRAY@@@Z
  ?AdviseEventRemoved@EventManager@DirectUI@@SGJHPAUtagSAFEARRAY@@@Z="C:\Windows\SysWOW64\dui70".?AdviseEventRemoved@EventManager@DirectUI@@SGJHPAUtagSAFEARRAY@@@Z
  ?AliasedRenderingProp@RichText@DirectUI@@SGPBUPropertyInfo@2@XZ="C:\Windows\SysWOW64\dui70".?AliasedRenderingProp@RichText@DirectUI@@SGPBUPropertyInfo@2@XZ
  ?AlphaProp@Element@DirectUI@@SGPBUPropertyInfo@2@XZ="C:\Windows\SysWOW64\dui70".?AlphaProp@Element@DirectUI@@SGPBUPropertyInfo@2@XZ
  ?AnimatePopupOnDismissProp@TouchSelect@DirectUI@@SGPBUPropertyInfo@2@XZ="C:\Windows\SysWOW64\dui70".?AnimatePopupOnDismissProp@TouchSelect@DirectUI@@SGPBUPropertyInfo@2@XZ
  ?AnimateScroll@TouchScrollBar@DirectUI@@SG?AVUID@@XZ="C:\Windows\SysWOW64\dui70".?AnimateScroll@TouchScrollBar@DirectUI@@SG?AVUID@@XZ
  ?AnimationChange@Element@DirectUI@@SG?AVUID@@XZ="C:\Windows\SysWOW64\dui70".?AnimationChange@Element@DirectUI@@SG?AVUID@@XZ
  ?AnimationProp@Element@DirectUI@@SGPBUPropertyInfo@2@XZ="C:\Windows\SysWOW64\dui70".?AnimationProp@Element@DirectUI@@SGPBUPropertyInfo@2@XZ
  ?AnimationStatusChange@PVLAnimation@DirectUI@@SG?AVUID@@XZ="C:\Windows\SysWOW64\dui70".?AnimationStatusChange@PVLAnimation@DirectUI@@SG?AVUID@@XZ
  ?ApplySinkRegion@HWNDHost@DirectUI@@AAEXPBUtagRECT@@_N@Z="C:\Windows\SysWOW64\dui70".?ApplySinkRegion@HWNDHost@DirectUI@@AAEXPBUtagRECT@@_N@Z
  ?Arrow@Expando@DirectUI@@KGGXZ="C:\Windows\SysWOW64\dui70".?Arrow@Expando@DirectUI@@KGGXZ
  ?AssertPIZeroRef@ClassInfoBase@DirectUI@@UBEXXZ="C:\Windows\SysWOW64\dui70".?AssertPIZeroRef@ClassInfoBase@DirectUI@@UBEXXZ
  ?AsyncContentLoadedEvent@Schema@DirectUI@@2HA="C:\Windows\SysWOW64\dui70".?AsyncContentLoadedEvent@Schema@DirectUI@@2HA
  ?Attach@Layout@DirectUI@@UAEXPAVElement@2@@Z="C:\Windows\SysWOW64\dui70".?Attach@Layout@DirectUI@@UAEXPAVElement@2@@Z
  ?AttachCtrlSubclassProc@HWNDHost@DirectUI@@KGXPAUHWND__@@@Z="C:\Windows\SysWOW64\dui70".?AttachCtrlSubclassProc@HWNDHost@DirectUI@@KGXPAUHWND__@@@Z
  ?AutoGroupingProp@CCRadioButton@DirectUI@@SGPBUPropertyInfo@2@XZ="C:\Windows\SysWOW64\dui70".?AutoGroupingProp@CCRadioButton@DirectUI@@SGPBUPropertyInfo@2@XZ
  ?AutoStartProp@Movie@DirectUI@@SGPBUPropertyInfo@2@XZ="C:\Windows\SysWOW64\dui70".?AutoStartProp@Movie@DirectUI@@SGPBUPropertyInfo@2@XZ
  ?AutoStopProp@Movie@DirectUI@@SGPBUPropertyInfo@2@XZ="C:\Windows\SysWOW64\dui70".?AutoStopProp@Movie@DirectUI@@SGPBUPropertyInfo@2@XZ
  ?AutomationFocusChangedEvent@Schema@DirectUI@@2HA="C:\Windows\SysWOW64\dui70".?AutomationFocusChangedEvent@Schema@DirectUI@@2HA
  ?AutomationIdProperty@Schema@DirectUI@@2HA="C:\Windows\SysWOW64\dui70".?AutomationIdProperty@Schema@DirectUI@@2HA
  ?AutomationPropertyChangedEvent@Schema@DirectUI@@2HA="C:\Windows\SysWOW64\dui70".?AutomationPropertyChangedEvent@Schema@DirectUI@@2HA
  ?BackgroundOwnerIDProp@HWNDHost@DirectUI@@SGPBUPropertyInfo@2@XZ="C:\Windows\SysWOW64\dui70".?BackgroundOwnerIDProp@HWNDHost@DirectUI@@SGPBUPropertyInfo@2@XZ
  ?BackgroundProp@Element@DirectUI@@SGPBUPropertyInfo@2@XZ="C:\Windows\SysWOW64\dui70".?BackgroundProp@Element@DirectUI@@SGPBUPropertyInfo@2@XZ
  ?BaselineProp@RichText@DirectUI@@SGPBUPropertyInfo@2@XZ="C:\Windows\SysWOW64\dui70".?BaselineProp@RichText@DirectUI@@SGPBUPropertyInfo@2@XZ
  ?BorderColorProp@Element@DirectUI@@SGPBUPropertyInfo@2@XZ="C:\Windows\SysWOW64\dui70".?BorderColorProp@Element@DirectUI@@SGPBUPropertyInfo@2@XZ
  ?BorderStyleProp@Element@DirectUI@@SGPBUPropertyInfo@2@XZ="C:\Windows\SysWOW64\dui70".?BorderStyleProp@Element@DirectUI@@SGPBUPropertyInfo@2@XZ
  ?BorderThicknessProp@Element@DirectUI@@SGPBUPropertyInfo@2@XZ="C:\Windows\SysWOW64\dui70".?BorderThicknessProp@Element@DirectUI@@SGPBUPropertyInfo@2@XZ
  ?BoundingRectangleProperty@Schema@DirectUI@@2HA="C:\Windows\SysWOW64\dui70".?BoundingRectangleProperty@Schema@DirectUI@@2HA
  ?BroadcastEvent@Element@DirectUI@@QAEXPAUEvent@2@@Z="C:\Windows\SysWOW64\dui70".?BroadcastEvent@Element@DirectUI@@QAEXPAUEvent@2@@Z
  ?BufferingProp@TouchSlider@DirectUI@@SGPBUPropertyInfo@2@XZ="C:\Windows\SysWOW64\dui70".?BufferingProp@TouchSlider@DirectUI@@SGPBUPropertyInfo@2@XZ
  ?BuildCacheInfo@FlowLayout@DirectUI@@IAE?AUtagSIZE@@PAVElement@2@HHPAVSurface@2@_N@Z="C:\Windows\SysWOW64\dui70".?BuildCacheInfo@FlowLayout@DirectUI@@IAE?AUtagSIZE@@PAVElement@2@HHPAVSurface@2@_N@Z
  ?BuildCacheInfo@VerticalFlowLayout@DirectUI@@IAE?AUtagSIZE@@PAVElement@2@HHPAVSurface@2@_N@Z="C:\Windows\SysWOW64\dui70".?BuildCacheInfo@VerticalFlowLayout@DirectUI@@IAE?AUtagSIZE@@PAVElement@2@HHPAVSurface@2@_N@Z
  ?BuildElement@Macro@DirectUI@@MAEJXZ="C:\Windows\SysWOW64\dui70".?BuildElement@Macro@DirectUI@@MAEJXZ
  ?BuildElement@Repeater@DirectUI@@MAEJXZ="C:\Windows\SysWOW64\dui70".?BuildElement@Repeater@DirectUI@@MAEJXZ
  ?ButtonClassAcceptsEnterKeyProp@DialogElement@DirectUI@@SGPBUPropertyInfo@2@XZ="C:\Windows\SysWOW64\dui70".?ButtonClassAcceptsEnterKeyProp@DialogElement@DirectUI@@SGPBUPropertyInfo@2@XZ
  ?ButtonControlType@Schema@DirectUI@@2HA="C:\Windows\SysWOW64\dui70".?ButtonControlType@Schema@DirectUI@@2HA
  ?CacheParser@XBaby@DirectUI@@UAEXPAVDUIXmlParser@2@@Z="C:\Windows\SysWOW64\dui70".?CacheParser@XBaby@DirectUI@@UAEXPAVDUIXmlParser@2@@Z
  ?CalendarControlType@Schema@DirectUI@@2HA="C:\Windows\SysWOW64\dui70".?CalendarControlType@Schema@DirectUI@@2HA
  ?CanPerformManualVisualSwap@TouchScrollViewer@DirectUI@@QAE_NXZ="C:\Windows\SysWOW64\dui70".?CanPerformManualVisualSwap@TouchScrollViewer@DirectUI@@QAE_NXZ
  ?CanSetFocus@HWNDElement@DirectUI@@UAE_NXZ="C:\Windows\SysWOW64\dui70".?CanSetFocus@HWNDElement@DirectUI@@UAE_NXZ
  ?CanSetFocus@XBaby@DirectUI@@UAE_NXZ="C:\Windows\SysWOW64\dui70".?CanSetFocus@XBaby@DirectUI@@UAE_NXZ
  ?CanSetFocus@XProvider@DirectUI@@UAGJPA_N@Z="C:\Windows\SysWOW64\dui70".?CanSetFocus@XProvider@DirectUI@@UAGJPA_N@Z
  ?CancelClick@TouchButton@DirectUI@@QAE_NW4ClickDevice@12@@Z="C:\Windows\SysWOW64\dui70".?CancelClick@TouchButton@DirectUI@@QAE_NW4ClickDevice@12@@Z
  ?CancelCurrentDrag@TouchSlider@DirectUI@@QAEXXZ="C:\Windows\SysWOW64\dui70".?CancelCurrentDrag@TouchSlider@DirectUI@@QAEXXZ
  ?CaptureCallstackFrames@CallstackTracker@DirectUI@@QAEHXZ="C:\Windows\SysWOW64\dui70".?CaptureCallstackFrames@CallstackTracker@DirectUI@@QAEHXZ
  ?CapturedProp@Button@DirectUI@@SGPBUPropertyInfo@2@XZ="C:\Windows\SysWOW64\dui70".?CapturedProp@Button@DirectUI@@SGPBUPropertyInfo@2@XZ
  ?CapturedProp@TouchButton@DirectUI@@SGPBUPropertyInfo@2@XZ="C:\Windows\SysWOW64\dui70".?CapturedProp@TouchButton@DirectUI@@SGPBUPropertyInfo@2@XZ
  ?CaretMoved@TouchEditBase@DirectUI@@SG?AVUID@@XZ="C:\Windows\SysWOW64\dui70".?CaretMoved@TouchEditBase@DirectUI@@SG?AVUID@@XZ
  ?CheckBoxControlType@Schema@DirectUI@@2HA="C:\Windows\SysWOW64\dui70".?CheckBoxControlType@Schema@DirectUI@@2HA
  ?CheckScroll@BaseScrollViewer@DirectUI@@AAEXPAVBaseScrollBar@2@HHH@Z="C:\Windows\SysWOW64\dui70".?CheckScroll@BaseScrollViewer@DirectUI@@AAEXPAVBaseScrollBar@2@HHH@Z
  ?CheckedStateProp@TouchCheckBox@DirectUI@@SGPBUPropertyInfo@2@XZ="C:\Windows\SysWOW64\dui70".?CheckedStateProp@TouchCheckBox@DirectUI@@SGPBUPropertyInfo@2@XZ
  ?ChildrenProp@Element@DirectUI@@SGPBUPropertyInfo@2@XZ="C:\Windows\SysWOW64\dui70".?ChildrenProp@Element@DirectUI@@SGPBUPropertyInfo@2@XZ
  ?ClassExist@ClassInfoBase@DirectUI@@SG_NPAPAUIClassInfo@2@PBQBUPropertyInfo@2@IPAU32@PAUHINSTANCE__@@PBG_N@Z="C:\Windows\SysWOW64\dui70".?ClassExist@ClassInfoBase@DirectUI@@SG_NPAPAUIClassInfo@2@PBQBUPropertyInfo@2@IPAU32@PAUHINSTANCE__@@PBG_N@Z
  ?ClassNameProperty@Schema@DirectUI@@2HA="C:\Windows\SysWOW64\dui70".?ClassNameProperty@Schema@DirectUI@@2HA
  ?ClassProp@Element@DirectUI@@SGPBUPropertyInfo@2@XZ="C:\Windows\SysWOW64\dui70".?ClassProp@Element@DirectUI@@SGPBUPropertyInfo@2@XZ
  ?ClearButtonClicked@TouchEdit2@DirectUI@@SG?AVUID@@XZ="C:\Windows\SysWOW64\dui70".?ClearButtonClicked@TouchEdit2@DirectUI@@SG?AVUID@@XZ
  ?ClearCacheDirty@Layout@DirectUI@@IAEXXZ="C:\Windows\SysWOW64\dui70".?ClearCacheDirty@Layout@DirectUI@@IAEXXZ
  ?ClearParser@DUIFactory@DirectUI@@AAEXXZ="C:\Windows\SysWOW64\dui70".?ClearParser@DUIFactory@DirectUI@@AAEXXZ
  ?Click@Button@DirectUI@@SG?AVUID@@XZ="C:\Windows\SysWOW64\dui70".?Click@Button@DirectUI@@SG?AVUID@@XZ
  ?Click@TouchButton@DirectUI@@SG?AVUID@@XZ="C:\Windows\SysWOW64\dui70".?Click@TouchButton@DirectUI@@SG?AVUID@@XZ
  ?ClickDefaultButton@DialogElement@DirectUI@@UAE_NXZ="C:\Windows\SysWOW64\dui70".?ClickDefaultButton@DialogElement@DirectUI@@UAE_NXZ
  ?ClickDefaultButton@DialogElementCore@DirectUI@@QAE_NXZ="C:\Windows\SysWOW64\dui70".?ClickDefaultButton@DialogElementCore@DirectUI@@QAE_NXZ
  ?ClickDefaultButton@XBaby@DirectUI@@UAE_NXZ="C:\Windows\SysWOW64\dui70".?ClickDefaultButton@XBaby@DirectUI@@UAE_NXZ
  ?ClickDefaultButton@XProvider@DirectUI@@UAGHXZ="C:\Windows\SysWOW64\dui70".?ClickDefaultButton@XProvider@DirectUI@@UAGHXZ
  ?ClickablePointProperty@Schema@DirectUI@@2HA="C:\Windows\SysWOW64\dui70".?ClickablePointProperty@Schema@DirectUI@@2HA
  ?Clipper@Expando@DirectUI@@KGGXZ="C:\Windows\SysWOW64\dui70".?Clipper@Expando@DirectUI@@KGGXZ
  ?Clone@DuiAccessible@DirectUI@@UAGJPAPAUIEnumVARIANT@@@Z="C:\Windows\SysWOW64\dui70".?Clone@DuiAccessible@DirectUI@@UAGJPAPAUIEnumVARIANT@@@Z
  ?Clone@HWNDHostAccessible@DirectUI@@UAGJPAPAUIEnumVARIANT@@@Z="C:\Windows\SysWOW64\dui70".?Clone@HWNDHostAccessible@DirectUI@@UAGJPAPAUIEnumVARIANT@@@Z
  ?Close@ElementProviderManager@DirectUI@@SGXXZ="C:\Windows\SysWOW64\dui70".?Close@ElementProviderManager@DirectUI@@SGXXZ
  ?Close@EventManager@DirectUI@@SGXXZ="C:\Windows\SysWOW64\dui70".?Close@EventManager@DirectUI@@SGXXZ
  ?Close@InvokeManager@DirectUI@@SGXXZ="C:\Windows\SysWOW64\dui70".?Close@InvokeManager@DirectUI@@SGXXZ
  ?ClosePopup@TouchSelect@DirectUI@@QAEXXZ="C:\Windows\SysWOW64\dui70".?ClosePopup@TouchSelect@DirectUI@@QAEXXZ
  ?CloseThread@InvokeManager@DirectUI@@SGXXZ="C:\Windows\SysWOW64\dui70".?CloseThread@InvokeManager@DirectUI@@SGXXZ
  ?Collapse@ExpandCollapseProvider@DirectUI@@UAGJXZ="C:\Windows\SysWOW64\dui70".?Collapse@ExpandCollapseProvider@DirectUI@@UAGJXZ
  ?ColorFontPaletteIndexProp@RichText@DirectUI@@SGPBUPropertyInfo@2@XZ="C:\Windows\SysWOW64\dui70".?ColorFontPaletteIndexProp@RichText@DirectUI@@SGPBUPropertyInfo@2@XZ
  ?ComboBoxControlType@Schema@DirectUI@@2HA="C:\Windows\SysWOW64\dui70".?ComboBoxControlType@Schema@DirectUI@@2HA
  ?CompositedTextProp@Element@DirectUI@@SGPBUPropertyInfo@2@XZ="C:\Windows\SysWOW64\dui70".?CompositedTextProp@Element@DirectUI@@SGPBUPropertyInfo@2@XZ
  ?CompositingQualityProp@Movie@DirectUI@@SGPBUPropertyInfo@2@XZ="C:\Windows\SysWOW64\dui70".?CompositingQualityProp@Movie@DirectUI@@SGPBUPropertyInfo@2@XZ
  ?CompositionChange@HWNDElement@DirectUI@@SG?AVUID@@XZ="C:\Windows\SysWOW64\dui70".?CompositionChange@HWNDElement@DirectUI@@SG?AVUID@@XZ
  ?ConnectProp@Bind@DirectUI@@SGPBUPropertyInfo@2@XZ="C:\Windows\SysWOW64\dui70".?ConnectProp@Bind@DirectUI@@SGPBUPropertyInfo@2@XZ
  ?ConstrainLayoutProp@RichText@DirectUI@@SGPBUPropertyInfo@2@XZ="C:\Windows\SysWOW64\dui70".?ConstrainLayoutProp@RichText@DirectUI@@SGPBUPropertyInfo@2@XZ
  ?ContentAlignProp@Element@DirectUI@@SGPBUPropertyInfo@2@XZ="C:\Windows\SysWOW64\dui70".?ContentAlignProp@Element@DirectUI@@SGPBUPropertyInfo@2@XZ
  ?ContentProp@Element@DirectUI@@SGPBUPropertyInfo@2@XZ="C:\Windows\SysWOW64\dui70".?ContentProp@Element@DirectUI@@SGPBUPropertyInfo@2@XZ
  ?Context@Button@DirectUI@@SG?AVUID@@XZ="C:\Windows\SysWOW64\dui70".?Context@Button@DirectUI@@SG?AVUID@@XZ
  ?ContextMenuHintShowing@ContextMenuBehavior@DirectUI@@SG?AVUID@@XZ="C:\Windows\SysWOW64\dui70".?ContextMenuHintShowing@ContextMenuBehavior@DirectUI@@SG?AVUID@@XZ
  ?ContextMenuRequested@ContextMenuBehavior@DirectUI@@SG?AVUID@@XZ="C:\Windows\SysWOW64\dui70".?ContextMenuRequested@ContextMenuBehavior@DirectUI@@SG?AVUID@@XZ
  ?ContextMenuRequested@TouchEdit2@DirectUI@@SG?AVUID@@XZ="C:\Windows\SysWOW64\dui70".?ContextMenuRequested@TouchEdit2@DirectUI@@SG?AVUID@@XZ
  ?ContextSensitiveHelp@DuiAccessible@DirectUI@@UAGJH@Z="C:\Windows\SysWOW64\dui70".?ContextSensitiveHelp@DuiAccessible@DirectUI@@UAGJH@Z
  ?ContextSensitiveHelp@HWNDHostAccessible@DirectUI@@UAGJH@Z="C:\Windows\SysWOW64\dui70".?ContextSensitiveHelp@HWNDHostAccessible@DirectUI@@UAGJH@Z
  ?ControlTypeProperty@Schema@DirectUI@@2HA="C:\Windows\SysWOW64\dui70".?ControlTypeProperty@Schema@DirectUI@@2HA
  ?CopySheets@DUIXmlParser@DirectUI@@QAEJPAPAV?$DynamicArray@PAVValue@DirectUI@@$0A@@2@@Z="C:\Windows\SysWOW64\dui70".?CopySheets@DUIXmlParser@DirectUI@@QAEJPAPAV?$DynamicArray@PAVValue@DirectUI@@$0A@@2@@Z
  ?Count@?$SafeArrayAccessor@H@DirectUI@@QAEHXZ="C:\Windows\SysWOW64\dui70".?Count@?$SafeArrayAccessor@H@DirectUI@@QAEHXZ
  ?Create@?$PatternProvider@VExpandCollapseProvider@DirectUI@@UIExpandCollapseProvider@@$00@DirectUI@@SGJPAVElementProvider@2@PAPAUIUnknown@@@Z="C:\Windows\SysWOW64\dui70".?Create@?$PatternProvider@VExpandCollapseProvider@DirectUI@@UIExpandCollapseProvider@@$00@DirectUI@@SGJPAVElementProvider@2@PAPAUIUnknown@@@Z
  ?Create@?$PatternProvider@VGridItemProvider@DirectUI@@UIGridItemProvider@@$01@DirectUI@@SGJPAVElementProvider@2@PAPAUIUnknown@@@Z="C:\Windows\SysWOW64\dui70".?Create@?$PatternProvider@VGridItemProvider@DirectUI@@UIGridItemProvider@@$01@DirectUI@@SGJPAVElementProvider@2@PAPAUIUnknown@@@Z
  ?Create@?$PatternProvider@VGridProvider@DirectUI@@UIGridProvider@@$02@DirectUI@@SGJPAVElementProvider@2@PAPAUIUnknown@@@Z="C:\Windows\SysWOW64\dui70".?Create@?$PatternProvider@VGridProvider@DirectUI@@UIGridProvider@@$02@DirectUI@@SGJPAVElementProvider@2@PAPAUIUnknown@@@Z
  ?Create@?$PatternProvider@VInvokeProvider@DirectUI@@UIInvokeProvider@@$0A@@DirectUI@@SGJPAVElementProvider@2@PAPAUIUnknown@@@Z="C:\Windows\SysWOW64\dui70".?Create@?$PatternProvider@VInvokeProvider@DirectUI@@UIInvokeProvider@@$0A@@DirectUI@@SGJPAVElementProvider@2@PAPAUIUnknown@@@Z
  ?Create@?$PatternProvider@VRangeValueProvider@DirectUI@@UIRangeValueProvider@@$03@DirectUI@@SGJPAVElementProvider@2@PAPAUIUnknown@@@Z="C:\Windows\SysWOW64\dui70".?Create@?$PatternProvider@VRangeValueProvider@DirectUI@@UIRangeValueProvider@@$03@DirectUI@@SGJPAVElementProvider@2@PAPAUIUnknown@@@Z
  ?Create@?$PatternProvider@VScrollItemProvider@DirectUI@@UIScrollItemProvider@@$05@DirectUI@@SGJPAVElementProvider@2@PAPAUIUnknown@@@Z="C:\Windows\SysWOW64\dui70".?Create@?$PatternProvider@VScrollItemProvider@DirectUI@@UIScrollItemProvider@@$05@DirectUI@@SGJPAVElementProvider@2@PAPAUIUnknown@@@Z
  ?Create@?$PatternProvider@VScrollProvider@DirectUI@@UIScrollProvider@@$04@DirectUI@@SGJPAVElementProvider@2@PAPAUIUnknown@@@Z="C:\Windows\SysWOW64\dui70".?Create@?$PatternProvider@VScrollProvider@DirectUI@@UIScrollProvider@@$04@DirectUI@@SGJPAVElementProvider@2@PAPAUIUnknown@@@Z
  ?Create@?$PatternProvider@VSelectionItemProvider@DirectUI@@UISelectionItemProvider@@$06@DirectUI@@SGJPAVElementProvider@2@PAPAUIUnknown@@@Z="C:\Windows\SysWOW64\dui70".?Create@?$PatternProvider@VSelectionItemProvider@DirectUI@@UISelectionItemProvider@@$06@DirectUI@@SGJPAVElementProvider@2@PAPAUIUnknown@@@Z
  ?Create@?$PatternProvider@VSelectionProvider@DirectUI@@UISelectionProvider@@$07@DirectUI@@SGJPAVElementProvider@2@PAPAUIUnknown@@@Z="C:\Windows\SysWOW64\dui70".?Create@?$PatternProvider@VSelectionProvider@DirectUI@@UISelectionProvider@@$07@DirectUI@@SGJPAVElementProvider@2@PAPAUIUnknown@@@Z
  ?Create@?$PatternProvider@VTableItemProvider@DirectUI@@UITableItemProvider@@$09@DirectUI@@SGJPAVElementProvider@2@PAPAUIUnknown@@@Z="C:\Windows\SysWOW64\dui70".?Create@?$PatternProvider@VTableItemProvider@DirectUI@@UITableItemProvider@@$09@DirectUI@@SGJPAVElementProvider@2@PAPAUIUnknown@@@Z
  ?Create@?$PatternProvider@VTableProvider@DirectUI@@UITableProvider@@$08@DirectUI@@SGJPAVElementProvider@2@PAPAUIUnknown@@@Z="C:\Windows\SysWOW64\dui70".?Create@?$PatternProvider@VTableProvider@DirectUI@@UITableProvider@@$08@DirectUI@@SGJPAVElementProvider@2@PAPAUIUnknown@@@Z
  ?Create@?$PatternProvider@VToggleProvider@DirectUI@@UIToggleProvider@@$0L@@DirectUI@@SGJPAVElementProvider@2@PAPAUIUnknown@@@Z="C:\Windows\SysWOW64\dui70".?Create@?$PatternProvider@VToggleProvider@DirectUI@@UIToggleProvider@@$0L@@DirectUI@@SGJPAVElementProvider@2@PAPAUIUnknown@@@Z
  ?Create@?$PatternProvider@VValueProvider@DirectUI@@UIValueProvider@@$0M@@DirectUI@@SGJPAVElementProvider@2@PAPAUIUnknown@@@Z="C:\Windows\SysWOW64\dui70".?Create@?$PatternProvider@VValueProvider@DirectUI@@UIValueProvider@@$0M@@DirectUI@@SGJPAVElementProvider@2@PAPAUIUnknown@@@Z
  ?Create@AcceleratorBehavior@@SGJPAPAUIDuiBehavior@@@Z="C:\Windows\SysWOW64\dui70".?Create@AcceleratorBehavior@@SGJPAPAUIDuiBehavior@@@Z
  ?Create@AccessibleButton@DirectUI@@SGJPAVElement@2@PAKPAPAV32@@Z="C:\Windows\SysWOW64\dui70".?Create@AccessibleButton@DirectUI@@SGJPAVElement@2@PAKPAPAV32@@Z
  ?Create@AnimationStrip@DirectUI@@SGJPAVElement@2@PAKPAPAV32@@Z="C:\Windows\SysWOW64\dui70".?Create@AnimationStrip@DirectUI@@SGJPAVElement@2@PAKPAPAV32@@Z
  ?Create@AutoButton@DirectUI@@SGJPAVElement@2@PAKPAPAV32@@Z="C:\Windows\SysWOW64\dui70".?Create@AutoButton@DirectUI@@SGJPAVElement@2@PAKPAPAV32@@Z
  ?Create@Bind@DirectUI@@SGJPAVElement@2@PAKPAPAV32@@Z="C:\Windows\SysWOW64\dui70".?Create@Bind@DirectUI@@SGJPAVElement@2@PAKPAPAV32@@Z
  ?Create@BorderLayout@DirectUI@@SGJHPAHPAPAVValue@2@@Z="C:\Windows\SysWOW64\dui70".?Create@BorderLayout@DirectUI@@SGJHPAHPAPAVValue@2@@Z
  ?Create@BorderLayout@DirectUI@@SGJPAPAVLayout@2@@Z="C:\Windows\SysWOW64\dui70".?Create@BorderLayout@DirectUI@@SGJPAPAVLayout@2@@Z
  ?Create@Browser@DirectUI@@SGJPAVElement@2@PAKPAPAV32@@Z="C:\Windows\SysWOW64\dui70".?Create@Browser@DirectUI@@SGJPAVElement@2@PAKPAPAV32@@Z
  ?Create@Button@DirectUI@@SGJIPAVElement@2@PAKPAPAV32@@Z="C:\Windows\SysWOW64\dui70".?Create@Button@DirectUI@@SGJIPAVElement@2@PAKPAPAV32@@Z
  ?Create@Button@DirectUI@@SGJPAVElement@2@PAKPAPAV32@@Z="C:\Windows\SysWOW64\dui70".?Create@Button@DirectUI@@SGJPAVElement@2@PAKPAPAV32@@Z
  ?Create@CCAVI@DirectUI@@SGJIPAVElement@2@PAKPAPAV32@@Z="C:\Windows\SysWOW64\dui70".?Create@CCAVI@DirectUI@@SGJIPAVElement@2@PAKPAPAV32@@Z
  ?Create@CCAVI@DirectUI@@SGJPAVElement@2@PAKPAPAV32@@Z="C:\Windows\SysWOW64\dui70".?Create@CCAVI@DirectUI@@SGJPAVElement@2@PAKPAPAV32@@Z
  ?Create@CCBase@DirectUI@@SGJIPAVElement@2@PAKPAPAV32@@Z="C:\Windows\SysWOW64\dui70".?Create@CCBase@DirectUI@@SGJIPAVElement@2@PAKPAPAV32@@Z
  ?Create@CCBase@DirectUI@@SGJPAVElement@2@PAKPAPAV32@@Z="C:\Windows\SysWOW64\dui70".?Create@CCBase@DirectUI@@SGJPAVElement@2@PAKPAPAV32@@Z
  ?Create@CCCheckBox@DirectUI@@SGJIPAVElement@2@PAKPAPAV32@@Z="C:\Windows\SysWOW64\dui70".?Create@CCCheckBox@DirectUI@@SGJIPAVElement@2@PAKPAPAV32@@Z
  ?Create@CCCheckBox@DirectUI@@SGJPAVElement@2@PAKPAPAV32@@Z="C:\Windows\SysWOW64\dui70".?Create@CCCheckBox@DirectUI@@SGJPAVElement@2@PAKPAPAV32@@Z
  ?Create@CCCommandLink@DirectUI@@SGJIPAVElement@2@PAKPAPAV32@@Z="C:\Windows\SysWOW64\dui70".?Create@CCCommandLink@DirectUI@@SGJIPAVElement@2@PAKPAPAV32@@Z
  ?Create@CCCommandLink@DirectUI@@SGJPAVElement@2@PAKPAPAV32@@Z="C:\Windows\SysWOW64\dui70".?Create@CCCommandLink@DirectUI@@SGJPAVElement@2@PAKPAPAV32@@Z
  ?Create@CCHScrollBar@DirectUI@@SGJIPAVElement@2@PAKPAPAV32@@Z="C:\Windows\SysWOW64\dui70".?Create@CCHScrollBar@DirectUI@@SGJIPAVElement@2@PAKPAPAV32@@Z
  ?Create@CCHScrollBar@DirectUI@@SGJPAVElement@2@PAKPAPAV32@@Z="C:\Windows\SysWOW64\dui70".?Create@CCHScrollBar@DirectUI@@SGJPAVElement@2@PAKPAPAV32@@Z
  ?Create@CCListBox@DirectUI@@SGJIPAVElement@2@PAKPAPAV32@@Z="C:\Windows\SysWOW64\dui70".?Create@CCListBox@DirectUI@@SGJIPAVElement@2@PAKPAPAV32@@Z
  ?Create@CCListBox@DirectUI@@SGJPAVElement@2@PAKPAPAV32@@Z="C:\Windows\SysWOW64\dui70".?Create@CCListBox@DirectUI@@SGJPAVElement@2@PAKPAPAV32@@Z
  ?Create@CCListView@DirectUI@@SGJIPAVElement@2@PAKPAPAV32@@Z="C:\Windows\SysWOW64\dui70".?Create@CCListView@DirectUI@@SGJIPAVElement@2@PAKPAPAV32@@Z
  ?Create@CCListView@DirectUI@@SGJPAVElement@2@PAKPAPAV32@@Z="C:\Windows\SysWOW64\dui70".?Create@CCListView@DirectUI@@SGJPAVElement@2@PAKPAPAV32@@Z
  ?Create@CCProgressBar@DirectUI@@SGJIPAVElement@2@PAKPAPAV32@@Z="C:\Windows\SysWOW64\dui70".?Create@CCProgressBar@DirectUI@@SGJIPAVElement@2@PAKPAPAV32@@Z
  ?Create@CCProgressBar@DirectUI@@SGJPAVElement@2@PAKPAPAV32@@Z="C:\Windows\SysWOW64\dui70".?Create@CCProgressBar@DirectUI@@SGJPAVElement@2@PAKPAPAV32@@Z
  ?Create@CCPushButton@DirectUI@@SGJIPAVElement@2@PAKPAPAV32@@Z="C:\Windows\SysWOW64\dui70".?Create@CCPushButton@DirectUI@@SGJIPAVElement@2@PAKPAPAV32@@Z
  ?Create@CCPushButton@DirectUI@@SGJPAVElement@2@PAKPAPAV32@@Z="C:\Windows\SysWOW64\dui70".?Create@CCPushButton@DirectUI@@SGJPAVElement@2@PAKPAPAV32@@Z
  ?Create@CCRadioButton@DirectUI@@SGJIPAVElement@2@PAKPAPAV32@@Z="C:\Windows\SysWOW64\dui70".?Create@CCRadioButton@DirectUI@@SGJIPAVElement@2@PAKPAPAV32@@Z
  ?Create@CCRadioButton@DirectUI@@SGJPAVElement@2@PAKPAPAV32@@Z="C:\Windows\SysWOW64\dui70".?Create@CCRadioButton@DirectUI@@SGJPAVElement@2@PAKPAPAV32@@Z
  ?Create@CCSysLink@DirectUI@@SGJIPAVElement@2@PAKPAPAV32@@Z="C:\Windows\SysWOW64\dui70".?Create@CCSysLink@DirectUI@@SGJIPAVElement@2@PAKPAPAV32@@Z
  ?Create@CCSysLink@DirectUI@@SGJPAVElement@2@PAKPAPAV32@@Z="C:\Windows\SysWOW64\dui70".?Create@CCSysLink@DirectUI@@SGJPAVElement@2@PAKPAPAV32@@Z
  ?Create@CCTrackBar@DirectUI@@SGJIPAVElement@2@PAKPAPAV32@@Z="C:\Windows\SysWOW64\dui70".?Create@CCTrackBar@DirectUI@@SGJIPAVElement@2@PAKPAPAV32@@Z
  ?Create@CCTrackBar@DirectUI@@SGJPAVElement@2@PAKPAPAV32@@Z="C:\Windows\SysWOW64\dui70".?Create@CCTrackBar@DirectUI@@SGJPAVElement@2@PAKPAPAV32@@Z
  ?Create@CCTreeView@DirectUI@@SGJIPAVElement@2@PAKPAPAV32@@Z="C:\Windows\SysWOW64\dui70".?Create@CCTreeView@DirectUI@@SGJIPAVElement@2@PAKPAPAV32@@Z
  ?Create@CCTreeView@DirectUI@@SGJPAVElement@2@PAKPAPAV32@@Z="C:\Windows\SysWOW64\dui70".?Create@CCTreeView@DirectUI@@SGJPAVElement@2@PAKPAPAV32@@Z
  ?Create@CCVScrollBar@DirectUI@@SGJIPAVElement@2@PAKPAPAV32@@Z="C:\Windows\SysWOW64\dui70".?Create@CCVScrollBar@DirectUI@@SGJIPAVElement@2@PAKPAPAV32@@Z
  ?Create@CCVScrollBar@DirectUI@@SGJPAVElement@2@PAKPAPAV32@@Z="C:\Windows\SysWOW64\dui70".?Create@CCVScrollBar@DirectUI@@SGJPAVElement@2@PAKPAPAV32@@Z
  ?Create@CheckBoxGlyph@DirectUI@@SGJIPAVElement@2@PAKPAPAV32@@Z="C:\Windows\SysWOW64\dui70".?Create@CheckBoxGlyph@DirectUI@@SGJIPAVElement@2@PAKPAPAV32@@Z
  ?Create@CheckBoxGlyph@DirectUI@@SGJPAVElement@2@PAKPAPAV32@@Z="C:\Windows\SysWOW64\dui70".?Create@CheckBoxGlyph@DirectUI@@SGJPAVElement@2@PAKPAPAV32@@Z
  ?Create@Clipper@DirectUI@@SGJPAVElement@2@PAKPAPAV32@@Z="C:\Windows\SysWOW64\dui70".?Create@Clipper@DirectUI@@SGJPAVElement@2@PAKPAPAV32@@Z
  ?Create@Combobox@DirectUI@@SGJIPAVElement@2@PAKPAPAV32@@Z="C:\Windows\SysWOW64\dui70".?Create@Combobox@DirectUI@@SGJIPAVElement@2@PAKPAPAV32@@Z
  ?Create@Combobox@DirectUI@@SGJPAVElement@2@PAKPAPAV32@@Z="C:\Windows\SysWOW64\dui70".?Create@Combobox@DirectUI@@SGJPAVElement@2@PAKPAPAV32@@Z
  ?Create@ContextMenuBehavior@DirectUI@@SGJPAPAUIDuiBehavior@@@Z="C:\Windows\SysWOW64\dui70".?Create@ContextMenuBehavior@DirectUI@@SGJPAPAUIDuiBehavior@@@Z
  ?Create@DUIXmlParser@DirectUI@@SGJPAPAV12@P6GPAVValue@2@PBGPAX@Z2P6GX11H2@Z2@Z="C:\Windows\SysWOW64\dui70".?Create@DUIXmlParser@DirectUI@@SGJPAPAV12@P6GPAVValue@2@PBGPAX@Z2P6GX11H2@Z2@Z
  ?Create@DialogElement@DirectUI@@SGJPAUHWND__@@_NIPAVElement@2@PAKPAPAV42@@Z="C:\Windows\SysWOW64\dui70".?Create@DialogElement@DirectUI@@SGJPAUHWND__@@_NIPAVElement@2@PAKPAPAV42@@Z
  ?Create@DuiAccessible@DirectUI@@SGJPAVElement@2@PAPAV12@@Z="C:\Windows\SysWOW64\dui70".?Create@DuiAccessible@DirectUI@@SGJPAVElement@2@PAPAV12@@Z
  ?Create@Edit@DirectUI@@SGJIPAVElement@2@PAKPAPAV32@@Z="C:\Windows\SysWOW64\dui70".?Create@Edit@DirectUI@@SGJIPAVElement@2@PAKPAPAV32@@Z
  ?Create@Edit@DirectUI@@SGJPAVElement@2@PAKPAPAV32@@Z="C:\Windows\SysWOW64\dui70".?Create@Edit@DirectUI@@SGJPAVElement@2@PAKPAPAV32@@Z
  ?Create@Element@DirectUI@@SGJIPAV12@PAKPAPAV12@@Z="C:\Windows\SysWOW64\dui70".?Create@Element@DirectUI@@SGJIPAV12@PAKPAPAV12@@Z
  ?Create@ElementProvider@DirectUI@@SGJPAVElement@2@PAVInvokeHelper@2@PAPAV12@@Z="C:\Windows\SysWOW64\dui70".?Create@ElementProvider@DirectUI@@SGJPAVElement@2@PAVInvokeHelper@2@PAPAV12@@Z
  ?Create@ElementProxy@DirectUI@@SGPAV12@PAVElement@2@@Z="C:\Windows\SysWOW64\dui70".?Create@ElementProxy@DirectUI@@SGPAV12@PAVElement@2@@Z
  ?Create@ElementWithHWND@DirectUI@@SGJPAVElement@2@PAKPAPAV32@@Z="C:\Windows\SysWOW64\dui70".?Create@ElementWithHWND@DirectUI@@SGJPAVElement@2@PAKPAPAV32@@Z
  ?Create@ExpandCollapseProxy@DirectUI@@SGPAV12@PAVElement@2@@Z="C:\Windows\SysWOW64\dui70".?Create@ExpandCollapseProxy@DirectUI@@SGPAV12@PAVElement@2@@Z
  ?Create@Expandable@DirectUI@@SGJPAVElement@2@PAKPAPAV32@@Z="C:\Windows\SysWOW64\dui70".?Create@Expandable@DirectUI@@SGJPAVElement@2@PAKPAPAV32@@Z
  ?Create@Expando@DirectUI@@SGJPAVElement@2@PAKPAPAV32@@Z="C:\Windows\SysWOW64\dui70".?Create@Expando@DirectUI@@SGJPAVElement@2@PAKPAPAV32@@Z
  ?Create@ExpandoButtonGlyph@DirectUI@@SGJIPAVElement@2@PAKPAPAV32@@Z="C:\Windows\SysWOW64\dui70".?Create@ExpandoButtonGlyph@DirectUI@@SGJIPAVElement@2@PAKPAPAV32@@Z
  ?Create@ExpandoButtonGlyph@DirectUI@@SGJPAVElement@2@PAKPAPAV32@@Z="C:\Windows\SysWOW64\dui70".?Create@ExpandoButtonGlyph@DirectUI@@SGJPAVElement@2@PAKPAPAV32@@Z
  ?Create@FillLayout@DirectUI@@SGJHPAHPAPAVValue@2@@Z="C:\Windows\SysWOW64\dui70".?Create@FillLayout@DirectUI@@SGJHPAHPAPAVValue@2@@Z
  ?Create@FillLayout@DirectUI@@SGJPAPAVLayout@2@@Z="C:\Windows\SysWOW64\dui70".?Create@FillLayout@DirectUI@@SGJPAPAVLayout@2@@Z
  ?Create@FlowLayout@DirectUI@@SGJHPAHPAPAVValue@2@@Z="C:\Windows\SysWOW64\dui70".?Create@FlowLayout@DirectUI@@SGJHPAHPAPAVValue@2@@Z
  ?Create@FlowLayout@DirectUI@@SGJ_NIIIPAPAVLayout@2@@Z="C:\Windows\SysWOW64\dui70".?Create@FlowLayout@DirectUI@@SGJ_NIIIPAPAVLayout@2@@Z
  ?Create@GridItemProxy@DirectUI@@SGPAV12@PAVElement@2@@Z="C:\Windows\SysWOW64\dui70".?Create@GridItemProxy@DirectUI@@SGPAV12@PAVElement@2@@Z
  ?Create@GridLayout@DirectUI@@SGJHHPAPAVLayout@2@@Z="C:\Windows\SysWOW64\dui70".?Create@GridLayout@DirectUI@@SGJHHPAPAVLayout@2@@Z
  ?Create@GridLayout@DirectUI@@SGJHPAHPAPAVValue@2@@Z="C:\Windows\SysWOW64\dui70".?Create@GridLayout@DirectUI@@SGJHPAHPAPAVValue@2@@Z
  ?Create@GridProxy@DirectUI@@SGPAV12@PAVElement@2@@Z="C:\Windows\SysWOW64\dui70".?Create@GridProxy@DirectUI@@SGPAV12@PAVElement@2@@Z
  ?Create@HWNDElement@DirectUI@@SGJPAUHWND__@@_NIPAVElement@2@PAKPAPAV42@@Z="C:\Windows\SysWOW64\dui70".?Create@HWNDElement@DirectUI@@SGJPAUHWND__@@_NIPAVElement@2@PAKPAPAV42@@Z
  ?Create@HWNDElementAccessible@DirectUI@@SGJPAVHWNDElement@2@PAPAVDuiAccessible@2@@Z="C:\Windows\SysWOW64\dui70".?Create@HWNDElementAccessible@DirectUI@@SGJPAVHWNDElement@2@PAPAVDuiAccessible@2@@Z
  ?Create@HWNDElementProvider@DirectUI@@SGJPAVHWNDElement@2@PAVInvokeHelper@2@PAPAV12@@Z="C:\Windows\SysWOW64\dui70".?Create@HWNDElementProvider@DirectUI@@SGJPAVHWNDElement@2@PAVInvokeHelper@2@PAPAV12@@Z
  ?Create@HWNDElementProxy@DirectUI@@SGPAV12@PAVHWNDElement@2@@Z="C:\Windows\SysWOW64\dui70".?Create@HWNDElementProxy@DirectUI@@SGPAV12@PAVHWNDElement@2@@Z
  ?Create@HWNDHost@DirectUI@@SGJIIPAVElement@2@PAKPAPAV32@@Z="C:\Windows\SysWOW64\dui70".?Create@HWNDHost@DirectUI@@SGJIIPAVElement@2@PAKPAPAV32@@Z
  ?Create@HWNDHost@DirectUI@@SGJPAVElement@2@PAKPAPAV32@@Z="C:\Windows\SysWOW64\dui70".?Create@HWNDHost@DirectUI@@SGJPAVElement@2@PAKPAPAV32@@Z
  ?Create@HWNDHostAccessible@DirectUI@@SGJPAVElement@2@PAUIAccessible@@PAPAVDuiAccessible@2@@Z="C:\Windows\SysWOW64\dui70".?Create@HWNDHostAccessible@DirectUI@@SGJPAVElement@2@PAUIAccessible@@PAPAVDuiAccessible@2@@Z
  ?Create@HWNDHostClientAccessible@DirectUI@@SGJPAVElement@2@PAUIAccessible@@PAPAVDuiAccessible@2@@Z="C:\Windows\SysWOW64\dui70".?Create@HWNDHostClientAccessible@DirectUI@@SGJPAVElement@2@PAUIAccessible@@PAPAVDuiAccessible@2@@Z
  ?Create@InvokeProxy@DirectUI@@SGPAV12@PAVElement@2@@Z="C:\Windows\SysWOW64\dui70".?Create@InvokeProxy@DirectUI@@SGPAV12@PAVElement@2@@Z
  ?Create@ItemList@DirectUI@@SGJPAVElement@2@PAKPAPAV32@@Z="C:\Windows\SysWOW64\dui70".?Create@ItemList@DirectUI@@SGJPAVElement@2@PAKPAPAV32@@Z
  ?Create@Layout@DirectUI@@SGJPAPAV12@@Z="C:\Windows\SysWOW64\dui70".?Create@Layout@DirectUI@@SGJPAPAV12@@Z
  ?Create@Macro@DirectUI@@SGJPAVElement@2@PAKPAPAV32@@Z="C:\Windows\SysWOW64\dui70".?Create@Macro@DirectUI@@SGJPAVElement@2@PAKPAPAV32@@Z
  ?Create@ModernProgressBar@DirectUI@@SGJPAVElement@2@PAKPAPAV32@@Z="C:\Windows\SysWOW64\dui70".?Create@ModernProgressBar@DirectUI@@SGJPAVElement@2@PAKPAPAV32@@Z
  ?Create@ModernProgressRing@DirectUI@@SGJPAVElement@2@PAKPAPAV32@@Z="C:\Windows\SysWOW64\dui70".?Create@ModernProgressRing@DirectUI@@SGJPAVElement@2@PAKPAPAV32@@Z
  ?Create@Movie@DirectUI@@SGJIPAVElement@2@PAKPAPAV32@@Z="C:\Windows\SysWOW64\dui70".?Create@Movie@DirectUI@@SGJIPAVElement@2@PAKPAPAV32@@Z
  ?Create@Movie@DirectUI@@SGJPAVElement@2@PAKPAPAV32@@Z="C:\Windows\SysWOW64\dui70".?Create@Movie@DirectUI@@SGJPAVElement@2@PAKPAPAV32@@Z
  ?Create@NativeHWNDHost@DirectUI@@SGJPBG0PAUHWND__@@PAUHICON__@@HHHHHHPAUHINSTANCE__@@IPAPAV12@@Z="C:\Windows\SysWOW64\dui70".?Create@NativeHWNDHost@DirectUI@@SGJPBG0PAUHWND__@@PAUHICON__@@HHHHHHPAUHINSTANCE__@@IPAPAV12@@Z
  ?Create@NativeHWNDHost@DirectUI@@SGJPBGPAUHWND__@@PAUHICON__@@HHHHHHIPAPAV12@@Z="C:\Windows\SysWOW64\dui70".?Create@NativeHWNDHost@DirectUI@@SGJPBGPAUHWND__@@PAUHICON__@@HHHHHHIPAPAV12@@Z
  ?Create@Navigator@DirectUI@@SGJPAVElement@2@PAKPAPAV32@@Z="C:\Windows\SysWOW64\dui70".?Create@Navigator@DirectUI@@SGJPAVElement@2@PAKPAPAV32@@Z
  ?Create@NineGridLayout@DirectUI@@SGJHPAHPAPAVValue@2@@Z="C:\Windows\SysWOW64\dui70".?Create@NineGridLayout@DirectUI@@SGJHPAHPAPAVValue@2@@Z
  ?Create@NineGridLayout@DirectUI@@SGJPAPAVLayout@2@@Z="C:\Windows\SysWOW64\dui70".?Create@NineGridLayout@DirectUI@@SGJPAPAVLayout@2@@Z
  ?Create@PText@DirectUI@@SGJPAVElement@2@PAKPAPAV32@@Z="C:\Windows\SysWOW64\dui70".?Create@PText@DirectUI@@SGJPAVElement@2@PAKPAPAV32@@Z
  ?Create@Page@DirectUI@@SGJPAVElement@2@PAKPAPAV32@@Z="C:\Windows\SysWOW64\dui70".?Create@Page@DirectUI@@SGJPAVElement@2@PAKPAPAV32@@Z
  ?Create@Pages@DirectUI@@SGJPAVElement@2@PAKPAPAV32@@Z="C:\Windows\SysWOW64\dui70".?Create@Pages@DirectUI@@SGJPAVElement@2@PAKPAPAV32@@Z
  ?Create@Progress@DirectUI@@SGJPAVElement@2@PAKPAPAV32@@Z="C:\Windows\SysWOW64\dui70".?Create@Progress@DirectUI@@SGJPAVElement@2@PAKPAPAV32@@Z
  ?Create@PushButton@DirectUI@@SGJPAVElement@2@PAKPAPAV32@@Z="C:\Windows\SysWOW64\dui70".?Create@PushButton@DirectUI@@SGJPAVElement@2@PAKPAPAV32@@Z
  ?Create@RadioButtonGlyph@DirectUI@@SGJIPAVElement@2@PAKPAPAV32@@Z="C:\Windows\SysWOW64\dui70".?Create@RadioButtonGlyph@DirectUI@@SGJIPAVElement@2@PAKPAPAV32@@Z
  ?Create@RadioButtonGlyph@DirectUI@@SGJPAVElement@2@PAKPAPAV32@@Z="C:\Windows\SysWOW64\dui70".?Create@RadioButtonGlyph@DirectUI@@SGJPAVElement@2@PAKPAPAV32@@Z
  ?Create@RangeValueProxy@DirectUI@@SGPAV12@PAVElement@2@@Z="C:\Windows\SysWOW64\dui70".?Create@RangeValueProxy@DirectUI@@SGPAV12@PAVElement@2@@Z
  ?Create@RefPointElement@DirectUI@@SGJIPAVElement@2@PAKPAPAV32@@Z="C:\Windows\SysWOW64\dui70".?Create@RefPointElement@DirectUI@@SGJIPAVElement@2@PAKPAPAV32@@Z
  ?Create@RefPointElement@DirectUI@@SGJPAVElement@2@PAKPAPAV32@@Z="C:\Windows\SysWOW64\dui70".?Create@RefPointElement@DirectUI@@SGJPAVElement@2@PAKPAPAV32@@Z
  ?Create@RepeatButton@DirectUI@@SGJIPAVElement@2@PAKPAPAV32@@Z="C:\Windows\SysWOW64\dui70".?Create@RepeatButton@DirectUI@@SGJIPAVElement@2@PAKPAPAV32@@Z
  ?Create@RepeatButton@DirectUI@@SGJPAVElement@2@PAKPAPAV32@@Z="C:\Windows\SysWOW64\dui70".?Create@RepeatButton@DirectUI@@SGJPAVElement@2@PAKPAPAV32@@Z
  ?Create@Repeater@DirectUI@@SGJPAVElement@2@PAKPAPAV32@@Z="C:\Windows\SysWOW64\dui70".?Create@Repeater@DirectUI@@SGJPAVElement@2@PAKPAPAV32@@Z
  ?Create@RichText@DirectUI@@SGJPAVElement@2@PAKPAPAV32@@Z="C:\Windows\SysWOW64\dui70".?Create@RichText@DirectUI@@SGJPAVElement@2@PAKPAPAV32@@Z
  ?Create@RowLayout@DirectUI@@SGJHIIPAPAVLayout@2@@Z="C:\Windows\SysWOW64\dui70".?Create@RowLayout@DirectUI@@SGJHIIPAPAVLayout@2@@Z
  ?Create@RowLayout@DirectUI@@SGJHPAHPAPAVValue@2@@Z="C:\Windows\SysWOW64\dui70".?Create@RowLayout@DirectUI@@SGJHPAHPAPAVValue@2@@Z
  ?Create@RowLayout@DirectUI@@SGJIIPAPAVLayout@2@@Z="C:\Windows\SysWOW64\dui70".?Create@RowLayout@DirectUI@@SGJIIPAPAVLayout@2@@Z
  ?Create@ScrollBar@DirectUI@@SGJPAVElement@2@PAKPAPAV32@@Z="C:\Windows\SysWOW64\dui70".?Create@ScrollBar@DirectUI@@SGJPAVElement@2@PAKPAPAV32@@Z
  ?Create@ScrollBar@DirectUI@@SGJ_NPAVElement@2@PAKPAPAV32@@Z="C:\Windows\SysWOW64\dui70".?Create@ScrollBar@DirectUI@@SGJ_NPAVElement@2@PAKPAPAV32@@Z
  ?Create@ScrollItemProxy@DirectUI@@SGPAV12@PAVElement@2@@Z="C:\Windows\SysWOW64\dui70".?Create@ScrollItemProxy@DirectUI@@SGPAV12@PAVElement@2@@Z
  ?Create@ScrollProxy@DirectUI@@SGPAV12@PAVElement@2@@Z="C:\Windows\SysWOW64\dui70".?Create@ScrollProxy@DirectUI@@SGPAV12@PAVElement@2@@Z
  ?Create@ScrollViewer@DirectUI@@SGJPAVElement@2@PAKPAPAV32@@Z="C:\Windows\SysWOW64\dui70".?Create@ScrollViewer@DirectUI@@SGJPAVElement@2@PAKPAPAV32@@Z
  ?Create@ScrubBehavior@@SGJPAPAUIDuiBehavior@@@Z="C:\Windows\SysWOW64\dui70".?Create@ScrubBehavior@@SGJPAPAUIDuiBehavior@@@Z
  ?Create@SelectionItemProxy@DirectUI@@SGPAV12@PAVElement@2@@Z="C:\Windows\SysWOW64\dui70".?Create@SelectionItemProxy@DirectUI@@SGPAV12@PAVElement@2@@Z
  ?Create@SelectionProxy@DirectUI@@SGPAV12@PAVElement@2@@Z="C:\Windows\SysWOW64\dui70".?Create@SelectionProxy@DirectUI@@SGPAV12@PAVElement@2@@Z
  ?Create@Selector@DirectUI@@SGJPAVElement@2@PAKPAPAV32@@Z="C:\Windows\SysWOW64\dui70".?Create@Selector@DirectUI@@SGJPAVElement@2@PAKPAPAV32@@Z
  ?Create@SelectorNoDefault@DirectUI@@SGJPAVElement@2@PAKPAPAV32@@Z="C:\Windows\SysWOW64\dui70".?Create@SelectorNoDefault@DirectUI@@SGJPAVElement@2@PAKPAPAV32@@Z
  ?Create@SemanticZoomToggle@DirectUI@@SGJPAVElement@2@PAKPAPAV32@@Z="C:\Windows\SysWOW64\dui70".?Create@SemanticZoomToggle@DirectUI@@SGJPAVElement@2@PAKPAPAV32@@Z
  ?Create@ShellBorderLayout@DirectUI@@SGJHPAHPAPAVValue@2@@Z="C:\Windows\SysWOW64\dui70".?Create@ShellBorderLayout@DirectUI@@SGJHPAHPAPAVValue@2@@Z
  ?Create@ShellBorderLayout@DirectUI@@SGJPAPAVLayout@2@@Z="C:\Windows\SysWOW64\dui70".?Create@ShellBorderLayout@DirectUI@@SGJPAPAVLayout@2@@Z
  ?Create@StyleSheet@DirectUI@@SGJPAPAV12@@Z="C:\Windows\SysWOW64\dui70".?Create@StyleSheet@DirectUI@@SGJPAPAV12@@Z
  ?Create@StyledScrollViewer@DirectUI@@SGJPAVElement@2@PAKPAPAV32@@Z="C:\Windows\SysWOW64\dui70".?Create@StyledScrollViewer@DirectUI@@SGJPAVElement@2@PAKPAPAV32@@Z
  ?Create@TableItemProxy@DirectUI@@SGPAV12@PAVElement@2@@Z="C:\Windows\SysWOW64\dui70".?Create@TableItemProxy@DirectUI@@SGPAV12@PAVElement@2@@Z
  ?Create@TableLayout@DirectUI@@SGJHPAHPAPAVValue@2@@Z="C:\Windows\SysWOW64\dui70".?Create@TableLayout@DirectUI@@SGJHPAHPAPAVValue@2@@Z
  ?Create@TableProxy@DirectUI@@SGPAV12@PAVElement@2@@Z="C:\Windows\SysWOW64\dui70".?Create@TableProxy@DirectUI@@SGPAV12@PAVElement@2@@Z
  ?Create@TextGraphic@DirectUI@@SGJPAVElement@2@PAKPAPAV32@@Z="C:\Windows\SysWOW64\dui70".?Create@TextGraphic@DirectUI@@SGJPAVElement@2@PAKPAPAV32@@Z
  ?Create@Thumb@DirectUI@@SGJIPAVElement@2@PAKPAPAV32@@Z="C:\Windows\SysWOW64\dui70".?Create@Thumb@DirectUI@@SGJIPAVElement@2@PAKPAPAV32@@Z
  ?Create@Thumb@DirectUI@@SGJPAVElement@2@PAKPAPAV32@@Z="C:\Windows\SysWOW64\dui70".?Create@Thumb@DirectUI@@SGJPAVElement@2@PAKPAPAV32@@Z
  ?Create@ToggleProxy@DirectUI@@SGPAV12@PAVElement@2@@Z="C:\Windows\SysWOW64\dui70".?Create@ToggleProxy@DirectUI@@SGPAV12@PAVElement@2@@Z
  ?Create@TouchButton@DirectUI@@SGJIPAVElement@2@PAKPAPAV32@@Z="C:\Windows\SysWOW64\dui70".?Create@TouchButton@DirectUI@@SGJIPAVElement@2@PAKPAPAV32@@Z
  ?Create@TouchButton@DirectUI@@SGJPAVElement@2@PAKPAPAV32@@Z="C:\Windows\SysWOW64\dui70".?Create@TouchButton@DirectUI@@SGJPAVElement@2@PAKPAPAV32@@Z
  ?Create@TouchCheckBox@DirectUI@@SGJIPAVElement@2@PAKPAPAV32@@Z="C:\Windows\SysWOW64\dui70".?Create@TouchCheckBox@DirectUI@@SGJIPAVElement@2@PAKPAPAV32@@Z
  ?Create@TouchCheckBox@DirectUI@@SGJPAVElement@2@PAKPAPAV32@@Z="C:\Windows\SysWOW64\dui70".?Create@TouchCheckBox@DirectUI@@SGJPAVElement@2@PAKPAPAV32@@Z
  ?Create@TouchCheckBoxGlyph@DirectUI@@SGJPAVElement@2@PAKPAPAV32@@Z="C:\Windows\SysWOW64\dui70".?Create@TouchCheckBoxGlyph@DirectUI@@SGJPAVElement@2@PAKPAPAV32@@Z
  ?Create@TouchCommandButton@DirectUI@@SGJIPAVElement@2@PAKPAPAV32@@Z="C:\Windows\SysWOW64\dui70".?Create@TouchCommandButton@DirectUI@@SGJIPAVElement@2@PAKPAPAV32@@Z
  ?Create@TouchCommandButton@DirectUI@@SGJPAVElement@2@PAKPAPAV32@@Z="C:\Windows\SysWOW64\dui70".?Create@TouchCommandButton@DirectUI@@SGJPAVElement@2@PAKPAPAV32@@Z
  ?Create@TouchEdit2@DirectUI@@SGJPAVElement@2@PAKPAPAV32@@Z="C:\Windows\SysWOW64\dui70".?Create@TouchEdit2@DirectUI@@SGJPAVElement@2@PAKPAPAV32@@Z
  ?Create@TouchEditBase@DirectUI@@SGJPAVElement@2@PAKPAPAV32@@Z="C:\Windows\SysWOW64\dui70".?Create@TouchEditBase@DirectUI@@SGJPAVElement@2@PAKPAPAV32@@Z
  ?Create@TouchHWNDElement@DirectUI@@SGJPAUHWND__@@_NIPAVElement@2@PAKPAPAV42@@Z="C:\Windows\SysWOW64\dui70".?Create@TouchHWNDElement@DirectUI@@SGJPAUHWND__@@_NIPAVElement@2@PAKPAPAV42@@Z
  ?Create@TouchHyperLink@DirectUI@@SGJIPAVElement@2@PAKPAPAV32@@Z="C:\Windows\SysWOW64\dui70".?Create@TouchHyperLink@DirectUI@@SGJIPAVElement@2@PAKPAPAV32@@Z
  ?Create@TouchHyperLink@DirectUI@@SGJPAVElement@2@PAKPAPAV32@@Z="C:\Windows\SysWOW64\dui70".?Create@TouchHyperLink@DirectUI@@SGJPAVElement@2@PAKPAPAV32@@Z
  ?Create@TouchRepeatButton@DirectUI@@SGJIPAVElement@2@PAKPAPAV32@@Z="C:\Windows\SysWOW64\dui70".?Create@TouchRepeatButton@DirectUI@@SGJIPAVElement@2@PAKPAPAV32@@Z
  ?Create@TouchRepeatButton@DirectUI@@SGJPAVElement@2@PAKPAPAV32@@Z="C:\Windows\SysWOW64\dui70".?Create@TouchRepeatButton@DirectUI@@SGJPAVElement@2@PAKPAPAV32@@Z
  ?Create@TouchScrollBar@DirectUI@@SGJPAVElement@2@PAKPAPAV32@@Z="C:\Windows\SysWOW64\dui70".?Create@TouchScrollBar@DirectUI@@SGJPAVElement@2@PAKPAPAV32@@Z
  ?Create@TouchScrollViewer@DirectUI@@SGJPAVElement@2@PAKPAPAV32@@Z="C:\Windows\SysWOW64\dui70".?Create@TouchScrollViewer@DirectUI@@SGJPAVElement@2@PAKPAPAV32@@Z
  ?Create@TouchSelect@DirectUI@@SGJPAVElement@2@PAKPAPAV32@@Z="C:\Windows\SysWOW64\dui70".?Create@TouchSelect@DirectUI@@SGJPAVElement@2@PAKPAPAV32@@Z
  ?Create@TouchSelectItem@DirectUI@@SGJPAVElement@2@PAKPAPAV32@@Z="C:\Windows\SysWOW64\dui70".?Create@TouchSelectItem@DirectUI@@SGJPAVElement@2@PAKPAPAV32@@Z
  ?Create@TouchSlider@DirectUI@@SGJPAVElement@2@PAKPAPAV32@@Z="C:\Windows\SysWOW64\dui70".?Create@TouchSlider@DirectUI@@SGJPAVElement@2@PAKPAPAV32@@Z
  ?Create@TouchSwitch@DirectUI@@SGJPAVElement@2@PAKPAPAV32@@Z="C:\Windows\SysWOW64\dui70".?Create@TouchSwitch@DirectUI@@SGJPAVElement@2@PAKPAPAV32@@Z
  ?Create@UnknownElement@DirectUI@@SGJIPAVElement@2@PAKPAPAV32@@Z="C:\Windows\SysWOW64\dui70".?Create@UnknownElement@DirectUI@@SGJIPAVElement@2@PAKPAPAV32@@Z
  ?Create@UnknownElement@DirectUI@@SGJPAVElement@2@PAKPAPAV32@@Z="C:\Windows\SysWOW64\dui70".?Create@UnknownElement@DirectUI@@SGJPAVElement@2@PAKPAPAV32@@Z
  ?Create@ValueProxy@DirectUI@@SGPAV12@PAVElement@2@@Z="C:\Windows\SysWOW64\dui70".?Create@ValueProxy@DirectUI@@SGPAV12@PAVElement@2@@Z
  ?Create@VerticalFlowLayout@DirectUI@@SGJHPAHPAPAVValue@2@@Z="C:\Windows\SysWOW64\dui70".?Create@VerticalFlowLayout@DirectUI@@SGJHPAHPAPAVValue@2@@Z
  ?Create@VerticalFlowLayout@DirectUI@@SGJ_NIIIPAPAVLayout@2@@Z="C:\Windows\SysWOW64\dui70".?Create@VerticalFlowLayout@DirectUI@@SGJ_NIIIPAPAVLayout@2@@Z
  ?Create@Viewer@DirectUI@@SGJPAVElement@2@PAKPAPAV32@@Z="C:\Windows\SysWOW64\dui70".?Create@Viewer@DirectUI@@SGJPAVElement@2@PAKPAPAV32@@Z
  ?Create@XBaby@DirectUI@@SGJPAVElement@2@PAKPAPAV32@@Z="C:\Windows\SysWOW64\dui70".?Create@XBaby@DirectUI@@SGJPAVElement@2@PAKPAPAV32@@Z
  ?Create@XBaby@DirectUI@@SGJPAVIXElementCP@2@PAVXProvider@2@PAUHWND__@@PAVElement@2@PAKPAPAV62@@Z="C:\Windows\SysWOW64\dui70".?Create@XBaby@DirectUI@@SGJPAVIXElementCP@2@PAVXProvider@2@PAUHWND__@@PAVElement@2@PAKPAPAV62@@Z
  ?Create@XElement@DirectUI@@SGJIPAVElement@2@PAKPAPAV32@@Z="C:\Windows\SysWOW64\dui70".?Create@XElement@DirectUI@@SGJIPAVElement@2@PAKPAPAV32@@Z
  ?Create@XElement@DirectUI@@SGJPAVElement@2@PAKPAPAV32@@Z="C:\Windows\SysWOW64\dui70".?Create@XElement@DirectUI@@SGJPAVElement@2@PAKPAPAV32@@Z
  ?Create@XHost@DirectUI@@SGJPAVIXElementCP@2@PAPAV12@@Z="C:\Windows\SysWOW64\dui70".?Create@XHost@DirectUI@@SGJPAVIXElementCP@2@PAPAV12@@Z
  ?Create@XProvider@DirectUI@@SGJPAVElement@2@PAVIXProviderCP@2@PAPAV12@@Z="C:\Windows\SysWOW64\dui70".?Create@XProvider@DirectUI@@SGJPAVElement@2@PAVIXProviderCP@2@PAPAV12@@Z
  ?Create@XResourceProvider@DirectUI@@SGJPAPAV12@@Z="C:\Windows\SysWOW64\dui70".?Create@XResourceProvider@DirectUI@@SGJPAPAV12@@Z
  ?Create@XResourceProvider@DirectUI@@SGJPAUHINSTANCE__@@PBG11PAPAV12@@Z="C:\Windows\SysWOW64\dui70".?Create@XResourceProvider@DirectUI@@SGJPAUHINSTANCE__@@PBG11PAPAV12@@Z
  ?CreateAccNameLabel@HWNDHost@DirectUI@@IAEPAUHWND__@@PAU3@@Z="C:\Windows\SysWOW64\dui70".?CreateAccNameLabel@HWNDHost@DirectUI@@IAEPAUHWND__@@PAU3@@Z
  ?CreateAtom@Value@DirectUI@@SGPAV12@G@Z="C:\Windows\SysWOW64\dui70".?CreateAtom@Value@DirectUI@@SGPAV12@G@Z
  ?CreateAtom@Value@DirectUI@@SGPAV12@PBG@Z="C:\Windows\SysWOW64\dui70".?CreateAtom@Value@DirectUI@@SGPAV12@PBG@Z
  ?CreateBool@Value@DirectUI@@SGPAV12@_N@Z="C:\Windows\SysWOW64\dui70".?CreateBool@Value@DirectUI@@SGPAV12@_N@Z
  ?CreateButtons@ScrollBar@DirectUI@@MAEJXZ="C:\Windows\SysWOW64\dui70".?CreateButtons@ScrollBar@DirectUI@@MAEJXZ
  ?CreateButtons@TouchScrollBar@DirectUI@@UAEJXZ="C:\Windows\SysWOW64\dui70".?CreateButtons@TouchScrollBar@DirectUI@@UAEJXZ
  ?CreateCache@RichText@DirectUI@@SGJIPAPAUIDUIRichTextCache@@@Z="C:\Windows\SysWOW64\dui70".?CreateCache@RichText@DirectUI@@SGJIPAPAUIDUIRichTextCache@@@Z
  ?CreateColor@Value@DirectUI@@SGPAV12@K@Z="C:\Windows\SysWOW64\dui70".?CreateColor@Value@DirectUI@@SGPAV12@K@Z
  ?CreateColor@Value@DirectUI@@SGPAV12@KKE@Z="C:\Windows\SysWOW64\dui70".?CreateColor@Value@DirectUI@@SGPAV12@KKE@Z
  ?CreateColor@Value@DirectUI@@SGPAV12@KKKE@Z="C:\Windows\SysWOW64\dui70".?CreateColor@Value@DirectUI@@SGPAV12@KKKE@Z
  ?CreateCursor@Value@DirectUI@@SGPAV12@PAUHICON__@@@Z="C:\Windows\SysWOW64\dui70".?CreateCursor@Value@DirectUI@@SGPAV12@PAUHICON__@@@Z
  ?CreateCursor@Value@DirectUI@@SGPAV12@PBG@Z="C:\Windows\SysWOW64\dui70".?CreateCursor@Value@DirectUI@@SGPAV12@PBG@Z
  ?CreateDFCFill@Value@DirectUI@@SGPAV12@II@Z="C:\Windows\SysWOW64\dui70".?CreateDFCFill@Value@DirectUI@@SGPAV12@II@Z
  ?CreateDTBFill@Value@DirectUI@@SGPAV12@PBGHH@Z="C:\Windows\SysWOW64\dui70".?CreateDTBFill@Value@DirectUI@@SGPAV12@PBGHH@Z
  ?CreateDUI@XProvider@DirectUI@@UAGJPAVIXElementCP@2@PAPAUHWND__@@@Z="C:\Windows\SysWOW64\dui70".?CreateDUI@XProvider@DirectUI@@UAGJPAVIXElementCP@2@PAPAUHWND__@@@Z
  ?CreateDUICP@TaskPage@DirectUI@@EAEJPAVHWNDElement@2@PAUHWND__@@1PAPAVElement@2@PAPAVDUIXmlParser@2@@Z="C:\Windows\SysWOW64\dui70".?CreateDUICP@TaskPage@DirectUI@@EAEJPAVHWNDElement@2@PAUHWND__@@1PAPAVElement@2@PAPAVDUIXmlParser@2@@Z
  ?CreateDUICP@XResourceProvider@DirectUI@@UAEJPAVHWNDElement@2@PAUHWND__@@1PAPAVElement@2@PAPAVDUIXmlParser@2@@Z="C:\Windows\SysWOW64\dui70".?CreateDUICP@XResourceProvider@DirectUI@@UAEJPAVHWNDElement@2@PAUHWND__@@1PAPAVElement@2@PAPAVDUIXmlParser@2@@Z
  ?CreateDoubleList@Value@DirectUI@@SGPAV12@PAV?$DynamicArray@N$0A@@2@@Z="C:\Windows\SysWOW64\dui70".?CreateDoubleList@Value@DirectUI@@SGPAV12@PAV?$DynamicArray@N$0A@@2@@Z
  ?CreateDoubleList@Value@DirectUI@@SGPAV12@PBNH@Z="C:\Windows\SysWOW64\dui70".?CreateDoubleList@Value@DirectUI@@SGPAV12@PBNH@Z
  ?CreateElement@DUIXmlParser@DirectUI@@QAEJPBGPAVElement@2@1PAKPAPAV32@@Z="C:\Windows\SysWOW64\dui70".?CreateElement@DUIXmlParser@DirectUI@@QAEJPBGPAVElement@2@1PAKPAPAV32@@Z
  ?CreateElementList@Value@DirectUI@@SGPAV12@PAV?$DynamicArray@PAVElement@DirectUI@@$0A@@2@@Z="C:\Windows\SysWOW64\dui70".?CreateElementList@Value@DirectUI@@SGPAV12@PAV?$DynamicArray@PAVElement@DirectUI@@$0A@@2@@Z
  ?CreateElementRef@Value@DirectUI@@SGPAV12@PAVElement@2@@Z="C:\Windows\SysWOW64\dui70".?CreateElementRef@Value@DirectUI@@SGPAV12@PAVElement@2@@Z
  ?CreateElementScaledValue@Value@DirectUI@@SGPAV12@PAVElement@2@PAV12@@Z="C:\Windows\SysWOW64\dui70".?CreateElementScaledValue@Value@DirectUI@@SGPAV12@PAVElement@2@PAV12@@Z
  ?CreateEncodedString@Value@DirectUI@@SGPAV12@PBG@Z="C:\Windows\SysWOW64\dui70".?CreateEncodedString@Value@DirectUI@@SGPAV12@PBG@Z
  ?CreateExpression@Value@DirectUI@@SGPAV12@PAVExpression@2@@Z="C:\Windows\SysWOW64\dui70".?CreateExpression@Value@DirectUI@@SGPAV12@PAVExpression@2@@Z
  ?CreateFill@Value@DirectUI@@SGPAV12@ABUFill@2@@Z="C:\Windows\SysWOW64\dui70".?CreateFill@Value@DirectUI@@SGPAV12@ABUFill@2@@Z
  ?CreateFloat@Value@DirectUI@@SGPAV12@MW4DynamicScaleValue@@@Z="C:\Windows\SysWOW64\dui70".?CreateFloat@Value@DirectUI@@SGPAV12@MW4DynamicScaleValue@@@Z
  ?CreateGraphic@Value@DirectUI@@SGPAV12@PAUHBITMAP__@@EI_N11@Z="C:\Windows\SysWOW64\dui70".?CreateGraphic@Value@DirectUI@@SGPAV12@PAUHBITMAP__@@EI_N11@Z
  ?CreateGraphic@Value@DirectUI@@SGPAV12@PAUHENHMETAFILE__@@0@Z="C:\Windows\SysWOW64\dui70".?CreateGraphic@Value@DirectUI@@SGPAV12@PAUHENHMETAFILE__@@0@Z
  ?CreateGraphic@Value@DirectUI@@SGPAV12@PAUHICON__@@_N11@Z="C:\Windows\SysWOW64\dui70".?CreateGraphic@Value@DirectUI@@SGPAV12@PAUHICON__@@_N11@Z
  ?CreateGraphic@Value@DirectUI@@SGPAV12@PAUISharedBitmap@@EI@Z="C:\Windows\SysWOW64\dui70".?CreateGraphic@Value@DirectUI@@SGPAV12@PAUISharedBitmap@@EI@Z
  ?CreateGraphic@Value@DirectUI@@SGPAV12@PBGEIGGPAUHINSTANCE__@@_N2@Z="C:\Windows\SysWOW64\dui70".?CreateGraphic@Value@DirectUI@@SGPAV12@PBGEIGGPAUHINSTANCE__@@_N2@Z
  ?CreateGraphic@Value@DirectUI@@SGPAV12@PBGGGPAUHINSTANCE__@@_N2@Z="C:\Windows\SysWOW64\dui70".?CreateGraphic@Value@DirectUI@@SGPAV12@PBGGGPAUHINSTANCE__@@_N2@Z
  ?CreateGraphic@Value@DirectUI@@SGPAV12@PBGUScaledSIZE@2@PAUHINSTANCE__@@_N3@Z="C:\Windows\SysWOW64\dui70".?CreateGraphic@Value@DirectUI@@SGPAV12@PBGUScaledSIZE@2@PAUHINSTANCE__@@_N3@Z
  ?CreateHWND@CCBase@DirectUI@@UAEPAUHWND__@@PAU3@@Z="C:\Windows\SysWOW64\dui70".?CreateHWND@CCBase@DirectUI@@UAEPAUHWND__@@PAU3@@Z
  ?CreateHWND@CCBaseScrollBar@DirectUI@@UAEPAUHWND__@@PAU3@@Z="C:\Windows\SysWOW64\dui70".?CreateHWND@CCBaseScrollBar@DirectUI@@UAEPAUHWND__@@PAU3@@Z
  ?CreateHWND@Combobox@DirectUI@@UAEPAUHWND__@@PAU3@@Z="C:\Windows\SysWOW64\dui70".?CreateHWND@Combobox@DirectUI@@UAEPAUHWND__@@PAU3@@Z
  ?CreateHWND@Edit@DirectUI@@MAEPAUHWND__@@PAU3@@Z="C:\Windows\SysWOW64\dui70".?CreateHWND@Edit@DirectUI@@MAEPAUHWND__@@PAU3@@Z
  ?CreateHWND@Edit@DirectUI@@MAEPAUHWND__@@PAU3@_N@Z="C:\Windows\SysWOW64\dui70".?CreateHWND@Edit@DirectUI@@MAEPAUHWND__@@PAU3@_N@Z
  ?CreateHWND@HWNDHost@DirectUI@@MAEPAUHWND__@@PAU3@@Z="C:\Windows\SysWOW64\dui70".?CreateHWND@HWNDHost@DirectUI@@MAEPAUHWND__@@PAU3@@Z
  ?CreateHWND@XElement@DirectUI@@UAEPAUHWND__@@PAU3@@Z="C:\Windows\SysWOW64\dui70".?CreateHWND@XElement@DirectUI@@UAEPAUHWND__@@PAU3@@Z
  ?CreateHostWindow@NativeHWNDHost@DirectUI@@UAEPAUHWND__@@KPBG0KHHHHPAU3@PAUHMENU__@@PAUHINSTANCE__@@PAX@Z="C:\Windows\SysWOW64\dui70".?CreateHostWindow@NativeHWNDHost@DirectUI@@UAEPAUHWND__@@KPBG0KHHHHPAU3@PAUHMENU__@@PAUHINSTANCE__@@PAX@Z
  ?CreateIconGraphicHelper@Value@DirectUI@@CGPAV12@PAUHICON__@@_N11@Z="C:\Windows\SysWOW64\dui70".?CreateIconGraphicHelper@Value@DirectUI@@CGPAV12@PAUHICON__@@_N11@Z
  ?CreateInstance@CSafeElementProxy@@SGJPAVElement@DirectUI@@PAPAV1@@Z="C:\Windows\SysWOW64\dui70".?CreateInstance@CSafeElementProxy@@SGJPAVElement@DirectUI@@PAPAV1@@Z
  ?CreateInt@Value@DirectUI@@SGPAV12@HW4DynamicScaleValue@@@Z="C:\Windows\SysWOW64\dui70".?CreateInt@Value@DirectUI@@SGPAV12@HW4DynamicScaleValue@@@Z
  ?CreateLayout@DUIXmlParser@DirectUI@@IAEJPBUExprNode@ParserTools@2@P6GJHPAHPAPAVValue@2@@Z@Z="C:\Windows\SysWOW64\dui70".?CreateLayout@DUIXmlParser@DirectUI@@IAEJPBUExprNode@ParserTools@2@P6GJHPAHPAPAVValue@2@@Z@Z
  ?CreateLayout@Value@DirectUI@@SGPAV12@PAVLayout@2@@Z="C:\Windows\SysWOW64\dui70".?CreateLayout@Value@DirectUI@@SGPAV12@PAVLayout@2@@Z
  ?CreateParser@DUIFactory@DirectUI@@QAEJXZ="C:\Windows\SysWOW64\dui70".?CreateParser@DUIFactory@DirectUI@@QAEJXZ
  ?CreateParser@XProvider@DirectUI@@QAEJPAPAVDUIXmlParser@2@@Z="C:\Windows\SysWOW64\dui70".?CreateParser@XProvider@DirectUI@@QAEJPAPAVDUIXmlParser@2@@Z
  ?CreateParserCP@TaskPage@DirectUI@@EAEJPAPAVDUIXmlParser@2@@Z="C:\Windows\SysWOW64\dui70".?CreateParserCP@TaskPage@DirectUI@@EAEJPAPAVDUIXmlParser@2@@Z
  ?CreateParserCP@XResourceProvider@DirectUI@@UAEJPAPAVDUIXmlParser@2@@Z="C:\Windows\SysWOW64\dui70".?CreateParserCP@XResourceProvider@DirectUI@@UAEJPAPAVDUIXmlParser@2@@Z
  ?CreatePatternProvider@Schema@DirectUI@@SGJW4Pattern@12@PAVElementProvider@2@PAPAUIUnknown@@@Z="C:\Windows\SysWOW64\dui70".?CreatePatternProvider@Schema@DirectUI@@SGJW4Pattern@12@PAVElementProvider@2@PAPAUIUnknown@@@Z
  ?CreatePoint@Value@DirectUI@@SGPAV12@HHW4DynamicScaleValue@@@Z="C:\Windows\SysWOW64\dui70".?CreatePoint@Value@DirectUI@@SGPAV12@HHW4DynamicScaleValue@@@Z
  ?CreateRect@Value@DirectUI@@SGPAV12@HHHHW4DynamicScaleValue@@@Z="C:\Windows\SysWOW64\dui70".?CreateRect@Value@DirectUI@@SGPAV12@HHHHW4DynamicScaleValue@@@Z
  ?CreateScaledValue@Value@DirectUI@@SGPAV12@MPAV12@@Z="C:\Windows\SysWOW64\dui70".?CreateScaledValue@Value@DirectUI@@SGPAV12@MPAV12@@Z
  ?CreateScrollBars@ScrollViewer@DirectUI@@MAEJXZ="C:\Windows\SysWOW64\dui70".?CreateScrollBars@ScrollViewer@DirectUI@@MAEJXZ
  ?CreateScrollBars@StyledScrollViewer@DirectUI@@MAEJXZ="C:\Windows\SysWOW64\dui70".?CreateScrollBars@StyledScrollViewer@DirectUI@@MAEJXZ
  ?CreateSize@Value@DirectUI@@SGPAV12@HHW4DynamicScaleValue@@@Z="C:\Windows\SysWOW64\dui70".?CreateSize@Value@DirectUI@@SGPAV12@HHW4DynamicScaleValue@@@Z
  ?CreateString@Value@DirectUI@@SGPAV12@PBGPAUHINSTANCE__@@@Z="C:\Windows\SysWOW64\dui70".?CreateString@Value@DirectUI@@SGPAV12@PBGPAUHINSTANCE__@@@Z
  ?CreateStringRP@Value@DirectUI@@SGPAV12@PBGPAUHINSTANCE__@@@Z="C:\Windows\SysWOW64\dui70".?CreateStringRP@Value@DirectUI@@SGPAV12@PBGPAUHINSTANCE__@@@Z
  ?CreateStyleParser@HWNDElement@DirectUI@@UAEJPAPAVDUIXmlParser@2@@Z="C:\Windows\SysWOW64\dui70".?CreateStyleParser@HWNDElement@DirectUI@@UAEJPAPAVDUIXmlParser@2@@Z
  ?CreateStyleParser@XBaby@DirectUI@@UAEJPAPAVDUIXmlParser@2@@Z="C:\Windows\SysWOW64\dui70".?CreateStyleParser@XBaby@DirectUI@@UAEJPAPAVDUIXmlParser@2@@Z
  ?CreateStyleSheet@DUIXmlParser@DirectUI@@IAEJPAUIXmlReader@@PBGPAPAVStyleSheet@2@@Z="C:\Windows\SysWOW64\dui70".?CreateStyleSheet@DUIXmlParser@DirectUI@@IAEJPAUIXmlReader@@PBGPAPAVStyleSheet@2@@Z
  ?CreateStyleSheet@Value@DirectUI@@SGPAV12@PAVStyleSheet@2@@Z="C:\Windows\SysWOW64\dui70".?CreateStyleSheet@Value@DirectUI@@SGPAV12@PAVStyleSheet@2@@Z
  ?CreateValueList@Value@DirectUI@@SGPAV12@PAV12@@Z="C:\Windows\SysWOW64\dui70".?CreateValueList@Value@DirectUI@@SGPAV12@PAV12@@Z
  ?CreateValueList@Value@DirectUI@@SGPAV12@PAV?$DynamicArray@PAVValue@DirectUI@@$0A@@2@@Z="C:\Windows\SysWOW64\dui70".?CreateValueList@Value@DirectUI@@SGPAV12@PAV?$DynamicArray@PAVValue@DirectUI@@$0A@@2@@Z
  ?CreateXBaby@XProvider@DirectUI@@UAEJPAVIXElementCP@2@PAUHWND__@@PAVElement@2@PAKPAPAUIXBaby@2@@Z="C:\Windows\SysWOW64\dui70".?CreateXBaby@XProvider@DirectUI@@UAEJPAVIXElementCP@2@PAUHWND__@@PAVElement@2@PAKPAPAUIXBaby@2@@Z
  ?CreateXmlReader@DUIXmlParser@DirectUI@@IAEJPAPAUIXmlReader@@@Z="C:\Windows\SysWOW64\dui70".?CreateXmlReader@DUIXmlParser@DirectUI@@IAEJPAPAUIXmlReader@@@Z
  ?CreateXmlReaderFromHGLOBAL@DUIXmlParser@DirectUI@@IAEJPAXPAPAUIXmlReader@@@Z="C:\Windows\SysWOW64\dui70".?CreateXmlReaderFromHGLOBAL@DUIXmlParser@DirectUI@@IAEJPAXPAPAUIXmlReader@@@Z
  ?CreateXmlReaderInputWithEncodingName@DUIXmlParser@DirectUI@@IAEJPAUIStream@@PBGPAPAUIUnknown@@@Z="C:\Windows\SysWOW64\dui70".?CreateXmlReaderInputWithEncodingName@DUIXmlParser@DirectUI@@IAEJPAUIStream@@PBGPAPAUIUnknown@@@Z
  ?CtrlSubclassProc@HWNDHost@DirectUI@@KGJPAUHWND__@@IIJ@Z="C:\Windows\SysWOW64\dui70".?CtrlSubclassProc@HWNDHost@DirectUI@@KGJPAUHWND__@@IIJ@Z
  ?CultureProperty@Schema@DirectUI@@2HA="C:\Windows\SysWOW64\dui70".?CultureProperty@Schema@DirectUI@@2HA
  ?CursorProp@Element@DirectUI@@SGPBUPropertyInfo@2@XZ="C:\Windows\SysWOW64\dui70".?CursorProp@Element@DirectUI@@SGPBUPropertyInfo@2@XZ
  ?CustomControlType@Schema@DirectUI@@2HA="C:\Windows\SysWOW64\dui70".?CustomControlType@Schema@DirectUI@@2HA
  ?CustomDragDropScalingHint@PVLAnimation@DirectUI@@SG?AVUID@@XZ="C:\Windows\SysWOW64\dui70".?CustomDragDropScalingHint@PVLAnimation@DirectUI@@SG?AVUID@@XZ
  ?CustomProp@Element@DirectUI@@SGPBUPropertyInfo@2@XZ="C:\Windows\SysWOW64\dui70".?CustomProp@Element@DirectUI@@SGPBUPropertyInfo@2@XZ
  ?CustomReflowHint@PVLAnimation@DirectUI@@SG?AVUID@@XZ="C:\Windows\SysWOW64\dui70".?CustomReflowHint@PVLAnimation@DirectUI@@SG?AVUID@@XZ
  ?CustomTapHint@PVLAnimation@DirectUI@@SG?AVUID@@XZ="C:\Windows\SysWOW64\dui70".?CustomTapHint@PVLAnimation@DirectUI@@SG?AVUID@@XZ
  ?Cut@TouchEditBase@DirectUI@@SG?AVUID@@XZ="C:\Windows\SysWOW64\dui70".?Cut@TouchEditBase@DirectUI@@SG?AVUID@@XZ
  ?DCompDeviceRebuilt@Element@DirectUI@@SG?AVUID@@XZ="C:\Windows\SysWOW64\dui70".?DCompDeviceRebuilt@Element@DirectUI@@SG?AVUID@@XZ
  ?DPIProp@Element@DirectUI@@SGPBUPropertyInfo@2@XZ="C:\Windows\SysWOW64\dui70".?DPIProp@Element@DirectUI@@SGPBUPropertyInfo@2@XZ
  ?DUICreatePropertySheetPage@TaskPage@DirectUI@@QAEJPAUHINSTANCE__@@@Z="C:\Windows\SysWOW64\dui70".?DUICreatePropertySheetPage@TaskPage@DirectUI@@QAEJPAUHINSTANCE__@@@Z
  ?DataGridControlType@Schema@DirectUI@@2HA="C:\Windows\SysWOW64\dui70".?DataGridControlType@Schema@DirectUI@@2HA
  ?DataItemControlType@Schema@DirectUI@@2HA="C:\Windows\SysWOW64\dui70".?DataItemControlType@Schema@DirectUI@@2HA
  ?DefaultAction@Button@DirectUI@@UAEJXZ="C:\Windows\SysWOW64\dui70".?DefaultAction@Button@DirectUI@@UAEJXZ
  ?DefaultAction@CCBase@DirectUI@@UAEJXZ="C:\Windows\SysWOW64\dui70".?DefaultAction@CCBase@DirectUI@@UAEJXZ
  ?DefaultAction@CCPushButton@DirectUI@@UAEJXZ="C:\Windows\SysWOW64\dui70".?DefaultAction@CCPushButton@DirectUI@@UAEJXZ
  ?DefaultAction@Element@DirectUI@@UAEJXZ="C:\Windows\SysWOW64\dui70".?DefaultAction@Element@DirectUI@@UAEJXZ
  ?DefaultAction@SemanticZoomToggle@DirectUI@@UAEJXZ="C:\Windows\SysWOW64\dui70".?DefaultAction@SemanticZoomToggle@DirectUI@@UAEJXZ
  ?DefaultAction@TouchButton@DirectUI@@UAEJXZ="C:\Windows\SysWOW64\dui70".?DefaultAction@TouchButton@DirectUI@@UAEJXZ
  ?DefaultAction@TouchRepeatButton@DirectUI@@UAEJXZ="C:\Windows\SysWOW64\dui70".?DefaultAction@TouchRepeatButton@DirectUI@@UAEJXZ
  ?DefaultButtonTrackingProp@DialogElement@DirectUI@@SGPBUPropertyInfo@2@XZ="C:\Windows\SysWOW64\dui70".?DefaultButtonTrackingProp@DialogElement@DirectUI@@SGPBUPropertyInfo@2@XZ
  ?DelayActivateTooltip@HWNDElement@DirectUI@@QAEXXZ="C:\Windows\SysWOW64\dui70".?DelayActivateTooltip@HWNDElement@DirectUI@@QAEXXZ
  ?DeleteString@CCListBox@DirectUI@@QAEHH@Z="C:\Windows\SysWOW64\dui70".?DeleteString@CCListBox@DirectUI@@QAEHH@Z
  ?DesiredSizeProp@Element@DirectUI@@SGPBUPropertyInfo@2@XZ="C:\Windows\SysWOW64\dui70".?DesiredSizeProp@Element@DirectUI@@SGPBUPropertyInfo@2@XZ
  ?Destroy@ClassInfoBase@DirectUI@@UAEXXZ="C:\Windows\SysWOW64\dui70".?Destroy@ClassInfoBase@DirectUI@@UAEXXZ
  ?Destroy@DUIXmlParser@DirectUI@@QAEXXZ="C:\Windows\SysWOW64\dui70".?Destroy@DUIXmlParser@DirectUI@@QAEXXZ
  ?Destroy@Element@DirectUI@@QAEJ_N@Z="C:\Windows\SysWOW64\dui70".?Destroy@Element@DirectUI@@QAEJ_N@Z
  ?Destroy@Expression@DirectUI@@QAEXXZ="C:\Windows\SysWOW64\dui70".?Destroy@Expression@DirectUI@@QAEXXZ
  ?Destroy@Layout@DirectUI@@QAEXXZ="C:\Windows\SysWOW64\dui70".?Destroy@Layout@DirectUI@@QAEXXZ
  ?Destroy@NativeHWNDHost@DirectUI@@QAEXXZ="C:\Windows\SysWOW64\dui70".?Destroy@NativeHWNDHost@DirectUI@@QAEXXZ
  ?Destroy@XHost@DirectUI@@QAEXXZ="C:\Windows\SysWOW64\dui70".?Destroy@XHost@DirectUI@@QAEXXZ
  ?DestroyAll@Element@DirectUI@@QAEJ_N@Z="C:\Windows\SysWOW64\dui70".?DestroyAll@Element@DirectUI@@QAEJ_N@Z
  ?DestroyCP@TaskPage@DirectUI@@EAEXXZ="C:\Windows\SysWOW64\dui70".?DestroyCP@TaskPage@DirectUI@@EAEXXZ
  ?DestroyCP@XResourceProvider@DirectUI@@UAEXXZ="C:\Windows\SysWOW64\dui70".?DestroyCP@XResourceProvider@DirectUI@@UAEXXZ
  ?DestroyListener@EventManager@DirectUI@@SGXPAVElement@2@@Z="C:\Windows\SysWOW64\dui70".?DestroyListener@EventManager@DirectUI@@SGXPAVElement@2@@Z
  ?DestroyMsg@NativeHWNDHost@DirectUI@@SGIXZ="C:\Windows\SysWOW64\dui70".?DestroyMsg@NativeHWNDHost@DirectUI@@SGIXZ
  ?DestroyWindow@NativeHWNDHost@DirectUI@@QAEXXZ="C:\Windows\SysWOW64\dui70".?DestroyWindow@NativeHWNDHost@DirectUI@@QAEXXZ
  ?DestroyWindow@XHost@DirectUI@@QAEXXZ="C:\Windows\SysWOW64\dui70".?DestroyWindow@XHost@DirectUI@@QAEXXZ
  ?Detach@CSafeElementProxy@@QAEXXZ="C:\Windows\SysWOW64\dui70".?Detach@CSafeElementProxy@@QAEXXZ
  ?Detach@Element@DirectUI@@QAEXPAVDeferCycle@2@@Z="C:\Windows\SysWOW64\dui70".?Detach@Element@DirectUI@@QAEXPAVDeferCycle@2@@Z
  ?Detach@HWNDHost@DirectUI@@QAEXXZ="C:\Windows\SysWOW64\dui70".?Detach@HWNDHost@DirectUI@@QAEXXZ
  ?Detach@Layout@DirectUI@@UAEXPAVElement@2@@Z="C:\Windows\SysWOW64\dui70".?Detach@Layout@DirectUI@@UAEXPAVElement@2@@Z
  ?DetachParser@DUIFactory@DirectUI@@QAEPAVDUIXmlParser@2@XZ="C:\Windows\SysWOW64\dui70".?DetachParser@DUIFactory@DirectUI@@QAEPAVDUIXmlParser@2@XZ
  ?DeterminateProp@ModernProgressBar@DirectUI@@SGPBUPropertyInfo@2@XZ="C:\Windows\SysWOW64\dui70".?DeterminateProp@ModernProgressBar@DirectUI@@SGPBUPropertyInfo@2@XZ
  ?DirectionProp@Element@DirectUI@@SGPBUPropertyInfo@2@XZ="C:\Windows\SysWOW64\dui70".?DirectionProp@Element@DirectUI@@SGPBUPropertyInfo@2@XZ
  ?DirtyProp@Edit@DirectUI@@SGPBUPropertyInfo@2@XZ="C:\Windows\SysWOW64\dui70".?DirtyProp@Edit@DirectUI@@SGPBUPropertyInfo@2@XZ
  ?DisableAccTextExtendProp@RichText@DirectUI@@SGPBUPropertyInfo@2@XZ="C:\Windows\SysWOW64\dui70".?DisableAccTextExtendProp@RichText@DirectUI@@SGPBUPropertyInfo@2@XZ
  ?DisableMouseInRectCheckProp@TouchRepeatButton@DirectUI@@SGPBUPropertyInfo@2@XZ="C:\Windows\SysWOW64\dui70".?DisableMouseInRectCheckProp@TouchRepeatButton@DirectUI@@SGPBUPropertyInfo@2@XZ
  ?DisableSelectionHandlesOnEmptyContent@TouchEdit2@DirectUI@@QAEXXZ="C:\Windows\SysWOW64\dui70".?DisableSelectionHandlesOnEmptyContent@TouchEdit2@DirectUI@@QAEXXZ
  ?Disconnect@DuiAccessible@DirectUI@@UAEJXZ="C:\Windows\SysWOW64\dui70".?Disconnect@DuiAccessible@DirectUI@@UAEJXZ
  ?Disconnect@HWNDElementAccessible@DirectUI@@UAEJXZ="C:\Windows\SysWOW64\dui70".?Disconnect@HWNDElementAccessible@DirectUI@@UAEJXZ
  ?Disconnect@HWNDHostAccessible@DirectUI@@UAEJXZ="C:\Windows\SysWOW64\dui70".?Disconnect@HWNDHostAccessible@DirectUI@@UAEJXZ
  ?DismissIHMAsync@TouchHWNDElement@DirectUI@@QAEJXZ="C:\Windows\SysWOW64\dui70".?DismissIHMAsync@TouchHWNDElement@DirectUI@@QAEJXZ
  ?DllsLoaded@CallstackTracker@DirectUI@@CGHXZ="C:\Windows\SysWOW64\dui70".?DllsLoaded@CallstackTracker@DirectUI@@CGHXZ
  ?DoInvoke@?$PatternProvider@VExpandCollapseProvider@DirectUI@@UIExpandCollapseProvider@@$00@DirectUI@@IAAJHZZ="C:\Windows\SysWOW64\dui70".?DoInvoke@?$PatternProvider@VExpandCollapseProvider@DirectUI@@UIExpandCollapseProvider@@$00@DirectUI@@IAAJHZZ
  ?DoInvoke@?$PatternProvider@VGridItemProvider@DirectUI@@UIGridItemProvider@@$01@DirectUI@@IAAJHZZ="C:\Windows\SysWOW64\dui70".?DoInvoke@?$PatternProvider@VGridItemProvider@DirectUI@@UIGridItemProvider@@$01@DirectUI@@IAAJHZZ
  ?DoInvoke@?$PatternProvider@VGridProvider@DirectUI@@UIGridProvider@@$02@DirectUI@@IAAJHZZ="C:\Windows\SysWOW64\dui70".?DoInvoke@?$PatternProvider@VGridProvider@DirectUI@@UIGridProvider@@$02@DirectUI@@IAAJHZZ
  ?DoInvoke@?$PatternProvider@VInvokeProvider@DirectUI@@UIInvokeProvider@@$0A@@DirectUI@@IAAJHZZ="C:\Windows\SysWOW64\dui70".?DoInvoke@?$PatternProvider@VInvokeProvider@DirectUI@@UIInvokeProvider@@$0A@@DirectUI@@IAAJHZZ
  ?DoInvoke@?$PatternProvider@VRangeValueProvider@DirectUI@@UIRangeValueProvider@@$03@DirectUI@@IAAJHZZ="C:\Windows\SysWOW64\dui70".?DoInvoke@?$PatternProvider@VRangeValueProvider@DirectUI@@UIRangeValueProvider@@$03@DirectUI@@IAAJHZZ
  ?DoInvoke@?$PatternProvider@VScrollItemProvider@DirectUI@@UIScrollItemProvider@@$05@DirectUI@@IAAJHZZ="C:\Windows\SysWOW64\dui70".?DoInvoke@?$PatternProvider@VScrollItemProvider@DirectUI@@UIScrollItemProvider@@$05@DirectUI@@IAAJHZZ
  ?DoInvoke@?$PatternProvider@VScrollProvider@DirectUI@@UIScrollProvider@@$04@DirectUI@@IAAJHZZ="C:\Windows\SysWOW64\dui70".?DoInvoke@?$PatternProvider@VScrollProvider@DirectUI@@UIScrollProvider@@$04@DirectUI@@IAAJHZZ
  ?DoInvoke@?$PatternProvider@VSelectionItemProvider@DirectUI@@UISelectionItemProvider@@$06@DirectUI@@IAAJHZZ="C:\Windows\SysWOW64\dui70".?DoInvoke@?$PatternProvider@VSelectionItemProvider@DirectUI@@UISelectionItemProvider@@$06@DirectUI@@IAAJHZZ
  ?DoInvoke@?$PatternProvider@VSelectionProvider@DirectUI@@UISelectionProvider@@$07@DirectUI@@IAAJHZZ="C:\Windows\SysWOW64\dui70".?DoInvoke@?$PatternProvider@VSelectionProvider@DirectUI@@UISelectionProvider@@$07@DirectUI@@IAAJHZZ
  ?DoInvoke@?$PatternProvider@VTableItemProvider@DirectUI@@UITableItemProvider@@$09@DirectUI@@IAAJHZZ="C:\Windows\SysWOW64\dui70".?DoInvoke@?$PatternProvider@VTableItemProvider@DirectUI@@UITableItemProvider@@$09@DirectUI@@IAAJHZZ
  ?DoInvoke@?$PatternProvider@VTableProvider@DirectUI@@UITableProvider@@$08@DirectUI@@IAAJHZZ="C:\Windows\SysWOW64\dui70".?DoInvoke@?$PatternProvider@VTableProvider@DirectUI@@UITableProvider@@$08@DirectUI@@IAAJHZZ
  ?DoInvoke@?$PatternProvider@VToggleProvider@DirectUI@@UIToggleProvider@@$0L@@DirectUI@@IAAJHZZ="C:\Windows\SysWOW64\dui70".?DoInvoke@?$PatternProvider@VToggleProvider@DirectUI@@UIToggleProvider@@$0L@@DirectUI@@IAAJHZZ
  ?DoInvoke@?$PatternProvider@VValueProvider@DirectUI@@UIValueProvider@@$0M@@DirectUI@@IAAJHZZ="C:\Windows\SysWOW64\dui70".?DoInvoke@?$PatternProvider@VValueProvider@DirectUI@@UIValueProvider@@$0M@@DirectUI@@IAAJHZZ
  ?DoInvoke@ElementProvider@DirectUI@@IAAJHZZ="C:\Windows\SysWOW64\dui70".?DoInvoke@ElementProvider@DirectUI@@IAAJHZZ
  ?DoInvoke@InvokeHelper@DirectUI@@QAEJHPAVElementProvider@2@P6GPAVProviderProxy@2@PAVElement@2@@ZPAD@Z="C:\Windows\SysWOW64\dui70".?DoInvoke@InvokeHelper@DirectUI@@QAEJHPAVElementProvider@2@P6GPAVProviderProxy@2@PAVElement@2@@ZPAD@Z
  ?DoInvokeArgs@ElementProvider@DirectUI@@QAEJHP6GPAVProviderProxy@2@PAVElement@2@@ZPAD@Z="C:\Windows\SysWOW64\dui70".?DoInvokeArgs@ElementProvider@DirectUI@@QAEJHP6GPAVProviderProxy@2@PAVElement@2@@ZPAD@Z
  ?DoLayout@BorderLayout@DirectUI@@UAEXPAVElement@2@HH@Z="C:\Windows\SysWOW64\dui70".?DoLayout@BorderLayout@DirectUI@@UAEXPAVElement@2@HH@Z
  ?DoLayout@FillLayout@DirectUI@@UAEXPAVElement@2@HH@Z="C:\Windows\SysWOW64\dui70".?DoLayout@FillLayout@DirectUI@@UAEXPAVElement@2@HH@Z
  ?DoLayout@FlowLayout@DirectUI@@UAEXPAVElement@2@HH@Z="C:\Windows\SysWOW64\dui70".?DoLayout@FlowLayout@DirectUI@@UAEXPAVElement@2@HH@Z
  ?DoLayout@GridLayout@DirectUI@@UAEXPAVElement@2@HH@Z="C:\Windows\SysWOW64\dui70".?DoLayout@GridLayout@DirectUI@@UAEXPAVElement@2@HH@Z
  ?DoLayout@Layout@DirectUI@@UAEXPAVElement@2@HH@Z="C:\Windows\SysWOW64\dui70".?DoLayout@Layout@DirectUI@@UAEXPAVElement@2@HH@Z
  ?DoLayout@NineGridLayout@DirectUI@@UAEXPAVElement@2@HH@Z="C:\Windows\SysWOW64\dui70".?DoLayout@NineGridLayout@DirectUI@@UAEXPAVElement@2@HH@Z
  ?DoLayout@RowLayout@DirectUI@@UAEXPAVElement@2@HH@Z="C:\Windows\SysWOW64\dui70".?DoLayout@RowLayout@DirectUI@@UAEXPAVElement@2@HH@Z
  ?DoLayout@TableLayout@DirectUI@@UAEXPAVElement@2@HH@Z="C:\Windows\SysWOW64\dui70".?DoLayout@TableLayout@DirectUI@@UAEXPAVElement@2@HH@Z
  ?DoLayout@VerticalFlowLayout@DirectUI@@UAEXPAVElement@2@HH@Z="C:\Windows\SysWOW64\dui70".?DoLayout@VerticalFlowLayout@DirectUI@@UAEXPAVElement@2@HH@Z
  ?DoMethod@BrowserSelectionProxy@DirectUI@@UAEJHPAD@Z="C:\Windows\SysWOW64\dui70".?DoMethod@BrowserSelectionProxy@DirectUI@@UAEJHPAD@Z
  ?DoMethod@ElementProxy@DirectUI@@UAEJHPAD@Z="C:\Windows\SysWOW64\dui70".?DoMethod@ElementProxy@DirectUI@@UAEJHPAD@Z
  ?DoMethod@ExpandCollapseProxy@DirectUI@@UAEJHPAD@Z="C:\Windows\SysWOW64\dui70".?DoMethod@ExpandCollapseProxy@DirectUI@@UAEJHPAD@Z
  ?DoMethod@GridItemProxy@DirectUI@@UAEJHPAD@Z="C:\Windows\SysWOW64\dui70".?DoMethod@GridItemProxy@DirectUI@@UAEJHPAD@Z
  ?DoMethod@GridProxy@DirectUI@@UAEJHPAD@Z="C:\Windows\SysWOW64\dui70".?DoMethod@GridProxy@DirectUI@@UAEJHPAD@Z
  ?DoMethod@HWNDElementProxy@DirectUI@@UAEJHPAD@Z="C:\Windows\SysWOW64\dui70".?DoMethod@HWNDElementProxy@DirectUI@@UAEJHPAD@Z
  ?DoMethod@InvokeProxy@DirectUI@@UAEJHPAD@Z="C:\Windows\SysWOW64\dui70".?DoMethod@InvokeProxy@DirectUI@@UAEJHPAD@Z
  ?DoMethod@ModernProgressBarRangeValueProxy@DirectUI@@UAEJHPAD@Z="C:\Windows\SysWOW64\dui70".?DoMethod@ModernProgressBarRangeValueProxy@DirectUI@@UAEJHPAD@Z
  ?DoMethod@NavigatorSelectionItemProxy@DirectUI@@UAEJHPAD@Z="C:\Windows\SysWOW64\dui70".?DoMethod@NavigatorSelectionItemProxy@DirectUI@@UAEJHPAD@Z
  ?DoMethod@ProgressRangeValueProxy@DirectUI@@UAEJHPAD@Z="C:\Windows\SysWOW64\dui70".?DoMethod@ProgressRangeValueProxy@DirectUI@@UAEJHPAD@Z
  ?DoMethod@RangeValueProxy@DirectUI@@UAEJHPAD@Z="C:\Windows\SysWOW64\dui70".?DoMethod@RangeValueProxy@DirectUI@@UAEJHPAD@Z
  ?DoMethod@ScrollBarRangeValueProxy@DirectUI@@UAEJHPAD@Z="C:\Windows\SysWOW64\dui70".?DoMethod@ScrollBarRangeValueProxy@DirectUI@@UAEJHPAD@Z
  ?DoMethod@ScrollItemProxy@DirectUI@@UAEJHPAD@Z="C:\Windows\SysWOW64\dui70".?DoMethod@ScrollItemProxy@DirectUI@@UAEJHPAD@Z
  ?DoMethod@ScrollProxy@DirectUI@@UAEJHPAD@Z="C:\Windows\SysWOW64\dui70".?DoMethod@ScrollProxy@DirectUI@@UAEJHPAD@Z
  ?DoMethod@SelectionItemProxy@DirectUI@@UAEJHPAD@Z="C:\Windows\SysWOW64\dui70".?DoMethod@SelectionItemProxy@DirectUI@@UAEJHPAD@Z
  ?DoMethod@SelectionProxy@DirectUI@@UAEJHPAD@Z="C:\Windows\SysWOW64\dui70".?DoMethod@SelectionProxy@DirectUI@@UAEJHPAD@Z
  ?DoMethod@SelectorSelectionItemProxy@DirectUI@@UAEJHPAD@Z="C:\Windows\SysWOW64\dui70".?DoMethod@SelectorSelectionItemProxy@DirectUI@@UAEJHPAD@Z
  ?DoMethod@SelectorSelectionProxy@DirectUI@@UAEJHPAD@Z="C:\Windows\SysWOW64\dui70".?DoMethod@SelectorSelectionProxy@DirectUI@@UAEJHPAD@Z
  ?DoMethod@TableItemProxy@DirectUI@@UAEJHPAD@Z="C:\Windows\SysWOW64\dui70".?DoMethod@TableItemProxy@DirectUI@@UAEJHPAD@Z
  ?DoMethod@TableProxy@DirectUI@@UAEJHPAD@Z="C:\Windows\SysWOW64\dui70".?DoMethod@TableProxy@DirectUI@@UAEJHPAD@Z
  ?DoMethod@ToggleProxy@DirectUI@@UAEJHPAD@Z="C:\Windows\SysWOW64\dui70".?DoMethod@ToggleProxy@DirectUI@@UAEJHPAD@Z
  ?DoMethod@ValueProxy@DirectUI@@UAEJHPAD@Z="C:\Windows\SysWOW64\dui70".?DoMethod@ValueProxy@DirectUI@@UAEJHPAD@Z
  ?DockPattern@Schema@DirectUI@@2HA="C:\Windows\SysWOW64\dui70".?DockPattern@Schema@DirectUI@@2HA
  ?DocumentControlType@Schema@DirectUI@@2HA="C:\Windows\SysWOW64\dui70".?DocumentControlType@Schema@DirectUI@@2HA
  ?DoubleBuffered@Element@DirectUI@@QAEX_N@Z="C:\Windows\SysWOW64\dui70".?DoubleBuffered@Element@DirectUI@@QAEX_N@Z
  ?Drag@Thumb@DirectUI@@SG?AVUID@@XZ="C:\Windows\SysWOW64\dui70".?Drag@Thumb@DirectUI@@SG?AVUID@@XZ
  ?DragDragCancelEvent@Schema@DirectUI@@2HA="C:\Windows\SysWOW64\dui70".?DragDragCancelEvent@Schema@DirectUI@@2HA
  ?DragDragCompleteEvent@Schema@DirectUI@@2HA="C:\Windows\SysWOW64\dui70".?DragDragCompleteEvent@Schema@DirectUI@@2HA
  ?DragDragStartEvent@Schema@DirectUI@@2HA="C:\Windows\SysWOW64\dui70".?DragDragStartEvent@Schema@DirectUI@@2HA
  ?DragPattern@Schema@DirectUI@@2HA="C:\Windows\SysWOW64\dui70".?DragPattern@Schema@DirectUI@@2HA
  ?Drag_DropEffect_Property@Schema@DirectUI@@2HA="C:\Windows\SysWOW64\dui70".?Drag_DropEffect_Property@Schema@DirectUI@@2HA
  ?Drag_DropEffects_Property@Schema@DirectUI@@2HA="C:\Windows\SysWOW64\dui70".?Drag_DropEffects_Property@Schema@DirectUI@@2HA
  ?Drag_IsGrabbed_Property@Schema@DirectUI@@2HA="C:\Windows\SysWOW64\dui70".?Drag_IsGrabbed_Property@Schema@DirectUI@@2HA
  ?DrawOutlinesProp@Movie@DirectUI@@SGPBUPropertyInfo@2@XZ="C:\Windows\SysWOW64\dui70".?DrawOutlinesProp@Movie@DirectUI@@SGPBUPropertyInfo@2@XZ
  ?DumpDuiProperties@@YGXPAVElement@DirectUI@@@Z="C:\Windows\SysWOW64\dui70".?DumpDuiProperties@@YGXPAVElement@DirectUI@@@Z
  ?DumpDuiTree@@YGXPAVElement@DirectUI@@H@Z="C:\Windows\SysWOW64\dui70".?DumpDuiTree@@YGXPAVElement@DirectUI@@H@Z
  ?EdgeHighlightColorProp@Element@DirectUI@@SGPBUPropertyInfo@2@XZ="C:\Windows\SysWOW64\dui70".?EdgeHighlightColorProp@Element@DirectUI@@SGPBUPropertyInfo@2@XZ
  ?EdgeHighlightThicknessProp@Element@DirectUI@@SGPBUPropertyInfo@2@XZ="C:\Windows\SysWOW64\dui70".?EdgeHighlightThicknessProp@Element@DirectUI@@SGPBUPropertyInfo@2@XZ
  ?EditControlType@Schema@DirectUI@@2HA="C:\Windows\SysWOW64\dui70".?EditControlType@Schema@DirectUI@@2HA
  ?ElementFromPoint@HWNDElement@DirectUI@@QAEPAVElement@2@PAUtagPOINT@@@Z="C:\Windows\SysWOW64\dui70".?ElementFromPoint@HWNDElement@DirectUI@@QAEPAVElement@2@PAUtagPOINT@@@Z
  ?ElementFromPoint@HWNDElementProxy@DirectUI@@IAEJNNPAPAUIRawElementProviderFragment@@@Z="C:\Windows\SysWOW64\dui70".?ElementFromPoint@HWNDElementProxy@DirectUI@@IAEJNNPAPAUIRawElementProviderFragment@@@Z
  ?ElementMovesOnIHMNotifyProp@TouchEditBase@DirectUI@@SGPBUPropertyInfo@2@XZ="C:\Windows\SysWOW64\dui70".?ElementMovesOnIHMNotifyProp@TouchEditBase@DirectUI@@SGPBUPropertyInfo@2@XZ
  ?ElementProviderFromPoint@HWNDElementProvider@DirectUI@@UAGJNNPAPAUIRawElementProviderFragment@@@Z="C:\Windows\SysWOW64\dui70".?ElementProviderFromPoint@HWNDElementProvider@DirectUI@@UAGJNNPAPAUIRawElementProviderFragment@@@Z
  ?EnableDesignMode@DUIXmlParser@DirectUI@@QAEXXZ="C:\Windows\SysWOW64\dui70".?EnableDesignMode@DUIXmlParser@DirectUI@@QAEXXZ
  ?EnableUiaEvents@Element@DirectUI@@QAEX_N@Z="C:\Windows\SysWOW64\dui70".?EnableUiaEvents@Element@DirectUI@@QAEX_N@Z
  ?EnabledProp@Element@DirectUI@@SGPBUPropertyInfo@2@XZ="C:\Windows\SysWOW64\dui70".?EnabledProp@Element@DirectUI@@SGPBUPropertyInfo@2@XZ
  ?End@BaseScrollBar@DirectUI@@UAEXXZ="C:\Windows\SysWOW64\dui70".?End@BaseScrollBar@DirectUI@@UAEXXZ
  ?EndDefer@Element@DirectUI@@QAEXK@Z="C:\Windows\SysWOW64\dui70".?EndDefer@Element@DirectUI@@QAEXK@Z
  ?EndDefer@EventManager@DirectUI@@SGJPAVElement@2@@Z="C:\Windows\SysWOW64\dui70".?EndDefer@EventManager@DirectUI@@SGJPAVElement@2@@Z
  ?EnforceSizeProp@PushButton@DirectUI@@SGPBUPropertyInfo@2@XZ="C:\Windows\SysWOW64\dui70".?EnforceSizeProp@PushButton@DirectUI@@SGPBUPropertyInfo@2@XZ
  ?EnsureVisible@Element@DirectUI@@QAE_NI@Z="C:\Windows\SysWOW64\dui70".?EnsureVisible@Element@DirectUI@@QAE_NI@Z
  ?EnsureVisible@Element@DirectUI@@QAE_NXZ="C:\Windows\SysWOW64\dui70".?EnsureVisible@Element@DirectUI@@QAE_NXZ
  ?EnsureVisible@Element@DirectUI@@UAE_NHHHH@Z="C:\Windows\SysWOW64\dui70".?EnsureVisible@Element@DirectUI@@UAE_NHHHH@Z
  ?EnsureVisible@Viewer@DirectUI@@UAE_NHHHH@Z="C:\Windows\SysWOW64\dui70".?EnsureVisible@Viewer@DirectUI@@UAE_NHHHH@Z
  ?Enter@Edit@DirectUI@@SG?AVUID@@XZ="C:\Windows\SysWOW64\dui70".?Enter@Edit@DirectUI@@SG?AVUID@@XZ
  ?Enter@TouchEditBase@DirectUI@@SG?AVUID@@XZ="C:\Windows\SysWOW64\dui70".?Enter@TouchEditBase@DirectUI@@SG?AVUID@@XZ
  ?Entered@Browser@DirectUI@@SG?AVUID@@XZ="C:\Windows\SysWOW64\dui70".?Entered@Browser@DirectUI@@SG?AVUID@@XZ
  ?EnumCallstackFrames@CallstackTracker@DirectUI@@QAEHP6GXPBD0KK@Z@Z="C:\Windows\SysWOW64\dui70".?EnumCallstackFrames@CallstackTracker@DirectUI@@QAEHP6GXPBD0KK@Z@Z
  ?EnumPropertyInfo@ClassInfoBase@DirectUI@@UAEPBUPropertyInfo@2@I@Z="C:\Windows\SysWOW64\dui70".?EnumPropertyInfo@ClassInfoBase@DirectUI@@UAEPBUPropertyInfo@2@I@Z
  ?EraseBkgnd@HWNDHost@DirectUI@@MAE_NPAUHDC__@@PAJ@Z="C:\Windows\SysWOW64\dui70".?EraseBkgnd@HWNDHost@DirectUI@@MAE_NPAUHDC__@@PAJ@Z
  ?EraseFeedback@TouchSlider@DirectUI@@QAEXXZ="C:\Windows\SysWOW64\dui70".?EraseFeedback@TouchSlider@DirectUI@@QAEXXZ
  ?EstimateContentSize@CCPushButton@DirectUI@@UAE?AUtagSIZE@@HHPAVSurface@2@@Z="C:\Windows\SysWOW64\dui70".?EstimateContentSize@CCPushButton@DirectUI@@UAE?AUtagSIZE@@HHPAVSurface@2@@Z
  ?EventFromEventId@Schema@DirectUI@@SG?AW4Event@12@H@Z="C:\Windows\SysWOW64\dui70".?EventFromEventId@Schema@DirectUI@@SG?AW4Event@12@H@Z
  ?EventListener@EventManager@DirectUI@@SGJPAVElement@2@PAUEvent@2@@Z="C:\Windows\SysWOW64\dui70".?EventListener@EventManager@DirectUI@@SGJPAVElement@2@PAUEvent@2@@Z
  ?ExecuteManualSwapDeferredZoomToRect@TouchScrollViewer@DirectUI@@QAEJ_N@Z="C:\Windows\SysWOW64\dui70".?ExecuteManualSwapDeferredZoomToRect@TouchScrollViewer@DirectUI@@QAEJ_N@Z
  ?Expand@ExpandCollapseProvider@DirectUI@@UAGJXZ="C:\Windows\SysWOW64\dui70".?Expand@ExpandCollapseProvider@DirectUI@@UAGJXZ
  ?ExpandCollapsePattern@Schema@DirectUI@@2HA="C:\Windows\SysWOW64\dui70".?ExpandCollapsePattern@Schema@DirectUI@@2HA
  ?ExpandCollapse_ExpandCollapseState_Property@Schema@DirectUI@@2HA="C:\Windows\SysWOW64\dui70".?ExpandCollapse_ExpandCollapseState_Property@Schema@DirectUI@@2HA
  ?ExpandProp@Macro@DirectUI@@SGPBUPropertyInfo@2@XZ="C:\Windows\SysWOW64\dui70".?ExpandProp@Macro@DirectUI@@SGPBUPropertyInfo@2@XZ
  ?ExpandedProp@Expandable@DirectUI@@SGPBUPropertyInfo@2@XZ="C:\Windows\SysWOW64\dui70".?ExpandedProp@Expandable@DirectUI@@SGPBUPropertyInfo@2@XZ
  ?ExtentProp@Element@DirectUI@@SGPBUPropertyInfo@2@XZ="C:\Windows\SysWOW64\dui70".?ExtentProp@Element@DirectUI@@SGPBUPropertyInfo@2@XZ
  ?FWantAnyEvent@EventManager@DirectUI@@SG_NPAVElement@2@@Z="C:\Windows\SysWOW64\dui70".?FWantAnyEvent@EventManager@DirectUI@@SG_NPAVElement@2@@Z
  ?FillSymbolInfo@CallstackTracker@DirectUI@@AAEXPAUSTACK_SYMBOL_INFO@12@_K@Z="C:\Windows\SysWOW64\dui70".?FillSymbolInfo@CallstackTracker@DirectUI@@AAEXPAUSTACK_SYMBOL_INFO@12@_K@Z
  ?FilterOnPasteProp@TouchEditBase@DirectUI@@SGPBUPropertyInfo@2@XZ="C:\Windows\SysWOW64\dui70".?FilterOnPasteProp@TouchEditBase@DirectUI@@SGPBUPropertyInfo@2@XZ
  ?FinalizeCurrentIMEComposition@TouchEdit2@DirectUI@@UAEJXZ="C:\Windows\SysWOW64\dui70".?FinalizeCurrentIMEComposition@TouchEdit2@DirectUI@@UAEJXZ
  ?FinalizeCurrentIMEComposition@TouchEditBase@DirectUI@@UAEJXZ="C:\Windows\SysWOW64\dui70".?FinalizeCurrentIMEComposition@TouchEditBase@DirectUI@@UAEJXZ
  ?Find@ElementProviderManager@DirectUI@@SGPAVElementProvider@2@PAVElement@2@@Z="C:\Windows\SysWOW64\dui70".?Find@ElementProviderManager@DirectUI@@SGPAVElementProvider@2@PAVElement@2@@Z
  ?FindAccessibleRole@AccessibleButton@DirectUI@@CGPBUACCESSIBLEROLE@12@H@Z="C:\Windows\SysWOW64\dui70".?FindAccessibleRole@AccessibleButton@DirectUI@@CGPBUACCESSIBLEROLE@12@H@Z
  ?FindDescendent@Element@DirectUI@@QAEPAV12@G@Z="C:\Windows\SysWOW64\dui70".?FindDescendent@Element@DirectUI@@QAEPAV12@G@Z
  ?FindDescendentWorker@Element@DirectUI@@AAEPAV12@G@Z="C:\Windows\SysWOW64\dui70".?FindDescendentWorker@Element@DirectUI@@AAEPAV12@G@Z
  ?FindElementWithShortcutAndDoDefaultAction@XProvider@DirectUI@@UAGHGH@Z="C:\Windows\SysWOW64\dui70".?FindElementWithShortcutAndDoDefaultAction@XProvider@DirectUI@@UAGHGH@Z
  ?FindInvokeHelper@InvokeManager@DirectUI@@CGPAVInvokeHelper@2@PAI@Z="C:\Windows\SysWOW64\dui70".?FindInvokeHelper@InvokeManager@DirectUI@@CGPAVInvokeHelper@2@PAI@Z
  ?FindProviderCallback@ElementProviderManager@DirectUI@@CG_NPAVElementProvider@2@PAX@Z="C:\Windows\SysWOW64\dui70".?FindProviderCallback@ElementProviderManager@DirectUI@@CG_NPAVElementProvider@2@PAX@Z
  ?FindRefPoint@RefPointElement@DirectUI@@SGPAVElement@2@PAV32@PAUtagPOINT@@@Z="C:\Windows\SysWOW64\dui70".?FindRefPoint@RefPointElement@DirectUI@@SGPAVElement@2@PAV32@PAUtagPOINT@@@Z
  ?FindShortcut@HWNDElement@DirectUI@@SG_NGPAVElement@2@PAPAV32@PAH2H@Z="C:\Windows\SysWOW64\dui70".?FindShortcut@HWNDElement@DirectUI@@SG_NGPAVElement@2@PAPAV32@PAH2H@Z
  ?FindShortcutRecursive@HWNDElement@DirectUI@@KG_NGPAVElement@2@PAPAV32@PAH2H@Z="C:\Windows\SysWOW64\dui70".?FindShortcutRecursive@HWNDElement@DirectUI@@KG_NGPAVElement@2@PAPAV32@PAH2H@Z
  ?FireAnimationChangeEvent@BaseScrollViewer@DirectUI@@IAEX_N@Z="C:\Windows\SysWOW64\dui70".?FireAnimationChangeEvent@BaseScrollViewer@DirectUI@@IAEX_N@Z
  ?FireClickEvent@TouchButton@DirectUI@@UAEXIIW4ClickDevice@12@PAUtagPOINT@@@Z="C:\Windows\SysWOW64\dui70".?FireClickEvent@TouchButton@DirectUI@@UAEXIIW4ClickDevice@12@PAUtagPOINT@@@Z
  ?FireClickEvent@TouchRepeatButton@DirectUI@@UAEXIIW4ClickDevice@TouchButton@2@PAUtagPOINT@@@Z="C:\Windows\SysWOW64\dui70".?FireClickEvent@TouchRepeatButton@DirectUI@@UAEXIIW4ClickDevice@TouchButton@2@PAUtagPOINT@@@Z
  ?FireEvent@Element@DirectUI@@QAEXPAUEvent@2@_N1@Z="C:\Windows\SysWOW64\dui70".?FireEvent@Element@DirectUI@@QAEXPAUEvent@2@_N1@Z
  ?FireEventOnMouseOrPointerRelease@TouchSlider@DirectUI@@QAEXXZ="C:\Windows\SysWOW64\dui70".?FireEventOnMouseOrPointerRelease@TouchSlider@DirectUI@@QAEXXZ
  ?FireHostEvent@PushButton@DirectUI@@AAEXPAVElement@2@_N@Z="C:\Windows\SysWOW64\dui70".?FireHostEvent@PushButton@DirectUI@@AAEXPAVElement@2@_N@Z
  ?FireNavigate@Browser@DirectUI@@AAEHG@Z="C:\Windows\SysWOW64\dui70".?FireNavigate@Browser@DirectUI@@AAEHG@Z
  ?FireNavigationEvent@Navigator@DirectUI@@AAEXXZ="C:\Windows\SysWOW64\dui70".?FireNavigationEvent@Navigator@DirectUI@@AAEXXZ
  ?FireRightClickEvent@TouchButton@DirectUI@@UAEXIPAUtagPOINT@@@Z="C:\Windows\SysWOW64\dui70".?FireRightClickEvent@TouchButton@DirectUI@@UAEXIPAUtagPOINT@@@Z
  ?FireRightClickEvent@TouchRepeatButton@DirectUI@@UAEXIPAUtagPOINT@@@Z="C:\Windows\SysWOW64\dui70".?FireRightClickEvent@TouchRepeatButton@DirectUI@@UAEXIPAUtagPOINT@@@Z
  ?FireStructureChangedEvent@EventManager@DirectUI@@SGJPAVElement@2@W4StructureChangeType@@@Z="C:\Windows\SysWOW64\dui70".?FireStructureChangedEvent@EventManager@DirectUI@@SGJPAVElement@2@W4StructureChangeType@@@Z
  ?FlagsProp@TouchHWNDElement@DirectUI@@SGPBUPropertyInfo@2@XZ="C:\Windows\SysWOW64\dui70".?FlagsProp@TouchHWNDElement@DirectUI@@SGPBUPropertyInfo@2@XZ
  ?FlushWorkingSet@HWNDElement@DirectUI@@QAEXXZ="C:\Windows\SysWOW64\dui70".?FlushWorkingSet@HWNDElement@DirectUI@@QAEXXZ
  ?FontColorRunsProp@RichText@DirectUI@@SGPBUPropertyInfo@2@XZ="C:\Windows\SysWOW64\dui70".?FontColorRunsProp@RichText@DirectUI@@SGPBUPropertyInfo@2@XZ
  ?FontFaceProp@Element@DirectUI@@SGPBUPropertyInfo@2@XZ="C:\Windows\SysWOW64\dui70".?FontFaceProp@Element@DirectUI@@SGPBUPropertyInfo@2@XZ
  ?FontProp@Element@DirectUI@@SGPBUPropertyInfo@2@XZ="C:\Windows\SysWOW64\dui70".?FontProp@Element@DirectUI@@SGPBUPropertyInfo@2@XZ
  ?FontQualityProp@Element@DirectUI@@SGPBUPropertyInfo@2@XZ="C:\Windows\SysWOW64\dui70".?FontQualityProp@Element@DirectUI@@SGPBUPropertyInfo@2@XZ
  ?FontSizeProp@Element@DirectUI@@SGPBUPropertyInfo@2@XZ="C:\Windows\SysWOW64\dui70".?FontSizeProp@Element@DirectUI@@SGPBUPropertyInfo@2@XZ
  ?FontSizeRunsProp@RichText@DirectUI@@SGPBUPropertyInfo@2@XZ="C:\Windows\SysWOW64\dui70".?FontSizeRunsProp@RichText@DirectUI@@SGPBUPropertyInfo@2@XZ
  ?FontStyleProp@Element@DirectUI@@SGPBUPropertyInfo@2@XZ="C:\Windows\SysWOW64\dui70".?FontStyleProp@Element@DirectUI@@SGPBUPropertyInfo@2@XZ
  ?FontWeightProp@Element@DirectUI@@SGPBUPropertyInfo@2@XZ="C:\Windows\SysWOW64\dui70".?FontWeightProp@Element@DirectUI@@SGPBUPropertyInfo@2@XZ
  ?FontWeightRunsProp@RichText@DirectUI@@SGPBUPropertyInfo@2@XZ="C:\Windows\SysWOW64\dui70".?FontWeightRunsProp@RichText@DirectUI@@SGPBUPropertyInfo@2@XZ
  ?ForceEditTextToLTRProp@TouchEditBase@DirectUI@@SGPBUPropertyInfo@2@XZ="C:\Windows\SysWOW64\dui70".?ForceEditTextToLTRProp@TouchEditBase@DirectUI@@SGPBUPropertyInfo@2@XZ
  ?ForceThemeChange@XBaby@DirectUI@@UAEXIJ@Z="C:\Windows\SysWOW64\dui70".?ForceThemeChange@XBaby@DirectUI@@UAEXIJ@Z
  ?ForceThemeChange@XProvider@DirectUI@@UAGJIJ@Z="C:\Windows\SysWOW64\dui70".?ForceThemeChange@XProvider@DirectUI@@UAGJIJ@Z
  ?ForegroundProp@Element@DirectUI@@SGPBUPropertyInfo@2@XZ="C:\Windows\SysWOW64\dui70".?ForegroundProp@Element@DirectUI@@SGPBUPropertyInfo@2@XZ
  ?Forward@Movie@DirectUI@@QAEXXZ="C:\Windows\SysWOW64\dui70".?Forward@Movie@DirectUI@@QAEXXZ
  ?ForwardingWindowMessage@TouchHWNDElement@DirectUI@@SG?AVUID@@XZ="C:\Windows\SysWOW64\dui70".?ForwardingWindowMessage@TouchHWNDElement@DirectUI@@SG?AVUID@@XZ
  ?FrameDurationProp@AnimationStrip@DirectUI@@SGPBUPropertyInfo@2@XZ="C:\Windows\SysWOW64\dui70".?FrameDurationProp@AnimationStrip@DirectUI@@SGPBUPropertyInfo@2@XZ
  ?FrameIndexProp@AnimationStrip@DirectUI@@SGPBUPropertyInfo@2@XZ="C:\Windows\SysWOW64\dui70".?FrameIndexProp@AnimationStrip@DirectUI@@SGPBUPropertyInfo@2@XZ
  ?FrameWidthProp@AnimationStrip@DirectUI@@SGPBUPropertyInfo@2@XZ="C:\Windows\SysWOW64\dui70".?FrameWidthProp@AnimationStrip@DirectUI@@SGPBUPropertyInfo@2@XZ
  ?FrameworkId@Schema@DirectUI@@2HA="C:\Windows\SysWOW64\dui70".?FrameworkId@Schema@DirectUI@@2HA
  ?FreeComCtl32@TaskPage@DirectUI@@AAEXXZ="C:\Windows\SysWOW64\dui70".?FreeComCtl32@TaskPage@DirectUI@@AAEXXZ
  ?FreeProvider@XElement@DirectUI@@QAEXXZ="C:\Windows\SysWOW64\dui70".?FreeProvider@XElement@DirectUI@@QAEXXZ
  ?GetAbsorbsShortcut@Element@DirectUI@@QAE_NXZ="C:\Windows\SysWOW64\dui70".?GetAbsorbsShortcut@Element@DirectUI@@QAE_NXZ
  ?GetAccDefAction@Element@DirectUI@@QAEPBGPAPAVValue@2@@Z="C:\Windows\SysWOW64\dui70".?GetAccDefAction@Element@DirectUI@@QAEPBGPAPAVValue@2@@Z
  ?GetAccDesc@Element@DirectUI@@QAEPBGPAPAVValue@2@@Z="C:\Windows\SysWOW64\dui70".?GetAccDesc@Element@DirectUI@@QAEPBGPAPAVValue@2@@Z
  ?GetAccHelp@Element@DirectUI@@QAEPBGPAPAVValue@2@@Z="C:\Windows\SysWOW64\dui70".?GetAccHelp@Element@DirectUI@@QAEPBGPAPAVValue@2@@Z
  ?GetAccItemStatus@Element@DirectUI@@QAEPBGPAPAVValue@2@@Z="C:\Windows\SysWOW64\dui70".?GetAccItemStatus@Element@DirectUI@@QAEPBGPAPAVValue@2@@Z
  ?GetAccItemType@Element@DirectUI@@QAEPBGPAPAVValue@2@@Z="C:\Windows\SysWOW64\dui70".?GetAccItemType@Element@DirectUI@@QAEPBGPAPAVValue@2@@Z
  ?GetAccName@DuiAccessible@DirectUI@@IAEJUtagVARIANT@@HPAPAG@Z="C:\Windows\SysWOW64\dui70".?GetAccName@DuiAccessible@DirectUI@@IAEJUtagVARIANT@@HPAPAG@Z
  ?GetAccName@Element@DirectUI@@QAEPBGPAPAVValue@2@@Z="C:\Windows\SysWOW64\dui70".?GetAccName@Element@DirectUI@@QAEPBGPAPAVValue@2@@Z
  ?GetAccNameAsDisplayed@Element@DirectUI@@QAEPBGPAPAVValue@2@@Z="C:\Windows\SysWOW64\dui70".?GetAccNameAsDisplayed@Element@DirectUI@@QAEPBGPAPAVValue@2@@Z
  ?GetAccNameFromContent@DuiAccessible@DirectUI@@IAEJPAPAG@Z="C:\Windows\SysWOW64\dui70".?GetAccNameFromContent@DuiAccessible@DirectUI@@IAEJPAPAG@Z
  ?GetAccRole@Element@DirectUI@@QAEHXZ="C:\Windows\SysWOW64\dui70".?GetAccRole@Element@DirectUI@@QAEHXZ
  ?GetAccState@Element@DirectUI@@QAEHXZ="C:\Windows\SysWOW64\dui70".?GetAccState@Element@DirectUI@@QAEHXZ
  ?GetAccValue@Element@DirectUI@@QAEPBGPAPAVValue@2@@Z="C:\Windows\SysWOW64\dui70".?GetAccValue@Element@DirectUI@@QAEPBGPAPAVValue@2@@Z
  ?GetAccessible@Element@DirectUI@@QAE_NXZ="C:\Windows\SysWOW64\dui70".?GetAccessible@Element@DirectUI@@QAE_NXZ
  ?GetAccessibleImpl@Element@DirectUI@@UAEJPAPAUIAccessible@@@Z="C:\Windows\SysWOW64\dui70".?GetAccessibleImpl@Element@DirectUI@@UAEJPAPAUIAccessible@@@Z
  ?GetAccessibleImpl@HWNDElement@DirectUI@@UAEJPAPAUIAccessible@@@Z="C:\Windows\SysWOW64\dui70".?GetAccessibleImpl@HWNDElement@DirectUI@@UAEJPAPAUIAccessible@@@Z
  ?GetAccessibleImpl@HWNDHost@DirectUI@@AAEJPAPAUIAccessible@@_N@Z="C:\Windows\SysWOW64\dui70".?GetAccessibleImpl@HWNDHost@DirectUI@@AAEJPAPAUIAccessible@@_N@Z
  ?GetAccessibleImpl@HWNDHost@DirectUI@@UAEJPAPAUIAccessible@@@Z="C:\Windows\SysWOW64\dui70".?GetAccessibleImpl@HWNDHost@DirectUI@@UAEJPAPAUIAccessible@@@Z
  ?GetAccessibleImpl@TouchEdit2@DirectUI@@UAEJPAPAUIAccessible@@@Z="C:\Windows\SysWOW64\dui70".?GetAccessibleImpl@TouchEdit2@DirectUI@@UAEJPAPAUIAccessible@@@Z
  ?GetAccessibleParent@DuiAccessible@DirectUI@@SGPAVElement@2@PAV32@@Z="C:\Windows\SysWOW64\dui70".?GetAccessibleParent@DuiAccessible@DirectUI@@SGPAVElement@2@PAV32@@Z
  ?GetActive@Element@DirectUI@@QAEHXZ="C:\Windows\SysWOW64\dui70".?GetActive@Element@DirectUI@@QAEHXZ
  ?GetActiveState@TouchScrollBar@DirectUI@@QAE?AW4ActiveState@2@XZ="C:\Windows\SysWOW64\dui70".?GetActiveState@TouchScrollBar@DirectUI@@QAE?AW4ActiveState@2@XZ
  ?GetActualReferencePoint@RefPointElement@DirectUI@@QAEPBUtagPOINT@@PAPAVValue@2@@Z="C:\Windows\SysWOW64\dui70".?GetActualReferencePoint@RefPointElement@DirectUI@@QAEPBUtagPOINT@@PAPAVValue@2@@Z
  ?GetAdjacent@BorderLayout@DirectUI@@UAEPAVElement@2@PAV32@0HPBUNavReference@2@K@Z="C:\Windows\SysWOW64\dui70".?GetAdjacent@BorderLayout@DirectUI@@UAEPAVElement@2@PAV32@0HPBUNavReference@2@K@Z
  ?GetAdjacent@Element@DirectUI@@UAEPAV12@PAV12@HPBUNavReference@2@K@Z="C:\Windows\SysWOW64\dui70".?GetAdjacent@Element@DirectUI@@UAEPAV12@PAV12@HPBUNavReference@2@K@Z
  ?GetAdjacent@FillLayout@DirectUI@@UAEPAVElement@2@PAV32@0HPBUNavReference@2@K@Z="C:\Windows\SysWOW64\dui70".?GetAdjacent@FillLayout@DirectUI@@UAEPAVElement@2@PAV32@0HPBUNavReference@2@K@Z
  ?GetAdjacent@FlowLayout@DirectUI@@UAEPAVElement@2@PAV32@0HPBUNavReference@2@K@Z="C:\Windows\SysWOW64\dui70".?GetAdjacent@FlowLayout@DirectUI@@UAEPAVElement@2@PAV32@0HPBUNavReference@2@K@Z
  ?GetAdjacent@GridLayout@DirectUI@@UAEPAVElement@2@PAV32@0HPBUNavReference@2@K@Z="C:\Windows\SysWOW64\dui70".?GetAdjacent@GridLayout@DirectUI@@UAEPAVElement@2@PAV32@0HPBUNavReference@2@K@Z
  ?GetAdjacent@ItemList@DirectUI@@UAEPAVElement@2@PAV32@HPBUNavReference@2@K@Z="C:\Windows\SysWOW64\dui70".?GetAdjacent@ItemList@DirectUI@@UAEPAVElement@2@PAV32@HPBUNavReference@2@K@Z
  ?GetAdjacent@Layout@DirectUI@@UAEPAVElement@2@PAV32@0HPBUNavReference@2@K@Z="C:\Windows\SysWOW64\dui70".?GetAdjacent@Layout@DirectUI@@UAEPAVElement@2@PAV32@0HPBUNavReference@2@K@Z
  ?GetAdjacent@NineGridLayout@DirectUI@@UAEPAVElement@2@PAV32@0HPBUNavReference@2@K@Z="C:\Windows\SysWOW64\dui70".?GetAdjacent@NineGridLayout@DirectUI@@UAEPAVElement@2@PAV32@0HPBUNavReference@2@K@Z
  ?GetAdjacent@RowLayout@DirectUI@@UAEPAVElement@2@PAV32@0HPBUNavReference@2@K@Z="C:\Windows\SysWOW64\dui70".?GetAdjacent@RowLayout@DirectUI@@UAEPAVElement@2@PAV32@0HPBUNavReference@2@K@Z
  ?GetAdjacent@Selector@DirectUI@@UAEPAVElement@2@PAV32@HPBUNavReference@2@K@Z="C:\Windows\SysWOW64\dui70".?GetAdjacent@Selector@DirectUI@@UAEPAVElement@2@PAV32@HPBUNavReference@2@K@Z
  ?GetAdjacent@ShellBorderLayout@DirectUI@@UAEPAVElement@2@PAV32@0HPBUNavReference@2@K@Z="C:\Windows\SysWOW64\dui70".?GetAdjacent@ShellBorderLayout@DirectUI@@UAEPAVElement@2@PAV32@0HPBUNavReference@2@K@Z
  ?GetAdjacent@TableLayout@DirectUI@@UAEPAVElement@2@PAV32@0HPBUNavReference@2@K@Z="C:\Windows\SysWOW64\dui70".?GetAdjacent@TableLayout@DirectUI@@UAEPAVElement@2@PAV32@0HPBUNavReference@2@K@Z
  ?GetAdjacent@VerticalFlowLayout@DirectUI@@UAEPAVElement@2@PAV32@0HPBUNavReference@2@K@Z="C:\Windows\SysWOW64\dui70".?GetAdjacent@VerticalFlowLayout@DirectUI@@UAEPAVElement@2@PAV32@0HPBUNavReference@2@K@Z
  ?GetAdjacent@XBaby@DirectUI@@UAEPAVElement@2@PAV32@HPBUNavReference@2@K@Z="C:\Windows\SysWOW64\dui70".?GetAdjacent@XBaby@DirectUI@@UAEPAVElement@2@PAV32@HPBUNavReference@2@K@Z
  ?GetAllowArrowOut@TouchScrollViewer@DirectUI@@QAE_NXZ="C:\Windows\SysWOW64\dui70".?GetAllowArrowOut@TouchScrollViewer@DirectUI@@QAE_NXZ
  ?GetAlpha@Element@DirectUI@@QAEHXZ="C:\Windows\SysWOW64\dui70".?GetAlpha@Element@DirectUI@@QAEHXZ
  ?GetAnimatePopupOnDismiss@TouchSelect@DirectUI@@QAE_NXZ="C:\Windows\SysWOW64\dui70".?GetAnimatePopupOnDismiss@TouchSelect@DirectUI@@QAE_NXZ
  ?GetAnimation@Element@DirectUI@@QAEHXZ="C:\Windows\SysWOW64\dui70".?GetAnimation@Element@DirectUI@@QAEHXZ
  ?GetAtom@Value@DirectUI@@QAEGXZ="C:\Windows\SysWOW64\dui70".?GetAtom@Value@DirectUI@@QAEGXZ
  ?GetAtomZero@Value@DirectUI@@SGPAV12@XZ="C:\Windows\SysWOW64\dui70".?GetAtomZero@Value@DirectUI@@SGPAV12@XZ
  ?GetAutoGrouping@CCRadioButton@DirectUI@@QAE_NXZ="C:\Windows\SysWOW64\dui70".?GetAutoGrouping@CCRadioButton@DirectUI@@QAE_NXZ
  ?GetAutoStart@Movie@DirectUI@@QAE_NXZ="C:\Windows\SysWOW64\dui70".?GetAutoStart@Movie@DirectUI@@QAE_NXZ
  ?GetAutoStop@Movie@DirectUI@@QAE_NXZ="C:\Windows\SysWOW64\dui70".?GetAutoStop@Movie@DirectUI@@QAE_NXZ
  ?GetAutomationId@ElementProxy@DirectUI@@IAEJPAUtagVARIANT@@@Z="C:\Windows\SysWOW64\dui70".?GetAutomationId@ElementProxy@DirectUI@@IAEJPAUtagVARIANT@@@Z
  ?GetBackgroundColor@Element@DirectUI@@QAEPBUFill@2@PAPAVValue@2@@Z="C:\Windows\SysWOW64\dui70".?GetBackgroundColor@Element@DirectUI@@QAEPBUFill@2@PAPAVValue@2@@Z
  ?GetBackgroundOwner@HWNDHost@DirectUI@@IAEPAVElement@2@XZ="C:\Windows\SysWOW64\dui70".?GetBackgroundOwner@HWNDHost@DirectUI@@IAEPAVElement@2@XZ
  ?GetBackgroundOwnerID@HWNDHost@DirectUI@@QAEGXZ="C:\Windows\SysWOW64\dui70".?GetBackgroundOwnerID@HWNDHost@DirectUI@@QAEGXZ
  ?GetBackgroundStdColor@Element@DirectUI@@QAEHXZ="C:\Windows\SysWOW64\dui70".?GetBackgroundStdColor@Element@DirectUI@@QAEHXZ
  ?GetBool@EventManager@DirectUI@@CGJPAUtagVARIANT@@PAVValue@2@@Z="C:\Windows\SysWOW64\dui70".?GetBool@EventManager@DirectUI@@CGJPAUtagVARIANT@@PAVValue@2@@Z
  ?GetBool@Value@DirectUI@@QAE_NXZ="C:\Windows\SysWOW64\dui70".?GetBool@Value@DirectUI@@QAE_NXZ
  ?GetBoolFalse@Value@DirectUI@@SGPAV12@XZ="C:\Windows\SysWOW64\dui70".?GetBoolFalse@Value@DirectUI@@SGPAV12@XZ
  ?GetBoolTrue@Value@DirectUI@@SGPAV12@XZ="C:\Windows\SysWOW64\dui70".?GetBoolTrue@Value@DirectUI@@SGPAV12@XZ
  ?GetBorderColor@Element@DirectUI@@QAEPBUFill@2@PAPAVValue@2@@Z="C:\Windows\SysWOW64\dui70".?GetBorderColor@Element@DirectUI@@QAEPBUFill@2@PAPAVValue@2@@Z
  ?GetBorderStdColor@Element@DirectUI@@QAEHXZ="C:\Windows\SysWOW64\dui70".?GetBorderStdColor@Element@DirectUI@@QAEHXZ
  ?GetBorderStyle@Element@DirectUI@@QAEHXZ="C:\Windows\SysWOW64\dui70".?GetBorderStyle@Element@DirectUI@@QAEHXZ
  ?GetBorderThickness@Element@DirectUI@@QAEPBUtagRECT@@PAPAVValue@2@@Z="C:\Windows\SysWOW64\dui70".?GetBorderThickness@Element@DirectUI@@QAEPBUtagRECT@@PAPAVValue@2@@Z
  ?GetBoundingRect@ElementProxy@DirectUI@@IAEJPAUUiaRect@@@Z="C:\Windows\SysWOW64\dui70".?GetBoundingRect@ElementProxy@DirectUI@@IAEJPAUUiaRect@@@Z
  ?GetBrowser@Navigator@DirectUI@@QAEPAVBrowser@2@XZ="C:\Windows\SysWOW64\dui70".?GetBrowser@Navigator@DirectUI@@QAEPAVBrowser@2@XZ
  ?GetBuffering@TouchSlider@DirectUI@@QAEHXZ="C:\Windows\SysWOW64\dui70".?GetBuffering@TouchSlider@DirectUI@@QAEHXZ
  ?GetButtonClassAcceptsEnterKey@DialogElement@DirectUI@@UAE_NXZ="C:\Windows\SysWOW64\dui70".?GetButtonClassAcceptsEnterKey@DialogElement@DirectUI@@UAE_NXZ
  ?GetButtonColor@CCPushButton@DirectUI@@UAE_NPAUHDC__@@PAPAUHBRUSH__@@@Z="C:\Windows\SysWOW64\dui70".?GetButtonColor@CCPushButton@DirectUI@@UAE_NPAUHDC__@@PAPAUHBRUSH__@@@Z
  ?GetByClassIndex@ClassInfoBase@DirectUI@@UAEPBUPropertyInfo@2@I@Z="C:\Windows\SysWOW64\dui70".?GetByClassIndex@ClassInfoBase@DirectUI@@UAEPBUPropertyInfo@2@I@Z
  ?GetCaptured@Button@DirectUI@@QAE_NXZ="C:\Windows\SysWOW64\dui70".?GetCaptured@Button@DirectUI@@QAE_NXZ
  ?GetCaptured@TouchButton@DirectUI@@QAE_NXZ="C:\Windows\SysWOW64\dui70".?GetCaptured@TouchButton@DirectUI@@QAE_NXZ
  ?GetCellInfo@TableLayout@DirectUI@@QAEPAUCellInfo@2@H@Z="C:\Windows\SysWOW64\dui70".?GetCellInfo@TableLayout@DirectUI@@QAEPAUCellInfo@2@H@Z
  ?GetCheckedState@TouchCheckBox@DirectUI@@QAE?AW4CheckedStateFlags@2@XZ="C:\Windows\SysWOW64\dui70".?GetCheckedState@TouchCheckBox@DirectUI@@QAE?AW4CheckedStateFlags@2@XZ
  ?GetChildFromLayoutIndex@Layout@DirectUI@@QAEPAVElement@2@PAV32@HPAV?$DynamicArray@PAVElement@DirectUI@@$0A@@2@@Z="C:\Windows\SysWOW64\dui70".?GetChildFromLayoutIndex@Layout@DirectUI@@QAEPAVElement@2@PAV32@HPAV?$DynamicArray@PAVElement@DirectUI@@$0A@@2@@Z
  ?GetChildren@ClassInfoBase@DirectUI@@UBEHXZ="C:\Windows\SysWOW64\dui70".?GetChildren@ClassInfoBase@DirectUI@@UBEHXZ
  ?GetChildren@Element@DirectUI@@QAEPAV?$DynamicArray@PAVElement@DirectUI@@$0A@@2@PAPAVValue@2@@Z="C:\Windows\SysWOW64\dui70".?GetChildren@Element@DirectUI@@QAEPAV?$DynamicArray@PAVElement@DirectUI@@$0A@@2@PAPAVValue@2@@Z
  ?GetClass@Element@DirectUI@@QAEPBGPAPAVValue@2@@Z="C:\Windows\SysWOW64\dui70".?GetClass@Element@DirectUI@@QAEPBGPAPAVValue@2@@Z
  ?GetClassInfoPtr@AccessibleButton@DirectUI@@SGPAUIClassInfo@2@XZ="C:\Windows\SysWOW64\dui70".?GetClassInfoPtr@AccessibleButton@DirectUI@@SGPAUIClassInfo@2@XZ
  ?GetClassInfoPtr@AnimationStrip@DirectUI@@SGPAUIClassInfo@2@XZ="C:\Windows\SysWOW64\dui70".?GetClassInfoPtr@AnimationStrip@DirectUI@@SGPAUIClassInfo@2@XZ
  ?GetClassInfoPtr@AutoButton@DirectUI@@SGPAUIClassInfo@2@XZ="C:\Windows\SysWOW64\dui70".?GetClassInfoPtr@AutoButton@DirectUI@@SGPAUIClassInfo@2@XZ
  ?GetClassInfoPtr@BaseScrollViewer@DirectUI@@SGPAUIClassInfo@2@XZ="C:\Windows\SysWOW64\dui70".?GetClassInfoPtr@BaseScrollViewer@DirectUI@@SGPAUIClassInfo@2@XZ
  ?GetClassInfoPtr@Bind@DirectUI@@SGPAUIClassInfo@2@XZ="C:\Windows\SysWOW64\dui70".?GetClassInfoPtr@Bind@DirectUI@@SGPAUIClassInfo@2@XZ
  ?GetClassInfoPtr@Browser@DirectUI@@SGPAUIClassInfo@2@XZ="C:\Windows\SysWOW64\dui70".?GetClassInfoPtr@Browser@DirectUI@@SGPAUIClassInfo@2@XZ
  ?GetClassInfoPtr@Button@DirectUI@@SGPAUIClassInfo@2@XZ="C:\Windows\SysWOW64\dui70".?GetClassInfoPtr@Button@DirectUI@@SGPAUIClassInfo@2@XZ
  ?GetClassInfoPtr@CCAVI@DirectUI@@SGPAUIClassInfo@2@XZ="C:\Windows\SysWOW64\dui70".?GetClassInfoPtr@CCAVI@DirectUI@@SGPAUIClassInfo@2@XZ
  ?GetClassInfoPtr@CCBase@DirectUI@@SGPAUIClassInfo@2@XZ="C:\Windows\SysWOW64\dui70".?GetClassInfoPtr@CCBase@DirectUI@@SGPAUIClassInfo@2@XZ
  ?GetClassInfoPtr@CCBaseCheckRadioButton@DirectUI@@SGPAUIClassInfo@2@XZ="C:\Windows\SysWOW64\dui70".?GetClassInfoPtr@CCBaseCheckRadioButton@DirectUI@@SGPAUIClassInfo@2@XZ
  ?GetClassInfoPtr@CCBaseScrollBar@DirectUI@@SGPAUIClassInfo@2@XZ="C:\Windows\SysWOW64\dui70".?GetClassInfoPtr@CCBaseScrollBar@DirectUI@@SGPAUIClassInfo@2@XZ
  ?GetClassInfoPtr@CCCheckBox@DirectUI@@SGPAUIClassInfo@2@XZ="C:\Windows\SysWOW64\dui70".?GetClassInfoPtr@CCCheckBox@DirectUI@@SGPAUIClassInfo@2@XZ
  ?GetClassInfoPtr@CCCommandLink@DirectUI@@SGPAUIClassInfo@2@XZ="C:\Windows\SysWOW64\dui70".?GetClassInfoPtr@CCCommandLink@DirectUI@@SGPAUIClassInfo@2@XZ
  ?GetClassInfoPtr@CCHScrollBar@DirectUI@@SGPAUIClassInfo@2@XZ="C:\Windows\SysWOW64\dui70".?GetClassInfoPtr@CCHScrollBar@DirectUI@@SGPAUIClassInfo@2@XZ
  ?GetClassInfoPtr@CCListBox@DirectUI@@SGPAUIClassInfo@2@XZ="C:\Windows\SysWOW64\dui70".?GetClassInfoPtr@CCListBox@DirectUI@@SGPAUIClassInfo@2@XZ
  ?GetClassInfoPtr@CCListView@DirectUI@@SGPAUIClassInfo@2@XZ="C:\Windows\SysWOW64\dui70".?GetClassInfoPtr@CCListView@DirectUI@@SGPAUIClassInfo@2@XZ
  ?GetClassInfoPtr@CCProgressBar@DirectUI@@SGPAUIClassInfo@2@XZ="C:\Windows\SysWOW64\dui70".?GetClassInfoPtr@CCProgressBar@DirectUI@@SGPAUIClassInfo@2@XZ
  ?GetClassInfoPtr@CCPushButton@DirectUI@@SGPAUIClassInfo@2@XZ="C:\Windows\SysWOW64\dui70".?GetClassInfoPtr@CCPushButton@DirectUI@@SGPAUIClassInfo@2@XZ
  ?GetClassInfoPtr@CCRadioButton@DirectUI@@SGPAUIClassInfo@2@XZ="C:\Windows\SysWOW64\dui70".?GetClassInfoPtr@CCRadioButton@DirectUI@@SGPAUIClassInfo@2@XZ
  ?GetClassInfoPtr@CCSysLink@DirectUI@@SGPAUIClassInfo@2@XZ="C:\Windows\SysWOW64\dui70".?GetClassInfoPtr@CCSysLink@DirectUI@@SGPAUIClassInfo@2@XZ
  ?GetClassInfoPtr@CCTrackBar@DirectUI@@SGPAUIClassInfo@2@XZ="C:\Windows\SysWOW64\dui70".?GetClassInfoPtr@CCTrackBar@DirectUI@@SGPAUIClassInfo@2@XZ
  ?GetClassInfoPtr@CCTreeView@DirectUI@@SGPAUIClassInfo@2@XZ="C:\Windows\SysWOW64\dui70".?GetClassInfoPtr@CCTreeView@DirectUI@@SGPAUIClassInfo@2@XZ
  ?GetClassInfoPtr@CCVScrollBar@DirectUI@@SGPAUIClassInfo@2@XZ="C:\Windows\SysWOW64\dui70".?GetClassInfoPtr@CCVScrollBar@DirectUI@@SGPAUIClassInfo@2@XZ
  ?GetClassInfoPtr@CheckBoxGlyph@DirectUI@@SGPAUIClassInfo@2@XZ="C:\Windows\SysWOW64\dui70".?GetClassInfoPtr@CheckBoxGlyph@DirectUI@@SGPAUIClassInfo@2@XZ
  ?GetClassInfoPtr@Clipper@DirectUI@@SGPAUIClassInfo@2@XZ="C:\Windows\SysWOW64\dui70".?GetClassInfoPtr@Clipper@DirectUI@@SGPAUIClassInfo@2@XZ
  ?GetClassInfoPtr@Combobox@DirectUI@@SGPAUIClassInfo@2@XZ="C:\Windows\SysWOW64\dui70".?GetClassInfoPtr@Combobox@DirectUI@@SGPAUIClassInfo@2@XZ
  ?GetClassInfoPtr@DialogElement@DirectUI@@SGPAUIClassInfo@2@XZ="C:\Windows\SysWOW64\dui70".?GetClassInfoPtr@DialogElement@DirectUI@@SGPAUIClassInfo@2@XZ
  ?GetClassInfoPtr@Edit@DirectUI@@SGPAUIClassInfo@2@XZ="C:\Windows\SysWOW64\dui70".?GetClassInfoPtr@Edit@DirectUI@@SGPAUIClassInfo@2@XZ
  ?GetClassInfoPtr@Element@DirectUI@@SGPAUIClassInfo@2@XZ="C:\Windows\SysWOW64\dui70".?GetClassInfoPtr@Element@DirectUI@@SGPAUIClassInfo@2@XZ
  ?GetClassInfoPtr@ElementWithHWND@DirectUI@@SGPAUIClassInfo@2@XZ="C:\Windows\SysWOW64\dui70".?GetClassInfoPtr@ElementWithHWND@DirectUI@@SGPAUIClassInfo@2@XZ
  ?GetClassInfoPtr@Expandable@DirectUI@@SGPAUIClassInfo@2@XZ="C:\Windows\SysWOW64\dui70".?GetClassInfoPtr@Expandable@DirectUI@@SGPAUIClassInfo@2@XZ
  ?GetClassInfoPtr@Expando@DirectUI@@SGPAUIClassInfo@2@XZ="C:\Windows\SysWOW64\dui70".?GetClassInfoPtr@Expando@DirectUI@@SGPAUIClassInfo@2@XZ
  ?GetClassInfoPtr@ExpandoButtonGlyph@DirectUI@@SGPAUIClassInfo@2@XZ="C:\Windows\SysWOW64\dui70".?GetClassInfoPtr@ExpandoButtonGlyph@DirectUI@@SGPAUIClassInfo@2@XZ
  ?GetClassInfoPtr@HWNDElement@DirectUI@@SGPAUIClassInfo@2@XZ="C:\Windows\SysWOW64\dui70".?GetClassInfoPtr@HWNDElement@DirectUI@@SGPAUIClassInfo@2@XZ
  ?GetClassInfoPtr@HWNDHost@DirectUI@@SGPAUIClassInfo@2@XZ="C:\Windows\SysWOW64\dui70".?GetClassInfoPtr@HWNDHost@DirectUI@@SGPAUIClassInfo@2@XZ
  ?GetClassInfoPtr@ItemList@DirectUI@@SGPAUIClassInfo@2@XZ="C:\Windows\SysWOW64\dui70".?GetClassInfoPtr@ItemList@DirectUI@@SGPAUIClassInfo@2@XZ
  ?GetClassInfoPtr@Macro@DirectUI@@SGPAUIClassInfo@2@XZ="C:\Windows\SysWOW64\dui70".?GetClassInfoPtr@Macro@DirectUI@@SGPAUIClassInfo@2@XZ
  ?GetClassInfoPtr@ModernProgressBar@DirectUI@@SGPAUIClassInfo@2@XZ="C:\Windows\SysWOW64\dui70".?GetClassInfoPtr@ModernProgressBar@DirectUI@@SGPAUIClassInfo@2@XZ
  ?GetClassInfoPtr@ModernProgressRing@DirectUI@@SGPAUIClassInfo@2@XZ="C:\Windows\SysWOW64\dui70".?GetClassInfoPtr@ModernProgressRing@DirectUI@@SGPAUIClassInfo@2@XZ
  ?GetClassInfoPtr@Movie@DirectUI@@SGPAUIClassInfo@2@XZ="C:\Windows\SysWOW64\dui70".?GetClassInfoPtr@Movie@DirectUI@@SGPAUIClassInfo@2@XZ
  ?GetClassInfoPtr@Navigator@DirectUI@@SGPAUIClassInfo@2@XZ="C:\Windows\SysWOW64\dui70".?GetClassInfoPtr@Navigator@DirectUI@@SGPAUIClassInfo@2@XZ
  ?GetClassInfoPtr@PText@DirectUI@@SGPAUIClassInfo@2@XZ="C:\Windows\SysWOW64\dui70".?GetClassInfoPtr@PText@DirectUI@@SGPAUIClassInfo@2@XZ
  ?GetClassInfoPtr@Page@DirectUI@@SGPAUIClassInfo@2@XZ="C:\Windows\SysWOW64\dui70".?GetClassInfoPtr@Page@DirectUI@@SGPAUIClassInfo@2@XZ
  ?GetClassInfoPtr@Pages@DirectUI@@SGPAUIClassInfo@2@XZ="C:\Windows\SysWOW64\dui70".?GetClassInfoPtr@Pages@DirectUI@@SGPAUIClassInfo@2@XZ
  ?GetClassInfoPtr@Progress@DirectUI@@SGPAUIClassInfo@2@XZ="C:\Windows\SysWOW64\dui70".?GetClassInfoPtr@Progress@DirectUI@@SGPAUIClassInfo@2@XZ
  ?GetClassInfoPtr@PushButton@DirectUI@@SGPAUIClassInfo@2@XZ="C:\Windows\SysWOW64\dui70".?GetClassInfoPtr@PushButton@DirectUI@@SGPAUIClassInfo@2@XZ
  ?GetClassInfoPtr@RadioButtonGlyph@DirectUI@@SGPAUIClassInfo@2@XZ="C:\Windows\SysWOW64\dui70".?GetClassInfoPtr@RadioButtonGlyph@DirectUI@@SGPAUIClassInfo@2@XZ
  ?GetClassInfoPtr@RefPointElement@DirectUI@@SGPAUIClassInfo@2@XZ="C:\Windows\SysWOW64\dui70".?GetClassInfoPtr@RefPointElement@DirectUI@@SGPAUIClassInfo@2@XZ
  ?GetClassInfoPtr@RepeatButton@DirectUI@@SGPAUIClassInfo@2@XZ="C:\Windows\SysWOW64\dui70".?GetClassInfoPtr@RepeatButton@DirectUI@@SGPAUIClassInfo@2@XZ
  ?GetClassInfoPtr@Repeater@DirectUI@@SGPAUIClassInfo@2@XZ="C:\Windows\SysWOW64\dui70".?GetClassInfoPtr@Repeater@DirectUI@@SGPAUIClassInfo@2@XZ
  ?GetClassInfoPtr@RichText@DirectUI@@SGPAUIClassInfo@2@XZ="C:\Windows\SysWOW64\dui70".?GetClassInfoPtr@RichText@DirectUI@@SGPAUIClassInfo@2@XZ
  ?GetClassInfoPtr@ScrollBar@DirectUI@@SGPAUIClassInfo@2@XZ="C:\Windows\SysWOW64\dui70".?GetClassInfoPtr@ScrollBar@DirectUI@@SGPAUIClassInfo@2@XZ
  ?GetClassInfoPtr@ScrollViewer@DirectUI@@SGPAUIClassInfo@2@XZ="C:\Windows\SysWOW64\dui70".?GetClassInfoPtr@ScrollViewer@DirectUI@@SGPAUIClassInfo@2@XZ
  ?GetClassInfoPtr@Selector@DirectUI@@SGPAUIClassInfo@2@XZ="C:\Windows\SysWOW64\dui70".?GetClassInfoPtr@Selector@DirectUI@@SGPAUIClassInfo@2@XZ
  ?GetClassInfoPtr@SelectorNoDefault@DirectUI@@SGPAUIClassInfo@2@XZ="C:\Windows\SysWOW64\dui70".?GetClassInfoPtr@SelectorNoDefault@DirectUI@@SGPAUIClassInfo@2@XZ
  ?GetClassInfoPtr@SemanticZoomToggle@DirectUI@@SGPAUIClassInfo@2@XZ="C:\Windows\SysWOW64\dui70".?GetClassInfoPtr@SemanticZoomToggle@DirectUI@@SGPAUIClassInfo@2@XZ
  ?GetClassInfoPtr@StyledScrollViewer@DirectUI@@SGPAUIClassInfo@2@XZ="C:\Windows\SysWOW64\dui70".?GetClassInfoPtr@StyledScrollViewer@DirectUI@@SGPAUIClassInfo@2@XZ
  ?GetClassInfoPtr@TextGraphic@DirectUI@@SGPAUIClassInfo@2@XZ="C:\Windows\SysWOW64\dui70".?GetClassInfoPtr@TextGraphic@DirectUI@@SGPAUIClassInfo@2@XZ
  ?GetClassInfoPtr@Thumb@DirectUI@@SGPAUIClassInfo@2@XZ="C:\Windows\SysWOW64\dui70".?GetClassInfoPtr@Thumb@DirectUI@@SGPAUIClassInfo@2@XZ
  ?GetClassInfoPtr@TouchButton@DirectUI@@SGPAUIClassInfo@2@XZ="C:\Windows\SysWOW64\dui70".?GetClassInfoPtr@TouchButton@DirectUI@@SGPAUIClassInfo@2@XZ
  ?GetClassInfoPtr@TouchCheckBox@DirectUI@@SGPAUIClassInfo@2@XZ="C:\Windows\SysWOW64\dui70".?GetClassInfoPtr@TouchCheckBox@DirectUI@@SGPAUIClassInfo@2@XZ
  ?GetClassInfoPtr@TouchCheckBoxGlyph@DirectUI@@SGPAUIClassInfo@2@XZ="C:\Windows\SysWOW64\dui70".?GetClassInfoPtr@TouchCheckBoxGlyph@DirectUI@@SGPAUIClassInfo@2@XZ
  ?GetClassInfoPtr@TouchCommandButton@DirectUI@@SGPAUIClassInfo@2@XZ="C:\Windows\SysWOW64\dui70".?GetClassInfoPtr@TouchCommandButton@DirectUI@@SGPAUIClassInfo@2@XZ
  ?GetClassInfoPtr@TouchEdit2@DirectUI@@SGPAUIClassInfo@2@XZ="C:\Windows\SysWOW64\dui70".?GetClassInfoPtr@TouchEdit2@DirectUI@@SGPAUIClassInfo@2@XZ
  ?GetClassInfoPtr@TouchEditBase@DirectUI@@SGPAUIClassInfo@2@XZ="C:\Windows\SysWOW64\dui70".?GetClassInfoPtr@TouchEditBase@DirectUI@@SGPAUIClassInfo@2@XZ
  ?GetClassInfoPtr@TouchHWNDElement@DirectUI@@SGPAUIClassInfo@2@XZ="C:\Windows\SysWOW64\dui70".?GetClassInfoPtr@TouchHWNDElement@DirectUI@@SGPAUIClassInfo@2@XZ
  ?GetClassInfoPtr@TouchHyperLink@DirectUI@@SGPAUIClassInfo@2@XZ="C:\Windows\SysWOW64\dui70".?GetClassInfoPtr@TouchHyperLink@DirectUI@@SGPAUIClassInfo@2@XZ
  ?GetClassInfoPtr@TouchRepeatButton@DirectUI@@SGPAUIClassInfo@2@XZ="C:\Windows\SysWOW64\dui70".?GetClassInfoPtr@TouchRepeatButton@DirectUI@@SGPAUIClassInfo@2@XZ
  ?GetClassInfoPtr@TouchScrollBar@DirectUI@@SGPAUIClassInfo@2@XZ="C:\Windows\SysWOW64\dui70".?GetClassInfoPtr@TouchScrollBar@DirectUI@@SGPAUIClassInfo@2@XZ
  ?GetClassInfoPtr@TouchScrollViewer@DirectUI@@SGPAUIClassInfo@2@XZ="C:\Windows\SysWOW64\dui70".?GetClassInfoPtr@TouchScrollViewer@DirectUI@@SGPAUIClassInfo@2@XZ
  ?GetClassInfoPtr@TouchSelect@DirectUI@@SGPAUIClassInfo@2@XZ="C:\Windows\SysWOW64\dui70".?GetClassInfoPtr@TouchSelect@DirectUI@@SGPAUIClassInfo@2@XZ
  ?GetClassInfoPtr@TouchSelectItem@DirectUI@@SGPAUIClassInfo@2@XZ="C:\Windows\SysWOW64\dui70".?GetClassInfoPtr@TouchSelectItem@DirectUI@@SGPAUIClassInfo@2@XZ
  ?GetClassInfoPtr@TouchSlider@DirectUI@@SGPAUIClassInfo@2@XZ="C:\Windows\SysWOW64\dui70".?GetClassInfoPtr@TouchSlider@DirectUI@@SGPAUIClassInfo@2@XZ
  ?GetClassInfoPtr@TouchSwitch@DirectUI@@SGPAUIClassInfo@2@XZ="C:\Windows\SysWOW64\dui70".?GetClassInfoPtr@TouchSwitch@DirectUI@@SGPAUIClassInfo@2@XZ
  ?GetClassInfoPtr@UnknownElement@DirectUI@@SGPAUIClassInfo@2@XZ="C:\Windows\SysWOW64\dui70".?GetClassInfoPtr@UnknownElement@DirectUI@@SGPAUIClassInfo@2@XZ
  ?GetClassInfoPtr@Viewer@DirectUI@@SGPAUIClassInfo@2@XZ="C:\Windows\SysWOW64\dui70".?GetClassInfoPtr@Viewer@DirectUI@@SGPAUIClassInfo@2@XZ
  ?GetClassInfoPtr@XBaby@DirectUI@@SGPAUIClassInfo@2@XZ="C:\Windows\SysWOW64\dui70".?GetClassInfoPtr@XBaby@DirectUI@@SGPAUIClassInfo@2@XZ
  ?GetClassInfoPtr@XElement@DirectUI@@SGPAUIClassInfo@2@XZ="C:\Windows\SysWOW64\dui70".?GetClassInfoPtr@XElement@DirectUI@@SGPAUIClassInfo@2@XZ
  ?GetClassInfoW@AccessibleButton@DirectUI@@UAEPAUIClassInfo@2@XZ="C:\Windows\SysWOW64\dui70".?GetClassInfoW@AccessibleButton@DirectUI@@UAEPAUIClassInfo@2@XZ
  ?GetClassInfoW@AnimationStrip@DirectUI@@UAEPAUIClassInfo@2@XZ="C:\Windows\SysWOW64\dui70".?GetClassInfoW@AnimationStrip@DirectUI@@UAEPAUIClassInfo@2@XZ
  ?GetClassInfoW@AutoButton@DirectUI@@UAEPAUIClassInfo@2@XZ="C:\Windows\SysWOW64\dui70".?GetClassInfoW@AutoButton@DirectUI@@UAEPAUIClassInfo@2@XZ
  ?GetClassInfoW@BaseScrollViewer@DirectUI@@UAEPAUIClassInfo@2@XZ="C:\Windows\SysWOW64\dui70".?GetClassInfoW@BaseScrollViewer@DirectUI@@UAEPAUIClassInfo@2@XZ
  ?GetClassInfoW@Bind@DirectUI@@UAEPAUIClassInfo@2@XZ="C:\Windows\SysWOW64\dui70".?GetClassInfoW@Bind@DirectUI@@UAEPAUIClassInfo@2@XZ
  ?GetClassInfoW@Browser@DirectUI@@UAEPAUIClassInfo@2@XZ="C:\Windows\SysWOW64\dui70".?GetClassInfoW@Browser@DirectUI@@UAEPAUIClassInfo@2@XZ
  ?GetClassInfoW@Button@DirectUI@@UAEPAUIClassInfo@2@XZ="C:\Windows\SysWOW64\dui70".?GetClassInfoW@Button@DirectUI@@UAEPAUIClassInfo@2@XZ
  ?GetClassInfoW@CCAVI@DirectUI@@UAEPAUIClassInfo@2@XZ="C:\Windows\SysWOW64\dui70".?GetClassInfoW@CCAVI@DirectUI@@UAEPAUIClassInfo@2@XZ
  ?GetClassInfoW@CCBase@DirectUI@@UAEPAUIClassInfo@2@XZ="C:\Windows\SysWOW64\dui70".?GetClassInfoW@CCBase@DirectUI@@UAEPAUIClassInfo@2@XZ
  ?GetClassInfoW@CCBaseCheckRadioButton@DirectUI@@UAEPAUIClassInfo@2@XZ="C:\Windows\SysWOW64\dui70".?GetClassInfoW@CCBaseCheckRadioButton@DirectUI@@UAEPAUIClassInfo@2@XZ
  ?GetClassInfoW@CCBaseScrollBar@DirectUI@@UAEPAUIClassInfo@2@XZ="C:\Windows\SysWOW64\dui70".?GetClassInfoW@CCBaseScrollBar@DirectUI@@UAEPAUIClassInfo@2@XZ
  ?GetClassInfoW@CCCheckBox@DirectUI@@UAEPAUIClassInfo@2@XZ="C:\Windows\SysWOW64\dui70".?GetClassInfoW@CCCheckBox@DirectUI@@UAEPAUIClassInfo@2@XZ
  ?GetClassInfoW@CCCommandLink@DirectUI@@UAEPAUIClassInfo@2@XZ="C:\Windows\SysWOW64\dui70".?GetClassInfoW@CCCommandLink@DirectUI@@UAEPAUIClassInfo@2@XZ
  ?GetClassInfoW@CCHScrollBar@DirectUI@@UAEPAUIClassInfo@2@XZ="C:\Windows\SysWOW64\dui70".?GetClassInfoW@CCHScrollBar@DirectUI@@UAEPAUIClassInfo@2@XZ
  ?GetClassInfoW@CCListBox@DirectUI@@UAEPAUIClassInfo@2@XZ="C:\Windows\SysWOW64\dui70".?GetClassInfoW@CCListBox@DirectUI@@UAEPAUIClassInfo@2@XZ
  ?GetClassInfoW@CCListView@DirectUI@@UAEPAUIClassInfo@2@XZ="C:\Windows\SysWOW64\dui70".?GetClassInfoW@CCListView@DirectUI@@UAEPAUIClassInfo@2@XZ
  ?GetClassInfoW@CCProgressBar@DirectUI@@UAEPAUIClassInfo@2@XZ="C:\Windows\SysWOW64\dui70".?GetClassInfoW@CCProgressBar@DirectUI@@UAEPAUIClassInfo@2@XZ
  ?GetClassInfoW@CCPushButton@DirectUI@@UAEPAUIClassInfo@2@XZ="C:\Windows\SysWOW64\dui70".?GetClassInfoW@CCPushButton@DirectUI@@UAEPAUIClassInfo@2@XZ
  ?GetClassInfoW@CCRadioButton@DirectUI@@UAEPAUIClassInfo@2@XZ="C:\Windows\SysWOW64\dui70".?GetClassInfoW@CCRadioButton@DirectUI@@UAEPAUIClassInfo@2@XZ
  ?GetClassInfoW@CCSysLink@DirectUI@@UAEPAUIClassInfo@2@XZ="C:\Windows\SysWOW64\dui70".?GetClassInfoW@CCSysLink@DirectUI@@UAEPAUIClassInfo@2@XZ
  ?GetClassInfoW@CCTrackBar@DirectUI@@UAEPAUIClassInfo@2@XZ="C:\Windows\SysWOW64\dui70".?GetClassInfoW@CCTrackBar@DirectUI@@UAEPAUIClassInfo@2@XZ
  ?GetClassInfoW@CCTreeView@DirectUI@@UAEPAUIClassInfo@2@XZ="C:\Windows\SysWOW64\dui70".?GetClassInfoW@CCTreeView@DirectUI@@UAEPAUIClassInfo@2@XZ
  ?GetClassInfoW@CCVScrollBar@DirectUI@@UAEPAUIClassInfo@2@XZ="C:\Windows\SysWOW64\dui70".?GetClassInfoW@CCVScrollBar@DirectUI@@UAEPAUIClassInfo@2@XZ
  ?GetClassInfoW@CheckBoxGlyph@DirectUI@@UAEPAUIClassInfo@2@XZ="C:\Windows\SysWOW64\dui70".?GetClassInfoW@CheckBoxGlyph@DirectUI@@UAEPAUIClassInfo@2@XZ
  ?GetClassInfoW@Clipper@DirectUI@@UAEPAUIClassInfo@2@XZ="C:\Windows\SysWOW64\dui70".?GetClassInfoW@Clipper@DirectUI@@UAEPAUIClassInfo@2@XZ
  ?GetClassInfoW@Combobox@DirectUI@@UAEPAUIClassInfo@2@XZ="C:\Windows\SysWOW64\dui70".?GetClassInfoW@Combobox@DirectUI@@UAEPAUIClassInfo@2@XZ
  ?GetClassInfoW@DialogElement@DirectUI@@UAEPAUIClassInfo@2@XZ="C:\Windows\SysWOW64\dui70".?GetClassInfoW@DialogElement@DirectUI@@UAEPAUIClassInfo@2@XZ
  ?GetClassInfoW@Edit@DirectUI@@UAEPAUIClassInfo@2@XZ="C:\Windows\SysWOW64\dui70".?GetClassInfoW@Edit@DirectUI@@UAEPAUIClassInfo@2@XZ
  ?GetClassInfoW@Element@DirectUI@@UAEPAUIClassInfo@2@XZ="C:\Windows\SysWOW64\dui70".?GetClassInfoW@Element@DirectUI@@UAEPAUIClassInfo@2@XZ
  ?GetClassInfoW@ElementWithHWND@DirectUI@@UAEPAUIClassInfo@2@XZ="C:\Windows\SysWOW64\dui70".?GetClassInfoW@ElementWithHWND@DirectUI@@UAEPAUIClassInfo@2@XZ
  ?GetClassInfoW@Expandable@DirectUI@@UAEPAUIClassInfo@2@XZ="C:\Windows\SysWOW64\dui70".?GetClassInfoW@Expandable@DirectUI@@UAEPAUIClassInfo@2@XZ
  ?GetClassInfoW@Expando@DirectUI@@UAEPAUIClassInfo@2@XZ="C:\Windows\SysWOW64\dui70".?GetClassInfoW@Expando@DirectUI@@UAEPAUIClassInfo@2@XZ
  ?GetClassInfoW@ExpandoButtonGlyph@DirectUI@@UAEPAUIClassInfo@2@XZ="C:\Windows\SysWOW64\dui70".?GetClassInfoW@ExpandoButtonGlyph@DirectUI@@UAEPAUIClassInfo@2@XZ
  ?GetClassInfoW@HWNDElement@DirectUI@@UAEPAUIClassInfo@2@XZ="C:\Windows\SysWOW64\dui70".?GetClassInfoW@HWNDElement@DirectUI@@UAEPAUIClassInfo@2@XZ
  ?GetClassInfoW@HWNDHost@DirectUI@@UAEPAUIClassInfo@2@XZ="C:\Windows\SysWOW64\dui70".?GetClassInfoW@HWNDHost@DirectUI@@UAEPAUIClassInfo@2@XZ
  ?GetClassInfoW@ItemList@DirectUI@@UAEPAUIClassInfo@2@XZ="C:\Windows\SysWOW64\dui70".?GetClassInfoW@ItemList@DirectUI@@UAEPAUIClassInfo@2@XZ
  ?GetClassInfoW@Macro@DirectUI@@UAEPAUIClassInfo@2@XZ="C:\Windows\SysWOW64\dui70".?GetClassInfoW@Macro@DirectUI@@UAEPAUIClassInfo@2@XZ
  ?GetClassInfoW@ModernProgressBar@DirectUI@@UAEPAUIClassInfo@2@XZ="C:\Windows\SysWOW64\dui70".?GetClassInfoW@ModernProgressBar@DirectUI@@UAEPAUIClassInfo@2@XZ
  ?GetClassInfoW@ModernProgressRing@DirectUI@@UAEPAUIClassInfo@2@XZ="C:\Windows\SysWOW64\dui70".?GetClassInfoW@ModernProgressRing@DirectUI@@UAEPAUIClassInfo@2@XZ
  ?GetClassInfoW@Movie@DirectUI@@UAEPAUIClassInfo@2@XZ="C:\Windows\SysWOW64\dui70".?GetClassInfoW@Movie@DirectUI@@UAEPAUIClassInfo@2@XZ
  ?GetClassInfoW@Navigator@DirectUI@@UAEPAUIClassInfo@2@XZ="C:\Windows\SysWOW64\dui70".?GetClassInfoW@Navigator@DirectUI@@UAEPAUIClassInfo@2@XZ
  ?GetClassInfoW@PText@DirectUI@@UAEPAUIClassInfo@2@XZ="C:\Windows\SysWOW64\dui70".?GetClassInfoW@PText@DirectUI@@UAEPAUIClassInfo@2@XZ
  ?GetClassInfoW@Page@DirectUI@@UAEPAUIClassInfo@2@XZ="C:\Windows\SysWOW64\dui70".?GetClassInfoW@Page@DirectUI@@UAEPAUIClassInfo@2@XZ
  ?GetClassInfoW@Pages@DirectUI@@UAEPAUIClassInfo@2@XZ="C:\Windows\SysWOW64\dui70".?GetClassInfoW@Pages@DirectUI@@UAEPAUIClassInfo@2@XZ
  ?GetClassInfoW@Progress@DirectUI@@UAEPAUIClassInfo@2@XZ="C:\Windows\SysWOW64\dui70".?GetClassInfoW@Progress@DirectUI@@UAEPAUIClassInfo@2@XZ
  ?GetClassInfoW@PushButton@DirectUI@@UAEPAUIClassInfo@2@XZ="C:\Windows\SysWOW64\dui70".?GetClassInfoW@PushButton@DirectUI@@UAEPAUIClassInfo@2@XZ
  ?GetClassInfoW@RadioButtonGlyph@DirectUI@@UAEPAUIClassInfo@2@XZ="C:\Windows\SysWOW64\dui70".?GetClassInfoW@RadioButtonGlyph@DirectUI@@UAEPAUIClassInfo@2@XZ
  ?GetClassInfoW@RefPointElement@DirectUI@@UAEPAUIClassInfo@2@XZ="C:\Windows\SysWOW64\dui70".?GetClassInfoW@RefPointElement@DirectUI@@UAEPAUIClassInfo@2@XZ
  ?GetClassInfoW@RepeatButton@DirectUI@@UAEPAUIClassInfo@2@XZ="C:\Windows\SysWOW64\dui70".?GetClassInfoW@RepeatButton@DirectUI@@UAEPAUIClassInfo@2@XZ
  ?GetClassInfoW@Repeater@DirectUI@@UAEPAUIClassInfo@2@XZ="C:\Windows\SysWOW64\dui70".?GetClassInfoW@Repeater@DirectUI@@UAEPAUIClassInfo@2@XZ
  ?GetClassInfoW@RichText@DirectUI@@UAEPAUIClassInfo@2@XZ="C:\Windows\SysWOW64\dui70".?GetClassInfoW@RichText@DirectUI@@UAEPAUIClassInfo@2@XZ
  ?GetClassInfoW@ScrollBar@DirectUI@@UAEPAUIClassInfo@2@XZ="C:\Windows\SysWOW64\dui70".?GetClassInfoW@ScrollBar@DirectUI@@UAEPAUIClassInfo@2@XZ
  ?GetClassInfoW@ScrollViewer@DirectUI@@UAEPAUIClassInfo@2@XZ="C:\Windows\SysWOW64\dui70".?GetClassInfoW@ScrollViewer@DirectUI@@UAEPAUIClassInfo@2@XZ
  ?GetClassInfoW@Selector@DirectUI@@UAEPAUIClassInfo@2@XZ="C:\Windows\SysWOW64\dui70".?GetClassInfoW@Selector@DirectUI@@UAEPAUIClassInfo@2@XZ
  ?GetClassInfoW@SelectorNoDefault@DirectUI@@UAEPAUIClassInfo@2@XZ="C:\Windows\SysWOW64\dui70".?GetClassInfoW@SelectorNoDefault@DirectUI@@UAEPAUIClassInfo@2@XZ
  ?GetClassInfoW@SemanticZoomToggle@DirectUI@@UAEPAUIClassInfo@2@XZ="C:\Windows\SysWOW64\dui70".?GetClassInfoW@SemanticZoomToggle@DirectUI@@UAEPAUIClassInfo@2@XZ
  ?GetClassInfoW@StyledScrollViewer@DirectUI@@UAEPAUIClassInfo@2@XZ="C:\Windows\SysWOW64\dui70".?GetClassInfoW@StyledScrollViewer@DirectUI@@UAEPAUIClassInfo@2@XZ
  ?GetClassInfoW@TextGraphic@DirectUI@@UAEPAUIClassInfo@2@XZ="C:\Windows\SysWOW64\dui70".?GetClassInfoW@TextGraphic@DirectUI@@UAEPAUIClassInfo@2@XZ
  ?GetClassInfoW@Thumb@DirectUI@@UAEPAUIClassInfo@2@XZ="C:\Windows\SysWOW64\dui70".?GetClassInfoW@Thumb@DirectUI@@UAEPAUIClassInfo@2@XZ
  ?GetClassInfoW@TouchButton@DirectUI@@UAEPAUIClassInfo@2@XZ="C:\Windows\SysWOW64\dui70".?GetClassInfoW@TouchButton@DirectUI@@UAEPAUIClassInfo@2@XZ
  ?GetClassInfoW@TouchCheckBox@DirectUI@@UAEPAUIClassInfo@2@XZ="C:\Windows\SysWOW64\dui70".?GetClassInfoW@TouchCheckBox@DirectUI@@UAEPAUIClassInfo@2@XZ
  ?GetClassInfoW@TouchCheckBoxGlyph@DirectUI@@UAEPAUIClassInfo@2@XZ="C:\Windows\SysWOW64\dui70".?GetClassInfoW@TouchCheckBoxGlyph@DirectUI@@UAEPAUIClassInfo@2@XZ
  ?GetClassInfoW@TouchCommandButton@DirectUI@@UAEPAUIClassInfo@2@XZ="C:\Windows\SysWOW64\dui70".?GetClassInfoW@TouchCommandButton@DirectUI@@UAEPAUIClassInfo@2@XZ
  ?GetClassInfoW@TouchEdit2@DirectUI@@UAEPAUIClassInfo@2@XZ="C:\Windows\SysWOW64\dui70".?GetClassInfoW@TouchEdit2@DirectUI@@UAEPAUIClassInfo@2@XZ
  ?GetClassInfoW@TouchEditBase@DirectUI@@UAEPAUIClassInfo@2@XZ="C:\Windows\SysWOW64\dui70".?GetClassInfoW@TouchEditBase@DirectUI@@UAEPAUIClassInfo@2@XZ
  ?GetClassInfoW@TouchHWNDElement@DirectUI@@UAEPAUIClassInfo@2@XZ="C:\Windows\SysWOW64\dui70".?GetClassInfoW@TouchHWNDElement@DirectUI@@UAEPAUIClassInfo@2@XZ
  ?GetClassInfoW@TouchHyperLink@DirectUI@@UAEPAUIClassInfo@2@XZ="C:\Windows\SysWOW64\dui70".?GetClassInfoW@TouchHyperLink@DirectUI@@UAEPAUIClassInfo@2@XZ
  ?GetClassInfoW@TouchRepeatButton@DirectUI@@UAEPAUIClassInfo@2@XZ="C:\Windows\SysWOW64\dui70".?GetClassInfoW@TouchRepeatButton@DirectUI@@UAEPAUIClassInfo@2@XZ
  ?GetClassInfoW@TouchScrollBar@DirectUI@@UAEPAUIClassInfo@2@XZ="C:\Windows\SysWOW64\dui70".?GetClassInfoW@TouchScrollBar@DirectUI@@UAEPAUIClassInfo@2@XZ
  ?GetClassInfoW@TouchScrollViewer@DirectUI@@UAEPAUIClassInfo@2@XZ="C:\Windows\SysWOW64\dui70".?GetClassInfoW@TouchScrollViewer@DirectUI@@UAEPAUIClassInfo@2@XZ
  ?GetClassInfoW@TouchSelect@DirectUI@@UAEPAUIClassInfo@2@XZ="C:\Windows\SysWOW64\dui70".?GetClassInfoW@TouchSelect@DirectUI@@UAEPAUIClassInfo@2@XZ
  ?GetClassInfoW@TouchSelectItem@DirectUI@@UAEPAUIClassInfo@2@XZ="C:\Windows\SysWOW64\dui70".?GetClassInfoW@TouchSelectItem@DirectUI@@UAEPAUIClassInfo@2@XZ
  ?GetClassInfoW@TouchSlider@DirectUI@@UAEPAUIClassInfo@2@XZ="C:\Windows\SysWOW64\dui70".?GetClassInfoW@TouchSlider@DirectUI@@UAEPAUIClassInfo@2@XZ
  ?GetClassInfoW@TouchSwitch@DirectUI@@UAEPAUIClassInfo@2@XZ="C:\Windows\SysWOW64\dui70".?GetClassInfoW@TouchSwitch@DirectUI@@UAEPAUIClassInfo@2@XZ
  ?GetClassInfoW@UnknownElement@DirectUI@@UAEPAUIClassInfo@2@XZ="C:\Windows\SysWOW64\dui70".?GetClassInfoW@UnknownElement@DirectUI@@UAEPAUIClassInfo@2@XZ
  ?GetClassInfoW@Viewer@DirectUI@@UAEPAUIClassInfo@2@XZ="C:\Windows\SysWOW64\dui70".?GetClassInfoW@Viewer@DirectUI@@UAEPAUIClassInfo@2@XZ
  ?GetClassInfoW@XBaby@DirectUI@@UAEPAUIClassInfo@2@XZ="C:\Windows\SysWOW64\dui70".?GetClassInfoW@XBaby@DirectUI@@UAEPAUIClassInfo@2@XZ
  ?GetClassInfoW@XElement@DirectUI@@UAEPAUIClassInfo@2@XZ="C:\Windows\SysWOW64\dui70".?GetClassInfoW@XElement@DirectUI@@UAEPAUIClassInfo@2@XZ
  ?GetClickDevice@TouchButton@DirectUI@@QAE?AW4ClickDevice@12@XZ="C:\Windows\SysWOW64\dui70".?GetClickDevice@TouchButton@DirectUI@@QAE?AW4ClickDevice@12@XZ
  ?GetClickablePoint@Element@DirectUI@@QAE_NPAUtagPOINT@@@Z="C:\Windows\SysWOW64\dui70".?GetClickablePoint@Element@DirectUI@@QAE_NPAUtagPOINT@@@Z
  ?GetClientAccessibleImpl@HWNDHost@DirectUI@@QAEJPAPAUIAccessible@@@Z="C:\Windows\SysWOW64\dui70".?GetClientAccessibleImpl@HWNDHost@DirectUI@@QAEJPAPAUIAccessible@@@Z
  ?GetColorFromProperty@DirectUI@@YGJPAVElement@1@PBUPropertyInfo@1@HPAK@Z="C:\Windows\SysWOW64\dui70".?GetColorFromProperty@DirectUI@@YGJPAVElement@1@PBUPropertyInfo@1@HPAK@Z
  ?GetColorFromValue@DirectUI@@YGJPAVElement@1@PAVValue@1@PAK@Z="C:\Windows\SysWOW64\dui70".?GetColorFromValue@DirectUI@@YGJPAVElement@1@PAVValue@1@PAK@Z
  ?GetColorTrans@Value@DirectUI@@SGPAV12@XZ="C:\Windows\SysWOW64\dui70".?GetColorTrans@Value@DirectUI@@SGPAV12@XZ
  ?GetColorize@Element@DirectUI@@QAEHXZ="C:\Windows\SysWOW64\dui70".?GetColorize@Element@DirectUI@@QAEHXZ
  ?GetColumn@GridItemProxy@DirectUI@@AAEJPAH@Z="C:\Windows\SysWOW64\dui70".?GetColumn@GridItemProxy@DirectUI@@AAEJPAH@Z
  ?GetColumnCount@GridProxy@DirectUI@@AAEJPAH@Z="C:\Windows\SysWOW64\dui70".?GetColumnCount@GridProxy@DirectUI@@AAEJPAH@Z
  ?GetColumnHeaderItems@TableItemProvider@DirectUI@@UAGJPAPAUtagSAFEARRAY@@@Z="C:\Windows\SysWOW64\dui70".?GetColumnHeaderItems@TableItemProvider@DirectUI@@UAGJPAPAUtagSAFEARRAY@@@Z
  ?GetColumnHeaders@TableProvider@DirectUI@@UAGJPAPAUtagSAFEARRAY@@@Z="C:\Windows\SysWOW64\dui70".?GetColumnHeaders@TableProvider@DirectUI@@UAGJPAPAUtagSAFEARRAY@@@Z
  ?GetCommonDrawTextFlags@Element@DirectUI@@AAEIH@Z="C:\Windows\SysWOW64\dui70".?GetCommonDrawTextFlags@Element@DirectUI@@AAEIH@Z
  ?GetCompositingQuality@Movie@DirectUI@@QAEHXZ="C:\Windows\SysWOW64\dui70".?GetCompositingQuality@Movie@DirectUI@@QAEHXZ
  ?GetConnect@Bind@DirectUI@@QAEPBGPAPAVValue@2@@Z="C:\Windows\SysWOW64\dui70".?GetConnect@Bind@DirectUI@@QAEPBGPAPAVValue@2@@Z
  ?GetContainingGrid@GridItemProxy@DirectUI@@AAEJPAPAUIRawElementProviderSimple@@@Z="C:\Windows\SysWOW64\dui70".?GetContainingGrid@GridItemProxy@DirectUI@@AAEJPAPAUIRawElementProviderSimple@@@Z
  ?GetContent@ElementProxy@DirectUI@@IAEJPAUtagVARIANT@@PAUIAccessible@@@Z="C:\Windows\SysWOW64\dui70".?GetContent@ElementProxy@DirectUI@@IAEJPAUtagVARIANT@@PAUIAccessible@@@Z
  ?GetContentAlign@Element@DirectUI@@QAEHXZ="C:\Windows\SysWOW64\dui70".?GetContentAlign@Element@DirectUI@@QAEHXZ
  ?GetContentCrossfadeOpacity@TouchScrollViewer@DirectUI@@QAEMXZ="C:\Windows\SysWOW64\dui70".?GetContentCrossfadeOpacity@TouchScrollViewer@DirectUI@@QAEMXZ
  ?GetContentDesiredSize@XBaby@DirectUI@@UAE?AUtagSIZE@@HH@Z="C:\Windows\SysWOW64\dui70".?GetContentDesiredSize@XBaby@DirectUI@@UAE?AUtagSIZE@@HH@Z
  ?GetContentSize@CCBase@DirectUI@@UAE?AUtagSIZE@@HHPAVSurface@2@@Z="C:\Windows\SysWOW64\dui70".?GetContentSize@CCBase@DirectUI@@UAE?AUtagSIZE@@HHPAVSurface@2@@Z
  ?GetContentSize@CCBaseCheckRadioButton@DirectUI@@UAE?AUtagSIZE@@HHPAVSurface@2@@Z="C:\Windows\SysWOW64\dui70".?GetContentSize@CCBaseCheckRadioButton@DirectUI@@UAE?AUtagSIZE@@HHPAVSurface@2@@Z
  ?GetContentSize@CCCommandLink@DirectUI@@UAE?AUtagSIZE@@HHPAVSurface@2@@Z="C:\Windows\SysWOW64\dui70".?GetContentSize@CCCommandLink@DirectUI@@UAE?AUtagSIZE@@HHPAVSurface@2@@Z
  ?GetContentSize@CCHScrollBar@DirectUI@@UAE?AUtagSIZE@@HHPAVSurface@2@@Z="C:\Windows\SysWOW64\dui70".?GetContentSize@CCHScrollBar@DirectUI@@UAE?AUtagSIZE@@HHPAVSurface@2@@Z
  ?GetContentSize@CCListBox@DirectUI@@UAE?AUtagSIZE@@HHPAVSurface@2@@Z="C:\Windows\SysWOW64\dui70".?GetContentSize@CCListBox@DirectUI@@UAE?AUtagSIZE@@HHPAVSurface@2@@Z
  ?GetContentSize@CCListView@DirectUI@@UAE?AUtagSIZE@@HHPAVSurface@2@@Z="C:\Windows\SysWOW64\dui70".?GetContentSize@CCListView@DirectUI@@UAE?AUtagSIZE@@HHPAVSurface@2@@Z
  ?GetContentSize@CCPushButton@DirectUI@@UAE?AUtagSIZE@@HHPAVSurface@2@@Z="C:\Windows\SysWOW64\dui70".?GetContentSize@CCPushButton@DirectUI@@UAE?AUtagSIZE@@HHPAVSurface@2@@Z
  ?GetContentSize@CCSysLink@DirectUI@@UAE?AUtagSIZE@@HHPAVSurface@2@@Z="C:\Windows\SysWOW64\dui70".?GetContentSize@CCSysLink@DirectUI@@UAE?AUtagSIZE@@HHPAVSurface@2@@Z
  ?GetContentSize@CCTreeView@DirectUI@@UAE?AUtagSIZE@@HHPAVSurface@2@@Z="C:\Windows\SysWOW64\dui70".?GetContentSize@CCTreeView@DirectUI@@UAE?AUtagSIZE@@HHPAVSurface@2@@Z
  ?GetContentSize@CCVScrollBar@DirectUI@@UAE?AUtagSIZE@@HHPAVSurface@2@@Z="C:\Windows\SysWOW64\dui70".?GetContentSize@CCVScrollBar@DirectUI@@UAE?AUtagSIZE@@HHPAVSurface@2@@Z
  ?GetContentSize@Combobox@DirectUI@@UAE?AUtagSIZE@@HHPAVSurface@2@@Z="C:\Windows\SysWOW64\dui70".?GetContentSize@Combobox@DirectUI@@UAE?AUtagSIZE@@HHPAVSurface@2@@Z
  ?GetContentSize@Edit@DirectUI@@UAE?AUtagSIZE@@HHPAVSurface@2@@Z="C:\Windows\SysWOW64\dui70".?GetContentSize@Edit@DirectUI@@UAE?AUtagSIZE@@HHPAVSurface@2@@Z
  ?GetContentSize@Element@DirectUI@@UAE?AUtagSIZE@@HHPAVSurface@2@@Z="C:\Windows\SysWOW64\dui70".?GetContentSize@Element@DirectUI@@UAE?AUtagSIZE@@HHPAVSurface@2@@Z
  ?GetContentSize@Progress@DirectUI@@UAE?AUtagSIZE@@HHPAVSurface@2@@Z="C:\Windows\SysWOW64\dui70".?GetContentSize@Progress@DirectUI@@UAE?AUtagSIZE@@HHPAVSurface@2@@Z
  ?GetContentSize@PushButton@DirectUI@@UAE?AUtagSIZE@@HHPAVSurface@2@@Z="C:\Windows\SysWOW64\dui70".?GetContentSize@PushButton@DirectUI@@UAE?AUtagSIZE@@HHPAVSurface@2@@Z
  ?GetContentSize@RichText@DirectUI@@UAE?AUtagSIZE@@HHPAVSurface@2@@Z="C:\Windows\SysWOW64\dui70".?GetContentSize@RichText@DirectUI@@UAE?AUtagSIZE@@HHPAVSurface@2@@Z
  ?GetContentString@Element@DirectUI@@QAEPBGPAPAVValue@2@@Z="C:\Windows\SysWOW64\dui70".?GetContentString@Element@DirectUI@@QAEPBGPAPAVValue@2@@Z
  ?GetContentStringAsDisplayed@Edit@DirectUI@@UAEPBGPAPAVValue@2@@Z="C:\Windows\SysWOW64\dui70".?GetContentStringAsDisplayed@Edit@DirectUI@@UAEPBGPAPAVValue@2@@Z
  ?GetContentStringAsDisplayed@Element@DirectUI@@UAEPBGPAPAVValue@2@@Z="C:\Windows\SysWOW64\dui70".?GetContentStringAsDisplayed@Element@DirectUI@@UAEPBGPAPAVValue@2@@Z
  ?GetContentStringAsDisplayed@TextGraphic@DirectUI@@UAEPBGPAPAVValue@2@@Z="C:\Windows\SysWOW64\dui70".?GetContentStringAsDisplayed@TextGraphic@DirectUI@@UAEPBGPAPAVValue@2@@Z
  ?GetContentStringAsDisplayed@TouchEditBase@DirectUI@@UAEPBGPAPAVValue@2@@Z="C:\Windows\SysWOW64\dui70".?GetContentStringAsDisplayed@TouchEditBase@DirectUI@@UAEPBGPAPAVValue@2@@Z
  ?GetControlType@ElementProxy@DirectUI@@IAEXPAUtagVARIANT@@PAUIAccessible@@@Z="C:\Windows\SysWOW64\dui70".?GetControlType@ElementProxy@DirectUI@@IAEXPAUtagVARIANT@@PAUIAccessible@@@Z
  ?GetControllerFor@TouchEditBase@DirectUI@@UAEJPAPAUIUnknown@@@Z="C:\Windows\SysWOW64\dui70".?GetControllerFor@TouchEditBase@DirectUI@@UAEJPAPAUIUnknown@@@Z
  ?GetCount@CCListBox@DirectUI@@QAEHXZ="C:\Windows\SysWOW64\dui70".?GetCount@CCListBox@DirectUI@@QAEHXZ
  ?GetCount@Pages@DirectUI@@QAEIXZ="C:\Windows\SysWOW64\dui70".?GetCount@Pages@DirectUI@@QAEIXZ
  ?GetCreationFlags@XElement@DirectUI@@UAEIXZ="C:\Windows\SysWOW64\dui70".?GetCreationFlags@XElement@DirectUI@@UAEIXZ
  ?GetCurrentCols@GridLayout@DirectUI@@IAEIH@Z="C:\Windows\SysWOW64\dui70".?GetCurrentCols@GridLayout@DirectUI@@IAEIH@Z
  ?GetCurrentCols@GridLayout@DirectUI@@IAEIPAVElement@2@@Z="C:\Windows\SysWOW64\dui70".?GetCurrentCols@GridLayout@DirectUI@@IAEIPAVElement@2@@Z
  ?GetCurrentPage@Browser@DirectUI@@QAEPAVElement@2@XZ="C:\Windows\SysWOW64\dui70".?GetCurrentPage@Browser@DirectUI@@QAEPAVElement@2@XZ
  ?GetCurrentPageID@Browser@DirectUI@@QAEGXZ="C:\Windows\SysWOW64\dui70".?GetCurrentPageID@Browser@DirectUI@@QAEGXZ
  ?GetCurrentRows@GridLayout@DirectUI@@IAEIH@Z="C:\Windows\SysWOW64\dui70".?GetCurrentRows@GridLayout@DirectUI@@IAEIH@Z
  ?GetCurrentRows@GridLayout@DirectUI@@IAEIPAVElement@2@@Z="C:\Windows\SysWOW64\dui70".?GetCurrentRows@GridLayout@DirectUI@@IAEIPAVElement@2@@Z
  ?GetCursor@Value@DirectUI@@QAEPAUCursor@2@XZ="C:\Windows\SysWOW64\dui70".?GetCursor@Value@DirectUI@@QAEPAUCursor@2@XZ
  ?GetCursorNull@Value@DirectUI@@SGPAV12@XZ="C:\Windows\SysWOW64\dui70".?GetCursorNull@Value@DirectUI@@SGPAV12@XZ
  ?GetDPI@Element@DirectUI@@QAEHXZ="C:\Windows\SysWOW64\dui70".?GetDPI@Element@DirectUI@@QAEHXZ
  ?GetDataEntry@Macro@DirectUI@@QAEPAUIDataEntry@2@XZ="C:\Windows\SysWOW64\dui70".?GetDataEntry@Macro@DirectUI@@QAEPAUIDataEntry@2@XZ
  ?GetDblListEmpty@Value@DirectUI@@SGPAV12@XZ="C:\Windows\SysWOW64\dui70".?GetDblListEmpty@Value@DirectUI@@SGPAV12@XZ
  ?GetDefaultButton@DialogElement@DirectUI@@UAEPAVElement@2@XZ="C:\Windows\SysWOW64\dui70".?GetDefaultButton@DialogElement@DirectUI@@UAEPAVElement@2@XZ
  ?GetDefaultButton@DialogElementCore@DirectUI@@QAEPAVElement@2@XZ="C:\Windows\SysWOW64\dui70".?GetDefaultButton@DialogElementCore@DirectUI@@QAEPAVElement@2@XZ
  ?GetDefaultButtonTracking@DialogElement@DirectUI@@UAE_NXZ="C:\Windows\SysWOW64\dui70".?GetDefaultButtonTracking@DialogElement@DirectUI@@UAE_NXZ
  ?GetDefaultButtonTracking@XBaby@DirectUI@@UAE_NXZ="C:\Windows\SysWOW64\dui70".?GetDefaultButtonTracking@XBaby@DirectUI@@UAE_NXZ
  ?GetDeferObject@Element@DirectUI@@QAEPAVDeferCycle@2@XZ="C:\Windows\SysWOW64\dui70".?GetDeferObject@Element@DirectUI@@QAEPAVDeferCycle@2@XZ
  ?GetDesiredSize@Element@DirectUI@@QAEPBUtagSIZE@@XZ="C:\Windows\SysWOW64\dui70".?GetDesiredSize@Element@DirectUI@@QAEPBUtagSIZE@@XZ
  ?GetDesiredSize@XProvider@DirectUI@@UAGJHHPAUtagSIZE@@@Z="C:\Windows\SysWOW64\dui70".?GetDesiredSize@XProvider@DirectUI@@UAGJHHPAUtagSIZE@@@Z
  ?GetDirection@Element@DirectUI@@QAEHXZ="C:\Windows\SysWOW64\dui70".?GetDirection@Element@DirectUI@@QAEHXZ
  ?GetDirty@Edit@DirectUI@@QAE_NXZ="C:\Windows\SysWOW64\dui70".?GetDirty@Edit@DirectUI@@QAE_NXZ
  ?GetDisableMouseInRectCheck@TouchRepeatButton@DirectUI@@QAE_NXZ="C:\Windows\SysWOW64\dui70".?GetDisableMouseInRectCheck@TouchRepeatButton@DirectUI@@QAE_NXZ
  ?GetDispatchFromElement@DuiAccessible@DirectUI@@IAEJPAVElement@2@PAPAUIDispatch@@@Z="C:\Windows\SysWOW64\dui70".?GetDispatchFromElement@DuiAccessible@DirectUI@@IAEJPAVElement@2@PAPAUIDispatch@@@Z
  ?GetDisplayNode@Element@DirectUI@@QAEPAUHGADGET__@@XZ="C:\Windows\SysWOW64\dui70".?GetDisplayNode@Element@DirectUI@@QAEPAUHGADGET__@@XZ
  ?GetDoubleList@Value@DirectUI@@QAEPAV?$DynamicArray@N$0A@@2@XZ="C:\Windows\SysWOW64\dui70".?GetDoubleList@Value@DirectUI@@QAEPAV?$DynamicArray@N$0A@@2@XZ
  ?GetDrawOutlines@Movie@DirectUI@@QAE_NXZ="C:\Windows\SysWOW64\dui70".?GetDrawOutlines@Movie@DirectUI@@QAE_NXZ
  ?GetEdgeHighlightColor@Element@DirectUI@@QAEPBUFill@2@PAPAVValue@2@@Z="C:\Windows\SysWOW64\dui70".?GetEdgeHighlightColor@Element@DirectUI@@QAEPBUFill@2@PAPAVValue@2@@Z
  ?GetEdgeHighlightThickness@Element@DirectUI@@QAEPBUtagRECT@@PAPAVValue@2@@Z="C:\Windows\SysWOW64\dui70".?GetEdgeHighlightThickness@Element@DirectUI@@QAEPBUtagRECT@@PAPAVValue@2@@Z
  ?GetElListNull@Value@DirectUI@@SGPAV12@XZ="C:\Windows\SysWOW64\dui70".?GetElListNull@Value@DirectUI@@SGPAV12@XZ
  ?GetElement@CCBaseScrollBar@DirectUI@@UAEPAVElement@2@XZ="C:\Windows\SysWOW64\dui70".?GetElement@CCBaseScrollBar@DirectUI@@UAEPAVElement@2@XZ
  ?GetElement@ElementProvider@DirectUI@@UAEPDVElement@2@XZ="C:\Windows\SysWOW64\dui70".?GetElement@ElementProvider@DirectUI@@UAEPDVElement@2@XZ
  ?GetElement@NativeHWNDHost@DirectUI@@QAEPAVElement@2@XZ="C:\Windows\SysWOW64\dui70".?GetElement@NativeHWNDHost@DirectUI@@QAEPAVElement@2@XZ
  ?GetElement@ScrollBar@DirectUI@@UAEPAVElement@2@XZ="C:\Windows\SysWOW64\dui70".?GetElement@ScrollBar@DirectUI@@UAEPAVElement@2@XZ
  ?GetElement@TaskPage@DirectUI@@IAEPAVElement@2@XZ="C:\Windows\SysWOW64\dui70".?GetElement@TaskPage@DirectUI@@IAEPAVElement@2@XZ
  ?GetElement@Value@DirectUI@@QAEPAVElement@2@XZ="C:\Windows\SysWOW64\dui70".?GetElement@Value@DirectUI@@QAEPAVElement@2@XZ
  ?GetElement@XHost@DirectUI@@QAEPAVElement@2@XZ="C:\Windows\SysWOW64\dui70".?GetElement@XHost@DirectUI@@QAEPAVElement@2@XZ
  ?GetElementKey@ElementProvider@DirectUI@@QAEPBVElement@2@XZ="C:\Windows\SysWOW64\dui70".?GetElementKey@ElementProvider@DirectUI@@QAEPBVElement@2@XZ
  ?GetElementList@Value@DirectUI@@QAEPAV?$DynamicArray@PAVElement@DirectUI@@$0A@@2@XZ="C:\Windows\SysWOW64\dui70".?GetElementList@Value@DirectUI@@QAEPAV?$DynamicArray@PAVElement@DirectUI@@$0A@@2@XZ
  ?GetElementMovesOnIHMNotify@TouchEditBase@DirectUI@@QAE_NXZ="C:\Windows\SysWOW64\dui70".?GetElementMovesOnIHMNotify@TouchEditBase@DirectUI@@QAE_NXZ
  ?GetElementNull@Value@DirectUI@@SGPAV12@XZ="C:\Windows\SysWOW64\dui70".?GetElementNull@Value@DirectUI@@SGPAV12@XZ
  ?GetElementProviderImpl@Element@DirectUI@@UAEJPAVInvokeHelper@2@PAPAVElementProvider@2@@Z="C:\Windows\SysWOW64\dui70".?GetElementProviderImpl@Element@DirectUI@@UAEJPAVInvokeHelper@2@PAPAVElementProvider@2@@Z
  ?GetElementProviderImpl@TouchSelect@DirectUI@@UAEJPAVInvokeHelper@2@PAPAVElementProvider@2@@Z="C:\Windows\SysWOW64\dui70".?GetElementProviderImpl@TouchSelect@DirectUI@@UAEJPAVInvokeHelper@2@PAPAVElementProvider@2@@Z
  ?GetElementProviderImpl@XBaby@DirectUI@@UAEJPAVInvokeHelper@2@PAPAVElementProvider@2@@Z="C:\Windows\SysWOW64\dui70".?GetElementProviderImpl@XBaby@DirectUI@@UAEJPAVInvokeHelper@2@PAPAVElementProvider@2@@Z
  ?GetElementScaleFactor@Element@DirectUI@@QAEMXZ="C:\Windows\SysWOW64\dui70".?GetElementScaleFactor@Element@DirectUI@@QAEMXZ
  ?GetElementScaledFloat@Value@DirectUI@@QAEMPAVElement@2@@Z="C:\Windows\SysWOW64\dui70".?GetElementScaledFloat@Value@DirectUI@@QAEMPAVElement@2@@Z
  ?GetElementScaledInt@Value@DirectUI@@QAEHPAVElement@2@@Z="C:\Windows\SysWOW64\dui70".?GetElementScaledInt@Value@DirectUI@@QAEHPAVElement@2@@Z
  ?GetElementScaledPoint@Value@DirectUI@@QAEXPAVElement@2@PAUtagPOINT@@@Z="C:\Windows\SysWOW64\dui70".?GetElementScaledPoint@Value@DirectUI@@QAEXPAVElement@2@PAUtagPOINT@@@Z
  ?GetElementScaledRect@Value@DirectUI@@QAEXPAVElement@2@PAUtagRECT@@@Z="C:\Windows\SysWOW64\dui70".?GetElementScaledRect@Value@DirectUI@@QAEXPAVElement@2@PAUtagRECT@@@Z
  ?GetElementScaledSize@Value@DirectUI@@QAEXPAVElement@2@PAUtagSIZE@@@Z="C:\Windows\SysWOW64\dui70".?GetElementScaledSize@Value@DirectUI@@QAEXPAVElement@2@PAUtagSIZE@@@Z
  ?GetEmbeddedFragmentRoots@ElementProvider@DirectUI@@UAGJPAPAUtagSAFEARRAY@@@Z="C:\Windows\SysWOW64\dui70".?GetEmbeddedFragmentRoots@ElementProvider@DirectUI@@UAGJPAPAUtagSAFEARRAY@@@Z
  ?GetEnabled@Element@DirectUI@@QAE_NXZ="C:\Windows\SysWOW64\dui70".?GetEnabled@Element@DirectUI@@QAE_NXZ
  ?GetEncodedContentString@Element@DirectUI@@QAEJPAGI@Z="C:\Windows\SysWOW64\dui70".?GetEncodedContentString@Element@DirectUI@@QAEJPAGI@Z
  ?GetEncodedContentStringLength@Element@DirectUI@@QAEIXZ="C:\Windows\SysWOW64\dui70".?GetEncodedContentStringLength@Element@DirectUI@@QAEIXZ
  ?GetEncodedString@Value@DirectUI@@QAEJPAGI@Z="C:\Windows\SysWOW64\dui70".?GetEncodedString@Value@DirectUI@@QAEJPAGI@Z
  ?GetEncodedStringLength@Value@DirectUI@@QAEIXZ="C:\Windows\SysWOW64\dui70".?GetEncodedStringLength@Value@DirectUI@@QAEIXZ
  ?GetEnforceSize@PushButton@DirectUI@@QAE_NXZ="C:\Windows\SysWOW64\dui70".?GetEnforceSize@PushButton@DirectUI@@QAE_NXZ
  ?GetExpand@Macro@DirectUI@@QAEPBGPAPAVValue@2@@Z="C:\Windows\SysWOW64\dui70".?GetExpand@Macro@DirectUI@@QAEPBGPAPAVValue@2@@Z
  ?GetExpandCollapseState@EventManager@DirectUI@@CGXPAUtagVARIANT@@@Z="C:\Windows\SysWOW64\dui70".?GetExpandCollapseState@EventManager@DirectUI@@CGXPAUtagVARIANT@@@Z
  ?GetExpanded@Expandable@DirectUI@@QAE_NXZ="C:\Windows\SysWOW64\dui70".?GetExpanded@Expandable@DirectUI@@QAE_NXZ
  ?GetExprNull@Value@DirectUI@@SGPAV12@XZ="C:\Windows\SysWOW64\dui70".?GetExprNull@Value@DirectUI@@SGPAV12@XZ
  ?GetExpression@Value@DirectUI@@QAEPAVExpression@2@XZ="C:\Windows\SysWOW64\dui70".?GetExpression@Value@DirectUI@@QAEPAVExpression@2@XZ
  ?GetExtent@Element@DirectUI@@QAEPBUtagSIZE@@PAPAVValue@2@@Z="C:\Windows\SysWOW64\dui70".?GetExtent@Element@DirectUI@@QAEPBUtagSIZE@@PAPAVValue@2@@Z
  ?GetFactory@RichText@DirectUI@@QAEPAUIDWriteFactory@@XZ="C:\Windows\SysWOW64\dui70".?GetFactory@RichText@DirectUI@@QAEPAUIDWriteFactory@@XZ
  ?GetFactoryLock@Element@DirectUI@@SGPAU_RTL_CRITICAL_SECTION@@XZ="C:\Windows\SysWOW64\dui70".?GetFactoryLock@Element@DirectUI@@SGPAU_RTL_CRITICAL_SECTION@@XZ
  ?GetFill@Value@DirectUI@@QAEPBUFill@2@XZ="C:\Windows\SysWOW64\dui70".?GetFill@Value@DirectUI@@QAEPBUFill@2@XZ
  ?GetFillpartElement@TouchSlider@DirectUI@@QAEPAVElement@2@XZ="C:\Windows\SysWOW64\dui70".?GetFillpartElement@TouchSlider@DirectUI@@QAEPAVElement@2@XZ
  ?GetFilterOnPaste@TouchEditBase@DirectUI@@QAE_NXZ="C:\Windows\SysWOW64\dui70".?GetFilterOnPaste@TouchEditBase@DirectUI@@QAE_NXZ
  ?GetFlags@TouchHWNDElement@DirectUI@@QAE?AW4TouchHWNDElementFlags@2@XZ="C:\Windows\SysWOW64\dui70".?GetFlags@TouchHWNDElement@DirectUI@@QAE?AW4TouchHWNDElementFlags@2@XZ
  ?GetFloat@Value@DirectUI@@QAEMXZ="C:\Windows\SysWOW64\dui70".?GetFloat@Value@DirectUI@@QAEMXZ
  ?GetFloatOne@Value@DirectUI@@SGPAV12@XZ="C:\Windows\SysWOW64\dui70".?GetFloatOne@Value@DirectUI@@SGPAV12@XZ
  ?GetFloatZero@Value@DirectUI@@SGPAV12@XZ="C:\Windows\SysWOW64\dui70".?GetFloatZero@Value@DirectUI@@SGPAV12@XZ
  ?GetFocus@HWNDElementProvider@DirectUI@@UAGJPAPAUIRawElementProviderFragment@@@Z="C:\Windows\SysWOW64\dui70".?GetFocus@HWNDElementProvider@DirectUI@@UAGJPAPAUIRawElementProviderFragment@@@Z
  ?GetFocus@HWNDElementProxy@DirectUI@@IAEJPAPAUIRawElementProviderFragment@@@Z="C:\Windows\SysWOW64\dui70".?GetFocus@HWNDElementProxy@DirectUI@@IAEJPAPAUIRawElementProviderFragment@@@Z
  ?GetFocusableElement@XBaby@DirectUI@@UAEPAVElement@2@XZ="C:\Windows\SysWOW64\dui70".?GetFocusableElement@XBaby@DirectUI@@UAEPAVElement@2@XZ
  ?GetFocusedHWNDElement@HWNDElement@DirectUI@@SGPAV12@XZ="C:\Windows\SysWOW64\dui70".?GetFocusedHWNDElement@HWNDElement@DirectUI@@SGPAV12@XZ
  ?GetFont@Element@DirectUI@@QAEPBGPAPAVValue@2@@Z="C:\Windows\SysWOW64\dui70".?GetFont@Element@DirectUI@@QAEPBGPAPAVValue@2@@Z
  ?GetFont@HWNDHost@DirectUI@@IAEPAUHFONT__@@XZ="C:\Windows\SysWOW64\dui70".?GetFont@HWNDHost@DirectUI@@IAEPAUHFONT__@@XZ
  ?GetFontFace@Element@DirectUI@@QAEPBGPAPAVValue@2@@Z="C:\Windows\SysWOW64\dui70".?GetFontFace@Element@DirectUI@@QAEPBGPAPAVValue@2@@Z
  ?GetFontQuality@Element@DirectUI@@QAEHXZ="C:\Windows\SysWOW64\dui70".?GetFontQuality@Element@DirectUI@@QAEHXZ
  ?GetFontSize@Element@DirectUI@@QAEHXZ="C:\Windows\SysWOW64\dui70".?GetFontSize@Element@DirectUI@@QAEHXZ
  ?GetFontStyle@Element@DirectUI@@QAEHXZ="C:\Windows\SysWOW64\dui70".?GetFontStyle@Element@DirectUI@@QAEHXZ
  ?GetFontWeight@Element@DirectUI@@QAEHXZ="C:\Windows\SysWOW64\dui70".?GetFontWeight@Element@DirectUI@@QAEHXZ
  ?GetForceEditTextToLTR@TouchEditBase@DirectUI@@QAE_NXZ="C:\Windows\SysWOW64\dui70".?GetForceEditTextToLTR@TouchEditBase@DirectUI@@QAE_NXZ
  ?GetForegroundColor@Element@DirectUI@@QAEPBUFill@2@PAPAVValue@2@@Z="C:\Windows\SysWOW64\dui70".?GetForegroundColor@Element@DirectUI@@QAEPBUFill@2@PAPAVValue@2@@Z
  ?GetForegroundColorRef@RichText@DirectUI@@UAEJPAK@Z="C:\Windows\SysWOW64\dui70".?GetForegroundColorRef@RichText@DirectUI@@UAEJPAK@Z
  ?GetForegroundColorRef@TouchButton@DirectUI@@UAEJPAK@Z="C:\Windows\SysWOW64\dui70".?GetForegroundColorRef@TouchButton@DirectUI@@UAEJPAK@Z
  ?GetForegroundStdColor@Element@DirectUI@@QAEHXZ="C:\Windows\SysWOW64\dui70".?GetForegroundStdColor@Element@DirectUI@@QAEHXZ
  ?GetFragmentRoot@ElementProxy@DirectUI@@IAEJPAPAUIRawElementProviderFragmentRoot@@@Z="C:\Windows\SysWOW64\dui70".?GetFragmentRoot@ElementProxy@DirectUI@@IAEJPAPAUIRawElementProviderFragmentRoot@@@Z
  ?GetFrameDuration@AnimationStrip@DirectUI@@QAEHXZ="C:\Windows\SysWOW64\dui70".?GetFrameDuration@AnimationStrip@DirectUI@@QAEHXZ
  ?GetFrameIndex@AnimationStrip@DirectUI@@QAEHXZ="C:\Windows\SysWOW64\dui70".?GetFrameIndex@AnimationStrip@DirectUI@@QAEHXZ
  ?GetFrameWidth@AnimationStrip@DirectUI@@QAEHXZ="C:\Windows\SysWOW64\dui70".?GetFrameWidth@AnimationStrip@DirectUI@@QAEHXZ
  ?GetGetSheetCallback@DUIXmlParser@DirectUI@@QAEP6GPAVValue@2@PBGPAX@ZXZ="C:\Windows\SysWOW64\dui70".?GetGetSheetCallback@DUIXmlParser@DirectUI@@QAEP6GPAVValue@2@PBGPAX@ZXZ
  ?GetGlobalIndex@ClassInfoBase@DirectUI@@UBEIXZ="C:\Windows\SysWOW64\dui70".?GetGlobalIndex@ClassInfoBase@DirectUI@@UBEIXZ
  ?GetGraphic@Value@DirectUI@@QAEPAUGraphic@2@XZ="C:\Windows\SysWOW64\dui70".?GetGraphic@Value@DirectUI@@QAEPAUGraphic@2@XZ
  ?GetHDC@DCSurface@DirectUI@@QAEPAUHDC__@@XZ="C:\Windows\SysWOW64\dui70".?GetHDC@DCSurface@DirectUI@@QAEPAUHDC__@@XZ
  ?GetHInstance@DUIXmlParser@DirectUI@@QAEPAUHINSTANCE__@@XZ="C:\Windows\SysWOW64\dui70".?GetHInstance@DUIXmlParser@DirectUI@@QAEPAUHINSTANCE__@@XZ
  ?GetHScroll@ScrollViewer@DirectUI@@MAEPAVBaseScrollBar@2@XZ="C:\Windows\SysWOW64\dui70".?GetHScroll@ScrollViewer@DirectUI@@MAEPAVBaseScrollBar@2@XZ
  ?GetHScroll@StyledScrollViewer@DirectUI@@MAEPAVBaseScrollBar@2@XZ="C:\Windows\SysWOW64\dui70".?GetHScroll@StyledScrollViewer@DirectUI@@MAEPAVBaseScrollBar@2@XZ
  ?GetHScrollbar@TouchScrollViewer@DirectUI@@QAEJPAPAVElement@2@@Z="C:\Windows\SysWOW64\dui70".?GetHScrollbar@TouchScrollViewer@DirectUI@@QAEJPAPAVElement@2@@Z
  ?GetHWND@HWNDElement@DirectUI@@UAEPAUHWND__@@XZ="C:\Windows\SysWOW64\dui70".?GetHWND@HWNDElement@DirectUI@@UAEPAUHWND__@@XZ
  ?GetHWND@HWNDHost@DirectUI@@UAEPAUHWND__@@XZ="C:\Windows\SysWOW64\dui70".?GetHWND@HWNDHost@DirectUI@@UAEPAUHWND__@@XZ
  ?GetHWND@NativeHWNDHost@DirectUI@@QAEPAUHWND__@@XZ="C:\Windows\SysWOW64\dui70".?GetHWND@NativeHWNDHost@DirectUI@@QAEPAUHWND__@@XZ
  ?GetHWND@XHost@DirectUI@@QAEPAUHWND__@@XZ="C:\Windows\SysWOW64\dui70".?GetHWND@XHost@DirectUI@@QAEPAUHWND__@@XZ
  ?GetHWNDParent@HWNDHost@DirectUI@@QAEPAUHWND__@@XZ="C:\Windows\SysWOW64\dui70".?GetHWNDParent@HWNDHost@DirectUI@@QAEPAUHWND__@@XZ
  ?GetHandle@ResourceModuleHandles@DirectUI@@QAEJPBGPAPAUHINSTANCE__@@@Z="C:\Windows\SysWOW64\dui70".?GetHandle@ResourceModuleHandles@DirectUI@@QAEJPBGPAPAUHINSTANCE__@@@Z
  ?GetHandleEnter@TouchButton@DirectUI@@QAE_NXZ="C:\Windows\SysWOW64\dui70".?GetHandleEnter@TouchButton@DirectUI@@QAE_NXZ
  ?GetHandleEnterKey@DialogElement@DirectUI@@UAE_NXZ="C:\Windows\SysWOW64\dui70".?GetHandleEnterKey@DialogElement@DirectUI@@UAE_NXZ
  ?GetHandleGlobalEnter@TouchButton@DirectUI@@QAE_NXZ="C:\Windows\SysWOW64\dui70".?GetHandleGlobalEnter@TouchButton@DirectUI@@QAE_NXZ
  ?GetHasShield@CCPushButton@DirectUI@@QAE_NXZ="C:\Windows\SysWOW64\dui70".?GetHasShield@CCPushButton@DirectUI@@QAE_NXZ
  ?GetHeight@Element@DirectUI@@QAEHXZ="C:\Windows\SysWOW64\dui70".?GetHeight@Element@DirectUI@@QAEHXZ
  ?GetHighDPI@Element@DirectUI@@QAE_NXZ="C:\Windows\SysWOW64\dui70".?GetHighDPI@Element@DirectUI@@QAE_NXZ
  ?GetHostedElementID@XBaby@DirectUI@@UAEJPAG@Z="C:\Windows\SysWOW64\dui70".?GetHostedElementID@XBaby@DirectUI@@UAEJPAG@Z
  ?GetHostedElementID@XProvider@DirectUI@@UAGJPAG@Z="C:\Windows\SysWOW64\dui70".?GetHostedElementID@XProvider@DirectUI@@UAGJPAG@Z
  ?GetHwnd@ElementProxy@DirectUI@@IAEJPAPAUHWND__@@@Z="C:\Windows\SysWOW64\dui70".?GetHwnd@ElementProxy@DirectUI@@IAEJPAPAUHWND__@@@Z
  ?GetID@Element@DirectUI@@QAEGXZ="C:\Windows\SysWOW64\dui70".?GetID@Element@DirectUI@@QAEGXZ
  ?GetIDsOfNames@DuiAccessible@DirectUI@@UAGJABU_GUID@@PAPAGIKPAJ@Z="C:\Windows\SysWOW64\dui70".?GetIDsOfNames@DuiAccessible@DirectUI@@UAGJABU_GUID@@PAPAGIKPAJ@Z
  ?GetIHMRect@TouchHWNDElement@DirectUI@@QAEJPAUtagRECT@@@Z="C:\Windows\SysWOW64\dui70".?GetIHMRect@TouchHWNDElement@DirectUI@@QAEJPAUtagRECT@@@Z
  ?GetIHMState@TouchHWNDElement@DirectUI@@QAE?AW4IHMState@2@XZ="C:\Windows\SysWOW64\dui70".?GetIHMState@TouchHWNDElement@DirectUI@@QAE?AW4IHMState@2@XZ
  ?GetIMEComposing@TouchEditBase@DirectUI@@QAE_NXZ="C:\Windows\SysWOW64\dui70".?GetIMEComposing@TouchEditBase@DirectUI@@QAE_NXZ
  ?GetIdentityString@DuiAccessible@DirectUI@@UAGJKPAPAEPAK@Z="C:\Windows\SysWOW64\dui70".?GetIdentityString@DuiAccessible@DirectUI@@UAGJKPAPAEPAK@Z
  ?GetIdentityString@HWNDHostAccessible@DirectUI@@UAGJKPAPAEPAK@Z="C:\Windows\SysWOW64\dui70".?GetIdentityString@HWNDHostAccessible@DirectUI@@UAGJKPAPAEPAK@Z
  ?GetIgnoredKeyCombos@TouchEditBase@DirectUI@@QAE?AW4TouchEditFilteredKeyComboFlags@2@XZ="C:\Windows\SysWOW64\dui70".?GetIgnoredKeyCombos@TouchEditBase@DirectUI@@QAE?AW4TouchEditFilteredKeyComboFlags@2@XZ
  ?GetImage@Value@DirectUI@@QAEPAX_NM@Z="C:\Windows\SysWOW64\dui70".?GetImage@Value@DirectUI@@QAEPAX_NM@Z
  ?GetImmediateChild@Element@DirectUI@@QAEPAV12@PAV12@@Z="C:\Windows\SysWOW64\dui70".?GetImmediateChild@Element@DirectUI@@QAEPAV12@PAV12@@Z
  ?GetImmersiveFocusRectOffsets@Element@DirectUI@@UAEXPAUtagRECT@@@Z="C:\Windows\SysWOW64\dui70".?GetImmersiveFocusRectOffsets@Element@DirectUI@@UAEXPAUtagRECT@@@Z
  ?GetImmersiveFocusRectOffsets@TouchButton@DirectUI@@UAEXPAUtagRECT@@@Z="C:\Windows\SysWOW64\dui70".?GetImmersiveFocusRectOffsets@TouchButton@DirectUI@@UAEXPAUtagRECT@@@Z
  ?GetImmersiveFocusRectOffsets@TouchCheckBox@DirectUI@@UAEXPAUtagRECT@@@Z="C:\Windows\SysWOW64\dui70".?GetImmersiveFocusRectOffsets@TouchCheckBox@DirectUI@@UAEXPAUtagRECT@@@Z
  ?GetImmersiveFocusRectOffsets@TouchHyperLink@DirectUI@@UAEXPAUtagRECT@@@Z="C:\Windows\SysWOW64\dui70".?GetImmersiveFocusRectOffsets@TouchHyperLink@DirectUI@@UAEXPAUtagRECT@@@Z
  ?GetIndex@Element@DirectUI@@QAEHXZ="C:\Windows\SysWOW64\dui70".?GetIndex@Element@DirectUI@@QAEHXZ
  ?GetInertiaEndpointVisibleRect@TouchScrollViewer@DirectUI@@QAEXPAUtagRECT@@@Z="C:\Windows\SysWOW64\dui70".?GetInertiaEndpointVisibleRect@TouchScrollViewer@DirectUI@@QAEXPAUtagRECT@@@Z
  ?GetInertiaEndpointZoomLevel@TouchScrollViewer@DirectUI@@QAEMM@Z="C:\Windows\SysWOW64\dui70".?GetInertiaEndpointZoomLevel@TouchScrollViewer@DirectUI@@QAEMM@Z
  ?GetInnerBorderThickness@TouchEdit2@DirectUI@@QAEPBUtagRECT@@PAPAVValue@2@@Z="C:\Windows\SysWOW64\dui70".?GetInnerBorderThickness@TouchEdit2@DirectUI@@QAEPBUtagRECT@@PAPAVValue@2@@Z
  ?GetInnerHWND@XElement@DirectUI@@QAEPAUHWND__@@XZ="C:\Windows\SysWOW64\dui70".?GetInnerHWND@XElement@DirectUI@@QAEPAUHWND__@@XZ
  ?GetInputScope@TouchEdit2@DirectUI@@QAE?AW4__MIDL___MIDL_itf_inputscope_0000_0000_0001@@XZ="C:\Windows\SysWOW64\dui70".?GetInputScope@TouchEdit2@DirectUI@@QAE?AW4__MIDL___MIDL_itf_inputscope_0000_0000_0001@@XZ
  ?GetInt@EventManager@DirectUI@@CGJPAUtagVARIANT@@PAVValue@2@@Z="C:\Windows\SysWOW64\dui70".?GetInt@EventManager@DirectUI@@CGJPAUtagVARIANT@@PAVValue@2@@Z
  ?GetInt@Value@DirectUI@@QAEHXZ="C:\Windows\SysWOW64\dui70".?GetInt@Value@DirectUI@@QAEHXZ
  ?GetIntMinusOne@Value@DirectUI@@SGPAV12@XZ="C:\Windows\SysWOW64\dui70".?GetIntMinusOne@Value@DirectUI@@SGPAV12@XZ
  ?GetIntZero@Value@DirectUI@@SGPAV12@XZ="C:\Windows\SysWOW64\dui70".?GetIntZero@Value@DirectUI@@SGPAV12@XZ
  ?GetIntegrateIMECandidateList@TouchEditBase@DirectUI@@QAE_NXZ="C:\Windows\SysWOW64\dui70".?GetIntegrateIMECandidateList@TouchEditBase@DirectUI@@QAE_NXZ
  ?GetInteractionMode@TouchScrollViewer@DirectUI@@QAEHXZ="C:\Windows\SysWOW64\dui70".?GetInteractionMode@TouchScrollViewer@DirectUI@@QAEHXZ
  ?GetInterpolationMode@Movie@DirectUI@@QAEHXZ="C:\Windows\SysWOW64\dui70".?GetInterpolationMode@Movie@DirectUI@@QAEHXZ
  ?GetInvokeHelper@InvokeManager@DirectUI@@SGJPAPAVInvokeHelper@2@@Z="C:\Windows\SysWOW64\dui70".?GetInvokeHelper@InvokeManager@DirectUI@@SGJPAPAVInvokeHelper@2@@Z
  ?GetIsContinuous@TouchSlider@DirectUI@@QAE_NXZ="C:\Windows\SysWOW64\dui70".?GetIsContinuous@TouchSlider@DirectUI@@QAE_NXZ
  ?GetIsPressed@TouchSlider@DirectUI@@QAE_NXZ="C:\Windows\SysWOW64\dui70".?GetIsPressed@TouchSlider@DirectUI@@QAE_NXZ
  ?GetIsReadOnly@ValueProxy@DirectUI@@AAEJPAH@Z="C:\Windows\SysWOW64\dui70".?GetIsReadOnly@ValueProxy@DirectUI@@AAEJPAH@Z
  ?GetIsSelected@NavigatorSelectionItemProxy@DirectUI@@AAEJPAVBrowser@2@PAH@Z="C:\Windows\SysWOW64\dui70".?GetIsSelected@NavigatorSelectionItemProxy@DirectUI@@AAEJPAVBrowser@2@PAH@Z
  ?GetIsSelectionRequired@BrowserSelectionProxy@DirectUI@@AAEJPAH@Z="C:\Windows\SysWOW64\dui70".?GetIsSelectionRequired@BrowserSelectionProxy@DirectUI@@AAEJPAH@Z
  ?GetIsSelectionRequired@SelectorSelectionProxy@DirectUI@@AAEJPAH@Z="C:\Windows\SysWOW64\dui70".?GetIsSelectionRequired@SelectorSelectionProxy@DirectUI@@AAEJPAH@Z
  ?GetIsShowOnOffFeedback@TouchSlider@DirectUI@@QAE_NXZ="C:\Windows\SysWOW64\dui70".?GetIsShowOnOffFeedback@TouchSlider@DirectUI@@QAE_NXZ
  ?GetIsVertical@TouchSlider@DirectUI@@QAE_NXZ="C:\Windows\SysWOW64\dui70".?GetIsVertical@TouchSlider@DirectUI@@QAE_NXZ
  ?GetItem@GridProvider@DirectUI@@UAGJHHPAPAUIRawElementProviderSimple@@@Z="C:\Windows\SysWOW64\dui70".?GetItem@GridProvider@DirectUI@@UAGJHHPAPAUIRawElementProviderSimple@@@Z
  ?GetItem@GridProxy@DirectUI@@AAEJIIPAPAUIRawElementProviderSimple@@@Z="C:\Windows\SysWOW64\dui70".?GetItem@GridProxy@DirectUI@@AAEJIIPAPAUIRawElementProviderSimple@@@Z
  ?GetItemCount@TouchSelect@DirectUI@@QAEKXZ="C:\Windows\SysWOW64\dui70".?GetItemCount@TouchSelect@DirectUI@@QAEKXZ
  ?GetItemData@TouchSelect@DirectUI@@QAEJHPAPAUIUnknown@@@Z="C:\Windows\SysWOW64\dui70".?GetItemData@TouchSelect@DirectUI@@QAEJHPAPAUIUnknown@@@Z
  ?GetItemData@TouchSelectItem@DirectUI@@QAEJPAPAUIUnknown@@@Z="C:\Windows\SysWOW64\dui70".?GetItemData@TouchSelectItem@DirectUI@@QAEJPAPAUIUnknown@@@Z
  ?GetItemHeightInPopup@TouchSelect@DirectUI@@QAEHXZ="C:\Windows\SysWOW64\dui70".?GetItemHeightInPopup@TouchSelect@DirectUI@@QAEHXZ
  ?GetItemState@CCTreeView@DirectUI@@QAEIQAU_TREEITEM@@@Z="C:\Windows\SysWOW64\dui70".?GetItemState@CCTreeView@DirectUI@@QAEIQAU_TREEITEM@@@Z
  ?GetKeyFocused@Element@DirectUI@@UAE_NXZ="C:\Windows\SysWOW64\dui70".?GetKeyFocused@Element@DirectUI@@UAE_NXZ
  ?GetKeyFocused@HWNDHost@DirectUI@@UAE_NXZ="C:\Windows\SysWOW64\dui70".?GetKeyFocused@HWNDHost@DirectUI@@UAE_NXZ
  ?GetKeyFocusedElement@DialogElement@DirectUI@@UAEPAVElement@2@XZ="C:\Windows\SysWOW64\dui70".?GetKeyFocusedElement@DialogElement@DirectUI@@UAEPAVElement@2@XZ
  ?GetKeyFocusedElement@HWNDElement@DirectUI@@SGPAVElement@2@XZ="C:\Windows\SysWOW64\dui70".?GetKeyFocusedElement@HWNDElement@DirectUI@@SGPAVElement@2@XZ
  ?GetKeyWithin@Element@DirectUI@@QAE_NXZ="C:\Windows\SysWOW64\dui70".?GetKeyWithin@Element@DirectUI@@QAE_NXZ
  ?GetKeyWithinChild@Element@DirectUI@@QAEPAV12@XZ="C:\Windows\SysWOW64\dui70".?GetKeyWithinChild@Element@DirectUI@@QAEPAV12@XZ
  ?GetKeyboardNavigationCapture@TouchEditBase@DirectUI@@QAE?AW4TouchEditKeyboardNavigationCapture@2@XZ="C:\Windows\SysWOW64\dui70".?GetKeyboardNavigationCapture@TouchEditBase@DirectUI@@QAE?AW4TouchEditKeyboardNavigationCapture@2@XZ
  ?GetLabel@ElementProxy@DirectUI@@IAEJPAUtagVARIANT@@@Z="C:\Windows\SysWOW64\dui70".?GetLabel@ElementProxy@DirectUI@@IAEJPAUtagVARIANT@@@Z
  ?GetLayout@Element@DirectUI@@QAEPAVLayout@2@PAPAVValue@2@@Z="C:\Windows\SysWOW64\dui70".?GetLayout@Element@DirectUI@@QAEPAVLayout@2@PAPAVValue@2@@Z
  ?GetLayout@Value@DirectUI@@QAEPAVLayout@2@XZ="C:\Windows\SysWOW64\dui70".?GetLayout@Value@DirectUI@@QAEPAVLayout@2@XZ
  ?GetLayoutChildCount@Layout@DirectUI@@QAEIPAVElement@2@@Z="C:\Windows\SysWOW64\dui70".?GetLayoutChildCount@Layout@DirectUI@@QAEIPAVElement@2@@Z
  ?GetLayoutIndexFromChild@Layout@DirectUI@@QAEHPAVElement@2@0@Z="C:\Windows\SysWOW64\dui70".?GetLayoutIndexFromChild@Layout@DirectUI@@QAEHPAVElement@2@0@Z
  ?GetLayoutNull@Value@DirectUI@@SGPAV12@XZ="C:\Windows\SysWOW64\dui70".?GetLayoutNull@Value@DirectUI@@SGPAV12@XZ
  ?GetLayoutPos@Element@DirectUI@@QAEHXZ="C:\Windows\SysWOW64\dui70".?GetLayoutPos@Element@DirectUI@@QAEHXZ
  ?GetLightDismissIHM@TouchHWNDElement@DirectUI@@QAE_NXZ="C:\Windows\SysWOW64\dui70".?GetLightDismissIHM@TouchHWNDElement@DirectUI@@QAE_NXZ
  ?GetLine@CCBaseScrollBar@DirectUI@@UAEHXZ="C:\Windows\SysWOW64\dui70".?GetLine@CCBaseScrollBar@DirectUI@@UAEHXZ
  ?GetLine@FlowLayout@DirectUI@@QAEHPAVElement@2@0@Z="C:\Windows\SysWOW64\dui70".?GetLine@FlowLayout@DirectUI@@QAEHPAVElement@2@0@Z
  ?GetLine@ScrollBar@DirectUI@@UAEHXZ="C:\Windows\SysWOW64\dui70".?GetLine@ScrollBar@DirectUI@@UAEHXZ
  ?GetLine@VerticalFlowLayout@DirectUI@@QAEHPAVElement@2@0@Z="C:\Windows\SysWOW64\dui70".?GetLine@VerticalFlowLayout@DirectUI@@QAEHPAVElement@2@0@Z
  ?GetLineCount@RichText@DirectUI@@QAEKXZ="C:\Windows\SysWOW64\dui70".?GetLineCount@RichText@DirectUI@@QAEKXZ
  ?GetLineSize@CCTrackBar@DirectUI@@QAEHXZ="C:\Windows\SysWOW64\dui70".?GetLineSize@CCTrackBar@DirectUI@@QAEHXZ
  ?GetLinkIndicatorsToContent@TouchScrollViewer@DirectUI@@QAE_NXZ="C:\Windows\SysWOW64\dui70".?GetLinkIndicatorsToContent@TouchScrollViewer@DirectUI@@QAE_NXZ
  ?GetLocation@Element@DirectUI@@QAEPBUtagPOINT@@PAPAVValue@2@@Z="C:\Windows\SysWOW64\dui70".?GetLocation@Element@DirectUI@@QAEPBUtagPOINT@@PAPAVValue@2@@Z
  ?GetManipulationCompositor@TouchScrollViewer@DirectUI@@QAEPAUIDirectManipulationCompositor@@XZ="C:\Windows\SysWOW64\dui70".?GetManipulationCompositor@TouchScrollViewer@DirectUI@@QAEPAUIDirectManipulationCompositor@@XZ
  ?GetManipulationHorizontalAlignment@TouchScrollViewer@DirectUI@@QAEHXZ="C:\Windows\SysWOW64\dui70".?GetManipulationHorizontalAlignment@TouchScrollViewer@DirectUI@@QAEHXZ
  ?GetManipulationManager@TouchScrollViewer@DirectUI@@QAEPAUIDirectManipulationManager@@XZ="C:\Windows\SysWOW64\dui70".?GetManipulationManager@TouchScrollViewer@DirectUI@@QAEPAUIDirectManipulationManager@@XZ
  ?GetManipulationVerticalAlignment@TouchScrollViewer@DirectUI@@QAEHXZ="C:\Windows\SysWOW64\dui70".?GetManipulationVerticalAlignment@TouchScrollViewer@DirectUI@@QAEHXZ
  ?GetManipulationViewport@TouchScrollViewer@DirectUI@@QAEPAUIDirectManipulationViewport@@_N@Z="C:\Windows\SysWOW64\dui70".?GetManipulationViewport@TouchScrollViewer@DirectUI@@QAEPAUIDirectManipulationViewport@@_N@Z
  ?GetMargin@Element@DirectUI@@QAEPBUtagRECT@@PAPAVValue@2@@Z="C:\Windows\SysWOW64\dui70".?GetMargin@Element@DirectUI@@QAEPBUtagRECT@@PAPAVValue@2@@Z
  ?GetMaxLength@Edit@DirectUI@@QAEHXZ="C:\Windows\SysWOW64\dui70".?GetMaxLength@Edit@DirectUI@@QAEHXZ
  ?GetMaxLength@TouchEditBase@DirectUI@@QAEHXZ="C:\Windows\SysWOW64\dui70".?GetMaxLength@TouchEditBase@DirectUI@@QAEHXZ
  ?GetMaximum@CCBaseScrollBar@DirectUI@@UAEHXZ="C:\Windows\SysWOW64\dui70".?GetMaximum@CCBaseScrollBar@DirectUI@@UAEHXZ
  ?GetMaximum@ModernProgressBar@DirectUI@@QAEHXZ="C:\Windows\SysWOW64\dui70".?GetMaximum@ModernProgressBar@DirectUI@@QAEHXZ
  ?GetMaximum@Progress@DirectUI@@QAEHXZ="C:\Windows\SysWOW64\dui70".?GetMaximum@Progress@DirectUI@@QAEHXZ
  ?GetMaximum@ScrollBar@DirectUI@@UAEHXZ="C:\Windows\SysWOW64\dui70".?GetMaximum@ScrollBar@DirectUI@@UAEHXZ
  ?GetMetering@TouchSlider@DirectUI@@QAEHXZ="C:\Windows\SysWOW64\dui70".?GetMetering@TouchSlider@DirectUI@@QAEHXZ
  ?GetMinSize@Element@DirectUI@@QAEPBUtagSIZE@@PAPAVValue@2@@Z="C:\Windows\SysWOW64\dui70".?GetMinSize@Element@DirectUI@@QAEPBUtagSIZE@@PAPAVValue@2@@Z
  ?GetMinimum@CCBaseScrollBar@DirectUI@@UAEHXZ="C:\Windows\SysWOW64\dui70".?GetMinimum@CCBaseScrollBar@DirectUI@@UAEHXZ
  ?GetMinimum@ModernProgressBar@DirectUI@@QAEHXZ="C:\Windows\SysWOW64\dui70".?GetMinimum@ModernProgressBar@DirectUI@@QAEHXZ
  ?GetMinimum@Progress@DirectUI@@QAEHXZ="C:\Windows\SysWOW64\dui70".?GetMinimum@Progress@DirectUI@@QAEHXZ
  ?GetMinimum@ScrollBar@DirectUI@@UAEHXZ="C:\Windows\SysWOW64\dui70".?GetMinimum@ScrollBar@DirectUI@@UAEHXZ
  ?GetModule@ClassInfoBase@DirectUI@@UBEPAUHINSTANCE__@@XZ="C:\Windows\SysWOW64\dui70".?GetModule@ClassInfoBase@DirectUI@@UBEPAUHINSTANCE__@@XZ
  ?GetModuleBase@CallstackTracker@DirectUI@@AAE_KPAX_K@Z="C:\Windows\SysWOW64\dui70".?GetModuleBase@CallstackTracker@DirectUI@@AAE_KPAX_K@Z
  ?GetMouseFocused@Element@DirectUI@@QAE_NXZ="C:\Windows\SysWOW64\dui70".?GetMouseFocused@Element@DirectUI@@QAE_NXZ
  ?GetMouseWithin@Element@DirectUI@@QAE_NXZ="C:\Windows\SysWOW64\dui70".?GetMouseWithin@Element@DirectUI@@QAE_NXZ
  ?GetMouseWithinChild@Element@DirectUI@@QAEPAV12@XZ="C:\Windows\SysWOW64\dui70".?GetMouseWithinChild@Element@DirectUI@@QAEPAV12@XZ
  ?GetMouseWithinHorizontalScrollRegion@TouchScrollViewer@DirectUI@@QAE_NXZ="C:\Windows\SysWOW64\dui70".?GetMouseWithinHorizontalScrollRegion@TouchScrollViewer@DirectUI@@QAE_NXZ
  ?GetMoveCaretToEndOnSyncContent@TouchEditBase@DirectUI@@QAE_NXZ="C:\Windows\SysWOW64\dui70".?GetMoveCaretToEndOnSyncContent@TouchEditBase@DirectUI@@QAE_NXZ
  ?GetMultiline@Edit@DirectUI@@QAE_NXZ="C:\Windows\SysWOW64\dui70".?GetMultiline@Edit@DirectUI@@QAE_NXZ
  ?GetMultiline@TouchEditBase@DirectUI@@QAE_NXZ="C:\Windows\SysWOW64\dui70".?GetMultiline@TouchEditBase@DirectUI@@QAE_NXZ
  ?GetName@ClassInfoBase@DirectUI@@UBEPBGXZ="C:\Windows\SysWOW64\dui70".?GetName@ClassInfoBase@DirectUI@@UBEPBGXZ
  ?GetNote@CCCommandLink@DirectUI@@QAEPBGPAPAVValue@2@@Z="C:\Windows\SysWOW64\dui70".?GetNote@CCCommandLink@DirectUI@@QAEPBGPAPAVValue@2@@Z
  ?GetNotificationSinkHWND@XElement@DirectUI@@UAEPAUHWND__@@XZ="C:\Windows\SysWOW64\dui70".?GetNotificationSinkHWND@XElement@DirectUI@@UAEPAUHWND__@@XZ
  ?GetNull@Value@DirectUI@@SGPAV12@XZ="C:\Windows\SysWOW64\dui70".?GetNull@Value@DirectUI@@SGPAV12@XZ
  ?GetOffText@TouchSwitch@DirectUI@@QAEPBGPAPAVValue@2@@Z="C:\Windows\SysWOW64\dui70".?GetOffText@TouchSwitch@DirectUI@@QAEPBGPAPAVValue@2@@Z
  ?GetOnText@TouchSwitch@DirectUI@@QAEPBGPAPAVValue@2@@Z="C:\Windows\SysWOW64\dui70".?GetOnText@TouchSwitch@DirectUI@@QAEPBGPAPAVValue@2@@Z
  ?GetOptimizeMove@HWNDHost@DirectUI@@QAE_NXZ="C:\Windows\SysWOW64\dui70".?GetOptimizeMove@HWNDHost@DirectUI@@QAE_NXZ
  ?GetOrder@ScrollBar@DirectUI@@QAEHXZ="C:\Windows\SysWOW64\dui70".?GetOrder@ScrollBar@DirectUI@@QAEHXZ
  ?GetOverhang@Element@DirectUI@@QAE_NXZ="C:\Windows\SysWOW64\dui70".?GetOverhang@Element@DirectUI@@QAE_NXZ
  ?GetOverrideButtonBackground@CCPushButton@DirectUI@@QAE_NXZ="C:\Windows\SysWOW64\dui70".?GetOverrideButtonBackground@CCPushButton@DirectUI@@QAE_NXZ
  ?GetOverrideScaleFactor@DUIXmlParser@DirectUI@@QBE_NPAM@Z="C:\Windows\SysWOW64\dui70".?GetOverrideScaleFactor@DUIXmlParser@DirectUI@@QBE_NPAM@Z
  ?GetPICount@ClassInfoBase@DirectUI@@UBEIXZ="C:\Windows\SysWOW64\dui70".?GetPICount@ClassInfoBase@DirectUI@@UBEIXZ
  ?GetPVLAnimationState@Element@DirectUI@@QAEHXZ="C:\Windows\SysWOW64\dui70".?GetPVLAnimationState@Element@DirectUI@@QAEHXZ
  ?GetPadding@Element@DirectUI@@QAEPBUtagRECT@@PAPAVValue@2@@Z="C:\Windows\SysWOW64\dui70".?GetPadding@Element@DirectUI@@QAEPBUtagRECT@@PAPAVValue@2@@Z
  ?GetPage@CCBaseScrollBar@DirectUI@@UAEHXZ="C:\Windows\SysWOW64\dui70".?GetPage@CCBaseScrollBar@DirectUI@@UAEHXZ
  ?GetPage@Pages@DirectUI@@QAEPAVElement@2@I@Z="C:\Windows\SysWOW64\dui70".?GetPage@Pages@DirectUI@@QAEPAVElement@2@I@Z
  ?GetPage@Pages@DirectUI@@QAEPAVElement@2@PBG@Z="C:\Windows\SysWOW64\dui70".?GetPage@Pages@DirectUI@@QAEPAVElement@2@PBG@Z
  ?GetPage@ScrollBar@DirectUI@@UAEHXZ="C:\Windows\SysWOW64\dui70".?GetPage@ScrollBar@DirectUI@@UAEHXZ
  ?GetPageInc@BaseScrollBar@DirectUI@@QAEHXZ="C:\Windows\SysWOW64\dui70".?GetPageInc@BaseScrollBar@DirectUI@@QAEHXZ
  ?GetPageRCID@TaskPage@DirectUI@@MAEIXZ="C:\Windows\SysWOW64\dui70".?GetPageRCID@TaskPage@DirectUI@@MAEIXZ
  ?GetPageResID@TaskPage@DirectUI@@MAEPBGXZ="C:\Windows\SysWOW64\dui70".?GetPageResID@TaskPage@DirectUI@@MAEPBGXZ
  ?GetPages@Browser@DirectUI@@QAEPAVPages@2@XZ="C:\Windows\SysWOW64\dui70".?GetPages@Browser@DirectUI@@QAEPAVPages@2@XZ
  ?GetParent@Element@DirectUI@@QAEPAV12@XZ="C:\Windows\SysWOW64\dui70".?GetParent@Element@DirectUI@@QAEPAV12@XZ
  ?GetParentHWND@TaskPage@DirectUI@@QAEPAUHWND__@@XZ="C:\Windows\SysWOW64\dui70".?GetParentHWND@TaskPage@DirectUI@@QAEPAUHWND__@@XZ
  ?GetParser@DUIFactory@DirectUI@@QAEPAVDUIXmlParser@2@XZ="C:\Windows\SysWOW64\dui70".?GetParser@DUIFactory@DirectUI@@QAEPAVDUIXmlParser@2@XZ
  ?GetParserCommon@DUIXmlParser@DirectUI@@IAEJPAPAV12@@Z="C:\Windows\SysWOW64\dui70".?GetParserCommon@DUIXmlParser@DirectUI@@IAEJPAPAV12@@Z
  ?GetPasswordCharacter@Edit@DirectUI@@QAEHXZ="C:\Windows\SysWOW64\dui70".?GetPasswordCharacter@Edit@DirectUI@@QAEHXZ
  ?GetPasswordCharacter@TouchEditBase@DirectUI@@QAEHXZ="C:\Windows\SysWOW64\dui70".?GetPasswordCharacter@TouchEditBase@DirectUI@@QAEHXZ
  ?GetPasswordRevealMode@TouchEdit2@DirectUI@@QAE?AW4TouchEditPasswordRevealMode@2@XZ="C:\Windows\SysWOW64\dui70".?GetPasswordRevealMode@TouchEdit2@DirectUI@@QAE?AW4TouchEditPasswordRevealMode@2@XZ
  ?GetPath@Movie@DirectUI@@QAEPBGPAPAVValue@2@@Z="C:\Windows\SysWOW64\dui70".?GetPath@Movie@DirectUI@@QAEPBGPAPAVValue@2@@Z
  ?GetPatternProvider@ElementProvider@DirectUI@@UAGJHPAPAUIUnknown@@@Z="C:\Windows\SysWOW64\dui70".?GetPatternProvider@ElementProvider@DirectUI@@UAGJHPAPAUIUnknown@@@Z
  ?GetPinning@BaseScrollViewer@DirectUI@@QAEHXZ="C:\Windows\SysWOW64\dui70".?GetPinning@BaseScrollViewer@DirectUI@@QAEHXZ
  ?GetPixelOffsetMode@Movie@DirectUI@@QAEHXZ="C:\Windows\SysWOW64\dui70".?GetPixelOffsetMode@Movie@DirectUI@@QAEHXZ
  ?GetPlay@AnimationStrip@DirectUI@@QAE_NXZ="C:\Windows\SysWOW64\dui70".?GetPlay@AnimationStrip@DirectUI@@QAE_NXZ
  ?GetPlayAllFramesMode@Movie@DirectUI@@QAE_NXZ="C:\Windows\SysWOW64\dui70".?GetPlayAllFramesMode@Movie@DirectUI@@QAE_NXZ
  ?GetPoint@Value@DirectUI@@QAEPBUtagPOINT@@XZ="C:\Windows\SysWOW64\dui70".?GetPoint@Value@DirectUI@@QAEPBUtagPOINT@@XZ
  ?GetPointZero@Value@DirectUI@@SGPAV12@XZ="C:\Windows\SysWOW64\dui70".?GetPointZero@Value@DirectUI@@SGPAV12@XZ
  ?GetPopupBounds@TouchSelect@DirectUI@@QAEPBUtagRECT@@PAPAVValue@2@@Z="C:\Windows\SysWOW64\dui70".?GetPopupBounds@TouchSelect@DirectUI@@QAEPBUtagRECT@@PAPAVValue@2@@Z
  ?GetPosition@CCBaseScrollBar@DirectUI@@UAEHXZ="C:\Windows\SysWOW64\dui70".?GetPosition@CCBaseScrollBar@DirectUI@@UAEHXZ
  ?GetPosition@ModernProgressBar@DirectUI@@QAEHXZ="C:\Windows\SysWOW64\dui70".?GetPosition@ModernProgressBar@DirectUI@@QAEHXZ
  ?GetPosition@Progress@DirectUI@@QAEHXZ="C:\Windows\SysWOW64\dui70".?GetPosition@Progress@DirectUI@@QAEHXZ
  ?GetPosition@ScrollBar@DirectUI@@UAEHXZ="C:\Windows\SysWOW64\dui70".?GetPosition@ScrollBar@DirectUI@@UAEHXZ
  ?GetPredictedVisibleRect@TouchScrollViewer@DirectUI@@QAEXPAUtagRECT@@@Z="C:\Windows\SysWOW64\dui70".?GetPredictedVisibleRect@TouchScrollViewer@DirectUI@@QAEXPAUtagRECT@@@Z
  ?GetPreserveAlphaChannel@Element@DirectUI@@QBE_NXZ="C:\Windows\SysWOW64\dui70".?GetPreserveAlphaChannel@Element@DirectUI@@QBE_NXZ
  ?GetPressed@Button@DirectUI@@QAE_NXZ="C:\Windows\SysWOW64\dui70".?GetPressed@Button@DirectUI@@QAE_NXZ
  ?GetPressed@TouchButton@DirectUI@@QAE_NXZ="C:\Windows\SysWOW64\dui70".?GetPressed@TouchButton@DirectUI@@QAE_NXZ
  ?GetPreventFormatChangeUpdatingModifiedState@TouchEditBase@DirectUI@@QAE_NXZ="C:\Windows\SysWOW64\dui70".?GetPreventFormatChangeUpdatingModifiedState@TouchEditBase@DirectUI@@QAE_NXZ
  ?GetProcs@Schema@DirectUI@@CGJXZ="C:\Windows\SysWOW64\dui70".?GetProcs@Schema@DirectUI@@CGJXZ
  ?GetPromptText@TouchEdit2@DirectUI@@QAEPBGPAPAVValue@2@@Z="C:\Windows\SysWOW64\dui70".?GetPromptText@TouchEdit2@DirectUI@@QAEPBGPAPAVValue@2@@Z
  ?GetPromptWithCaret@TouchEdit2@DirectUI@@QAE_NXZ="C:\Windows\SysWOW64\dui70".?GetPromptWithCaret@TouchEdit2@DirectUI@@QAE_NXZ
  ?GetPropValPairInfo@DUIXmlParser@DirectUI@@IAEJPAUIXmlReader@@PAUIClassInfo@2@PBG2PAPBUPropertyInfo@2@PAPAVValue@2@@Z="C:\Windows\SysWOW64\dui70".?GetPropValPairInfo@DUIXmlParser@DirectUI@@IAEJPAUIXmlReader@@PAUIClassInfo@2@PBG2PAPBUPropertyInfo@2@PAPAVValue@2@@Z
  ?GetPropValPairInfo@DUIXmlParser@DirectUI@@IAEJULINEINFO@2@PAUIClassInfo@2@PBG2PAPBUPropertyInfo@2@PAPAVValue@2@@Z="C:\Windows\SysWOW64\dui70".?GetPropValPairInfo@DUIXmlParser@DirectUI@@IAEJULINEINFO@2@PAUIClassInfo@2@PBG2PAPBUPropertyInfo@2@PAPAVValue@2@@Z
  ?GetProperty@Bind@DirectUI@@QAEPBGPAPAVValue@2@@Z="C:\Windows\SysWOW64\dui70".?GetProperty@Bind@DirectUI@@QAEPBGPAPAVValue@2@@Z
  ?GetProperty@ElementProxy@DirectUI@@IAEJPAUtagVARIANT@@H@Z="C:\Windows\SysWOW64\dui70".?GetProperty@ElementProxy@DirectUI@@IAEJPAUtagVARIANT@@H@Z
  ?GetPropertyValue@ElementProvider@DirectUI@@UAGJHPAUtagVARIANT@@@Z="C:\Windows\SysWOW64\dui70".?GetPropertyValue@ElementProvider@DirectUI@@UAGJHPAUtagVARIANT@@@Z
  ?GetProportional@CCBaseScrollBar@DirectUI@@UAE_NXZ="C:\Windows\SysWOW64\dui70".?GetProportional@CCBaseScrollBar@DirectUI@@UAE_NXZ
  ?GetProportional@ScrollBar@DirectUI@@UAE_NXZ="C:\Windows\SysWOW64\dui70".?GetProportional@ScrollBar@DirectUI@@UAE_NXZ
  ?GetProvider@XElement@DirectUI@@QAEPAUIXProvider@2@XZ="C:\Windows\SysWOW64\dui70".?GetProvider@XElement@DirectUI@@QAEPAUIXProvider@2@XZ
  ?GetProviderOptions@ElementProxy@DirectUI@@IAEJPAW4ProviderOptions@@@Z="C:\Windows\SysWOW64\dui70".?GetProviderOptions@ElementProxy@DirectUI@@IAEJPAW4ProviderOptions@@@Z
  ?GetProxyCreator@?$PatternProvider@VExpandCollapseProvider@DirectUI@@UIExpandCollapseProvider@@$00@DirectUI@@UAEP6GPAVProviderProxy@2@PAVElement@2@@ZXZ="C:\Windows\SysWOW64\dui70".?GetProxyCreator@?$PatternProvider@VExpandCollapseProvider@DirectUI@@UIExpandCollapseProvider@@$00@DirectUI@@UAEP6GPAVProviderProxy@2@PAVElement@2@@ZXZ
  ?GetProxyCreator@?$PatternProvider@VGridItemProvider@DirectUI@@UIGridItemProvider@@$01@DirectUI@@UAEP6GPAVProviderProxy@2@PAVElement@2@@ZXZ="C:\Windows\SysWOW64\dui70".?GetProxyCreator@?$PatternProvider@VGridItemProvider@DirectUI@@UIGridItemProvider@@$01@DirectUI@@UAEP6GPAVProviderProxy@2@PAVElement@2@@ZXZ
  ?GetProxyCreator@?$PatternProvider@VGridProvider@DirectUI@@UIGridProvider@@$02@DirectUI@@UAEP6GPAVProviderProxy@2@PAVElement@2@@ZXZ="C:\Windows\SysWOW64\dui70".?GetProxyCreator@?$PatternProvider@VGridProvider@DirectUI@@UIGridProvider@@$02@DirectUI@@UAEP6GPAVProviderProxy@2@PAVElement@2@@ZXZ
  ?GetProxyCreator@?$PatternProvider@VInvokeProvider@DirectUI@@UIInvokeProvider@@$0A@@DirectUI@@UAEP6GPAVProviderProxy@2@PAVElement@2@@ZXZ="C:\Windows\SysWOW64\dui70".?GetProxyCreator@?$PatternProvider@VInvokeProvider@DirectUI@@UIInvokeProvider@@$0A@@DirectUI@@UAEP6GPAVProviderProxy@2@PAVElement@2@@ZXZ
  ?GetProxyCreator@?$PatternProvider@VRangeValueProvider@DirectUI@@UIRangeValueProvider@@$03@DirectUI@@UAEP6GPAVProviderProxy@2@PAVElement@2@@ZXZ="C:\Windows\SysWOW64\dui70".?GetProxyCreator@?$PatternProvider@VRangeValueProvider@DirectUI@@UIRangeValueProvider@@$03@DirectUI@@UAEP6GPAVProviderProxy@2@PAVElement@2@@ZXZ
  ?GetProxyCreator@?$PatternProvider@VScrollItemProvider@DirectUI@@UIScrollItemProvider@@$05@DirectUI@@UAEP6GPAVProviderProxy@2@PAVElement@2@@ZXZ="C:\Windows\SysWOW64\dui70".?GetProxyCreator@?$PatternProvider@VScrollItemProvider@DirectUI@@UIScrollItemProvider@@$05@DirectUI@@UAEP6GPAVProviderProxy@2@PAVElement@2@@ZXZ
  ?GetProxyCreator@?$PatternProvider@VScrollProvider@DirectUI@@UIScrollProvider@@$04@DirectUI@@UAEP6GPAVProviderProxy@2@PAVElement@2@@ZXZ="C:\Windows\SysWOW64\dui70".?GetProxyCreator@?$PatternProvider@VScrollProvider@DirectUI@@UIScrollProvider@@$04@DirectUI@@UAEP6GPAVProviderProxy@2@PAVElement@2@@ZXZ
  ?GetProxyCreator@?$PatternProvider@VSelectionItemProvider@DirectUI@@UISelectionItemProvider@@$06@DirectUI@@UAEP6GPAVProviderProxy@2@PAVElement@2@@ZXZ="C:\Windows\SysWOW64\dui70".?GetProxyCreator@?$PatternProvider@VSelectionItemProvider@DirectUI@@UISelectionItemProvider@@$06@DirectUI@@UAEP6GPAVProviderProxy@2@PAVElement@2@@ZXZ
  ?GetProxyCreator@?$PatternProvider@VSelectionProvider@DirectUI@@UISelectionProvider@@$07@DirectUI@@UAEP6GPAVProviderProxy@2@PAVElement@2@@ZXZ="C:\Windows\SysWOW64\dui70".?GetProxyCreator@?$PatternProvider@VSelectionProvider@DirectUI@@UISelectionProvider@@$07@DirectUI@@UAEP6GPAVProviderProxy@2@PAVElement@2@@ZXZ
  ?GetProxyCreator@?$PatternProvider@VTableItemProvider@DirectUI@@UITableItemProvider@@$09@DirectUI@@UAEP6GPAVProviderProxy@2@PAVElement@2@@ZXZ="C:\Windows\SysWOW64\dui70".?GetProxyCreator@?$PatternProvider@VTableItemProvider@DirectUI@@UITableItemProvider@@$09@DirectUI@@UAEP6GPAVProviderProxy@2@PAVElement@2@@ZXZ
  ?GetProxyCreator@?$PatternProvider@VTableProvider@DirectUI@@UITableProvider@@$08@DirectUI@@UAEP6GPAVProviderProxy@2@PAVElement@2@@ZXZ="C:\Windows\SysWOW64\dui70".?GetProxyCreator@?$PatternProvider@VTableProvider@DirectUI@@UITableProvider@@$08@DirectUI@@UAEP6GPAVProviderProxy@2@PAVElement@2@@ZXZ
  ?GetProxyCreator@?$PatternProvider@VToggleProvider@DirectUI@@UIToggleProvider@@$0L@@DirectUI@@UAEP6GPAVProviderProxy@2@PAVElement@2@@ZXZ="C:\Windows\SysWOW64\dui70".?GetProxyCreator@?$PatternProvider@VToggleProvider@DirectUI@@UIToggleProvider@@$0L@@DirectUI@@UAEP6GPAVProviderProxy@2@PAVElement@2@@ZXZ
  ?GetProxyCreator@?$PatternProvider@VValueProvider@DirectUI@@UIValueProvider@@$0M@@DirectUI@@UAEP6GPAVProviderProxy@2@PAVElement@2@@ZXZ="C:\Windows\SysWOW64\dui70".?GetProxyCreator@?$PatternProvider@VValueProvider@DirectUI@@UIValueProvider@@$0M@@DirectUI@@UAEP6GPAVProviderProxy@2@PAVElement@2@@ZXZ
  ?GetProxyCreator@ElementProvider@DirectUI@@UAEP6GPAVProviderProxy@2@PAVElement@2@@ZXZ="C:\Windows\SysWOW64\dui70".?GetProxyCreator@ElementProvider@DirectUI@@UAEP6GPAVProviderProxy@2@PAVElement@2@@ZXZ
  ?GetProxyCreator@ExpandCollapseProvider@DirectUI@@UAEP6GPAVProviderProxy@2@PAVElement@2@@ZXZ="C:\Windows\SysWOW64\dui70".?GetProxyCreator@ExpandCollapseProvider@DirectUI@@UAEP6GPAVProviderProxy@2@PAVElement@2@@ZXZ
  ?GetProxyCreator@GridItemProvider@DirectUI@@UAEP6GPAVProviderProxy@2@PAVElement@2@@ZXZ="C:\Windows\SysWOW64\dui70".?GetProxyCreator@GridItemProvider@DirectUI@@UAEP6GPAVProviderProxy@2@PAVElement@2@@ZXZ
  ?GetProxyCreator@GridProvider@DirectUI@@UAEP6GPAVProviderProxy@2@PAVElement@2@@ZXZ="C:\Windows\SysWOW64\dui70".?GetProxyCreator@GridProvider@DirectUI@@UAEP6GPAVProviderProxy@2@PAVElement@2@@ZXZ
  ?GetProxyCreator@HWNDElementProvider@DirectUI@@UAEP6GPAVProviderProxy@2@PAVElement@2@@ZXZ="C:\Windows\SysWOW64\dui70".?GetProxyCreator@HWNDElementProvider@DirectUI@@UAEP6GPAVProviderProxy@2@PAVElement@2@@ZXZ
  ?GetProxyCreator@InvokeProvider@DirectUI@@UAEP6GPAVProviderProxy@2@PAVElement@2@@ZXZ="C:\Windows\SysWOW64\dui70".?GetProxyCreator@InvokeProvider@DirectUI@@UAEP6GPAVProviderProxy@2@PAVElement@2@@ZXZ
  ?GetProxyCreator@RangeValueProvider@DirectUI@@UAEP6GPAVProviderProxy@2@PAVElement@2@@ZXZ="C:\Windows\SysWOW64\dui70".?GetProxyCreator@RangeValueProvider@DirectUI@@UAEP6GPAVProviderProxy@2@PAVElement@2@@ZXZ
  ?GetProxyCreator@ScrollItemProvider@DirectUI@@UAEP6GPAVProviderProxy@2@PAVElement@2@@ZXZ="C:\Windows\SysWOW64\dui70".?GetProxyCreator@ScrollItemProvider@DirectUI@@UAEP6GPAVProviderProxy@2@PAVElement@2@@ZXZ
  ?GetProxyCreator@ScrollProvider@DirectUI@@UAEP6GPAVProviderProxy@2@PAVElement@2@@ZXZ="C:\Windows\SysWOW64\dui70".?GetProxyCreator@ScrollProvider@DirectUI@@UAEP6GPAVProviderProxy@2@PAVElement@2@@ZXZ
  ?GetProxyCreator@SelectionItemProvider@DirectUI@@UAEP6GPAVProviderProxy@2@PAVElement@2@@ZXZ="C:\Windows\SysWOW64\dui70".?GetProxyCreator@SelectionItemProvider@DirectUI@@UAEP6GPAVProviderProxy@2@PAVElement@2@@ZXZ
  ?GetProxyCreator@SelectionProvider@DirectUI@@UAEP6GPAVProviderProxy@2@PAVElement@2@@ZXZ="C:\Windows\SysWOW64\dui70".?GetProxyCreator@SelectionProvider@DirectUI@@UAEP6GPAVProviderProxy@2@PAVElement@2@@ZXZ
  ?GetProxyCreator@TableItemProvider@DirectUI@@UAEP6GPAVProviderProxy@2@PAVElement@2@@ZXZ="C:\Windows\SysWOW64\dui70".?GetProxyCreator@TableItemProvider@DirectUI@@UAEP6GPAVProviderProxy@2@PAVElement@2@@ZXZ
  ?GetProxyCreator@TableProvider@DirectUI@@UAEP6GPAVProviderProxy@2@PAVElement@2@@ZXZ="C:\Windows\SysWOW64\dui70".?GetProxyCreator@TableProvider@DirectUI@@UAEP6GPAVProviderProxy@2@PAVElement@2@@ZXZ
  ?GetProxyCreator@ToggleProvider@DirectUI@@UAEP6GPAVProviderProxy@2@PAVElement@2@@ZXZ="C:\Windows\SysWOW64\dui70".?GetProxyCreator@ToggleProvider@DirectUI@@UAEP6GPAVProviderProxy@2@PAVElement@2@@ZXZ
  ?GetProxyCreator@ValueProvider@DirectUI@@UAEP6GPAVProviderProxy@2@PAVElement@2@@ZXZ="C:\Windows\SysWOW64\dui70".?GetProxyCreator@ValueProvider@DirectUI@@UAEP6GPAVProviderProxy@2@PAVElement@2@@ZXZ
  ?GetRangeMax@CCTrackBar@DirectUI@@QAEHXZ="C:\Windows\SysWOW64\dui70".?GetRangeMax@CCTrackBar@DirectUI@@QAEHXZ
  ?GetRangeMax@TouchSlider@DirectUI@@QAEHXZ="C:\Windows\SysWOW64\dui70".?GetRangeMax@TouchSlider@DirectUI@@QAEHXZ
  ?GetRangeMin@CCTrackBar@DirectUI@@QAEHXZ="C:\Windows\SysWOW64\dui70".?GetRangeMin@CCTrackBar@DirectUI@@QAEHXZ
  ?GetRangeMin@TouchSlider@DirectUI@@QAEHXZ="C:\Windows\SysWOW64\dui70".?GetRangeMin@TouchSlider@DirectUI@@QAEHXZ
  ?GetRawValue@Element@DirectUI@@QAEPAVValue@2@PBUPropertyInfo@2@HPAUUpdateCache@2@@Z="C:\Windows\SysWOW64\dui70".?GetRawValue@Element@DirectUI@@QAEPAVValue@2@PBUPropertyInfo@2@HPAUUpdateCache@2@@Z
  ?GetReadOnly@TouchEditBase@DirectUI@@QAE_NXZ="C:\Windows\SysWOW64\dui70".?GetReadOnly@TouchEditBase@DirectUI@@QAE_NXZ
  ?GetRect@Value@DirectUI@@QAEPBUtagRECT@@XZ="C:\Windows\SysWOW64\dui70".?GetRect@Value@DirectUI@@QAEPBUtagRECT@@XZ
  ?GetRectZero@Value@DirectUI@@SGPAV12@XZ="C:\Windows\SysWOW64\dui70".?GetRectZero@Value@DirectUI@@SGPAV12@XZ
  ?GetRefCount@Value@DirectUI@@QBEHXZ="C:\Windows\SysWOW64\dui70".?GetRefCount@Value@DirectUI@@QBEHXZ
  ?GetReferencePoint@RefPointElement@DirectUI@@QAEPBUtagPOINT@@PAPAVValue@2@@Z="C:\Windows\SysWOW64\dui70".?GetReferencePoint@RefPointElement@DirectUI@@QAEPBUtagPOINT@@PAPAVValue@2@@Z
  ?GetRegisteredDefaultButton@DialogElement@DirectUI@@UAEPAVElement@2@XZ="C:\Windows\SysWOW64\dui70".?GetRegisteredDefaultButton@DialogElement@DirectUI@@UAEPAVElement@2@XZ
  ?GetRenderBorderThickness@Element@DirectUI@@QAEXPAUtagRECT@@@Z="C:\Windows\SysWOW64\dui70".?GetRenderBorderThickness@Element@DirectUI@@QAEXPAUtagRECT@@@Z
  ?GetRenderEdgeHighlightThickness@Element@DirectUI@@QAEXPAUtagRECT@@@Z="C:\Windows\SysWOW64\dui70".?GetRenderEdgeHighlightThickness@Element@DirectUI@@QAEXPAUtagRECT@@@Z
  ?GetRenderMargin@Element@DirectUI@@QAEXPAUtagRECT@@@Z="C:\Windows\SysWOW64\dui70".?GetRenderMargin@Element@DirectUI@@QAEXPAUtagRECT@@@Z
  ?GetRenderMinSize@Element@DirectUI@@QAEXPAUtagSIZE@@@Z="C:\Windows\SysWOW64\dui70".?GetRenderMinSize@Element@DirectUI@@QAEXPAUtagSIZE@@@Z
  ?GetRenderPadding@Element@DirectUI@@QAEXPAUtagRECT@@@Z="C:\Windows\SysWOW64\dui70".?GetRenderPadding@Element@DirectUI@@QAEXPAUtagRECT@@@Z
  ?GetRepeat@Movie@DirectUI@@QAE_NXZ="C:\Windows\SysWOW64\dui70".?GetRepeat@Movie@DirectUI@@QAE_NXZ
  ?GetResourceHInstance@DUIXmlParser@DirectUI@@QAEPAUHINSTANCE__@@XZ="C:\Windows\SysWOW64\dui70".?GetResourceHInstance@DUIXmlParser@DirectUI@@QAEPAUHINSTANCE__@@XZ
  ?GetRoot@Element@DirectUI@@QAEPAV12@XZ="C:\Windows\SysWOW64\dui70".?GetRoot@Element@DirectUI@@QAEPAV12@XZ
  ?GetRoot@XProvider@DirectUI@@IAEPAVElement@2@XZ="C:\Windows\SysWOW64\dui70".?GetRoot@XProvider@DirectUI@@IAEPAVElement@2@XZ
  ?GetRootRelativeBounds@Element@DirectUI@@QAEJPAUtagRECT@@@Z="C:\Windows\SysWOW64\dui70".?GetRootRelativeBounds@Element@DirectUI@@QAEJPAUtagRECT@@@Z
  ?GetRow@GridItemProxy@DirectUI@@AAEJPAH@Z="C:\Windows\SysWOW64\dui70".?GetRow@GridItemProxy@DirectUI@@AAEJPAH@Z
  ?GetRowCount@GridProxy@DirectUI@@AAEJPAH@Z="C:\Windows\SysWOW64\dui70".?GetRowCount@GridProxy@DirectUI@@AAEJPAH@Z
  ?GetRowHeaderItems@TableItemProvider@DirectUI@@UAGJPAPAUtagSAFEARRAY@@@Z="C:\Windows\SysWOW64\dui70".?GetRowHeaderItems@TableItemProvider@DirectUI@@UAGJPAPAUtagSAFEARRAY@@@Z
  ?GetRowHeaders@TableProvider@DirectUI@@UAGJPAPAUtagSAFEARRAY@@@Z="C:\Windows\SysWOW64\dui70".?GetRowHeaders@TableProvider@DirectUI@@UAGJPAPAUtagSAFEARRAY@@@Z
  ?GetRuntimeId@ElementProvider@DirectUI@@UAGJPAPAUtagSAFEARRAY@@@Z="C:\Windows\SysWOW64\dui70".?GetRuntimeId@ElementProvider@DirectUI@@UAGJPAPAUtagSAFEARRAY@@@Z
  ?GetRuntimeId@ElementProxy@DirectUI@@IAEJPAPAUtagSAFEARRAY@@@Z="C:\Windows\SysWOW64\dui70".?GetRuntimeId@ElementProxy@DirectUI@@IAEJPAPAUtagSAFEARRAY@@@Z
  ?GetScaledFloat@Value@DirectUI@@QAEMM@Z="C:\Windows\SysWOW64\dui70".?GetScaledFloat@Value@DirectUI@@QAEMM@Z
  ?GetScaledInt@Value@DirectUI@@QAEHM@Z="C:\Windows\SysWOW64\dui70".?GetScaledInt@Value@DirectUI@@QAEHM@Z
  ?GetScaledInt@Value@DirectUI@@QAEPBUScaledInt@2@XZ="C:\Windows\SysWOW64\dui70".?GetScaledInt@Value@DirectUI@@QAEPBUScaledInt@2@XZ
  ?GetScaledPoint@Value@DirectUI@@QAEXMPAUtagPOINT@@@Z="C:\Windows\SysWOW64\dui70".?GetScaledPoint@Value@DirectUI@@QAEXMPAUtagPOINT@@@Z
  ?GetScaledRect@Value@DirectUI@@QAEXMPAUtagRECT@@@Z="C:\Windows\SysWOW64\dui70".?GetScaledRect@Value@DirectUI@@QAEXMPAUtagRECT@@@Z
  ?GetScaledSize@Value@DirectUI@@QAEXMPAUtagSIZE@@@Z="C:\Windows\SysWOW64\dui70".?GetScaledSize@Value@DirectUI@@QAEXMPAUtagSIZE@@@Z
  ?GetScrollBar@ScrollProxy@DirectUI@@AAEPAVBaseScrollBar@2@_N@Z="C:\Windows\SysWOW64\dui70".?GetScrollBar@ScrollProxy@DirectUI@@AAEPAVBaseScrollBar@2@_N@Z
  ?GetScrollBarHelper@ScrollProxy@DirectUI@@AAEPAVBaseScrollBar@2@PAVElement@2@_N@Z="C:\Windows\SysWOW64\dui70".?GetScrollBarHelper@ScrollProxy@DirectUI@@AAEPAVBaseScrollBar@2@PAVElement@2@_N@Z
  ?GetScrollPadding@TouchScrollViewer@DirectUI@@QAEPBUtagRECT@@PAPAVValue@2@@Z="C:\Windows\SysWOW64\dui70".?GetScrollPadding@TouchScrollViewer@DirectUI@@QAEPBUtagRECT@@PAPAVValue@2@@Z
  ?GetScrollPercent@ScrollProxy@DirectUI@@AAEJ_NPAN@Z="C:\Windows\SysWOW64\dui70".?GetScrollPercent@ScrollProxy@DirectUI@@AAEJ_NPAN@Z
  ?GetScrollable@ScrollProxy@DirectUI@@AAEJ_NPAH@Z="C:\Windows\SysWOW64\dui70".?GetScrollable@ScrollProxy@DirectUI@@AAEJ_NPAH@Z
  ?GetSelected@Element@DirectUI@@QAE_NXZ="C:\Windows\SysWOW64\dui70".?GetSelected@Element@DirectUI@@QAE_NXZ
  ?GetSelection@BrowserSelectionProxy@DirectUI@@AAEJPAPAUtagSAFEARRAY@@@Z="C:\Windows\SysWOW64\dui70".?GetSelection@BrowserSelectionProxy@DirectUI@@AAEJPAPAUtagSAFEARRAY@@@Z
  ?GetSelection@Combobox@DirectUI@@QAEHXZ="C:\Windows\SysWOW64\dui70".?GetSelection@Combobox@DirectUI@@QAEHXZ
  ?GetSelection@SelectionProvider@DirectUI@@UAGJPAPAUtagSAFEARRAY@@@Z="C:\Windows\SysWOW64\dui70".?GetSelection@SelectionProvider@DirectUI@@UAGJPAPAUtagSAFEARRAY@@@Z
  ?GetSelection@Selector@DirectUI@@QAEPAVElement@2@XZ="C:\Windows\SysWOW64\dui70".?GetSelection@Selector@DirectUI@@QAEPAVElement@2@XZ
  ?GetSelection@TouchEdit2@DirectUI@@QAEJPAJ0@Z="C:\Windows\SysWOW64\dui70".?GetSelection@TouchEdit2@DirectUI@@QAEJPAJ0@Z
  ?GetSelection@TouchSelect@DirectUI@@QAEPAVElement@2@XZ="C:\Windows\SysWOW64\dui70".?GetSelection@TouchSelect@DirectUI@@QAEPAVElement@2@XZ
  ?GetSelectionBackgroundColor@TouchEditBase@DirectUI@@QAEPAVValue@2@XZ="C:\Windows\SysWOW64\dui70".?GetSelectionBackgroundColor@TouchEditBase@DirectUI@@QAEPAVValue@2@XZ
  ?GetSelectionContainer@SelectorSelectionItemProxy@DirectUI@@AAEJPAPAUIRawElementProviderSimple@@@Z="C:\Windows\SysWOW64\dui70".?GetSelectionContainer@SelectorSelectionItemProxy@DirectUI@@AAEJPAPAUIRawElementProviderSimple@@@Z
  ?GetSelectionForegroundColor@TouchEditBase@DirectUI@@QAEPAVValue@2@XZ="C:\Windows\SysWOW64\dui70".?GetSelectionForegroundColor@TouchEditBase@DirectUI@@QAEPAVValue@2@XZ
  ?GetSelectionIndex@TouchSelect@DirectUI@@QAEHXZ="C:\Windows\SysWOW64\dui70".?GetSelectionIndex@TouchSelect@DirectUI@@QAEHXZ
  ?GetShadowIntensity@Element@DirectUI@@QAEHXZ="C:\Windows\SysWOW64\dui70".?GetShadowIntensity@Element@DirectUI@@QAEHXZ
  ?GetSheet@DUIXmlParser@DirectUI@@QAEJPBGPAPAVValue@2@@Z="C:\Windows\SysWOW64\dui70".?GetSheet@DUIXmlParser@DirectUI@@QAEJPBGPAPAVValue@2@@Z
  ?GetSheet@Element@DirectUI@@QAEPAVStyleSheet@2@XZ="C:\Windows\SysWOW64\dui70".?GetSheet@Element@DirectUI@@QAEPAVStyleSheet@2@XZ
  ?GetSheetContext@DUIXmlParser@DirectUI@@QAEPAXXZ="C:\Windows\SysWOW64\dui70".?GetSheetContext@DUIXmlParser@DirectUI@@QAEPAXXZ
  ?GetSheetNull@Value@DirectUI@@SGPAV12@XZ="C:\Windows\SysWOW64\dui70".?GetSheetNull@Value@DirectUI@@SGPAV12@XZ
  ?GetShortcut@Element@DirectUI@@QAEHXZ="C:\Windows\SysWOW64\dui70".?GetShortcut@Element@DirectUI@@QAEHXZ
  ?GetShortcutChar@Element@DirectUI@@QAEGXZ="C:\Windows\SysWOW64\dui70".?GetShortcutChar@Element@DirectUI@@QAEGXZ
  ?GetShortcutChar@RichText@DirectUI@@QAEGXZ="C:\Windows\SysWOW64\dui70".?GetShortcutChar@RichText@DirectUI@@QAEGXZ
  ?GetShowClearButtonMinWidth@TouchEdit2@DirectUI@@QAEHXZ="C:\Windows\SysWOW64\dui70".?GetShowClearButtonMinWidth@TouchEdit2@DirectUI@@QAEHXZ
  ?GetShowKeyFocus@TouchButton@DirectUI@@QAE_NXZ="C:\Windows\SysWOW64\dui70".?GetShowKeyFocus@TouchButton@DirectUI@@QAE_NXZ
  ?GetShowTick@TouchSlider@DirectUI@@QAE_NXZ="C:\Windows\SysWOW64\dui70".?GetShowTick@TouchSlider@DirectUI@@QAE_NXZ
  ?GetSinkRect@HWNDHost@DirectUI@@AAEXPBUtagRECT@@PAU3@@Z="C:\Windows\SysWOW64\dui70".?GetSinkRect@HWNDHost@DirectUI@@AAEXPBUtagRECT@@PAU3@@Z
  ?GetSize@Value@DirectUI@@QAEPBUtagSIZE@@XZ="C:\Windows\SysWOW64\dui70".?GetSize@Value@DirectUI@@QAEPBUtagSIZE@@XZ
  ?GetSizeZero@Value@DirectUI@@SGPAV12@XZ="C:\Windows\SysWOW64\dui70".?GetSizeZero@Value@DirectUI@@SGPAV12@XZ
  ?GetSmoothingMode@Movie@DirectUI@@QAEHXZ="C:\Windows\SysWOW64\dui70".?GetSmoothingMode@Movie@DirectUI@@QAEHXZ
  ?GetSnapIntervalX@TouchScrollViewer@DirectUI@@QAEMXZ="C:\Windows\SysWOW64\dui70".?GetSnapIntervalX@TouchScrollViewer@DirectUI@@QAEMXZ
  ?GetSnapIntervalY@TouchScrollViewer@DirectUI@@QAEMXZ="C:\Windows\SysWOW64\dui70".?GetSnapIntervalY@TouchScrollViewer@DirectUI@@QAEMXZ
  ?GetSnapMode@TouchScrollViewer@DirectUI@@QAEHXZ="C:\Windows\SysWOW64\dui70".?GetSnapMode@TouchScrollViewer@DirectUI@@QAEHXZ
  ?GetSnapOffsetX@TouchScrollViewer@DirectUI@@QAEMXZ="C:\Windows\SysWOW64\dui70".?GetSnapOffsetX@TouchScrollViewer@DirectUI@@QAEMXZ
  ?GetSnapOffsetY@TouchScrollViewer@DirectUI@@QAEMXZ="C:\Windows\SysWOW64\dui70".?GetSnapOffsetY@TouchScrollViewer@DirectUI@@QAEMXZ
  ?GetSnapPointCollectionX@TouchScrollViewer@DirectUI@@QAEPAV?$DynamicArray@N$0A@@2@PAPAVValue@2@@Z="C:\Windows\SysWOW64\dui70".?GetSnapPointCollectionX@TouchScrollViewer@DirectUI@@QAEPAV?$DynamicArray@N$0A@@2@PAPAVValue@2@@Z
  ?GetSnapPointCollectionY@TouchScrollViewer@DirectUI@@QAEPAV?$DynamicArray@N$0A@@2@PAPAVValue@2@@Z="C:\Windows\SysWOW64\dui70".?GetSnapPointCollectionY@TouchScrollViewer@DirectUI@@QAEPAV?$DynamicArray@N$0A@@2@PAPAVValue@2@@Z
  ?GetState@ModernProgressBar@DirectUI@@QAEHXZ="C:\Windows\SysWOW64\dui70".?GetState@ModernProgressBar@DirectUI@@QAEHXZ
  ?GetStaticColor@HWNDHost@DirectUI@@IAE_NPAUHDC__@@PAPAUHBRUSH__@@@Z="C:\Windows\SysWOW64\dui70".?GetStaticColor@HWNDHost@DirectUI@@IAE_NPAUHDC__@@PAPAUHBRUSH__@@@Z
  ?GetStepCount@TouchSlider@DirectUI@@QAEHXZ="C:\Windows\SysWOW64\dui70".?GetStepCount@TouchSlider@DirectUI@@QAEHXZ
  ?GetString@EventManager@DirectUI@@CGJPAUtagVARIANT@@PAVValue@2@@Z="C:\Windows\SysWOW64\dui70".?GetString@EventManager@DirectUI@@CGJPAUtagVARIANT@@PAVValue@2@@Z
  ?GetString@Value@DirectUI@@QAEPBGXZ="C:\Windows\SysWOW64\dui70".?GetString@Value@DirectUI@@QAEPBGXZ
  ?GetStringDynamicScaling@Value@DirectUI@@QAEPBGXZ="C:\Windows\SysWOW64\dui70".?GetStringDynamicScaling@Value@DirectUI@@QAEPBGXZ
  ?GetStringNull@Value@DirectUI@@SGPAV12@XZ="C:\Windows\SysWOW64\dui70".?GetStringNull@Value@DirectUI@@SGPAV12@XZ
  ?GetStringRPNull@Value@DirectUI@@SGPAV12@XZ="C:\Windows\SysWOW64\dui70".?GetStringRPNull@Value@DirectUI@@SGPAV12@XZ
  ?GetStyle@CCTreeView@DirectUI@@QAEKXZ="C:\Windows\SysWOW64\dui70".?GetStyle@CCTreeView@DirectUI@@QAEKXZ
  ?GetStyleSheet@Value@DirectUI@@QAEPAVStyleSheet@2@XZ="C:\Windows\SysWOW64\dui70".?GetStyleSheet@Value@DirectUI@@QAEPAVStyleSheet@2@XZ
  ?GetSubContent@TouchCommandButton@DirectUI@@QAEPBGPAPAVValue@2@@Z="C:\Windows\SysWOW64\dui70".?GetSubContent@TouchCommandButton@DirectUI@@QAEPBGPAPAVValue@2@@Z
  ?GetSuppressClearButton@TouchEdit2@DirectUI@@QAE_NXZ="C:\Windows\SysWOW64\dui70".?GetSuppressClearButton@TouchEdit2@DirectUI@@QAE_NXZ
  ?GetSurfaceType@Surface@DirectUI@@SG?AW4EType@12@I@Z="C:\Windows\SysWOW64\dui70".?GetSurfaceType@Surface@DirectUI@@SG?AW4EType@12@I@Z
  ?GetSurfaceType@Surface@DirectUI@@SGIW4EType@12@@Z="C:\Windows\SysWOW64\dui70".?GetSurfaceType@Surface@DirectUI@@SGIW4EType@12@@Z
  ?GetSyncContentWhileIMEComposing@TouchEditBase@DirectUI@@QAE_NXZ="C:\Windows\SysWOW64\dui70".?GetSyncContentWhileIMEComposing@TouchEditBase@DirectUI@@QAE_NXZ
  ?GetTargetPage@Navigator@DirectUI@@QAEPBGPAPAVValue@2@@Z="C:\Windows\SysWOW64\dui70".?GetTargetPage@Navigator@DirectUI@@QAEPBGPAPAVValue@2@@Z
  ?GetTextContentOverride@TouchSelectItem@DirectUI@@QAEPBGPAPAVValue@2@@Z="C:\Windows\SysWOW64\dui70".?GetTextContentOverride@TouchSelectItem@DirectUI@@QAEPBGPAPAVValue@2@@Z
  ?GetTextDocument@TouchEdit2@DirectUI@@UAEJPAPAUITextDocument@@@Z="C:\Windows\SysWOW64\dui70".?GetTextDocument@TouchEdit2@DirectUI@@UAEJPAPAUITextDocument@@@Z
  ?GetTextDocument@TouchEditBase@DirectUI@@UAEJPAPAUITextDocument@@@Z="C:\Windows\SysWOW64\dui70".?GetTextDocument@TouchEditBase@DirectUI@@UAEJPAPAUITextDocument@@@Z
  ?GetTextGlowSize@Element@DirectUI@@QAEHXZ="C:\Windows\SysWOW64\dui70".?GetTextGlowSize@Element@DirectUI@@QAEHXZ
  ?GetTextHeight@Edit@DirectUI@@AAEIXZ="C:\Windows\SysWOW64\dui70".?GetTextHeight@Edit@DirectUI@@AAEIXZ
  ?GetTextHost@TouchEdit2@DirectUI@@QAEJPAPAVITextHost@@@Z="C:\Windows\SysWOW64\dui70".?GetTextHost@TouchEdit2@DirectUI@@QAEJPAPAVITextHost@@@Z
  ?GetTextMode@TouchEditBase@DirectUI@@QAE?AW4TouchEditTextMode@2@XZ="C:\Windows\SysWOW64\dui70".?GetTextMode@TouchEditBase@DirectUI@@QAE?AW4TouchEditTextMode@2@XZ
  ?GetTextSelection@TouchEdit2@DirectUI@@QAEJPAPAUITextSelection@@@Z="C:\Windows\SysWOW64\dui70".?GetTextSelection@TouchEdit2@DirectUI@@QAEJPAPAUITextSelection@@@Z
  ?GetTextServices@TouchEdit2@DirectUI@@UAEJPAPAVITextServices@@@Z="C:\Windows\SysWOW64\dui70".?GetTextServices@TouchEdit2@DirectUI@@UAEJPAPAVITextServices@@@Z
  ?GetTextServices@TouchEditBase@DirectUI@@UAEJPAPAVITextServices@@@Z="C:\Windows\SysWOW64\dui70".?GetTextServices@TouchEditBase@DirectUI@@UAEJPAPAVITextServices@@@Z
  ?GetTheme@Element@DirectUI@@AAEJPBGPAPAX@Z="C:\Windows\SysWOW64\dui70".?GetTheme@Element@DirectUI@@AAEJPBGPAPAX@Z
  ?GetThemeChanged@HWNDHost@DirectUI@@IAEHXZ="C:\Windows\SysWOW64\dui70".?GetThemeChanged@HWNDHost@DirectUI@@IAEHXZ
  ?GetThemedBorder@Edit@DirectUI@@QAE_NXZ="C:\Windows\SysWOW64\dui70".?GetThemedBorder@Edit@DirectUI@@QAE_NXZ
  ?GetThumb@TouchScrollBar@DirectUI@@QAEPAVElement@2@XZ="C:\Windows\SysWOW64\dui70".?GetThumb@TouchScrollBar@DirectUI@@QAEPAVElement@2@XZ
  ?GetThumbElement@TouchSlider@DirectUI@@QAEPAVButton@2@XZ="C:\Windows\SysWOW64\dui70".?GetThumbElement@TouchSlider@DirectUI@@QAEPAVButton@2@XZ
  ?GetThumbPosition@CCTrackBar@DirectUI@@QAEHXZ="C:\Windows\SysWOW64\dui70".?GetThumbPosition@CCTrackBar@DirectUI@@QAEHXZ
  ?GetThumbValue@TouchSlider@DirectUI@@QAEHXZ="C:\Windows\SysWOW64\dui70".?GetThumbValue@TouchSlider@DirectUI@@QAEHXZ
  ?GetTickCount@TouchSlider@DirectUI@@QAEHXZ="C:\Windows\SysWOW64\dui70".?GetTickCount@TouchSlider@DirectUI@@QAEHXZ
  ?GetTitleText@TouchSwitch@DirectUI@@QAEPBGPAPAVValue@2@@Z="C:\Windows\SysWOW64\dui70".?GetTitleText@TouchSwitch@DirectUI@@QAEPBGPAPAVValue@2@@Z
  ?GetToggleOnClick@TouchCheckBox@DirectUI@@QAE_NXZ="C:\Windows\SysWOW64\dui70".?GetToggleOnClick@TouchCheckBox@DirectUI@@QAE_NXZ
  ?GetToggleState@EventManager@DirectUI@@CGXPAUtagVARIANT@@@Z="C:\Windows\SysWOW64\dui70".?GetToggleState@EventManager@DirectUI@@CGXPAUtagVARIANT@@@Z
  ?GetToggleState@ToggleProxy@DirectUI@@AAEJPAW4ToggleState@@@Z="C:\Windows\SysWOW64\dui70".?GetToggleState@ToggleProxy@DirectUI@@AAEJPAW4ToggleState@@@Z
  ?GetToggleValue@TouchSwitch@DirectUI@@QAEHXZ="C:\Windows\SysWOW64\dui70".?GetToggleValue@TouchSwitch@DirectUI@@QAEHXZ
  ?GetTooltip@Element@DirectUI@@QAE_NXZ="C:\Windows\SysWOW64\dui70".?GetTooltip@Element@DirectUI@@QAE_NXZ
  ?GetTooltipMaxWidth@Element@DirectUI@@QAEHXZ="C:\Windows\SysWOW64\dui70".?GetTooltipMaxWidth@Element@DirectUI@@QAEHXZ
  ?GetTooltipMaximumLineCount@TouchHWNDElement@DirectUI@@QAEHXZ="C:\Windows\SysWOW64\dui70".?GetTooltipMaximumLineCount@TouchHWNDElement@DirectUI@@QAEHXZ
  ?GetTopLevel@Element@DirectUI@@QAEPAV12@XZ="C:\Windows\SysWOW64\dui70".?GetTopLevel@Element@DirectUI@@QAEPAV12@XZ
  ?GetTrackElement@TouchSlider@DirectUI@@QAEPAVElement@2@XZ="C:\Windows\SysWOW64\dui70".?GetTrackElement@TouchSlider@DirectUI@@QAEPAVElement@2@XZ
  ?GetTracking@CCBaseScrollBar@DirectUI@@QAE_NXZ="C:\Windows\SysWOW64\dui70".?GetTracking@CCBaseScrollBar@DirectUI@@QAE_NXZ
  ?GetTranslatedTileRects@TouchScrollViewer@DirectUI@@QAEXPAUtagRECT@@PAII@Z="C:\Windows\SysWOW64\dui70".?GetTranslatedTileRects@TouchScrollViewer@DirectUI@@QAEXPAUtagRECT@@PAII@Z
  ?GetTransparent@HWNDHost@DirectUI@@QAE_NXZ="C:\Windows\SysWOW64\dui70".?GetTransparent@HWNDHost@DirectUI@@QAE_NXZ
  ?GetTreatRightMouseButtonAsLeft@TouchButton@DirectUI@@QAE_NXZ="C:\Windows\SysWOW64\dui70".?GetTreatRightMouseButtonAsLeft@TouchButton@DirectUI@@QAE_NXZ
  ?GetTreeAlphaLevel@Element@DirectUI@@QAEMXZ="C:\Windows\SysWOW64\dui70".?GetTreeAlphaLevel@Element@DirectUI@@QAEMXZ
  ?GetTrimmedLineCount@RichText@DirectUI@@QAEKXZ="C:\Windows\SysWOW64\dui70".?GetTrimmedLineCount@RichText@DirectUI@@QAEKXZ
  ?GetType@DCSurface@DirectUI@@UBE?AW4EType@Surface@2@XZ="C:\Windows\SysWOW64\dui70".?GetType@DCSurface@DirectUI@@UBE?AW4EType@Surface@2@XZ
  ?GetType@Value@DirectUI@@QBEHXZ="C:\Windows\SysWOW64\dui70".?GetType@Value@DirectUI@@QBEHXZ
  ?GetTypeInfo@DuiAccessible@DirectUI@@UAGJIKPAPAUITypeInfo@@@Z="C:\Windows\SysWOW64\dui70".?GetTypeInfo@DuiAccessible@DirectUI@@UAGJIKPAPAUITypeInfo@@@Z
  ?GetTypeInfoCount@DuiAccessible@DirectUI@@UAGJPAI@Z="C:\Windows\SysWOW64\dui70".?GetTypeInfoCount@DuiAccessible@DirectUI@@UAGJPAI@Z
  ?GetUIAElementProvider@Element@DirectUI@@UAEJABU_GUID@@PAPAX@Z="C:\Windows\SysWOW64\dui70".?GetUIAElementProvider@Element@DirectUI@@UAEJABU_GUID@@PAPAX@Z
  ?GetUIState@HWNDElement@DirectUI@@QAEGXZ="C:\Windows\SysWOW64\dui70".?GetUIState@HWNDElement@DirectUI@@QAEGXZ
  ?GetUiaFocusDelegate@Element@DirectUI@@UAEPAV12@XZ="C:\Windows\SysWOW64\dui70".?GetUiaFocusDelegate@Element@DirectUI@@UAEPAV12@XZ
  ?GetUiaFocusDelegate@TouchEdit2@DirectUI@@UAEPAVElement@2@XZ="C:\Windows\SysWOW64\dui70".?GetUiaFocusDelegate@TouchEdit2@DirectUI@@UAEPAVElement@2@XZ
  ?GetUnavailable@Value@DirectUI@@SGPAV12@XZ="C:\Windows\SysWOW64\dui70".?GetUnavailable@Value@DirectUI@@SGPAV12@XZ
  ?GetUnset@Value@DirectUI@@SGPAV12@XZ="C:\Windows\SysWOW64\dui70".?GetUnset@Value@DirectUI@@SGPAV12@XZ
  ?GetVScroll@ScrollViewer@DirectUI@@MAEPAVBaseScrollBar@2@XZ="C:\Windows\SysWOW64\dui70".?GetVScroll@ScrollViewer@DirectUI@@MAEPAVBaseScrollBar@2@XZ
  ?GetVScroll@StyledScrollViewer@DirectUI@@MAEPAVBaseScrollBar@2@XZ="C:\Windows\SysWOW64\dui70".?GetVScroll@StyledScrollViewer@DirectUI@@MAEPAVBaseScrollBar@2@XZ
  ?GetVScrollbar@TouchScrollViewer@DirectUI@@QAEJPAPAVElement@2@@Z="C:\Windows\SysWOW64\dui70".?GetVScrollbar@TouchScrollViewer@DirectUI@@QAEJPAPAVElement@2@@Z
  ?GetValue@Element@DirectUI@@QAEPAVValue@2@P6GPBUPropertyInfo@2@XZHPAUUpdateCache@2@@Z="C:\Windows\SysWOW64\dui70".?GetValue@Element@DirectUI@@QAEPAVValue@2@P6GPBUPropertyInfo@2@XZHPAUUpdateCache@2@@Z
  ?GetValue@Element@DirectUI@@QAEPAVValue@2@PBUPropertyInfo@2@HPAUUpdateCache@2@@Z="C:\Windows\SysWOW64\dui70".?GetValue@Element@DirectUI@@QAEPAVValue@2@PBUPropertyInfo@2@HPAUUpdateCache@2@@Z
  ?GetValue@ValueProxy@DirectUI@@AAEJPAPAG@Z="C:\Windows\SysWOW64\dui70".?GetValue@ValueProxy@DirectUI@@AAEJPAPAG@Z
  ?GetValueList@Value@DirectUI@@QAEPAV?$DynamicArray@PAVValue@DirectUI@@$0A@@2@XZ="C:\Windows\SysWOW64\dui70".?GetValueList@Value@DirectUI@@QAEPAV?$DynamicArray@PAVValue@DirectUI@@$0A@@2@XZ
  ?GetValueParser@DUIXmlParser@DirectUI@@IAEJPAPAVValueParser@ParserTools@2@@Z="C:\Windows\SysWOW64\dui70".?GetValueParser@DUIXmlParser@DirectUI@@IAEJPAPAVValueParser@ParserTools@2@@Z
  ?GetVertical@ScrollBar@DirectUI@@QAE_NXZ="C:\Windows\SysWOW64\dui70".?GetVertical@ScrollBar@DirectUI@@QAE_NXZ
  ?GetViewSize@ScrollProxy@DirectUI@@AAEJ_NPAN@Z="C:\Windows\SysWOW64\dui70".?GetViewSize@ScrollProxy@DirectUI@@AAEJ_NPAN@Z
  ?GetViewer@ScrollProxy@DirectUI@@AAEJPAPAVViewer@2@@Z="C:\Windows\SysWOW64\dui70".?GetViewer@ScrollProxy@DirectUI@@AAEJPAPAVViewer@2@@Z
  ?GetVisible@Element@DirectUI@@QAE_NXZ="C:\Windows\SysWOW64\dui70".?GetVisible@Element@DirectUI@@QAE_NXZ
  ?GetVisibleRect@TouchScrollViewer@DirectUI@@QAEXPAUtagRECT@@@Z="C:\Windows\SysWOW64\dui70".?GetVisibleRect@TouchScrollViewer@DirectUI@@QAEXPAUtagRECT@@@Z
  ?GetVisited@TouchHyperLink@DirectUI@@QAE_NXZ="C:\Windows\SysWOW64\dui70".?GetVisited@TouchHyperLink@DirectUI@@QAE_NXZ
  ?GetVisualState@TouchSlider@DirectUI@@QAEHXZ="C:\Windows\SysWOW64\dui70".?GetVisualState@TouchSlider@DirectUI@@QAEHXZ
  ?GetWantTabs@Edit@DirectUI@@QAE_NXZ="C:\Windows\SysWOW64\dui70".?GetWantTabs@Edit@DirectUI@@QAE_NXZ
  ?GetWidth@Element@DirectUI@@QAEHXZ="C:\Windows\SysWOW64\dui70".?GetWidth@Element@DirectUI@@QAEHXZ
  ?GetWinStyle@CCBase@DirectUI@@QAEHXZ="C:\Windows\SysWOW64\dui70".?GetWinStyle@CCBase@DirectUI@@QAEHXZ
  ?GetWindow@DuiAccessible@DirectUI@@UAGJPAPAUHWND__@@@Z="C:\Windows\SysWOW64\dui70".?GetWindow@DuiAccessible@DirectUI@@UAGJPAPAUHWND__@@@Z
  ?GetWindow@HWNDHostAccessible@DirectUI@@UAGJPAPAUHWND__@@@Z="C:\Windows\SysWOW64\dui70".?GetWindow@HWNDHostAccessible@DirectUI@@UAGJPAPAUHWND__@@@Z
  ?GetWindowAccessGradientColor@TouchHWNDElement@DirectUI@@QAEPAVValue@2@XZ="C:\Windows\SysWOW64\dui70".?GetWindowAccessGradientColor@TouchHWNDElement@DirectUI@@QAEPAVValue@2@XZ
  ?GetWindowActive@Element@DirectUI@@QAE_NXZ="C:\Windows\SysWOW64\dui70".?GetWindowActive@Element@DirectUI@@QAE_NXZ
  ?GetWindowClassNameAndStyle@HWNDElement@DirectUI@@UAEXPAPBGPAI@Z="C:\Windows\SysWOW64\dui70".?GetWindowClassNameAndStyle@HWNDElement@DirectUI@@UAEXPAPBGPAI@Z
  ?GetWrapKeyboardNavigate@HWNDElement@DirectUI@@QAE_NXZ="C:\Windows\SysWOW64\dui70".?GetWrapKeyboardNavigate@HWNDElement@DirectUI@@QAE_NXZ
  ?GetX@Element@DirectUI@@QAEHXZ="C:\Windows\SysWOW64\dui70".?GetX@Element@DirectUI@@QAEHXZ
  ?GetXBabyElement@XBaby@DirectUI@@UAEPAVHWNDElement@2@XZ="C:\Windows\SysWOW64\dui70".?GetXBabyElement@XBaby@DirectUI@@UAEPAVHWNDElement@2@XZ
  ?GetXBarVisibility@BaseScrollViewer@DirectUI@@QAEHXZ="C:\Windows\SysWOW64\dui70".?GetXBarVisibility@BaseScrollViewer@DirectUI@@QAEHXZ
  ?GetXOffset@BaseScrollViewer@DirectUI@@QAEHXZ="C:\Windows\SysWOW64\dui70".?GetXOffset@BaseScrollViewer@DirectUI@@QAEHXZ
  ?GetXOffset@Viewer@DirectUI@@QAEHXZ="C:\Windows\SysWOW64\dui70".?GetXOffset@Viewer@DirectUI@@QAEHXZ
  ?GetXScrollHeight@BaseScrollViewer@DirectUI@@QAEHXZ="C:\Windows\SysWOW64\dui70".?GetXScrollHeight@BaseScrollViewer@DirectUI@@QAEHXZ
  ?GetXScrollable@BaseScrollViewer@DirectUI@@QAE_NXZ="C:\Windows\SysWOW64\dui70".?GetXScrollable@BaseScrollViewer@DirectUI@@QAE_NXZ
  ?GetXScrollable@Viewer@DirectUI@@QAE_NXZ="C:\Windows\SysWOW64\dui70".?GetXScrollable@Viewer@DirectUI@@QAE_NXZ
  ?GetXmlLiteDll@DUIXmlParser@DirectUI@@KGJPAPAUHINSTANCE__@@@Z="C:\Windows\SysWOW64\dui70".?GetXmlLiteDll@DUIXmlParser@DirectUI@@KGJPAPAUHINSTANCE__@@@Z
  ?GetY@Element@DirectUI@@QAEHXZ="C:\Windows\SysWOW64\dui70".?GetY@Element@DirectUI@@QAEHXZ
  ?GetYBarVisibility@BaseScrollViewer@DirectUI@@QAEHXZ="C:\Windows\SysWOW64\dui70".?GetYBarVisibility@BaseScrollViewer@DirectUI@@QAEHXZ
  ?GetYOffset@BaseScrollViewer@DirectUI@@QAEHXZ="C:\Windows\SysWOW64\dui70".?GetYOffset@BaseScrollViewer@DirectUI@@QAEHXZ
  ?GetYOffset@Viewer@DirectUI@@QAEHXZ="C:\Windows\SysWOW64\dui70".?GetYOffset@Viewer@DirectUI@@QAEHXZ
  ?GetYScrollWidth@BaseScrollViewer@DirectUI@@QAEHXZ="C:\Windows\SysWOW64\dui70".?GetYScrollWidth@BaseScrollViewer@DirectUI@@QAEHXZ
  ?GetYScrollable@BaseScrollViewer@DirectUI@@QAE_NXZ="C:\Windows\SysWOW64\dui70".?GetYScrollable@BaseScrollViewer@DirectUI@@QAE_NXZ
  ?GetYScrollable@Viewer@DirectUI@@QAE_NXZ="C:\Windows\SysWOW64\dui70".?GetYScrollable@Viewer@DirectUI@@QAE_NXZ
  ?GetZoomMaximum@TouchScrollViewer@DirectUI@@QAEMXZ="C:\Windows\SysWOW64\dui70".?GetZoomMaximum@TouchScrollViewer@DirectUI@@QAEMXZ
  ?GetZoomMinimum@TouchScrollViewer@DirectUI@@QAEMXZ="C:\Windows\SysWOW64\dui70".?GetZoomMinimum@TouchScrollViewer@DirectUI@@QAEMXZ
  ?GridItemPattern@Schema@DirectUI@@2HA="C:\Windows\SysWOW64\dui70".?GridItemPattern@Schema@DirectUI@@2HA
  ?GridItem_ColumnSpan_Property@Schema@DirectUI@@2HA="C:\Windows\SysWOW64\dui70".?GridItem_ColumnSpan_Property@Schema@DirectUI@@2HA
  ?GridItem_Column_Property@Schema@DirectUI@@2HA="C:\Windows\SysWOW64\dui70".?GridItem_Column_Property@Schema@DirectUI@@2HA
  ?GridItem_Parent_Property@Schema@DirectUI@@2HA="C:\Windows\SysWOW64\dui70".?GridItem_Parent_Property@Schema@DirectUI@@2HA
  ?GridItem_RowSpan_Property@Schema@DirectUI@@2HA="C:\Windows\SysWOW64\dui70".?GridItem_RowSpan_Property@Schema@DirectUI@@2HA
  ?GridItem_Row_Property@Schema@DirectUI@@2HA="C:\Windows\SysWOW64\dui70".?GridItem_Row_Property@Schema@DirectUI@@2HA
  ?GridPattern@Schema@DirectUI@@2HA="C:\Windows\SysWOW64\dui70".?GridPattern@Schema@DirectUI@@2HA
  ?Grid_ColumnCount_Property@Schema@DirectUI@@2HA="C:\Windows\SysWOW64\dui70".?Grid_ColumnCount_Property@Schema@DirectUI@@2HA
  ?Grid_RowCount_Property@Schema@DirectUI@@2HA="C:\Windows\SysWOW64\dui70".?Grid_RowCount_Property@Schema@DirectUI@@2HA
  ?GroupControlType@Schema@DirectUI@@2HA="C:\Windows\SysWOW64\dui70".?GroupControlType@Schema@DirectUI@@2HA
  ?HandleAccChange@EventManager@DirectUI@@CGJPAVElement@2@PAUIRawElementProviderSimple@@PAVValue@2@2@Z="C:\Windows\SysWOW64\dui70".?HandleAccChange@EventManager@DirectUI@@CGJPAVElement@2@PAUIRawElementProviderSimple@@PAVValue@2@2@Z
  ?HandleAccDesc@EventManager@DirectUI@@CGJPAVElement@2@PAUIRawElementProviderSimple@@PAVValue@2@2@Z="C:\Windows\SysWOW64\dui70".?HandleAccDesc@EventManager@DirectUI@@CGJPAVElement@2@PAUIRawElementProviderSimple@@PAVValue@2@2@Z
  ?HandleAccPatternChange@EventManager@DirectUI@@CGJPAVElement@2@PAUIRawElementProviderSimple@@IIHPAUtagVARIANT@@2P6GX2@Z@Z="C:\Windows\SysWOW64\dui70".?HandleAccPatternChange@EventManager@DirectUI@@CGJPAVElement@2@PAUIRawElementProviderSimple@@IIHPAUtagVARIANT@@2P6GX2@Z@Z
  ?HandleAccRoleEvent@EventManager@DirectUI@@CGJPAUIRawElementProviderSimple@@PAVValue@2@1@Z="C:\Windows\SysWOW64\dui70".?HandleAccRoleEvent@EventManager@DirectUI@@CGJPAUIRawElementProviderSimple@@PAVValue@2@1@Z
  ?HandleAccStateChange@EventManager@DirectUI@@CGJPAUIRawElementProviderSimple@@IIHPAUtagVARIANT@@1_N@Z="C:\Windows\SysWOW64\dui70".?HandleAccStateChange@EventManager@DirectUI@@CGJPAUIRawElementProviderSimple@@IIHPAUtagVARIANT@@1_N@Z
  ?HandleBoolProp@EventManager@DirectUI@@CGJPAVElement@2@P6G_N0@ZPAUIRawElementProviderSimple@@HPAVValue@2@3@Z="C:\Windows\SysWOW64\dui70".?HandleBoolProp@EventManager@DirectUI@@CGJPAVElement@2@P6G_N0@ZPAUIRawElementProviderSimple@@HPAVValue@2@3@Z
  ?HandleChildrenEvent@EventManager@DirectUI@@CGJPAVElement@2@PAVValue@2@1@Z="C:\Windows\SysWOW64\dui70".?HandleChildrenEvent@EventManager@DirectUI@@CGJPAVElement@2@PAVValue@2@1@Z
  ?HandleEnterKeyProp@DialogElement@DirectUI@@SGPBUPropertyInfo@2@XZ="C:\Windows\SysWOW64\dui70".?HandleEnterKeyProp@DialogElement@DirectUI@@SGPBUPropertyInfo@2@XZ
  ?HandleEnterProp@TouchButton@DirectUI@@SGPBUPropertyInfo@2@XZ="C:\Windows\SysWOW64\dui70".?HandleEnterProp@TouchButton@DirectUI@@SGPBUPropertyInfo@2@XZ
  ?HandleGlobalEnterProp@TouchButton@DirectUI@@SGPBUPropertyInfo@2@XZ="C:\Windows\SysWOW64\dui70".?HandleGlobalEnterProp@TouchButton@DirectUI@@SGPBUPropertyInfo@2@XZ
  ?HandleRangeValue@EventManager@DirectUI@@CGJPAVElement@2@PAUIRawElementProviderSimple@@PAVValue@2@2@Z="C:\Windows\SysWOW64\dui70".?HandleRangeValue@EventManager@DirectUI@@CGJPAVElement@2@PAUIRawElementProviderSimple@@PAVValue@2@2@Z
  ?HandleScrollPos@EventManager@DirectUI@@CGJPAVElement@2@PAUIRawElementProviderSimple@@PAVValue@2@2@Z="C:\Windows\SysWOW64\dui70".?HandleScrollPos@EventManager@DirectUI@@CGJPAVElement@2@PAUIRawElementProviderSimple@@PAVValue@2@2@Z
  ?HandleSelectedChange@EventManager@DirectUI@@CGJPAUIRawElementProviderSimple@@PAVValue@2@@Z="C:\Windows\SysWOW64\dui70".?HandleSelectedChange@EventManager@DirectUI@@CGJPAUIRawElementProviderSimple@@PAVValue@2@@Z
  ?HandleStringProp@EventManager@DirectUI@@CGJPAUIRawElementProviderSimple@@HPAVValue@2@1@Z="C:\Windows\SysWOW64\dui70".?HandleStringProp@EventManager@DirectUI@@CGJPAUIRawElementProviderSimple@@HPAVValue@2@1@Z
  ?HandleToggleValue@EventManager@DirectUI@@CGJPAVElement@2@PAUIRawElementProviderSimple@@PAVValue@2@2@Z="C:\Windows\SysWOW64\dui70".?HandleToggleValue@EventManager@DirectUI@@CGJPAVElement@2@PAUIRawElementProviderSimple@@PAVValue@2@2@Z
  ?HandleUiaDestroyListener@Element@DirectUI@@UAEXXZ="C:\Windows\SysWOW64\dui70".?HandleUiaDestroyListener@Element@DirectUI@@UAEXXZ
  ?HandleUiaEventListener@Element@DirectUI@@UAEXPAUEvent@2@@Z="C:\Windows\SysWOW64\dui70".?HandleUiaEventListener@Element@DirectUI@@UAEXPAUEvent@2@@Z
  ?HandleUiaPropertyChangingListener@Element@DirectUI@@UAEXPBUPropertyInfo@2@@Z="C:\Windows\SysWOW64\dui70".?HandleUiaPropertyChangingListener@Element@DirectUI@@UAEXPBUPropertyInfo@2@@Z
  ?HandleUiaPropertyListener@Element@DirectUI@@UAEXPBUPropertyInfo@2@HPAVValue@2@1@Z="C:\Windows\SysWOW64\dui70".?HandleUiaPropertyListener@Element@DirectUI@@UAEXPBUPropertyInfo@2@HPAVValue@2@1@Z
  ?HandleVisibilityChange@EventManager@DirectUI@@CGJPAVElement@2@I@Z="C:\Windows\SysWOW64\dui70".?HandleVisibilityChange@EventManager@DirectUI@@CGJPAVElement@2@I@Z
  ?HasAnimation@Element@DirectUI@@QAE_NXZ="C:\Windows\SysWOW64\dui70".?HasAnimation@Element@DirectUI@@QAE_NXZ
  ?HasBorder@Element@DirectUI@@QAE_NXZ="C:\Windows\SysWOW64\dui70".?HasBorder@Element@DirectUI@@QAE_NXZ
  ?HasChildren@Element@DirectUI@@QAE_NXZ="C:\Windows\SysWOW64\dui70".?HasChildren@Element@DirectUI@@QAE_NXZ
  ?HasContent@Element@DirectUI@@QAE_NXZ="C:\Windows\SysWOW64\dui70".?HasContent@Element@DirectUI@@QAE_NXZ
  ?HasEdgeHighlight@Element@DirectUI@@QAE_NXZ="C:\Windows\SysWOW64\dui70".?HasEdgeHighlight@Element@DirectUI@@QAE_NXZ
  ?HasKeyboardFocusProperty@Schema@DirectUI@@2HA="C:\Windows\SysWOW64\dui70".?HasKeyboardFocusProperty@Schema@DirectUI@@2HA
  ?HasLayout@Element@DirectUI@@QAE_NXZ="C:\Windows\SysWOW64\dui70".?HasLayout@Element@DirectUI@@QAE_NXZ
  ?HasMargin@Element@DirectUI@@QAE_NXZ="C:\Windows\SysWOW64\dui70".?HasMargin@Element@DirectUI@@QAE_NXZ
  ?HasPVLAnimationState@Element@DirectUI@@QAE_NI@Z="C:\Windows\SysWOW64\dui70".?HasPVLAnimationState@Element@DirectUI@@QAE_NI@Z
  ?HasPadding@Element@DirectUI@@QAE_NXZ="C:\Windows\SysWOW64\dui70".?HasPadding@Element@DirectUI@@QAE_NXZ
  ?HasSelection@TouchEdit2@DirectUI@@QAE_NXZ="C:\Windows\SysWOW64\dui70".?HasSelection@TouchEdit2@DirectUI@@QAE_NXZ
  ?HasShieldProp@CCPushButton@DirectUI@@SGPBUPropertyInfo@2@XZ="C:\Windows\SysWOW64\dui70".?HasShieldProp@CCPushButton@DirectUI@@SGPBUPropertyInfo@2@XZ
  ?HaveWin32Focus@HWNDHost@DirectUI@@AAE_NXZ="C:\Windows\SysWOW64\dui70".?HaveWin32Focus@HWNDHost@DirectUI@@AAE_NXZ
  ?HeaderControlType@Schema@DirectUI@@2HA="C:\Windows\SysWOW64\dui70".?HeaderControlType@Schema@DirectUI@@2HA
  ?HeaderItemControlType@Schema@DirectUI@@2HA="C:\Windows\SysWOW64\dui70".?HeaderItemControlType@Schema@DirectUI@@2HA
  ?HeightProp@Element@DirectUI@@SGPBUPropertyInfo@2@XZ="C:\Windows\SysWOW64\dui70".?HeightProp@Element@DirectUI@@SGPBUPropertyInfo@2@XZ
  ?HelpTextProperty@Schema@DirectUI@@2HA="C:\Windows\SysWOW64\dui70".?HelpTextProperty@Schema@DirectUI@@2HA
  ?HideTouchTooltip@TouchHWNDElement@DirectUI@@QAEJXZ="C:\Windows\SysWOW64\dui70".?HideTouchTooltip@TouchHWNDElement@DirectUI@@QAEJXZ
  ?HideWindow@NativeHWNDHost@DirectUI@@QAEXXZ="C:\Windows\SysWOW64\dui70".?HideWindow@NativeHWNDHost@DirectUI@@QAEXXZ
  ?HideWindow@XHost@DirectUI@@QAEXXZ="C:\Windows\SysWOW64\dui70".?HideWindow@XHost@DirectUI@@QAEXXZ
  ?HighDPIProp@Element@DirectUI@@SGPBUPropertyInfo@2@XZ="C:\Windows\SysWOW64\dui70".?HighDPIProp@Element@DirectUI@@SGPBUPropertyInfo@2@XZ
  ?Home@BaseScrollBar@DirectUI@@UAEXXZ="C:\Windows\SysWOW64\dui70".?Home@BaseScrollBar@DirectUI@@UAEXXZ
  ?Host@NativeHWNDHost@DirectUI@@QAEXPAVElement@2@@Z="C:\Windows\SysWOW64\dui70".?Host@NativeHWNDHost@DirectUI@@QAEXPAVElement@2@@Z
  ?Host@XHost@DirectUI@@QAEXPAVElement@2@@Z="C:\Windows\SysWOW64\dui70".?Host@XHost@DirectUI@@QAEXPAVElement@2@@Z
  ?Hosted@PushButton@DirectUI@@SG?AVUID@@XZ="C:\Windows\SysWOW64\dui70".?Hosted@PushButton@DirectUI@@SG?AVUID@@XZ
  ?HyperlinkControlType@Schema@DirectUI@@2HA="C:\Windows\SysWOW64\dui70".?HyperlinkControlType@Schema@DirectUI@@2HA
  ?IDProp@Element@DirectUI@@SGPBUPropertyInfo@2@XZ="C:\Windows\SysWOW64\dui70".?IDProp@Element@DirectUI@@SGPBUPropertyInfo@2@XZ
  ?IHMNotify@TouchHWNDElement@DirectUI@@SG?AVUID@@XZ="C:\Windows\SysWOW64\dui70".?IHMNotify@TouchHWNDElement@DirectUI@@SG?AVUID@@XZ
  ?IMEComposingProp@TouchEditBase@DirectUI@@SGPBUPropertyInfo@2@XZ="C:\Windows\SysWOW64\dui70".?IMEComposingProp@TouchEditBase@DirectUI@@SGPBUPropertyInfo@2@XZ
  ?INITIALSTACKSKIP@CallstackTracker@DirectUI@@0HB="C:\Windows\SysWOW64\dui70".?INITIALSTACKSKIP@CallstackTracker@DirectUI@@0HB
  ?IgnoredKeyCombosProp@TouchEditBase@DirectUI@@SGPBUPropertyInfo@2@XZ="C:\Windows\SysWOW64\dui70".?IgnoredKeyCombosProp@TouchEditBase@DirectUI@@SGPBUPropertyInfo@2@XZ
  ?ImageControlType@Schema@DirectUI@@2HA="C:\Windows\SysWOW64\dui70".?ImageControlType@Schema@DirectUI@@2HA
  ?ImmersiveColorSchemeChange@HWNDElement@DirectUI@@SG?AVUID@@XZ="C:\Windows\SysWOW64\dui70".?ImmersiveColorSchemeChange@HWNDElement@DirectUI@@SG?AVUID@@XZ
  ?Init@?$PatternProvider@VExpandCollapseProvider@DirectUI@@UIExpandCollapseProvider@@$00@DirectUI@@UAEXPAVElementProvider@2@@Z="C:\Windows\SysWOW64\dui70".?Init@?$PatternProvider@VExpandCollapseProvider@DirectUI@@UIExpandCollapseProvider@@$00@DirectUI@@UAEXPAVElementProvider@2@@Z
  ?Init@?$PatternProvider@VGridItemProvider@DirectUI@@UIGridItemProvider@@$01@DirectUI@@UAEXPAVElementProvider@2@@Z="C:\Windows\SysWOW64\dui70".?Init@?$PatternProvider@VGridItemProvider@DirectUI@@UIGridItemProvider@@$01@DirectUI@@UAEXPAVElementProvider@2@@Z
  ?Init@?$PatternProvider@VGridProvider@DirectUI@@UIGridProvider@@$02@DirectUI@@UAEXPAVElementProvider@2@@Z="C:\Windows\SysWOW64\dui70".?Init@?$PatternProvider@VGridProvider@DirectUI@@UIGridProvider@@$02@DirectUI@@UAEXPAVElementProvider@2@@Z
  ?Init@?$PatternProvider@VInvokeProvider@DirectUI@@UIInvokeProvider@@$0A@@DirectUI@@UAEXPAVElementProvider@2@@Z="C:\Windows\SysWOW64\dui70".?Init@?$PatternProvider@VInvokeProvider@DirectUI@@UIInvokeProvider@@$0A@@DirectUI@@UAEXPAVElementProvider@2@@Z
  ?Init@?$PatternProvider@VRangeValueProvider@DirectUI@@UIRangeValueProvider@@$03@DirectUI@@UAEXPAVElementProvider@2@@Z="C:\Windows\SysWOW64\dui70".?Init@?$PatternProvider@VRangeValueProvider@DirectUI@@UIRangeValueProvider@@$03@DirectUI@@UAEXPAVElementProvider@2@@Z
  ?Init@?$PatternProvider@VScrollItemProvider@DirectUI@@UIScrollItemProvider@@$05@DirectUI@@UAEXPAVElementProvider@2@@Z="C:\Windows\SysWOW64\dui70".?Init@?$PatternProvider@VScrollItemProvider@DirectUI@@UIScrollItemProvider@@$05@DirectUI@@UAEXPAVElementProvider@2@@Z
  ?Init@?$PatternProvider@VScrollProvider@DirectUI@@UIScrollProvider@@$04@DirectUI@@UAEXPAVElementProvider@2@@Z="C:\Windows\SysWOW64\dui70".?Init@?$PatternProvider@VScrollProvider@DirectUI@@UIScrollProvider@@$04@DirectUI@@UAEXPAVElementProvider@2@@Z
  ?Init@?$PatternProvider@VSelectionItemProvider@DirectUI@@UISelectionItemProvider@@$06@DirectUI@@UAEXPAVElementProvider@2@@Z="C:\Windows\SysWOW64\dui70".?Init@?$PatternProvider@VSelectionItemProvider@DirectUI@@UISelectionItemProvider@@$06@DirectUI@@UAEXPAVElementProvider@2@@Z
  ?Init@?$PatternProvider@VSelectionProvider@DirectUI@@UISelectionProvider@@$07@DirectUI@@UAEXPAVElementProvider@2@@Z="C:\Windows\SysWOW64\dui70".?Init@?$PatternProvider@VSelectionProvider@DirectUI@@UISelectionProvider@@$07@DirectUI@@UAEXPAVElementProvider@2@@Z
  ?Init@?$PatternProvider@VTableItemProvider@DirectUI@@UITableItemProvider@@$09@DirectUI@@UAEXPAVElementProvider@2@@Z="C:\Windows\SysWOW64\dui70".?Init@?$PatternProvider@VTableItemProvider@DirectUI@@UITableItemProvider@@$09@DirectUI@@UAEXPAVElementProvider@2@@Z
  ?Init@?$PatternProvider@VTableProvider@DirectUI@@UITableProvider@@$08@DirectUI@@UAEXPAVElementProvider@2@@Z="C:\Windows\SysWOW64\dui70".?Init@?$PatternProvider@VTableProvider@DirectUI@@UITableProvider@@$08@DirectUI@@UAEXPAVElementProvider@2@@Z
  ?Init@?$PatternProvider@VToggleProvider@DirectUI@@UIToggleProvider@@$0L@@DirectUI@@UAEXPAVElementProvider@2@@Z="C:\Windows\SysWOW64\dui70".?Init@?$PatternProvider@VToggleProvider@DirectUI@@UIToggleProvider@@$0L@@DirectUI@@UAEXPAVElementProvider@2@@Z
  ?Init@?$PatternProvider@VValueProvider@DirectUI@@UIValueProvider@@$0M@@DirectUI@@UAEXPAVElementProvider@2@@Z="C:\Windows\SysWOW64\dui70".?Init@?$PatternProvider@VValueProvider@DirectUI@@UIValueProvider@@$0M@@DirectUI@@UAEXPAVElementProvider@2@@Z
  ?Init@AutoThread@DirectUI@@QAEJXZ="C:\Windows\SysWOW64\dui70".?Init@AutoThread@DirectUI@@QAEJXZ
  ?Init@BrowserSelectionProxy@DirectUI@@MAEXPAVElement@2@@Z="C:\Windows\SysWOW64\dui70".?Init@BrowserSelectionProxy@DirectUI@@MAEXPAVElement@2@@Z
  ?Init@CallstackTracker@DirectUI@@SGHXZ="C:\Windows\SysWOW64\dui70".?Init@CallstackTracker@DirectUI@@SGHXZ
  ?Init@ElementProvider@DirectUI@@MAEJPAVElement@2@PAVInvokeHelper@2@@Z="C:\Windows\SysWOW64\dui70".?Init@ElementProvider@DirectUI@@MAEJPAVElement@2@PAVInvokeHelper@2@@Z
  ?Init@ElementProviderManager@DirectUI@@SGJXZ="C:\Windows\SysWOW64\dui70".?Init@ElementProviderManager@DirectUI@@SGJXZ
  ?Init@ElementProxy@DirectUI@@MAEXPAVElement@2@@Z="C:\Windows\SysWOW64\dui70".?Init@ElementProxy@DirectUI@@MAEXPAVElement@2@@Z
  ?Init@EventManager@DirectUI@@SGJXZ="C:\Windows\SysWOW64\dui70".?Init@EventManager@DirectUI@@SGJXZ
  ?Init@ExpandCollapseProxy@DirectUI@@MAEXPAVElement@2@@Z="C:\Windows\SysWOW64\dui70".?Init@ExpandCollapseProxy@DirectUI@@MAEXPAVElement@2@@Z
  ?Init@GridItemProxy@DirectUI@@MAEXPAVElement@2@@Z="C:\Windows\SysWOW64\dui70".?Init@GridItemProxy@DirectUI@@MAEXPAVElement@2@@Z
  ?Init@GridProxy@DirectUI@@MAEXPAVElement@2@@Z="C:\Windows\SysWOW64\dui70".?Init@GridProxy@DirectUI@@MAEXPAVElement@2@@Z
  ?Init@HWNDElementProvider@DirectUI@@MAEJPAVHWNDElement@2@PAVInvokeHelper@2@@Z="C:\Windows\SysWOW64\dui70".?Init@HWNDElementProvider@DirectUI@@MAEJPAVHWNDElement@2@PAVInvokeHelper@2@@Z
  ?Init@HWNDElementProxy@DirectUI@@UAEXPAVHWNDElement@2@@Z="C:\Windows\SysWOW64\dui70".?Init@HWNDElementProxy@DirectUI@@UAEXPAVHWNDElement@2@@Z
  ?Init@InvokeHelper@DirectUI@@QAEHK@Z="C:\Windows\SysWOW64\dui70".?Init@InvokeHelper@DirectUI@@QAEHK@Z
  ?Init@InvokeManager@DirectUI@@SGJXZ="C:\Windows\SysWOW64\dui70".?Init@InvokeManager@DirectUI@@SGJXZ
  ?Init@InvokeProxy@DirectUI@@MAEXPAVElement@2@@Z="C:\Windows\SysWOW64\dui70".?Init@InvokeProxy@DirectUI@@MAEXPAVElement@2@@Z
  ?Init@ModernProgressBarRangeValueProxy@DirectUI@@MAEXPAVElement@2@@Z="C:\Windows\SysWOW64\dui70".?Init@ModernProgressBarRangeValueProxy@DirectUI@@MAEXPAVElement@2@@Z
  ?Init@NavReference@DirectUI@@QAEXPAVElement@2@PAUtagRECT@@@Z="C:\Windows\SysWOW64\dui70".?Init@NavReference@DirectUI@@QAEXPAVElement@2@PAUtagRECT@@@Z
  ?Init@NavScoring@DirectUI@@QAEXPAVElement@2@HPBUNavReference@2@@Z="C:\Windows\SysWOW64\dui70".?Init@NavScoring@DirectUI@@QAEXPAVElement@2@HPBUNavReference@2@@Z
  ?Init@NavigatorSelectionItemProxy@DirectUI@@MAEXPAVElement@2@@Z="C:\Windows\SysWOW64\dui70".?Init@NavigatorSelectionItemProxy@DirectUI@@MAEXPAVElement@2@@Z
  ?Init@ProgressRangeValueProxy@DirectUI@@MAEXPAVElement@2@@Z="C:\Windows\SysWOW64\dui70".?Init@ProgressRangeValueProxy@DirectUI@@MAEXPAVElement@2@@Z
  ?Init@ProviderProxy@DirectUI@@MAEXPAVElement@2@@Z="C:\Windows\SysWOW64\dui70".?Init@ProviderProxy@DirectUI@@MAEXPAVElement@2@@Z
  ?Init@RangeValueProxy@DirectUI@@MAEXPAVElement@2@@Z="C:\Windows\SysWOW64\dui70".?Init@RangeValueProxy@DirectUI@@MAEXPAVElement@2@@Z
  ?Init@Schema@DirectUI@@SGJXZ="C:\Windows\SysWOW64\dui70".?Init@Schema@DirectUI@@SGJXZ
  ?Init@ScrollBarRangeValueProxy@DirectUI@@MAEXPAVElement@2@@Z="C:\Windows\SysWOW64\dui70".?Init@ScrollBarRangeValueProxy@DirectUI@@MAEXPAVElement@2@@Z
  ?Init@ScrollItemProxy@DirectUI@@MAEXPAVElement@2@@Z="C:\Windows\SysWOW64\dui70".?Init@ScrollItemProxy@DirectUI@@MAEXPAVElement@2@@Z
  ?Init@ScrollProxy@DirectUI@@MAEXPAVElement@2@@Z="C:\Windows\SysWOW64\dui70".?Init@ScrollProxy@DirectUI@@MAEXPAVElement@2@@Z
  ?Init@SelectionItemProxy@DirectUI@@MAEXPAVElement@2@@Z="C:\Windows\SysWOW64\dui70".?Init@SelectionItemProxy@DirectUI@@MAEXPAVElement@2@@Z
  ?Init@SelectionProxy@DirectUI@@MAEXPAVElement@2@@Z="C:\Windows\SysWOW64\dui70".?Init@SelectionProxy@DirectUI@@MAEXPAVElement@2@@Z
  ?Init@SelectorSelectionItemProxy@DirectUI@@MAEXPAVElement@2@@Z="C:\Windows\SysWOW64\dui70".?Init@SelectorSelectionItemProxy@DirectUI@@MAEXPAVElement@2@@Z
  ?Init@SelectorSelectionProxy@DirectUI@@MAEXPAVElement@2@@Z="C:\Windows\SysWOW64\dui70".?Init@SelectorSelectionProxy@DirectUI@@MAEXPAVElement@2@@Z
  ?Init@TableItemProxy@DirectUI@@MAEXPAVElement@2@@Z="C:\Windows\SysWOW64\dui70".?Init@TableItemProxy@DirectUI@@MAEXPAVElement@2@@Z
  ?Init@TableProxy@DirectUI@@MAEXPAVElement@2@@Z="C:\Windows\SysWOW64\dui70".?Init@TableProxy@DirectUI@@MAEXPAVElement@2@@Z
  ?Init@ToggleProxy@DirectUI@@MAEXPAVElement@2@@Z="C:\Windows\SysWOW64\dui70".?Init@ToggleProxy@DirectUI@@MAEXPAVElement@2@@Z
  ?Init@ValueProxy@DirectUI@@MAEXPAVElement@2@@Z="C:\Windows\SysWOW64\dui70".?Init@ValueProxy@DirectUI@@MAEXPAVElement@2@@Z
  ?InitOnceCallback@CallstackTracker@DirectUI@@CGHPAT_RTL_RUN_ONCE@@PAXPAPAX@Z="C:\Windows\SysWOW64\dui70".?InitOnceCallback@CallstackTracker@DirectUI@@CGHPAT_RTL_RUN_ONCE@@PAXPAPAX@Z
  ?InitProcess@FontCache@DirectUI@@SGJXZ="C:\Windows\SysWOW64\dui70".?InitProcess@FontCache@DirectUI@@SGJXZ
  ?InitPropSheetPage@TaskPage@DirectUI@@MAEXPAU_PROPSHEETPAGEW@@@Z="C:\Windows\SysWOW64\dui70".?InitPropSheetPage@TaskPage@DirectUI@@MAEXPAU_PROPSHEETPAGEW@@@Z
  ?InitThread@FontCache@DirectUI@@SGJXZ="C:\Windows\SysWOW64\dui70".?InitThread@FontCache@DirectUI@@SGJXZ
  ?Initialize@AccessibleButton@DirectUI@@QAEJPAVElement@2@PAK@Z="C:\Windows\SysWOW64\dui70".?Initialize@AccessibleButton@DirectUI@@QAEJPAVElement@2@PAK@Z
  ?Initialize@AnimationStrip@DirectUI@@QAEJIPAVElement@2@PAK@Z="C:\Windows\SysWOW64\dui70".?Initialize@AnimationStrip@DirectUI@@QAEJIPAVElement@2@PAK@Z
  ?Initialize@AutoButton@DirectUI@@QAEJPAVElement@2@PAK@Z="C:\Windows\SysWOW64\dui70".?Initialize@AutoButton@DirectUI@@QAEJPAVElement@2@PAK@Z
  ?Initialize@BaseScrollViewer@DirectUI@@QAEJPAVElement@2@PAK@Z="C:\Windows\SysWOW64\dui70".?Initialize@BaseScrollViewer@DirectUI@@QAEJPAVElement@2@PAK@Z
  ?Initialize@Bind@DirectUI@@QAEJPAVElement@2@PAK@Z="C:\Windows\SysWOW64\dui70".?Initialize@Bind@DirectUI@@QAEJPAVElement@2@PAK@Z
  ?Initialize@BorderLayout@DirectUI@@QAEXXZ="C:\Windows\SysWOW64\dui70".?Initialize@BorderLayout@DirectUI@@QAEXXZ
  ?Initialize@Browser@DirectUI@@QAEJPAVElement@2@PAK@Z="C:\Windows\SysWOW64\dui70".?Initialize@Browser@DirectUI@@QAEJPAVElement@2@PAK@Z
  ?Initialize@Button@DirectUI@@QAEJIPAVElement@2@PAK@Z="C:\Windows\SysWOW64\dui70".?Initialize@Button@DirectUI@@QAEJIPAVElement@2@PAK@Z
  ?Initialize@CCBase@DirectUI@@QAEJIPAVElement@2@PAK@Z="C:\Windows\SysWOW64\dui70".?Initialize@CCBase@DirectUI@@QAEJIPAVElement@2@PAK@Z
  ?Initialize@CCBaseScrollBar@DirectUI@@QAEJIPAVElement@2@PAK@Z="C:\Windows\SysWOW64\dui70".?Initialize@CCBaseScrollBar@DirectUI@@QAEJIPAVElement@2@PAK@Z
  ?Initialize@CCListView@DirectUI@@QAEJIPAVElement@2@PAK@Z="C:\Windows\SysWOW64\dui70".?Initialize@CCListView@DirectUI@@QAEJIPAVElement@2@PAK@Z
  ?Initialize@CCProgressBar@DirectUI@@QAEJIPAVElement@2@PAK@Z="C:\Windows\SysWOW64\dui70".?Initialize@CCProgressBar@DirectUI@@QAEJIPAVElement@2@PAK@Z
  ?Initialize@CSafeElementProxy@@IAEJPAVElement@DirectUI@@@Z="C:\Windows\SysWOW64\dui70".?Initialize@CSafeElementProxy@@IAEJPAVElement@DirectUI@@@Z
  ?Initialize@CheckBoxGlyph@DirectUI@@QAEJIPAVElement@2@PAK@Z="C:\Windows\SysWOW64\dui70".?Initialize@CheckBoxGlyph@DirectUI@@QAEJIPAVElement@2@PAK@Z
  ?Initialize@ClassInfoBase@DirectUI@@QAEJPAUHINSTANCE__@@PBG_NPBQBUPropertyInfo@2@I@Z="C:\Windows\SysWOW64\dui70".?Initialize@ClassInfoBase@DirectUI@@QAEJPAUHINSTANCE__@@PBG_NPBQBUPropertyInfo@2@I@Z
  ?Initialize@Clipper@DirectUI@@QAEJPAVElement@2@PAK@Z="C:\Windows\SysWOW64\dui70".?Initialize@Clipper@DirectUI@@QAEJPAVElement@2@PAK@Z
  ?Initialize@Combobox@DirectUI@@QAEJIPAVElement@2@PAK@Z="C:\Windows\SysWOW64\dui70".?Initialize@Combobox@DirectUI@@QAEJIPAVElement@2@PAK@Z
  ?Initialize@DUIXmlParser@DirectUI@@IAEJXZ="C:\Windows\SysWOW64\dui70".?Initialize@DUIXmlParser@DirectUI@@IAEJXZ
  ?Initialize@DialogElementCore@DirectUI@@QAEXPAUIDialogElement@2@PAUIElementListener@2@@Z="C:\Windows\SysWOW64\dui70".?Initialize@DialogElementCore@DirectUI@@QAEXPAUIDialogElement@2@PAUIElementListener@2@@Z
  ?Initialize@DuiAccessible@DirectUI@@QAEXPAVElement@2@@Z="C:\Windows\SysWOW64\dui70".?Initialize@DuiAccessible@DirectUI@@QAEXPAVElement@2@@Z
  ?Initialize@Edit@DirectUI@@QAEJIPAVElement@2@PAK@Z="C:\Windows\SysWOW64\dui70".?Initialize@Edit@DirectUI@@QAEJIPAVElement@2@PAK@Z
  ?Initialize@Element@DirectUI@@QAEJIPAV12@PAK@Z="C:\Windows\SysWOW64\dui70".?Initialize@Element@DirectUI@@QAEJIPAV12@PAK@Z
  ?Initialize@Expando@DirectUI@@QAEJPAVElement@2@PAK@Z="C:\Windows\SysWOW64\dui70".?Initialize@Expando@DirectUI@@QAEJPAVElement@2@PAK@Z
  ?Initialize@ExpandoButtonGlyph@DirectUI@@QAEJIPAVElement@2@PAK@Z="C:\Windows\SysWOW64\dui70".?Initialize@ExpandoButtonGlyph@DirectUI@@QAEJIPAVElement@2@PAK@Z
  ?Initialize@FillLayout@DirectUI@@QAEXXZ="C:\Windows\SysWOW64\dui70".?Initialize@FillLayout@DirectUI@@QAEXXZ
  ?Initialize@FlowLayout@DirectUI@@QAEX_NIII@Z="C:\Windows\SysWOW64\dui70".?Initialize@FlowLayout@DirectUI@@QAEX_NIII@Z
  ?Initialize@GridLayout@DirectUI@@QAEXHH@Z="C:\Windows\SysWOW64\dui70".?Initialize@GridLayout@DirectUI@@QAEXHH@Z
  ?Initialize@HWNDElement@DirectUI@@QAEJPAUHWND__@@_NIPAVElement@2@PAK@Z="C:\Windows\SysWOW64\dui70".?Initialize@HWNDElement@DirectUI@@QAEJPAUHWND__@@_NIPAVElement@2@PAK@Z
  ?Initialize@HWNDElementAccessible@DirectUI@@QAEJPAVHWNDElement@2@@Z="C:\Windows\SysWOW64\dui70".?Initialize@HWNDElementAccessible@DirectUI@@QAEJPAVHWNDElement@2@@Z
  ?Initialize@HWNDHost@DirectUI@@QAEJIIPAVElement@2@PAK@Z="C:\Windows\SysWOW64\dui70".?Initialize@HWNDHost@DirectUI@@QAEJIIPAVElement@2@PAK@Z
  ?Initialize@HWNDHostAccessible@DirectUI@@QAEJPAVElement@2@PAUIAccessible@@@Z="C:\Windows\SysWOW64\dui70".?Initialize@HWNDHostAccessible@DirectUI@@QAEJPAVElement@2@PAUIAccessible@@@Z
  ?Initialize@Layout@DirectUI@@QAEXXZ="C:\Windows\SysWOW64\dui70".?Initialize@Layout@DirectUI@@QAEXXZ
  ?Initialize@Macro@DirectUI@@QAEJPAVElement@2@PAK@Z="C:\Windows\SysWOW64\dui70".?Initialize@Macro@DirectUI@@QAEJPAVElement@2@PAK@Z
  ?Initialize@NativeHWNDHost@DirectUI@@QAEJPBG0PAUHWND__@@PAUHICON__@@HHHHHHPAUHINSTANCE__@@I@Z="C:\Windows\SysWOW64\dui70".?Initialize@NativeHWNDHost@DirectUI@@QAEJPBG0PAUHWND__@@PAUHICON__@@HHHHHHPAUHINSTANCE__@@I@Z
  ?Initialize@NativeHWNDHost@DirectUI@@QAEJPBGPAUHWND__@@PAUHICON__@@HHHHHHI@Z="C:\Windows\SysWOW64\dui70".?Initialize@NativeHWNDHost@DirectUI@@QAEJPBGPAUHWND__@@PAUHICON__@@HHHHHHI@Z
  ?Initialize@Navigator@DirectUI@@QAEJPAVElement@2@PAK@Z="C:\Windows\SysWOW64\dui70".?Initialize@Navigator@DirectUI@@QAEJPAVElement@2@PAK@Z
  ?Initialize@NineGridLayout@DirectUI@@QAEXXZ="C:\Windows\SysWOW64\dui70".?Initialize@NineGridLayout@DirectUI@@QAEXXZ
  ?Initialize@PText@DirectUI@@QAEJPAVElement@2@PAK@Z="C:\Windows\SysWOW64\dui70".?Initialize@PText@DirectUI@@QAEJPAVElement@2@PAK@Z
  ?Initialize@Page@DirectUI@@QAEJPAVElement@2@PAK@Z="C:\Windows\SysWOW64\dui70".?Initialize@Page@DirectUI@@QAEJPAVElement@2@PAK@Z
  ?Initialize@Pages@DirectUI@@QAEJPAVElement@2@PAK@Z="C:\Windows\SysWOW64\dui70".?Initialize@Pages@DirectUI@@QAEJPAVElement@2@PAK@Z
  ?Initialize@Progress@DirectUI@@QAEJPAVElement@2@PAK@Z="C:\Windows\SysWOW64\dui70".?Initialize@Progress@DirectUI@@QAEJPAVElement@2@PAK@Z
  ?Initialize@RadioButtonGlyph@DirectUI@@QAEJIPAVElement@2@PAK@Z="C:\Windows\SysWOW64\dui70".?Initialize@RadioButtonGlyph@DirectUI@@QAEJIPAVElement@2@PAK@Z
  ?Initialize@RefPointElement@DirectUI@@QAEJIPAVElement@2@PAK@Z="C:\Windows\SysWOW64\dui70".?Initialize@RefPointElement@DirectUI@@QAEJIPAVElement@2@PAK@Z
  ?Initialize@RepeatButton@DirectUI@@QAEJIPAVElement@2@PAK@Z="C:\Windows\SysWOW64\dui70".?Initialize@RepeatButton@DirectUI@@QAEJIPAVElement@2@PAK@Z
  ?Initialize@Repeater@DirectUI@@QAEJPAVElement@2@PAK@Z="C:\Windows\SysWOW64\dui70".?Initialize@Repeater@DirectUI@@QAEJPAVElement@2@PAK@Z
  ?Initialize@RichText@DirectUI@@QAEJPAVElement@2@PAK@Z="C:\Windows\SysWOW64\dui70".?Initialize@RichText@DirectUI@@QAEJPAVElement@2@PAK@Z
  ?Initialize@RowLayout@DirectUI@@QAEJHII@Z="C:\Windows\SysWOW64\dui70".?Initialize@RowLayout@DirectUI@@QAEJHII@Z
  ?Initialize@ScrollBar@DirectUI@@QAEJ_NPAVElement@2@PAK@Z="C:\Windows\SysWOW64\dui70".?Initialize@ScrollBar@DirectUI@@QAEJ_NPAVElement@2@PAK@Z
  ?Initialize@Selector@DirectUI@@QAEJPAVElement@2@PAK@Z="C:\Windows\SysWOW64\dui70".?Initialize@Selector@DirectUI@@QAEJPAVElement@2@PAK@Z
  ?Initialize@SelectorNoDefault@DirectUI@@QAEJPAVElement@2@PAK@Z="C:\Windows\SysWOW64\dui70".?Initialize@SelectorNoDefault@DirectUI@@QAEJPAVElement@2@PAK@Z
  ?Initialize@SemanticZoomToggle@DirectUI@@QAEJPAVElement@2@PAK@Z="C:\Windows\SysWOW64\dui70".?Initialize@SemanticZoomToggle@DirectUI@@QAEJPAVElement@2@PAK@Z
  ?Initialize@TableLayout@DirectUI@@QAEXHHHPAH@Z="C:\Windows\SysWOW64\dui70".?Initialize@TableLayout@DirectUI@@QAEXHHHPAH@Z
  ?Initialize@TextGraphic@DirectUI@@QAEJPAVElement@2@PAK@Z="C:\Windows\SysWOW64\dui70".?Initialize@TextGraphic@DirectUI@@QAEJPAVElement@2@PAK@Z
  ?Initialize@Thumb@DirectUI@@QAEJIPAVElement@2@PAK@Z="C:\Windows\SysWOW64\dui70".?Initialize@Thumb@DirectUI@@QAEJIPAVElement@2@PAK@Z
  ?Initialize@TouchButton@DirectUI@@QAEJIPAVElement@2@PAK@Z="C:\Windows\SysWOW64\dui70".?Initialize@TouchButton@DirectUI@@QAEJIPAVElement@2@PAK@Z
  ?Initialize@TouchCheckBox@DirectUI@@QAEJIPAVElement@2@PAK@Z="C:\Windows\SysWOW64\dui70".?Initialize@TouchCheckBox@DirectUI@@QAEJIPAVElement@2@PAK@Z
  ?Initialize@TouchCheckBoxGlyph@DirectUI@@QAEJPAVElement@2@PAK@Z="C:\Windows\SysWOW64\dui70".?Initialize@TouchCheckBoxGlyph@DirectUI@@QAEJPAVElement@2@PAK@Z
  ?Initialize@TouchCommandButton@DirectUI@@QAEJIPAVElement@2@PAK@Z="C:\Windows\SysWOW64\dui70".?Initialize@TouchCommandButton@DirectUI@@QAEJIPAVElement@2@PAK@Z
  ?Initialize@TouchEdit2@DirectUI@@QAEJPAVElement@2@PAK@Z="C:\Windows\SysWOW64\dui70".?Initialize@TouchEdit2@DirectUI@@QAEJPAVElement@2@PAK@Z
  ?Initialize@TouchHWNDElement@DirectUI@@QAEJPAUHWND__@@_NIPAVElement@2@PAK@Z="C:\Windows\SysWOW64\dui70".?Initialize@TouchHWNDElement@DirectUI@@QAEJPAUHWND__@@_NIPAVElement@2@PAK@Z
  ?Initialize@TouchRepeatButton@DirectUI@@QAEJIPAVElement@2@PAK@Z="C:\Windows\SysWOW64\dui70".?Initialize@TouchRepeatButton@DirectUI@@QAEJIPAVElement@2@PAK@Z
  ?Initialize@TouchScrollBar@DirectUI@@QAEJ_NPAVElement@2@PAK@Z="C:\Windows\SysWOW64\dui70".?Initialize@TouchScrollBar@DirectUI@@QAEJ_NPAVElement@2@PAK@Z
  ?Initialize@TouchSelect@DirectUI@@QAEJPAVElement@2@PAK@Z="C:\Windows\SysWOW64\dui70".?Initialize@TouchSelect@DirectUI@@QAEJPAVElement@2@PAK@Z
  ?Initialize@TouchSlider@DirectUI@@QAEJPAVElement@2@PAK@Z="C:\Windows\SysWOW64\dui70".?Initialize@TouchSlider@DirectUI@@QAEJPAVElement@2@PAK@Z
  ?Initialize@TouchSwitch@DirectUI@@QAEJPAVElement@2@PAK@Z="C:\Windows\SysWOW64\dui70".?Initialize@TouchSwitch@DirectUI@@QAEJPAVElement@2@PAK@Z
  ?Initialize@UnknownElement@DirectUI@@QAEJIPAVElement@2@PAK@Z="C:\Windows\SysWOW64\dui70".?Initialize@UnknownElement@DirectUI@@QAEJIPAVElement@2@PAK@Z
  ?Initialize@VerticalFlowLayout@DirectUI@@QAEX_NIII@Z="C:\Windows\SysWOW64\dui70".?Initialize@VerticalFlowLayout@DirectUI@@QAEX_NIII@Z
  ?Initialize@Viewer@DirectUI@@QAEJPAVElement@2@PAK@Z="C:\Windows\SysWOW64\dui70".?Initialize@Viewer@DirectUI@@QAEJPAVElement@2@PAK@Z
  ?Initialize@XBaby@DirectUI@@IAEJPAVIXElementCP@2@PAVXProvider@2@PAUHWND__@@PAVElement@2@PAK@Z="C:\Windows\SysWOW64\dui70".?Initialize@XBaby@DirectUI@@IAEJPAVIXElementCP@2@PAVXProvider@2@PAUHWND__@@PAVElement@2@PAK@Z
  ?Initialize@XElement@DirectUI@@QAEJIPAVElement@2@PAK@Z="C:\Windows\SysWOW64\dui70".?Initialize@XElement@DirectUI@@QAEJIPAVElement@2@PAK@Z
  ?Initialize@XHost@DirectUI@@QAEJPAVIXElementCP@2@@Z="C:\Windows\SysWOW64\dui70".?Initialize@XHost@DirectUI@@QAEJPAVIXElementCP@2@@Z
  ?Initialize@XProvider@DirectUI@@QAEJPAVElement@2@PAVIXProviderCP@2@@Z="C:\Windows\SysWOW64\dui70".?Initialize@XProvider@DirectUI@@QAEJPAVElement@2@PAVIXProviderCP@2@@Z
  ?Initialize@XResourceProvider@DirectUI@@QAEJPAUHINSTANCE__@@PBG11@Z="C:\Windows\SysWOW64\dui70".?Initialize@XResourceProvider@DirectUI@@QAEJPAUHINSTANCE__@@PBG11@Z
  ?InitializeDllInfo@CallstackTracker@DirectUI@@CGHXZ="C:\Windows\SysWOW64\dui70".?InitializeDllInfo@CallstackTracker@DirectUI@@CGHXZ
  ?InitializeParserFromXmlReader@DUIXmlParser@DirectUI@@IAEJPAUIXmlReader@@PAUHINSTANCE__@@1@Z="C:\Windows\SysWOW64\dui70".?InitializeParserFromXmlReader@DUIXmlParser@DirectUI@@IAEJPAUIXmlReader@@PAUHINSTANCE__@@1@Z
  ?InitializeSymbols@CallstackTracker@DirectUI@@CGHXZ="C:\Windows\SysWOW64\dui70".?InitializeSymbols@CallstackTracker@DirectUI@@CGHXZ
  ?InnerBorderThicknessProp@TouchEdit2@DirectUI@@SGPBUPropertyInfo@2@XZ="C:\Windows\SysWOW64\dui70".?InnerBorderThicknessProp@TouchEdit2@DirectUI@@SGPBUPropertyInfo@2@XZ
  ?Insert@Element@DirectUI@@QAEJPAV12@I@Z="C:\Windows\SysWOW64\dui70".?Insert@Element@DirectUI@@QAEJPAV12@I@Z
  ?Insert@Element@DirectUI@@UAEJPAPAV12@II@Z="C:\Windows\SysWOW64\dui70".?Insert@Element@DirectUI@@UAEJPAPAV12@II@Z
  ?Insert@TouchCheckBox@DirectUI@@UAEJPAPAVElement@2@II@Z="C:\Windows\SysWOW64\dui70".?Insert@TouchCheckBox@DirectUI@@UAEJPAPAVElement@2@II@Z
  ?Insert@TouchCheckBoxGlyph@DirectUI@@UAEJPAPAVElement@2@II@Z="C:\Windows\SysWOW64\dui70".?Insert@TouchCheckBoxGlyph@DirectUI@@UAEJPAPAVElement@2@II@Z
  ?Insert@TouchCommandButton@DirectUI@@UAEJPAPAVElement@2@II@Z="C:\Windows\SysWOW64\dui70".?Insert@TouchCommandButton@DirectUI@@UAEJPAPAVElement@2@II@Z
  ?Insert@TouchEditBase@DirectUI@@UAEJPAPAVElement@2@II@Z="C:\Windows\SysWOW64\dui70".?Insert@TouchEditBase@DirectUI@@UAEJPAPAVElement@2@II@Z
  ?Insert@TouchSelect@DirectUI@@UAEJPAPAVElement@2@II@Z="C:\Windows\SysWOW64\dui70".?Insert@TouchSelect@DirectUI@@UAEJPAPAVElement@2@II@Z
  ?InsertItem@CCTreeView@DirectUI@@QAEPAU_TREEITEM@@PAGIQAU3@1@Z="C:\Windows\SysWOW64\dui70".?InsertItem@CCTreeView@DirectUI@@QAEPAU_TREEITEM@@PAGIQAU3@1@Z
  ?InsertItem@CCTreeView@DirectUI@@QAEPAU_TREEITEM@@PBUtagTVINSERTSTRUCTW@@@Z="C:\Windows\SysWOW64\dui70".?InsertItem@CCTreeView@DirectUI@@QAEPAU_TREEITEM@@PBUtagTVINSERTSTRUCTW@@@Z
  ?IntegrateIMECandidateListProp@TouchEditBase@DirectUI@@SGPBUPropertyInfo@2@XZ="C:\Windows\SysWOW64\dui70".?IntegrateIMECandidateListProp@TouchEditBase@DirectUI@@SGPBUPropertyInfo@2@XZ
  ?InteractionEnd@TouchScrollBar@DirectUI@@SG?AVUID@@XZ="C:\Windows\SysWOW64\dui70".?InteractionEnd@TouchScrollBar@DirectUI@@SG?AVUID@@XZ
  ?InteractionStart@TouchScrollBar@DirectUI@@SG?AVUID@@XZ="C:\Windows\SysWOW64\dui70".?InteractionStart@TouchScrollBar@DirectUI@@SG?AVUID@@XZ
  ?InternalCreate@TableLayout@DirectUI@@SGJHHHPAHPAPAVLayout@2@@Z="C:\Windows\SysWOW64\dui70".?InternalCreate@TableLayout@DirectUI@@SGJHHHPAHPAPAVLayout@2@@Z
  ?InterpolationModeProp@Movie@DirectUI@@SGPBUPropertyInfo@2@XZ="C:\Windows\SysWOW64\dui70".?InterpolationModeProp@Movie@DirectUI@@SGPBUPropertyInfo@2@XZ
  ?Invoke@DuiAccessible@DirectUI@@UAGJJABU_GUID@@KGPAUtagDISPPARAMS@@PAUtagVARIANT@@PAUtagEXCEPINFO@@PAI@Z="C:\Windows\SysWOW64\dui70".?Invoke@DuiAccessible@DirectUI@@UAGJJABU_GUID@@KGPAUtagDISPPARAMS@@PAUtagVARIANT@@PAUtagEXCEPINFO@@PAI@Z
  ?Invoke@InvokeProvider@DirectUI@@UAGJXZ="C:\Windows\SysWOW64\dui70".?Invoke@InvokeProvider@DirectUI@@UAGJXZ
  ?Invoke@Proxy@DirectUI@@IAEXIPAX@Z="C:\Windows\SysWOW64\dui70".?Invoke@Proxy@DirectUI@@IAEXIPAX@Z
  ?InvokeAnimation@Element@DirectUI@@QAEXHI@Z="C:\Windows\SysWOW64\dui70".?InvokeAnimation@Element@DirectUI@@QAEXHI@Z
  ?InvokeAnimation@Element@DirectUI@@QAEXIIMM_N@Z="C:\Windows\SysWOW64\dui70".?InvokeAnimation@Element@DirectUI@@QAEXIIMM_N@Z
  ?InvokeInvokedEvent@Schema@DirectUI@@2HA="C:\Windows\SysWOW64\dui70".?InvokeInvokedEvent@Schema@DirectUI@@2HA
  ?InvokePattern@Schema@DirectUI@@2HA="C:\Windows\SysWOW64\dui70".?InvokePattern@Schema@DirectUI@@2HA
  ?IsActivityOccuring@ModernProgressBar@DirectUI@@QAE_NXZ="C:\Windows\SysWOW64\dui70".?IsActivityOccuring@ModernProgressBar@DirectUI@@QAE_NXZ
  ?IsActivityOccuring@ModernProgressRing@DirectUI@@QAE_NXZ="C:\Windows\SysWOW64\dui70".?IsActivityOccuring@ModernProgressRing@DirectUI@@QAE_NXZ
  ?IsAddLayeredRef@ModernProgressBar@DirectUI@@QAE_NXZ="C:\Windows\SysWOW64\dui70".?IsAddLayeredRef@ModernProgressBar@DirectUI@@QAE_NXZ
  ?IsAddLayeredRef@ModernProgressRing@DirectUI@@QAE_NXZ="C:\Windows\SysWOW64\dui70".?IsAddLayeredRef@ModernProgressRing@DirectUI@@QAE_NXZ
  ?IsAutoHeight@ModernProgressBar@DirectUI@@QAE_NXZ="C:\Windows\SysWOW64\dui70".?IsAutoHeight@ModernProgressBar@DirectUI@@QAE_NXZ
  ?IsBehaviorLayout@Element@DirectUI@@QBE_NXZ="C:\Windows\SysWOW64\dui70".?IsBehaviorLayout@Element@DirectUI@@QBE_NXZ
  ?IsButtonEnabledAndVisible@DialogElementCore@DirectUI@@KG_NPAVElement@2@@Z="C:\Windows\SysWOW64\dui70".?IsButtonEnabledAndVisible@DialogElementCore@DirectUI@@KG_NPAVElement@2@@Z
  ?IsCacheDirty@Layout@DirectUI@@IAE_NXZ="C:\Windows\SysWOW64\dui70".?IsCacheDirty@Layout@DirectUI@@IAE_NXZ
  ?IsCompositedText@Element@DirectUI@@QAE_NXZ="C:\Windows\SysWOW64\dui70".?IsCompositedText@Element@DirectUI@@QAE_NXZ
  ?IsContentElementProperty@Schema@DirectUI@@2HA="C:\Windows\SysWOW64\dui70".?IsContentElementProperty@Schema@DirectUI@@2HA
  ?IsContentProtected@Edit@DirectUI@@UAE_NXZ="C:\Windows\SysWOW64\dui70".?IsContentProtected@Edit@DirectUI@@UAE_NXZ
  ?IsContentProtected@Element@DirectUI@@UAE_NXZ="C:\Windows\SysWOW64\dui70".?IsContentProtected@Element@DirectUI@@UAE_NXZ
  ?IsContentProtected@TouchEditBase@DirectUI@@UAE_NXZ="C:\Windows\SysWOW64\dui70".?IsContentProtected@TouchEditBase@DirectUI@@UAE_NXZ
  ?IsContinuousProp@TouchSlider@DirectUI@@SGPBUPropertyInfo@2@XZ="C:\Windows\SysWOW64\dui70".?IsContinuousProp@TouchSlider@DirectUI@@SGPBUPropertyInfo@2@XZ
  ?IsControlElementProperty@Schema@DirectUI@@2HA="C:\Windows\SysWOW64\dui70".?IsControlElementProperty@Schema@DirectUI@@2HA
  ?IsCorrectImageHlpVersion@CallstackTracker@DirectUI@@CGHXZ="C:\Windows\SysWOW64\dui70".?IsCorrectImageHlpVersion@CallstackTracker@DirectUI@@CGHXZ
  ?IsCrossfadeInProgress@TouchScrollViewer@DirectUI@@QAE_NXZ="C:\Windows\SysWOW64\dui70".?IsCrossfadeInProgress@TouchScrollViewer@DirectUI@@QAE_NXZ
  ?IsDefaultCAlign@Element@DirectUI@@QAE_NXZ="C:\Windows\SysWOW64\dui70".?IsDefaultCAlign@Element@DirectUI@@QAE_NXZ
  ?IsDefaultCursor@Element@DirectUI@@QAE_NXZ="C:\Windows\SysWOW64\dui70".?IsDefaultCursor@Element@DirectUI@@QAE_NXZ
  ?IsDescendent@Element@DirectUI@@QAE_NPAV12@@Z="C:\Windows\SysWOW64\dui70".?IsDescendent@Element@DirectUI@@QAE_NPAV12@@Z
  ?IsDescendent@XElement@DirectUI@@QAE_NPAVElement@2@@Z="C:\Windows\SysWOW64\dui70".?IsDescendent@XElement@DirectUI@@QAE_NPAVElement@2@@Z
  ?IsDescendent@XProvider@DirectUI@@UAGJPAVElement@2@PA_N@Z="C:\Windows\SysWOW64\dui70".?IsDescendent@XProvider@DirectUI@@UAGJPAVElement@2@PA_N@Z
  ?IsDestroyed@Element@DirectUI@@QAE_NXZ="C:\Windows\SysWOW64\dui70".?IsDestroyed@Element@DirectUI@@QAE_NXZ
  ?IsDeterminate@ModernProgressBar@DirectUI@@QAE_NXZ="C:\Windows\SysWOW64\dui70".?IsDeterminate@ModernProgressBar@DirectUI@@QAE_NXZ
  ?IsDynamicScaled@Value@DirectUI@@QAE_NXZ="C:\Windows\SysWOW64\dui70".?IsDynamicScaled@Value@DirectUI@@QAE_NXZ
  ?IsDynamicScaling@DUIXmlParser@DirectUI@@QAE_NXZ="C:\Windows\SysWOW64\dui70".?IsDynamicScaling@DUIXmlParser@DirectUI@@QAE_NXZ
  ?IsEnabledProperty@Schema@DirectUI@@2HA="C:\Windows\SysWOW64\dui70".?IsEnabledProperty@Schema@DirectUI@@2HA
  ?IsEqual@Value@DirectUI@@QAE_NPAV12@@Z="C:\Windows\SysWOW64\dui70".?IsEqual@Value@DirectUI@@QAE_NPAV12@@Z
  ?IsFirstElement@HWNDElement@DirectUI@@QAE_NPAVElement@2@@Z="C:\Windows\SysWOW64\dui70".?IsFirstElement@HWNDElement@DirectUI@@QAE_NPAVElement@2@@Z
  ?IsGlobal@ClassInfoBase@DirectUI@@UBE_NXZ="C:\Windows\SysWOW64\dui70".?IsGlobal@ClassInfoBase@DirectUI@@UBE_NXZ
  ?IsHosted@Element@DirectUI@@QAE_NXZ="C:\Windows\SysWOW64\dui70".?IsHosted@Element@DirectUI@@QAE_NXZ
  ?IsIndependentAnimations@ModernProgressBar@DirectUI@@QAE_NXZ="C:\Windows\SysWOW64\dui70".?IsIndependentAnimations@ModernProgressBar@DirectUI@@QAE_NXZ
  ?IsKeyboardFocusableProperty@Schema@DirectUI@@2HA="C:\Windows\SysWOW64\dui70".?IsKeyboardFocusableProperty@Schema@DirectUI@@2HA
  ?IsLastElement@HWNDElement@DirectUI@@QAE_NPAVElement@2@@Z="C:\Windows\SysWOW64\dui70".?IsLastElement@HWNDElement@DirectUI@@QAE_NPAVElement@2@@Z
  ?IsMSAAEnabled@HWNDElement@DirectUI@@UAE_NXZ="C:\Windows\SysWOW64\dui70".?IsMSAAEnabled@HWNDElement@DirectUI@@UAE_NXZ
  ?IsMSAAEnabled@TouchHWNDElement@DirectUI@@UAE_NXZ="C:\Windows\SysWOW64\dui70".?IsMSAAEnabled@TouchHWNDElement@DirectUI@@UAE_NXZ
  ?IsManualVisualSwapInProgress@TouchScrollViewer@DirectUI@@QAE_NXZ="C:\Windows\SysWOW64\dui70".?IsManualVisualSwapInProgress@TouchScrollViewer@DirectUI@@QAE_NXZ
  ?IsMoveDeferred@HWNDHost@DirectUI@@IAE_NXZ="C:\Windows\SysWOW64\dui70".?IsMoveDeferred@HWNDHost@DirectUI@@IAE_NXZ
  ?IsOffscreen@Schema@DirectUI@@2HA="C:\Windows\SysWOW64\dui70".?IsOffscreen@Schema@DirectUI@@2HA
  ?IsPasswordProperty@Schema@DirectUI@@2HA="C:\Windows\SysWOW64\dui70".?IsPasswordProperty@Schema@DirectUI@@2HA
  ?IsPatternSupported@ElementProxy@DirectUI@@IAEJW4Pattern@Schema@2@PA_N@Z="C:\Windows\SysWOW64\dui70".?IsPatternSupported@ElementProxy@DirectUI@@IAEJW4Pattern@Schema@2@PA_N@Z
  ?IsPatternSupported@ExpandCollapseProxy@DirectUI@@SG_NPAVElement@2@@Z="C:\Windows\SysWOW64\dui70".?IsPatternSupported@ExpandCollapseProxy@DirectUI@@SG_NPAVElement@2@@Z
  ?IsPatternSupported@GridItemProxy@DirectUI@@SG_NPAVElement@2@@Z="C:\Windows\SysWOW64\dui70".?IsPatternSupported@GridItemProxy@DirectUI@@SG_NPAVElement@2@@Z
  ?IsPatternSupported@GridProxy@DirectUI@@SG_NPAVElement@2@@Z="C:\Windows\SysWOW64\dui70".?IsPatternSupported@GridProxy@DirectUI@@SG_NPAVElement@2@@Z
  ?IsPatternSupported@InvokeProxy@DirectUI@@SG_NPAVElement@2@@Z="C:\Windows\SysWOW64\dui70".?IsPatternSupported@InvokeProxy@DirectUI@@SG_NPAVElement@2@@Z
  ?IsPatternSupported@RangeValueProxy@DirectUI@@SG_NPAVElement@2@@Z="C:\Windows\SysWOW64\dui70".?IsPatternSupported@RangeValueProxy@DirectUI@@SG_NPAVElement@2@@Z
  ?IsPatternSupported@ScrollItemProxy@DirectUI@@SG_NPAVElement@2@@Z="C:\Windows\SysWOW64\dui70".?IsPatternSupported@ScrollItemProxy@DirectUI@@SG_NPAVElement@2@@Z
  ?IsPatternSupported@ScrollProxy@DirectUI@@SG_NPAVElement@2@@Z="C:\Windows\SysWOW64\dui70".?IsPatternSupported@ScrollProxy@DirectUI@@SG_NPAVElement@2@@Z
  ?IsPatternSupported@SelectionItemProxy@DirectUI@@SG_NPAVElement@2@@Z="C:\Windows\SysWOW64\dui70".?IsPatternSupported@SelectionItemProxy@DirectUI@@SG_NPAVElement@2@@Z
  ?IsPatternSupported@SelectionProxy@DirectUI@@SG_NPAVElement@2@@Z="C:\Windows\SysWOW64\dui70".?IsPatternSupported@SelectionProxy@DirectUI@@SG_NPAVElement@2@@Z
  ?IsPatternSupported@TableItemProxy@DirectUI@@SG_NPAVElement@2@@Z="C:\Windows\SysWOW64\dui70".?IsPatternSupported@TableItemProxy@DirectUI@@SG_NPAVElement@2@@Z
  ?IsPatternSupported@TableProxy@DirectUI@@SG_NPAVElement@2@@Z="C:\Windows\SysWOW64\dui70".?IsPatternSupported@TableProxy@DirectUI@@SG_NPAVElement@2@@Z
  ?IsPatternSupported@ToggleProxy@DirectUI@@SG_NPAVElement@2@@Z="C:\Windows\SysWOW64\dui70".?IsPatternSupported@ToggleProxy@DirectUI@@SG_NPAVElement@2@@Z
  ?IsPatternSupported@ValueProxy@DirectUI@@SG_NPAVElement@2@@Z="C:\Windows\SysWOW64\dui70".?IsPatternSupported@ValueProxy@DirectUI@@SG_NPAVElement@2@@Z
  ?IsPeripheral@Schema@DirectUI@@2HA="C:\Windows\SysWOW64\dui70".?IsPeripheral@Schema@DirectUI@@2HA
  ?IsPinned@BaseScrollBar@DirectUI@@QAE_NXZ="C:\Windows\SysWOW64\dui70".?IsPinned@BaseScrollBar@DirectUI@@QAE_NXZ
  ?IsPointValid@Element@DirectUI@@AAE_NNN@Z="C:\Windows\SysWOW64\dui70".?IsPointValid@Element@DirectUI@@AAE_NNN@Z
  ?IsPopupOpen@TouchSelect@DirectUI@@QAE_NXZ="C:\Windows\SysWOW64\dui70".?IsPopupOpen@TouchSelect@DirectUI@@QAE_NXZ
  ?IsPressedProp@TouchSlider@DirectUI@@SGPBUPropertyInfo@2@XZ="C:\Windows\SysWOW64\dui70".?IsPressedProp@TouchSlider@DirectUI@@SGPBUPropertyInfo@2@XZ
  ?IsRTL@Element@DirectUI@@QAE_NXZ="C:\Windows\SysWOW64\dui70".?IsRTL@Element@DirectUI@@QAE_NXZ
  ?IsRTLReading@Element@DirectUI@@UAE_NXZ="C:\Windows\SysWOW64\dui70".?IsRTLReading@Element@DirectUI@@UAE_NXZ
  ?IsRegisteredForAnimationStatusChanges@TouchHWNDElement@DirectUI@@QAE_NXZ="C:\Windows\SysWOW64\dui70".?IsRegisteredForAnimationStatusChanges@TouchHWNDElement@DirectUI@@QAE_NXZ
  ?IsReorderable@ItemList@DirectUI@@QAE_NXZ="C:\Windows\SysWOW64\dui70".?IsReorderable@ItemList@DirectUI@@QAE_NXZ
  ?IsRoot@Element@DirectUI@@QAEHXZ="C:\Windows\SysWOW64\dui70".?IsRoot@Element@DirectUI@@QAEHXZ
  ?IsScrollable@BaseScrollBar@DirectUI@@QAE_NXZ="C:\Windows\SysWOW64\dui70".?IsScrollable@BaseScrollBar@DirectUI@@QAE_NXZ
  ?IsSelfLayout@Element@DirectUI@@QAE_NXZ="C:\Windows\SysWOW64\dui70".?IsSelfLayout@Element@DirectUI@@QAE_NXZ
  ?IsShowOnOffFeedbackProp@TouchSlider@DirectUI@@SGPBUPropertyInfo@2@XZ="C:\Windows\SysWOW64\dui70".?IsShowOnOffFeedbackProp@TouchSlider@DirectUI@@SGPBUPropertyInfo@2@XZ
  ?IsSmoothFillAnimation@ModernProgressBar@DirectUI@@QAE_NXZ="C:\Windows\SysWOW64\dui70".?IsSmoothFillAnimation@ModernProgressBar@DirectUI@@QAE_NXZ
  ?IsSubclassOf@ClassInfoBase@DirectUI@@UBE_NPAUIClassInfo@2@@Z="C:\Windows\SysWOW64\dui70".?IsSubclassOf@ClassInfoBase@DirectUI@@UBE_NPAUIClassInfo@2@@Z
  ?IsThemeClassName@DUIXmlParser@DirectUI@@KG_NPBUExprNode@ParserTools@2@@Z="C:\Windows\SysWOW64\dui70".?IsThemeClassName@DUIXmlParser@DirectUI@@KG_NPBUExprNode@ParserTools@2@@Z
  ?IsThumbActive@TouchScrollBar@DirectUI@@QAE_NXZ="C:\Windows\SysWOW64\dui70".?IsThumbActive@TouchScrollBar@DirectUI@@QAE_NXZ
  ?IsTileMember@TouchScrollViewer@DirectUI@@QAE_NIPAVElement@2@@Z="C:\Windows\SysWOW64\dui70".?IsTileMember@TouchScrollViewer@DirectUI@@QAE_NIPAVElement@2@@Z
  ?IsValidAccessor@Element@DirectUI@@QAE_NPBUPropertyInfo@2@H_N@Z="C:\Windows\SysWOW64\dui70".?IsValidAccessor@Element@DirectUI@@QAE_NPBUPropertyInfo@2@H_N@Z
  ?IsValidProperty@ClassInfoBase@DirectUI@@UBE_NPBUPropertyInfo@2@@Z="C:\Windows\SysWOW64\dui70".?IsValidProperty@ClassInfoBase@DirectUI@@UBE_NPBUPropertyInfo@2@@Z
  ?IsValidValue@Element@DirectUI@@SG_NPBUPropertyInfo@2@PAVValue@2@@Z="C:\Windows\SysWOW64\dui70".?IsValidValue@Element@DirectUI@@SG_NPBUPropertyInfo@2@PAVValue@2@@Z
  ?IsVerticalProp@TouchSlider@DirectUI@@SGPBUPropertyInfo@2@XZ="C:\Windows\SysWOW64\dui70".?IsVerticalProp@TouchSlider@DirectUI@@SGPBUPropertyInfo@2@XZ
  ?IsWordWrap@Element@DirectUI@@QAE_NXZ="C:\Windows\SysWOW64\dui70".?IsWordWrap@Element@DirectUI@@QAE_NXZ
  ?ItemContainerPattern@Schema@DirectUI@@2HA="C:\Windows\SysWOW64\dui70".?ItemContainerPattern@Schema@DirectUI@@2HA
  ?ItemHeightInPopupProp@TouchSelect@DirectUI@@SGPBUPropertyInfo@2@XZ="C:\Windows\SysWOW64\dui70".?ItemHeightInPopupProp@TouchSelect@DirectUI@@SGPBUPropertyInfo@2@XZ
  ?ItemStatusProperty@Schema@DirectUI@@2HA="C:\Windows\SysWOW64\dui70".?ItemStatusProperty@Schema@DirectUI@@2HA
  ?ItemTypeProperty@Schema@DirectUI@@2HA="C:\Windows\SysWOW64\dui70".?ItemTypeProperty@Schema@DirectUI@@2HA
  ?KeyFocusedProp@Element@DirectUI@@SGPBUPropertyInfo@2@XZ="C:\Windows\SysWOW64\dui70".?KeyFocusedProp@Element@DirectUI@@SGPBUPropertyInfo@2@XZ
  ?KeyWithinProp@Element@DirectUI@@SGPBUPropertyInfo@2@XZ="C:\Windows\SysWOW64\dui70".?KeyWithinProp@Element@DirectUI@@SGPBUPropertyInfo@2@XZ
  ?KeyboardNavigate@Element@DirectUI@@SG?AVUID@@XZ="C:\Windows\SysWOW64\dui70".?KeyboardNavigate@Element@DirectUI@@SG?AVUID@@XZ
  ?KeyboardNavigationCaptureProp@TouchEditBase@DirectUI@@SGPBUPropertyInfo@2@XZ="C:\Windows\SysWOW64\dui70".?KeyboardNavigationCaptureProp@TouchEditBase@DirectUI@@SGPBUPropertyInfo@2@XZ
  ?LabeledByProperty@Schema@DirectUI@@2HA="C:\Windows\SysWOW64\dui70".?LabeledByProperty@Schema@DirectUI@@2HA
  ?LastDSConstProp@Element@DirectUI@@SGPBUPropertyInfo@2@XZ="C:\Windows\SysWOW64\dui70".?LastDSConstProp@Element@DirectUI@@SGPBUPropertyInfo@2@XZ
  ?LayoutInvalidatedEvent@Schema@DirectUI@@2HA="C:\Windows\SysWOW64\dui70".?LayoutInvalidatedEvent@Schema@DirectUI@@2HA
  ?LayoutPosProp@Element@DirectUI@@SGPBUPropertyInfo@2@XZ="C:\Windows\SysWOW64\dui70".?LayoutPosProp@Element@DirectUI@@SGPBUPropertyInfo@2@XZ
  ?LayoutProp@Element@DirectUI@@SGPBUPropertyInfo@2@XZ="C:\Windows\SysWOW64\dui70".?LayoutProp@Element@DirectUI@@SGPBUPropertyInfo@2@XZ
  ?Leaving@Browser@DirectUI@@SG?AVUID@@XZ="C:\Windows\SysWOW64\dui70".?Leaving@Browser@DirectUI@@SG?AVUID@@XZ
  ?LightDismissIHMProp@TouchHWNDElement@DirectUI@@SGPBUPropertyInfo@2@XZ="C:\Windows\SysWOW64\dui70".?LightDismissIHMProp@TouchHWNDElement@DirectUI@@SGPBUPropertyInfo@2@XZ
  ?LineDown@BaseScrollBar@DirectUI@@UAEXI@Z="C:\Windows\SysWOW64\dui70".?LineDown@BaseScrollBar@DirectUI@@UAEXI@Z
  ?LineDown@TouchScrollBar@DirectUI@@UAEXI@Z="C:\Windows\SysWOW64\dui70".?LineDown@TouchScrollBar@DirectUI@@UAEXI@Z
  ?LineProp@CCBaseScrollBar@DirectUI@@SGPBUPropertyInfo@2@XZ="C:\Windows\SysWOW64\dui70".?LineProp@CCBaseScrollBar@DirectUI@@SGPBUPropertyInfo@2@XZ
  ?LineProp@ScrollBar@DirectUI@@SGPBUPropertyInfo@2@XZ="C:\Windows\SysWOW64\dui70".?LineProp@ScrollBar@DirectUI@@SGPBUPropertyInfo@2@XZ
  ?LineSizeProp@CCTrackBar@DirectUI@@SGPBUPropertyInfo@2@XZ="C:\Windows\SysWOW64\dui70".?LineSizeProp@CCTrackBar@DirectUI@@SGPBUPropertyInfo@2@XZ
  ?LineSpacingProp@RichText@DirectUI@@SGPBUPropertyInfo@2@XZ="C:\Windows\SysWOW64\dui70".?LineSpacingProp@RichText@DirectUI@@SGPBUPropertyInfo@2@XZ
  ?LineUp@BaseScrollBar@DirectUI@@UAEXI@Z="C:\Windows\SysWOW64\dui70".?LineUp@BaseScrollBar@DirectUI@@UAEXI@Z
  ?LineUp@TouchScrollBar@DirectUI@@UAEXI@Z="C:\Windows\SysWOW64\dui70".?LineUp@TouchScrollBar@DirectUI@@UAEXI@Z
  ?ListControlType@Schema@DirectUI@@2HA="C:\Windows\SysWOW64\dui70".?ListControlType@Schema@DirectUI@@2HA
  ?ListItemControlType@Schema@DirectUI@@2HA="C:\Windows\SysWOW64\dui70".?ListItemControlType@Schema@DirectUI@@2HA
  ?LoadComCtl32@TaskPage@DirectUI@@AAEJXZ="C:\Windows\SysWOW64\dui70".?LoadComCtl32@TaskPage@DirectUI@@AAEJXZ
  ?LoadCommonControlExports@AnimationStrip@DirectUI@@AAEJXZ="C:\Windows\SysWOW64\dui70".?LoadCommonControlExports@AnimationStrip@DirectUI@@AAEJXZ
  ?LoadFromBuffer@DUIFactory@DirectUI@@QAEJPBGI0PAVElement@2@PAKPAPAV32@@Z="C:\Windows\SysWOW64\dui70".?LoadFromBuffer@DUIFactory@DirectUI@@QAEJPBGI0PAVElement@2@PAKPAPAV32@@Z
  ?LoadFromFile@DUIFactory@DirectUI@@QAEJPBG0PAVElement@2@PAKPAPAV32@@Z="C:\Windows\SysWOW64\dui70".?LoadFromFile@DUIFactory@DirectUI@@QAEJPBG0PAVElement@2@PAKPAPAV32@@Z
  ?LoadFromPath@Movie@DirectUI@@QAEJPBG@Z="C:\Windows\SysWOW64\dui70".?LoadFromPath@Movie@DirectUI@@QAEJPBG@Z
  ?LoadFromResource@DUIFactory@DirectUI@@QAEJPAUHINSTANCE__@@PBG1PAVElement@2@PAKPAPAV42@1@Z="C:\Windows\SysWOW64\dui70".?LoadFromResource@DUIFactory@DirectUI@@QAEJPAUHINSTANCE__@@PBG1PAVElement@2@PAKPAPAV42@1@Z
  ?LoadFromResource@Movie@DirectUI@@QAEJPAUHINSTANCE__@@H@Z="C:\Windows\SysWOW64\dui70".?LoadFromResource@Movie@DirectUI@@QAEJPAUHINSTANCE__@@H@Z
  ?LoadImagesIntoAnimationStrip@AnimationStrip@DirectUI@@IAEJXZ="C:\Windows\SysWOW64\dui70".?LoadImagesIntoAnimationStrip@AnimationStrip@DirectUI@@IAEJXZ
  ?LoadPage@TaskPage@DirectUI@@AAEJPAPAVElement@2@PAV32@PAPAVDUIXmlParser@2@@Z="C:\Windows\SysWOW64\dui70".?LoadPage@TaskPage@DirectUI@@AAEJPAPAVElement@2@PAV32@PAPAVDUIXmlParser@2@@Z
  ?LoadPage@TaskPage@DirectUI@@MAEJPAVHWNDElement@2@PAUHINSTANCE__@@PAPAVElement@2@PAPAVDUIXmlParser@2@@Z="C:\Windows\SysWOW64\dui70".?LoadPage@TaskPage@DirectUI@@MAEJPAVHWNDElement@2@PAUHINSTANCE__@@PAPAVElement@2@PAPAVDUIXmlParser@2@@Z
  ?LoadParser@TaskPage@DirectUI@@MAEJPAPAVDUIXmlParser@2@@Z="C:\Windows\SysWOW64\dui70".?LoadParser@TaskPage@DirectUI@@MAEJPAPAVDUIXmlParser@2@@Z
  ?LocaleProp@RichText@DirectUI@@SGPBUPropertyInfo@2@XZ="C:\Windows\SysWOW64\dui70".?LocaleProp@RichText@DirectUI@@SGPBUPropertyInfo@2@XZ
  ?LocalizedControlTypeProperty@Schema@DirectUI@@2HA="C:\Windows\SysWOW64\dui70".?LocalizedControlTypeProperty@Schema@DirectUI@@2HA
  ?Locate@RefPointElement@DirectUI@@SGPAV12@PAVElement@2@@Z="C:\Windows\SysWOW64\dui70".?Locate@RefPointElement@DirectUI@@SGPAV12@PAVElement@2@@Z
  ?LocationProp@Element@DirectUI@@SGPBUPropertyInfo@2@XZ="C:\Windows\SysWOW64\dui70".?LocationProp@Element@DirectUI@@SGPBUPropertyInfo@2@XZ
  ?LookupAccessibleRole@Schema@DirectUI@@SGHHPA_N@Z="C:\Windows\SysWOW64\dui70".?LookupAccessibleRole@Schema@DirectUI@@SGHHPA_N@Z
  ?LookupControlInfos@Schema@DirectUI@@CGJXZ="C:\Windows\SysWOW64\dui70".?LookupControlInfos@Schema@DirectUI@@CGJXZ
  ?LookupElement@DUIXmlParser@DirectUI@@QAEJPAUIXmlReader@@PBGPAUHINSTANCE__@@PAPAUIClassInfo@2@@Z="C:\Windows\SysWOW64\dui70".?LookupElement@DUIXmlParser@DirectUI@@QAEJPAUIXmlReader@@PBGPAUHINSTANCE__@@PAPAUIClassInfo@2@@Z
  ?LookupElement@DUIXmlParser@DirectUI@@QAEJULINEINFO@2@PBGPAUHINSTANCE__@@PAPAUIClassInfo@2@@Z="C:\Windows\SysWOW64\dui70".?LookupElement@DUIXmlParser@DirectUI@@QAEJULINEINFO@2@PBGPAUHINSTANCE__@@PAPAUIClassInfo@2@@Z
  ?LookupEventInfos@Schema@DirectUI@@CGJXZ="C:\Windows\SysWOW64\dui70".?LookupEventInfos@Schema@DirectUI@@CGJXZ
  ?LookupPatternInfos@Schema@DirectUI@@CGJXZ="C:\Windows\SysWOW64\dui70".?LookupPatternInfos@Schema@DirectUI@@CGJXZ
  ?LookupPropertyInfos@Schema@DirectUI@@CGJXZ="C:\Windows\SysWOW64\dui70".?LookupPropertyInfos@Schema@DirectUI@@CGJXZ
  ?ManipulationCompleted@TouchScrollViewer@DirectUI@@SG?AVUID@@XZ="C:\Windows\SysWOW64\dui70".?ManipulationCompleted@TouchScrollViewer@DirectUI@@SG?AVUID@@XZ
  ?ManipulationDelta@TouchScrollViewer@DirectUI@@SG?AVUID@@XZ="C:\Windows\SysWOW64\dui70".?ManipulationDelta@TouchScrollViewer@DirectUI@@SG?AVUID@@XZ
  ?ManipulationHorizontalAlignmentProp@TouchScrollViewer@DirectUI@@SGPBUPropertyInfo@2@XZ="C:\Windows\SysWOW64\dui70".?ManipulationHorizontalAlignmentProp@TouchScrollViewer@DirectUI@@SGPBUPropertyInfo@2@XZ
  ?ManipulationStarted@TouchScrollViewer@DirectUI@@SG?AVUID@@XZ="C:\Windows\SysWOW64\dui70".?ManipulationStarted@TouchScrollViewer@DirectUI@@SG?AVUID@@XZ
  ?ManipulationStarting@TouchScrollViewer@DirectUI@@SG?AVUID@@XZ="C:\Windows\SysWOW64\dui70".?ManipulationStarting@TouchScrollViewer@DirectUI@@SG?AVUID@@XZ
  ?ManipulationVerticalAlignmentProp@TouchScrollViewer@DirectUI@@SGPBUPropertyInfo@2@XZ="C:\Windows\SysWOW64\dui70".?ManipulationVerticalAlignmentProp@TouchScrollViewer@DirectUI@@SGPBUPropertyInfo@2@XZ
  ?ManualStoryboardVerify@PVLAnimation@DirectUI@@SG?AVUID@@XZ="C:\Windows\SysWOW64\dui70".?ManualStoryboardVerify@PVLAnimation@DirectUI@@SG?AVUID@@XZ
  ?MapContentVisuals@TouchScrollViewer@DirectUI@@SG?AVUID@@XZ="C:\Windows\SysWOW64\dui70".?MapContentVisuals@TouchScrollViewer@DirectUI@@SG?AVUID@@XZ
  ?MapElementPoint@Element@DirectUI@@QAEXPAV12@PBUtagPOINT@@PAU3@@Z="C:\Windows\SysWOW64\dui70".?MapElementPoint@Element@DirectUI@@QAEXPAV12@PBUtagPOINT@@PAU3@@Z
  ?MapPropertyEnumValue@DUIXmlParser@DirectUI@@IAEJPBUEnumMap@2@PBGPAH@Z="C:\Windows\SysWOW64\dui70".?MapPropertyEnumValue@DUIXmlParser@DirectUI@@IAEJPBUEnumMap@2@PBGPAH@Z
  ?MapPropertyNameToPropertyInfo@DUIXmlParser@DirectUI@@IAEJULINEINFO@2@PAUIClassInfo@2@PBGPAPBUPropertyInfo@2@@Z="C:\Windows\SysWOW64\dui70".?MapPropertyNameToPropertyInfo@DUIXmlParser@DirectUI@@IAEJULINEINFO@2@PAUIClassInfo@2@PBGPAPBUPropertyInfo@2@@Z
  ?MapRunsToClustersProp@RichText@DirectUI@@SGPBUPropertyInfo@2@XZ="C:\Windows\SysWOW64\dui70".?MapRunsToClustersProp@RichText@DirectUI@@SGPBUPropertyInfo@2@XZ
  ?MarginProp@Element@DirectUI@@SGPBUPropertyInfo@2@XZ="C:\Windows\SysWOW64\dui70".?MarginProp@Element@DirectUI@@SGPBUPropertyInfo@2@XZ
  ?MarkHosted@Element@DirectUI@@IAEXXZ="C:\Windows\SysWOW64\dui70".?MarkHosted@Element@DirectUI@@IAEXXZ
  ?MarkNeedsDSUpdate@Element@DirectUI@@QAEXXZ="C:\Windows\SysWOW64\dui70".?MarkNeedsDSUpdate@Element@DirectUI@@QAEXXZ
  ?MarkSelfLayout@Element@DirectUI@@IAEXXZ="C:\Windows\SysWOW64\dui70".?MarkSelfLayout@Element@DirectUI@@IAEXXZ
  ?MaxLengthProp@Edit@DirectUI@@SGPBUPropertyInfo@2@XZ="C:\Windows\SysWOW64\dui70".?MaxLengthProp@Edit@DirectUI@@SGPBUPropertyInfo@2@XZ
  ?MaxLengthProp@TouchEditBase@DirectUI@@SGPBUPropertyInfo@2@XZ="C:\Windows\SysWOW64\dui70".?MaxLengthProp@TouchEditBase@DirectUI@@SGPBUPropertyInfo@2@XZ
  ?MaximumProp@CCBaseScrollBar@DirectUI@@SGPBUPropertyInfo@2@XZ="C:\Windows\SysWOW64\dui70".?MaximumProp@CCBaseScrollBar@DirectUI@@SGPBUPropertyInfo@2@XZ
  ?MaximumProp@ModernProgressBar@DirectUI@@SGPBUPropertyInfo@2@XZ="C:\Windows\SysWOW64\dui70".?MaximumProp@ModernProgressBar@DirectUI@@SGPBUPropertyInfo@2@XZ
  ?MaximumProp@Progress@DirectUI@@SGPBUPropertyInfo@2@XZ="C:\Windows\SysWOW64\dui70".?MaximumProp@Progress@DirectUI@@SGPBUPropertyInfo@2@XZ
  ?MaximumProp@ScrollBar@DirectUI@@SGPBUPropertyInfo@2@XZ="C:\Windows\SysWOW64\dui70".?MaximumProp@ScrollBar@DirectUI@@SGPBUPropertyInfo@2@XZ
  ?MenuBarControlType@Schema@DirectUI@@2HA="C:\Windows\SysWOW64\dui70".?MenuBarControlType@Schema@DirectUI@@2HA
  ?MenuClosedEvent@Schema@DirectUI@@2HA="C:\Windows\SysWOW64\dui70".?MenuClosedEvent@Schema@DirectUI@@2HA
  ?MenuControlType@Schema@DirectUI@@2HA="C:\Windows\SysWOW64\dui70".?MenuControlType@Schema@DirectUI@@2HA
  ?MenuItemControlType@Schema@DirectUI@@2HA="C:\Windows\SysWOW64\dui70".?MenuItemControlType@Schema@DirectUI@@2HA
  ?MenuOpenedEvent@Schema@DirectUI@@2HA="C:\Windows\SysWOW64\dui70".?MenuOpenedEvent@Schema@DirectUI@@2HA
  ?MessageCallback@Edit@DirectUI@@UAEIPAUtagGMSG@@@Z="C:\Windows\SysWOW64\dui70".?MessageCallback@Edit@DirectUI@@UAEIPAUtagGMSG@@@Z
  ?MessageCallback@Element@DirectUI@@UAEIPAUtagGMSG@@@Z="C:\Windows\SysWOW64\dui70".?MessageCallback@Element@DirectUI@@UAEIPAUtagGMSG@@@Z
  ?MessageCallback@HWNDHost@DirectUI@@UAEIPAUtagGMSG@@@Z="C:\Windows\SysWOW64\dui70".?MessageCallback@HWNDHost@DirectUI@@UAEIPAUtagGMSG@@@Z
  ?MessageCallback@TouchHWNDElement@DirectUI@@UAEIPAUtagGMSG@@@Z="C:\Windows\SysWOW64\dui70".?MessageCallback@TouchHWNDElement@DirectUI@@UAEIPAUtagGMSG@@@Z
  ?MeteringProp@TouchSlider@DirectUI@@SGPBUPropertyInfo@2@XZ="C:\Windows\SysWOW64\dui70".?MeteringProp@TouchSlider@DirectUI@@SGPBUPropertyInfo@2@XZ
  ?MinSizeProp@Element@DirectUI@@SGPBUPropertyInfo@2@XZ="C:\Windows\SysWOW64\dui70".?MinSizeProp@Element@DirectUI@@SGPBUPropertyInfo@2@XZ
  ?MinimumProp@CCBaseScrollBar@DirectUI@@SGPBUPropertyInfo@2@XZ="C:\Windows\SysWOW64\dui70".?MinimumProp@CCBaseScrollBar@DirectUI@@SGPBUPropertyInfo@2@XZ
  ?MinimumProp@ModernProgressBar@DirectUI@@SGPBUPropertyInfo@2@XZ="C:\Windows\SysWOW64\dui70".?MinimumProp@ModernProgressBar@DirectUI@@SGPBUPropertyInfo@2@XZ
  ?MinimumProp@Progress@DirectUI@@SGPBUPropertyInfo@2@XZ="C:\Windows\SysWOW64\dui70".?MinimumProp@Progress@DirectUI@@SGPBUPropertyInfo@2@XZ
  ?MinimumProp@ScrollBar@DirectUI@@SGPBUPropertyInfo@2@XZ="C:\Windows\SysWOW64\dui70".?MinimumProp@ScrollBar@DirectUI@@SGPBUPropertyInfo@2@XZ
  ?MonitorPowerSettingsChange@TouchHWNDElement@DirectUI@@SG?AVUID@@XZ="C:\Windows\SysWOW64\dui70".?MonitorPowerSettingsChange@TouchHWNDElement@DirectUI@@SG?AVUID@@XZ
  ?MouseFocusedProp@Element@DirectUI@@SGPBUPropertyInfo@2@XZ="C:\Windows\SysWOW64\dui70".?MouseFocusedProp@Element@DirectUI@@SGPBUPropertyInfo@2@XZ
  ?MouseOrPointerReleased@TouchSlider@DirectUI@@SG?AVUID@@XZ="C:\Windows\SysWOW64\dui70".?MouseOrPointerReleased@TouchSlider@DirectUI@@SG?AVUID@@XZ
  ?MouseWithinProp@Element@DirectUI@@SGPBUPropertyInfo@2@XZ="C:\Windows\SysWOW64\dui70".?MouseWithinProp@Element@DirectUI@@SGPBUPropertyInfo@2@XZ
  ?MoveCaretToEndOnSyncContentProp@TouchEditBase@DirectUI@@SGPBUPropertyInfo@2@XZ="C:\Windows\SysWOW64\dui70".?MoveCaretToEndOnSyncContentProp@TouchEditBase@DirectUI@@SGPBUPropertyInfo@2@XZ
  ?MultilineProp@Edit@DirectUI@@SGPBUPropertyInfo@2@XZ="C:\Windows\SysWOW64\dui70".?MultilineProp@Edit@DirectUI@@SGPBUPropertyInfo@2@XZ
  ?MultilineProp@TouchEditBase@DirectUI@@SGPBUPropertyInfo@2@XZ="C:\Windows\SysWOW64\dui70".?MultilineProp@TouchEditBase@DirectUI@@SGPBUPropertyInfo@2@XZ
  ?MultipleClick@TouchButton@DirectUI@@SG?AVUID@@XZ="C:\Windows\SysWOW64\dui70".?MultipleClick@TouchButton@DirectUI@@SG?AVUID@@XZ
  ?MultipleViewPattern@Schema@DirectUI@@2HA="C:\Windows\SysWOW64\dui70".?MultipleViewPattern@Schema@DirectUI@@2HA
  ?NameProperty@Schema@DirectUI@@2HA="C:\Windows\SysWOW64\dui70".?NameProperty@Schema@DirectUI@@2HA
  ?Navigate@DuiNavigate@DirectUI@@SGPAVElement@2@PAV32@PAV?$DynamicArray@PAVElement@DirectUI@@$0A@@2@H@Z="C:\Windows\SysWOW64\dui70".?Navigate@DuiNavigate@DirectUI@@SGPAVElement@2@PAV32@PAV?$DynamicArray@PAVElement@DirectUI@@$0A@@2@H@Z
  ?Navigate@ElementProvider@DirectUI@@UAGJW4NavigateDirection@@PAPAUIRawElementProviderFragment@@@Z="C:\Windows\SysWOW64\dui70".?Navigate@ElementProvider@DirectUI@@UAGJW4NavigateDirection@@PAPAUIRawElementProviderFragment@@@Z
  ?Navigate@ElementProxy@DirectUI@@IAEJW4NavigateDirection@@PAPAUIRawElementProviderFragment@@@Z="C:\Windows\SysWOW64\dui70".?Navigate@ElementProxy@DirectUI@@IAEJW4NavigateDirection@@PAPAUIRawElementProviderFragment@@@Z
  ?Navigate@XProvider@DirectUI@@UAGJHPA_N@Z="C:\Windows\SysWOW64\dui70".?Navigate@XProvider@DirectUI@@UAGJHPA_N@Z
  ?NeedsDSUpdate@Element@DirectUI@@QAE_NXZ="C:\Windows\SysWOW64\dui70".?NeedsDSUpdate@Element@DirectUI@@QAE_NXZ
  ?NewChildElementsAdded@TouchScrollViewer@DirectUI@@QAEXXZ="C:\Windows\SysWOW64\dui70".?NewChildElementsAdded@TouchScrollViewer@DirectUI@@QAEXXZ
  ?NewNativeWindowHandleProperty@Schema@DirectUI@@2HA="C:\Windows\SysWOW64\dui70".?NewNativeWindowHandleProperty@Schema@DirectUI@@2HA
  ?Next@DuiAccessible@DirectUI@@UAGJKPAUtagVARIANT@@PAK@Z="C:\Windows\SysWOW64\dui70".?Next@DuiAccessible@DirectUI@@UAGJKPAUtagVARIANT@@PAK@Z
  ?Next@HWNDHostAccessible@DirectUI@@UAGJKPAUtagVARIANT@@PAK@Z="C:\Windows\SysWOW64\dui70".?Next@HWNDHostAccessible@DirectUI@@UAGJKPAUtagVARIANT@@PAK@Z
  ?NoteProp@CCCommandLink@DirectUI@@SGPBUPropertyInfo@2@XZ="C:\Windows\SysWOW64\dui70".?NoteProp@CCCommandLink@DirectUI@@SGPBUPropertyInfo@2@XZ
  ?NotifyComplete@PVLAnimation@DirectUI@@SG?AVUID@@XZ="C:\Windows\SysWOW64\dui70".?NotifyComplete@PVLAnimation@DirectUI@@SG?AVUID@@XZ
  ?NotifyImplicit@PVLAnimation@DirectUI@@SG?AVUID@@XZ="C:\Windows\SysWOW64\dui70".?NotifyImplicit@PVLAnimation@DirectUI@@SG?AVUID@@XZ
  ?NotifyStart@PVLAnimation@DirectUI@@SG?AVUID@@XZ="C:\Windows\SysWOW64\dui70".?NotifyStart@PVLAnimation@DirectUI@@SG?AVUID@@XZ
  ?NotifyStoryboardComplete@PVLAnimation@DirectUI@@SG?AVUID@@XZ="C:\Windows\SysWOW64\dui70".?NotifyStoryboardComplete@PVLAnimation@DirectUI@@SG?AVUID@@XZ
  ?NullControlType@Schema@DirectUI@@2HA="C:\Windows\SysWOW64\dui70".?NullControlType@Schema@DirectUI@@2HA
  ?OffTextProp@TouchSwitch@DirectUI@@SGPBUPropertyInfo@2@XZ="C:\Windows\SysWOW64\dui70".?OffTextProp@TouchSwitch@DirectUI@@SGPBUPropertyInfo@2@XZ
  ?OnAction@AnimationStrip@DirectUI@@IAEXPAUGMA_ACTIONINFO@@@Z="C:\Windows\SysWOW64\dui70".?OnAction@AnimationStrip@DirectUI@@IAEXPAUGMA_ACTIONINFO@@@Z
  ?OnAdd@BorderLayout@DirectUI@@UAEXPAVElement@2@PAPAV32@I@Z="C:\Windows\SysWOW64\dui70".?OnAdd@BorderLayout@DirectUI@@UAEXPAVElement@2@PAPAV32@I@Z
  ?OnAdd@Layout@DirectUI@@UAEXPAVElement@2@PAPAV32@I@Z="C:\Windows\SysWOW64\dui70".?OnAdd@Layout@DirectUI@@UAEXPAVElement@2@PAPAV32@I@Z
  ?OnAdd@NineGridLayout@DirectUI@@UAEXPAVElement@2@PAPAV32@I@Z="C:\Windows\SysWOW64\dui70".?OnAdd@NineGridLayout@DirectUI@@UAEXPAVElement@2@PAPAV32@I@Z
  ?OnAdd@ShellBorderLayout@DirectUI@@UAEXPAVElement@2@PAPAV32@I@Z="C:\Windows\SysWOW64\dui70".?OnAdd@ShellBorderLayout@DirectUI@@UAEXPAVElement@2@PAPAV32@I@Z
  ?OnAdjustWindowSize@Combobox@DirectUI@@UAEHHHI@Z="C:\Windows\SysWOW64\dui70".?OnAdjustWindowSize@Combobox@DirectUI@@UAEHHHI@Z
  ?OnAdjustWindowSize@HWNDHost@DirectUI@@UAEHHHI@Z="C:\Windows\SysWOW64\dui70".?OnAdjustWindowSize@HWNDHost@DirectUI@@UAEHHHI@Z
  ?OnChildLostFocus@DialogElement@DirectUI@@UAE_NPAVElement@2@@Z="C:\Windows\SysWOW64\dui70".?OnChildLostFocus@DialogElement@DirectUI@@UAE_NPAVElement@2@@Z
  ?OnChildLostFocus@DialogElementCore@DirectUI@@QAE_NPAVElement@2@@Z="C:\Windows\SysWOW64\dui70".?OnChildLostFocus@DialogElementCore@DirectUI@@QAE_NPAVElement@2@@Z
  ?OnChildLostFocus@XBaby@DirectUI@@UAE_NPAVElement@2@@Z="C:\Windows\SysWOW64\dui70".?OnChildLostFocus@XBaby@DirectUI@@UAE_NPAVElement@2@@Z
  ?OnChildReceivedFocus@DialogElement@DirectUI@@UAE_NPAVElement@2@@Z="C:\Windows\SysWOW64\dui70".?OnChildReceivedFocus@DialogElement@DirectUI@@UAE_NPAVElement@2@@Z
  ?OnChildReceivedFocus@DialogElementCore@DirectUI@@QAE_NPAVElement@2@@Z="C:\Windows\SysWOW64\dui70".?OnChildReceivedFocus@DialogElementCore@DirectUI@@QAE_NPAVElement@2@@Z
  ?OnChildReceivedFocus@XBaby@DirectUI@@UAE_NPAVElement@2@@Z="C:\Windows\SysWOW64\dui70".?OnChildReceivedFocus@XBaby@DirectUI@@UAE_NPAVElement@2@@Z
  ?OnCompositionChanged@HWNDElement@DirectUI@@UAEXXZ="C:\Windows\SysWOW64\dui70".?OnCompositionChanged@HWNDElement@DirectUI@@UAEXXZ
  ?OnCtrlThemeChanged@HWNDHost@DirectUI@@UAE_NIIJPAJ@Z="C:\Windows\SysWOW64\dui70".?OnCtrlThemeChanged@HWNDHost@DirectUI@@UAE_NIIJPAJ@Z
  ?OnCustomDraw@CCBase@DirectUI@@UAE_NPAUtagNMCUSTOMDRAWINFO@@PAJ@Z="C:\Windows\SysWOW64\dui70".?OnCustomDraw@CCBase@DirectUI@@UAE_NPAUtagNMCUSTOMDRAWINFO@@PAJ@Z
  ?OnDefaultButtonTrackingChanged@DialogElementCore@DirectUI@@QAEXPAVValue@2@@Z="C:\Windows\SysWOW64\dui70".?OnDefaultButtonTrackingChanged@DialogElementCore@DirectUI@@QAEXPAVValue@2@@Z
  ?OnDestroy@AnimationStrip@DirectUI@@MAEXXZ="C:\Windows\SysWOW64\dui70".?OnDestroy@AnimationStrip@DirectUI@@MAEXXZ
  ?OnDestroy@DialogElement@DirectUI@@UAEXXZ="C:\Windows\SysWOW64\dui70".?OnDestroy@DialogElement@DirectUI@@UAEXXZ
  ?OnDestroy@DialogElementCore@DirectUI@@QAEXXZ="C:\Windows\SysWOW64\dui70".?OnDestroy@DialogElementCore@DirectUI@@QAEXXZ
  ?OnDestroy@Element@DirectUI@@UAEXXZ="C:\Windows\SysWOW64\dui70".?OnDestroy@Element@DirectUI@@UAEXXZ
  ?OnDestroy@HWNDElement@DirectUI@@UAEXXZ="C:\Windows\SysWOW64\dui70".?OnDestroy@HWNDElement@DirectUI@@UAEXXZ
  ?OnDestroy@HWNDHost@DirectUI@@UAEXXZ="C:\Windows\SysWOW64\dui70".?OnDestroy@HWNDHost@DirectUI@@UAEXXZ
  ?OnDestroy@ModernProgressBar@DirectUI@@MAEXXZ="C:\Windows\SysWOW64\dui70".?OnDestroy@ModernProgressBar@DirectUI@@MAEXXZ
  ?OnDestroy@ModernProgressRing@DirectUI@@MAEXXZ="C:\Windows\SysWOW64\dui70".?OnDestroy@ModernProgressRing@DirectUI@@MAEXXZ
  ?OnDestroy@Movie@DirectUI@@UAEXXZ="C:\Windows\SysWOW64\dui70".?OnDestroy@Movie@DirectUI@@UAEXXZ
  ?OnDestroy@TouchHWNDElement@DirectUI@@UAEXXZ="C:\Windows\SysWOW64\dui70".?OnDestroy@TouchHWNDElement@DirectUI@@UAEXXZ
  ?OnEvent@AutoButton@DirectUI@@UAEXPAUEvent@2@@Z="C:\Windows\SysWOW64\dui70".?OnEvent@AutoButton@DirectUI@@UAEXPAUEvent@2@@Z
  ?OnEvent@BaseScrollViewer@DirectUI@@UAEXPAUEvent@2@@Z="C:\Windows\SysWOW64\dui70".?OnEvent@BaseScrollViewer@DirectUI@@UAEXPAUEvent@2@@Z
  ?OnEvent@Browser@DirectUI@@UAEXPAUEvent@2@@Z="C:\Windows\SysWOW64\dui70".?OnEvent@Browser@DirectUI@@UAEXPAUEvent@2@@Z
  ?OnEvent@Element@DirectUI@@UAEXPAUEvent@2@@Z="C:\Windows\SysWOW64\dui70".?OnEvent@Element@DirectUI@@UAEXPAUEvent@2@@Z
  ?OnEvent@Expando@DirectUI@@UAEXPAUEvent@2@@Z="C:\Windows\SysWOW64\dui70".?OnEvent@Expando@DirectUI@@UAEXPAUEvent@2@@Z
  ?OnEvent@HWNDElement@DirectUI@@UAEXPAUEvent@2@@Z="C:\Windows\SysWOW64\dui70".?OnEvent@HWNDElement@DirectUI@@UAEXPAUEvent@2@@Z
  ?OnEvent@HWNDHost@DirectUI@@UAEXPAUEvent@2@@Z="C:\Windows\SysWOW64\dui70".?OnEvent@HWNDHost@DirectUI@@UAEXPAUEvent@2@@Z
  ?OnEvent@Movie@DirectUI@@UAEXPAUEvent@2@@Z="C:\Windows\SysWOW64\dui70".?OnEvent@Movie@DirectUI@@UAEXPAUEvent@2@@Z
  ?OnEvent@Navigator@DirectUI@@UAEXPAUEvent@2@@Z="C:\Windows\SysWOW64\dui70".?OnEvent@Navigator@DirectUI@@UAEXPAUEvent@2@@Z
  ?OnEvent@RichText@DirectUI@@UAEXPAUEvent@2@@Z="C:\Windows\SysWOW64\dui70".?OnEvent@RichText@DirectUI@@UAEXPAUEvent@2@@Z
  ?OnEvent@ScrollBar@DirectUI@@UAEXPAUEvent@2@@Z="C:\Windows\SysWOW64\dui70".?OnEvent@ScrollBar@DirectUI@@UAEXPAUEvent@2@@Z
  ?OnEvent@Selector@DirectUI@@UAEXPAUEvent@2@@Z="C:\Windows\SysWOW64\dui70".?OnEvent@Selector@DirectUI@@UAEXPAUEvent@2@@Z
  ?OnEvent@SelectorNoDefault@DirectUI@@UAEXPAUEvent@2@@Z="C:\Windows\SysWOW64\dui70".?OnEvent@SelectorNoDefault@DirectUI@@UAEXPAUEvent@2@@Z
  ?OnEvent@TouchButton@DirectUI@@UAEXPAUEvent@2@@Z="C:\Windows\SysWOW64\dui70".?OnEvent@TouchButton@DirectUI@@UAEXPAUEvent@2@@Z
  ?OnEvent@TouchCheckBox@DirectUI@@UAEXPAUEvent@2@@Z="C:\Windows\SysWOW64\dui70".?OnEvent@TouchCheckBox@DirectUI@@UAEXPAUEvent@2@@Z
  ?OnEvent@TouchEdit2@DirectUI@@UAEXPAUEvent@2@@Z="C:\Windows\SysWOW64\dui70".?OnEvent@TouchEdit2@DirectUI@@UAEXPAUEvent@2@@Z
  ?OnEvent@TouchHWNDElement@DirectUI@@UAEXPAUEvent@2@@Z="C:\Windows\SysWOW64\dui70".?OnEvent@TouchHWNDElement@DirectUI@@UAEXPAUEvent@2@@Z
  ?OnEvent@TouchScrollBar@DirectUI@@UAEXPAUEvent@2@@Z="C:\Windows\SysWOW64\dui70".?OnEvent@TouchScrollBar@DirectUI@@UAEXPAUEvent@2@@Z
  ?OnEvent@TouchSelect@DirectUI@@UAEXPAUEvent@2@@Z="C:\Windows\SysWOW64\dui70".?OnEvent@TouchSelect@DirectUI@@UAEXPAUEvent@2@@Z
  ?OnEvent@Viewer@DirectUI@@UAEXPAUEvent@2@@Z="C:\Windows\SysWOW64\dui70".?OnEvent@Viewer@DirectUI@@UAEXPAUEvent@2@@Z
  ?OnEvent@XBaby@DirectUI@@UAEXPAUEvent@2@@Z="C:\Windows\SysWOW64\dui70".?OnEvent@XBaby@DirectUI@@UAEXPAUEvent@2@@Z
  ?OnEvent@XElement@DirectUI@@UAEXPAUEvent@2@@Z="C:\Windows\SysWOW64\dui70".?OnEvent@XElement@DirectUI@@UAEXPAUEvent@2@@Z
  ?OnGetDlgCode@DialogElement@DirectUI@@UAEXPAUtagMSG@@PAJ@Z="C:\Windows\SysWOW64\dui70".?OnGetDlgCode@DialogElement@DirectUI@@UAEXPAUtagMSG@@PAJ@Z
  ?OnGetDlgCode@DialogElementCore@DirectUI@@QAEXPAUtagMSG@@PAJ@Z="C:\Windows\SysWOW64\dui70".?OnGetDlgCode@DialogElementCore@DirectUI@@QAEXPAUtagMSG@@PAJ@Z
  ?OnGetDlgCode@HWNDElement@DirectUI@@UAEXPAUtagMSG@@PAJ@Z="C:\Windows\SysWOW64\dui70".?OnGetDlgCode@HWNDElement@DirectUI@@UAEXPAUtagMSG@@PAJ@Z
  ?OnGroupChanged@Element@DirectUI@@UAEXH_N@Z="C:\Windows\SysWOW64\dui70".?OnGroupChanged@Element@DirectUI@@UAEXH_N@Z
  ?OnGroupChanged@HWNDElement@DirectUI@@UAEXH_N@Z="C:\Windows\SysWOW64\dui70".?OnGroupChanged@HWNDElement@DirectUI@@UAEXH_N@Z
  ?OnHosted@Combobox@DirectUI@@UAEXPAVElement@2@@Z="C:\Windows\SysWOW64\dui70".?OnHosted@Combobox@DirectUI@@UAEXPAVElement@2@@Z
  ?OnHosted@Element@DirectUI@@MAEXPAV12@@Z="C:\Windows\SysWOW64\dui70".?OnHosted@Element@DirectUI@@MAEXPAV12@@Z
  ?OnHosted@HWNDHost@DirectUI@@MAEXPAVElement@2@@Z="C:\Windows\SysWOW64\dui70".?OnHosted@HWNDHost@DirectUI@@MAEXPAVElement@2@@Z
  ?OnHosted@ModernProgressBar@DirectUI@@MAEXPAVElement@2@@Z="C:\Windows\SysWOW64\dui70".?OnHosted@ModernProgressBar@DirectUI@@MAEXPAVElement@2@@Z
  ?OnHosted@ModernProgressRing@DirectUI@@MAEXPAVElement@2@@Z="C:\Windows\SysWOW64\dui70".?OnHosted@ModernProgressRing@DirectUI@@MAEXPAVElement@2@@Z
  ?OnHosted@Movie@DirectUI@@UAEXPAVElement@2@@Z="C:\Windows\SysWOW64\dui70".?OnHosted@Movie@DirectUI@@UAEXPAVElement@2@@Z
  ?OnHosted@PushButton@DirectUI@@UAEXPAVElement@2@@Z="C:\Windows\SysWOW64\dui70".?OnHosted@PushButton@DirectUI@@UAEXPAVElement@2@@Z
  ?OnHosted@RichText@DirectUI@@UAEXPAVElement@2@@Z="C:\Windows\SysWOW64\dui70".?OnHosted@RichText@DirectUI@@UAEXPAVElement@2@@Z
  ?OnHosted@TouchButton@DirectUI@@UAEXPAVElement@2@@Z="C:\Windows\SysWOW64\dui70".?OnHosted@TouchButton@DirectUI@@UAEXPAVElement@2@@Z
  ?OnHosted@TouchEdit2@DirectUI@@UAEXPAVElement@2@@Z="C:\Windows\SysWOW64\dui70".?OnHosted@TouchEdit2@DirectUI@@UAEXPAVElement@2@@Z
  ?OnHosted@TouchScrollBar@DirectUI@@UAEXPAVElement@2@@Z="C:\Windows\SysWOW64\dui70".?OnHosted@TouchScrollBar@DirectUI@@UAEXPAVElement@2@@Z
  ?OnHosted@TouchSelect@DirectUI@@UAEXPAVElement@2@@Z="C:\Windows\SysWOW64\dui70".?OnHosted@TouchSelect@DirectUI@@UAEXPAVElement@2@@Z
  ?OnImmersiveColorSchemeChanged@HWNDElement@DirectUI@@UAEXXZ="C:\Windows\SysWOW64\dui70".?OnImmersiveColorSchemeChanged@HWNDElement@DirectUI@@UAEXXZ
  ?OnInput@BaseScrollViewer@DirectUI@@UAEXPAUInputEvent@2@@Z="C:\Windows\SysWOW64\dui70".?OnInput@BaseScrollViewer@DirectUI@@UAEXPAUInputEvent@2@@Z
  ?OnInput@Button@DirectUI@@UAEXPAUInputEvent@2@@Z="C:\Windows\SysWOW64\dui70".?OnInput@Button@DirectUI@@UAEXPAUInputEvent@2@@Z
  ?OnInput@CCBase@DirectUI@@UAEXPAUInputEvent@2@@Z="C:\Windows\SysWOW64\dui70".?OnInput@CCBase@DirectUI@@UAEXPAUInputEvent@2@@Z
  ?OnInput@CCCheckBox@DirectUI@@UAEXPAUInputEvent@2@@Z="C:\Windows\SysWOW64\dui70".?OnInput@CCCheckBox@DirectUI@@UAEXPAUInputEvent@2@@Z
  ?OnInput@CCProgressBar@DirectUI@@UAEXPAUInputEvent@2@@Z="C:\Windows\SysWOW64\dui70".?OnInput@CCProgressBar@DirectUI@@UAEXPAUInputEvent@2@@Z
  ?OnInput@CCPushButton@DirectUI@@UAEXPAUInputEvent@2@@Z="C:\Windows\SysWOW64\dui70".?OnInput@CCPushButton@DirectUI@@UAEXPAUInputEvent@2@@Z
  ?OnInput@CCRadioButton@DirectUI@@UAEXPAUInputEvent@2@@Z="C:\Windows\SysWOW64\dui70".?OnInput@CCRadioButton@DirectUI@@UAEXPAUInputEvent@2@@Z
  ?OnInput@CCSysLink@DirectUI@@UAEXPAUInputEvent@2@@Z="C:\Windows\SysWOW64\dui70".?OnInput@CCSysLink@DirectUI@@UAEXPAUInputEvent@2@@Z
  ?OnInput@Combobox@DirectUI@@UAEXPAUInputEvent@2@@Z="C:\Windows\SysWOW64\dui70".?OnInput@Combobox@DirectUI@@UAEXPAUInputEvent@2@@Z
  ?OnInput@DialogElement@DirectUI@@UAEXPAUInputEvent@2@@Z="C:\Windows\SysWOW64\dui70".?OnInput@DialogElement@DirectUI@@UAEXPAUInputEvent@2@@Z
  ?OnInput@DialogElementCore@DirectUI@@QAEXPAUInputEvent@2@@Z="C:\Windows\SysWOW64\dui70".?OnInput@DialogElementCore@DirectUI@@QAEXPAUInputEvent@2@@Z
  ?OnInput@Edit@DirectUI@@UAEXPAUInputEvent@2@@Z="C:\Windows\SysWOW64\dui70".?OnInput@Edit@DirectUI@@UAEXPAUInputEvent@2@@Z
  ?OnInput@Element@DirectUI@@UAEXPAUInputEvent@2@@Z="C:\Windows\SysWOW64\dui70".?OnInput@Element@DirectUI@@UAEXPAUInputEvent@2@@Z
  ?OnInput@HWNDElement@DirectUI@@UAEXPAUInputEvent@2@@Z="C:\Windows\SysWOW64\dui70".?OnInput@HWNDElement@DirectUI@@UAEXPAUInputEvent@2@@Z
  ?OnInput@HWNDHost@DirectUI@@UAEXPAUInputEvent@2@@Z="C:\Windows\SysWOW64\dui70".?OnInput@HWNDHost@DirectUI@@UAEXPAUInputEvent@2@@Z
  ?OnInput@RepeatButton@DirectUI@@UAEXPAUInputEvent@2@@Z="C:\Windows\SysWOW64\dui70".?OnInput@RepeatButton@DirectUI@@UAEXPAUInputEvent@2@@Z
  ?OnInput@Selector@DirectUI@@UAEXPAUInputEvent@2@@Z="C:\Windows\SysWOW64\dui70".?OnInput@Selector@DirectUI@@UAEXPAUInputEvent@2@@Z
  ?OnInput@Thumb@DirectUI@@UAEXPAUInputEvent@2@@Z="C:\Windows\SysWOW64\dui70".?OnInput@Thumb@DirectUI@@UAEXPAUInputEvent@2@@Z
  ?OnInput@TouchButton@DirectUI@@UAEXPAUInputEvent@2@@Z="C:\Windows\SysWOW64\dui70".?OnInput@TouchButton@DirectUI@@UAEXPAUInputEvent@2@@Z
  ?OnInput@TouchEdit2@DirectUI@@UAEXPAUInputEvent@2@@Z="C:\Windows\SysWOW64\dui70".?OnInput@TouchEdit2@DirectUI@@UAEXPAUInputEvent@2@@Z
  ?OnInput@TouchHWNDElement@DirectUI@@UAEXPAUInputEvent@2@@Z="C:\Windows\SysWOW64\dui70".?OnInput@TouchHWNDElement@DirectUI@@UAEXPAUInputEvent@2@@Z
  ?OnInput@TouchScrollBar@DirectUI@@UAEXPAUInputEvent@2@@Z="C:\Windows\SysWOW64\dui70".?OnInput@TouchScrollBar@DirectUI@@UAEXPAUInputEvent@2@@Z
  ?OnInput@TouchSelect@DirectUI@@UAEXPAUInputEvent@2@@Z="C:\Windows\SysWOW64\dui70".?OnInput@TouchSelect@DirectUI@@UAEXPAUInputEvent@2@@Z
  ?OnInput@Viewer@DirectUI@@UAEXPAUInputEvent@2@@Z="C:\Windows\SysWOW64\dui70".?OnInput@Viewer@DirectUI@@UAEXPAUInputEvent@2@@Z
  ?OnInput@XElement@DirectUI@@UAEXPAUInputEvent@2@@Z="C:\Windows\SysWOW64\dui70".?OnInput@XElement@DirectUI@@UAEXPAUInputEvent@2@@Z
  ?OnInvoke@InvokeHelper@DirectUI@@AAEXPAUInvokeArgs@12@@Z="C:\Windows\SysWOW64\dui70".?OnInvoke@InvokeHelper@DirectUI@@AAEXPAUInvokeArgs@12@@Z
  ?OnInvoke@Proxy@DirectUI@@MAEXIPAX@Z="C:\Windows\SysWOW64\dui70".?OnInvoke@Proxy@DirectUI@@MAEXIPAX@Z
  ?OnKeyFocusMoved@DialogElement@DirectUI@@UAEXPAVElement@2@0@Z="C:\Windows\SysWOW64\dui70".?OnKeyFocusMoved@DialogElement@DirectUI@@UAEXPAVElement@2@0@Z
  ?OnKeyFocusMoved@DialogElementCore@DirectUI@@QAEXPAVElement@2@0@Z="C:\Windows\SysWOW64\dui70".?OnKeyFocusMoved@DialogElementCore@DirectUI@@QAEXPAVElement@2@0@Z
  ?OnKeyFocusMoved@Element@DirectUI@@UAEXPAV12@0@Z="C:\Windows\SysWOW64\dui70".?OnKeyFocusMoved@Element@DirectUI@@UAEXPAV12@0@Z
  ?OnKeyFocusMoved@Selector@DirectUI@@UAEXPAVElement@2@0@Z="C:\Windows\SysWOW64\dui70".?OnKeyFocusMoved@Selector@DirectUI@@UAEXPAVElement@2@0@Z
  ?OnKeyFocusMoved@SelectorNoDefault@DirectUI@@UAEXPAVElement@2@0@Z="C:\Windows\SysWOW64\dui70".?OnKeyFocusMoved@SelectorNoDefault@DirectUI@@UAEXPAVElement@2@0@Z
  ?OnKeyFocusMoved@TouchHWNDElement@DirectUI@@UAEXPAVElement@2@0@Z="C:\Windows\SysWOW64\dui70".?OnKeyFocusMoved@TouchHWNDElement@DirectUI@@UAEXPAVElement@2@0@Z
  ?OnKillActive@TaskPage@DirectUI@@MAEJXZ="C:\Windows\SysWOW64\dui70".?OnKillActive@TaskPage@DirectUI@@MAEJXZ
  ?OnLayoutPosChanged@BorderLayout@DirectUI@@UAEXPAVElement@2@0HH@Z="C:\Windows\SysWOW64\dui70".?OnLayoutPosChanged@BorderLayout@DirectUI@@UAEXPAVElement@2@0HH@Z
  ?OnLayoutPosChanged@Layout@DirectUI@@UAEXPAVElement@2@0HH@Z="C:\Windows\SysWOW64\dui70".?OnLayoutPosChanged@Layout@DirectUI@@UAEXPAVElement@2@0HH@Z
  ?OnLayoutPosChanged@NineGridLayout@DirectUI@@UAEXPAVElement@2@0HH@Z="C:\Windows\SysWOW64\dui70".?OnLayoutPosChanged@NineGridLayout@DirectUI@@UAEXPAVElement@2@0HH@Z
  ?OnLayoutPosChanged@ShellBorderLayout@DirectUI@@UAEXPAVElement@2@0HH@Z="C:\Windows\SysWOW64\dui70".?OnLayoutPosChanged@ShellBorderLayout@DirectUI@@UAEXPAVElement@2@0HH@Z
  ?OnListenedEvent@BaseScrollViewer@DirectUI@@UAEXPAVElement@2@PAUEvent@2@@Z="C:\Windows\SysWOW64\dui70".?OnListenedEvent@BaseScrollViewer@DirectUI@@UAEXPAVElement@2@PAUEvent@2@@Z
  ?OnListenedEvent@DialogElement@DirectUI@@UAEXPAVElement@2@PAUEvent@2@@Z="C:\Windows\SysWOW64\dui70".?OnListenedEvent@DialogElement@DirectUI@@UAEXPAVElement@2@PAUEvent@2@@Z
  ?OnListenedEvent@TaskPage@DirectUI@@MAEXPAVElement@2@PAUEvent@2@@Z="C:\Windows\SysWOW64\dui70".?OnListenedEvent@TaskPage@DirectUI@@MAEXPAVElement@2@PAUEvent@2@@Z
  ?OnListenedInput@BaseScrollViewer@DirectUI@@UAEXPAVElement@2@PAUInputEvent@2@@Z="C:\Windows\SysWOW64\dui70".?OnListenedInput@BaseScrollViewer@DirectUI@@UAEXPAVElement@2@PAUInputEvent@2@@Z
  ?OnListenedInput@DialogElement@DirectUI@@UAEXPAVElement@2@PAUInputEvent@2@@Z="C:\Windows\SysWOW64\dui70".?OnListenedInput@DialogElement@DirectUI@@UAEXPAVElement@2@PAUInputEvent@2@@Z
  ?OnListenedInput@TaskPage@DirectUI@@MAEXPAVElement@2@PAUInputEvent@2@@Z="C:\Windows\SysWOW64\dui70".?OnListenedInput@TaskPage@DirectUI@@MAEXPAVElement@2@PAUInputEvent@2@@Z
  ?OnListenedPropertyChanged@BaseScrollViewer@DirectUI@@UAEXPAVElement@2@PBUPropertyInfo@2@HPAVValue@2@2@Z="C:\Windows\SysWOW64\dui70".?OnListenedPropertyChanged@BaseScrollViewer@DirectUI@@UAEXPAVElement@2@PBUPropertyInfo@2@HPAVValue@2@2@Z
  ?OnListenedPropertyChanged@DialogElement@DirectUI@@UAEXPAVElement@2@PBUPropertyInfo@2@HPAVValue@2@2@Z="C:\Windows\SysWOW64\dui70".?OnListenedPropertyChanged@DialogElement@DirectUI@@UAEXPAVElement@2@PBUPropertyInfo@2@HPAVValue@2@2@Z
  ?OnListenedPropertyChanged@ScrollViewer@DirectUI@@UAEXPAVElement@2@PBUPropertyInfo@2@HPAVValue@2@2@Z="C:\Windows\SysWOW64\dui70".?OnListenedPropertyChanged@ScrollViewer@DirectUI@@UAEXPAVElement@2@PBUPropertyInfo@2@HPAVValue@2@2@Z
  ?OnListenedPropertyChanged@StyledScrollViewer@DirectUI@@UAEXPAVElement@2@PBUPropertyInfo@2@HPAVValue@2@2@Z="C:\Windows\SysWOW64\dui70".?OnListenedPropertyChanged@StyledScrollViewer@DirectUI@@UAEXPAVElement@2@PBUPropertyInfo@2@HPAVValue@2@2@Z
  ?OnListenedPropertyChanged@TaskPage@DirectUI@@MAEXPAVElement@2@PBUPropertyInfo@2@HPAVValue@2@2@Z="C:\Windows\SysWOW64\dui70".?OnListenedPropertyChanged@TaskPage@DirectUI@@MAEXPAVElement@2@PBUPropertyInfo@2@HPAVValue@2@2@Z
  ?OnListenedPropertyChanged@TouchEdit2@DirectUI@@EAEXPAVElement@2@PBUPropertyInfo@2@HPAVValue@2@2@Z="C:\Windows\SysWOW64\dui70".?OnListenedPropertyChanged@TouchEdit2@DirectUI@@EAEXPAVElement@2@PBUPropertyInfo@2@HPAVValue@2@2@Z
  ?OnListenedPropertyChanging@BaseScrollViewer@DirectUI@@UAE_NPAVElement@2@PBUPropertyInfo@2@HPAVValue@2@2@Z="C:\Windows\SysWOW64\dui70".?OnListenedPropertyChanging@BaseScrollViewer@DirectUI@@UAE_NPAVElement@2@PBUPropertyInfo@2@HPAVValue@2@2@Z
  ?OnListenedPropertyChanging@DialogElement@DirectUI@@UAE_NPAVElement@2@PBUPropertyInfo@2@HPAVValue@2@2@Z="C:\Windows\SysWOW64\dui70".?OnListenedPropertyChanging@DialogElement@DirectUI@@UAE_NPAVElement@2@PBUPropertyInfo@2@HPAVValue@2@2@Z
  ?OnListenedPropertyChanging@TaskPage@DirectUI@@MAE_NPAVElement@2@PBUPropertyInfo@2@HPAVValue@2@2@Z="C:\Windows\SysWOW64\dui70".?OnListenedPropertyChanging@TaskPage@DirectUI@@MAE_NPAVElement@2@PBUPropertyInfo@2@HPAVValue@2@2@Z
  ?OnListenerAttach@BaseScrollViewer@DirectUI@@UAEXPAVElement@2@@Z="C:\Windows\SysWOW64\dui70".?OnListenerAttach@BaseScrollViewer@DirectUI@@UAEXPAVElement@2@@Z
  ?OnListenerAttach@DialogElement@DirectUI@@UAEXPAVElement@2@@Z="C:\Windows\SysWOW64\dui70".?OnListenerAttach@DialogElement@DirectUI@@UAEXPAVElement@2@@Z
  ?OnListenerAttach@TaskPage@DirectUI@@MAEXPAVElement@2@@Z="C:\Windows\SysWOW64\dui70".?OnListenerAttach@TaskPage@DirectUI@@MAEXPAVElement@2@@Z
  ?OnListenerDetach@BaseScrollViewer@DirectUI@@UAEXPAVElement@2@@Z="C:\Windows\SysWOW64\dui70".?OnListenerDetach@BaseScrollViewer@DirectUI@@UAEXPAVElement@2@@Z
  ?OnListenerDetach@DialogElement@DirectUI@@UAEXPAVElement@2@@Z="C:\Windows\SysWOW64\dui70".?OnListenerDetach@DialogElement@DirectUI@@UAEXPAVElement@2@@Z
  ?OnListenerDetach@DialogElementCore@DirectUI@@QAEXPAVElement@2@@Z="C:\Windows\SysWOW64\dui70".?OnListenerDetach@DialogElementCore@DirectUI@@QAEXPAVElement@2@@Z
  ?OnListenerDetach@TaskPage@DirectUI@@MAEXPAVElement@2@@Z="C:\Windows\SysWOW64\dui70".?OnListenerDetach@TaskPage@DirectUI@@MAEXPAVElement@2@@Z
  ?OnListenerDetach@TouchEdit2@DirectUI@@EAEXPAVElement@2@@Z="C:\Windows\SysWOW64\dui70".?OnListenerDetach@TouchEdit2@DirectUI@@EAEXPAVElement@2@@Z
  ?OnLostDialogFocus@Button@DirectUI@@UAE_NPAUIDialogElement@2@@Z="C:\Windows\SysWOW64\dui70".?OnLostDialogFocus@Button@DirectUI@@UAE_NPAUIDialogElement@2@@Z
  ?OnLostDialogFocus@CCBase@DirectUI@@UAE_NPAUIDialogElement@2@@Z="C:\Windows\SysWOW64\dui70".?OnLostDialogFocus@CCBase@DirectUI@@UAE_NPAUIDialogElement@2@@Z
  ?OnLostDialogFocus@CCBaseCheckRadioButton@DirectUI@@UAE_NPAUIDialogElement@2@@Z="C:\Windows\SysWOW64\dui70".?OnLostDialogFocus@CCBaseCheckRadioButton@DirectUI@@UAE_NPAUIDialogElement@2@@Z
  ?OnLostDialogFocus@CCPushButton@DirectUI@@UAE_NPAUIDialogElement@2@@Z="C:\Windows\SysWOW64\dui70".?OnLostDialogFocus@CCPushButton@DirectUI@@UAE_NPAUIDialogElement@2@@Z
  ?OnLostDialogFocus@CCSysLink@DirectUI@@UAE_NPAUIDialogElement@2@@Z="C:\Windows\SysWOW64\dui70".?OnLostDialogFocus@CCSysLink@DirectUI@@UAE_NPAUIDialogElement@2@@Z
  ?OnLostDialogFocus@CheckBoxGlyph@DirectUI@@UAE_NPAUIDialogElement@2@@Z="C:\Windows\SysWOW64\dui70".?OnLostDialogFocus@CheckBoxGlyph@DirectUI@@UAE_NPAUIDialogElement@2@@Z
  ?OnLostDialogFocus@ExpandoButtonGlyph@DirectUI@@UAE_NPAUIDialogElement@2@@Z="C:\Windows\SysWOW64\dui70".?OnLostDialogFocus@ExpandoButtonGlyph@DirectUI@@UAE_NPAUIDialogElement@2@@Z
  ?OnLostDialogFocus@RadioButtonGlyph@DirectUI@@UAE_NPAUIDialogElement@2@@Z="C:\Windows\SysWOW64\dui70".?OnLostDialogFocus@RadioButtonGlyph@DirectUI@@UAE_NPAUIDialogElement@2@@Z
  ?OnMaximumChanged@BaseScrollBar@DirectUI@@QAEXPAVValue@2@@Z="C:\Windows\SysWOW64\dui70".?OnMaximumChanged@BaseScrollBar@DirectUI@@QAEXPAVValue@2@@Z
  ?OnMessage@CCBaseScrollBar@DirectUI@@UAE_NIIJPAJ@Z="C:\Windows\SysWOW64\dui70".?OnMessage@CCBaseScrollBar@DirectUI@@UAE_NIIJPAJ@Z
  ?OnMessage@CCPushButton@DirectUI@@UAE_NIIJPAJ@Z="C:\Windows\SysWOW64\dui70".?OnMessage@CCPushButton@DirectUI@@UAE_NIIJPAJ@Z
  ?OnMessage@CCTrackBar@DirectUI@@UAE_NIIJPAJ@Z="C:\Windows\SysWOW64\dui70".?OnMessage@CCTrackBar@DirectUI@@UAE_NIIJPAJ@Z
  ?OnMessage@HWNDHost@DirectUI@@UAE_NIIJPAJ@Z="C:\Windows\SysWOW64\dui70".?OnMessage@HWNDHost@DirectUI@@UAE_NIIJPAJ@Z
  ?OnMessage@NativeHWNDHost@DirectUI@@UAEJIIJPAJ@Z="C:\Windows\SysWOW64\dui70".?OnMessage@NativeHWNDHost@DirectUI@@UAEJIIJPAJ@Z
  ?OnMessage@TaskPage@DirectUI@@MAE_NIIJPAJ@Z="C:\Windows\SysWOW64\dui70".?OnMessage@TaskPage@DirectUI@@MAE_NIIJPAJ@Z
  ?OnMessage@XElement@DirectUI@@UAE_NIIJPAJ@Z="C:\Windows\SysWOW64\dui70".?OnMessage@XElement@DirectUI@@UAE_NIIJPAJ@Z
  ?OnMinimumChanged@BaseScrollBar@DirectUI@@QAEXPAVValue@2@@Z="C:\Windows\SysWOW64\dui70".?OnMinimumChanged@BaseScrollBar@DirectUI@@QAEXPAVValue@2@@Z
  ?OnMouseFocusMoved@Element@DirectUI@@UAEXPAV12@0@Z="C:\Windows\SysWOW64\dui70".?OnMouseFocusMoved@Element@DirectUI@@UAEXPAV12@0@Z
  ?OnNoChildWithShortcutFound@HWNDElement@DirectUI@@UAEXPAUKeyboardEvent@2@@Z="C:\Windows\SysWOW64\dui70".?OnNoChildWithShortcutFound@HWNDElement@DirectUI@@UAEXPAUKeyboardEvent@2@@Z
  ?OnNoChildWithShortcutFound@XBaby@DirectUI@@UAEXPAUKeyboardEvent@2@@Z="C:\Windows\SysWOW64\dui70".?OnNoChildWithShortcutFound@XBaby@DirectUI@@UAEXPAUKeyboardEvent@2@@Z
  ?OnNotify@CCBase@DirectUI@@UAE_NIIJPAJ@Z="C:\Windows\SysWOW64\dui70".?OnNotify@CCBase@DirectUI@@UAE_NIIJPAJ@Z
  ?OnNotify@CCCheckBox@DirectUI@@UAE_NIIJPAJ@Z="C:\Windows\SysWOW64\dui70".?OnNotify@CCCheckBox@DirectUI@@UAE_NIIJPAJ@Z
  ?OnNotify@CCPushButton@DirectUI@@UAE_NIIJPAJ@Z="C:\Windows\SysWOW64\dui70".?OnNotify@CCPushButton@DirectUI@@UAE_NIIJPAJ@Z
  ?OnNotify@CCRadioButton@DirectUI@@UAE_NIIJPAJ@Z="C:\Windows\SysWOW64\dui70".?OnNotify@CCRadioButton@DirectUI@@UAE_NIIJPAJ@Z
  ?OnNotify@CCTreeView@DirectUI@@UAE_NIIJPAJ@Z="C:\Windows\SysWOW64\dui70".?OnNotify@CCTreeView@DirectUI@@UAE_NIIJPAJ@Z
  ?OnNotify@Combobox@DirectUI@@UAE_NIIJPAJ@Z="C:\Windows\SysWOW64\dui70".?OnNotify@Combobox@DirectUI@@UAE_NIIJPAJ@Z
  ?OnNotify@Edit@DirectUI@@UAE_NIIJPAJ@Z="C:\Windows\SysWOW64\dui70".?OnNotify@Edit@DirectUI@@UAE_NIIJPAJ@Z
  ?OnNotify@HWNDHost@DirectUI@@UAE_NIIJPAJ@Z="C:\Windows\SysWOW64\dui70".?OnNotify@HWNDHost@DirectUI@@UAE_NIIJPAJ@Z
  ?OnPageChanged@BaseScrollBar@DirectUI@@QAEXPAVValue@2@@Z="C:\Windows\SysWOW64\dui70".?OnPageChanged@BaseScrollBar@DirectUI@@QAEXPAVValue@2@@Z
  ?OnPageChanging@BaseScrollBar@DirectUI@@QAE_NPAVValue@2@@Z="C:\Windows\SysWOW64\dui70".?OnPageChanging@BaseScrollBar@DirectUI@@QAE_NPAVValue@2@@Z
  ?OnPositionChanged@BaseScrollBar@DirectUI@@QAEXPAVValue@2@@Z="C:\Windows\SysWOW64\dui70".?OnPositionChanged@BaseScrollBar@DirectUI@@QAEXPAVValue@2@@Z
  ?OnPositionChanging@BaseScrollBar@DirectUI@@QAE_NPAVValue@2@@Z="C:\Windows\SysWOW64\dui70".?OnPositionChanging@BaseScrollBar@DirectUI@@QAE_NPAVValue@2@@Z
  ?OnPropertyChanged@AccessibleButton@DirectUI@@UAEXPBUPropertyInfo@2@HPAVValue@2@1@Z="C:\Windows\SysWOW64\dui70".?OnPropertyChanged@AccessibleButton@DirectUI@@UAEXPBUPropertyInfo@2@HPAVValue@2@1@Z
  ?OnPropertyChanged@AnimationStrip@DirectUI@@MAEXPBUPropertyInfo@2@HPAVValue@2@1@Z="C:\Windows\SysWOW64\dui70".?OnPropertyChanged@AnimationStrip@DirectUI@@MAEXPBUPropertyInfo@2@HPAVValue@2@1@Z
  ?OnPropertyChanged@BaseScrollViewer@DirectUI@@UAEXPBUPropertyInfo@2@HPAVValue@2@1@Z="C:\Windows\SysWOW64\dui70".?OnPropertyChanged@BaseScrollViewer@DirectUI@@UAEXPBUPropertyInfo@2@HPAVValue@2@1@Z
  ?OnPropertyChanged@Browser@DirectUI@@UAEXPBUPropertyInfo@2@HPAVValue@2@1@Z="C:\Windows\SysWOW64\dui70".?OnPropertyChanged@Browser@DirectUI@@UAEXPBUPropertyInfo@2@HPAVValue@2@1@Z
  ?OnPropertyChanged@Button@DirectUI@@UAEXPBUPropertyInfo@2@HPAVValue@2@1@Z="C:\Windows\SysWOW64\dui70".?OnPropertyChanged@Button@DirectUI@@UAEXPBUPropertyInfo@2@HPAVValue@2@1@Z
  ?OnPropertyChanged@CCBase@DirectUI@@UAEXPBUPropertyInfo@2@HPAVValue@2@1@Z="C:\Windows\SysWOW64\dui70".?OnPropertyChanged@CCBase@DirectUI@@UAEXPBUPropertyInfo@2@HPAVValue@2@1@Z
  ?OnPropertyChanged@CCBaseCheckRadioButton@DirectUI@@UAEXPBUPropertyInfo@2@HPAVValue@2@1@Z="C:\Windows\SysWOW64\dui70".?OnPropertyChanged@CCBaseCheckRadioButton@DirectUI@@UAEXPBUPropertyInfo@2@HPAVValue@2@1@Z
  ?OnPropertyChanged@CCBaseScrollBar@DirectUI@@UAEXPBUPropertyInfo@2@HPAVValue@2@1@Z="C:\Windows\SysWOW64\dui70".?OnPropertyChanged@CCBaseScrollBar@DirectUI@@UAEXPBUPropertyInfo@2@HPAVValue@2@1@Z
  ?OnPropertyChanged@CCCommandLink@DirectUI@@UAEXPBUPropertyInfo@2@HPAVValue@2@1@Z="C:\Windows\SysWOW64\dui70".?OnPropertyChanged@CCCommandLink@DirectUI@@UAEXPBUPropertyInfo@2@HPAVValue@2@1@Z
  ?OnPropertyChanged@CCPushButton@DirectUI@@UAEXPBUPropertyInfo@2@HPAVValue@2@1@Z="C:\Windows\SysWOW64\dui70".?OnPropertyChanged@CCPushButton@DirectUI@@UAEXPBUPropertyInfo@2@HPAVValue@2@1@Z
  ?OnPropertyChanged@CCTrackBar@DirectUI@@UAEXPBUPropertyInfo@2@HPAVValue@2@1@Z="C:\Windows\SysWOW64\dui70".?OnPropertyChanged@CCTrackBar@DirectUI@@UAEXPBUPropertyInfo@2@HPAVValue@2@1@Z
  ?OnPropertyChanged@Combobox@DirectUI@@UAEXPBUPropertyInfo@2@HPAVValue@2@1@Z="C:\Windows\SysWOW64\dui70".?OnPropertyChanged@Combobox@DirectUI@@UAEXPBUPropertyInfo@2@HPAVValue@2@1@Z
  ?OnPropertyChanged@DialogElement@DirectUI@@UAEXPBUPropertyInfo@2@HPAVValue@2@1@Z="C:\Windows\SysWOW64\dui70".?OnPropertyChanged@DialogElement@DirectUI@@UAEXPBUPropertyInfo@2@HPAVValue@2@1@Z
  ?OnPropertyChanged@Edit@DirectUI@@UAEXPBUPropertyInfo@2@HPAVValue@2@1@Z="C:\Windows\SysWOW64\dui70".?OnPropertyChanged@Edit@DirectUI@@UAEXPBUPropertyInfo@2@HPAVValue@2@1@Z
  ?OnPropertyChanged@Element@DirectUI@@UAEXPAUPropertyInfo@2@HPAVValue@2@1@Z="C:\Windows\SysWOW64\dui70".?OnPropertyChanged@Element@DirectUI@@UAEXPAUPropertyInfo@2@HPAVValue@2@1@Z
  ?OnPropertyChanged@Element@DirectUI@@UAEXPBUPropertyInfo@2@HPAVValue@2@1@Z="C:\Windows\SysWOW64\dui70".?OnPropertyChanged@Element@DirectUI@@UAEXPBUPropertyInfo@2@HPAVValue@2@1@Z
  ?OnPropertyChanged@Expando@DirectUI@@UAEXPBUPropertyInfo@2@HPAVValue@2@1@Z="C:\Windows\SysWOW64\dui70".?OnPropertyChanged@Expando@DirectUI@@UAEXPBUPropertyInfo@2@HPAVValue@2@1@Z
  ?OnPropertyChanged@HWNDElement@DirectUI@@UAEXPBUPropertyInfo@2@HPAVValue@2@1@Z="C:\Windows\SysWOW64\dui70".?OnPropertyChanged@HWNDElement@DirectUI@@UAEXPBUPropertyInfo@2@HPAVValue@2@1@Z
  ?OnPropertyChanged@HWNDHost@DirectUI@@UAEXPBUPropertyInfo@2@HPAVValue@2@1@Z="C:\Windows\SysWOW64\dui70".?OnPropertyChanged@HWNDHost@DirectUI@@UAEXPBUPropertyInfo@2@HPAVValue@2@1@Z
  ?OnPropertyChanged@ItemList@DirectUI@@UAEXPBUPropertyInfo@2@HPAVValue@2@1@Z="C:\Windows\SysWOW64\dui70".?OnPropertyChanged@ItemList@DirectUI@@UAEXPBUPropertyInfo@2@HPAVValue@2@1@Z
  ?OnPropertyChanged@Macro@DirectUI@@UAEXPBUPropertyInfo@2@HPAVValue@2@1@Z="C:\Windows\SysWOW64\dui70".?OnPropertyChanged@Macro@DirectUI@@UAEXPBUPropertyInfo@2@HPAVValue@2@1@Z
  ?OnPropertyChanged@ModernProgressBar@DirectUI@@MAEXPBUPropertyInfo@2@HPAVValue@2@1@Z="C:\Windows\SysWOW64\dui70".?OnPropertyChanged@ModernProgressBar@DirectUI@@MAEXPBUPropertyInfo@2@HPAVValue@2@1@Z
  ?OnPropertyChanged@ModernProgressRing@DirectUI@@MAEXPBUPropertyInfo@2@HPAVValue@2@1@Z="C:\Windows\SysWOW64\dui70".?OnPropertyChanged@ModernProgressRing@DirectUI@@MAEXPBUPropertyInfo@2@HPAVValue@2@1@Z
  ?OnPropertyChanged@RefPointElement@DirectUI@@UAEXPBUPropertyInfo@2@HPAVValue@2@1@Z="C:\Windows\SysWOW64\dui70".?OnPropertyChanged@RefPointElement@DirectUI@@UAEXPBUPropertyInfo@2@HPAVValue@2@1@Z
  ?OnPropertyChanged@RichText@DirectUI@@UAEXPBUPropertyInfo@2@HPAVValue@2@1@Z="C:\Windows\SysWOW64\dui70".?OnPropertyChanged@RichText@DirectUI@@UAEXPBUPropertyInfo@2@HPAVValue@2@1@Z
  ?OnPropertyChanged@ScrollBar@DirectUI@@UAEXPBUPropertyInfo@2@HPAVValue@2@1@Z="C:\Windows\SysWOW64\dui70".?OnPropertyChanged@ScrollBar@DirectUI@@UAEXPBUPropertyInfo@2@HPAVValue@2@1@Z
  ?OnPropertyChanged@ScrollViewer@DirectUI@@UAEXPBUPropertyInfo@2@HPAVValue@2@1@Z="C:\Windows\SysWOW64\dui70".?OnPropertyChanged@ScrollViewer@DirectUI@@UAEXPBUPropertyInfo@2@HPAVValue@2@1@Z
  ?OnPropertyChanged@Selector@DirectUI@@UAEXPBUPropertyInfo@2@HPAVValue@2@1@Z="C:\Windows\SysWOW64\dui70".?OnPropertyChanged@Selector@DirectUI@@UAEXPBUPropertyInfo@2@HPAVValue@2@1@Z
  ?OnPropertyChanged@TextGraphic@DirectUI@@UAEXPBUPropertyInfo@2@HPAVValue@2@1@Z="C:\Windows\SysWOW64\dui70".?OnPropertyChanged@TextGraphic@DirectUI@@UAEXPBUPropertyInfo@2@HPAVValue@2@1@Z
  ?OnPropertyChanged@TouchButton@DirectUI@@UAEXPBUPropertyInfo@2@HPAVValue@2@1@Z="C:\Windows\SysWOW64\dui70".?OnPropertyChanged@TouchButton@DirectUI@@UAEXPBUPropertyInfo@2@HPAVValue@2@1@Z
  ?OnPropertyChanged@TouchCheckBox@DirectUI@@UAEXPBUPropertyInfo@2@HPAVValue@2@1@Z="C:\Windows\SysWOW64\dui70".?OnPropertyChanged@TouchCheckBox@DirectUI@@UAEXPBUPropertyInfo@2@HPAVValue@2@1@Z
  ?OnPropertyChanged@TouchCommandButton@DirectUI@@UAEXPBUPropertyInfo@2@HPAVValue@2@1@Z="C:\Windows\SysWOW64\dui70".?OnPropertyChanged@TouchCommandButton@DirectUI@@UAEXPBUPropertyInfo@2@HPAVValue@2@1@Z
  ?OnPropertyChanged@TouchEdit2@DirectUI@@UAEXPBUPropertyInfo@2@HPAVValue@2@1@Z="C:\Windows\SysWOW64\dui70".?OnPropertyChanged@TouchEdit2@DirectUI@@UAEXPBUPropertyInfo@2@HPAVValue@2@1@Z
  ?OnPropertyChanged@TouchEditBase@DirectUI@@UAEXPBUPropertyInfo@2@HPAVValue@2@1@Z="C:\Windows\SysWOW64\dui70".?OnPropertyChanged@TouchEditBase@DirectUI@@UAEXPBUPropertyInfo@2@HPAVValue@2@1@Z
  ?OnPropertyChanged@TouchHWNDElement@DirectUI@@UAEXPBUPropertyInfo@2@HPAVValue@2@1@Z="C:\Windows\SysWOW64\dui70".?OnPropertyChanged@TouchHWNDElement@DirectUI@@UAEXPBUPropertyInfo@2@HPAVValue@2@1@Z
  ?OnPropertyChanged@TouchHyperLink@DirectUI@@UAEXPBUPropertyInfo@2@HPAVValue@2@1@Z="C:\Windows\SysWOW64\dui70".?OnPropertyChanged@TouchHyperLink@DirectUI@@UAEXPBUPropertyInfo@2@HPAVValue@2@1@Z
  ?OnPropertyChanged@TouchRepeatButton@DirectUI@@UAEXPBUPropertyInfo@2@HPAVValue@2@1@Z="C:\Windows\SysWOW64\dui70".?OnPropertyChanged@TouchRepeatButton@DirectUI@@UAEXPBUPropertyInfo@2@HPAVValue@2@1@Z
  ?OnPropertyChanged@TouchScrollBar@DirectUI@@UAEXPBUPropertyInfo@2@HPAVValue@2@1@Z="C:\Windows\SysWOW64\dui70".?OnPropertyChanged@TouchScrollBar@DirectUI@@UAEXPBUPropertyInfo@2@HPAVValue@2@1@Z
  ?OnPropertyChanged@TouchSelect@DirectUI@@UAEXPBUPropertyInfo@2@HPAVValue@2@1@Z="C:\Windows\SysWOW64\dui70".?OnPropertyChanged@TouchSelect@DirectUI@@UAEXPBUPropertyInfo@2@HPAVValue@2@1@Z
  ?OnPropertyChanged@Viewer@DirectUI@@UAEXPBUPropertyInfo@2@HPAVValue@2@1@Z="C:\Windows\SysWOW64\dui70".?OnPropertyChanged@Viewer@DirectUI@@UAEXPBUPropertyInfo@2@HPAVValue@2@1@Z
  ?OnPropertyChanging@BaseScrollViewer@DirectUI@@UAE_NPBUPropertyInfo@2@HPAVValue@2@1@Z="C:\Windows\SysWOW64\dui70".?OnPropertyChanging@BaseScrollViewer@DirectUI@@UAE_NPBUPropertyInfo@2@HPAVValue@2@1@Z
  ?OnPropertyChanging@CCBaseScrollBar@DirectUI@@UAE_NPBUPropertyInfo@2@HPAVValue@2@1@Z="C:\Windows\SysWOW64\dui70".?OnPropertyChanging@CCBaseScrollBar@DirectUI@@UAE_NPBUPropertyInfo@2@HPAVValue@2@1@Z
  ?OnPropertyChanging@CCTrackBar@DirectUI@@UAE_NPBUPropertyInfo@2@HPAVValue@2@1@Z="C:\Windows\SysWOW64\dui70".?OnPropertyChanging@CCTrackBar@DirectUI@@UAE_NPBUPropertyInfo@2@HPAVValue@2@1@Z
  ?OnPropertyChanging@Element@DirectUI@@UAE_NPAUPropertyInfo@2@HPAVValue@2@1@Z="C:\Windows\SysWOW64\dui70".?OnPropertyChanging@Element@DirectUI@@UAE_NPAUPropertyInfo@2@HPAVValue@2@1@Z
  ?OnPropertyChanging@Element@DirectUI@@UAE_NPBUPropertyInfo@2@HPAVValue@2@1@Z="C:\Windows\SysWOW64\dui70".?OnPropertyChanging@Element@DirectUI@@UAE_NPBUPropertyInfo@2@HPAVValue@2@1@Z
  ?OnPropertyChanging@PText@DirectUI@@UAE_NPBUPropertyInfo@2@HPAVValue@2@1@Z="C:\Windows\SysWOW64\dui70".?OnPropertyChanging@PText@DirectUI@@UAE_NPBUPropertyInfo@2@HPAVValue@2@1@Z
  ?OnPropertyChanging@ScrollBar@DirectUI@@UAE_NPBUPropertyInfo@2@HPAVValue@2@1@Z="C:\Windows\SysWOW64\dui70".?OnPropertyChanging@ScrollBar@DirectUI@@UAE_NPBUPropertyInfo@2@HPAVValue@2@1@Z
  ?OnPropertyChanging@TextGraphic@DirectUI@@UAE_NPBUPropertyInfo@2@HPAVValue@2@1@Z="C:\Windows\SysWOW64\dui70".?OnPropertyChanging@TextGraphic@DirectUI@@UAE_NPBUPropertyInfo@2@HPAVValue@2@1@Z
  ?OnPropertyChanging@TouchCheckBox@DirectUI@@UAE_NPBUPropertyInfo@2@HPAVValue@2@1@Z="C:\Windows\SysWOW64\dui70".?OnPropertyChanging@TouchCheckBox@DirectUI@@UAE_NPBUPropertyInfo@2@HPAVValue@2@1@Z
  ?OnPropertyChanging@TouchCheckBoxGlyph@DirectUI@@UAE_NPBUPropertyInfo@2@HPAVValue@2@1@Z="C:\Windows\SysWOW64\dui70".?OnPropertyChanging@TouchCheckBoxGlyph@DirectUI@@UAE_NPBUPropertyInfo@2@HPAVValue@2@1@Z
  ?OnPropertyChanging@TouchCommandButton@DirectUI@@UAE_NPBUPropertyInfo@2@HPAVValue@2@1@Z="C:\Windows\SysWOW64\dui70".?OnPropertyChanging@TouchCommandButton@DirectUI@@UAE_NPBUPropertyInfo@2@HPAVValue@2@1@Z
  ?OnPropertyChanging@TouchEdit2@DirectUI@@UAE_NPBUPropertyInfo@2@HPAVValue@2@1@Z="C:\Windows\SysWOW64\dui70".?OnPropertyChanging@TouchEdit2@DirectUI@@UAE_NPBUPropertyInfo@2@HPAVValue@2@1@Z
  ?OnPropertyChanging@TouchEditBase@DirectUI@@UAE_NPBUPropertyInfo@2@HPAVValue@2@1@Z="C:\Windows\SysWOW64\dui70".?OnPropertyChanging@TouchEditBase@DirectUI@@UAE_NPBUPropertyInfo@2@HPAVValue@2@1@Z
  ?OnPropertyChanging@TouchSelect@DirectUI@@UAE_NPBUPropertyInfo@2@HPAVValue@2@1@Z="C:\Windows\SysWOW64\dui70".?OnPropertyChanging@TouchSelect@DirectUI@@UAE_NPBUPropertyInfo@2@HPAVValue@2@1@Z
  ?OnPropertyChanging@Viewer@DirectUI@@UAE_NPBUPropertyInfo@2@HPAVValue@2@1@Z="C:\Windows\SysWOW64\dui70".?OnPropertyChanging@Viewer@DirectUI@@UAE_NPBUPropertyInfo@2@HPAVValue@2@1@Z
  ?OnQueryCancel@TaskPage@DirectUI@@MAEJXZ="C:\Windows\SysWOW64\dui70".?OnQueryCancel@TaskPage@DirectUI@@MAEJXZ
  ?OnQueryInitialFocus@TaskPage@DirectUI@@MAEPAVElement@2@XZ="C:\Windows\SysWOW64\dui70".?OnQueryInitialFocus@TaskPage@DirectUI@@MAEPAVElement@2@XZ
  ?OnReceivedDialogFocus@Button@DirectUI@@UAE_NPAUIDialogElement@2@@Z="C:\Windows\SysWOW64\dui70".?OnReceivedDialogFocus@Button@DirectUI@@UAE_NPAUIDialogElement@2@@Z
  ?OnReceivedDialogFocus@CCBase@DirectUI@@UAE_NPAUIDialogElement@2@@Z="C:\Windows\SysWOW64\dui70".?OnReceivedDialogFocus@CCBase@DirectUI@@UAE_NPAUIDialogElement@2@@Z
  ?OnReceivedDialogFocus@CCBaseCheckRadioButton@DirectUI@@UAE_NPAUIDialogElement@2@@Z="C:\Windows\SysWOW64\dui70".?OnReceivedDialogFocus@CCBaseCheckRadioButton@DirectUI@@UAE_NPAUIDialogElement@2@@Z
  ?OnReceivedDialogFocus@CCPushButton@DirectUI@@UAE_NPAUIDialogElement@2@@Z="C:\Windows\SysWOW64\dui70".?OnReceivedDialogFocus@CCPushButton@DirectUI@@UAE_NPAUIDialogElement@2@@Z
  ?OnReceivedDialogFocus@CCSysLink@DirectUI@@UAE_NPAUIDialogElement@2@@Z="C:\Windows\SysWOW64\dui70".?OnReceivedDialogFocus@CCSysLink@DirectUI@@UAE_NPAUIDialogElement@2@@Z
  ?OnReceivedDialogFocus@CheckBoxGlyph@DirectUI@@UAE_NPAUIDialogElement@2@@Z="C:\Windows\SysWOW64\dui70".?OnReceivedDialogFocus@CheckBoxGlyph@DirectUI@@UAE_NPAUIDialogElement@2@@Z
  ?OnReceivedDialogFocus@ExpandoButtonGlyph@DirectUI@@UAE_NPAUIDialogElement@2@@Z="C:\Windows\SysWOW64\dui70".?OnReceivedDialogFocus@ExpandoButtonGlyph@DirectUI@@UAE_NPAUIDialogElement@2@@Z
  ?OnReceivedDialogFocus@RadioButtonGlyph@DirectUI@@UAE_NPAUIDialogElement@2@@Z="C:\Windows\SysWOW64\dui70".?OnReceivedDialogFocus@RadioButtonGlyph@DirectUI@@UAE_NPAUIDialogElement@2@@Z
  ?OnRegisteredDefaultButtonChanged@DialogElementCore@DirectUI@@QAEXPAVValue@2@0@Z="C:\Windows\SysWOW64\dui70".?OnRegisteredDefaultButtonChanged@DialogElementCore@DirectUI@@QAEXPAVValue@2@0@Z
  ?OnRemove@BorderLayout@DirectUI@@UAEXPAVElement@2@PAPAV32@I@Z="C:\Windows\SysWOW64\dui70".?OnRemove@BorderLayout@DirectUI@@UAEXPAVElement@2@PAPAV32@I@Z
  ?OnRemove@Layout@DirectUI@@UAEXPAVElement@2@PAPAV32@I@Z="C:\Windows\SysWOW64\dui70".?OnRemove@Layout@DirectUI@@UAEXPAVElement@2@PAPAV32@I@Z
  ?OnRemove@NineGridLayout@DirectUI@@UAEXPAVElement@2@PAPAV32@I@Z="C:\Windows\SysWOW64\dui70".?OnRemove@NineGridLayout@DirectUI@@UAEXPAVElement@2@PAPAV32@I@Z
  ?OnRemove@ShellBorderLayout@DirectUI@@UAEXPAVElement@2@PAPAV32@I@Z="C:\Windows\SysWOW64\dui70".?OnRemove@ShellBorderLayout@DirectUI@@UAEXPAVElement@2@PAPAV32@I@Z
  ?OnReset@TaskPage@DirectUI@@MAEJXZ="C:\Windows\SysWOW64\dui70".?OnReset@TaskPage@DirectUI@@MAEJXZ
  ?OnSelectedPropertyChanged@CCCommandLink@DirectUI@@UAEXXZ="C:\Windows\SysWOW64\dui70".?OnSelectedPropertyChanged@CCCommandLink@DirectUI@@UAEXXZ
  ?OnSelectedPropertyChanged@CCPushButton@DirectUI@@UAEXXZ="C:\Windows\SysWOW64\dui70".?OnSelectedPropertyChanged@CCPushButton@DirectUI@@UAEXXZ
  ?OnSetActive@TaskPage@DirectUI@@MAEJXZ="C:\Windows\SysWOW64\dui70".?OnSetActive@TaskPage@DirectUI@@MAEJXZ
  ?OnSinkThemeChanged@HWNDHost@DirectUI@@UAE_NIIJPAJ@Z="C:\Windows\SysWOW64\dui70".?OnSinkThemeChanged@HWNDHost@DirectUI@@UAE_NIIJPAJ@Z
  ?OnSinkThemeChanged@XElement@DirectUI@@UAE_NIIJPAJ@Z="C:\Windows\SysWOW64\dui70".?OnSinkThemeChanged@XElement@DirectUI@@UAE_NIIJPAJ@Z
  ?OnSysChar@HWNDHost@DirectUI@@UAE_NG@Z="C:\Windows\SysWOW64\dui70".?OnSysChar@HWNDHost@DirectUI@@UAE_NG@Z
  ?OnSysChar@XElement@DirectUI@@UAE_NG@Z="C:\Windows\SysWOW64\dui70".?OnSysChar@XElement@DirectUI@@UAE_NG@Z
  ?OnTextProp@TouchSwitch@DirectUI@@SGPBUPropertyInfo@2@XZ="C:\Windows\SysWOW64\dui70".?OnTextProp@TouchSwitch@DirectUI@@SGPBUPropertyInfo@2@XZ
  ?OnThemeChanged@HWNDElement@DirectUI@@UAEXPAUThemeChangedEvent@2@@Z="C:\Windows\SysWOW64\dui70".?OnThemeChanged@HWNDElement@DirectUI@@UAEXPAUThemeChangedEvent@2@@Z
  ?OnThemeChanged@XBaby@DirectUI@@UAEXPAUThemeChangedEvent@2@@Z="C:\Windows\SysWOW64\dui70".?OnThemeChanged@XBaby@DirectUI@@UAEXPAUThemeChangedEvent@2@@Z
  ?OnToolTip@EventManager@DirectUI@@SGJPAVElement@2@K@Z="C:\Windows\SysWOW64\dui70".?OnToolTip@EventManager@DirectUI@@SGJPAVElement@2@K@Z
  ?OnUnHosted@Element@DirectUI@@MAEXPAV12@@Z="C:\Windows\SysWOW64\dui70".?OnUnHosted@Element@DirectUI@@MAEXPAV12@@Z
  ?OnUnHosted@HWNDHost@DirectUI@@MAEXPAVElement@2@@Z="C:\Windows\SysWOW64\dui70".?OnUnHosted@HWNDHost@DirectUI@@MAEXPAVElement@2@@Z
  ?OnUnHosted@ModernProgressBar@DirectUI@@MAEXPAVElement@2@@Z="C:\Windows\SysWOW64\dui70".?OnUnHosted@ModernProgressBar@DirectUI@@MAEXPAVElement@2@@Z
  ?OnUnHosted@ModernProgressRing@DirectUI@@MAEXPAVElement@2@@Z="C:\Windows\SysWOW64\dui70".?OnUnHosted@ModernProgressRing@DirectUI@@MAEXPAVElement@2@@Z
  ?OnUnHosted@PushButton@DirectUI@@UAEXPAVElement@2@@Z="C:\Windows\SysWOW64\dui70".?OnUnHosted@PushButton@DirectUI@@UAEXPAVElement@2@@Z
  ?OnUnHosted@TouchButton@DirectUI@@UAEXPAVElement@2@@Z="C:\Windows\SysWOW64\dui70".?OnUnHosted@TouchButton@DirectUI@@UAEXPAVElement@2@@Z
  ?OnUnHosted@TouchSelect@DirectUI@@UAEXPAVElement@2@@Z="C:\Windows\SysWOW64\dui70".?OnUnHosted@TouchSelect@DirectUI@@UAEXPAVElement@2@@Z
  ?OnWindowStyleChanged@HWNDHost@DirectUI@@UAEXIPBUtagSTYLESTRUCT@@@Z="C:\Windows\SysWOW64\dui70".?OnWindowStyleChanged@HWNDHost@DirectUI@@UAEXIPBUtagSTYLESTRUCT@@@Z
  ?OnWizBack@TaskPage@DirectUI@@MAEJXZ="C:\Windows\SysWOW64\dui70".?OnWizBack@TaskPage@DirectUI@@MAEJXZ
  ?OnWizFinish@TaskPage@DirectUI@@MAEJXZ="C:\Windows\SysWOW64\dui70".?OnWizFinish@TaskPage@DirectUI@@MAEJXZ
  ?OnWizNext@TaskPage@DirectUI@@MAEJXZ="C:\Windows\SysWOW64\dui70".?OnWizNext@TaskPage@DirectUI@@MAEJXZ
  ?OnWmSettingChanged@HWNDElement@DirectUI@@UAEXIJ@Z="C:\Windows\SysWOW64\dui70".?OnWmSettingChanged@HWNDElement@DirectUI@@UAEXIJ@Z
  ?OnWmThemeChanged@HWNDElement@DirectUI@@UAEXIJ@Z="C:\Windows\SysWOW64\dui70".?OnWmThemeChanged@HWNDElement@DirectUI@@UAEXIJ@Z
  ?OnWmThemeChanged@XBaby@DirectUI@@UAEXIJ@Z="C:\Windows\SysWOW64\dui70".?OnWmThemeChanged@XBaby@DirectUI@@UAEXIJ@Z
  ?OnWndMsg@TaskPage@DirectUI@@AAEHIIJPAJ@Z="C:\Windows\SysWOW64\dui70".?OnWndMsg@TaskPage@DirectUI@@AAEHIIJPAJ@Z
  ?OpenAnimation@CCAVI@DirectUI@@AAEXPAUHWND__@@@Z="C:\Windows\SysWOW64\dui70".?OpenAnimation@CCAVI@DirectUI@@AAEXPAUHWND__@@@Z
  ?OpenPopup@TouchSelect@DirectUI@@QAEJXZ="C:\Windows\SysWOW64\dui70".?OpenPopup@TouchSelect@DirectUI@@QAEJXZ
  ?OptimizeMoveProp@HWNDHost@DirectUI@@SGPBUPropertyInfo@2@XZ="C:\Windows\SysWOW64\dui70".?OptimizeMoveProp@HWNDHost@DirectUI@@SGPBUPropertyInfo@2@XZ
  ?OrderProp@ScrollBar@DirectUI@@SGPBUPropertyInfo@2@XZ="C:\Windows\SysWOW64\dui70".?OrderProp@ScrollBar@DirectUI@@SGPBUPropertyInfo@2@XZ
  ?Orientation@Schema@DirectUI@@2HA="C:\Windows\SysWOW64\dui70".?Orientation@Schema@DirectUI@@2HA
  ?OverhangOffsetProp@RichText@DirectUI@@SGPBUPropertyInfo@2@XZ="C:\Windows\SysWOW64\dui70".?OverhangOffsetProp@RichText@DirectUI@@SGPBUPropertyInfo@2@XZ
  ?OverhangProp@Element@DirectUI@@SGPBUPropertyInfo@2@XZ="C:\Windows\SysWOW64\dui70".?OverhangProp@Element@DirectUI@@SGPBUPropertyInfo@2@XZ
  ?OverrideButtonBackgroundProp@CCPushButton@DirectUI@@SGPBUPropertyInfo@2@XZ="C:\Windows\SysWOW64\dui70".?OverrideButtonBackgroundProp@CCPushButton@DirectUI@@SGPBUPropertyInfo@2@XZ
  ?OverrideZoomThreshold@TouchScrollViewer@DirectUI@@QAEJMMH@Z="C:\Windows\SysWOW64\dui70".?OverrideZoomThreshold@TouchScrollViewer@DirectUI@@QAEJMMH@Z
  ?PaddingProp@Element@DirectUI@@SGPBUPropertyInfo@2@XZ="C:\Windows\SysWOW64\dui70".?PaddingProp@Element@DirectUI@@SGPBUPropertyInfo@2@XZ
  ?PageDown@BaseScrollBar@DirectUI@@UAEXI@Z="C:\Windows\SysWOW64\dui70".?PageDown@BaseScrollBar@DirectUI@@UAEXI@Z
  ?PageDown@TouchScrollBar@DirectUI@@UAEXI@Z="C:\Windows\SysWOW64\dui70".?PageDown@TouchScrollBar@DirectUI@@UAEXI@Z
  ?PageProp@CCBaseScrollBar@DirectUI@@SGPBUPropertyInfo@2@XZ="C:\Windows\SysWOW64\dui70".?PageProp@CCBaseScrollBar@DirectUI@@SGPBUPropertyInfo@2@XZ
  ?PageProp@ScrollBar@DirectUI@@SGPBUPropertyInfo@2@XZ="C:\Windows\SysWOW64\dui70".?PageProp@ScrollBar@DirectUI@@SGPBUPropertyInfo@2@XZ
  ?PageUp@BaseScrollBar@DirectUI@@UAEXI@Z="C:\Windows\SysWOW64\dui70".?PageUp@BaseScrollBar@DirectUI@@UAEXI@Z
  ?PageUp@TouchScrollBar@DirectUI@@UAEXI@Z="C:\Windows\SysWOW64\dui70".?PageUp@TouchScrollBar@DirectUI@@UAEXI@Z
  ?Paint@AnimationStrip@DirectUI@@MAEXPAUHDC__@@PBUtagRECT@@1PAU4@2@Z="C:\Windows\SysWOW64\dui70".?Paint@AnimationStrip@DirectUI@@MAEXPAUHDC__@@PBUtagRECT@@1PAU4@2@Z
  ?Paint@Element@DirectUI@@UAEXPAUHDC__@@PBUtagRECT@@1PAU4@2@Z="C:\Windows\SysWOW64\dui70".?Paint@Element@DirectUI@@UAEXPAUHDC__@@PBUtagRECT@@1PAU4@2@Z
  ?Paint@HWNDHost@DirectUI@@UAEXPAUHDC__@@PBUtagRECT@@1PAU4@2@Z="C:\Windows\SysWOW64\dui70".?Paint@HWNDHost@DirectUI@@UAEXPAUHDC__@@PBUtagRECT@@1PAU4@2@Z
  ?Paint@ModernProgressBar@DirectUI@@MAEXPAUHDC__@@PBUtagRECT@@1PAU4@2@Z="C:\Windows\SysWOW64\dui70".?Paint@ModernProgressBar@DirectUI@@MAEXPAUHDC__@@PBUtagRECT@@1PAU4@2@Z
  ?Paint@ModernProgressRing@DirectUI@@MAEXPAUHDC__@@PBUtagRECT@@1PAU4@2@Z="C:\Windows\SysWOW64\dui70".?Paint@ModernProgressRing@DirectUI@@MAEXPAUHDC__@@PBUtagRECT@@1PAU4@2@Z
  ?Paint@Movie@DirectUI@@UAEXPAUHDC__@@PBUtagRECT@@1PAU4@2@Z="C:\Windows\SysWOW64\dui70".?Paint@Movie@DirectUI@@UAEXPAUHDC__@@PBUtagRECT@@1PAU4@2@Z
  ?Paint@Progress@DirectUI@@UAEXPAUHDC__@@PBUtagRECT@@1PAU4@2@Z="C:\Windows\SysWOW64\dui70".?Paint@Progress@DirectUI@@UAEXPAUHDC__@@PBUtagRECT@@1PAU4@2@Z
  ?Paint@RichText@DirectUI@@UAEXPAUHDC__@@PBUtagRECT@@1PAU4@2@Z="C:\Windows\SysWOW64\dui70".?Paint@RichText@DirectUI@@UAEXPAUHDC__@@PBUtagRECT@@1PAU4@2@Z
  ?Paint@TouchCheckBox@DirectUI@@UAEXPAUHDC__@@PBUtagRECT@@1PAU4@2@Z="C:\Windows\SysWOW64\dui70".?Paint@TouchCheckBox@DirectUI@@UAEXPAUHDC__@@PBUtagRECT@@1PAU4@2@Z
  ?Paint@TouchCheckBoxGlyph@DirectUI@@UAEXPAUHDC__@@PBUtagRECT@@1PAU4@2@Z="C:\Windows\SysWOW64\dui70".?Paint@TouchCheckBoxGlyph@DirectUI@@UAEXPAUHDC__@@PBUtagRECT@@1PAU4@2@Z
  ?Paint@TouchCommandButton@DirectUI@@UAEXPAUHDC__@@PBUtagRECT@@1PAU4@2@Z="C:\Windows\SysWOW64\dui70".?Paint@TouchCommandButton@DirectUI@@UAEXPAUHDC__@@PBUtagRECT@@1PAU4@2@Z
  ?Paint@TouchEdit2@DirectUI@@UAEXPAUHDC__@@PBUtagRECT@@1PAU4@2@Z="C:\Windows\SysWOW64\dui70".?Paint@TouchEdit2@DirectUI@@UAEXPAUHDC__@@PBUtagRECT@@1PAU4@2@Z
  ?PaintBackground@Element@DirectUI@@QAEXPAUHDC__@@PAVValue@2@ABUtagRECT@@222@Z="C:\Windows\SysWOW64\dui70".?PaintBackground@Element@DirectUI@@QAEXPAUHDC__@@PAVValue@2@ABUtagRECT@@222@Z
  ?PaintBorder@Element@DirectUI@@QAEXPAUHDC__@@PAVValue@2@PAUtagRECT@@ABU5@@Z="C:\Windows\SysWOW64\dui70".?PaintBorder@Element@DirectUI@@QAEXPAUHDC__@@PAVValue@2@PAUtagRECT@@ABU5@@Z
  ?PaintContent@Element@DirectUI@@QAEXPAUHDC__@@PBUtagRECT@@@Z="C:\Windows\SysWOW64\dui70".?PaintContent@Element@DirectUI@@QAEXPAUHDC__@@PBUtagRECT@@@Z
  ?PaintEdgeHighlight@Element@DirectUI@@QAEXPAUHDC__@@ABUtagRECT@@1@Z="C:\Windows\SysWOW64\dui70".?PaintEdgeHighlight@Element@DirectUI@@QAEXPAUHDC__@@ABUtagRECT@@1@Z
  ?PaintFocusRect@Element@DirectUI@@QAEXPAUHDC__@@PBUtagRECT@@1@Z="C:\Windows\SysWOW64\dui70".?PaintFocusRect@Element@DirectUI@@QAEXPAUHDC__@@PBUtagRECT@@1@Z
  ?PaintStringContent@Element@DirectUI@@QAEXPAUHDC__@@PBUtagRECT@@PAVValue@2@H@Z="C:\Windows\SysWOW64\dui70".?PaintStringContent@Element@DirectUI@@QAEXPAUHDC__@@PBUtagRECT@@PAVValue@2@H@Z
  ?PaneControlType@Schema@DirectUI@@2HA="C:\Windows\SysWOW64\dui70".?PaneControlType@Schema@DirectUI@@2HA
  ?ParentProp@Element@DirectUI@@SGPBUPropertyInfo@2@XZ="C:\Windows\SysWOW64\dui70".?ParentProp@Element@DirectUI@@SGPBUPropertyInfo@2@XZ
  ?ParseARGBColor@DUIXmlParser@DirectUI@@IAEJPBUExprNode@ParserTools@2@PAKPA_N@Z="C:\Windows\SysWOW64\dui70".?ParseARGBColor@DUIXmlParser@DirectUI@@IAEJPBUExprNode@ParserTools@2@PAKPA_N@Z
  ?ParseArgs@DUIXmlParser@DirectUI@@IAEJPBUExprNode@ParserTools@2@PATParsedArg@12@IPBD@Z="C:\Windows\SysWOW64\dui70".?ParseArgs@DUIXmlParser@DirectUI@@IAEJPBUExprNode@ParserTools@2@PATParsedArg@12@IPBD@Z
  ?ParseAtomValue@DUIXmlParser@DirectUI@@IAEJPBUExprNode@ParserTools@2@PAPAVValue@2@@Z="C:\Windows\SysWOW64\dui70".?ParseAtomValue@DUIXmlParser@DirectUI@@IAEJPBUExprNode@ParserTools@2@PAPAVValue@2@@Z
  ?ParseBehavior@DUIXmlParser@DirectUI@@IAEJPBUExprNode@ParserTools@2@@Z="C:\Windows\SysWOW64\dui70".?ParseBehavior@DUIXmlParser@DirectUI@@IAEJPBUExprNode@ParserTools@2@@Z
  ?ParseBehaviorArgValue@DUIXmlParser@DirectUI@@IAEJPBUExprNode@ParserTools@2@PAPAVValue@2@@Z="C:\Windows\SysWOW64\dui70".?ParseBehaviorArgValue@DUIXmlParser@DirectUI@@IAEJPBUExprNode@ParserTools@2@PAPAVValue@2@@Z
  ?ParseBoolValue@DUIXmlParser@DirectUI@@IAEJPBUExprNode@ParserTools@2@PAPAVValue@2@@Z="C:\Windows\SysWOW64\dui70".?ParseBoolValue@DUIXmlParser@DirectUI@@IAEJPBUExprNode@ParserTools@2@PAPAVValue@2@@Z
  ?ParseColor@DUIXmlParser@DirectUI@@IAEJPBUExprNode@ParserTools@2@PAK@Z="C:\Windows\SysWOW64\dui70".?ParseColor@DUIXmlParser@DirectUI@@IAEJPBUExprNode@ParserTools@2@PAK@Z
  ?ParseDFCFill@DUIXmlParser@DirectUI@@IAEJPBUExprNode@ParserTools@2@PAPAVValue@2@PA_N@Z="C:\Windows\SysWOW64\dui70".?ParseDFCFill@DUIXmlParser@DirectUI@@IAEJPBUExprNode@ParserTools@2@PAPAVValue@2@PA_N@Z
  ?ParseDTBFill@DUIXmlParser@DirectUI@@IAEJPBUExprNode@ParserTools@2@PAPAVValue@2@PA_N@Z="C:\Windows\SysWOW64\dui70".?ParseDTBFill@DUIXmlParser@DirectUI@@IAEJPBUExprNode@ParserTools@2@PAPAVValue@2@PA_N@Z
  ?ParseDoubleListValue@DUIXmlParser@DirectUI@@IAEJPBUExprNode@ParserTools@2@PAPAVValue@2@@Z="C:\Windows\SysWOW64\dui70".?ParseDoubleListValue@DUIXmlParser@DirectUI@@IAEJPBUExprNode@ParserTools@2@PAPAVValue@2@@Z
  ?ParseFillValue@DUIXmlParser@DirectUI@@IAEJPBUExprNode@ParserTools@2@PAPAVValue@2@@Z="C:\Windows\SysWOW64\dui70".?ParseFillValue@DUIXmlParser@DirectUI@@IAEJPBUExprNode@ParserTools@2@PAPAVValue@2@@Z
  ?ParseFloat@DUIXmlParser@DirectUI@@IAEJPBUExprNode@ParserTools@2@PAMPA_N@Z="C:\Windows\SysWOW64\dui70".?ParseFloat@DUIXmlParser@DirectUI@@IAEJPBUExprNode@ParserTools@2@PAMPA_N@Z
  ?ParseFloatValue@DUIXmlParser@DirectUI@@IAEJPBUExprNode@ParserTools@2@PAPAVValue@2@@Z="C:\Windows\SysWOW64\dui70".?ParseFloatValue@DUIXmlParser@DirectUI@@IAEJPBUExprNode@ParserTools@2@PAPAVValue@2@@Z
  ?ParseFunction@DUIXmlParser@DirectUI@@IAEJPBGPBUExprNode@ParserTools@2@PATParsedArg@12@IPBD@Z="C:\Windows\SysWOW64\dui70".?ParseFunction@DUIXmlParser@DirectUI@@IAEJPBGPBUExprNode@ParserTools@2@PATParsedArg@12@IPBD@Z
  ?ParseGTCColor@DUIXmlParser@DirectUI@@IAEJPBUExprNode@ParserTools@2@PAKPA_N@Z="C:\Windows\SysWOW64\dui70".?ParseGTCColor@DUIXmlParser@DirectUI@@IAEJPBUExprNode@ParserTools@2@PAKPA_N@Z
  ?ParseGTFStr@DUIXmlParser@DirectUI@@IAEJPBUExprNode@ParserTools@2@PAPAVValue@2@PA_N@Z="C:\Windows\SysWOW64\dui70".?ParseGTFStr@DUIXmlParser@DirectUI@@IAEJPBUExprNode@ParserTools@2@PAPAVValue@2@PA_N@Z
  ?ParseGTMarRect@DUIXmlParser@DirectUI@@IAEJPBUExprNode@ParserTools@2@PAUScaledRECT@2@PA_N@Z="C:\Windows\SysWOW64\dui70".?ParseGTMarRect@DUIXmlParser@DirectUI@@IAEJPBUExprNode@ParserTools@2@PAUScaledRECT@2@PA_N@Z
  ?ParseGTMetInt@DUIXmlParser@DirectUI@@IAEJPBUExprNode@ParserTools@2@PAHPA_N@Z="C:\Windows\SysWOW64\dui70".?ParseGTMetInt@DUIXmlParser@DirectUI@@IAEJPBUExprNode@ParserTools@2@PAHPA_N@Z
  ?ParseGTPartSize@DUIXmlParser@DirectUI@@IAEJPBUExprNode@ParserTools@2@PAUScaledSIZE@2@PA_N@Z="C:\Windows\SysWOW64\dui70".?ParseGTPartSize@DUIXmlParser@DirectUI@@IAEJPBUExprNode@ParserTools@2@PAUScaledSIZE@2@PA_N@Z
  ?ParseGradientFill@DUIXmlParser@DirectUI@@IAEJPBUExprNode@ParserTools@2@PAPAVValue@2@PA_N@Z="C:\Windows\SysWOW64\dui70".?ParseGradientFill@DUIXmlParser@DirectUI@@IAEJPBUExprNode@ParserTools@2@PAPAVValue@2@PA_N@Z
  ?ParseGraphicGraphic@DUIXmlParser@DirectUI@@IAEJPBUExprNode@ParserTools@2@PAPAVValue@2@PA_N@Z="C:\Windows\SysWOW64\dui70".?ParseGraphicGraphic@DUIXmlParser@DirectUI@@IAEJPBUExprNode@ParserTools@2@PAPAVValue@2@PA_N@Z
  ?ParseGraphicHelper@DUIXmlParser@DirectUI@@IAEJ_NPBUExprNode@ParserTools@2@PAPAVValue@2@@Z="C:\Windows\SysWOW64\dui70".?ParseGraphicHelper@DUIXmlParser@DirectUI@@IAEJ_NPBUExprNode@ParserTools@2@PAPAVValue@2@@Z
  ?ParseGraphicValue@DUIXmlParser@DirectUI@@IAEJPBUExprNode@ParserTools@2@PAPAVValue@2@@Z="C:\Windows\SysWOW64\dui70".?ParseGraphicValue@DUIXmlParser@DirectUI@@IAEJPBUExprNode@ParserTools@2@PAPAVValue@2@@Z
  ?ParseIconGraphic@DUIXmlParser@DirectUI@@IAEJPBUExprNode@ParserTools@2@PAPAVValue@2@PA_N@Z="C:\Windows\SysWOW64\dui70".?ParseIconGraphic@DUIXmlParser@DirectUI@@IAEJPBUExprNode@ParserTools@2@PAPAVValue@2@PA_N@Z
  ?ParseImageGraphic@DUIXmlParser@DirectUI@@IAEJPBUExprNode@ParserTools@2@PAPAVValue@2@PA_N@Z="C:\Windows\SysWOW64\dui70".?ParseImageGraphic@DUIXmlParser@DirectUI@@IAEJPBUExprNode@ParserTools@2@PAPAVValue@2@PA_N@Z
  ?ParseIntValue@DUIXmlParser@DirectUI@@IAEJPBUExprNode@ParserTools@2@PAPAVValue@2@@Z="C:\Windows\SysWOW64\dui70".?ParseIntValue@DUIXmlParser@DirectUI@@IAEJPBUExprNode@ParserTools@2@PAPAVValue@2@@Z
  ?ParseLayoutValue@DUIXmlParser@DirectUI@@IAEJPBUExprNode@ParserTools@2@@Z="C:\Windows\SysWOW64\dui70".?ParseLayoutValue@DUIXmlParser@DirectUI@@IAEJPBUExprNode@ParserTools@2@@Z
  ?ParseLibrary@DUIXmlParser@DirectUI@@IAEJPBUExprNode@ParserTools@2@PAPAUHINSTANCE__@@@Z="C:\Windows\SysWOW64\dui70".?ParseLibrary@DUIXmlParser@DirectUI@@IAEJPBUExprNode@ParserTools@2@PAPAUHINSTANCE__@@@Z
  ?ParseLiteral@DUIXmlParser@DirectUI@@IAEJPBUExprNode@ParserTools@2@PAPBG@Z="C:\Windows\SysWOW64\dui70".?ParseLiteral@DUIXmlParser@DirectUI@@IAEJPBUExprNode@ParserTools@2@PAPBG@Z
  ?ParseLiteralColor@DUIXmlParser@DirectUI@@IAEJPBGPAK@Z="C:\Windows\SysWOW64\dui70".?ParseLiteralColor@DUIXmlParser@DirectUI@@IAEJPBGPAK@Z
  ?ParseLiteralColorInt@DUIXmlParser@DirectUI@@IAEJPBGPAH@Z="C:\Windows\SysWOW64\dui70".?ParseLiteralColorInt@DUIXmlParser@DirectUI@@IAEJPBGPAH@Z
  ?ParseLiteralNumber@DUIXmlParser@DirectUI@@IAEJPBGPAHPA_N@Z="C:\Windows\SysWOW64\dui70".?ParseLiteralNumber@DUIXmlParser@DirectUI@@IAEJPBGPAHPA_N@Z
  ?ParseMagnitude@DUIXmlParser@DirectUI@@IAEJPBGPAHPA_N@Z="C:\Windows\SysWOW64\dui70".?ParseMagnitude@DUIXmlParser@DirectUI@@IAEJPBGPAHPA_N@Z
  ?ParseMagnitudeFloat@DUIXmlParser@DirectUI@@IAEJPBGPAMPA_N@Z="C:\Windows\SysWOW64\dui70".?ParseMagnitudeFloat@DUIXmlParser@DirectUI@@IAEJPBGPAMPA_N@Z
  ?ParseNumber@DUIXmlParser@DirectUI@@IAEJPBUExprNode@ParserTools@2@PAHPA_N@Z="C:\Windows\SysWOW64\dui70".?ParseNumber@DUIXmlParser@DirectUI@@IAEJPBUExprNode@ParserTools@2@PAHPA_N@Z
  ?ParsePointValue@DUIXmlParser@DirectUI@@IAEJPBUExprNode@ParserTools@2@PAPAVValue@2@@Z="C:\Windows\SysWOW64\dui70".?ParsePointValue@DUIXmlParser@DirectUI@@IAEJPBUExprNode@ParserTools@2@PAPAVValue@2@@Z
  ?ParseQuotedString@DUIXmlParser@DirectUI@@IAEJPBUExprNode@ParserTools@2@PAPBG@Z="C:\Windows\SysWOW64\dui70".?ParseQuotedString@DUIXmlParser@DirectUI@@IAEJPBUExprNode@ParserTools@2@PAPBG@Z
  ?ParseRGBColor@DUIXmlParser@DirectUI@@IAEJPBUExprNode@ParserTools@2@PAKPA_N@Z="C:\Windows\SysWOW64\dui70".?ParseRGBColor@DUIXmlParser@DirectUI@@IAEJPBUExprNode@ParserTools@2@PAKPA_N@Z
  ?ParseRect@DUIXmlParser@DirectUI@@IAEJPBUExprNode@ParserTools@2@PAUScaledRECT@2@@Z="C:\Windows\SysWOW64\dui70".?ParseRect@DUIXmlParser@DirectUI@@IAEJPBUExprNode@ParserTools@2@PAUScaledRECT@2@@Z
  ?ParseRectRect@DUIXmlParser@DirectUI@@IAEJPBUExprNode@ParserTools@2@PAUScaledRECT@2@PA_N@Z="C:\Windows\SysWOW64\dui70".?ParseRectRect@DUIXmlParser@DirectUI@@IAEJPBUExprNode@ParserTools@2@PAUScaledRECT@2@PA_N@Z
  ?ParseRectValue@DUIXmlParser@DirectUI@@IAEJPBUExprNode@ParserTools@2@PAPAVValue@2@@Z="C:\Windows\SysWOW64\dui70".?ParseRectValue@DUIXmlParser@DirectUI@@IAEJPBUExprNode@ParserTools@2@PAPAVValue@2@@Z
  ?ParseResStr@DUIXmlParser@DirectUI@@IAEJPBUExprNode@ParserTools@2@PAPAVValue@2@PA_N@Z="C:\Windows\SysWOW64\dui70".?ParseResStr@DUIXmlParser@DirectUI@@IAEJPBUExprNode@ParserTools@2@PAPAVValue@2@PA_N@Z
  ?ParseResid@DUIXmlParser@DirectUI@@IAEJPBUExprNode@ParserTools@2@PAPBG@Z="C:\Windows\SysWOW64\dui70".?ParseResid@DUIXmlParser@DirectUI@@IAEJPBUExprNode@ParserTools@2@PAPBG@Z
  ?ParseSGraphicGraphic@DUIXmlParser@DirectUI@@IAEJPBUExprNode@ParserTools@2@PAPAVValue@2@PA_N@Z="C:\Windows\SysWOW64\dui70".?ParseSGraphicGraphic@DUIXmlParser@DirectUI@@IAEJPBUExprNode@ParserTools@2@PAPAVValue@2@PA_N@Z
  ?ParseSGraphicHelper@DUIXmlParser@DirectUI@@IAEJ_NPBUExprNode@ParserTools@2@PAPAVValue@2@@Z="C:\Windows\SysWOW64\dui70".?ParseSGraphicHelper@DUIXmlParser@DirectUI@@IAEJ_NPBUExprNode@ParserTools@2@PAPAVValue@2@@Z
  ?ParseSize@DUIXmlParser@DirectUI@@IAEJPBUExprNode@ParserTools@2@PAUScaledSIZE@2@@Z="C:\Windows\SysWOW64\dui70".?ParseSize@DUIXmlParser@DirectUI@@IAEJPBUExprNode@ParserTools@2@PAUScaledSIZE@2@@Z
  ?ParseSizeSize@DUIXmlParser@DirectUI@@IAEJPBUExprNode@ParserTools@2@PAUScaledSIZE@2@PA_N@Z="C:\Windows\SysWOW64\dui70".?ParseSizeSize@DUIXmlParser@DirectUI@@IAEJPBUExprNode@ParserTools@2@PAUScaledSIZE@2@PA_N@Z
  ?ParseSizeValue@DUIXmlParser@DirectUI@@IAEJPBUExprNode@ParserTools@2@PAPAVValue@2@@Z="C:\Windows\SysWOW64\dui70".?ParseSizeValue@DUIXmlParser@DirectUI@@IAEJPBUExprNode@ParserTools@2@PAPAVValue@2@@Z
  ?ParseStringValue@DUIXmlParser@DirectUI@@IAEJPBUExprNode@ParserTools@2@PAPAVValue@2@@Z="C:\Windows\SysWOW64\dui70".?ParseStringValue@DUIXmlParser@DirectUI@@IAEJPBUExprNode@ParserTools@2@PAPAVValue@2@@Z
  ?ParseStyleSheets@DUIXmlParser@DirectUI@@IAEJPAUIXmlReader@@@Z="C:\Windows\SysWOW64\dui70".?ParseStyleSheets@DUIXmlParser@DirectUI@@IAEJPAUIXmlReader@@@Z
  ?ParseSysMetricInt@DUIXmlParser@DirectUI@@IAEJPBUExprNode@ParserTools@2@PAHPA_N@Z="C:\Windows\SysWOW64\dui70".?ParseSysMetricInt@DUIXmlParser@DirectUI@@IAEJPBUExprNode@ParserTools@2@PAHPA_N@Z
  ?ParseSysMetricStr@DUIXmlParser@DirectUI@@IAEJPBUExprNode@ParserTools@2@PAPAVValue@2@PA_N@Z="C:\Windows\SysWOW64\dui70".?ParseSysMetricStr@DUIXmlParser@DirectUI@@IAEJPBUExprNode@ParserTools@2@PAPAVValue@2@PA_N@Z
  ?ParseTheme@DUIXmlParser@DirectUI@@IAEJPBUExprNode@ParserTools@2@_NPAPAX@Z="C:\Windows\SysWOW64\dui70".?ParseTheme@DUIXmlParser@DirectUI@@IAEJPBUExprNode@ParserTools@2@_NPAPAX@Z
  ?PasswordCharacterProp@Edit@DirectUI@@SGPBUPropertyInfo@2@XZ="C:\Windows\SysWOW64\dui70".?PasswordCharacterProp@Edit@DirectUI@@SGPBUPropertyInfo@2@XZ
  ?PasswordCharacterProp@TouchEditBase@DirectUI@@SGPBUPropertyInfo@2@XZ="C:\Windows\SysWOW64\dui70".?PasswordCharacterProp@TouchEditBase@DirectUI@@SGPBUPropertyInfo@2@XZ
  ?PasswordRevealModeProp@TouchEdit2@DirectUI@@SGPBUPropertyInfo@2@XZ="C:\Windows\SysWOW64\dui70".?PasswordRevealModeProp@TouchEdit2@DirectUI@@SGPBUPropertyInfo@2@XZ
  ?Paste@TouchEditBase@DirectUI@@SG?AVUID@@XZ="C:\Windows\SysWOW64\dui70".?Paste@TouchEditBase@DirectUI@@SG?AVUID@@XZ
  ?PasteText@TouchEdit2@DirectUI@@QAEJPBG@Z="C:\Windows\SysWOW64\dui70".?PasteText@TouchEdit2@DirectUI@@QAEJPBG@Z
  ?PathProp@Movie@DirectUI@@SGPBUPropertyInfo@2@XZ="C:\Windows\SysWOW64\dui70".?PathProp@Movie@DirectUI@@SGPBUPropertyInfo@2@XZ
  ?PatternFromPatternId@Schema@DirectUI@@SG?AW4Pattern@12@H@Z="C:\Windows\SysWOW64\dui70".?PatternFromPatternId@Schema@DirectUI@@SG?AW4Pattern@12@H@Z
  ?Pause@Movie@DirectUI@@QAEXXZ="C:\Windows\SysWOW64\dui70".?Pause@Movie@DirectUI@@QAEXXZ
  ?PfnIsSupportedFromPattern@Schema@DirectUI@@SGP6G_NPAVElement@2@@ZW4Pattern@12@@Z="C:\Windows\SysWOW64\dui70".?PfnIsSupportedFromPattern@Schema@DirectUI@@SGP6G_NPAVElement@2@@ZW4Pattern@12@@Z
  ?PinningProp@BaseScrollViewer@DirectUI@@SGPBUPropertyInfo@2@XZ="C:\Windows\SysWOW64\dui70".?PinningProp@BaseScrollViewer@DirectUI@@SGPBUPropertyInfo@2@XZ
  ?PixelOffsetModeProp@Movie@DirectUI@@SGPBUPropertyInfo@2@XZ="C:\Windows\SysWOW64\dui70".?PixelOffsetModeProp@Movie@DirectUI@@SGPBUPropertyInfo@2@XZ
  ?Play@CCAVI@DirectUI@@QAEXPAUHWND__@@@Z="C:\Windows\SysWOW64\dui70".?Play@CCAVI@DirectUI@@QAEXPAUHWND__@@@Z
  ?Play@Movie@DirectUI@@QAEXXZ="C:\Windows\SysWOW64\dui70".?Play@Movie@DirectUI@@QAEXXZ
  ?PlayAllFramesModeProp@Movie@DirectUI@@SGPBUPropertyInfo@2@XZ="C:\Windows\SysWOW64\dui70".?PlayAllFramesModeProp@Movie@DirectUI@@SGPBUPropertyInfo@2@XZ
  ?PlayProp@AnimationStrip@DirectUI@@SGPBUPropertyInfo@2@XZ="C:\Windows\SysWOW64\dui70".?PlayProp@AnimationStrip@DirectUI@@SGPBUPropertyInfo@2@XZ
  ?PopupBoundsProp@TouchSelect@DirectUI@@SGPBUPropertyInfo@2@XZ="C:\Windows\SysWOW64\dui70".?PopupBoundsProp@TouchSelect@DirectUI@@SGPBUPropertyInfo@2@XZ
  ?PopupChange@TouchSelect@DirectUI@@SG?AVUID@@XZ="C:\Windows\SysWOW64\dui70".?PopupChange@TouchSelect@DirectUI@@SG?AVUID@@XZ
  ?PosInLayoutProp@Element@DirectUI@@SGPBUPropertyInfo@2@XZ="C:\Windows\SysWOW64\dui70".?PosInLayoutProp@Element@DirectUI@@SGPBUPropertyInfo@2@XZ
  ?PositionProp@CCBaseScrollBar@DirectUI@@SGPBUPropertyInfo@2@XZ="C:\Windows\SysWOW64\dui70".?PositionProp@CCBaseScrollBar@DirectUI@@SGPBUPropertyInfo@2@XZ
  ?PositionProp@ModernProgressBar@DirectUI@@SGPBUPropertyInfo@2@XZ="C:\Windows\SysWOW64\dui70".?PositionProp@ModernProgressBar@DirectUI@@SGPBUPropertyInfo@2@XZ
  ?PositionProp@Progress@DirectUI@@SGPBUPropertyInfo@2@XZ="C:\Windows\SysWOW64\dui70".?PositionProp@Progress@DirectUI@@SGPBUPropertyInfo@2@XZ
  ?PositionProp@ScrollBar@DirectUI@@SGPBUPropertyInfo@2@XZ="C:\Windows\SysWOW64\dui70".?PositionProp@ScrollBar@DirectUI@@SGPBUPropertyInfo@2@XZ
  ?PostCreate@CCAVI@DirectUI@@MAEXPAUHWND__@@@Z="C:\Windows\SysWOW64\dui70".?PostCreate@CCAVI@DirectUI@@MAEXPAUHWND__@@@Z
  ?PostCreate@CCBase@DirectUI@@MAEXPAUHWND__@@@Z="C:\Windows\SysWOW64\dui70".?PostCreate@CCBase@DirectUI@@MAEXPAUHWND__@@@Z
  ?PostCreate@CCBaseCheckRadioButton@DirectUI@@MAEXPAUHWND__@@@Z="C:\Windows\SysWOW64\dui70".?PostCreate@CCBaseCheckRadioButton@DirectUI@@MAEXPAUHWND__@@@Z
  ?PostCreate@CCCommandLink@DirectUI@@MAEXPAUHWND__@@@Z="C:\Windows\SysWOW64\dui70".?PostCreate@CCCommandLink@DirectUI@@MAEXPAUHWND__@@@Z
  ?PostCreate@CCTrackBar@DirectUI@@MAEXPAUHWND__@@@Z="C:\Windows\SysWOW64\dui70".?PostCreate@CCTrackBar@DirectUI@@MAEXPAUHWND__@@@Z
  ?PrepareManualSwapDeferredZoomToRect@TouchScrollViewer@DirectUI@@QAEJPBUtagRECT@@PBM1PAM2M@Z="C:\Windows\SysWOW64\dui70".?PrepareManualSwapDeferredZoomToRect@TouchScrollViewer@DirectUI@@QAEJPBUtagRECT@@PBM1PAM2M@Z
  ?PressedProp@Button@DirectUI@@SGPBUPropertyInfo@2@XZ="C:\Windows\SysWOW64\dui70".?PressedProp@Button@DirectUI@@SGPBUPropertyInfo@2@XZ
  ?PressedProp@TouchButton@DirectUI@@SGPBUPropertyInfo@2@XZ="C:\Windows\SysWOW64\dui70".?PressedProp@TouchButton@DirectUI@@SGPBUPropertyInfo@2@XZ
  ?PreventFormatChangeUpdatingModifiedStateProp@TouchEditBase@DirectUI@@SGPBUPropertyInfo@2@XZ="C:\Windows\SysWOW64\dui70".?PreventFormatChangeUpdatingModifiedStateProp@TouchEditBase@DirectUI@@SGPBUPropertyInfo@2@XZ
  ?PrintRTLControl@HWNDHost@DirectUI@@IAEXPAUHDC__@@0ABUtagRECT@@@Z="C:\Windows\SysWOW64\dui70".?PrintRTLControl@HWNDHost@DirectUI@@IAEXPAUHDC__@@0ABUtagRECT@@@Z
  ?ProcessIdProperty@Schema@DirectUI@@2HA="C:\Windows\SysWOW64\dui70".?ProcessIdProperty@Schema@DirectUI@@2HA
  ?ProcessingKeyboardNavigation@TouchHWNDElement@DirectUI@@SG?AVUID@@XZ="C:\Windows\SysWOW64\dui70".?ProcessingKeyboardNavigation@TouchHWNDElement@DirectUI@@SG?AVUID@@XZ
  ?ProgressBarControlType@Schema@DirectUI@@2HA="C:\Windows\SysWOW64\dui70".?ProgressBarControlType@Schema@DirectUI@@2HA
  ?PromptTextProp@TouchEdit2@DirectUI@@SGPBUPropertyInfo@2@XZ="C:\Windows\SysWOW64\dui70".?PromptTextProp@TouchEdit2@DirectUI@@SGPBUPropertyInfo@2@XZ
  ?PromptWithCaretProp@TouchEdit2@DirectUI@@SGPBUPropertyInfo@2@XZ="C:\Windows\SysWOW64\dui70".?PromptWithCaretProp@TouchEdit2@DirectUI@@SGPBUPropertyInfo@2@XZ
  ?PropSheet_SendMessage@TaskPage@DirectUI@@IAEJIIJ@Z="C:\Windows\SysWOW64\dui70".?PropSheet_SendMessage@TaskPage@DirectUI@@IAEJIIJ@Z
  ?PropertyChangedCore@Edit@DirectUI@@AAEXPBUPropertyInfo@2@HPAVValue@2@PAUHWND__@@@Z="C:\Windows\SysWOW64\dui70".?PropertyChangedCore@Edit@DirectUI@@AAEXPBUPropertyInfo@2@HPAVValue@2@PAUHWND__@@@Z
  ?PropertyChangingListener@EventManager@DirectUI@@SGJPAVElement@2@PBUPropertyInfo@2@PA_N@Z="C:\Windows\SysWOW64\dui70".?PropertyChangingListener@EventManager@DirectUI@@SGJPAVElement@2@PBUPropertyInfo@2@PA_N@Z
  ?PropertyListener@EventManager@DirectUI@@SGJPAVElement@2@PBUPropertyInfo@2@HPAVValue@2@2@Z="C:\Windows\SysWOW64\dui70".?PropertyListener@EventManager@DirectUI@@SGJPAVElement@2@PBUPropertyInfo@2@HPAVValue@2@2@Z
  ?PropertyProp@Bind@DirectUI@@SGPBUPropertyInfo@2@XZ="C:\Windows\SysWOW64\dui70".?PropertyProp@Bind@DirectUI@@SGPBUPropertyInfo@2@XZ
  ?ProportionalProp@ScrollBar@DirectUI@@SGPBUPropertyInfo@2@XZ="C:\Windows\SysWOW64\dui70".?ProportionalProp@ScrollBar@DirectUI@@SGPBUPropertyInfo@2@XZ
  ?QueryInterface@DuiAccessible@DirectUI@@UAGJABU_GUID@@PAPAX@Z="C:\Windows\SysWOW64\dui70".?QueryInterface@DuiAccessible@DirectUI@@UAGJABU_GUID@@PAPAX@Z
  ?QueryInterface@Element@DirectUI@@UAGJABU_GUID@@PAPAX@Z="C:\Windows\SysWOW64\dui70".?QueryInterface@Element@DirectUI@@UAGJABU_GUID@@PAPAX@Z
  ?QueryInterface@ElementProvider@DirectUI@@UAGJABU_GUID@@PAPAX@Z="C:\Windows\SysWOW64\dui70".?QueryInterface@ElementProvider@DirectUI@@UAGJABU_GUID@@PAPAX@Z
  ?QueryInterface@ExpandCollapseProvider@DirectUI@@UAGJABU_GUID@@PAPAX@Z="C:\Windows\SysWOW64\dui70".?QueryInterface@ExpandCollapseProvider@DirectUI@@UAGJABU_GUID@@PAPAX@Z
  ?QueryInterface@GridItemProvider@DirectUI@@UAGJABU_GUID@@PAPAX@Z="C:\Windows\SysWOW64\dui70".?QueryInterface@GridItemProvider@DirectUI@@UAGJABU_GUID@@PAPAX@Z
  ?QueryInterface@GridProvider@DirectUI@@UAGJABU_GUID@@PAPAX@Z="C:\Windows\SysWOW64\dui70".?QueryInterface@GridProvider@DirectUI@@UAGJABU_GUID@@PAPAX@Z
  ?QueryInterface@HWNDElementProvider@DirectUI@@UAGJABU_GUID@@PAPAX@Z="C:\Windows\SysWOW64\dui70".?QueryInterface@HWNDElementProvider@DirectUI@@UAGJABU_GUID@@PAPAX@Z
  ?QueryInterface@HWNDHostAccessible@DirectUI@@UAGJABU_GUID@@PAPAX@Z="C:\Windows\SysWOW64\dui70".?QueryInterface@HWNDHostAccessible@DirectUI@@UAGJABU_GUID@@PAPAX@Z
  ?QueryInterface@InvokeProvider@DirectUI@@UAGJABU_GUID@@PAPAX@Z="C:\Windows\SysWOW64\dui70".?QueryInterface@InvokeProvider@DirectUI@@UAGJABU_GUID@@PAPAX@Z
  ?QueryInterface@RangeValueProvider@DirectUI@@UAGJABU_GUID@@PAPAX@Z="C:\Windows\SysWOW64\dui70".?QueryInterface@RangeValueProvider@DirectUI@@UAGJABU_GUID@@PAPAX@Z
  ?QueryInterface@ScrollItemProvider@DirectUI@@UAGJABU_GUID@@PAPAX@Z="C:\Windows\SysWOW64\dui70".?QueryInterface@ScrollItemProvider@DirectUI@@UAGJABU_GUID@@PAPAX@Z
  ?QueryInterface@ScrollProvider@DirectUI@@UAGJABU_GUID@@PAPAX@Z="C:\Windows\SysWOW64\dui70".?QueryInterface@ScrollProvider@DirectUI@@UAGJABU_GUID@@PAPAX@Z
  ?QueryInterface@SelectionItemProvider@DirectUI@@UAGJABU_GUID@@PAPAX@Z="C:\Windows\SysWOW64\dui70".?QueryInterface@SelectionItemProvider@DirectUI@@UAGJABU_GUID@@PAPAX@Z
  ?QueryInterface@SelectionProvider@DirectUI@@UAGJABU_GUID@@PAPAX@Z="C:\Windows\SysWOW64\dui70".?QueryInterface@SelectionProvider@DirectUI@@UAGJABU_GUID@@PAPAX@Z
  ?QueryInterface@TableItemProvider@DirectUI@@UAGJABU_GUID@@PAPAX@Z="C:\Windows\SysWOW64\dui70".?QueryInterface@TableItemProvider@DirectUI@@UAGJABU_GUID@@PAPAX@Z
  ?QueryInterface@TableProvider@DirectUI@@UAGJABU_GUID@@PAPAX@Z="C:\Windows\SysWOW64\dui70".?QueryInterface@TableProvider@DirectUI@@UAGJABU_GUID@@PAPAX@Z
  ?QueryInterface@ToggleProvider@DirectUI@@UAGJABU_GUID@@PAPAX@Z="C:\Windows\SysWOW64\dui70".?QueryInterface@ToggleProvider@DirectUI@@UAGJABU_GUID@@PAPAX@Z
  ?QueryInterface@ValueProvider@DirectUI@@UAGJABU_GUID@@PAPAX@Z="C:\Windows\SysWOW64\dui70".?QueryInterface@ValueProvider@DirectUI@@UAGJABU_GUID@@PAPAX@Z
  ?QueryInterface@XProvider@DirectUI@@UAGJABU_GUID@@PAPAX@Z="C:\Windows\SysWOW64\dui70".?QueryInterface@XProvider@DirectUI@@UAGJABU_GUID@@PAPAX@Z
  ?QueryService@DuiAccessible@DirectUI@@UAGJABU_GUID@@0PAPAX@Z="C:\Windows\SysWOW64\dui70".?QueryService@DuiAccessible@DirectUI@@UAGJABU_GUID@@0PAPAX@Z
  ?QueryService@HWNDHostAccessible@DirectUI@@UAGJABU_GUID@@0PAPAX@Z="C:\Windows\SysWOW64\dui70".?QueryService@HWNDHostAccessible@DirectUI@@UAGJABU_GUID@@0PAPAX@Z
  ?QuerySysMetric@DUIXmlParser@DirectUI@@IAEHHPA_N@Z="C:\Windows\SysWOW64\dui70".?QuerySysMetric@DUIXmlParser@DirectUI@@IAEHHPA_N@Z
  ?QuerySysMetricStr@DUIXmlParser@DirectUI@@IAEPBGHPAGI@Z="C:\Windows\SysWOW64\dui70".?QuerySysMetricStr@DUIXmlParser@DirectUI@@IAEPBGHPAGI@Z
  ?QueueDefaultAction@Element@DirectUI@@QAEJXZ="C:\Windows\SysWOW64\dui70".?QueueDefaultAction@Element@DirectUI@@QAEJXZ
  ?RadioButtonControlType@Schema@DirectUI@@2HA="C:\Windows\SysWOW64\dui70".?RadioButtonControlType@Schema@DirectUI@@2HA
  ?RaiseChildRemovedEvent@EventManager@DirectUI@@CGJABUElementRuntimeId@2@PAVElement@2@@Z="C:\Windows\SysWOW64\dui70".?RaiseChildRemovedEvent@EventManager@DirectUI@@CGJABUElementRuntimeId@2@PAVElement@2@@Z
  ?RaiseGeometryEventWorker@EventManager@DirectUI@@CGJPAURectangleChange@2@_N111@Z="C:\Windows\SysWOW64\dui70".?RaiseGeometryEventWorker@EventManager@DirectUI@@CGJPAURectangleChange@2@_N111@Z
  ?RaiseGeometryEvents@EventManager@DirectUI@@CGJXZ="C:\Windows\SysWOW64\dui70".?RaiseGeometryEvents@EventManager@DirectUI@@CGJXZ
  ?RaiseStructureChangedEvent@EventManager@DirectUI@@CGJPAVElement@2@W4StructureChangeType@@@Z="C:\Windows\SysWOW64\dui70".?RaiseStructureChangedEvent@EventManager@DirectUI@@CGJPAVElement@2@W4StructureChangeType@@@Z
  ?RaiseStructureEvents@EventManager@DirectUI@@CGJXZ="C:\Windows\SysWOW64\dui70".?RaiseStructureEvents@EventManager@DirectUI@@CGJXZ
  ?RaiseVisibilityEvents@EventManager@DirectUI@@CGJXZ="C:\Windows\SysWOW64\dui70".?RaiseVisibilityEvents@EventManager@DirectUI@@CGJXZ
  ?RangeMaxProp@CCTrackBar@DirectUI@@SGPBUPropertyInfo@2@XZ="C:\Windows\SysWOW64\dui70".?RangeMaxProp@CCTrackBar@DirectUI@@SGPBUPropertyInfo@2@XZ
  ?RangeMinProp@CCTrackBar@DirectUI@@SGPBUPropertyInfo@2@XZ="C:\Windows\SysWOW64\dui70".?RangeMinProp@CCTrackBar@DirectUI@@SGPBUPropertyInfo@2@XZ
  ?RangeValuePattern@Schema@DirectUI@@2HA="C:\Windows\SysWOW64\dui70".?RangeValuePattern@Schema@DirectUI@@2HA
  ?RangeValue_IsReadOnly_Property@Schema@DirectUI@@2HA="C:\Windows\SysWOW64\dui70".?RangeValue_IsReadOnly_Property@Schema@DirectUI@@2HA
  ?RangeValue_LargeChange_Property@Schema@DirectUI@@2HA="C:\Windows\SysWOW64\dui70".?RangeValue_LargeChange_Property@Schema@DirectUI@@2HA
  ?RangeValue_Maximum_Property@Schema@DirectUI@@2HA="C:\Windows\SysWOW64\dui70".?RangeValue_Maximum_Property@Schema@DirectUI@@2HA
  ?RangeValue_Minimum_Property@Schema@DirectUI@@2HA="C:\Windows\SysWOW64\dui70".?RangeValue_Minimum_Property@Schema@DirectUI@@2HA
  ?RangeValue_SmallChange_Property@Schema@DirectUI@@2HA="C:\Windows\SysWOW64\dui70".?RangeValue_SmallChange_Property@Schema@DirectUI@@2HA
  ?RangeValue_Value_Property@Schema@DirectUI@@2HA="C:\Windows\SysWOW64\dui70".?RangeValue_Value_Property@Schema@DirectUI@@2HA
  ?RawActionProc@AnimationStrip@DirectUI@@KGXPAUGMA_ACTIONINFO@@@Z="C:\Windows\SysWOW64\dui70".?RawActionProc@AnimationStrip@DirectUI@@KGXPAUGMA_ACTIONINFO@@@Z
  ?RawActionProc@Movie@DirectUI@@SGXPAUGMA_ACTIONINFO@@@Z="C:\Windows\SysWOW64\dui70".?RawActionProc@Movie@DirectUI@@SGXPAUGMA_ACTIONINFO@@@Z
  ?ReadOnlyProp@TouchEditBase@DirectUI@@SGPBUPropertyInfo@2@XZ="C:\Windows\SysWOW64\dui70".?ReadOnlyProp@TouchEditBase@DirectUI@@SGPBUPropertyInfo@2@XZ
  ?Recalc@AccessibleButton@DirectUI@@QAEXXZ="C:\Windows\SysWOW64\dui70".?Recalc@AccessibleButton@DirectUI@@QAEXXZ
  ?ReferencePointProp@RefPointElement@DirectUI@@SGPBUPropertyInfo@2@XZ="C:\Windows\SysWOW64\dui70".?ReferencePointProp@RefPointElement@DirectUI@@SGPBUPropertyInfo@2@XZ
  ?ReflowStyle@PVLAnimation@DirectUI@@SG?AVUID@@XZ="C:\Windows\SysWOW64\dui70".?ReflowStyle@PVLAnimation@DirectUI@@SG?AVUID@@XZ
  ?RefreshContent@TouchEdit2@DirectUI@@UAEJXZ="C:\Windows\SysWOW64\dui70".?RefreshContent@TouchEdit2@DirectUI@@UAEJXZ
  ?RefreshContent@TouchEditBase@DirectUI@@UAEJXZ="C:\Windows\SysWOW64\dui70".?RefreshContent@TouchEditBase@DirectUI@@UAEJXZ
  ?Register@AccessibleButton@DirectUI@@SGJXZ="C:\Windows\SysWOW64\dui70".?Register@AccessibleButton@DirectUI@@SGJXZ
  ?Register@AnimationStrip@DirectUI@@SGJXZ="C:\Windows\SysWOW64\dui70".?Register@AnimationStrip@DirectUI@@SGJXZ
  ?Register@AutoButton@DirectUI@@SGJXZ="C:\Windows\SysWOW64\dui70".?Register@AutoButton@DirectUI@@SGJXZ
  ?Register@BaseScrollViewer@DirectUI@@SGJXZ="C:\Windows\SysWOW64\dui70".?Register@BaseScrollViewer@DirectUI@@SGJXZ
  ?Register@Bind@DirectUI@@SGJXZ="C:\Windows\SysWOW64\dui70".?Register@Bind@DirectUI@@SGJXZ
  ?Register@Browser@DirectUI@@SGJXZ="C:\Windows\SysWOW64\dui70".?Register@Browser@DirectUI@@SGJXZ
  ?Register@Button@DirectUI@@SGJXZ="C:\Windows\SysWOW64\dui70".?Register@Button@DirectUI@@SGJXZ
  ?Register@CCAVI@DirectUI@@SGJXZ="C:\Windows\SysWOW64\dui70".?Register@CCAVI@DirectUI@@SGJXZ
  ?Register@CCBase@DirectUI@@SGJXZ="C:\Windows\SysWOW64\dui70".?Register@CCBase@DirectUI@@SGJXZ
  ?Register@CCBaseCheckRadioButton@DirectUI@@SGJXZ="C:\Windows\SysWOW64\dui70".?Register@CCBaseCheckRadioButton@DirectUI@@SGJXZ
  ?Register@CCBaseScrollBar@DirectUI@@SGJXZ="C:\Windows\SysWOW64\dui70".?Register@CCBaseScrollBar@DirectUI@@SGJXZ
  ?Register@CCCheckBox@DirectUI@@SGJXZ="C:\Windows\SysWOW64\dui70".?Register@CCCheckBox@DirectUI@@SGJXZ
  ?Register@CCCommandLink@DirectUI@@SGJXZ="C:\Windows\SysWOW64\dui70".?Register@CCCommandLink@DirectUI@@SGJXZ
  ?Register@CCHScrollBar@DirectUI@@SGJXZ="C:\Windows\SysWOW64\dui70".?Register@CCHScrollBar@DirectUI@@SGJXZ
  ?Register@CCListBox@DirectUI@@SGJXZ="C:\Windows\SysWOW64\dui70".?Register@CCListBox@DirectUI@@SGJXZ
  ?Register@CCListView@DirectUI@@SGJXZ="C:\Windows\SysWOW64\dui70".?Register@CCListView@DirectUI@@SGJXZ
  ?Register@CCProgressBar@DirectUI@@SGJXZ="C:\Windows\SysWOW64\dui70".?Register@CCProgressBar@DirectUI@@SGJXZ
  ?Register@CCPushButton@DirectUI@@SGJXZ="C:\Windows\SysWOW64\dui70".?Register@CCPushButton@DirectUI@@SGJXZ
  ?Register@CCRadioButton@DirectUI@@SGJXZ="C:\Windows\SysWOW64\dui70".?Register@CCRadioButton@DirectUI@@SGJXZ
  ?Register@CCSysLink@DirectUI@@SGJXZ="C:\Windows\SysWOW64\dui70".?Register@CCSysLink@DirectUI@@SGJXZ
  ?Register@CCTrackBar@DirectUI@@SGJXZ="C:\Windows\SysWOW64\dui70".?Register@CCTrackBar@DirectUI@@SGJXZ
  ?Register@CCTreeView@DirectUI@@SGJXZ="C:\Windows\SysWOW64\dui70".?Register@CCTreeView@DirectUI@@SGJXZ
  ?Register@CCVScrollBar@DirectUI@@SGJXZ="C:\Windows\SysWOW64\dui70".?Register@CCVScrollBar@DirectUI@@SGJXZ
  ?Register@CheckBoxGlyph@DirectUI@@SGJXZ="C:\Windows\SysWOW64\dui70".?Register@CheckBoxGlyph@DirectUI@@SGJXZ
  ?Register@ClassInfoBase@DirectUI@@QAEJXZ="C:\Windows\SysWOW64\dui70".?Register@ClassInfoBase@DirectUI@@QAEJXZ
  ?Register@Clipper@DirectUI@@SGJXZ="C:\Windows\SysWOW64\dui70".?Register@Clipper@DirectUI@@SGJXZ
  ?Register@Combobox@DirectUI@@SGJXZ="C:\Windows\SysWOW64\dui70".?Register@Combobox@DirectUI@@SGJXZ
  ?Register@DialogElement@DirectUI@@SGJXZ="C:\Windows\SysWOW64\dui70".?Register@DialogElement@DirectUI@@SGJXZ
  ?Register@Edit@DirectUI@@SGJXZ="C:\Windows\SysWOW64\dui70".?Register@Edit@DirectUI@@SGJXZ
  ?Register@Element@DirectUI@@SGJXZ="C:\Windows\SysWOW64\dui70".?Register@Element@DirectUI@@SGJXZ
  ?Register@ElementWithHWND@DirectUI@@SGJXZ="C:\Windows\SysWOW64\dui70".?Register@ElementWithHWND@DirectUI@@SGJXZ
  ?Register@Expandable@DirectUI@@SGJXZ="C:\Windows\SysWOW64\dui70".?Register@Expandable@DirectUI@@SGJXZ
  ?Register@Expando@DirectUI@@SGJXZ="C:\Windows\SysWOW64\dui70".?Register@Expando@DirectUI@@SGJXZ
  ?Register@ExpandoButtonGlyph@DirectUI@@SGJXZ="C:\Windows\SysWOW64\dui70".?Register@ExpandoButtonGlyph@DirectUI@@SGJXZ
  ?Register@HWNDElement@DirectUI@@SGJXZ="C:\Windows\SysWOW64\dui70".?Register@HWNDElement@DirectUI@@SGJXZ
  ?Register@HWNDHost@DirectUI@@SGJXZ="C:\Windows\SysWOW64\dui70".?Register@HWNDHost@DirectUI@@SGJXZ
  ?Register@ItemList@DirectUI@@SGJXZ="C:\Windows\SysWOW64\dui70".?Register@ItemList@DirectUI@@SGJXZ
  ?Register@Macro@DirectUI@@SGJXZ="C:\Windows\SysWOW64\dui70".?Register@Macro@DirectUI@@SGJXZ
  ?Register@ModernProgressBar@DirectUI@@SGJXZ="C:\Windows\SysWOW64\dui70".?Register@ModernProgressBar@DirectUI@@SGJXZ
  ?Register@ModernProgressRing@DirectUI@@SGJXZ="C:\Windows\SysWOW64\dui70".?Register@ModernProgressRing@DirectUI@@SGJXZ
  ?Register@Movie@DirectUI@@SGJXZ="C:\Windows\SysWOW64\dui70".?Register@Movie@DirectUI@@SGJXZ
  ?Register@Navigator@DirectUI@@SGJXZ="C:\Windows\SysWOW64\dui70".?Register@Navigator@DirectUI@@SGJXZ
  ?Register@PText@DirectUI@@SGJXZ="C:\Windows\SysWOW64\dui70".?Register@PText@DirectUI@@SGJXZ
  ?Register@Page@DirectUI@@SGJXZ="C:\Windows\SysWOW64\dui70".?Register@Page@DirectUI@@SGJXZ
  ?Register@Pages@DirectUI@@SGJXZ="C:\Windows\SysWOW64\dui70".?Register@Pages@DirectUI@@SGJXZ
  ?Register@Progress@DirectUI@@SGJXZ="C:\Windows\SysWOW64\dui70".?Register@Progress@DirectUI@@SGJXZ
  ?Register@PushButton@DirectUI@@SGJXZ="C:\Windows\SysWOW64\dui70".?Register@PushButton@DirectUI@@SGJXZ
  ?Register@RadioButtonGlyph@DirectUI@@SGJXZ="C:\Windows\SysWOW64\dui70".?Register@RadioButtonGlyph@DirectUI@@SGJXZ
  ?Register@RefPointElement@DirectUI@@SGJXZ="C:\Windows\SysWOW64\dui70".?Register@RefPointElement@DirectUI@@SGJXZ
  ?Register@RepeatButton@DirectUI@@SGJXZ="C:\Windows\SysWOW64\dui70".?Register@RepeatButton@DirectUI@@SGJXZ
  ?Register@Repeater@DirectUI@@SGJXZ="C:\Windows\SysWOW64\dui70".?Register@Repeater@DirectUI@@SGJXZ
  ?Register@RichText@DirectUI@@SGJXZ="C:\Windows\SysWOW64\dui70".?Register@RichText@DirectUI@@SGJXZ
  ?Register@ScrollBar@DirectUI@@SGJXZ="C:\Windows\SysWOW64\dui70".?Register@ScrollBar@DirectUI@@SGJXZ
  ?Register@ScrollViewer@DirectUI@@SGJXZ="C:\Windows\SysWOW64\dui70".?Register@ScrollViewer@DirectUI@@SGJXZ
  ?Register@Selector@DirectUI@@SGJXZ="C:\Windows\SysWOW64\dui70".?Register@Selector@DirectUI@@SGJXZ
  ?Register@SelectorNoDefault@DirectUI@@SGJXZ="C:\Windows\SysWOW64\dui70".?Register@SelectorNoDefault@DirectUI@@SGJXZ
  ?Register@SemanticZoomToggle@DirectUI@@SGJXZ="C:\Windows\SysWOW64\dui70".?Register@SemanticZoomToggle@DirectUI@@SGJXZ
  ?Register@StyledScrollViewer@DirectUI@@SGJXZ="C:\Windows\SysWOW64\dui70".?Register@StyledScrollViewer@DirectUI@@SGJXZ
  ?Register@TextGraphic@DirectUI@@SGJXZ="C:\Windows\SysWOW64\dui70".?Register@TextGraphic@DirectUI@@SGJXZ
  ?Register@Thumb@DirectUI@@SGJXZ="C:\Windows\SysWOW64\dui70".?Register@Thumb@DirectUI@@SGJXZ
  ?Register@TouchButton@DirectUI@@SGJXZ="C:\Windows\SysWOW64\dui70".?Register@TouchButton@DirectUI@@SGJXZ
  ?Register@TouchCheckBox@DirectUI@@SGJXZ="C:\Windows\SysWOW64\dui70".?Register@TouchCheckBox@DirectUI@@SGJXZ
  ?Register@TouchCheckBoxGlyph@DirectUI@@SGJXZ="C:\Windows\SysWOW64\dui70".?Register@TouchCheckBoxGlyph@DirectUI@@SGJXZ
  ?Register@TouchCommandButton@DirectUI@@SGJXZ="C:\Windows\SysWOW64\dui70".?Register@TouchCommandButton@DirectUI@@SGJXZ
  ?Register@TouchEdit2@DirectUI@@SGJXZ="C:\Windows\SysWOW64\dui70".?Register@TouchEdit2@DirectUI@@SGJXZ
  ?Register@TouchEditBase@DirectUI@@SGJXZ="C:\Windows\SysWOW64\dui70".?Register@TouchEditBase@DirectUI@@SGJXZ
  ?Register@TouchHWNDElement@DirectUI@@SGJXZ="C:\Windows\SysWOW64\dui70".?Register@TouchHWNDElement@DirectUI@@SGJXZ
  ?Register@TouchHyperLink@DirectUI@@SGJXZ="C:\Windows\SysWOW64\dui70".?Register@TouchHyperLink@DirectUI@@SGJXZ
  ?Register@TouchRepeatButton@DirectUI@@SGJXZ="C:\Windows\SysWOW64\dui70".?Register@TouchRepeatButton@DirectUI@@SGJXZ
  ?Register@TouchScrollBar@DirectUI@@SGJXZ="C:\Windows\SysWOW64\dui70".?Register@TouchScrollBar@DirectUI@@SGJXZ
  ?Register@TouchSelect@DirectUI@@SGJXZ="C:\Windows\SysWOW64\dui70".?Register@TouchSelect@DirectUI@@SGJXZ
  ?Register@TouchSelectItem@DirectUI@@SGJXZ="C:\Windows\SysWOW64\dui70".?Register@TouchSelectItem@DirectUI@@SGJXZ
  ?Register@TouchSlider@DirectUI@@SGJXZ="C:\Windows\SysWOW64\dui70".?Register@TouchSlider@DirectUI@@SGJXZ
  ?Register@TouchSwitch@DirectUI@@SGJXZ="C:\Windows\SysWOW64\dui70".?Register@TouchSwitch@DirectUI@@SGJXZ
  ?Register@UnknownElement@DirectUI@@SGJXZ="C:\Windows\SysWOW64\dui70".?Register@UnknownElement@DirectUI@@SGJXZ
  ?Register@Viewer@DirectUI@@SGJXZ="C:\Windows\SysWOW64\dui70".?Register@Viewer@DirectUI@@SGJXZ
  ?Register@XBaby@DirectUI@@SGJXZ="C:\Windows\SysWOW64\dui70".?Register@XBaby@DirectUI@@SGJXZ
  ?Register@XElement@DirectUI@@SGJXZ="C:\Windows\SysWOW64\dui70".?Register@XElement@DirectUI@@SGJXZ
  ?RegisterForAnimationStatusChanges@TouchHWNDElement@DirectUI@@QAEXXZ="C:\Windows\SysWOW64\dui70".?RegisterForAnimationStatusChanges@TouchHWNDElement@DirectUI@@QAEXXZ
  ?RegisterForIHMChanges@TouchHWNDElement@DirectUI@@QAEJXZ="C:\Windows\SysWOW64\dui70".?RegisterForIHMChanges@TouchHWNDElement@DirectUI@@QAEJXZ
  ?RegisterForMonitorPowerChanges@TouchHWNDElement@DirectUI@@QAEJXZ="C:\Windows\SysWOW64\dui70".?RegisterForMonitorPowerChanges@TouchHWNDElement@DirectUI@@QAEJXZ
  ?RegisteredDefaultButtonProp@DialogElement@DirectUI@@SGPBUPropertyInfo@2@XZ="C:\Windows\SysWOW64\dui70".?RegisteredDefaultButtonProp@DialogElement@DirectUI@@SGPBUPropertyInfo@2@XZ
  ?Release@ClassInfoBase@DirectUI@@UAEHXZ="C:\Windows\SysWOW64\dui70".?Release@ClassInfoBase@DirectUI@@UAEHXZ
  ?Release@DuiAccessible@DirectUI@@UAGKXZ="C:\Windows\SysWOW64\dui70".?Release@DuiAccessible@DirectUI@@UAGKXZ
  ?Release@Element@DirectUI@@QAGKXZ="C:\Windows\SysWOW64\dui70".?Release@Element@DirectUI@@QAGKXZ
  ?Release@ElementProvider@DirectUI@@UAGKXZ="C:\Windows\SysWOW64\dui70".?Release@ElementProvider@DirectUI@@UAGKXZ
  ?Release@ExpandCollapseProvider@DirectUI@@UAGKXZ="C:\Windows\SysWOW64\dui70".?Release@ExpandCollapseProvider@DirectUI@@UAGKXZ
  ?Release@GridItemProvider@DirectUI@@UAGKXZ="C:\Windows\SysWOW64\dui70".?Release@GridItemProvider@DirectUI@@UAGKXZ
  ?Release@GridProvider@DirectUI@@UAGKXZ="C:\Windows\SysWOW64\dui70".?Release@GridProvider@DirectUI@@UAGKXZ
  ?Release@HWNDElementProvider@DirectUI@@UAGKXZ="C:\Windows\SysWOW64\dui70".?Release@HWNDElementProvider@DirectUI@@UAGKXZ
  ?Release@InvokeProvider@DirectUI@@UAGKXZ="C:\Windows\SysWOW64\dui70".?Release@InvokeProvider@DirectUI@@UAGKXZ
  ?Release@RangeValueProvider@DirectUI@@UAGKXZ="C:\Windows\SysWOW64\dui70".?Release@RangeValueProvider@DirectUI@@UAGKXZ
  ?Release@RefcountBase@DirectUI@@QAEJXZ="C:\Windows\SysWOW64\dui70".?Release@RefcountBase@DirectUI@@QAEJXZ
  ?Release@ScrollItemProvider@DirectUI@@UAGKXZ="C:\Windows\SysWOW64\dui70".?Release@ScrollItemProvider@DirectUI@@UAGKXZ
  ?Release@ScrollProvider@DirectUI@@UAGKXZ="C:\Windows\SysWOW64\dui70".?Release@ScrollProvider@DirectUI@@UAGKXZ
  ?Release@SelectionItemProvider@DirectUI@@UAGKXZ="C:\Windows\SysWOW64\dui70".?Release@SelectionItemProvider@DirectUI@@UAGKXZ
  ?Release@SelectionProvider@DirectUI@@UAGKXZ="C:\Windows\SysWOW64\dui70".?Release@SelectionProvider@DirectUI@@UAGKXZ
  ?Release@TableItemProvider@DirectUI@@UAGKXZ="C:\Windows\SysWOW64\dui70".?Release@TableItemProvider@DirectUI@@UAGKXZ
  ?Release@TableProvider@DirectUI@@UAGKXZ="C:\Windows\SysWOW64\dui70".?Release@TableProvider@DirectUI@@UAGKXZ
  ?Release@ToggleProvider@DirectUI@@UAGKXZ="C:\Windows\SysWOW64\dui70".?Release@ToggleProvider@DirectUI@@UAGKXZ
  ?Release@Value@DirectUI@@QAEXXZ="C:\Windows\SysWOW64\dui70".?Release@Value@DirectUI@@QAEXXZ
  ?Release@ValueProvider@DirectUI@@UAGKXZ="C:\Windows\SysWOW64\dui70".?Release@ValueProvider@DirectUI@@UAGKXZ
  ?Release@XProvider@DirectUI@@UAGKXZ="C:\Windows\SysWOW64\dui70".?Release@XProvider@DirectUI@@UAGKXZ
  ?ReleaseSnapshot@TouchScrollViewer@DirectUI@@SG?AVUID@@XZ="C:\Windows\SysWOW64\dui70".?ReleaseSnapshot@TouchScrollViewer@DirectUI@@SG?AVUID@@XZ
  ?ReloadIcon@Value@DirectUI@@CGPAUHICON__@@PAUGraphic@2@M@Z="C:\Windows\SysWOW64\dui70".?ReloadIcon@Value@DirectUI@@CGPAUHICON__@@PAUGraphic@2@M@Z
  ?Remove@Element@DirectUI@@QAEJPAV12@@Z="C:\Windows\SysWOW64\dui70".?Remove@Element@DirectUI@@QAEJPAV12@@Z
  ?Remove@Element@DirectUI@@UAEJPAPAV12@I@Z="C:\Windows\SysWOW64\dui70".?Remove@Element@DirectUI@@UAEJPAPAV12@I@Z
  ?Remove@ElementProviderManager@DirectUI@@SGXPAVElementProvider@2@@Z="C:\Windows\SysWOW64\dui70".?Remove@ElementProviderManager@DirectUI@@SGXPAVElementProvider@2@@Z
  ?Remove@LinkedList@DirectUI@@QAEXPAVLinkedListNode@2@@Z="C:\Windows\SysWOW64\dui70".?Remove@LinkedList@DirectUI@@QAEXPAVLinkedListNode@2@@Z
  ?RemoveAll@Element@DirectUI@@QAEJXZ="C:\Windows\SysWOW64\dui70".?RemoveAll@Element@DirectUI@@QAEJXZ
  ?RemoveAll@TouchSelect@DirectUI@@QAEXXZ="C:\Windows\SysWOW64\dui70".?RemoveAll@TouchSelect@DirectUI@@QAEXXZ
  ?RemoveBehavior@Element@DirectUI@@UAEJPAUIDuiBehavior@@@Z="C:\Windows\SysWOW64\dui70".?RemoveBehavior@Element@DirectUI@@UAEJPAUIDuiBehavior@@@Z
  ?RemoveChild@ClassInfoBase@DirectUI@@UAEXXZ="C:\Windows\SysWOW64\dui70".?RemoveChild@ClassInfoBase@DirectUI@@UAEXXZ
  ?RemoveFromSelection@SelectionItemProvider@DirectUI@@UAGJXZ="C:\Windows\SysWOW64\dui70".?RemoveFromSelection@SelectionItemProvider@DirectUI@@UAGJXZ
  ?RemoveItem@TouchSelect@DirectUI@@QAEJH@Z="C:\Windows\SysWOW64\dui70".?RemoveItem@TouchSelect@DirectUI@@QAEJH@Z
  ?RemoveListener@Element@DirectUI@@QAEXPAUIElementListener@2@@Z="C:\Windows\SysWOW64\dui70".?RemoveListener@Element@DirectUI@@QAEXPAUIElementListener@2@@Z
  ?RemoveLocalValue@Element@DirectUI@@QAEJP6GPBUPropertyInfo@2@XZ@Z="C:\Windows\SysWOW64\dui70".?RemoveLocalValue@Element@DirectUI@@QAEJP6GPBUPropertyInfo@2@XZ@Z
  ?RemoveLocalValue@Element@DirectUI@@QAEJPBUPropertyInfo@2@@Z="C:\Windows\SysWOW64\dui70".?RemoveLocalValue@Element@DirectUI@@QAEJPBUPropertyInfo@2@@Z
  ?RemoveRichDuiTooltip@TouchSlider@DirectUI@@QAEXXZ="C:\Windows\SysWOW64\dui70".?RemoveRichDuiTooltip@TouchSlider@DirectUI@@QAEXXZ
  ?RemoveShortcutFromName@Element@DirectUI@@AAEPAGPBG@Z="C:\Windows\SysWOW64\dui70".?RemoveShortcutFromName@Element@DirectUI@@AAEPAGPBG@Z
  ?RemoveTail@LinkedList@DirectUI@@QAEPAVLinkedListNode@2@XZ="C:\Windows\SysWOW64\dui70".?RemoveTail@LinkedList@DirectUI@@QAEPAVLinkedListNode@2@XZ
  ?RemoveTooltip@Element@DirectUI@@MAEXPAV12@@Z="C:\Windows\SysWOW64\dui70".?RemoveTooltip@Element@DirectUI@@MAEXPAV12@@Z
  ?RemoveTooltip@HWNDElement@DirectUI@@UAEXPAVElement@2@@Z="C:\Windows\SysWOW64\dui70".?RemoveTooltip@HWNDElement@DirectUI@@UAEXPAVElement@2@@Z
  ?RemoveTooltip@TouchHWNDElement@DirectUI@@UAEXPAVElement@2@@Z="C:\Windows\SysWOW64\dui70".?RemoveTooltip@TouchHWNDElement@DirectUI@@UAEXPAVElement@2@@Z
  ?RepeatClick@TouchRepeatButton@DirectUI@@SG?AVUID@@XZ="C:\Windows\SysWOW64\dui70".?RepeatClick@TouchRepeatButton@DirectUI@@SG?AVUID@@XZ
  ?RepeatProp@Movie@DirectUI@@SGPBUPropertyInfo@2@XZ="C:\Windows\SysWOW64\dui70".?RepeatProp@Movie@DirectUI@@SGPBUPropertyInfo@2@XZ
  ?Reset@DuiAccessible@DirectUI@@UAGJXZ="C:\Windows\SysWOW64\dui70".?Reset@DuiAccessible@DirectUI@@UAGJXZ
  ?Reset@HWNDHostAccessible@DirectUI@@UAGJXZ="C:\Windows\SysWOW64\dui70".?Reset@HWNDHostAccessible@DirectUI@@UAGJXZ
  ?ResetInputState@TouchScrollViewer@DirectUI@@QAEJXZ="C:\Windows\SysWOW64\dui70".?ResetInputState@TouchScrollViewer@DirectUI@@QAEJXZ
  ?ResetManipulations@TouchScrollViewer@DirectUI@@QAEJXZ="C:\Windows\SysWOW64\dui70".?ResetManipulations@TouchScrollViewer@DirectUI@@QAEJXZ
  ?ResolveBindings@Macro@DirectUI@@IAEXXZ="C:\Windows\SysWOW64\dui70".?ResolveBindings@Macro@DirectUI@@IAEXXZ
  ?RestoreFocus@NativeHWNDHost@DirectUI@@QAEHXZ="C:\Windows\SysWOW64\dui70".?RestoreFocus@NativeHWNDHost@DirectUI@@QAEHXZ
  ?Resume@Movie@DirectUI@@QAEXXZ="C:\Windows\SysWOW64\dui70".?Resume@Movie@DirectUI@@QAEXXZ
  ?ReturnValueParser@DUIXmlParser@DirectUI@@IAEXPAVValueParser@ParserTools@2@@Z="C:\Windows\SysWOW64\dui70".?ReturnValueParser@DUIXmlParser@DirectUI@@IAEXPAVValueParser@ParserTools@2@@Z
  ?Rewind@Movie@DirectUI@@QAEXXZ="C:\Windows\SysWOW64\dui70".?Rewind@Movie@DirectUI@@QAEXXZ
  ?RichTooltipShowing@TouchHWNDElement@DirectUI@@SG?AVUID@@XZ="C:\Windows\SysWOW64\dui70".?RichTooltipShowing@TouchHWNDElement@DirectUI@@SG?AVUID@@XZ
  ?RightClick@TouchButton@DirectUI@@SG?AVUID@@XZ="C:\Windows\SysWOW64\dui70".?RightClick@TouchButton@DirectUI@@SG?AVUID@@XZ
  ?RuntimeIdProperty@Schema@DirectUI@@2HA="C:\Windows\SysWOW64\dui70".?RuntimeIdProperty@Schema@DirectUI@@2HA
  ?STACKDEPTH@CallstackTracker@DirectUI@@0HB="C:\Windows\SysWOW64\dui70".?STACKDEPTH@CallstackTracker@DirectUI@@0HB
  ?SaveFocus@NativeHWNDHost@DirectUI@@QAEXXZ="C:\Windows\SysWOW64\dui70".?SaveFocus@NativeHWNDHost@DirectUI@@QAEXXZ
  ?ScaleChanged@TouchHWNDElement@DirectUI@@SG?AVUID@@XZ="C:\Windows\SysWOW64\dui70".?ScaleChanged@TouchHWNDElement@DirectUI@@SG?AVUID@@XZ
  ?ScaleFactorProp@Element@DirectUI@@SGPBUPropertyInfo@2@XZ="C:\Windows\SysWOW64\dui70".?ScaleFactorProp@Element@DirectUI@@SGPBUPropertyInfo@2@XZ
  ?Scroll@BaseScrollBar@DirectUI@@SG?AVUID@@XZ="C:\Windows\SysWOW64\dui70".?Scroll@BaseScrollBar@DirectUI@@SG?AVUID@@XZ
  ?Scroll@ScrollProvider@DirectUI@@UAGJW4ScrollAmount@@0@Z="C:\Windows\SysWOW64\dui70".?Scroll@ScrollProvider@DirectUI@@UAGJW4ScrollAmount@@0@Z
  ?Scroll@ScrollProxy@DirectUI@@AAEJW4ScrollAmount@@0@Z="C:\Windows\SysWOW64\dui70".?Scroll@ScrollProxy@DirectUI@@AAEJW4ScrollAmount@@0@Z
  ?ScrollBarControlType@Schema@DirectUI@@2HA="C:\Windows\SysWOW64\dui70".?ScrollBarControlType@Schema@DirectUI@@2HA
  ?ScrollIntoView@ScrollItemProvider@DirectUI@@UAGJXZ="C:\Windows\SysWOW64\dui70".?ScrollIntoView@ScrollItemProvider@DirectUI@@UAGJXZ
  ?ScrollItemPattern@Schema@DirectUI@@2HA="C:\Windows\SysWOW64\dui70".?ScrollItemPattern@Schema@DirectUI@@2HA
  ?ScrollLine@ScrollProxy@DirectUI@@AAEJ_N0@Z="C:\Windows\SysWOW64\dui70".?ScrollLine@ScrollProxy@DirectUI@@AAEJ_N0@Z
  ?ScrollPaddingProp@TouchScrollViewer@DirectUI@@SGPBUPropertyInfo@2@XZ="C:\Windows\SysWOW64\dui70".?ScrollPaddingProp@TouchScrollViewer@DirectUI@@SGPBUPropertyInfo@2@XZ
  ?ScrollPage@ScrollProxy@DirectUI@@AAEJ_N0@Z="C:\Windows\SysWOW64\dui70".?ScrollPage@ScrollProxy@DirectUI@@AAEJ_N0@Z
  ?ScrollPattern@Schema@DirectUI@@2HA="C:\Windows\SysWOW64\dui70".?ScrollPattern@Schema@DirectUI@@2HA
  ?ScrollToHorizontalPosition@ScrollProxy@DirectUI@@AAEJH_N@Z="C:\Windows\SysWOW64\dui70".?ScrollToHorizontalPosition@ScrollProxy@DirectUI@@AAEJH_N@Z
  ?ScrollToVerticalPosition@ScrollProxy@DirectUI@@AAEJH_N@Z="C:\Windows\SysWOW64\dui70".?ScrollToVerticalPosition@ScrollProxy@DirectUI@@AAEJH_N@Z
  ?Scroll_HorizontalScrollPercent_Property@Schema@DirectUI@@2HA="C:\Windows\SysWOW64\dui70".?Scroll_HorizontalScrollPercent_Property@Schema@DirectUI@@2HA
  ?Scroll_HorizontalViewSize_Property@Schema@DirectUI@@2HA="C:\Windows\SysWOW64\dui70".?Scroll_HorizontalViewSize_Property@Schema@DirectUI@@2HA
  ?Scroll_HorizontallyScrollable_Property@Schema@DirectUI@@2HA="C:\Windows\SysWOW64\dui70".?Scroll_HorizontallyScrollable_Property@Schema@DirectUI@@2HA
  ?Scroll_VerticalScrollPercent_Property@Schema@DirectUI@@2HA="C:\Windows\SysWOW64\dui70".?Scroll_VerticalScrollPercent_Property@Schema@DirectUI@@2HA
  ?Scroll_VerticalViewSize_Property@Schema@DirectUI@@2HA="C:\Windows\SysWOW64\dui70".?Scroll_VerticalViewSize_Property@Schema@DirectUI@@2HA
  ?Scroll_VerticallyScrollable_Property@Schema@DirectUI@@2HA="C:\Windows\SysWOW64\dui70".?Scroll_VerticallyScrollable_Property@Schema@DirectUI@@2HA
  ?Select@SelectionItemProvider@DirectUI@@UAGJXZ="C:\Windows\SysWOW64\dui70".?Select@SelectionItemProvider@DirectUI@@UAGJXZ
  ?Select@SelectorSelectionItemProxy@DirectUI@@AAEJXZ="C:\Windows\SysWOW64\dui70".?Select@SelectorSelectionItemProxy@DirectUI@@AAEJXZ
  ?SelectAll@TouchEdit2@DirectUI@@QAEJXZ="C:\Windows\SysWOW64\dui70".?SelectAll@TouchEdit2@DirectUI@@QAEJXZ
  ?SelectNone@TouchEdit2@DirectUI@@QAEJXZ="C:\Windows\SysWOW64\dui70".?SelectNone@TouchEdit2@DirectUI@@QAEJXZ
  ?SelectedProp@Element@DirectUI@@SGPBUPropertyInfo@2@XZ="C:\Windows\SysWOW64\dui70".?SelectedProp@Element@DirectUI@@SGPBUPropertyInfo@2@XZ
  ?SelectionBackgroundColorProp@TouchEditBase@DirectUI@@SGPBUPropertyInfo@2@XZ="C:\Windows\SysWOW64\dui70".?SelectionBackgroundColorProp@TouchEditBase@DirectUI@@SGPBUPropertyInfo@2@XZ
  ?SelectionChange@Combobox@DirectUI@@SG?AVUID@@XZ="C:\Windows\SysWOW64\dui70".?SelectionChange@Combobox@DirectUI@@SG?AVUID@@XZ
  ?SelectionChange@Selector@DirectUI@@SG?AVUID@@XZ="C:\Windows\SysWOW64\dui70".?SelectionChange@Selector@DirectUI@@SG?AVUID@@XZ
  ?SelectionChange@TouchSelect@DirectUI@@SG?AVUID@@XZ="C:\Windows\SysWOW64\dui70".?SelectionChange@TouchSelect@DirectUI@@SG?AVUID@@XZ
  ?SelectionForegroundColorProp@TouchEditBase@DirectUI@@SGPBUPropertyInfo@2@XZ="C:\Windows\SysWOW64\dui70".?SelectionForegroundColorProp@TouchEditBase@DirectUI@@SGPBUPropertyInfo@2@XZ
  ?SelectionInvalidatedEvent@Schema@DirectUI@@2HA="C:\Windows\SysWOW64\dui70".?SelectionInvalidatedEvent@Schema@DirectUI@@2HA
  ?SelectionItemElementAddedToSelectionEvent@Schema@DirectUI@@2HA="C:\Windows\SysWOW64\dui70".?SelectionItemElementAddedToSelectionEvent@Schema@DirectUI@@2HA
  ?SelectionItemElementRemovedFromSelectionEvent@Schema@DirectUI@@2HA="C:\Windows\SysWOW64\dui70".?SelectionItemElementRemovedFromSelectionEvent@Schema@DirectUI@@2HA
  ?SelectionItemElementSelectedEvent@Schema@DirectUI@@2HA="C:\Windows\SysWOW64\dui70".?SelectionItemElementSelectedEvent@Schema@DirectUI@@2HA
  ?SelectionItemPattern@Schema@DirectUI@@2HA="C:\Windows\SysWOW64\dui70".?SelectionItemPattern@Schema@DirectUI@@2HA
  ?SelectionItem_IsSelected_Property@Schema@DirectUI@@2HA="C:\Windows\SysWOW64\dui70".?SelectionItem_IsSelected_Property@Schema@DirectUI@@2HA
  ?SelectionItem_SelectionContainer_Property@Schema@DirectUI@@2HA="C:\Windows\SysWOW64\dui70".?SelectionItem_SelectionContainer_Property@Schema@DirectUI@@2HA
  ?SelectionPattern@Schema@DirectUI@@2HA="C:\Windows\SysWOW64\dui70".?SelectionPattern@Schema@DirectUI@@2HA
  ?SelectionProp@Combobox@DirectUI@@SGPBUPropertyInfo@2@XZ="C:\Windows\SysWOW64\dui70".?SelectionProp@Combobox@DirectUI@@SGPBUPropertyInfo@2@XZ
  ?SelectionProp@Selector@DirectUI@@SGPBUPropertyInfo@2@XZ="C:\Windows\SysWOW64\dui70".?SelectionProp@Selector@DirectUI@@SGPBUPropertyInfo@2@XZ
  ?SelectionProp@TouchSelect@DirectUI@@SGPBUPropertyInfo@2@XZ="C:\Windows\SysWOW64\dui70".?SelectionProp@TouchSelect@DirectUI@@SGPBUPropertyInfo@2@XZ
  ?Selection_CanSelectMultiple_Property@Schema@DirectUI@@2HA="C:\Windows\SysWOW64\dui70".?Selection_CanSelectMultiple_Property@Schema@DirectUI@@2HA
  ?Selection_IsSelectionRequired_Property@Schema@DirectUI@@2HA="C:\Windows\SysWOW64\dui70".?Selection_IsSelectionRequired_Property@Schema@DirectUI@@2HA
  ?Selection_Selection_Property@Schema@DirectUI@@2HA="C:\Windows\SysWOW64\dui70".?Selection_Selection_Property@Schema@DirectUI@@2HA
  ?SemanticChange@TouchScrollViewer@DirectUI@@SG?AVUID@@XZ="C:\Windows\SysWOW64\dui70".?SemanticChange@TouchScrollViewer@DirectUI@@SG?AVUID@@XZ
  ?SemanticZoomControlType@Schema@DirectUI@@2HA="C:\Windows\SysWOW64\dui70".?SemanticZoomControlType@Schema@DirectUI@@2HA
  ?SendParseError@DUIXmlParser@DirectUI@@IAEXPBG0HHJ@Z="C:\Windows\SysWOW64\dui70".?SendParseError@DUIXmlParser@DirectUI@@IAEXPBG0HHJ@Z
  ?SendParseError@DUIXmlParser@DirectUI@@IAEXPBG0PAUIXmlReader@@J@Z="C:\Windows\SysWOW64\dui70".?SendParseError@DUIXmlParser@DirectUI@@IAEXPBG0PAUIXmlReader@@J@Z
  ?SeparatorControlType@Schema@DirectUI@@2HA="C:\Windows\SysWOW64\dui70".?SeparatorControlType@Schema@DirectUI@@2HA
  ?SetAbsorbsShortcut@Element@DirectUI@@QAEJ_N@Z="C:\Windows\SysWOW64\dui70".?SetAbsorbsShortcut@Element@DirectUI@@QAEJ_N@Z
  ?SetAccDefAction@Element@DirectUI@@QAEJPBG@Z="C:\Windows\SysWOW64\dui70".?SetAccDefAction@Element@DirectUI@@QAEJPBG@Z
  ?SetAccDesc@Element@DirectUI@@QAEJPBG@Z="C:\Windows\SysWOW64\dui70".?SetAccDesc@Element@DirectUI@@QAEJPBG@Z
  ?SetAccHelp@Element@DirectUI@@QAEJPBG@Z="C:\Windows\SysWOW64\dui70".?SetAccHelp@Element@DirectUI@@QAEJPBG@Z
  ?SetAccItemStatus@Element@DirectUI@@QAEJPBG@Z="C:\Windows\SysWOW64\dui70".?SetAccItemStatus@Element@DirectUI@@QAEJPBG@Z
  ?SetAccItemType@Element@DirectUI@@QAEJPBG@Z="C:\Windows\SysWOW64\dui70".?SetAccItemType@Element@DirectUI@@QAEJPBG@Z
  ?SetAccName@Element@DirectUI@@QAEJPBG@Z="C:\Windows\SysWOW64\dui70".?SetAccName@Element@DirectUI@@QAEJPBG@Z
  ?SetAccRole@Element@DirectUI@@QAEJH@Z="C:\Windows\SysWOW64\dui70".?SetAccRole@Element@DirectUI@@QAEJH@Z
  ?SetAccState@Element@DirectUI@@QAEJH@Z="C:\Windows\SysWOW64\dui70".?SetAccState@Element@DirectUI@@QAEJH@Z
  ?SetAccValue@Element@DirectUI@@QAEJPBG@Z="C:\Windows\SysWOW64\dui70".?SetAccValue@Element@DirectUI@@QAEJPBG@Z
  ?SetAccessible@Element@DirectUI@@QAEJ_N@Z="C:\Windows\SysWOW64\dui70".?SetAccessible@Element@DirectUI@@QAEJ_N@Z
  ?SetActive@Element@DirectUI@@QAEJH@Z="C:\Windows\SysWOW64\dui70".?SetActive@Element@DirectUI@@QAEJH@Z
  ?SetActiveState@TouchScrollBar@DirectUI@@QAEXW4ActiveState@2@_N@Z="C:\Windows\SysWOW64\dui70".?SetActiveState@TouchScrollBar@DirectUI@@QAEXW4ActiveState@2@_N@Z
  ?SetActivityOccuring@ModernProgressBar@DirectUI@@QAEJ_N@Z="C:\Windows\SysWOW64\dui70".?SetActivityOccuring@ModernProgressBar@DirectUI@@QAEJ_N@Z
  ?SetActivityOccuring@ModernProgressRing@DirectUI@@QAEJ_N@Z="C:\Windows\SysWOW64\dui70".?SetActivityOccuring@ModernProgressRing@DirectUI@@QAEJ_N@Z
  ?SetAddLayeredRef@ModernProgressBar@DirectUI@@QAEJ_N@Z="C:\Windows\SysWOW64\dui70".?SetAddLayeredRef@ModernProgressBar@DirectUI@@QAEJ_N@Z
  ?SetAddLayeredRef@ModernProgressRing@DirectUI@@QAEJ_N@Z="C:\Windows\SysWOW64\dui70".?SetAddLayeredRef@ModernProgressRing@DirectUI@@QAEJ_N@Z
  ?SetAliasedRendering@RichText@DirectUI@@QAEJ_N@Z="C:\Windows\SysWOW64\dui70".?SetAliasedRendering@RichText@DirectUI@@QAEJ_N@Z
  ?SetAllowArrowOut@TouchScrollViewer@DirectUI@@QAEJ_N@Z="C:\Windows\SysWOW64\dui70".?SetAllowArrowOut@TouchScrollViewer@DirectUI@@QAEJ_N@Z
  ?SetAlpha@Element@DirectUI@@QAEJH@Z="C:\Windows\SysWOW64\dui70".?SetAlpha@Element@DirectUI@@QAEJH@Z
  ?SetAnimatePopupOnDismiss@TouchSelect@DirectUI@@QAEJ_N@Z="C:\Windows\SysWOW64\dui70".?SetAnimatePopupOnDismiss@TouchSelect@DirectUI@@QAEJ_N@Z
  ?SetAnimation@Element@DirectUI@@QAEJH@Z="C:\Windows\SysWOW64\dui70".?SetAnimation@Element@DirectUI@@QAEJH@Z
  ?SetAutoGrouping@CCRadioButton@DirectUI@@QAEJ_N@Z="C:\Windows\SysWOW64\dui70".?SetAutoGrouping@CCRadioButton@DirectUI@@QAEJ_N@Z
  ?SetAutoHeight@ModernProgressBar@DirectUI@@QAEJ_N@Z="C:\Windows\SysWOW64\dui70".?SetAutoHeight@ModernProgressBar@DirectUI@@QAEJ_N@Z
  ?SetAutoStart@Movie@DirectUI@@QAEJ_N@Z="C:\Windows\SysWOW64\dui70".?SetAutoStart@Movie@DirectUI@@QAEJ_N@Z
  ?SetAutoStop@Movie@DirectUI@@QAEJ_N@Z="C:\Windows\SysWOW64\dui70".?SetAutoStop@Movie@DirectUI@@QAEJ_N@Z
  ?SetBackgroundColor@Element@DirectUI@@QAEJABUFill@2@@Z="C:\Windows\SysWOW64\dui70".?SetBackgroundColor@Element@DirectUI@@QAEJABUFill@2@@Z
  ?SetBackgroundColor@Element@DirectUI@@QAEJK@Z="C:\Windows\SysWOW64\dui70".?SetBackgroundColor@Element@DirectUI@@QAEJK@Z
  ?SetBackgroundColor@Element@DirectUI@@QAEJKKE@Z="C:\Windows\SysWOW64\dui70".?SetBackgroundColor@Element@DirectUI@@QAEJKKE@Z
  ?SetBackgroundColor@Element@DirectUI@@QAEJKKKE@Z="C:\Windows\SysWOW64\dui70".?SetBackgroundColor@Element@DirectUI@@QAEJKKKE@Z
  ?SetBackgroundColor@Element@DirectUI@@QAEJPBGHH@Z="C:\Windows\SysWOW64\dui70".?SetBackgroundColor@Element@DirectUI@@QAEJPBGHH@Z
  ?SetBackgroundOwnerID@HWNDHost@DirectUI@@QAEJPBG@Z="C:\Windows\SysWOW64\dui70".?SetBackgroundOwnerID@HWNDHost@DirectUI@@QAEJPBG@Z
  ?SetBackgroundStdColor@Element@DirectUI@@QAEJH@Z="C:\Windows\SysWOW64\dui70".?SetBackgroundStdColor@Element@DirectUI@@QAEJH@Z
  ?SetBaseline@RichText@DirectUI@@QAEJH@Z="C:\Windows\SysWOW64\dui70".?SetBaseline@RichText@DirectUI@@QAEJH@Z
  ?SetBorderColor@Element@DirectUI@@QAEJK@Z="C:\Windows\SysWOW64\dui70".?SetBorderColor@Element@DirectUI@@QAEJK@Z
  ?SetBorderGradientColor@Element@DirectUI@@QAEJKKE@Z="C:\Windows\SysWOW64\dui70".?SetBorderGradientColor@Element@DirectUI@@QAEJKKE@Z
  ?SetBorderStdColor@Element@DirectUI@@QAEJH@Z="C:\Windows\SysWOW64\dui70".?SetBorderStdColor@Element@DirectUI@@QAEJH@Z
  ?SetBorderStyle@Element@DirectUI@@QAEJH@Z="C:\Windows\SysWOW64\dui70".?SetBorderStyle@Element@DirectUI@@QAEJH@Z
  ?SetBorderThickness@Element@DirectUI@@QAEJHHHH@Z="C:\Windows\SysWOW64\dui70".?SetBorderThickness@Element@DirectUI@@QAEJHHHH@Z
  ?SetBuffering@TouchSlider@DirectUI@@QAEJH@Z="C:\Windows\SysWOW64\dui70".?SetBuffering@TouchSlider@DirectUI@@QAEJH@Z
  ?SetButtonClassAcceptsEnterKey@DialogElement@DirectUI@@QAEJ_N@Z="C:\Windows\SysWOW64\dui70".?SetButtonClassAcceptsEnterKey@DialogElement@DirectUI@@QAEJ_N@Z
  ?SetButtonClassAcceptsEnterKey@XBaby@DirectUI@@UAEJ_N@Z="C:\Windows\SysWOW64\dui70".?SetButtonClassAcceptsEnterKey@XBaby@DirectUI@@UAEJ_N@Z
  ?SetButtonClassAcceptsEnterKey@XProvider@DirectUI@@UAGJ_N@Z="C:\Windows\SysWOW64\dui70".?SetButtonClassAcceptsEnterKey@XProvider@DirectUI@@UAGJ_N@Z
  ?SetCache@RichText@DirectUI@@QAEXKPAUIDUIRichTextCache@@@Z="C:\Windows\SysWOW64\dui70".?SetCache@RichText@DirectUI@@QAEXKPAUIDUIRichTextCache@@@Z
  ?SetCacheDirty@Layout@DirectUI@@IAEXXZ="C:\Windows\SysWOW64\dui70".?SetCacheDirty@Layout@DirectUI@@IAEXXZ
  ?SetCaptured@Button@DirectUI@@QAEJ_N@Z="C:\Windows\SysWOW64\dui70".?SetCaptured@Button@DirectUI@@QAEJ_N@Z
  ?SetCaptured@TouchButton@DirectUI@@QAEJ_N@Z="C:\Windows\SysWOW64\dui70".?SetCaptured@TouchButton@DirectUI@@QAEJ_N@Z
  ?SetCaretPosition@TouchEdit2@DirectUI@@QAEJJ@Z="C:\Windows\SysWOW64\dui70".?SetCaretPosition@TouchEdit2@DirectUI@@QAEJJ@Z
  ?SetCheckedState@TouchCheckBox@DirectUI@@QAEJW4CheckedStateFlags@2@@Z="C:\Windows\SysWOW64\dui70".?SetCheckedState@TouchCheckBox@DirectUI@@QAEJW4CheckedStateFlags@2@@Z
  ?SetClass@Element@DirectUI@@QAEJPBG@Z="C:\Windows\SysWOW64\dui70".?SetClass@Element@DirectUI@@QAEJPBG@Z
  ?SetClassInfoPtr@AccessibleButton@DirectUI@@SGXPAUIClassInfo@2@@Z="C:\Windows\SysWOW64\dui70".?SetClassInfoPtr@AccessibleButton@DirectUI@@SGXPAUIClassInfo@2@@Z
  ?SetClassInfoPtr@AnimationStrip@DirectUI@@SGXPAUIClassInfo@2@@Z="C:\Windows\SysWOW64\dui70".?SetClassInfoPtr@AnimationStrip@DirectUI@@SGXPAUIClassInfo@2@@Z
  ?SetClassInfoPtr@AutoButton@DirectUI@@SGXPAUIClassInfo@2@@Z="C:\Windows\SysWOW64\dui70".?SetClassInfoPtr@AutoButton@DirectUI@@SGXPAUIClassInfo@2@@Z
  ?SetClassInfoPtr@BaseScrollViewer@DirectUI@@SGXPAUIClassInfo@2@@Z="C:\Windows\SysWOW64\dui70".?SetClassInfoPtr@BaseScrollViewer@DirectUI@@SGXPAUIClassInfo@2@@Z
  ?SetClassInfoPtr@Bind@DirectUI@@SGXPAUIClassInfo@2@@Z="C:\Windows\SysWOW64\dui70".?SetClassInfoPtr@Bind@DirectUI@@SGXPAUIClassInfo@2@@Z
  ?SetClassInfoPtr@Browser@DirectUI@@SGXPAUIClassInfo@2@@Z="C:\Windows\SysWOW64\dui70".?SetClassInfoPtr@Browser@DirectUI@@SGXPAUIClassInfo@2@@Z
  ?SetClassInfoPtr@Button@DirectUI@@SGXPAUIClassInfo@2@@Z="C:\Windows\SysWOW64\dui70".?SetClassInfoPtr@Button@DirectUI@@SGXPAUIClassInfo@2@@Z
  ?SetClassInfoPtr@CCAVI@DirectUI@@SGXPAUIClassInfo@2@@Z="C:\Windows\SysWOW64\dui70".?SetClassInfoPtr@CCAVI@DirectUI@@SGXPAUIClassInfo@2@@Z
  ?SetClassInfoPtr@CCBase@DirectUI@@SGXPAUIClassInfo@2@@Z="C:\Windows\SysWOW64\dui70".?SetClassInfoPtr@CCBase@DirectUI@@SGXPAUIClassInfo@2@@Z
  ?SetClassInfoPtr@CCBaseCheckRadioButton@DirectUI@@SGXPAUIClassInfo@2@@Z="C:\Windows\SysWOW64\dui70".?SetClassInfoPtr@CCBaseCheckRadioButton@DirectUI@@SGXPAUIClassInfo@2@@Z
  ?SetClassInfoPtr@CCBaseScrollBar@DirectUI@@SGXPAUIClassInfo@2@@Z="C:\Windows\SysWOW64\dui70".?SetClassInfoPtr@CCBaseScrollBar@DirectUI@@SGXPAUIClassInfo@2@@Z
  ?SetClassInfoPtr@CCCheckBox@DirectUI@@SGXPAUIClassInfo@2@@Z="C:\Windows\SysWOW64\dui70".?SetClassInfoPtr@CCCheckBox@DirectUI@@SGXPAUIClassInfo@2@@Z
  ?SetClassInfoPtr@CCCommandLink@DirectUI@@SGXPAUIClassInfo@2@@Z="C:\Windows\SysWOW64\dui70".?SetClassInfoPtr@CCCommandLink@DirectUI@@SGXPAUIClassInfo@2@@Z
  ?SetClassInfoPtr@CCHScrollBar@DirectUI@@SGXPAUIClassInfo@2@@Z="C:\Windows\SysWOW64\dui70".?SetClassInfoPtr@CCHScrollBar@DirectUI@@SGXPAUIClassInfo@2@@Z
  ?SetClassInfoPtr@CCListBox@DirectUI@@SGXPAUIClassInfo@2@@Z="C:\Windows\SysWOW64\dui70".?SetClassInfoPtr@CCListBox@DirectUI@@SGXPAUIClassInfo@2@@Z
  ?SetClassInfoPtr@CCListView@DirectUI@@SGXPAUIClassInfo@2@@Z="C:\Windows\SysWOW64\dui70".?SetClassInfoPtr@CCListView@DirectUI@@SGXPAUIClassInfo@2@@Z
  ?SetClassInfoPtr@CCProgressBar@DirectUI@@SGXPAUIClassInfo@2@@Z="C:\Windows\SysWOW64\dui70".?SetClassInfoPtr@CCProgressBar@DirectUI@@SGXPAUIClassInfo@2@@Z
  ?SetClassInfoPtr@CCPushButton@DirectUI@@SGXPAUIClassInfo@2@@Z="C:\Windows\SysWOW64\dui70".?SetClassInfoPtr@CCPushButton@DirectUI@@SGXPAUIClassInfo@2@@Z
  ?SetClassInfoPtr@CCRadioButton@DirectUI@@SGXPAUIClassInfo@2@@Z="C:\Windows\SysWOW64\dui70".?SetClassInfoPtr@CCRadioButton@DirectUI@@SGXPAUIClassInfo@2@@Z
  ?SetClassInfoPtr@CCSysLink@DirectUI@@SGXPAUIClassInfo@2@@Z="C:\Windows\SysWOW64\dui70".?SetClassInfoPtr@CCSysLink@DirectUI@@SGXPAUIClassInfo@2@@Z
  ?SetClassInfoPtr@CCTrackBar@DirectUI@@SGXPAUIClassInfo@2@@Z="C:\Windows\SysWOW64\dui70".?SetClassInfoPtr@CCTrackBar@DirectUI@@SGXPAUIClassInfo@2@@Z
  ?SetClassInfoPtr@CCTreeView@DirectUI@@SGXPAUIClassInfo@2@@Z="C:\Windows\SysWOW64\dui70".?SetClassInfoPtr@CCTreeView@DirectUI@@SGXPAUIClassInfo@2@@Z
  ?SetClassInfoPtr@CCVScrollBar@DirectUI@@SGXPAUIClassInfo@2@@Z="C:\Windows\SysWOW64\dui70".?SetClassInfoPtr@CCVScrollBar@DirectUI@@SGXPAUIClassInfo@2@@Z
  ?SetClassInfoPtr@CheckBoxGlyph@DirectUI@@SGXPAUIClassInfo@2@@Z="C:\Windows\SysWOW64\dui70".?SetClassInfoPtr@CheckBoxGlyph@DirectUI@@SGXPAUIClassInfo@2@@Z
  ?SetClassInfoPtr@Clipper@DirectUI@@SGXPAUIClassInfo@2@@Z="C:\Windows\SysWOW64\dui70".?SetClassInfoPtr@Clipper@DirectUI@@SGXPAUIClassInfo@2@@Z
  ?SetClassInfoPtr@Combobox@DirectUI@@SGXPAUIClassInfo@2@@Z="C:\Windows\SysWOW64\dui70".?SetClassInfoPtr@Combobox@DirectUI@@SGXPAUIClassInfo@2@@Z
  ?SetClassInfoPtr@DialogElement@DirectUI@@SGXPAUIClassInfo@2@@Z="C:\Windows\SysWOW64\dui70".?SetClassInfoPtr@DialogElement@DirectUI@@SGXPAUIClassInfo@2@@Z
  ?SetClassInfoPtr@Edit@DirectUI@@SGXPAUIClassInfo@2@@Z="C:\Windows\SysWOW64\dui70".?SetClassInfoPtr@Edit@DirectUI@@SGXPAUIClassInfo@2@@Z
  ?SetClassInfoPtr@Element@DirectUI@@SGXPAUIClassInfo@2@@Z="C:\Windows\SysWOW64\dui70".?SetClassInfoPtr@Element@DirectUI@@SGXPAUIClassInfo@2@@Z
  ?SetClassInfoPtr@ElementWithHWND@DirectUI@@SGXPAUIClassInfo@2@@Z="C:\Windows\SysWOW64\dui70".?SetClassInfoPtr@ElementWithHWND@DirectUI@@SGXPAUIClassInfo@2@@Z
  ?SetClassInfoPtr@Expandable@DirectUI@@SGXPAUIClassInfo@2@@Z="C:\Windows\SysWOW64\dui70".?SetClassInfoPtr@Expandable@DirectUI@@SGXPAUIClassInfo@2@@Z
  ?SetClassInfoPtr@Expando@DirectUI@@SGXPAUIClassInfo@2@@Z="C:\Windows\SysWOW64\dui70".?SetClassInfoPtr@Expando@DirectUI@@SGXPAUIClassInfo@2@@Z
  ?SetClassInfoPtr@ExpandoButtonGlyph@DirectUI@@SGXPAUIClassInfo@2@@Z="C:\Windows\SysWOW64\dui70".?SetClassInfoPtr@ExpandoButtonGlyph@DirectUI@@SGXPAUIClassInfo@2@@Z
  ?SetClassInfoPtr@HWNDElement@DirectUI@@SGXPAUIClassInfo@2@@Z="C:\Windows\SysWOW64\dui70".?SetClassInfoPtr@HWNDElement@DirectUI@@SGXPAUIClassInfo@2@@Z
  ?SetClassInfoPtr@HWNDHost@DirectUI@@SGXPAUIClassInfo@2@@Z="C:\Windows\SysWOW64\dui70".?SetClassInfoPtr@HWNDHost@DirectUI@@SGXPAUIClassInfo@2@@Z
  ?SetClassInfoPtr@Macro@DirectUI@@SGXPAUIClassInfo@2@@Z="C:\Windows\SysWOW64\dui70".?SetClassInfoPtr@Macro@DirectUI@@SGXPAUIClassInfo@2@@Z
  ?SetClassInfoPtr@Movie@DirectUI@@SGXPAUIClassInfo@2@@Z="C:\Windows\SysWOW64\dui70".?SetClassInfoPtr@Movie@DirectUI@@SGXPAUIClassInfo@2@@Z
  ?SetClassInfoPtr@Navigator@DirectUI@@SGXPAUIClassInfo@2@@Z="C:\Windows\SysWOW64\dui70".?SetClassInfoPtr@Navigator@DirectUI@@SGXPAUIClassInfo@2@@Z
  ?SetClassInfoPtr@PText@DirectUI@@SGXPAUIClassInfo@2@@Z="C:\Windows\SysWOW64\dui70".?SetClassInfoPtr@PText@DirectUI@@SGXPAUIClassInfo@2@@Z
  ?SetClassInfoPtr@Page@DirectUI@@SGXPAUIClassInfo@2@@Z="C:\Windows\SysWOW64\dui70".?SetClassInfoPtr@Page@DirectUI@@SGXPAUIClassInfo@2@@Z
  ?SetClassInfoPtr@Pages@DirectUI@@SGXPAUIClassInfo@2@@Z="C:\Windows\SysWOW64\dui70".?SetClassInfoPtr@Pages@DirectUI@@SGXPAUIClassInfo@2@@Z
  ?SetClassInfoPtr@Progress@DirectUI@@SGXPAUIClassInfo@2@@Z="C:\Windows\SysWOW64\dui70".?SetClassInfoPtr@Progress@DirectUI@@SGXPAUIClassInfo@2@@Z
  ?SetClassInfoPtr@PushButton@DirectUI@@SGXPAUIClassInfo@2@@Z="C:\Windows\SysWOW64\dui70".?SetClassInfoPtr@PushButton@DirectUI@@SGXPAUIClassInfo@2@@Z
  ?SetClassInfoPtr@RadioButtonGlyph@DirectUI@@SGXPAUIClassInfo@2@@Z="C:\Windows\SysWOW64\dui70".?SetClassInfoPtr@RadioButtonGlyph@DirectUI@@SGXPAUIClassInfo@2@@Z
  ?SetClassInfoPtr@RefPointElement@DirectUI@@SGXPAUIClassInfo@2@@Z="C:\Windows\SysWOW64\dui70".?SetClassInfoPtr@RefPointElement@DirectUI@@SGXPAUIClassInfo@2@@Z
  ?SetClassInfoPtr@RepeatButton@DirectUI@@SGXPAUIClassInfo@2@@Z="C:\Windows\SysWOW64\dui70".?SetClassInfoPtr@RepeatButton@DirectUI@@SGXPAUIClassInfo@2@@Z
  ?SetClassInfoPtr@Repeater@DirectUI@@SGXPAUIClassInfo@2@@Z="C:\Windows\SysWOW64\dui70".?SetClassInfoPtr@Repeater@DirectUI@@SGXPAUIClassInfo@2@@Z
  ?SetClassInfoPtr@ScrollBar@DirectUI@@SGXPAUIClassInfo@2@@Z="C:\Windows\SysWOW64\dui70".?SetClassInfoPtr@ScrollBar@DirectUI@@SGXPAUIClassInfo@2@@Z
  ?SetClassInfoPtr@ScrollViewer@DirectUI@@SGXPAUIClassInfo@2@@Z="C:\Windows\SysWOW64\dui70".?SetClassInfoPtr@ScrollViewer@DirectUI@@SGXPAUIClassInfo@2@@Z
  ?SetClassInfoPtr@Selector@DirectUI@@SGXPAUIClassInfo@2@@Z="C:\Windows\SysWOW64\dui70".?SetClassInfoPtr@Selector@DirectUI@@SGXPAUIClassInfo@2@@Z
  ?SetClassInfoPtr@SelectorNoDefault@DirectUI@@SGXPAUIClassInfo@2@@Z="C:\Windows\SysWOW64\dui70".?SetClassInfoPtr@SelectorNoDefault@DirectUI@@SGXPAUIClassInfo@2@@Z
  ?SetClassInfoPtr@StyledScrollViewer@DirectUI@@SGXPAUIClassInfo@2@@Z="C:\Windows\SysWOW64\dui70".?SetClassInfoPtr@StyledScrollViewer@DirectUI@@SGXPAUIClassInfo@2@@Z
  ?SetClassInfoPtr@TextGraphic@DirectUI@@SGXPAUIClassInfo@2@@Z="C:\Windows\SysWOW64\dui70".?SetClassInfoPtr@TextGraphic@DirectUI@@SGXPAUIClassInfo@2@@Z
  ?SetClassInfoPtr@Thumb@DirectUI@@SGXPAUIClassInfo@2@@Z="C:\Windows\SysWOW64\dui70".?SetClassInfoPtr@Thumb@DirectUI@@SGXPAUIClassInfo@2@@Z
  ?SetClassInfoPtr@UnknownElement@DirectUI@@SGXPAUIClassInfo@2@@Z="C:\Windows\SysWOW64\dui70".?SetClassInfoPtr@UnknownElement@DirectUI@@SGXPAUIClassInfo@2@@Z
  ?SetClassInfoPtr@Viewer@DirectUI@@SGXPAUIClassInfo@2@@Z="C:\Windows\SysWOW64\dui70".?SetClassInfoPtr@Viewer@DirectUI@@SGXPAUIClassInfo@2@@Z
  ?SetClassInfoPtr@XBaby@DirectUI@@SGXPAUIClassInfo@2@@Z="C:\Windows\SysWOW64\dui70".?SetClassInfoPtr@XBaby@DirectUI@@SGXPAUIClassInfo@2@@Z
  ?SetClassInfoPtr@XElement@DirectUI@@SGXPAUIClassInfo@2@@Z="C:\Windows\SysWOW64\dui70".?SetClassInfoPtr@XElement@DirectUI@@SGXPAUIClassInfo@2@@Z
  ?SetClient@BorderLayout@DirectUI@@AAEXPAVElement@2@@Z="C:\Windows\SysWOW64\dui70".?SetClient@BorderLayout@DirectUI@@AAEXPAVElement@2@@Z
  ?SetColorFontPaletteIndex@RichText@DirectUI@@QAEJH@Z="C:\Windows\SysWOW64\dui70".?SetColorFontPaletteIndex@RichText@DirectUI@@QAEJH@Z
  ?SetCompositedText@Element@DirectUI@@QAEJ_N@Z="C:\Windows\SysWOW64\dui70".?SetCompositedText@Element@DirectUI@@QAEJ_N@Z
  ?SetCompositingQuality@Movie@DirectUI@@QAEJH@Z="C:\Windows\SysWOW64\dui70".?SetCompositingQuality@Movie@DirectUI@@QAEJH@Z
  ?SetConnect@Bind@DirectUI@@QAEJPBG@Z="C:\Windows\SysWOW64\dui70".?SetConnect@Bind@DirectUI@@QAEJPBG@Z
  ?SetConstrainLayout@RichText@DirectUI@@QAEJH@Z="C:\Windows\SysWOW64\dui70".?SetConstrainLayout@RichText@DirectUI@@QAEJH@Z
  ?SetContact@TouchScrollViewer@DirectUI@@QAEJI_N@Z="C:\Windows\SysWOW64\dui70".?SetContact@TouchScrollViewer@DirectUI@@QAEJI_N@Z
  ?SetContactNeeded@TouchScrollViewer@DirectUI@@SG?AVUID@@XZ="C:\Windows\SysWOW64\dui70".?SetContactNeeded@TouchScrollViewer@DirectUI@@SG?AVUID@@XZ
  ?SetContactNotify@TouchScrollViewer@DirectUI@@SG?AVUID@@XZ="C:\Windows\SysWOW64\dui70".?SetContactNotify@TouchScrollViewer@DirectUI@@SG?AVUID@@XZ
  ?SetContentAlign@Element@DirectUI@@QAEJH@Z="C:\Windows\SysWOW64\dui70".?SetContentAlign@Element@DirectUI@@QAEJH@Z
  ?SetContentGraphic@Element@DirectUI@@QAEJPBGEI@Z="C:\Windows\SysWOW64\dui70".?SetContentGraphic@Element@DirectUI@@QAEJPBGEI@Z
  ?SetContentGraphic@Element@DirectUI@@QAEJPBGGG@Z="C:\Windows\SysWOW64\dui70".?SetContentGraphic@Element@DirectUI@@QAEJPBGGG@Z
  ?SetContentString@Element@DirectUI@@QAEJPBG@Z="C:\Windows\SysWOW64\dui70".?SetContentString@Element@DirectUI@@QAEJPBG@Z
  ?SetCursor@Element@DirectUI@@QAEJPBG@Z="C:\Windows\SysWOW64\dui70".?SetCursor@Element@DirectUI@@QAEJPBG@Z
  ?SetCursorHandle@Element@DirectUI@@QAEJPAUHICON__@@@Z="C:\Windows\SysWOW64\dui70".?SetCursorHandle@Element@DirectUI@@QAEJPAUHICON__@@@Z
  ?SetDWriteFontCollection@RichText@DirectUI@@QAEXPAUIDWriteFontCollection@@@Z="C:\Windows\SysWOW64\dui70".?SetDWriteFontCollection@RichText@DirectUI@@QAEXPAUIDWriteFontCollection@@@Z
  ?SetDWriteTextLayout@RichText@DirectUI@@QAEXPAUIDWriteTextLayout@@@Z="C:\Windows\SysWOW64\dui70".?SetDWriteTextLayout@RichText@DirectUI@@QAEXPAUIDWriteTextLayout@@@Z
  ?SetDataEngine@Repeater@DirectUI@@QAEXPAUIDataEngine@2@@Z="C:\Windows\SysWOW64\dui70".?SetDataEngine@Repeater@DirectUI@@QAEXPAUIDataEngine@2@@Z
  ?SetDataEntry@Macro@DirectUI@@QAEXPAUIDataEntry@2@PAVElement@2@@Z="C:\Windows\SysWOW64\dui70".?SetDataEntry@Macro@DirectUI@@QAEXPAUIDataEntry@2@PAVElement@2@@Z
  ?SetDataEntry@PText@DirectUI@@QAEXPAUIDataEntry@2@@Z="C:\Windows\SysWOW64\dui70".?SetDataEntry@PText@DirectUI@@QAEXPAUIDataEntry@2@@Z
  ?SetDefaultButtonTracking@DialogElement@DirectUI@@UAEJ_N@Z="C:\Windows\SysWOW64\dui70".?SetDefaultButtonTracking@DialogElement@DirectUI@@UAEJ_N@Z
  ?SetDefaultButtonTracking@XBaby@DirectUI@@UAEJ_N@Z="C:\Windows\SysWOW64\dui70".?SetDefaultButtonTracking@XBaby@DirectUI@@UAEJ_N@Z
  ?SetDefaultButtonTracking@XProvider@DirectUI@@UAGJ_N@Z="C:\Windows\SysWOW64\dui70".?SetDefaultButtonTracking@XProvider@DirectUI@@UAGJ_N@Z
  ?SetDefaultFocusID@NativeHWNDHost@DirectUI@@QAEXPBG@Z="C:\Windows\SysWOW64\dui70".?SetDefaultFocusID@NativeHWNDHost@DirectUI@@QAEXPBG@Z
  ?SetDefaultGraphicType@Macro@DirectUI@@QAEXE_N@Z="C:\Windows\SysWOW64\dui70".?SetDefaultGraphicType@Macro@DirectUI@@QAEXE_N@Z
  ?SetDefaultHInstance@DUIXmlParser@DirectUI@@QAEXPAUHINSTANCE__@@@Z="C:\Windows\SysWOW64\dui70".?SetDefaultHInstance@DUIXmlParser@DirectUI@@QAEXPAUHINSTANCE__@@@Z
  ?SetDefaultState@CCPushButton@DirectUI@@IAEXKK@Z="C:\Windows\SysWOW64\dui70".?SetDefaultState@CCPushButton@DirectUI@@IAEXKK@Z
  ?SetDelegateEventHandler@TouchScrollViewer@DirectUI@@QAEJPAUIUnknown@@@Z="C:\Windows\SysWOW64\dui70".?SetDelegateEventHandler@TouchScrollViewer@DirectUI@@QAEJPAUIUnknown@@@Z
  ?SetDeterminate@ModernProgressBar@DirectUI@@QAEJ_N@Z="C:\Windows\SysWOW64\dui70".?SetDeterminate@ModernProgressBar@DirectUI@@QAEJ_N@Z
  ?SetDirection@Element@DirectUI@@QAEJH@Z="C:\Windows\SysWOW64\dui70".?SetDirection@Element@DirectUI@@QAEJH@Z
  ?SetDirty@Edit@DirectUI@@QAEJ_N@Z="C:\Windows\SysWOW64\dui70".?SetDirty@Edit@DirectUI@@QAEJ_N@Z
  ?SetDisableAccTextExtend@RichText@DirectUI@@QAEJ_N@Z="C:\Windows\SysWOW64\dui70".?SetDisableAccTextExtend@RichText@DirectUI@@QAEJ_N@Z
  ?SetDisableMouseInRectCheck@TouchRepeatButton@DirectUI@@QAEJ_N@Z="C:\Windows\SysWOW64\dui70".?SetDisableMouseInRectCheck@TouchRepeatButton@DirectUI@@QAEJ_N@Z
  ?SetDisableOffscreenCaching@TouchScrollViewer@DirectUI@@QAEX_N@Z="C:\Windows\SysWOW64\dui70".?SetDisableOffscreenCaching@TouchScrollViewer@DirectUI@@QAEX_N@Z
  ?SetDrawOutlines@Movie@DirectUI@@QAEJ_N@Z="C:\Windows\SysWOW64\dui70".?SetDrawOutlines@Movie@DirectUI@@QAEJ_N@Z
  ?SetDynamicScaling@DUIXmlParser@DirectUI@@QAEXW4DynamicScaleParsing@2@@Z="C:\Windows\SysWOW64\dui70".?SetDynamicScaling@DUIXmlParser@DirectUI@@QAEXW4DynamicScaleParsing@2@@Z
  ?SetEdgeHighlightColor@Element@DirectUI@@QAEJK@Z="C:\Windows\SysWOW64\dui70".?SetEdgeHighlightColor@Element@DirectUI@@QAEJK@Z
  ?SetEdgeHighlightThickness@Element@DirectUI@@QAEJHHHH@Z="C:\Windows\SysWOW64\dui70".?SetEdgeHighlightThickness@Element@DirectUI@@QAEJHHHH@Z
  ?SetElementMovesOnIHMNotify@TouchEditBase@DirectUI@@QAEJ_N@Z="C:\Windows\SysWOW64\dui70".?SetElementMovesOnIHMNotify@TouchEditBase@DirectUI@@QAEJ_N@Z
  ?SetEnabled@Element@DirectUI@@QAEJ_N@Z="C:\Windows\SysWOW64\dui70".?SetEnabled@Element@DirectUI@@QAEJ_N@Z
  ?SetEncodedContentString@Element@DirectUI@@QAEJPBG@Z="C:\Windows\SysWOW64\dui70".?SetEncodedContentString@Element@DirectUI@@QAEJPBG@Z
  ?SetEnforceSize@PushButton@DirectUI@@QAEJ_N@Z="C:\Windows\SysWOW64\dui70".?SetEnforceSize@PushButton@DirectUI@@QAEJ_N@Z
  ?SetEnsureVisibleUseLayoutCoordinates@Viewer@DirectUI@@QAEX_N@Z="C:\Windows\SysWOW64\dui70".?SetEnsureVisibleUseLayoutCoordinates@Viewer@DirectUI@@QAEX_N@Z
  ?SetError@DUIFactory@DirectUI@@QAAXPBGZZ="C:\Windows\SysWOW64\dui70".?SetError@DUIFactory@DirectUI@@QAAXPBGZZ
  ?SetExpand@Macro@DirectUI@@QAEJPBG@Z="C:\Windows\SysWOW64\dui70".?SetExpand@Macro@DirectUI@@QAEJPBG@Z
  ?SetExpanded@Expandable@DirectUI@@QAEJ_N@Z="C:\Windows\SysWOW64\dui70".?SetExpanded@Expandable@DirectUI@@QAEJ_N@Z
  ?SetFilterOnPaste@TouchEditBase@DirectUI@@QAEJ_N@Z="C:\Windows\SysWOW64\dui70".?SetFilterOnPaste@TouchEditBase@DirectUI@@QAEJ_N@Z
  ?SetFireContinuousSliderEvent@TouchSlider@DirectUI@@QAEX_N@Z="C:\Windows\SysWOW64\dui70".?SetFireContinuousSliderEvent@TouchSlider@DirectUI@@QAEX_N@Z
  ?SetFlags@TouchHWNDElement@DirectUI@@QAEJW4TouchHWNDElementFlags@2@0@Z="C:\Windows\SysWOW64\dui70".?SetFlags@TouchHWNDElement@DirectUI@@QAEJW4TouchHWNDElementFlags@2@0@Z
  ?SetFocus@ElementProvider@DirectUI@@UAGJXZ="C:\Windows\SysWOW64\dui70".?SetFocus@ElementProvider@DirectUI@@UAGJXZ
  ?SetFocus@HWNDElement@DirectUI@@QAEX_N@Z="C:\Windows\SysWOW64\dui70".?SetFocus@HWNDElement@DirectUI@@QAEX_N@Z
  ?SetFocus@XProvider@DirectUI@@UAGJPAVElement@2@@Z="C:\Windows\SysWOW64\dui70".?SetFocus@XProvider@DirectUI@@UAGJPAVElement@2@@Z
  ?SetFont@Element@DirectUI@@QAEJPBG@Z="C:\Windows\SysWOW64\dui70".?SetFont@Element@DirectUI@@QAEJPBG@Z
  ?SetFontColorRuns@RichText@DirectUI@@QAEJPBG@Z="C:\Windows\SysWOW64\dui70".?SetFontColorRuns@RichText@DirectUI@@QAEJPBG@Z
  ?SetFontFace@Element@DirectUI@@QAEJPBG@Z="C:\Windows\SysWOW64\dui70".?SetFontFace@Element@DirectUI@@QAEJPBG@Z
  ?SetFontQuality@Element@DirectUI@@QAEJH@Z="C:\Windows\SysWOW64\dui70".?SetFontQuality@Element@DirectUI@@QAEJH@Z
  ?SetFontSize@Element@DirectUI@@QAEJH@Z="C:\Windows\SysWOW64\dui70".?SetFontSize@Element@DirectUI@@QAEJH@Z
  ?SetFontSizeRuns@RichText@DirectUI@@QAEJPBG@Z="C:\Windows\SysWOW64\dui70".?SetFontSizeRuns@RichText@DirectUI@@QAEJPBG@Z
  ?SetFontStyle@Element@DirectUI@@QAEJH@Z="C:\Windows\SysWOW64\dui70".?SetFontStyle@Element@DirectUI@@QAEJH@Z
  ?SetFontWeight@Element@DirectUI@@QAEJH@Z="C:\Windows\SysWOW64\dui70".?SetFontWeight@Element@DirectUI@@QAEJH@Z
  ?SetFontWeightRuns@RichText@DirectUI@@QAEJPBG@Z="C:\Windows\SysWOW64\dui70".?SetFontWeightRuns@RichText@DirectUI@@QAEJPBG@Z
  ?SetForceEditTextToLTR@TouchEditBase@DirectUI@@QAEJ_N@Z="C:\Windows\SysWOW64\dui70".?SetForceEditTextToLTR@TouchEditBase@DirectUI@@QAEJ_N@Z
  ?SetForegroundColor@Element@DirectUI@@QAEJK@Z="C:\Windows\SysWOW64\dui70".?SetForegroundColor@Element@DirectUI@@QAEJK@Z
  ?SetForegroundColor@Element@DirectUI@@QAEJKKE@Z="C:\Windows\SysWOW64\dui70".?SetForegroundColor@Element@DirectUI@@QAEJKKE@Z
  ?SetForegroundColor@Element@DirectUI@@QAEJKKKE@Z="C:\Windows\SysWOW64\dui70".?SetForegroundColor@Element@DirectUI@@QAEJKKKE@Z
  ?SetForegroundStdColor@Element@DirectUI@@QAEJH@Z="C:\Windows\SysWOW64\dui70".?SetForegroundStdColor@Element@DirectUI@@QAEJH@Z
  ?SetFrameDuration@AnimationStrip@DirectUI@@QAEJH@Z="C:\Windows\SysWOW64\dui70".?SetFrameDuration@AnimationStrip@DirectUI@@QAEJH@Z
  ?SetFrameIndex@AnimationStrip@DirectUI@@QAEJH@Z="C:\Windows\SysWOW64\dui70".?SetFrameIndex@AnimationStrip@DirectUI@@QAEJH@Z
  ?SetFrameWidth@AnimationStrip@DirectUI@@QAEJH@Z="C:\Windows\SysWOW64\dui70".?SetFrameWidth@AnimationStrip@DirectUI@@QAEJH@Z
  ?SetGetSheetCallback@DUIXmlParser@DirectUI@@QAEXP6GPAVValue@2@PBGPAX@Z1@Z="C:\Windows\SysWOW64\dui70".?SetGetSheetCallback@DUIXmlParser@DirectUI@@QAEXP6GPAVValue@2@PBGPAX@Z1@Z
  ?SetGraphicType@Repeater@DirectUI@@QAEXE@Z="C:\Windows\SysWOW64\dui70".?SetGraphicType@Repeater@DirectUI@@QAEXE@Z
  ?SetHandleEnter@TouchButton@DirectUI@@QAEJ_N@Z="C:\Windows\SysWOW64\dui70".?SetHandleEnter@TouchButton@DirectUI@@QAEJ_N@Z
  ?SetHandleEnterKey@DialogElement@DirectUI@@QAEJ_N@Z="C:\Windows\SysWOW64\dui70".?SetHandleEnterKey@DialogElement@DirectUI@@QAEJ_N@Z
  ?SetHandleEnterKey@XBaby@DirectUI@@UAEJ_N@Z="C:\Windows\SysWOW64\dui70".?SetHandleEnterKey@XBaby@DirectUI@@UAEJ_N@Z
  ?SetHandleEnterKey@XProvider@DirectUI@@IAEX_N@Z="C:\Windows\SysWOW64\dui70".?SetHandleEnterKey@XProvider@DirectUI@@IAEX_N@Z
  ?SetHandleGlobalEnter@TouchButton@DirectUI@@QAEJ_N@Z="C:\Windows\SysWOW64\dui70".?SetHandleGlobalEnter@TouchButton@DirectUI@@QAEJ_N@Z
  ?SetHeight@Element@DirectUI@@QAEJH@Z="C:\Windows\SysWOW64\dui70".?SetHeight@Element@DirectUI@@QAEJH@Z
  ?SetID@Element@DirectUI@@QAEJPBG@Z="C:\Windows\SysWOW64\dui70".?SetID@Element@DirectUI@@QAEJPBG@Z
  ?SetIMEComposing@TouchEditBase@DirectUI@@QAEJ_N@Z="C:\Windows\SysWOW64\dui70".?SetIMEComposing@TouchEditBase@DirectUI@@QAEJ_N@Z
  ?SetIgnoredKeyCombos@TouchEditBase@DirectUI@@QAEJW4TouchEditFilteredKeyComboFlags@2@0@Z="C:\Windows\SysWOW64\dui70".?SetIgnoredKeyCombos@TouchEditBase@DirectUI@@QAEJW4TouchEditFilteredKeyComboFlags@2@0@Z
  ?SetIndependentAnimations@ModernProgressBar@DirectUI@@QAEJ_N@Z="C:\Windows\SysWOW64\dui70".?SetIndependentAnimations@ModernProgressBar@DirectUI@@QAEJ_N@Z
  ?SetInnerBorderThickness@TouchEdit2@DirectUI@@QAEJHHHH@Z="C:\Windows\SysWOW64\dui70".?SetInnerBorderThickness@TouchEdit2@DirectUI@@QAEJHHHH@Z
  ?SetInputScope@TouchEdit2@DirectUI@@QAEJW4__MIDL___MIDL_itf_inputscope_0000_0000_0001@@@Z="C:\Windows\SysWOW64\dui70".?SetInputScope@TouchEdit2@DirectUI@@QAEJW4__MIDL___MIDL_itf_inputscope_0000_0000_0001@@@Z
  ?SetIntegrateIMECandidateList@TouchEditBase@DirectUI@@QAEJ_N@Z="C:\Windows\SysWOW64\dui70".?SetIntegrateIMECandidateList@TouchEditBase@DirectUI@@QAEJ_N@Z
  ?SetInteractionMode@TouchScrollViewer@DirectUI@@QAEJH@Z="C:\Windows\SysWOW64\dui70".?SetInteractionMode@TouchScrollViewer@DirectUI@@QAEJH@Z
  ?SetInterpolationMode@Movie@DirectUI@@QAEJH@Z="C:\Windows\SysWOW64\dui70".?SetInterpolationMode@Movie@DirectUI@@QAEJH@Z
  ?SetIsContinuous@TouchSlider@DirectUI@@QAEJ_N@Z="C:\Windows\SysWOW64\dui70".?SetIsContinuous@TouchSlider@DirectUI@@QAEJ_N@Z
  ?SetIsPressed@TouchSlider@DirectUI@@QAEJ_N@Z="C:\Windows\SysWOW64\dui70".?SetIsPressed@TouchSlider@DirectUI@@QAEJ_N@Z
  ?SetIsShowOnOffFeedback@TouchSlider@DirectUI@@QAEJ_N@Z="C:\Windows\SysWOW64\dui70".?SetIsShowOnOffFeedback@TouchSlider@DirectUI@@QAEJ_N@Z
  ?SetIsVertical@TouchSlider@DirectUI@@QAEJ_N@Z="C:\Windows\SysWOW64\dui70".?SetIsVertical@TouchSlider@DirectUI@@QAEJ_N@Z
  ?SetItemData@TouchSelect@DirectUI@@QAEJHPAUIUnknown@@@Z="C:\Windows\SysWOW64\dui70".?SetItemData@TouchSelect@DirectUI@@QAEJHPAUIUnknown@@@Z
  ?SetItemData@TouchSelectItem@DirectUI@@QAEJPAUIUnknown@@@Z="C:\Windows\SysWOW64\dui70".?SetItemData@TouchSelectItem@DirectUI@@QAEJPAUIUnknown@@@Z
  ?SetItemHeightInPopup@TouchSelect@DirectUI@@QAEJH@Z="C:\Windows\SysWOW64\dui70".?SetItemHeightInPopup@TouchSelect@DirectUI@@QAEJH@Z
  ?SetItemState@CCTreeView@DirectUI@@QAEXPAU_TREEITEM@@I@Z="C:\Windows\SysWOW64\dui70".?SetItemState@CCTreeView@DirectUI@@QAEXPAU_TREEITEM@@I@Z
  ?SetKeyFocus@Element@DirectUI@@UAEXXZ="C:\Windows\SysWOW64\dui70".?SetKeyFocus@Element@DirectUI@@UAEXXZ
  ?SetKeyFocus@HWNDHost@DirectUI@@UAEXXZ="C:\Windows\SysWOW64\dui70".?SetKeyFocus@HWNDHost@DirectUI@@UAEXXZ
  ?SetKeyFocus@TouchEditBase@DirectUI@@UAEXXZ="C:\Windows\SysWOW64\dui70".?SetKeyFocus@TouchEditBase@DirectUI@@UAEXXZ
  ?SetKeyFocus@XBaby@DirectUI@@UAEXXZ="C:\Windows\SysWOW64\dui70".?SetKeyFocus@XBaby@DirectUI@@UAEXXZ
  ?SetKeyFocus@XElement@DirectUI@@UAEXXZ="C:\Windows\SysWOW64\dui70".?SetKeyFocus@XElement@DirectUI@@UAEXXZ
  ?SetKeyboardNavigationCapture@TouchEditBase@DirectUI@@QAEJW4TouchEditKeyboardNavigationCapture@2@@Z="C:\Windows\SysWOW64\dui70".?SetKeyboardNavigationCapture@TouchEditBase@DirectUI@@QAEJW4TouchEditKeyboardNavigationCapture@2@@Z
  ?SetLayout@Element@DirectUI@@QAEJPAVLayout@2@@Z="C:\Windows\SysWOW64\dui70".?SetLayout@Element@DirectUI@@QAEJPAVLayout@2@@Z
  ?SetLayoutCompletionNotify@Element@DirectUI@@QAEX_N@Z="C:\Windows\SysWOW64\dui70".?SetLayoutCompletionNotify@Element@DirectUI@@QAEX_N@Z
  ?SetLayoutPointerToNull@Value@DirectUI@@QAEXXZ="C:\Windows\SysWOW64\dui70".?SetLayoutPointerToNull@Value@DirectUI@@QAEXXZ
  ?SetLayoutPos@Element@DirectUI@@QAEJH@Z="C:\Windows\SysWOW64\dui70".?SetLayoutPos@Element@DirectUI@@QAEJH@Z
  ?SetLightDismissIHM@TouchHWNDElement@DirectUI@@QAEJ_N@Z="C:\Windows\SysWOW64\dui70".?SetLightDismissIHM@TouchHWNDElement@DirectUI@@QAEJ_N@Z
  ?SetLine@CCBaseScrollBar@DirectUI@@UAEJH@Z="C:\Windows\SysWOW64\dui70".?SetLine@CCBaseScrollBar@DirectUI@@UAEJH@Z
  ?SetLine@ScrollBar@DirectUI@@UAEJH@Z="C:\Windows\SysWOW64\dui70".?SetLine@ScrollBar@DirectUI@@UAEJH@Z
  ?SetLineSize@CCTrackBar@DirectUI@@QAEJH@Z="C:\Windows\SysWOW64\dui70".?SetLineSize@CCTrackBar@DirectUI@@QAEJH@Z
  ?SetLineSpacing@RichText@DirectUI@@QAEJH@Z="C:\Windows\SysWOW64\dui70".?SetLineSpacing@RichText@DirectUI@@QAEJH@Z
  ?SetLinkIndicatorsToContent@TouchScrollViewer@DirectUI@@QAEJ_N@Z="C:\Windows\SysWOW64\dui70".?SetLinkIndicatorsToContent@TouchScrollViewer@DirectUI@@QAEJ_N@Z
  ?SetLocale@RichText@DirectUI@@QAEJPBG@Z="C:\Windows\SysWOW64\dui70".?SetLocale@RichText@DirectUI@@QAEJPBG@Z
  ?SetManipulationHorizontalAlignment@TouchScrollViewer@DirectUI@@QAEJH@Z="C:\Windows\SysWOW64\dui70".?SetManipulationHorizontalAlignment@TouchScrollViewer@DirectUI@@QAEJH@Z
  ?SetManipulationVerticalAlignment@TouchScrollViewer@DirectUI@@QAEJH@Z="C:\Windows\SysWOW64\dui70".?SetManipulationVerticalAlignment@TouchScrollViewer@DirectUI@@QAEJH@Z
  ?SetMapRunsToClusters@RichText@DirectUI@@QAEJ_N@Z="C:\Windows\SysWOW64\dui70".?SetMapRunsToClusters@RichText@DirectUI@@QAEJ_N@Z
  ?SetMargin@Element@DirectUI@@QAEJHHHH@Z="C:\Windows\SysWOW64\dui70".?SetMargin@Element@DirectUI@@QAEJHHHH@Z
  ?SetMaxLength@Edit@DirectUI@@QAEJH@Z="C:\Windows\SysWOW64\dui70".?SetMaxLength@Edit@DirectUI@@QAEJH@Z
  ?SetMaxLength@TouchEditBase@DirectUI@@QAEJH@Z="C:\Windows\SysWOW64\dui70".?SetMaxLength@TouchEditBase@DirectUI@@QAEJH@Z
  ?SetMaxLineCount@RichText@DirectUI@@QAEXI@Z="C:\Windows\SysWOW64\dui70".?SetMaxLineCount@RichText@DirectUI@@QAEXI@Z
  ?SetMaximum@CCBaseScrollBar@DirectUI@@UAEJH@Z="C:\Windows\SysWOW64\dui70".?SetMaximum@CCBaseScrollBar@DirectUI@@UAEJH@Z
  ?SetMaximum@ModernProgressBar@DirectUI@@QAEJH@Z="C:\Windows\SysWOW64\dui70".?SetMaximum@ModernProgressBar@DirectUI@@QAEJH@Z
  ?SetMaximum@Progress@DirectUI@@QAEJH@Z="C:\Windows\SysWOW64\dui70".?SetMaximum@Progress@DirectUI@@QAEJH@Z
  ?SetMaximum@ScrollBar@DirectUI@@UAEJH@Z="C:\Windows\SysWOW64\dui70".?SetMaximum@ScrollBar@DirectUI@@UAEJH@Z
  ?SetMetering@TouchSlider@DirectUI@@QAEJH@Z="C:\Windows\SysWOW64\dui70".?SetMetering@TouchSlider@DirectUI@@QAEJH@Z
  ?SetMinSize@Element@DirectUI@@QAEJHH@Z="C:\Windows\SysWOW64\dui70".?SetMinSize@Element@DirectUI@@QAEJHH@Z
  ?SetMinimum@CCBaseScrollBar@DirectUI@@UAEJH@Z="C:\Windows\SysWOW64\dui70".?SetMinimum@CCBaseScrollBar@DirectUI@@UAEJH@Z
  ?SetMinimum@ModernProgressBar@DirectUI@@QAEJH@Z="C:\Windows\SysWOW64\dui70".?SetMinimum@ModernProgressBar@DirectUI@@QAEJH@Z
  ?SetMinimum@Progress@DirectUI@@QAEJH@Z="C:\Windows\SysWOW64\dui70".?SetMinimum@Progress@DirectUI@@QAEJH@Z
  ?SetMinimum@ScrollBar@DirectUI@@UAEJH@Z="C:\Windows\SysWOW64\dui70".?SetMinimum@ScrollBar@DirectUI@@UAEJH@Z
  ?SetMoveCaretToEndOnSyncContent@TouchEditBase@DirectUI@@QAEJ_N@Z="C:\Windows\SysWOW64\dui70".?SetMoveCaretToEndOnSyncContent@TouchEditBase@DirectUI@@QAEJ_N@Z
  ?SetMultiline@Edit@DirectUI@@QAEJ_N@Z="C:\Windows\SysWOW64\dui70".?SetMultiline@Edit@DirectUI@@QAEJ_N@Z
  ?SetMultiline@TouchEditBase@DirectUI@@QAEJ_N@Z="C:\Windows\SysWOW64\dui70".?SetMultiline@TouchEditBase@DirectUI@@QAEJ_N@Z
  ?SetNoBrowseOnFirstAdd@Pages@DirectUI@@QAEXXZ="C:\Windows\SysWOW64\dui70".?SetNoBrowseOnFirstAdd@Pages@DirectUI@@QAEXXZ
  ?SetNote@CCCommandLink@DirectUI@@QAEJPBG@Z="C:\Windows\SysWOW64\dui70".?SetNote@CCCommandLink@DirectUI@@QAEJPBG@Z
  ?SetNotifyHandler@CCBase@DirectUI@@QAEXP6GHIIJPAJPAX@Z1@Z="C:\Windows\SysWOW64\dui70".?SetNotifyHandler@CCBase@DirectUI@@QAEXP6GHIIJPAJPAX@Z1@Z
  ?SetOffText@TouchSwitch@DirectUI@@QAEJPBG@Z="C:\Windows\SysWOW64\dui70".?SetOffText@TouchSwitch@DirectUI@@QAEJPBG@Z
  ?SetOnOffText@TouchSwitch@DirectUI@@QAEXPBG0@Z="C:\Windows\SysWOW64\dui70".?SetOnOffText@TouchSwitch@DirectUI@@QAEXPBG0@Z
  ?SetOnText@TouchSwitch@DirectUI@@QAEJPBG@Z="C:\Windows\SysWOW64\dui70".?SetOnText@TouchSwitch@DirectUI@@QAEJPBG@Z
  ?SetOptimizeMove@HWNDHost@DirectUI@@QAEJ_N@Z="C:\Windows\SysWOW64\dui70".?SetOptimizeMove@HWNDHost@DirectUI@@QAEJ_N@Z
  ?SetOrder@ScrollBar@DirectUI@@QAEJH@Z="C:\Windows\SysWOW64\dui70".?SetOrder@ScrollBar@DirectUI@@QAEJH@Z
  ?SetOverhang@Element@DirectUI@@QAEJ_N@Z="C:\Windows\SysWOW64\dui70".?SetOverhang@Element@DirectUI@@QAEJ_N@Z
  ?SetOverhangOffset@RichText@DirectUI@@QAEJH@Z="C:\Windows\SysWOW64\dui70".?SetOverhangOffset@RichText@DirectUI@@QAEJH@Z
  ?SetOverrideButtonBackground@CCPushButton@DirectUI@@QAEJ_N@Z="C:\Windows\SysWOW64\dui70".?SetOverrideButtonBackground@CCPushButton@DirectUI@@QAEJ_N@Z
  ?SetOverrideScaleFactor@DUIXmlParser@DirectUI@@QAEXM@Z="C:\Windows\SysWOW64\dui70".?SetOverrideScaleFactor@DUIXmlParser@DirectUI@@QAEXM@Z
  ?SetOverrideScaleFactor@Element@DirectUI@@QAEXM@Z="C:\Windows\SysWOW64\dui70".?SetOverrideScaleFactor@Element@DirectUI@@QAEXM@Z
  ?SetPVLAnimationState@Element@DirectUI@@QAEXH@Z="C:\Windows\SysWOW64\dui70".?SetPVLAnimationState@Element@DirectUI@@QAEXH@Z
  ?SetPadding@Element@DirectUI@@QAEJHHHH@Z="C:\Windows\SysWOW64\dui70".?SetPadding@Element@DirectUI@@QAEJHHHH@Z
  ?SetPage@CCBaseScrollBar@DirectUI@@UAEJH@Z="C:\Windows\SysWOW64\dui70".?SetPage@CCBaseScrollBar@DirectUI@@UAEJH@Z
  ?SetPage@ScrollBar@DirectUI@@UAEJH@Z="C:\Windows\SysWOW64\dui70".?SetPage@ScrollBar@DirectUI@@UAEJH@Z
  ?SetParameter@XProvider@DirectUI@@UAGJABU_GUID@@PAX@Z="C:\Windows\SysWOW64\dui70".?SetParameter@XProvider@DirectUI@@UAGJABU_GUID@@PAX@Z
  ?SetParentSizeControl@HWNDElement@DirectUI@@QAEX_N@Z="C:\Windows\SysWOW64\dui70".?SetParentSizeControl@HWNDElement@DirectUI@@QAEX_N@Z
  ?SetParseErrorCallback@DUIXmlParser@DirectUI@@QAEXP6GXPBG0HPAX@Z1@Z="C:\Windows\SysWOW64\dui70".?SetParseErrorCallback@DUIXmlParser@DirectUI@@QAEXP6GXPBG0HPAX@Z1@Z
  ?SetParseState@DUIXmlParser@DirectUI@@AAEXW4_DUI_PARSE_STATE@2@@Z="C:\Windows\SysWOW64\dui70".?SetParseState@DUIXmlParser@DirectUI@@AAEXW4_DUI_PARSE_STATE@2@@Z
  ?SetParser@Macro@DirectUI@@QAEXPAVDUIXmlParser@2@@Z="C:\Windows\SysWOW64\dui70".?SetParser@Macro@DirectUI@@QAEXPAVDUIXmlParser@2@@Z
  ?SetPasswordCharacter@Edit@DirectUI@@QAEJH@Z="C:\Windows\SysWOW64\dui70".?SetPasswordCharacter@Edit@DirectUI@@QAEJH@Z
  ?SetPasswordCharacter@TouchEditBase@DirectUI@@QAEJH@Z="C:\Windows\SysWOW64\dui70".?SetPasswordCharacter@TouchEditBase@DirectUI@@QAEJH@Z
  ?SetPasswordRevealMode@TouchEdit2@DirectUI@@QAEJW4TouchEditPasswordRevealMode@2@@Z="C:\Windows\SysWOW64\dui70".?SetPasswordRevealMode@TouchEdit2@DirectUI@@QAEJW4TouchEditPasswordRevealMode@2@@Z
  ?SetPath@Movie@DirectUI@@QAEJPBG@Z="C:\Windows\SysWOW64\dui70".?SetPath@Movie@DirectUI@@QAEJPBG@Z
  ?SetPercent@ScrollProxy@DirectUI@@AAEJPAVBaseScrollBar@2@N@Z="C:\Windows\SysWOW64\dui70".?SetPercent@ScrollProxy@DirectUI@@AAEJPAVBaseScrollBar@2@N@Z
  ?SetPinned@BaseScrollBar@DirectUI@@QAEX_N@Z="C:\Windows\SysWOW64\dui70".?SetPinned@BaseScrollBar@DirectUI@@QAEX_N@Z
  ?SetPinning@BaseScrollViewer@DirectUI@@QAEJH@Z="C:\Windows\SysWOW64\dui70".?SetPinning@BaseScrollViewer@DirectUI@@QAEJH@Z
  ?SetPixelOffsetMode@Movie@DirectUI@@QAEJH@Z="C:\Windows\SysWOW64\dui70".?SetPixelOffsetMode@Movie@DirectUI@@QAEJH@Z
  ?SetPlay@AnimationStrip@DirectUI@@QAEJ_N@Z="C:\Windows\SysWOW64\dui70".?SetPlay@AnimationStrip@DirectUI@@QAEJ_N@Z
  ?SetPlayAllFramesMode@Movie@DirectUI@@QAEJ_N@Z="C:\Windows\SysWOW64\dui70".?SetPlayAllFramesMode@Movie@DirectUI@@QAEJ_N@Z
  ?SetPopupBounds@TouchSelect@DirectUI@@QAEJHHHH@Z="C:\Windows\SysWOW64\dui70".?SetPopupBounds@TouchSelect@DirectUI@@QAEJHHHH@Z
  ?SetPosition@CCBaseScrollBar@DirectUI@@UAEJH@Z="C:\Windows\SysWOW64\dui70".?SetPosition@CCBaseScrollBar@DirectUI@@UAEJH@Z
  ?SetPosition@ModernProgressBar@DirectUI@@QAEJH@Z="C:\Windows\SysWOW64\dui70".?SetPosition@ModernProgressBar@DirectUI@@QAEJH@Z
  ?SetPosition@Progress@DirectUI@@QAEJH@Z="C:\Windows\SysWOW64\dui70".?SetPosition@Progress@DirectUI@@QAEJH@Z
  ?SetPosition@ScrollBar@DirectUI@@UAEJH@Z="C:\Windows\SysWOW64\dui70".?SetPosition@ScrollBar@DirectUI@@UAEJH@Z
  ?SetPreprocessedXML@DUIXmlParser@DirectUI@@QAEJPBGPAUHINSTANCE__@@1@Z="C:\Windows\SysWOW64\dui70".?SetPreprocessedXML@DUIXmlParser@DirectUI@@QAEJPBGPAUHINSTANCE__@@1@Z
  ?SetPreserveAlphaChannel@Element@DirectUI@@QAEX_N@Z="C:\Windows\SysWOW64\dui70".?SetPreserveAlphaChannel@Element@DirectUI@@QAEX_N@Z
  ?SetPressed@Button@DirectUI@@QAEJ_N@Z="C:\Windows\SysWOW64\dui70".?SetPressed@Button@DirectUI@@QAEJ_N@Z
  ?SetPressed@TouchButton@DirectUI@@QAEJ_N@Z="C:\Windows\SysWOW64\dui70".?SetPressed@TouchButton@DirectUI@@QAEJ_N@Z
  ?SetPreventFormatChangeUpdatingModifiedState@TouchEditBase@DirectUI@@QAEJ_N@Z="C:\Windows\SysWOW64\dui70".?SetPreventFormatChangeUpdatingModifiedState@TouchEditBase@DirectUI@@QAEJ_N@Z
  ?SetPromptText@TouchEdit2@DirectUI@@QAEJPBG@Z="C:\Windows\SysWOW64\dui70".?SetPromptText@TouchEdit2@DirectUI@@QAEJPBG@Z
  ?SetPromptWithCaret@TouchEdit2@DirectUI@@QAEJ_N@Z="C:\Windows\SysWOW64\dui70".?SetPromptWithCaret@TouchEdit2@DirectUI@@QAEJ_N@Z
  ?SetProperty@Bind@DirectUI@@QAEJPBG@Z="C:\Windows\SysWOW64\dui70".?SetProperty@Bind@DirectUI@@QAEJPBG@Z
  ?SetProportional@ScrollBar@DirectUI@@QAEJ_N@Z="C:\Windows\SysWOW64\dui70".?SetProportional@ScrollBar@DirectUI@@QAEJ_N@Z
  ?SetProvider@XElement@DirectUI@@QAEJPAUIUnknown@@@Z="C:\Windows\SysWOW64\dui70".?SetProvider@XElement@DirectUI@@QAEJPAUIUnknown@@@Z
  ?SetRangeMax@CCTrackBar@DirectUI@@QAEJH@Z="C:\Windows\SysWOW64\dui70".?SetRangeMax@CCTrackBar@DirectUI@@QAEJH@Z
  ?SetRangeMax@TouchSlider@DirectUI@@QAEXH@Z="C:\Windows\SysWOW64\dui70".?SetRangeMax@TouchSlider@DirectUI@@QAEXH@Z
  ?SetRangeMin@CCTrackBar@DirectUI@@QAEJH@Z="C:\Windows\SysWOW64\dui70".?SetRangeMin@CCTrackBar@DirectUI@@QAEJH@Z
  ?SetRangeMin@TouchSlider@DirectUI@@QAEXH@Z="C:\Windows\SysWOW64\dui70".?SetRangeMin@TouchSlider@DirectUI@@QAEXH@Z
  ?SetRangeMinAndRangeMax@TouchSlider@DirectUI@@QAEXHH@Z="C:\Windows\SysWOW64\dui70".?SetRangeMinAndRangeMax@TouchSlider@DirectUI@@QAEXHH@Z
  ?SetReadOnly@TouchEditBase@DirectUI@@QAEJ_N@Z="C:\Windows\SysWOW64\dui70".?SetReadOnly@TouchEditBase@DirectUI@@QAEJ_N@Z
  ?SetReferencePoint@RefPointElement@DirectUI@@QAEJHH@Z="C:\Windows\SysWOW64\dui70".?SetReferencePoint@RefPointElement@DirectUI@@QAEJHH@Z
  ?SetRegisteredDefaultButton@DialogElement@DirectUI@@QAEJPAVElement@2@@Z="C:\Windows\SysWOW64\dui70".?SetRegisteredDefaultButton@DialogElement@DirectUI@@QAEJPAVElement@2@@Z
  ?SetRegisteredDefaultButton@XBaby@DirectUI@@UAEJPAVElement@2@@Z="C:\Windows\SysWOW64\dui70".?SetRegisteredDefaultButton@XBaby@DirectUI@@UAEJPAVElement@2@@Z
  ?SetRegisteredDefaultButton@XProvider@DirectUI@@UAGJPAVElement@2@@Z="C:\Windows\SysWOW64\dui70".?SetRegisteredDefaultButton@XProvider@DirectUI@@UAGJPAVElement@2@@Z
  ?SetRegisteredDefaultButtonSelectedState@DialogElementCore@DirectUI@@IAEX_N@Z="C:\Windows\SysWOW64\dui70".?SetRegisteredDefaultButtonSelectedState@DialogElementCore@DirectUI@@IAEX_N@Z
  ?SetRelPixHeight@Element@DirectUI@@QAEJH@Z="C:\Windows\SysWOW64\dui70".?SetRelPixHeight@Element@DirectUI@@QAEJH@Z
  ?SetRelPixMargin@Element@DirectUI@@QAEJHHHH@Z="C:\Windows\SysWOW64\dui70".?SetRelPixMargin@Element@DirectUI@@QAEJHHHH@Z
  ?SetRelPixPadding@Element@DirectUI@@QAEJHHHH@Z="C:\Windows\SysWOW64\dui70".?SetRelPixPadding@Element@DirectUI@@QAEJHHHH@Z
  ?SetRelPixWidth@Element@DirectUI@@QAEJH@Z="C:\Windows\SysWOW64\dui70".?SetRelPixWidth@Element@DirectUI@@QAEJH@Z
  ?SetReorderable@ItemList@DirectUI@@QAEJ_N@Z="C:\Windows\SysWOW64\dui70".?SetReorderable@ItemList@DirectUI@@QAEJ_N@Z
  ?SetRepeat@Movie@DirectUI@@QAEJ_N@Z="C:\Windows\SysWOW64\dui70".?SetRepeat@Movie@DirectUI@@QAEJ_N@Z
  ?SetRespectLanguageDirection@TouchSlider@DirectUI@@QAEX_N@Z="C:\Windows\SysWOW64\dui70".?SetRespectLanguageDirection@TouchSlider@DirectUI@@QAEX_N@Z
  ?SetRespondToMouseScroll@TouchSlider@DirectUI@@QAEX_N@Z="C:\Windows\SysWOW64\dui70".?SetRespondToMouseScroll@TouchSlider@DirectUI@@QAEX_N@Z
  ?SetRootWindowForTheming@DUIXmlParser@DirectUI@@QAEXPAUHWND__@@@Z="C:\Windows\SysWOW64\dui70".?SetRootWindowForTheming@DUIXmlParser@DirectUI@@QAEXPAUHWND__@@@Z
  ?SetScaleFactor@DUIXmlParser@DirectUI@@QAEXM@Z="C:\Windows\SysWOW64\dui70".?SetScaleFactor@DUIXmlParser@DirectUI@@QAEXM@Z
  ?SetScreenCenter@HWNDElement@DirectUI@@QAEX_N@Z="C:\Windows\SysWOW64\dui70".?SetScreenCenter@HWNDElement@DirectUI@@QAEX_N@Z
  ?SetScrollControlHost@TouchScrollViewer@DirectUI@@QAEJPAVElement@2@@Z="C:\Windows\SysWOW64\dui70".?SetScrollControlHost@TouchScrollViewer@DirectUI@@QAEJPAVElement@2@@Z
  ?SetScrollPadding@TouchScrollViewer@DirectUI@@QAEJHHHH@Z="C:\Windows\SysWOW64\dui70".?SetScrollPadding@TouchScrollViewer@DirectUI@@QAEJHHHH@Z
  ?SetScrollPercent@ScrollProvider@DirectUI@@UAGJNN@Z="C:\Windows\SysWOW64\dui70".?SetScrollPercent@ScrollProvider@DirectUI@@UAGJNN@Z
  ?SetScrollPercent@ScrollProxy@DirectUI@@AAEJNN@Z="C:\Windows\SysWOW64\dui70".?SetScrollPercent@ScrollProxy@DirectUI@@AAEJNN@Z
  ?SetSelected@Element@DirectUI@@QAEJ_N@Z="C:\Windows\SysWOW64\dui70".?SetSelected@Element@DirectUI@@QAEJ_N@Z
