EXPORTS
  ??0CAutoEvent@@QAE@XZ="C:\Windows\SysWOW64\framedyn".??0CAutoEvent@@QAE@XZ
  ??0CFrameworkQuery@@QAE@ABV0@@Z="C:\Windows\SysWOW64\framedyn".??0CFrameworkQuery@@QAE@ABV0@@Z
  ??0CFrameworkQuery@@QAE@XZ="C:\Windows\SysWOW64\framedyn".??0CFrameworkQuery@@QAE@XZ
  ??0CFrameworkQueryEx@@QAE@ABV0@@Z="C:\Windows\SysWOW64\framedyn".??0CFrameworkQueryEx@@QAE@ABV0@@Z
  ??0CFrameworkQueryEx@@QAE@XZ="C:\Windows\SysWOW64\framedyn".??0CFrameworkQueryEx@@QAE@XZ
  ??0CHPtrArray@@QAE@XZ="C:\Windows\SysWOW64\framedyn".??0CHPtrArray@@QAE@XZ
  ??0CHString@@QAE@ABV0@@Z="C:\Windows\SysWOW64\framedyn".??0CHString@@QAE@ABV0@@Z
  ??0CHString@@QAE@GH@Z="C:\Windows\SysWOW64\framedyn".??0CHString@@QAE@GH@Z
  ??0CHString@@QAE@PBD@Z="C:\Windows\SysWOW64\framedyn".??0CHString@@QAE@PBD@Z
  ??0CHString@@QAE@PBE@Z="C:\Windows\SysWOW64\framedyn".??0CHString@@QAE@PBE@Z
  ??0CHString@@QAE@PBG@Z="C:\Windows\SysWOW64\framedyn".??0CHString@@QAE@PBG@Z
  ??0CHString@@QAE@PBGH@Z="C:\Windows\SysWOW64\framedyn".??0CHString@@QAE@PBGH@Z
  ??0CHString@@QAE@XZ="C:\Windows\SysWOW64\framedyn".??0CHString@@QAE@XZ
  ??0CHStringArray@@QAE@XZ="C:\Windows\SysWOW64\framedyn".??0CHStringArray@@QAE@XZ
  ??0CInstance@@QAE@ABV0@@Z="C:\Windows\SysWOW64\framedyn".??0CInstance@@QAE@ABV0@@Z
  ??0CInstance@@QAE@PAUIWbemClassObject@@PAVMethodContext@@@Z="C:\Windows\SysWOW64\framedyn".??0CInstance@@QAE@PAUIWbemClassObject@@PAVMethodContext@@@Z
  ??0CObjectPathParser@@QAE@W4ObjectParserFlags@@@Z="C:\Windows\SysWOW64\framedyn".??0CObjectPathParser@@QAE@W4ObjectParserFlags@@@Z
  ??0CRegistry@@QAE@ABV0@@Z="C:\Windows\SysWOW64\framedyn".??0CRegistry@@QAE@ABV0@@Z
  ??0CRegistry@@QAE@XZ="C:\Windows\SysWOW64\framedyn".??0CRegistry@@QAE@XZ
  ??0CRegistrySearch@@QAE@ABV0@@Z="C:\Windows\SysWOW64\framedyn".??0CRegistrySearch@@QAE@ABV0@@Z
  ??0CRegistrySearch@@QAE@XZ="C:\Windows\SysWOW64\framedyn".??0CRegistrySearch@@QAE@XZ
  ??0CThreadBase@@QAE@ABV0@@Z="C:\Windows\SysWOW64\framedyn".??0CThreadBase@@QAE@ABV0@@Z
  ??0CThreadBase@@QAE@W4THREAD_SAFETY_MECHANISM@0@@Z="C:\Windows\SysWOW64\framedyn".??0CThreadBase@@QAE@W4THREAD_SAFETY_MECHANISM@0@@Z
  ??0CWbemGlueFactory@@QAE@ABV0@@Z="C:\Windows\SysWOW64\framedyn".??0CWbemGlueFactory@@QAE@ABV0@@Z
  ??0CWbemGlueFactory@@QAE@PAJ@Z="C:\Windows\SysWOW64\framedyn".??0CWbemGlueFactory@@QAE@PAJ@Z
  ??0CWbemGlueFactory@@QAE@XZ="C:\Windows\SysWOW64\framedyn".??0CWbemGlueFactory@@QAE@XZ
  ??0CWbemProviderGlue@@QAE@ABV0@@Z="C:\Windows\SysWOW64\framedyn".??0CWbemProviderGlue@@QAE@ABV0@@Z
  ??0CWbemProviderGlue@@QAE@PAJ@Z="C:\Windows\SysWOW64\framedyn".??0CWbemProviderGlue@@QAE@PAJ@Z
  ??0CWbemProviderGlue@@QAE@XZ="C:\Windows\SysWOW64\framedyn".??0CWbemProviderGlue@@QAE@XZ
  ??0CWinMsgEvent@@QAE@ABV0@@Z="C:\Windows\SysWOW64\framedyn".??0CWinMsgEvent@@QAE@ABV0@@Z
  ??0CWinMsgEvent@@QAE@XZ="C:\Windows\SysWOW64\framedyn".??0CWinMsgEvent@@QAE@XZ
  ??0CreateMutexAsProcess@@QAE@PBG@Z="C:\Windows\SysWOW64\framedyn".??0CreateMutexAsProcess@@QAE@PBG@Z
  ??0KeyRef@@QAE@PBGPBUtagVARIANT@@@Z="C:\Windows\SysWOW64\framedyn".??0KeyRef@@QAE@PBGPBUtagVARIANT@@@Z
  ??0KeyRef@@QAE@XZ="C:\Windows\SysWOW64\framedyn".??0KeyRef@@QAE@XZ
  ??0MethodContext@@QAE@ABV0@@Z="C:\Windows\SysWOW64\framedyn".??0MethodContext@@QAE@ABV0@@Z
  ??0MethodContext@@QAE@PAUIWbemContext@@PAVCWbemProviderGlue@@@Z="C:\Windows\SysWOW64\framedyn".??0MethodContext@@QAE@PAUIWbemContext@@PAVCWbemProviderGlue@@@Z
  ??0ParsedObjectPath@@QAE@XZ="C:\Windows\SysWOW64\framedyn".??0ParsedObjectPath@@QAE@XZ
  ??0Provider@@QAE@ABV0@@Z="C:\Windows\SysWOW64\framedyn".??0Provider@@QAE@ABV0@@Z
  ??0Provider@@QAE@PBG0@Z="C:\Windows\SysWOW64\framedyn".??0Provider@@QAE@PBG0@Z
  ??0ProviderLog@@QAE@ABV0@@Z="C:\Windows\SysWOW64\framedyn".??0ProviderLog@@QAE@ABV0@@Z
  ??0ProviderLog@@QAE@XZ="C:\Windows\SysWOW64\framedyn".??0ProviderLog@@QAE@XZ
  ??0WBEMTime@@QAE@ABJ@Z="C:\Windows\SysWOW64\framedyn".??0WBEMTime@@QAE@ABJ@Z
  ??0WBEMTime@@QAE@ABU_FILETIME@@@Z="C:\Windows\SysWOW64\framedyn".??0WBEMTime@@QAE@ABU_FILETIME@@@Z
  ??0WBEMTime@@QAE@ABU_SYSTEMTIME@@@Z="C:\Windows\SysWOW64\framedyn".??0WBEMTime@@QAE@ABU_SYSTEMTIME@@@Z
  ??0WBEMTime@@QAE@ABUtm@@@Z="C:\Windows\SysWOW64\framedyn".??0WBEMTime@@QAE@ABUtm@@@Z
  ??0WBEMTime@@QAE@QAG@Z="C:\Windows\SysWOW64\framedyn".??0WBEMTime@@QAE@QAG@Z
  ??0WBEMTime@@QAE@XZ="C:\Windows\SysWOW64\framedyn".??0WBEMTime@@QAE@XZ
  ??0WBEMTimeSpan@@QAE@ABJ@Z="C:\Windows\SysWOW64\framedyn".??0WBEMTimeSpan@@QAE@ABJ@Z
  ??0WBEMTimeSpan@@QAE@ABU_FILETIME@@@Z="C:\Windows\SysWOW64\framedyn".??0WBEMTimeSpan@@QAE@ABU_FILETIME@@@Z
  ??0WBEMTimeSpan@@QAE@HHHHHHH@Z="C:\Windows\SysWOW64\framedyn".??0WBEMTimeSpan@@QAE@HHHHHHH@Z
  ??0WBEMTimeSpan@@QAE@QAG@Z="C:\Windows\SysWOW64\framedyn".??0WBEMTimeSpan@@QAE@QAG@Z
  ??0WBEMTimeSpan@@QAE@XZ="C:\Windows\SysWOW64\framedyn".??0WBEMTimeSpan@@QAE@XZ
  ??0_Lockit@std@@QAE@XZ="C:\Windows\SysWOW64\framedyn".??0_Lockit@std@@QAE@XZ
  ??1CAutoEvent@@QAE@XZ="C:\Windows\SysWOW64\framedyn".??1CAutoEvent@@QAE@XZ
  ??1CFrameworkQuery@@QAE@XZ="C:\Windows\SysWOW64\framedyn".??1CFrameworkQuery@@QAE@XZ
  ??1CFrameworkQueryEx@@QAE@XZ="C:\Windows\SysWOW64\framedyn".??1CFrameworkQueryEx@@QAE@XZ
  ??1CHPtrArray@@QAE@XZ="C:\Windows\SysWOW64\framedyn".??1CHPtrArray@@QAE@XZ
  ??1CHString@@QAE@XZ="C:\Windows\SysWOW64\framedyn".??1CHString@@QAE@XZ
  ??1CHStringArray@@QAE@XZ="C:\Windows\SysWOW64\framedyn".??1CHStringArray@@QAE@XZ
  ??1CInstance@@UAE@XZ="C:\Windows\SysWOW64\framedyn".??1CInstance@@UAE@XZ
  ??1CObjectPathParser@@QAE@XZ="C:\Windows\SysWOW64\framedyn".??1CObjectPathParser@@QAE@XZ
  ??1CRegistry@@QAE@XZ="C:\Windows\SysWOW64\framedyn".??1CRegistry@@QAE@XZ
  ??1CRegistrySearch@@QAE@XZ="C:\Windows\SysWOW64\framedyn".??1CRegistrySearch@@QAE@XZ
  ??1CThreadBase@@UAE@XZ="C:\Windows\SysWOW64\framedyn".??1CThreadBase@@UAE@XZ
  ??1CWbemGlueFactory@@QAE@XZ="C:\Windows\SysWOW64\framedyn".??1CWbemGlueFactory@@QAE@XZ
  ??1CWbemProviderGlue@@QAE@XZ="C:\Windows\SysWOW64\framedyn".??1CWbemProviderGlue@@QAE@XZ
  ??1CWinMsgEvent@@QAE@XZ="C:\Windows\SysWOW64\framedyn".??1CWinMsgEvent@@QAE@XZ
  ??1CreateMutexAsProcess@@QAE@XZ="C:\Windows\SysWOW64\framedyn".??1CreateMutexAsProcess@@QAE@XZ
  ??1KeyRef@@QAE@XZ="C:\Windows\SysWOW64\framedyn".??1KeyRef@@QAE@XZ
  ??1MethodContext@@UAE@XZ="C:\Windows\SysWOW64\framedyn".??1MethodContext@@UAE@XZ
  ??1ParsedObjectPath@@QAE@XZ="C:\Windows\SysWOW64\framedyn".??1ParsedObjectPath@@QAE@XZ
  ??1Provider@@UAE@XZ="C:\Windows\SysWOW64\framedyn".??1Provider@@UAE@XZ
  ??1ProviderLog@@UAE@XZ="C:\Windows\SysWOW64\framedyn".??1ProviderLog@@UAE@XZ
  ??1_Lockit@std@@QAE@XZ="C:\Windows\SysWOW64\framedyn".??1_Lockit@std@@QAE@XZ
  ??4CAutoEvent@@QAEAAV0@ABV0@@Z="C:\Windows\SysWOW64\framedyn".??4CAutoEvent@@QAEAAV0@ABV0@@Z
  ??4CFrameworkQuery@@QAEAAV0@ABV0@@Z="C:\Windows\SysWOW64\framedyn".??4CFrameworkQuery@@QAEAAV0@ABV0@@Z
  ??4CFrameworkQueryEx@@QAEAAV0@ABV0@@Z="C:\Windows\SysWOW64\framedyn".??4CFrameworkQueryEx@@QAEAAV0@ABV0@@Z
  ??4CHPtrArray@@QAEAAV0@ABV0@@Z="C:\Windows\SysWOW64\framedyn".??4CHPtrArray@@QAEAAV0@ABV0@@Z
  ??4CHString@@QAEABV0@ABV0@@Z="C:\Windows\SysWOW64\framedyn".??4CHString@@QAEABV0@ABV0@@Z
  ??4CHString@@QAEABV0@D@Z="C:\Windows\SysWOW64\framedyn".??4CHString@@QAEABV0@D@Z
  ??4CHString@@QAEABV0@G@Z="C:\Windows\SysWOW64\framedyn".??4CHString@@QAEABV0@G@Z
  ??4CHString@@QAEABV0@PAV0@@Z="C:\Windows\SysWOW64\framedyn".??4CHString@@QAEABV0@PAV0@@Z
  ??4CHString@@QAEABV0@PBD@Z="C:\Windows\SysWOW64\framedyn".??4CHString@@QAEABV0@PBD@Z
  ??4CHString@@QAEABV0@PBE@Z="C:\Windows\SysWOW64\framedyn".??4CHString@@QAEABV0@PBE@Z
  ??4CHString@@QAEABV0@PBG@Z="C:\Windows\SysWOW64\framedyn".??4CHString@@QAEABV0@PBG@Z
  ??4CHStringArray@@QAEAAV0@ABV0@@Z="C:\Windows\SysWOW64\framedyn".??4CHStringArray@@QAEAAV0@ABV0@@Z
  ??4CInstance@@QAEAAV0@ABV0@@Z="C:\Windows\SysWOW64\framedyn".??4CInstance@@QAEAAV0@ABV0@@Z
  ??4CObjectPathParser@@QAEAAV0@ABV0@@Z="C:\Windows\SysWOW64\framedyn".??4CObjectPathParser@@QAEAAV0@ABV0@@Z
  ??4CRegistry@@QAEAAV0@ABV0@@Z="C:\Windows\SysWOW64\framedyn".??4CRegistry@@QAEAAV0@ABV0@@Z
  ??4CRegistrySearch@@QAEAAV0@ABV0@@Z="C:\Windows\SysWOW64\framedyn".??4CRegistrySearch@@QAEAAV0@ABV0@@Z
  ??4CThreadBase@@QAEAAV0@ABV0@@Z="C:\Windows\SysWOW64\framedyn".??4CThreadBase@@QAEAAV0@ABV0@@Z
  ??4CWbemGlueFactory@@QAEAAV0@ABV0@@Z="C:\Windows\SysWOW64\framedyn".??4CWbemGlueFactory@@QAEAAV0@ABV0@@Z
  ??4CWbemProviderGlue@@QAEAAV0@ABV0@@Z="C:\Windows\SysWOW64\framedyn".??4CWbemProviderGlue@@QAEAAV0@ABV0@@Z
  ??4CWinMsgEvent@@QAEAAV0@ABV0@@Z="C:\Windows\SysWOW64\framedyn".??4CWinMsgEvent@@QAEAAV0@ABV0@@Z
  ??4CreateMutexAsProcess@@QAEAAV0@ABV0@@Z="C:\Windows\SysWOW64\framedyn".??4CreateMutexAsProcess@@QAEAAV0@ABV0@@Z
  ??4KeyRef@@QAEAAU0@ABU0@@Z="C:\Windows\SysWOW64\framedyn".??4KeyRef@@QAEAAU0@ABU0@@Z
  ??4MethodContext@@QAEAAV0@ABV0@@Z="C:\Windows\SysWOW64\framedyn".??4MethodContext@@QAEAAV0@ABV0@@Z
  ??4ParsedObjectPath@@QAEAAU0@ABU0@@Z="C:\Windows\SysWOW64\framedyn".??4ParsedObjectPath@@QAEAAU0@ABU0@@Z
  ??4Provider@@QAEAAV0@ABV0@@Z="C:\Windows\SysWOW64\framedyn".??4Provider@@QAEAAV0@ABV0@@Z
  ??4ProviderLog@@QAEAAV0@ABV0@@Z="C:\Windows\SysWOW64\framedyn".??4ProviderLog@@QAEAAV0@ABV0@@Z
  ??4WBEMTime@@QAEAAV0@$$QAV0@@Z="C:\Windows\SysWOW64\framedyn".??4WBEMTime@@QAEAAV0@$$QAV0@@Z
  ??4WBEMTime@@QAEAAV0@ABV0@@Z="C:\Windows\SysWOW64\framedyn".??4WBEMTime@@QAEAAV0@ABV0@@Z
  ??4WBEMTime@@QAEABV0@ABJ@Z="C:\Windows\SysWOW64\framedyn".??4WBEMTime@@QAEABV0@ABJ@Z
  ??4WBEMTime@@QAEABV0@ABU_FILETIME@@@Z="C:\Windows\SysWOW64\framedyn".??4WBEMTime@@QAEABV0@ABU_FILETIME@@@Z
  ??4WBEMTime@@QAEABV0@ABU_SYSTEMTIME@@@Z="C:\Windows\SysWOW64\framedyn".??4WBEMTime@@QAEABV0@ABU_SYSTEMTIME@@@Z
  ??4WBEMTime@@QAEABV0@ABUtm@@@Z="C:\Windows\SysWOW64\framedyn".??4WBEMTime@@QAEABV0@ABUtm@@@Z
  ??4WBEMTime@@QAEABV0@QAG@Z="C:\Windows\SysWOW64\framedyn".??4WBEMTime@@QAEABV0@QAG@Z
  ??4WBEMTimeSpan@@QAEAAV0@$$QAV0@@Z="C:\Windows\SysWOW64\framedyn".??4WBEMTimeSpan@@QAEAAV0@$$QAV0@@Z
  ??4WBEMTimeSpan@@QAEAAV0@ABV0@@Z="C:\Windows\SysWOW64\framedyn".??4WBEMTimeSpan@@QAEAAV0@ABV0@@Z
  ??4WBEMTimeSpan@@QAEABV0@ABJ@Z="C:\Windows\SysWOW64\framedyn".??4WBEMTimeSpan@@QAEABV0@ABJ@Z
  ??4WBEMTimeSpan@@QAEABV0@ABU_FILETIME@@@Z="C:\Windows\SysWOW64\framedyn".??4WBEMTimeSpan@@QAEABV0@ABU_FILETIME@@@Z
  ??4WBEMTimeSpan@@QAEABV0@QAG@Z="C:\Windows\SysWOW64\framedyn".??4WBEMTimeSpan@@QAEABV0@QAG@Z
  ??8WBEMTime@@QBEHABV0@@Z="C:\Windows\SysWOW64\framedyn".??8WBEMTime@@QBEHABV0@@Z
  ??8WBEMTimeSpan@@QBEHABV0@@Z="C:\Windows\SysWOW64\framedyn".??8WBEMTimeSpan@@QBEHABV0@@Z
  ??9WBEMTime@@QBEHABV0@@Z="C:\Windows\SysWOW64\framedyn".??9WBEMTime@@QBEHABV0@@Z
  ??9WBEMTimeSpan@@QBEHABV0@@Z="C:\Windows\SysWOW64\framedyn".??9WBEMTimeSpan@@QBEHABV0@@Z
  ??ACHPtrArray@@QAEAAPAXH@Z="C:\Windows\SysWOW64\framedyn".??ACHPtrArray@@QAEAAPAXH@Z
  ??ACHPtrArray@@QBEPAXH@Z="C:\Windows\SysWOW64\framedyn".??ACHPtrArray@@QBEPAXH@Z
  ??ACHString@@QBEGH@Z="C:\Windows\SysWOW64\framedyn".??ACHString@@QBEGH@Z
  ??ACHStringArray@@QAEAAVCHString@@H@Z="C:\Windows\SysWOW64\framedyn".??ACHStringArray@@QAEAAVCHString@@H@Z
  ??ACHStringArray@@QBE?AVCHString@@H@Z="C:\Windows\SysWOW64\framedyn".??ACHStringArray@@QBE?AVCHString@@H@Z
  ??BCHString@@QBEPBGXZ="C:\Windows\SysWOW64\framedyn".??BCHString@@QBEPBGXZ
  ??GWBEMTime@@QAE?AVWBEMTimeSpan@@ABV0@@Z="C:\Windows\SysWOW64\framedyn".??GWBEMTime@@QAE?AVWBEMTimeSpan@@ABV0@@Z
  ??GWBEMTime@@QBE?AV0@ABVWBEMTimeSpan@@@Z="C:\Windows\SysWOW64\framedyn".??GWBEMTime@@QBE?AV0@ABVWBEMTimeSpan@@@Z
  ??GWBEMTimeSpan@@QBE?AV0@ABV0@@Z="C:\Windows\SysWOW64\framedyn".??GWBEMTimeSpan@@QBE?AV0@ABV0@@Z
  ??H@YG?AVCHString@@ABV0@0@Z="C:\Windows\SysWOW64\framedyn".??H@YG?AVCHString@@ABV0@0@Z
  ??H@YG?AVCHString@@ABV0@G@Z="C:\Windows\SysWOW64\framedyn".??H@YG?AVCHString@@ABV0@G@Z
  ??H@YG?AVCHString@@ABV0@PBG@Z="C:\Windows\SysWOW64\framedyn".??H@YG?AVCHString@@ABV0@PBG@Z
  ??H@YG?AVCHString@@GABV0@@Z="C:\Windows\SysWOW64\framedyn".??H@YG?AVCHString@@GABV0@@Z
  ??H@YG?AVCHString@@PBGABV0@@Z="C:\Windows\SysWOW64\framedyn".??H@YG?AVCHString@@PBGABV0@@Z
  ??HWBEMTime@@QBE?AV0@ABVWBEMTimeSpan@@@Z="C:\Windows\SysWOW64\framedyn".??HWBEMTime@@QBE?AV0@ABVWBEMTimeSpan@@@Z
  ??HWBEMTimeSpan@@QBE?AV0@ABV0@@Z="C:\Windows\SysWOW64\framedyn".??HWBEMTimeSpan@@QBE?AV0@ABV0@@Z
  ??MWBEMTime@@QBEHABV0@@Z="C:\Windows\SysWOW64\framedyn".??MWBEMTime@@QBEHABV0@@Z
  ??MWBEMTimeSpan@@QBEHABV0@@Z="C:\Windows\SysWOW64\framedyn".??MWBEMTimeSpan@@QBEHABV0@@Z
  ??NWBEMTime@@QBEHABV0@@Z="C:\Windows\SysWOW64\framedyn".??NWBEMTime@@QBEHABV0@@Z
  ??NWBEMTimeSpan@@QBEHABV0@@Z="C:\Windows\SysWOW64\framedyn".??NWBEMTimeSpan@@QBEHABV0@@Z
  ??OWBEMTime@@QBEHABV0@@Z="C:\Windows\SysWOW64\framedyn".??OWBEMTime@@QBEHABV0@@Z
  ??OWBEMTimeSpan@@QBEHABV0@@Z="C:\Windows\SysWOW64\framedyn".??OWBEMTimeSpan@@QBEHABV0@@Z
  ??PWBEMTime@@QBEHABV0@@Z="C:\Windows\SysWOW64\framedyn".??PWBEMTime@@QBEHABV0@@Z
  ??PWBEMTimeSpan@@QBEHABV0@@Z="C:\Windows\SysWOW64\framedyn".??PWBEMTimeSpan@@QBEHABV0@@Z
  ??YCHString@@QAEABV0@ABV0@@Z="C:\Windows\SysWOW64\framedyn".??YCHString@@QAEABV0@ABV0@@Z
  ??YCHString@@QAEABV0@D@Z="C:\Windows\SysWOW64\framedyn".??YCHString@@QAEABV0@D@Z
  ??YCHString@@QAEABV0@G@Z="C:\Windows\SysWOW64\framedyn".??YCHString@@QAEABV0@G@Z
  ??YCHString@@QAEABV0@PBG@Z="C:\Windows\SysWOW64\framedyn".??YCHString@@QAEABV0@PBG@Z
  ??YWBEMTime@@QAEABV0@ABVWBEMTimeSpan@@@Z="C:\Windows\SysWOW64\framedyn".??YWBEMTime@@QAEABV0@ABVWBEMTimeSpan@@@Z
  ??YWBEMTimeSpan@@QAEABV0@ABV0@@Z="C:\Windows\SysWOW64\framedyn".??YWBEMTimeSpan@@QAEABV0@ABV0@@Z
  ??ZWBEMTime@@QAEABV0@ABVWBEMTimeSpan@@@Z="C:\Windows\SysWOW64\framedyn".??ZWBEMTime@@QAEABV0@ABVWBEMTimeSpan@@@Z
  ??ZWBEMTimeSpan@@QAEABV0@ABV0@@Z="C:\Windows\SysWOW64\framedyn".??ZWBEMTimeSpan@@QAEABV0@ABV0@@Z
  ??_7CFrameworkQueryEx@@6B@="C:\Windows\SysWOW64\framedyn".??_7CFrameworkQueryEx@@6B@
  ??_7CInstance@@6B@="C:\Windows\SysWOW64\framedyn".??_7CInstance@@6B@
  ??_7CThreadBase@@6B@="C:\Windows\SysWOW64\framedyn".??_7CThreadBase@@6B@
  ??_7CWbemGlueFactory@@6B@="C:\Windows\SysWOW64\framedyn".??_7CWbemGlueFactory@@6B@
  ??_7CWbemProviderGlue@@6BIWbemProviderInit@@@="C:\Windows\SysWOW64\framedyn".??_7CWbemProviderGlue@@6BIWbemProviderInit@@@
  ??_7CWbemProviderGlue@@6BIWbemServices@@@="C:\Windows\SysWOW64\framedyn".??_7CWbemProviderGlue@@6BIWbemServices@@@
  ??_7CWinMsgEvent@@6B@="C:\Windows\SysWOW64\framedyn".??_7CWinMsgEvent@@6B@
  ??_7MethodContext@@6B@="C:\Windows\SysWOW64\framedyn".??_7MethodContext@@6B@
  ??_7Provider@@6B@="C:\Windows\SysWOW64\framedyn".??_7Provider@@6B@
  ??_7ProviderLog@@6B@="C:\Windows\SysWOW64\framedyn".??_7ProviderLog@@6B@
  ??_FCObjectPathParser@@QAEXXZ="C:\Windows\SysWOW64\framedyn".??_FCObjectPathParser@@QAEXXZ
  ??_FCThreadBase@@QAEXXZ="C:\Windows\SysWOW64\framedyn".??_FCThreadBase@@QAEXXZ
  ?Add@CHPtrArray@@QAEHPAX@Z="C:\Windows\SysWOW64\framedyn".?Add@CHPtrArray@@QAEHPAX@Z
  ?Add@CHStringArray@@QAEHPBG@Z="C:\Windows\SysWOW64\framedyn".?Add@CHStringArray@@QAEHPBG@Z
  ?AddFlushPtr@CWbemProviderGlue@@AAEXPAX@Z="C:\Windows\SysWOW64\framedyn".?AddFlushPtr@CWbemProviderGlue@@AAEXPAX@Z
  ?AddKeyRef@ParsedObjectPath@@QAEHPAUKeyRef@@@Z="C:\Windows\SysWOW64\framedyn".?AddKeyRef@ParsedObjectPath@@QAEHPAUKeyRef@@@Z
  ?AddKeyRef@ParsedObjectPath@@QAEHPBGPBUtagVARIANT@@@Z="C:\Windows\SysWOW64\framedyn".?AddKeyRef@ParsedObjectPath@@QAEHPBGPBUtagVARIANT@@@Z
  ?AddKeyRefEx@ParsedObjectPath@@QAEHPBGPBUtagVARIANT@@@Z="C:\Windows\SysWOW64\framedyn".?AddKeyRefEx@ParsedObjectPath@@QAEHPBGPBUtagVARIANT@@@Z
  ?AddNamespace@ParsedObjectPath@@QAEHPBG@Z="C:\Windows\SysWOW64\framedyn".?AddNamespace@ParsedObjectPath@@QAEHPBG@Z
  ?AddProviderToMap@CWbemProviderGlue@@CGPAVProvider@@PBG0PAV2@@Z="C:\Windows\SysWOW64\framedyn".?AddProviderToMap@CWbemProviderGlue@@CGPAVProvider@@PBG0PAV2@@Z
  ?AddRef@CInstance@@QAEJXZ="C:\Windows\SysWOW64\framedyn".?AddRef@CInstance@@QAEJXZ
  ?AddRef@CThreadBase@@QAEJXZ="C:\Windows\SysWOW64\framedyn".?AddRef@CThreadBase@@QAEJXZ
  ?AddRef@CWbemGlueFactory@@UAGKXZ="C:\Windows\SysWOW64\framedyn".?AddRef@CWbemGlueFactory@@UAGKXZ
  ?AddRef@CWbemProviderGlue@@UAGKXZ="C:\Windows\SysWOW64\framedyn".?AddRef@CWbemProviderGlue@@UAGKXZ
  ?AddRef@MethodContext@@QAEJXZ="C:\Windows\SysWOW64\framedyn".?AddRef@MethodContext@@QAEJXZ
  ?AddToFactoryMap@CWbemProviderGlue@@KGXPBVCWbemGlueFactory@@PAJ@Z="C:\Windows\SysWOW64\framedyn".?AddToFactoryMap@CWbemProviderGlue@@KGXPBVCWbemGlueFactory@@PAJ@Z
  ?AllPropertiesAreRequired@CFrameworkQuery@@QAE_NXZ="C:\Windows\SysWOW64\framedyn".?AllPropertiesAreRequired@CFrameworkQuery@@QAE_NXZ
  ?AllocBeforeWrite@CHString@@IAEXH@Z="C:\Windows\SysWOW64\framedyn".?AllocBeforeWrite@CHString@@IAEXH@Z
  ?AllocBuffer@CHString@@IAEXH@Z="C:\Windows\SysWOW64\framedyn".?AllocBuffer@CHString@@IAEXH@Z
  ?AllocCopy@CHString@@IBEXAAV1@HHH@Z="C:\Windows\SysWOW64\framedyn".?AllocCopy@CHString@@IBEXAAV1@HHH@Z
  ?AllocSysString@CHString@@QBEPAGXZ="C:\Windows\SysWOW64\framedyn".?AllocSysString@CHString@@QBEPAGXZ
  ?Append@CHPtrArray@@QAEHABV1@@Z="C:\Windows\SysWOW64\framedyn".?Append@CHPtrArray@@QAEHABV1@@Z
  ?Append@CHStringArray@@QAEHABV1@@Z="C:\Windows\SysWOW64\framedyn".?Append@CHStringArray@@QAEHABV1@@Z
  ?AssignCopy@CHString@@IAEXHPBG@Z="C:\Windows\SysWOW64\framedyn".?AssignCopy@CHString@@IAEXHPBG@Z
  ?BeginRead@CThreadBase@@QAEHK@Z="C:\Windows\SysWOW64\framedyn".?BeginRead@CThreadBase@@QAEHK@Z
  ?BeginWrite@CThreadBase@@QAEHK@Z="C:\Windows\SysWOW64\framedyn".?BeginWrite@CThreadBase@@QAEHK@Z
  ?CancelAsyncCall@CWbemProviderGlue@@UAGJPAUIWbemObjectSink@@@Z="C:\Windows\SysWOW64\framedyn".?CancelAsyncCall@CWbemProviderGlue@@UAGJPAUIWbemObjectSink@@@Z
  ?CancelAsyncRequest@CWbemProviderGlue@@UAGJJ@Z="C:\Windows\SysWOW64\framedyn".?CancelAsyncRequest@CWbemProviderGlue@@UAGJJ@Z
  ?CheckAndAddToList@CRegistrySearch@@AAEXPAVCRegistry@@VCHString@@1AAVCHPtrArray@@11H@Z="C:\Windows\SysWOW64\framedyn".?CheckAndAddToList@CRegistrySearch@@AAEXPAVCRegistry@@VCHString@@1AAVCHPtrArray@@11H@Z
  ?CheckFileSize@ProviderLog@@AAEXAAT_LARGE_INTEGER@@ABVCHString@@@Z="C:\Windows\SysWOW64\framedyn".?CheckFileSize@ProviderLog@@AAEXAAT_LARGE_INTEGER@@ABVCHString@@@Z
  ?CheckImpersonationLevel@CWbemProviderGlue@@CGJXZ="C:\Windows\SysWOW64\framedyn".?CheckImpersonationLevel@CWbemProviderGlue@@CGJXZ
  ?Clear@WBEMTime@@QAEXXZ="C:\Windows\SysWOW64\framedyn".?Clear@WBEMTime@@QAEXXZ
  ?Clear@WBEMTimeSpan@@QAEXXZ="C:\Windows\SysWOW64\framedyn".?Clear@WBEMTimeSpan@@QAEXXZ
  ?ClearKeys@ParsedObjectPath@@QAEXXZ="C:\Windows\SysWOW64\framedyn".?ClearKeys@ParsedObjectPath@@QAEXXZ
  ?Close@CRegistry@@QAEXXZ="C:\Windows\SysWOW64\framedyn".?Close@CRegistry@@QAEXXZ
  ?CloseSubKey@CRegistry@@AAEXXZ="C:\Windows\SysWOW64\framedyn".?CloseSubKey@CRegistry@@AAEXXZ
  ?Collate@CHString@@QBEHPBG@Z="C:\Windows\SysWOW64\framedyn".?Collate@CHString@@QBEHPBG@Z
  ?Commit@CInstance@@QAEJXZ="C:\Windows\SysWOW64\framedyn".?Commit@CInstance@@QAEJXZ
  ?Commit@Provider@@IAEJPAVCInstance@@_N@Z="C:\Windows\SysWOW64\framedyn".?Commit@Provider@@IAEJPAVCInstance@@_N@Z
  ?Compare@CHString@@QBEHPBG@Z="C:\Windows\SysWOW64\framedyn".?Compare@CHString@@QBEHPBG@Z
  ?CompareNoCase@CHString@@QBEHPBG@Z="C:\Windows\SysWOW64\framedyn".?CompareNoCase@CHString@@QBEHPBG@Z
  ?ConcatCopy@CHString@@IAEXHPBGH0@Z="C:\Windows\SysWOW64\framedyn".?ConcatCopy@CHString@@IAEXHPBGH0@Z
  ?ConcatInPlace@CHString@@IAEXHPBG@Z="C:\Windows\SysWOW64\framedyn".?ConcatInPlace@CHString@@IAEXHPBG@Z
  ?Copy@CHPtrArray@@QAEXABV1@@Z="C:\Windows\SysWOW64\framedyn".?Copy@CHPtrArray@@QAEXABV1@@Z
  ?Copy@CHStringArray@@QAEXABV1@@Z="C:\Windows\SysWOW64\framedyn".?Copy@CHStringArray@@QAEXABV1@@Z
  ?CopyBeforeWrite@CHString@@IAEXXZ="C:\Windows\SysWOW64\framedyn".?CopyBeforeWrite@CHString@@IAEXXZ
  ?Create@CWbemGlueFactory@@SGPAV1@PAJ@Z="C:\Windows\SysWOW64\framedyn".?Create@CWbemGlueFactory@@SGPAV1@PAJ@Z
  ?Create@CWbemGlueFactory@@SGPAV1@XZ="C:\Windows\SysWOW64\framedyn".?Create@CWbemGlueFactory@@SGPAV1@XZ
  ?CreateClassEnum@CWbemProviderGlue@@UAGJQAGJPAUIWbemContext@@PAPAUIEnumWbemClassObject@@@Z="C:\Windows\SysWOW64\framedyn".?CreateClassEnum@CWbemProviderGlue@@UAGJQAGJPAUIWbemContext@@PAPAUIEnumWbemClassObject@@@Z
  ?CreateClassEnumAsync@CWbemProviderGlue@@UAGJQAGJPAUIWbemContext@@PAUIWbemObjectSink@@@Z="C:\Windows\SysWOW64\framedyn".?CreateClassEnumAsync@CWbemProviderGlue@@UAGJQAGJPAUIWbemContext@@PAUIWbemObjectSink@@@Z
  ?CreateInstance@CWbemGlueFactory@@UAGJPAUIUnknown@@ABU_GUID@@PAPAX@Z="C:\Windows\SysWOW64\framedyn".?CreateInstance@CWbemGlueFactory@@UAGJPAUIUnknown@@ABU_GUID@@PAPAX@Z
  ?CreateInstanceEnum@CWbemProviderGlue@@UAGJQAGJPAUIWbemContext@@PAPAUIEnumWbemClassObject@@@Z="C:\Windows\SysWOW64\framedyn".?CreateInstanceEnum@CWbemProviderGlue@@UAGJQAGJPAUIWbemContext@@PAPAUIEnumWbemClassObject@@@Z
  ?CreateInstanceEnum@Provider@@AAEJPAVMethodContext@@J@Z="C:\Windows\SysWOW64\framedyn".?CreateInstanceEnum@Provider@@AAEJPAVMethodContext@@J@Z
  ?CreateInstanceEnumAsync@CWbemProviderGlue@@UAGJQAGJPAUIWbemContext@@PAUIWbemObjectSink@@@Z="C:\Windows\SysWOW64\framedyn".?CreateInstanceEnumAsync@CWbemProviderGlue@@UAGJQAGJPAUIWbemContext@@PAUIWbemObjectSink@@@Z
  ?CreateMsgProvider@CWinMsgEvent@@CGXXZ="C:\Windows\SysWOW64\framedyn".?CreateMsgProvider@CWinMsgEvent@@CGXXZ
  ?CreateMsgWindow@CWinMsgEvent@@CGPAUHWND__@@XZ="C:\Windows\SysWOW64\framedyn".?CreateMsgWindow@CWinMsgEvent@@CGPAUHWND__@@XZ
  ?CreateNewInstance@Provider@@IAEPAVCInstance@@PAVMethodContext@@@Z="C:\Windows\SysWOW64\framedyn".?CreateNewInstance@Provider@@IAEPAVCInstance@@PAVMethodContext@@@Z
  ?CreateOpen@CRegistry@@QAEJPAUHKEY__@@PBGPAGKKPAU_SECURITY_ATTRIBUTES@@PAK@Z="C:\Windows\SysWOW64\framedyn".?CreateOpen@CRegistry@@QAEJPAUHKEY__@@PBGPAGKKPAU_SECURITY_ATTRIBUTES@@PAK@Z
  ?CtrlHandlerRoutine@CWinMsgEvent@@CGHK@Z="C:\Windows\SysWOW64\framedyn".?CtrlHandlerRoutine@CWinMsgEvent@@CGHK@Z
  ?DecrementMapCount@CWbemProviderGlue@@KGJPAJ@Z="C:\Windows\SysWOW64\framedyn".?DecrementMapCount@CWbemProviderGlue@@KGJPAJ@Z
  ?DecrementMapCount@CWbemProviderGlue@@KGJPBVCWbemGlueFactory@@@Z="C:\Windows\SysWOW64\framedyn".?DecrementMapCount@CWbemProviderGlue@@KGJPBVCWbemGlueFactory@@@Z
  ?DecrementObjectCount@CWbemProviderGlue@@SGJXZ="C:\Windows\SysWOW64\framedyn".?DecrementObjectCount@CWbemProviderGlue@@SGJXZ
  ?DeleteClass@CWbemProviderGlue@@UAGJQAGJPAUIWbemContext@@PAPAUIWbemCallResult@@@Z="C:\Windows\SysWOW64\framedyn".?DeleteClass@CWbemProviderGlue@@UAGJQAGJPAUIWbemContext@@PAPAUIWbemCallResult@@@Z
  ?DeleteClassAsync@CWbemProviderGlue@@UAGJQAGJPAUIWbemContext@@PAUIWbemObjectSink@@@Z="C:\Windows\SysWOW64\framedyn".?DeleteClassAsync@CWbemProviderGlue@@UAGJQAGJPAUIWbemContext@@PAUIWbemObjectSink@@@Z
  ?DeleteCurrentKeyValue@CRegistry@@QAEKPAUHKEY__@@PBG@Z="C:\Windows\SysWOW64\framedyn".?DeleteCurrentKeyValue@CRegistry@@QAEKPAUHKEY__@@PBG@Z
  ?DeleteCurrentKeyValue@CRegistry@@QAEKPBG@Z="C:\Windows\SysWOW64\framedyn".?DeleteCurrentKeyValue@CRegistry@@QAEKPBG@Z
  ?DeleteInstance@CWbemProviderGlue@@UAGJQAGJPAUIWbemContext@@PAPAUIWbemCallResult@@@Z="C:\Windows\SysWOW64\framedyn".?DeleteInstance@CWbemProviderGlue@@UAGJQAGJPAUIWbemContext@@PAPAUIWbemCallResult@@@Z
  ?DeleteInstance@Provider@@AAEJPAUParsedObjectPath@@JPAVMethodContext@@@Z="C:\Windows\SysWOW64\framedyn".?DeleteInstance@Provider@@AAEJPAUParsedObjectPath@@JPAVMethodContext@@@Z
  ?DeleteInstance@Provider@@MAEJABVCInstance@@J@Z="C:\Windows\SysWOW64\framedyn".?DeleteInstance@Provider@@MAEJABVCInstance@@J@Z
  ?DeleteInstanceAsync@CWbemProviderGlue@@UAGJQAGJPAUIWbemContext@@PAUIWbemObjectSink@@@Z="C:\Windows\SysWOW64\framedyn".?DeleteInstanceAsync@CWbemProviderGlue@@UAGJQAGJPAUIWbemContext@@PAUIWbemObjectSink@@@Z
  ?DeleteKey@CRegistry@@QAEJPAVCHString@@@Z="C:\Windows\SysWOW64\framedyn".?DeleteKey@CRegistry@@QAEJPAVCHString@@@Z
  ?DeleteValue@CRegistry@@QAEJPBG@Z="C:\Windows\SysWOW64\framedyn".?DeleteValue@CRegistry@@QAEJPBG@Z
  ?Destroy@CWbemGlueFactory@@QAEXXZ="C:\Windows\SysWOW64\framedyn".?Destroy@CWbemGlueFactory@@QAEXXZ
  ?DestroyMsgWindow@CWinMsgEvent@@CGXXZ="C:\Windows\SysWOW64\framedyn".?DestroyMsgWindow@CWinMsgEvent@@CGXXZ
  ?ElementAt@CHPtrArray@@QAEAAPAXH@Z="C:\Windows\SysWOW64\framedyn".?ElementAt@CHPtrArray@@QAEAAPAXH@Z
  ?ElementAt@CHStringArray@@QAEAAVCHString@@H@Z="C:\Windows\SysWOW64\framedyn".?ElementAt@CHStringArray@@QAEAAVCHString@@H@Z
  ?Empty@CHString@@QAEXXZ="C:\Windows\SysWOW64\framedyn".?Empty@CHString@@QAEXXZ
  ?Empty@CObjectPathParser@@AAEXXZ="C:\Windows\SysWOW64\framedyn".?Empty@CObjectPathParser@@AAEXXZ
  ?EndRead@CThreadBase@@QAEXXZ="C:\Windows\SysWOW64\framedyn".?EndRead@CThreadBase@@QAEXXZ
  ?EndWrite@CThreadBase@@QAEXXZ="C:\Windows\SysWOW64\framedyn".?EndWrite@CThreadBase@@QAEXXZ
  ?EnumerateAndGetValues@CRegistry@@QAEJAAKAAPAGAAPAE@Z="C:\Windows\SysWOW64\framedyn".?EnumerateAndGetValues@CRegistry@@QAEJAAKAAPAGAAPAE@Z
  ?EnumerateInstances@Provider@@MAEJPAVMethodContext@@J@Z="C:\Windows\SysWOW64\framedyn".?EnumerateInstances@Provider@@MAEJPAVMethodContext@@J@Z
  ?ExecMethod@CWbemProviderGlue@@UAGJQAG0JPAUIWbemContext@@PAUIWbemClassObject@@PAPAU3@PAPAUIWbemCallResult@@@Z="C:\Windows\SysWOW64\framedyn".?ExecMethod@CWbemProviderGlue@@UAGJQAG0JPAUIWbemContext@@PAUIWbemClassObject@@PAPAU3@PAPAUIWbemCallResult@@@Z
  ?ExecMethod@Provider@@AAEJPAUParsedObjectPath@@PAGJPAVCInstance@@2PAVMethodContext@@@Z="C:\Windows\SysWOW64\framedyn".?ExecMethod@Provider@@AAEJPAUParsedObjectPath@@PAGJPAVCInstance@@2PAVMethodContext@@@Z
  ?ExecMethod@Provider@@MAEJABVCInstance@@QAGPAV2@2J@Z="C:\Windows\SysWOW64\framedyn".?ExecMethod@Provider@@MAEJABVCInstance@@QAGPAV2@2J@Z
  ?ExecMethodAsync@CWbemProviderGlue@@UAGJQAG0JPAUIWbemContext@@PAUIWbemClassObject@@PAUIWbemObjectSink@@@Z="C:\Windows\SysWOW64\framedyn".?ExecMethodAsync@CWbemProviderGlue@@UAGJQAG0JPAUIWbemContext@@PAUIWbemClassObject@@PAUIWbemObjectSink@@@Z
  ?ExecNotificationQuery@CWbemProviderGlue@@UAGJQAG0JPAUIWbemContext@@PAPAUIEnumWbemClassObject@@@Z="C:\Windows\SysWOW64\framedyn".?ExecNotificationQuery@CWbemProviderGlue@@UAGJQAG0JPAUIWbemContext@@PAPAUIEnumWbemClassObject@@@Z
  ?ExecNotificationQueryAsync@CWbemProviderGlue@@UAGJQAG0JPAUIWbemContext@@PAUIWbemObjectSink@@@Z="C:\Windows\SysWOW64\framedyn".?ExecNotificationQueryAsync@CWbemProviderGlue@@UAGJQAG0JPAUIWbemContext@@PAUIWbemObjectSink@@@Z
  ?ExecQuery@CWbemProviderGlue@@UAGJQAG0JPAUIWbemContext@@PAPAUIEnumWbemClassObject@@@Z="C:\Windows\SysWOW64\framedyn".?ExecQuery@CWbemProviderGlue@@UAGJQAG0JPAUIWbemContext@@PAPAUIEnumWbemClassObject@@@Z
  ?ExecQuery@Provider@@MAEJPAVMethodContext@@AAVCFrameworkQuery@@J@Z="C:\Windows\SysWOW64\framedyn".?ExecQuery@Provider@@MAEJPAVMethodContext@@AAVCFrameworkQuery@@J@Z
  ?ExecQueryAsync@CWbemProviderGlue@@UAGJQAG0JPAUIWbemContext@@PAUIWbemObjectSink@@@Z="C:\Windows\SysWOW64\framedyn".?ExecQueryAsync@CWbemProviderGlue@@UAGJQAG0JPAUIWbemContext@@PAUIWbemObjectSink@@@Z
  ?ExecuteQuery@Provider@@AAEJPAVMethodContext@@AAVCFrameworkQuery@@J@Z="C:\Windows\SysWOW64\framedyn".?ExecuteQuery@Provider@@AAEJPAVMethodContext@@AAVCFrameworkQuery@@J@Z
  ?FillInstance@CWbemProviderGlue@@SGJPAVCInstance@@PBG@Z="C:\Windows\SysWOW64\framedyn".?FillInstance@CWbemProviderGlue@@SGJPAVCInstance@@PBG@Z
  ?FillInstance@CWbemProviderGlue@@SGJPAVMethodContext@@PAVCInstance@@@Z="C:\Windows\SysWOW64\framedyn".?FillInstance@CWbemProviderGlue@@SGJPAVMethodContext@@PAVCInstance@@@Z
  ?Find@CHString@@QBEHG@Z="C:\Windows\SysWOW64\framedyn".?Find@CHString@@QBEHG@Z
  ?Find@CHString@@QBEHPBG@Z="C:\Windows\SysWOW64\framedyn".?Find@CHString@@QBEHPBG@Z
  ?FindOneOf@CHString@@QBEHPBG@Z="C:\Windows\SysWOW64\framedyn".?FindOneOf@CHString@@QBEHPBG@Z
  ?Flush@Provider@@MAEXXZ="C:\Windows\SysWOW64\framedyn".?Flush@Provider@@MAEXXZ
  ?FlushAll@CWbemProviderGlue@@AAEXXZ="C:\Windows\SysWOW64\framedyn".?FlushAll@CWbemProviderGlue@@AAEXXZ
  ?Format@CHString@@QAAXIZZ="C:\Windows\SysWOW64\framedyn".?Format@CHString@@QAAXIZZ
  ?Format@CHString@@QAAXPBGZZ="C:\Windows\SysWOW64\framedyn".?Format@CHString@@QAAXPBGZZ
  ?FormatMessageW@CHString@@QAAXIZZ="C:\Windows\SysWOW64\framedyn".?FormatMessageW@CHString@@QAAXIZZ
  ?FormatMessageW@CHString@@QAAXPBGZZ="C:\Windows\SysWOW64\framedyn".?FormatMessageW@CHString@@QAAXPBGZZ
  ?FormatV@CHString@@QAEXPBGPAD@Z="C:\Windows\SysWOW64\framedyn".?FormatV@CHString@@QAEXPBGPAD@Z
  ?FrameworkLogin@CWbemProviderGlue@@SGXPBGPAVProvider@@0@Z="C:\Windows\SysWOW64\framedyn".?FrameworkLogin@CWbemProviderGlue@@SGXPBGPAVProvider@@0@Z
  ?FrameworkLoginDLL@CWbemProviderGlue@@SGHPBG@Z="C:\Windows\SysWOW64\framedyn".?FrameworkLoginDLL@CWbemProviderGlue@@SGHPBG@Z
  ?FrameworkLoginDLL@CWbemProviderGlue@@SGHPBGPAJ@Z="C:\Windows\SysWOW64\framedyn".?FrameworkLoginDLL@CWbemProviderGlue@@SGHPBGPAJ@Z
  ?FrameworkLogoff@CWbemProviderGlue@@SGXPBG0@Z="C:\Windows\SysWOW64\framedyn".?FrameworkLogoff@CWbemProviderGlue@@SGXPBG0@Z
  ?FrameworkLogoffDLL@CWbemProviderGlue@@SGHPBG@Z="C:\Windows\SysWOW64\framedyn".?FrameworkLogoffDLL@CWbemProviderGlue@@SGHPBG@Z
  ?FrameworkLogoffDLL@CWbemProviderGlue@@SGHPBGPAJ@Z="C:\Windows\SysWOW64\framedyn".?FrameworkLogoffDLL@CWbemProviderGlue@@SGHPBGPAJ@Z
  ?Free@CObjectPathParser@@QAEXPAUParsedObjectPath@@@Z="C:\Windows\SysWOW64\framedyn".?Free@CObjectPathParser@@QAEXPAUParsedObjectPath@@@Z
  ?FreeExtra@CHPtrArray@@QAEXXZ="C:\Windows\SysWOW64\framedyn".?FreeExtra@CHPtrArray@@QAEXXZ
  ?FreeExtra@CHString@@QAEXXZ="C:\Windows\SysWOW64\framedyn".?FreeExtra@CHString@@QAEXXZ
  ?FreeExtra@CHStringArray@@QAEXXZ="C:\Windows\SysWOW64\framedyn".?FreeExtra@CHStringArray@@QAEXXZ
  ?FreeSearchList@CRegistrySearch@@QAEHHAAVCHPtrArray@@@Z="C:\Windows\SysWOW64\framedyn".?FreeSearchList@CRegistrySearch@@QAEHHAAVCHPtrArray@@@Z
  ?GetAllDerivedInstances@CWbemProviderGlue@@SGJPBGPAV?$TRefPointerCollection@VCInstance@@@@PAVMethodContext@@0@Z="C:\Windows\SysWOW64\framedyn".?GetAllDerivedInstances@CWbemProviderGlue@@SGJPBGPAV?$TRefPointerCollection@VCInstance@@@@PAVMethodContext@@0@Z
  ?GetAllDerivedInstancesAsynch@CWbemProviderGlue@@SGJPBGPAVProvider@@P6GJ1PAVCInstance@@PAVMethodContext@@PAX@Z034@Z="C:\Windows\SysWOW64\framedyn".?GetAllDerivedInstancesAsynch@CWbemProviderGlue@@SGJPBGPAVProvider@@P6GJ1PAVCInstance@@PAVMethodContext@@PAX@Z034@Z
  ?GetAllInstances@CWbemProviderGlue@@SGJPBGPAV?$TRefPointerCollection@VCInstance@@@@0PAVMethodContext@@@Z="C:\Windows\SysWOW64\framedyn".?GetAllInstances@CWbemProviderGlue@@SGJPBGPAV?$TRefPointerCollection@VCInstance@@@@0PAVMethodContext@@@Z
  ?GetAllInstancesAsynch@CWbemProviderGlue@@SGJPBGPAVProvider@@P6GJ1PAVCInstance@@PAVMethodContext@@PAX@Z034@Z="C:\Windows\SysWOW64\framedyn".?GetAllInstancesAsynch@CWbemProviderGlue@@SGJPBGPAVProvider@@P6GJ1PAVCInstance@@PAVMethodContext@@PAX@Z034@Z
  ?GetAllocLength@CHString@@QBEHXZ="C:\Windows\SysWOW64\framedyn".?GetAllocLength@CHString@@QBEHXZ
  ?GetAt@CHPtrArray@@QBEPAXH@Z="C:\Windows\SysWOW64\framedyn".?GetAt@CHPtrArray@@QBEPAXH@Z
  ?GetAt@CHString@@QBEGH@Z="C:\Windows\SysWOW64\framedyn".?GetAt@CHString@@QBEGH@Z
  ?GetAt@CHStringArray@@QBE?AVCHString@@H@Z="C:\Windows\SysWOW64\framedyn".?GetAt@CHStringArray@@QBE?AVCHString@@H@Z
  ?GetBSTR@WBEMTime@@QBEPAGXZ="C:\Windows\SysWOW64\framedyn".?GetBSTR@WBEMTime@@QBEPAGXZ
  ?GetBSTR@WBEMTimeSpan@@QBEPAGXZ="C:\Windows\SysWOW64\framedyn".?GetBSTR@WBEMTimeSpan@@QBEPAGXZ
  ?GetBuffer@CHString@@QAEPAGH@Z="C:\Windows\SysWOW64\framedyn".?GetBuffer@CHString@@QAEPAGH@Z
  ?GetBufferSetLength@CHString@@QAEPAGH@Z="C:\Windows\SysWOW64\framedyn".?GetBufferSetLength@CHString@@QAEPAGH@Z
  ?GetByte@CInstance@@QBE_NPBGAAE@Z="C:\Windows\SysWOW64\framedyn".?GetByte@CInstance@@QBE_NPBGAAE@Z
  ?GetCHString@CInstance@@QBE_NPBGAAVCHString@@@Z="C:\Windows\SysWOW64\framedyn".?GetCHString@CInstance@@QBE_NPBGAAVCHString@@@Z
  ?GetCSDVersion@CWbemProviderGlue@@SGPBGXZ="C:\Windows\SysWOW64\framedyn".?GetCSDVersion@CWbemProviderGlue@@SGPBGXZ
  ?GetClassNameW@CRegistry@@QAEPAGXZ="C:\Windows\SysWOW64\framedyn".?GetClassNameW@CRegistry@@QAEPAGXZ
  ?GetClassObjectInterface@CInstance@@QAEPAUIWbemClassObject@@XZ="C:\Windows\SysWOW64\framedyn".?GetClassObjectInterface@CInstance@@QAEPAUIWbemClassObject@@XZ
  ?GetClassObjectInterface@Provider@@AAEPAUIWbemClassObject@@PAVMethodContext@@@Z="C:\Windows\SysWOW64\framedyn".?GetClassObjectInterface@Provider@@AAEPAUIWbemClassObject@@PAVMethodContext@@@Z
  ?GetComputerNameW@CWbemProviderGlue@@CGXAAVCHString@@@Z="C:\Windows\SysWOW64\framedyn".?GetComputerNameW@CWbemProviderGlue@@CGXAAVCHString@@@Z
  ?GetCurrentBinaryKeyValue@CRegistry@@QAEKPAUHKEY__@@PBGPAEPAK@Z="C:\Windows\SysWOW64\framedyn".?GetCurrentBinaryKeyValue@CRegistry@@QAEKPAUHKEY__@@PBGPAEPAK@Z
  ?GetCurrentBinaryKeyValue@CRegistry@@QAEKPBGAAVCHString@@@Z="C:\Windows\SysWOW64\framedyn".?GetCurrentBinaryKeyValue@CRegistry@@QAEKPBGAAVCHString@@@Z
  ?GetCurrentBinaryKeyValue@CRegistry@@QAEKPBGPAEPAK@Z="C:\Windows\SysWOW64\framedyn".?GetCurrentBinaryKeyValue@CRegistry@@QAEKPBGPAEPAK@Z
  ?GetCurrentKeyValue@CRegistry@@QAEKPAUHKEY__@@PBGAAK@Z="C:\Windows\SysWOW64\framedyn".?GetCurrentKeyValue@CRegistry@@QAEKPAUHKEY__@@PBGAAK@Z
  ?GetCurrentKeyValue@CRegistry@@QAEKPAUHKEY__@@PBGAAVCHString@@@Z="C:\Windows\SysWOW64\framedyn".?GetCurrentKeyValue@CRegistry@@QAEKPAUHKEY__@@PBGAAVCHString@@@Z
  ?GetCurrentKeyValue@CRegistry@@QAEKPAUHKEY__@@PBGAAVCHStringArray@@@Z="C:\Windows\SysWOW64\framedyn".?GetCurrentKeyValue@CRegistry@@QAEKPAUHKEY__@@PBGAAVCHStringArray@@@Z
  ?GetCurrentKeyValue@CRegistry@@QAEKPBGAAK@Z="C:\Windows\SysWOW64\framedyn".?GetCurrentKeyValue@CRegistry@@QAEKPBGAAK@Z
  ?GetCurrentKeyValue@CRegistry@@QAEKPBGAAVCHString@@@Z="C:\Windows\SysWOW64\framedyn".?GetCurrentKeyValue@CRegistry@@QAEKPBGAAVCHString@@@Z
  ?GetCurrentKeyValue@CRegistry@@QAEKPBGAAVCHStringArray@@@Z="C:\Windows\SysWOW64\framedyn".?GetCurrentKeyValue@CRegistry@@QAEKPBGAAVCHStringArray@@@Z
  ?GetCurrentRawKeyValue@CRegistry@@AAEKPAUHKEY__@@PBGPAXPAK3@Z="C:\Windows\SysWOW64\framedyn".?GetCurrentRawKeyValue@CRegistry@@AAEKPAUHKEY__@@PBGPAXPAK3@Z
  ?GetCurrentRawSubKeyValue@CRegistry@@AAEKPBGPAXPAK2@Z="C:\Windows\SysWOW64\framedyn".?GetCurrentRawSubKeyValue@CRegistry@@AAEKPBGPAXPAK2@Z
  ?GetCurrentSubKeyCount@CRegistry@@QAEKXZ="C:\Windows\SysWOW64\framedyn".?GetCurrentSubKeyCount@CRegistry@@QAEKXZ
  ?GetCurrentSubKeyName@CRegistry@@QAEKAAVCHString@@@Z="C:\Windows\SysWOW64\framedyn".?GetCurrentSubKeyName@CRegistry@@QAEKAAVCHString@@@Z
  ?GetCurrentSubKeyPath@CRegistry@@QAEKAAVCHString@@@Z="C:\Windows\SysWOW64\framedyn".?GetCurrentSubKeyPath@CRegistry@@QAEKAAVCHString@@@Z
  ?GetCurrentSubKeyValue@CRegistry@@QAEKPBGAAK@Z="C:\Windows\SysWOW64\framedyn".?GetCurrentSubKeyValue@CRegistry@@QAEKPBGAAK@Z
  ?GetCurrentSubKeyValue@CRegistry@@QAEKPBGAAVCHString@@@Z="C:\Windows\SysWOW64\framedyn".?GetCurrentSubKeyValue@CRegistry@@QAEKPBGAAVCHString@@@Z
  ?GetCurrentSubKeyValue@CRegistry@@QAEKPBGPAXPAK@Z="C:\Windows\SysWOW64\framedyn".?GetCurrentSubKeyValue@CRegistry@@QAEKPBGPAXPAK@Z
  ?GetDMTF@WBEMTime@@QBEPAGH@Z="C:\Windows\SysWOW64\framedyn".?GetDMTF@WBEMTime@@QBEPAGH@Z
  ?GetDMTFNonNtfs@WBEMTime@@QBEPAGXZ="C:\Windows\SysWOW64\framedyn".?GetDMTFNonNtfs@WBEMTime@@QBEPAGXZ
  ?GetDOUBLE@CInstance@@QBE_NPBGAAN@Z="C:\Windows\SysWOW64\framedyn".?GetDOUBLE@CInstance@@QBE_NPBGAAN@Z
  ?GetDWORD@CInstance@@QBE_NPBGAAK@Z="C:\Windows\SysWOW64\framedyn".?GetDWORD@CInstance@@QBE_NPBGAAK@Z
  ?GetData@CHPtrArray@@QAEPAPAXXZ="C:\Windows\SysWOW64\framedyn".?GetData@CHPtrArray@@QAEPAPAXXZ
  ?GetData@CHPtrArray@@QBEPAPBXXZ="C:\Windows\SysWOW64\framedyn".?GetData@CHPtrArray@@QBEPAPBXXZ
  ?GetData@CHString@@IBEPAUCHStringData@@XZ="C:\Windows\SysWOW64\framedyn".?GetData@CHString@@IBEPAUCHStringData@@XZ
  ?GetData@CHStringArray@@QAEPAVCHString@@XZ="C:\Windows\SysWOW64\framedyn".?GetData@CHStringArray@@QAEPAVCHString@@XZ
  ?GetData@CHStringArray@@QBEPBVCHString@@XZ="C:\Windows\SysWOW64\framedyn".?GetData@CHStringArray@@QBEPBVCHString@@XZ
  ?GetDateTime@CInstance@@QBE_NPBGAAVWBEMTime@@@Z="C:\Windows\SysWOW64\framedyn".?GetDateTime@CInstance@@QBE_NPBGAAVWBEMTime@@@Z
  ?GetEmbeddedObject@CInstance@@QBE_NPBGPAPAV1@PAVMethodContext@@@Z="C:\Windows\SysWOW64\framedyn".?GetEmbeddedObject@CInstance@@QBE_NPBGPAPAV1@PAVMethodContext@@@Z
  ?GetEmptyInstance@CWbemProviderGlue@@SGJPAVMethodContext@@PBGPAPAVCInstance@@1@Z="C:\Windows\SysWOW64\framedyn".?GetEmptyInstance@CWbemProviderGlue@@SGJPAVMethodContext@@PBGPAPAVCInstance@@1@Z
  ?GetEmptyInstance@CWbemProviderGlue@@SGJPBGPAPAVCInstance@@0@Z="C:\Windows\SysWOW64\framedyn".?GetEmptyInstance@CWbemProviderGlue@@SGJPBGPAPAVCInstance@@0@Z
  ?GetFILETIME@WBEMTime@@QBEHPAU_FILETIME@@@Z="C:\Windows\SysWOW64\framedyn".?GetFILETIME@WBEMTime@@QBEHPAU_FILETIME@@@Z
  ?GetFILETIME@WBEMTimeSpan@@QBEHPAU_FILETIME@@@Z="C:\Windows\SysWOW64\framedyn".?GetFILETIME@WBEMTimeSpan@@QBEHPAU_FILETIME@@@Z
  ?GetIWBEMContext@MethodContext@@UAEPAUIWbemContext@@XZ="C:\Windows\SysWOW64\framedyn".?GetIWBEMContext@MethodContext@@UAEPAUIWbemContext@@XZ
  ?GetInstanceByPath@CWbemProviderGlue@@SGJPBGPAPAVCInstance@@PAVMethodContext@@@Z="C:\Windows\SysWOW64\framedyn".?GetInstanceByPath@CWbemProviderGlue@@SGJPBGPAPAVCInstance@@PAVMethodContext@@@Z
  ?GetInstanceFromCIMOM@CWbemProviderGlue@@CGJPBG0PAVMethodContext@@PAPAVCInstance@@@Z="C:\Windows\SysWOW64\framedyn".?GetInstanceFromCIMOM@CWbemProviderGlue@@CGJPBG0PAVMethodContext@@PAPAVCInstance@@@Z
  ?GetInstanceKeysByPath@CWbemProviderGlue@@SGJPBGPAPAVCInstance@@PAVMethodContext@@@Z="C:\Windows\SysWOW64\framedyn".?GetInstanceKeysByPath@CWbemProviderGlue@@SGJPBGPAPAVCInstance@@PAVMethodContext@@@Z
  ?GetInstancePropertiesByPath@CWbemProviderGlue@@SGJPBGPAPAVCInstance@@PAVMethodContext@@AAVCHStringArray@@@Z="C:\Windows\SysWOW64\framedyn".?GetInstancePropertiesByPath@CWbemProviderGlue@@SGJPBGPAPAVCInstance@@PAVMethodContext@@AAVCHStringArray@@@Z
  ?GetInstancesByQuery@CWbemProviderGlue@@SGJPBGPAV?$TRefPointerCollection@VCInstance@@@@PAVMethodContext@@0@Z="C:\Windows\SysWOW64\framedyn".?GetInstancesByQuery@CWbemProviderGlue@@SGJPBGPAV?$TRefPointerCollection@VCInstance@@@@PAVMethodContext@@0@Z
  ?GetInstancesByQueryAsynch@CWbemProviderGlue@@SGJPBGPAVProvider@@P6GJ1PAVCInstance@@PAVMethodContext@@PAX@Z034@Z="C:\Windows\SysWOW64\framedyn".?GetInstancesByQueryAsynch@CWbemProviderGlue@@SGJPBGPAVProvider@@P6GJ1PAVCInstance@@PAVMethodContext@@PAX@Z034@Z
  ?GetKeyString@ParsedObjectPath@@QAEPAGXZ="C:\Windows\SysWOW64\framedyn".?GetKeyString@ParsedObjectPath@@QAEPAGXZ
  ?GetLength@CHString@@QBEHXZ="C:\Windows\SysWOW64\framedyn".?GetLength@CHString@@QBEHXZ
  ?GetLocalComputerName@Provider@@IAEABVCHString@@XZ="C:\Windows\SysWOW64\framedyn".?GetLocalComputerName@Provider@@IAEABVCHString@@XZ
  ?GetLocalInstancePath@Provider@@IAE_NPBVCInstance@@AAVCHString@@@Z="C:\Windows\SysWOW64\framedyn".?GetLocalInstancePath@Provider@@IAE_NPBVCInstance@@AAVCHString@@@Z
  ?GetLocalOffsetForDate@WBEMTime@@SGJABJ@Z="C:\Windows\SysWOW64\framedyn".?GetLocalOffsetForDate@WBEMTime@@SGJABJ@Z
  ?GetLocalOffsetForDate@WBEMTime@@SGJPBU_FILETIME@@@Z="C:\Windows\SysWOW64\framedyn".?GetLocalOffsetForDate@WBEMTime@@SGJPBU_FILETIME@@@Z
  ?GetLocalOffsetForDate@WBEMTime@@SGJPBU_SYSTEMTIME@@@Z="C:\Windows\SysWOW64\framedyn".?GetLocalOffsetForDate@WBEMTime@@SGJPBU_SYSTEMTIME@@@Z
  ?GetLocalOffsetForDate@WBEMTime@@SGJPBUtm@@@Z="C:\Windows\SysWOW64\framedyn".?GetLocalOffsetForDate@WBEMTime@@SGJPBUtm@@@Z
  ?GetLongestClassStringSize@CRegistry@@QAEKXZ="C:\Windows\SysWOW64\framedyn".?GetLongestClassStringSize@CRegistry@@QAEKXZ
  ?GetLongestSubKeySize@CRegistry@@QAEKXZ="C:\Windows\SysWOW64\framedyn".?GetLongestSubKeySize@CRegistry@@QAEKXZ
  ?GetLongestValueData@CRegistry@@QAEKXZ="C:\Windows\SysWOW64\framedyn".?GetLongestValueData@CRegistry@@QAEKXZ
  ?GetLongestValueName@CRegistry@@QAEKXZ="C:\Windows\SysWOW64\framedyn".?GetLongestValueName@CRegistry@@QAEKXZ
  ?GetMapCountPtr@CWbemProviderGlue@@KGPAJPBVCWbemGlueFactory@@@Z="C:\Windows\SysWOW64\framedyn".?GetMapCountPtr@CWbemProviderGlue@@KGPAJPBVCWbemGlueFactory@@@Z
  ?GetMethodContext@CInstance@@QBEPAVMethodContext@@XZ="C:\Windows\SysWOW64\framedyn".?GetMethodContext@CInstance@@QBEPAVMethodContext@@XZ
  ?GetNamespace@CFrameworkQuery@@IAEABVCHString@@XZ="C:\Windows\SysWOW64\framedyn".?GetNamespace@CFrameworkQuery@@IAEABVCHString@@XZ
  ?GetNamespace@Provider@@IAEABVCHString@@XZ="C:\Windows\SysWOW64\framedyn".?GetNamespace@Provider@@IAEABVCHString@@XZ
  ?GetNamespaceConnection@CWbemProviderGlue@@SGPAUIWbemServices@@PBG@Z="C:\Windows\SysWOW64\framedyn".?GetNamespaceConnection@CWbemProviderGlue@@SGPAUIWbemServices@@PBG@Z
  ?GetNamespaceConnection@CWbemProviderGlue@@SGPAUIWbemServices@@PBGPAVMethodContext@@@Z="C:\Windows\SysWOW64\framedyn".?GetNamespaceConnection@CWbemProviderGlue@@SGPAUIWbemServices@@PBGPAVMethodContext@@@Z
  ?GetNamespacePart@ParsedObjectPath@@QAEPAGXZ="C:\Windows\SysWOW64\framedyn".?GetNamespacePart@ParsedObjectPath@@QAEPAGXZ
  ?GetOSMajorVersion@CWbemProviderGlue@@SGKXZ="C:\Windows\SysWOW64\framedyn".?GetOSMajorVersion@CWbemProviderGlue@@SGKXZ
  ?GetObject@CWbemProviderGlue@@UAGJQAGJPAUIWbemContext@@PAPAUIWbemClassObject@@PAPAUIWbemCallResult@@@Z="C:\Windows\SysWOW64\framedyn".?GetObject@CWbemProviderGlue@@UAGJQAGJPAUIWbemContext@@PAPAUIWbemClassObject@@PAPAUIWbemCallResult@@@Z
  ?GetObject@Provider@@AAEJPAUParsedObjectPath@@PAVMethodContext@@J@Z="C:\Windows\SysWOW64\framedyn".?GetObject@Provider@@AAEJPAUParsedObjectPath@@PAVMethodContext@@J@Z
  ?GetObject@Provider@@MAEJPAVCInstance@@J@Z="C:\Windows\SysWOW64\framedyn".?GetObject@Provider@@MAEJPAVCInstance@@J@Z
  ?GetObject@Provider@@MAEJPAVCInstance@@JAAVCFrameworkQuery@@@Z="C:\Windows\SysWOW64\framedyn".?GetObject@Provider@@MAEJPAVCInstance@@JAAVCFrameworkQuery@@@Z
  ?GetObjectAsync@CWbemProviderGlue@@UAGJQAGJPAUIWbemContext@@PAUIWbemObjectSink@@@Z="C:\Windows\SysWOW64\framedyn".?GetObjectAsync@CWbemProviderGlue@@UAGJQAGJPAUIWbemContext@@PAUIWbemObjectSink@@@Z
  ?GetParentNamespacePart@ParsedObjectPath@@QAEPAGXZ="C:\Windows\SysWOW64\framedyn".?GetParentNamespacePart@ParsedObjectPath@@QAEPAGXZ
  ?GetPlatform@CWbemProviderGlue@@SGKXZ="C:\Windows\SysWOW64\framedyn".?GetPlatform@CWbemProviderGlue@@SGKXZ
  ?GetPropertyBitMask@CFrameworkQueryEx@@QAEXABVCHPtrArray@@PAX@Z="C:\Windows\SysWOW64\framedyn".?GetPropertyBitMask@CFrameworkQueryEx@@QAEXABVCHPtrArray@@PAX@Z
  ?GetProviderGlue@MethodContext@@AAEPAVCWbemProviderGlue@@XZ="C:\Windows\SysWOW64\framedyn".?GetProviderGlue@MethodContext@@AAEPAVCWbemProviderGlue@@XZ
  ?GetProviderName@Provider@@IAEABVCHString@@XZ="C:\Windows\SysWOW64\framedyn".?GetProviderName@Provider@@IAEABVCHString@@XZ
  ?GetQuery@CFrameworkQuery@@QAEABVCHString@@XZ="C:\Windows\SysWOW64\framedyn".?GetQuery@CFrameworkQuery@@QAEABVCHString@@XZ
  ?GetQueryClassName@CFrameworkQuery@@QAEPAGXZ="C:\Windows\SysWOW64\framedyn".?GetQueryClassName@CFrameworkQuery@@QAEPAGXZ
  ?GetRelativePath@CObjectPathParser@@SGPAGPAG@Z="C:\Windows\SysWOW64\framedyn".?GetRelativePath@CObjectPathParser@@SGPAGPAG@Z
  ?GetRequiredProperties@CFrameworkQuery@@QAEXAAVCHStringArray@@@Z="C:\Windows\SysWOW64\framedyn".?GetRequiredProperties@CFrameworkQuery@@QAEXAAVCHStringArray@@@Z
  ?GetSYSTEMTIME@WBEMTime@@QBEHPAU_SYSTEMTIME@@@Z="C:\Windows\SysWOW64\framedyn".?GetSYSTEMTIME@WBEMTime@@QBEHPAU_SYSTEMTIME@@@Z
  ?GetSize@CHPtrArray@@QBEHXZ="C:\Windows\SysWOW64\framedyn".?GetSize@CHPtrArray@@QBEHXZ
  ?GetSize@CHStringArray@@QBEHXZ="C:\Windows\SysWOW64\framedyn".?GetSize@CHStringArray@@QBEHXZ
  ?GetStatus@CInstance@@QBE_NPBGAA_NAAG@Z="C:\Windows\SysWOW64\framedyn".?GetStatus@CInstance@@QBE_NPBGAA_NAAG@Z
  ?GetStatusObject@CWbemProviderGlue@@CGPAUIWbemClassObject@@PAVMethodContext@@PBG@Z="C:\Windows\SysWOW64\framedyn".?GetStatusObject@CWbemProviderGlue@@CGPAUIWbemClassObject@@PAVMethodContext@@PBG@Z
  ?GetStatusObject@MethodContext@@QAEPAUIWbemClassObject@@XZ="C:\Windows\SysWOW64\framedyn".?GetStatusObject@MethodContext@@QAEPAUIWbemClassObject@@XZ
  ?GetStringArray@CInstance@@QBE_NPBGAAPAUtagSAFEARRAY@@@Z="C:\Windows\SysWOW64\framedyn".?GetStringArray@CInstance@@QBE_NPBGAAPAUtagSAFEARRAY@@@Z
  ?GetStructtm@WBEMTime@@QBEHPAUtm@@@Z="C:\Windows\SysWOW64\framedyn".?GetStructtm@WBEMTime@@QBEHPAUtm@@@Z
  ?GetTime@WBEMTime@@QBE_KXZ="C:\Windows\SysWOW64\framedyn".?GetTime@WBEMTime@@QBE_KXZ
  ?GetTime@WBEMTimeSpan@@QBE_KXZ="C:\Windows\SysWOW64\framedyn".?GetTime@WBEMTimeSpan@@QBE_KXZ
  ?GetTimeSpan@CInstance@@QBE_NPBGAAVWBEMTimeSpan@@@Z="C:\Windows\SysWOW64\framedyn".?GetTimeSpan@CInstance@@QBE_NPBGAAVWBEMTimeSpan@@@Z
  ?GetUpperBound@CHPtrArray@@QBEHXZ="C:\Windows\SysWOW64\framedyn".?GetUpperBound@CHPtrArray@@QBEHXZ
  ?GetUpperBound@CHStringArray@@QBEHXZ="C:\Windows\SysWOW64\framedyn".?GetUpperBound@CHStringArray@@QBEHXZ
  ?GetValueCount@CRegistry@@QAEKXZ="C:\Windows\SysWOW64\framedyn".?GetValueCount@CRegistry@@QAEKXZ
  ?GetValuesForProp@CFrameworkQuery@@QAEJPBGAAV?$vector@V_bstr_t@@V?$allocator@V_bstr_t@@@std@@@std@@@Z="C:\Windows\SysWOW64\framedyn".?GetValuesForProp@CFrameworkQuery@@QAEJPBGAAV?$vector@V_bstr_t@@V?$allocator@V_bstr_t@@@std@@@std@@@Z
  ?GetValuesForProp@CFrameworkQuery@@QAEJPBGAAVCHStringArray@@@Z="C:\Windows\SysWOW64\framedyn".?GetValuesForProp@CFrameworkQuery@@QAEJPBGAAVCHStringArray@@@Z
  ?GetValuesForProp@CFrameworkQueryEx@@QAEJPBGAAV?$vector@HV?$allocator@H@std@@@std@@@Z="C:\Windows\SysWOW64\framedyn".?GetValuesForProp@CFrameworkQueryEx@@QAEJPBGAAV?$vector@HV?$allocator@H@std@@@std@@@Z
  ?GetValuesForProp@CFrameworkQueryEx@@QAEJPBGAAV?$vector@V_variant_t@@V?$allocator@V_variant_t@@@std@@@std@@@Z="C:\Windows\SysWOW64\framedyn".?GetValuesForProp@CFrameworkQueryEx@@QAEJPBGAAV?$vector@V_variant_t@@V?$allocator@V_variant_t@@@std@@@std@@@Z
  ?GetVariant@CInstance@@QBE_NPBGAAUtagVARIANT@@@Z="C:\Windows\SysWOW64\framedyn".?GetVariant@CInstance@@QBE_NPBGAAUtagVARIANT@@@Z
  ?GetWBEMINT16@CInstance@@QBE_NPBGAAF@Z="C:\Windows\SysWOW64\framedyn".?GetWBEMINT16@CInstance@@QBE_NPBGAAF@Z
  ?GetWBEMINT64@CInstance@@QBE_NPBGAAVCHString@@@Z="C:\Windows\SysWOW64\framedyn".?GetWBEMINT64@CInstance@@QBE_NPBGAAVCHString@@@Z
  ?GetWBEMINT64@CInstance@@QBE_NPBGAA_J@Z="C:\Windows\SysWOW64\framedyn".?GetWBEMINT64@CInstance@@QBE_NPBGAA_J@Z
  ?GetWBEMINT64@CInstance@@QBE_NPBGAA_K@Z="C:\Windows\SysWOW64\framedyn".?GetWBEMINT64@CInstance@@QBE_NPBGAA_K@Z
  ?GetWCHAR@CInstance@@QBE_NPBGPAPAG@Z="C:\Windows\SysWOW64\framedyn".?GetWCHAR@CInstance@@QBE_NPBGPAPAG@Z
  ?GetWORD@CInstance@@QBE_NPBGAAG@Z="C:\Windows\SysWOW64\framedyn".?GetWORD@CInstance@@QBE_NPBGAAG@Z
  ?Getbool@CInstance@@QBE_NPBGAA_N@Z="C:\Windows\SysWOW64\framedyn".?Getbool@CInstance@@QBE_NPBGAA_N@Z
  ?GethKey@CRegistry@@QAEPAUHKEY__@@XZ="C:\Windows\SysWOW64\framedyn".?GethKey@CRegistry@@QAEPAUHKEY__@@XZ
  ?Gettime_t@WBEMTime@@QBEHPAJ@Z="C:\Windows\SysWOW64\framedyn".?Gettime_t@WBEMTime@@QBEHPAJ@Z
  ?Gettime_t@WBEMTimeSpan@@QBEHPAJ@Z="C:\Windows\SysWOW64\framedyn".?Gettime_t@WBEMTimeSpan@@QBEHPAJ@Z
  ?IncrementMapCount@CWbemProviderGlue@@KGJPAJ@Z="C:\Windows\SysWOW64\framedyn".?IncrementMapCount@CWbemProviderGlue@@KGJPAJ@Z
  ?IncrementMapCount@CWbemProviderGlue@@KGJPBVCWbemGlueFactory@@@Z="C:\Windows\SysWOW64\framedyn".?IncrementMapCount@CWbemProviderGlue@@KGJPBVCWbemGlueFactory@@@Z
  ?IncrementObjectCount@CWbemProviderGlue@@SGXXZ="C:\Windows\SysWOW64\framedyn".?IncrementObjectCount@CWbemProviderGlue@@SGXXZ
  ?Init2@CFrameworkQuery@@QAEXPAUIWbemClassObject@@@Z="C:\Windows\SysWOW64\framedyn".?Init2@CFrameworkQuery@@QAEXPAUIWbemClassObject@@@Z
  ?Init@CFrameworkQuery@@QAEJPAUParsedObjectPath@@PAUIWbemContext@@PBGAAVCHString@@@Z="C:\Windows\SysWOW64\framedyn".?Init@CFrameworkQuery@@QAEJPAUParsedObjectPath@@PAUIWbemContext@@PBGAAVCHString@@@Z
  ?Init@CFrameworkQuery@@QAEJQAG0JAAVCHString@@@Z="C:\Windows\SysWOW64\framedyn".?Init@CFrameworkQuery@@QAEJQAG0JAAVCHString@@@Z
  ?Init@CHString@@IAEXXZ="C:\Windows\SysWOW64\framedyn".?Init@CHString@@IAEXXZ
  ?Init@CWbemProviderGlue@@CGXXZ="C:\Windows\SysWOW64\framedyn".?Init@CWbemProviderGlue@@CGXXZ
  ?InitComputerName@Provider@@CGXXZ="C:\Windows\SysWOW64\framedyn".?InitComputerName@Provider@@CGXXZ
  ?InitEx@CFrameworkQueryEx@@UAEJQAG0JAAVCHString@@@Z="C:\Windows\SysWOW64\framedyn".?InitEx@CFrameworkQueryEx@@UAEJQAG0JAAVCHString@@@Z
  ?Initialize@CWbemProviderGlue@@UAGJPAGJ00PAUIWbemServices@@PAUIWbemContext@@PAUIWbemProviderInitSink@@@Z="C:\Windows\SysWOW64\framedyn".?Initialize@CWbemProviderGlue@@UAGJPAGJ00PAUIWbemServices@@PAUIWbemContext@@PAUIWbemProviderInitSink@@@Z
  ?InsertAt@CHPtrArray@@QAEXHPAV1@@Z="C:\Windows\SysWOW64\framedyn".?InsertAt@CHPtrArray@@QAEXHPAV1@@Z
  ?InsertAt@CHPtrArray@@QAEXHPAXH@Z="C:\Windows\SysWOW64\framedyn".?InsertAt@CHPtrArray@@QAEXHPAXH@Z
  ?InsertAt@CHStringArray@@QAEXHPAV1@@Z="C:\Windows\SysWOW64\framedyn".?InsertAt@CHStringArray@@QAEXHPAV1@@Z
  ?InsertAt@CHStringArray@@QAEXHPBGH@Z="C:\Windows\SysWOW64\framedyn".?InsertAt@CHStringArray@@QAEXHPBGH@Z
  ?InternalGetNamespaceConnection@CWbemProviderGlue@@AAGPAUIWbemServices@@PBG@Z="C:\Windows\SysWOW64\framedyn".?InternalGetNamespaceConnection@CWbemProviderGlue@@AAGPAUIWbemServices@@PBG@Z
  ?Is3TokenOR@CFrameworkQueryEx@@QAEHPBG0AAUtagVARIANT@@1@Z="C:\Windows\SysWOW64\framedyn".?Is3TokenOR@CFrameworkQueryEx@@QAEHPBG0AAUtagVARIANT@@1@Z
  ?IsClass@ParsedObjectPath@@QAEHXZ="C:\Windows\SysWOW64\framedyn".?IsClass@ParsedObjectPath@@QAEHXZ
  ?IsDerivedFrom@CWbemProviderGlue@@SG_NPBG0PAVMethodContext@@0@Z="C:\Windows\SysWOW64\framedyn".?IsDerivedFrom@CWbemProviderGlue@@SG_NPBG0PAVMethodContext@@0@Z
  ?IsEmpty@CHString@@QBEHXZ="C:\Windows\SysWOW64\framedyn".?IsEmpty@CHString@@QBEHXZ
  ?IsExtended@CFrameworkQueryEx@@UAE_NXZ="C:\Windows\SysWOW64\framedyn".?IsExtended@CFrameworkQueryEx@@UAE_NXZ
  ?IsInList@CFrameworkQuery@@IAEKABVCHStringArray@@PBG@Z="C:\Windows\SysWOW64\framedyn".?IsInList@CFrameworkQuery@@IAEKABVCHStringArray@@PBG@Z
  ?IsInstance@ParsedObjectPath@@QAEHXZ="C:\Windows\SysWOW64\framedyn".?IsInstance@ParsedObjectPath@@QAEHXZ
  ?IsLocal@ParsedObjectPath@@QAEHPBG@Z="C:\Windows\SysWOW64\framedyn".?IsLocal@ParsedObjectPath@@QAEHPBG@Z
  ?IsLoggingOn@ProviderLog@@QAE?AW4LogLevel@1@PAVCHString@@@Z="C:\Windows\SysWOW64\framedyn".?IsLoggingOn@ProviderLog@@QAE?AW4LogLevel@1@PAVCHString@@@Z
  ?IsNTokenAnd@CFrameworkQueryEx@@QAEHAAVCHStringArray@@AAVCHPtrArray@@@Z="C:\Windows\SysWOW64\framedyn".?IsNTokenAnd@CFrameworkQueryEx@@QAEHAAVCHStringArray@@AAVCHPtrArray@@@Z
  ?IsNull@CInstance@@QBE_NPBG@Z="C:\Windows\SysWOW64\framedyn".?IsNull@CInstance@@QBE_NPBG@Z
  ?IsObject@ParsedObjectPath@@QAEHXZ="C:\Windows\SysWOW64\framedyn".?IsObject@ParsedObjectPath@@QAEHXZ
  ?IsOk@WBEMTime@@QBE_NXZ="C:\Windows\SysWOW64\framedyn".?IsOk@WBEMTime@@QBE_NXZ
  ?IsOk@WBEMTimeSpan@@QBE_NXZ="C:\Windows\SysWOW64\framedyn".?IsOk@WBEMTimeSpan@@QBE_NXZ
  ?IsPropertyRequired@CFrameworkQuery@@QAE_NPBG@Z="C:\Windows\SysWOW64\framedyn".?IsPropertyRequired@CFrameworkQuery@@QAE_NPBG@Z
  ?IsReference@CFrameworkQuery@@IAEHPBG@Z="C:\Windows\SysWOW64\framedyn".?IsReference@CFrameworkQuery@@IAEHPBG@Z
  ?IsRelative@ParsedObjectPath@@QAEHPBG0@Z="C:\Windows\SysWOW64\framedyn".?IsRelative@ParsedObjectPath@@QAEHPBG0@Z
  ?KeysOnly@CFrameworkQuery@@QAE_NXZ="C:\Windows\SysWOW64\framedyn".?KeysOnly@CFrameworkQuery@@QAE_NXZ
  ?Left@CHString@@QBE?AV1@H@Z="C:\Windows\SysWOW64\framedyn".?Left@CHString@@QBE?AV1@H@Z
  ?LoadStringW@CHString@@IAEHIPAGI@Z="C:\Windows\SysWOW64\framedyn".?LoadStringW@CHString@@IAEHIPAGI@Z
  ?LoadStringW@CHString@@QAEHI@Z="C:\Windows\SysWOW64\framedyn".?LoadStringW@CHString@@QAEHI@Z
  ?LocalLogMessage@ProviderLog@@QAAXPBGHW4LogLevel@1@0ZZ="C:\Windows\SysWOW64\framedyn".?LocalLogMessage@ProviderLog@@QAAXPBGHW4LogLevel@1@0ZZ
  ?LocalLogMessage@ProviderLog@@QAEXPBG0HW4LogLevel@1@@Z="C:\Windows\SysWOW64\framedyn".?LocalLogMessage@ProviderLog@@QAEXPBG0HW4LogLevel@1@@Z
  ?LocateKeyByNameOrValueName@CRegistrySearch@@QAEHPAUHKEY__@@PBG1PAPBGKAAVCHString@@3@Z="C:\Windows\SysWOW64\framedyn".?LocateKeyByNameOrValueName@CRegistrySearch@@QAEHPAUHKEY__@@PBG1PAPBGKAAVCHString@@3@Z
  ?Lock@CThreadBase@@AAEXXZ="C:\Windows\SysWOW64\framedyn".?Lock@CThreadBase@@AAEXXZ
  ?LockBuffer@CHString@@QAEPAGXZ="C:\Windows\SysWOW64\framedyn".?LockBuffer@CHString@@QAEPAGXZ
  ?LockFactoryMap@CWbemProviderGlue@@CGXXZ="C:\Windows\SysWOW64\framedyn".?LockFactoryMap@CWbemProviderGlue@@CGXXZ
  ?LockProviderMap@CWbemProviderGlue@@CGXXZ="C:\Windows\SysWOW64\framedyn".?LockProviderMap@CWbemProviderGlue@@CGXXZ
  ?LockServer@CWbemGlueFactory@@UAGJH@Z="C:\Windows\SysWOW64\framedyn".?LockServer@CWbemGlueFactory@@UAGJH@Z
  ?LogError@CInstance@@IBEXPBG00J@Z="C:\Windows\SysWOW64\framedyn".?LogError@CInstance@@IBEXPBG00J@Z
  ?MakeLocalPath@Provider@@IAE?AVCHString@@ABV2@@Z="C:\Windows\SysWOW64\framedyn".?MakeLocalPath@Provider@@IAE?AVCHString@@ABV2@@Z
  ?MakeLower@CHString@@QAEXXZ="C:\Windows\SysWOW64\framedyn".?MakeLower@CHString@@QAEXXZ
  ?MakeReverse@CHString@@QAEXXZ="C:\Windows\SysWOW64\framedyn".?MakeReverse@CHString@@QAEXXZ
  ?MakeUpper@CHString@@QAEXXZ="C:\Windows\SysWOW64\framedyn".?MakeUpper@CHString@@QAEXXZ
  ?Mid@CHString@@QBE?AV1@H@Z="C:\Windows\SysWOW64\framedyn".?Mid@CHString@@QBE?AV1@H@Z
  ?Mid@CHString@@QBE?AV1@HH@Z="C:\Windows\SysWOW64\framedyn".?Mid@CHString@@QBE?AV1@HH@Z
  ?MsgWndProc@CWinMsgEvent@@CGJPAUHWND__@@IIJ@Z="C:\Windows\SysWOW64\framedyn".?MsgWndProc@CWinMsgEvent@@CGJPAUHWND__@@IIJ@Z
  ?NextSubKey@CRegistry@@QAEKXZ="C:\Windows\SysWOW64\framedyn".?NextSubKey@CRegistry@@QAEKXZ
  ?NextToken@CObjectPathParser@@AAEHXZ="C:\Windows\SysWOW64\framedyn".?NextToken@CObjectPathParser@@AAEHXZ
  ?NormalizePath@@YGKPBG00KAAVCHString@@@Z="C:\Windows\SysWOW64\framedyn".?NormalizePath@@YGKPBG00KAAVCHString@@@Z
  ?NullOutUnsetProperties@CWbemProviderGlue@@AAEJPAUIWbemClassObject@@PAPAU2@ABUtagVARIANT@@@Z="C:\Windows\SysWOW64\framedyn".?NullOutUnsetProperties@CWbemProviderGlue@@AAEJPAUIWbemClassObject@@PAPAU2@ABUtagVARIANT@@@Z
  ?OnFinalRelease@CThreadBase@@MAEXXZ="C:\Windows\SysWOW64\framedyn".?OnFinalRelease@CThreadBase@@MAEXXZ
  ?Open@CRegistry@@QAEJPAUHKEY__@@PBGK@Z="C:\Windows\SysWOW64\framedyn".?Open@CRegistry@@QAEJPAUHKEY__@@PBGK@Z
  ?OpenAndEnumerateSubKeys@CRegistry@@QAEJPAUHKEY__@@PBGK@Z="C:\Windows\SysWOW64\framedyn".?OpenAndEnumerateSubKeys@CRegistry@@QAEJPAUHKEY__@@PBGK@Z
  ?OpenCurrentUser@CRegistry@@QAEKPBGK@Z="C:\Windows\SysWOW64\framedyn".?OpenCurrentUser@CRegistry@@QAEKPBGK@Z
  ?OpenLocalMachineKeyAndReadValue@CRegistry@@QAEJPBG0AAVCHString@@@Z="C:\Windows\SysWOW64\framedyn".?OpenLocalMachineKeyAndReadValue@CRegistry@@QAEJPBG0AAVCHString@@@Z
  ?OpenNamespace@CWbemProviderGlue@@UAGJQAGJPAUIWbemContext@@PAPAUIWbemServices@@PAPAUIWbemCallResult@@@Z="C:\Windows\SysWOW64\framedyn".?OpenNamespace@CWbemProviderGlue@@UAGJQAGJPAUIWbemContext@@PAPAUIWbemServices@@PAPAUIWbemCallResult@@@Z
  ?OpenSubKey@CRegistry@@AAEKXZ="C:\Windows\SysWOW64\framedyn".?OpenSubKey@CRegistry@@AAEKXZ
  ?Parse@CObjectPathParser@@QAEHPBGPAPAUParsedObjectPath@@@Z="C:\Windows\SysWOW64\framedyn".?Parse@CObjectPathParser@@QAEHPBGPAPAUParsedObjectPath@@@Z
  ?PreProcessPutInstanceParms@CWbemProviderGlue@@AAEJPAUIWbemClassObject@@PAPAU2@PAUIWbemContext@@@Z="C:\Windows\SysWOW64\framedyn".?PreProcessPutInstanceParms@CWbemProviderGlue@@AAEJPAUIWbemClassObject@@PAPAU2@PAUIWbemContext@@@Z
  ?PrepareToReOpen@CRegistry@@AAEXXZ="C:\Windows\SysWOW64\framedyn".?PrepareToReOpen@CRegistry@@AAEXXZ
  ?PutClass@CWbemProviderGlue@@UAGJPAUIWbemClassObject@@JPAUIWbemContext@@PAPAUIWbemCallResult@@@Z="C:\Windows\SysWOW64\framedyn".?PutClass@CWbemProviderGlue@@UAGJPAUIWbemClassObject@@JPAUIWbemContext@@PAPAUIWbemCallResult@@@Z
  ?PutClassAsync@CWbemProviderGlue@@UAGJPAUIWbemClassObject@@JPAUIWbemContext@@PAUIWbemObjectSink@@@Z="C:\Windows\SysWOW64\framedyn".?PutClassAsync@CWbemProviderGlue@@UAGJPAUIWbemClassObject@@JPAUIWbemContext@@PAUIWbemObjectSink@@@Z
  ?PutInstance@CWbemProviderGlue@@UAGJPAUIWbemClassObject@@JPAUIWbemContext@@PAPAUIWbemCallResult@@@Z="C:\Windows\SysWOW64\framedyn".?PutInstance@CWbemProviderGlue@@UAGJPAUIWbemClassObject@@JPAUIWbemContext@@PAPAUIWbemCallResult@@@Z
  ?PutInstance@Provider@@AAEJPAUIWbemClassObject@@JPAVMethodContext@@@Z="C:\Windows\SysWOW64\framedyn".?PutInstance@Provider@@AAEJPAUIWbemClassObject@@JPAVMethodContext@@@Z
  ?PutInstance@Provider@@MAEJABVCInstance@@J@Z="C:\Windows\SysWOW64\framedyn".?PutInstance@Provider@@MAEJABVCInstance@@J@Z
  ?PutInstanceAsync@CWbemProviderGlue@@UAGJPAUIWbemClassObject@@JPAUIWbemContext@@PAUIWbemObjectSink@@@Z="C:\Windows\SysWOW64\framedyn".?PutInstanceAsync@CWbemProviderGlue@@UAGJPAUIWbemClassObject@@JPAUIWbemContext@@PAUIWbemObjectSink@@@Z
  ?QueryInterface@CWbemGlueFactory@@UAGJABU_GUID@@PAPAX@Z="C:\Windows\SysWOW64\framedyn".?QueryInterface@CWbemGlueFactory@@UAGJABU_GUID@@PAPAX@Z
  ?QueryInterface@CWbemProviderGlue@@UAGJABU_GUID@@PAPAX@Z="C:\Windows\SysWOW64\framedyn".?QueryInterface@CWbemProviderGlue@@UAGJABU_GUID@@PAPAX@Z
  ?QueryObjectSink@CWbemProviderGlue@@UAGJJPAPAUIWbemObjectSink@@@Z="C:\Windows\SysWOW64\framedyn".?QueryObjectSink@CWbemProviderGlue@@UAGJJPAPAUIWbemObjectSink@@@Z
  ?QueryPostProcess@MethodContext@@UAEXXZ="C:\Windows\SysWOW64\framedyn".?QueryPostProcess@MethodContext@@UAEXXZ
  ?RegisterForMessage@CWinMsgEvent@@IAEXIH@Z="C:\Windows\SysWOW64\framedyn".?RegisterForMessage@CWinMsgEvent@@IAEXIH@Z
  ?Release@CHString@@QAEXXZ="C:\Windows\SysWOW64\framedyn".?Release@CHString@@QAEXXZ
  ?Release@CHString@@SGXPAUCHStringData@@@Z="C:\Windows\SysWOW64\framedyn".?Release@CHString@@SGXPAUCHStringData@@@Z
  ?Release@CInstance@@QAEJXZ="C:\Windows\SysWOW64\framedyn".?Release@CInstance@@QAEJXZ
  ?Release@CThreadBase@@QAEJXZ="C:\Windows\SysWOW64\framedyn".?Release@CThreadBase@@QAEJXZ
  ?Release@CWbemGlueFactory@@UAGKXZ="C:\Windows\SysWOW64\framedyn".?Release@CWbemGlueFactory@@UAGKXZ
  ?Release@CWbemProviderGlue@@UAGKXZ="C:\Windows\SysWOW64\framedyn".?Release@CWbemProviderGlue@@UAGKXZ
  ?Release@MethodContext@@QAEJXZ="C:\Windows\SysWOW64\framedyn".?Release@MethodContext@@QAEJXZ
  ?ReleaseBuffer@CHString@@QAEXH@Z="C:\Windows\SysWOW64\framedyn".?ReleaseBuffer@CHString@@QAEXH@Z
  ?RemoveAll@CHPtrArray@@QAEXXZ="C:\Windows\SysWOW64\framedyn".?RemoveAll@CHPtrArray@@QAEXXZ
  ?RemoveAll@CHStringArray@@QAEXXZ="C:\Windows\SysWOW64\framedyn".?RemoveAll@CHStringArray@@QAEXXZ
  ?RemoveAt@CHPtrArray@@QAEXHH@Z="C:\Windows\SysWOW64\framedyn".?RemoveAt@CHPtrArray@@QAEXHH@Z
  ?RemoveAt@CHStringArray@@QAEXHH@Z="C:\Windows\SysWOW64\framedyn".?RemoveAt@CHStringArray@@QAEXHH@Z
  ?RemoveFromFactoryMap@CWbemProviderGlue@@KGXPBVCWbemGlueFactory@@@Z="C:\Windows\SysWOW64\framedyn".?RemoveFromFactoryMap@CWbemProviderGlue@@KGXPBVCWbemGlueFactory@@@Z
  ?Reset@CFrameworkQuery@@AAEXXZ="C:\Windows\SysWOW64\framedyn".?Reset@CFrameworkQuery@@AAEXXZ
  ?ReverseFind@CHString@@QBEHG@Z="C:\Windows\SysWOW64\framedyn".?ReverseFind@CHString@@QBEHG@Z
  ?RewindSubKeys@CRegistry@@QAEXXZ="C:\Windows\SysWOW64\framedyn".?RewindSubKeys@CRegistry@@QAEXXZ
  ?Right@CHString@@QBE?AV1@H@Z="C:\Windows\SysWOW64\framedyn".?Right@CHString@@QBE?AV1@H@Z
  ?SafeStrlen@CHString@@KGHPBG@Z="C:\Windows\SysWOW64\framedyn".?SafeStrlen@CHString@@KGHPBG@Z
  ?SearchAndBuildList@CRegistrySearch@@QAEHVCHString@@AAVCHPtrArray@@00HPAUHKEY__@@@Z="C:\Windows\SysWOW64\framedyn".?SearchAndBuildList@CRegistrySearch@@QAEHVCHString@@AAVCHPtrArray@@00HPAUHKEY__@@@Z
  ?SearchMapForProvider@CWbemProviderGlue@@CGPAVProvider@@PBG0@Z="C:\Windows\SysWOW64\framedyn".?SearchMapForProvider@CWbemProviderGlue@@CGPAVProvider@@PBG0@Z
  ?SetAt@CHPtrArray@@QAEXHPAX@Z="C:\Windows\SysWOW64\framedyn".?SetAt@CHPtrArray@@QAEXHPAX@Z
  ?SetAt@CHString@@QAEXHG@Z="C:\Windows\SysWOW64\framedyn".?SetAt@CHString@@QAEXHG@Z
  ?SetAt@CHStringArray@@QAEXHPBG@Z="C:\Windows\SysWOW64\framedyn".?SetAt@CHStringArray@@QAEXHPBG@Z
  ?SetAtGrow@CHPtrArray@@QAEXHPAX@Z="C:\Windows\SysWOW64\framedyn".?SetAtGrow@CHPtrArray@@QAEXHPAX@Z
  ?SetAtGrow@CHStringArray@@QAEXHPBG@Z="C:\Windows\SysWOW64\framedyn".?SetAtGrow@CHStringArray@@QAEXHPBG@Z
  ?SetByte@CInstance@@QAE_NPBGE@Z="C:\Windows\SysWOW64\framedyn".?SetByte@CInstance@@QAE_NPBGE@Z
  ?SetCHString@CInstance@@QAE_NPBG0@Z="C:\Windows\SysWOW64\framedyn".?SetCHString@CInstance@@QAE_NPBG0@Z
  ?SetCHString@CInstance@@QAE_NPBGABVCHString@@@Z="C:\Windows\SysWOW64\framedyn".?SetCHString@CInstance@@QAE_NPBGABVCHString@@@Z
  ?SetCHString@CInstance@@QAE_NPBGPBD@Z="C:\Windows\SysWOW64\framedyn".?SetCHString@CInstance@@QAE_NPBGPBD@Z
  ?SetCHStringResourceHandle@@YGXPAUHINSTANCE__@@@Z="C:\Windows\SysWOW64\framedyn".?SetCHStringResourceHandle@@YGXPAUHINSTANCE__@@@Z
  ?SetCharSplat@CInstance@@QAE_NPBG0@Z="C:\Windows\SysWOW64\framedyn".?SetCharSplat@CInstance@@QAE_NPBG0@Z
  ?SetCharSplat@CInstance@@QAE_NPBGK@Z="C:\Windows\SysWOW64\framedyn".?SetCharSplat@CInstance@@QAE_NPBGK@Z
  ?SetCharSplat@CInstance@@QAE_NPBGPBD@Z="C:\Windows\SysWOW64\framedyn".?SetCharSplat@CInstance@@QAE_NPBGPBD@Z
  ?SetClassName@ParsedObjectPath@@QAEHPBG@Z="C:\Windows\SysWOW64\framedyn".?SetClassName@ParsedObjectPath@@QAEHPBG@Z
  ?SetCreationClassName@Provider@@IAE_NPAVCInstance@@@Z="C:\Windows\SysWOW64\framedyn".?SetCreationClassName@Provider@@IAE_NPAVCInstance@@@Z
  ?SetCurrentKeyValue@CRegistry@@QAEKPAUHKEY__@@PBGAAK@Z="C:\Windows\SysWOW64\framedyn".?SetCurrentKeyValue@CRegistry@@QAEKPAUHKEY__@@PBGAAK@Z
  ?SetCurrentKeyValue@CRegistry@@QAEKPAUHKEY__@@PBGAAVCHString@@@Z="C:\Windows\SysWOW64\framedyn".?SetCurrentKeyValue@CRegistry@@QAEKPAUHKEY__@@PBGAAVCHString@@@Z
  ?SetCurrentKeyValue@CRegistry@@QAEKPAUHKEY__@@PBGAAVCHStringArray@@@Z="C:\Windows\SysWOW64\framedyn".?SetCurrentKeyValue@CRegistry@@QAEKPAUHKEY__@@PBGAAVCHStringArray@@@Z
  ?SetCurrentKeyValue@CRegistry@@QAEKPBGAAK@Z="C:\Windows\SysWOW64\framedyn".?SetCurrentKeyValue@CRegistry@@QAEKPBGAAK@Z
  ?SetCurrentKeyValue@CRegistry@@QAEKPBGAAVCHString@@@Z="C:\Windows\SysWOW64\framedyn".?SetCurrentKeyValue@CRegistry@@QAEKPBGAAVCHString@@@Z
  ?SetCurrentKeyValue@CRegistry@@QAEKPBGAAVCHStringArray@@@Z="C:\Windows\SysWOW64\framedyn".?SetCurrentKeyValue@CRegistry@@QAEKPBGAAVCHStringArray@@@Z
  ?SetCurrentKeyValueExpand@CRegistry@@QAEKPAUHKEY__@@PBGAAVCHString@@@Z="C:\Windows\SysWOW64\framedyn".?SetCurrentKeyValueExpand@CRegistry@@QAEKPAUHKEY__@@PBGAAVCHString@@@Z
  ?SetDMTF@WBEMTime@@QAEHQAG@Z="C:\Windows\SysWOW64\framedyn".?SetDMTF@WBEMTime@@QAEHQAG@Z
  ?SetDOUBLE@CInstance@@QAE_NPBGN@Z="C:\Windows\SysWOW64\framedyn".?SetDOUBLE@CInstance@@QAE_NPBGN@Z
  ?SetDWORD@CInstance@@QAE_NPBGK@Z="C:\Windows\SysWOW64\framedyn".?SetDWORD@CInstance@@QAE_NPBGK@Z
  ?SetDateTime@CInstance@@QAE_NPBGABVWBEMTime@@@Z="C:\Windows\SysWOW64\framedyn".?SetDateTime@CInstance@@QAE_NPBGABVWBEMTime@@@Z
  ?SetDefaultValues@CRegistry@@AAEXXZ="C:\Windows\SysWOW64\framedyn".?SetDefaultValues@CRegistry@@AAEXXZ
  ?SetEmbeddedObject@CInstance@@QAE_NPBGAAV1@@Z="C:\Windows\SysWOW64\framedyn".?SetEmbeddedObject@CInstance@@QAE_NPBGAAV1@@Z
  ?SetKeyFromParsedObjectPath@Provider@@AAEHPAVCInstance@@PAUParsedObjectPath@@@Z="C:\Windows\SysWOW64\framedyn".?SetKeyFromParsedObjectPath@Provider@@AAEHPAVCInstance@@PAUParsedObjectPath@@@Z
  ?SetNull@CInstance@@QAE_NPBG@Z="C:\Windows\SysWOW64\framedyn".?SetNull@CInstance@@QAE_NPBG@Z
  ?SetPlatformID@CRegistry@@CGHXZ="C:\Windows\SysWOW64\framedyn".?SetPlatformID@CRegistry@@CGHXZ
  ?SetSize@CHPtrArray@@QAEXHH@Z="C:\Windows\SysWOW64\framedyn".?SetSize@CHPtrArray@@QAEXHH@Z
  ?SetSize@CHStringArray@@QAEXHH@Z="C:\Windows\SysWOW64\framedyn".?SetSize@CHStringArray@@QAEXHH@Z
  ?SetStatusObject@CWbemProviderGlue@@SG_NPAVMethodContext@@PBG1JPBUtagSAFEARRAY@@2@Z="C:\Windows\SysWOW64\framedyn".?SetStatusObject@CWbemProviderGlue@@SG_NPAVMethodContext@@PBG1JPBUtagSAFEARRAY@@2@Z
  ?SetStatusObject@MethodContext@@QAE_NPAUIWbemClassObject@@@Z="C:\Windows\SysWOW64\framedyn".?SetStatusObject@MethodContext@@QAE_NPAUIWbemClassObject@@@Z
  ?SetStringArray@CInstance@@QAE_NPBGABUtagSAFEARRAY@@@Z="C:\Windows\SysWOW64\framedyn".?SetStringArray@CInstance@@QAE_NPBGABUtagSAFEARRAY@@@Z
  ?SetTimeSpan@CInstance@@QAE_NPBGABVWBEMTimeSpan@@@Z="C:\Windows\SysWOW64\framedyn".?SetTimeSpan@CInstance@@QAE_NPBGABVWBEMTimeSpan@@@Z
  ?SetVariant@CInstance@@QAE_NPBGABUtagVARIANT@@@Z="C:\Windows\SysWOW64\framedyn".?SetVariant@CInstance@@QAE_NPBGABUtagVARIANT@@@Z
  ?SetWBEMINT16@CInstance@@QAE_NPBGABF@Z="C:\Windows\SysWOW64\framedyn".?SetWBEMINT16@CInstance@@QAE_NPBGABF@Z
  ?SetWBEMINT64@CInstance@@QAE_NPBGABVCHString@@@Z="C:\Windows\SysWOW64\framedyn".?SetWBEMINT64@CInstance@@QAE_NPBGABVCHString@@@Z
  ?SetWBEMINT64@CInstance@@QAE_NPBG_J@Z="C:\Windows\SysWOW64\framedyn".?SetWBEMINT64@CInstance@@QAE_NPBG_J@Z
  ?SetWBEMINT64@CInstance@@QAE_NPBG_K@Z="C:\Windows\SysWOW64\framedyn".?SetWBEMINT64@CInstance@@QAE_NPBG_K@Z
  ?SetWCHARSplat@CInstance@@QAE_NPBG0@Z="C:\Windows\SysWOW64\framedyn".?SetWCHARSplat@CInstance@@QAE_NPBG0@Z
  ?SetWORD@CInstance@@QAE_NPBGG@Z="C:\Windows\SysWOW64\framedyn".?SetWORD@CInstance@@QAE_NPBGG@Z
  ?Setbool@CInstance@@QAE_NPBG_N@Z="C:\Windows\SysWOW64\framedyn".?Setbool@CInstance@@QAE_NPBG_N@Z
  ?Signal@CAutoEvent@@QAEHXZ="C:\Windows\SysWOW64\framedyn".?Signal@CAutoEvent@@QAEHXZ
  ?SpanExcluding@CHString@@QBE?AV1@PBG@Z="C:\Windows\SysWOW64\framedyn".?SpanExcluding@CHString@@QBE?AV1@PBG@Z
  ?SpanIncluding@CHString@@QBE?AV1@PBG@Z="C:\Windows\SysWOW64\framedyn".?SpanIncluding@CHString@@QBE?AV1@PBG@Z
  ?TrimLeft@CHString@@QAEXXZ="C:\Windows\SysWOW64\framedyn".?TrimLeft@CHString@@QAEXXZ
  ?TrimRight@CHString@@QAEXXZ="C:\Windows\SysWOW64\framedyn".?TrimRight@CHString@@QAEXXZ
  ?UnInit@CWbemProviderGlue@@CGXXZ="C:\Windows\SysWOW64\framedyn".?UnInit@CWbemProviderGlue@@CGXXZ
  ?UnRegisterAllMessages@CWinMsgEvent@@IAEXXZ="C:\Windows\SysWOW64\framedyn".?UnRegisterAllMessages@CWinMsgEvent@@IAEXXZ
  ?UnRegisterMessage@CWinMsgEvent@@IAE_NIH@Z="C:\Windows\SysWOW64\framedyn".?UnRegisterMessage@CWinMsgEvent@@IAE_NIH@Z
  ?Unlock@CThreadBase@@AAEXXZ="C:\Windows\SysWOW64\framedyn".?Unlock@CThreadBase@@AAEXXZ
  ?UnlockBuffer@CHString@@QAEXXZ="C:\Windows\SysWOW64\framedyn".?UnlockBuffer@CHString@@QAEXXZ
  ?UnlockFactoryMap@CWbemProviderGlue@@CGXXZ="C:\Windows\SysWOW64\framedyn".?UnlockFactoryMap@CWbemProviderGlue@@CGXXZ
  ?UnlockProviderMap@CWbemProviderGlue@@CGXXZ="C:\Windows\SysWOW64\framedyn".?UnlockProviderMap@CWbemProviderGlue@@CGXXZ
  ?Unparse@CObjectPathParser@@SGHPAUParsedObjectPath@@PAPAG@Z="C:\Windows\SysWOW64\framedyn".?Unparse@CObjectPathParser@@SGHPAUParsedObjectPath@@PAPAG@Z
  ?ValidateDeletionFlags@Provider@@MAEJJ@Z="C:\Windows\SysWOW64\framedyn".?ValidateDeletionFlags@Provider@@MAEJJ@Z
  ?ValidateEnumerationFlags@Provider@@MAEJJ@Z="C:\Windows\SysWOW64\framedyn".?ValidateEnumerationFlags@Provider@@MAEJJ@Z
  ?ValidateFlags@Provider@@IAEJJW4FlagDefs@1@@Z="C:\Windows\SysWOW64\framedyn".?ValidateFlags@Provider@@IAEJJW4FlagDefs@1@@Z
  ?ValidateGetObjFlags@Provider@@MAEJJ@Z="C:\Windows\SysWOW64\framedyn".?ValidateGetObjFlags@Provider@@MAEJJ@Z
  ?ValidateIMOSPointer@Provider@@AAEHXZ="C:\Windows\SysWOW64\framedyn".?ValidateIMOSPointer@Provider@@AAEHXZ
  ?ValidateMethodFlags@Provider@@MAEJJ@Z="C:\Windows\SysWOW64\framedyn".?ValidateMethodFlags@Provider@@MAEJJ@Z
  ?ValidatePutInstanceFlags@Provider@@MAEJJ@Z="C:\Windows\SysWOW64\framedyn".?ValidatePutInstanceFlags@Provider@@MAEJJ@Z
  ?ValidateQueryFlags@Provider@@MAEJJ@Z="C:\Windows\SysWOW64\framedyn".?ValidateQueryFlags@Provider@@MAEJJ@Z
  ?Wait@CAutoEvent@@QAEKK@Z="C:\Windows\SysWOW64\framedyn".?Wait@CAutoEvent@@QAEKK@Z
  ?WindowsDispatch@CWinMsgEvent@@CGXXZ="C:\Windows\SysWOW64\framedyn".?WindowsDispatch@CWinMsgEvent@@CGXXZ
  ?Zero@CObjectPathParser@@AAEXXZ="C:\Windows\SysWOW64\framedyn".?Zero@CObjectPathParser@@AAEXXZ
  ?begin_parse@CObjectPathParser@@AAEHXZ="C:\Windows\SysWOW64\framedyn".?begin_parse@CObjectPathParser@@AAEHXZ
  ?captainsLog@@3VProviderLog@@A="C:\Windows\SysWOW64\framedyn".?captainsLog@@3VProviderLog@@A
  ?dwThreadProc@CWinMsgEvent@@CGKPAX@Z="C:\Windows\SysWOW64\framedyn".?dwThreadProc@CWinMsgEvent@@CGKPAX@Z
  ?g_cs@@3VCCritSec@@A="C:\Windows\SysWOW64\framedyn".?g_cs@@3VCCritSec@@A
  ?ident_becomes_class@CObjectPathParser@@AAEHXZ="C:\Windows\SysWOW64\framedyn".?ident_becomes_class@CObjectPathParser@@AAEHXZ
  ?ident_becomes_ns@CObjectPathParser@@AAEHXZ="C:\Windows\SysWOW64\framedyn".?ident_becomes_ns@CObjectPathParser@@AAEHXZ
  ?initFailed@Provider@@SGHXZ="C:\Windows\SysWOW64\framedyn".?initFailed@Provider@@SGHXZ
  ?initFailed_@Provider@@0HA="C:\Windows\SysWOW64\framedyn".?initFailed_@Provider@@0HA
  ?key_const@CObjectPathParser@@AAEHXZ="C:\Windows\SysWOW64\framedyn".?key_const@CObjectPathParser@@AAEHXZ
  ?keyref@CObjectPathParser@@AAEHXZ="C:\Windows\SysWOW64\framedyn".?keyref@CObjectPathParser@@AAEHXZ
  ?keyref_list@CObjectPathParser@@AAEHXZ="C:\Windows\SysWOW64\framedyn".?keyref_list@CObjectPathParser@@AAEHXZ
  ?keyref_term@CObjectPathParser@@AAEHXZ="C:\Windows\SysWOW64\framedyn".?keyref_term@CObjectPathParser@@AAEHXZ
  ?m_FlushPtrs@CWbemProviderGlue@@0V?$set@PAXU?$less@PAX@std@@V?$allocator@PAX@2@@std@@A="C:\Windows\SysWOW64\framedyn".?m_FlushPtrs@CWbemProviderGlue@@0V?$set@PAXU?$less@PAX@std@@V?$allocator@PAX@2@@std@@A
  ?m_csFlushPtrs@CWbemProviderGlue@@0VCCritSec@@A="C:\Windows\SysWOW64\framedyn".?m_csFlushPtrs@CWbemProviderGlue@@0VCCritSec@@A
  ?m_csStatusObject@CWbemProviderGlue@@0VCCritSec@@A="C:\Windows\SysWOW64\framedyn".?m_csStatusObject@CWbemProviderGlue@@0VCCritSec@@A
  ?m_pStatusObject@CWbemProviderGlue@@0PAUIWbemClassObject@@A="C:\Windows\SysWOW64\framedyn".?m_pStatusObject@CWbemProviderGlue@@0PAUIWbemClassObject@@A
  ?mg_aeCreateWindow@CWinMsgEvent@@0VCAutoEvent@@A="C:\Windows\SysWOW64\framedyn".?mg_aeCreateWindow@CWinMsgEvent@@0VCAutoEvent@@A
  ?mg_csMapLock@CWinMsgEvent@@0VCCritSec@@A="C:\Windows\SysWOW64\framedyn".?mg_csMapLock@CWinMsgEvent@@0VCCritSec@@A
  ?mg_csWindowLock@CWinMsgEvent@@0VCCritSec@@A="C:\Windows\SysWOW64\framedyn".?mg_csWindowLock@CWinMsgEvent@@0VCCritSec@@A
  ?mg_hDevNotify@CWinMsgEvent@@0PAXA="C:\Windows\SysWOW64\framedyn".?mg_hDevNotify@CWinMsgEvent@@0PAXA
  ?mg_hThreadPumpHandle@CWinMsgEvent@@0PAXA="C:\Windows\SysWOW64\framedyn".?mg_hThreadPumpHandle@CWinMsgEvent@@0PAXA
  ?mg_hWnd@CWinMsgEvent@@0PAUHWND__@@A="C:\Windows\SysWOW64\framedyn".?mg_hWnd@CWinMsgEvent@@0PAUHWND__@@A
  ?mg_oSinkMap@CWinMsgEvent@@0V?$multimap@IPAVCWinMsgEvent@@U?$less@I@std@@V?$allocator@PAVCWinMsgEvent@@@3@@std@@A="C:\Windows\SysWOW64\framedyn".?mg_oSinkMap@CWinMsgEvent@@0V?$multimap@IPAVCWinMsgEvent@@U?$less@I@std@@V?$allocator@PAVCWinMsgEvent@@@3@@std@@A
  ?myRegCreateKeyEx@CRegistry@@AAEJPAUHKEY__@@PBGKPAGKKQAU_SECURITY_ATTRIBUTES@@PAPAU2@PAK@Z="C:\Windows\SysWOW64\framedyn".?myRegCreateKeyEx@CRegistry@@AAEJPAUHKEY__@@PBGKPAGKKQAU_SECURITY_ATTRIBUTES@@PAPAU2@PAK@Z
  ?myRegDeleteKey@CRegistry@@AAEJPAUHKEY__@@PBG@Z="C:\Windows\SysWOW64\framedyn".?myRegDeleteKey@CRegistry@@AAEJPAUHKEY__@@PBG@Z
  ?myRegDeleteValue@CRegistry@@AAEJPAUHKEY__@@PBG@Z="C:\Windows\SysWOW64\framedyn".?myRegDeleteValue@CRegistry@@AAEJPAUHKEY__@@PBG@Z
  ?myRegEnumKey@CRegistry@@AAEJPAUHKEY__@@KPAGK@Z="C:\Windows\SysWOW64\framedyn".?myRegEnumKey@CRegistry@@AAEJPAUHKEY__@@KPAGK@Z
  ?myRegEnumValue@CRegistry@@AAEJPAUHKEY__@@KPAGPAK22PAE2@Z="C:\Windows\SysWOW64\framedyn".?myRegEnumValue@CRegistry@@AAEJPAUHKEY__@@KPAGPAK22PAE2@Z
  ?myRegOpenKeyEx@CRegistry@@AAEJPAUHKEY__@@PBGKKPAPAU2@@Z="C:\Windows\SysWOW64\framedyn".?myRegOpenKeyEx@CRegistry@@AAEJPAUHKEY__@@PBGKKPAPAU2@@Z
  ?myRegQueryInfoKey@CRegistry@@AAEJPAUHKEY__@@PAGPAK22222222PAU_FILETIME@@@Z="C:\Windows\SysWOW64\framedyn".?myRegQueryInfoKey@CRegistry@@AAEJPAUHKEY__@@PAGPAK22222222PAU_FILETIME@@@Z
  ?myRegQueryValueEx@CRegistry@@AAEJPAUHKEY__@@PBGPAK2PAE2@Z="C:\Windows\SysWOW64\framedyn".?myRegQueryValueEx@CRegistry@@AAEJPAUHKEY__@@PBGPAK2PAE2@Z
  ?myRegSetValueEx@CRegistry@@AAEJPAUHKEY__@@PBGKKPBEK@Z="C:\Windows\SysWOW64\framedyn".?myRegSetValueEx@CRegistry@@AAEJPAUHKEY__@@PBGKKPBEK@Z
  ?ns_list@CObjectPathParser@@AAEHXZ="C:\Windows\SysWOW64\framedyn".?ns_list@CObjectPathParser@@AAEHXZ
  ?ns_list_rest@CObjectPathParser@@AAEHXZ="C:\Windows\SysWOW64\framedyn".?ns_list_rest@CObjectPathParser@@AAEHXZ
  ?ns_or_class@CObjectPathParser@@AAEHXZ="C:\Windows\SysWOW64\framedyn".?ns_or_class@CObjectPathParser@@AAEHXZ
  ?ns_or_server@CObjectPathParser@@AAEHXZ="C:\Windows\SysWOW64\framedyn".?ns_or_server@CObjectPathParser@@AAEHXZ
  ?objref@CObjectPathParser@@AAEHXZ="C:\Windows\SysWOW64\framedyn".?objref@CObjectPathParser@@AAEHXZ
  ?objref_rest@CObjectPathParser@@AAEHXZ="C:\Windows\SysWOW64\framedyn".?objref_rest@CObjectPathParser@@AAEHXZ
  ?optional_objref@CObjectPathParser@@AAEHXZ="C:\Windows\SysWOW64\framedyn".?optional_objref@CObjectPathParser@@AAEHXZ
  ?propname@CObjectPathParser@@AAEHXZ="C:\Windows\SysWOW64\framedyn".?propname@CObjectPathParser@@AAEHXZ
  ?s_bInitted@CWbemProviderGlue@@0HA="C:\Windows\SysWOW64\framedyn".?s_bInitted@CWbemProviderGlue@@0HA
  ?s_csFactoryMap@CWbemProviderGlue@@0VCCritSec@@A="C:\Windows\SysWOW64\framedyn".?s_csFactoryMap@CWbemProviderGlue@@0VCCritSec@@A
  ?s_csProviderMap@CWbemProviderGlue@@0VCCritSec@@A="C:\Windows\SysWOW64\framedyn".?s_csProviderMap@CWbemProviderGlue@@0VCCritSec@@A
  ?s_dwMajorVersion@CWbemProviderGlue@@0KA="C:\Windows\SysWOW64\framedyn".?s_dwMajorVersion@CWbemProviderGlue@@0KA
  ?s_dwPlatform@CRegistry@@0KA="C:\Windows\SysWOW64\framedyn".?s_dwPlatform@CRegistry@@0KA
  ?s_dwPlatform@CWbemProviderGlue@@0KA="C:\Windows\SysWOW64\framedyn".?s_dwPlatform@CWbemProviderGlue@@0KA
  ?s_fPlatformSet@CRegistry@@0HA="C:\Windows\SysWOW64\framedyn".?s_fPlatformSet@CRegistry@@0HA
  ?s_factorymap@CWbemProviderGlue@@0V?$map@PBXPAJU?$less@PBX@std@@V?$allocator@PAJ@2@@std@@A="C:\Windows\SysWOW64\framedyn".?s_factorymap@CWbemProviderGlue@@0V?$map@PBXPAJU?$less@PBX@std@@V?$allocator@PAJ@2@@std@@A
  ?s_lObjects@CWbemProviderGlue@@0JA="C:\Windows\SysWOW64\framedyn".?s_lObjects@CWbemProviderGlue@@0JA
  ?s_providersmap@CWbemProviderGlue@@0V?$map@VCHString@@PAXU?$less@VCHString@@@std@@V?$allocator@PAX@3@@std@@A="C:\Windows\SysWOW64\framedyn".?s_providersmap@CWbemProviderGlue@@0V?$map@VCHString@@PAXU?$less@VCHString@@@std@@V?$allocator@PAX@3@@std@@A
  ?s_strComputerName@Provider@@0VCHString@@A="C:\Windows\SysWOW64\framedyn".?s_strComputerName@Provider@@0VCHString@@A
  ?s_wstrCSDVersion@CWbemProviderGlue@@0PAGA="C:\Windows\SysWOW64\framedyn".?s_wstrCSDVersion@CWbemProviderGlue@@0PAGA
  _DoCmd@16="C:\Windows\SysWOW64\framedyn"._DoCmd@16
