EXPORTS
  ??0BLOCK_CACHE@@QAE@XZ="C:\Windows\SysWOW64\ifsutil".??0BLOCK_CACHE@@QAE@XZ
  ??0CANNED_SECURITY@@QAE@XZ="C:\Windows\SysWOW64\ifsutil".??0CANNED_SECURITY@@QAE@XZ
  ??0DIGRAPH@@QAE@XZ="C:\Windows\SysWOW64\ifsutil".??0DIGRAPH@@QAE@XZ
  ??0DIGRAPH_EDGE@@QAE@XZ="C:\Windows\SysWOW64\ifsutil".??0DIGRAPH_EDGE@@QAE@XZ
  ??0DP_DRIVE@@QAE@XZ="C:\Windows\SysWOW64\ifsutil".??0DP_DRIVE@@QAE@XZ
  ??0INTSTACK@@QAE@XZ="C:\Windows\SysWOW64\ifsutil".??0INTSTACK@@QAE@XZ
  ??0LOG_IO_DP_DRIVE@@QAE@XZ="C:\Windows\SysWOW64\ifsutil".??0LOG_IO_DP_DRIVE@@QAE@XZ
  ??0MEDIA_TRACK_INFORMATION@@QAE@XZ="C:\Windows\SysWOW64\ifsutil".??0MEDIA_TRACK_INFORMATION@@QAE@XZ
  ??0MOUNT_POINT_MAP@@QAE@XZ="C:\Windows\SysWOW64\ifsutil".??0MOUNT_POINT_MAP@@QAE@XZ
  ??0MOUNT_POINT_TUPLE@@QAE@XZ="C:\Windows\SysWOW64\ifsutil".??0MOUNT_POINT_TUPLE@@QAE@XZ
  ??0NUMBER_SET@@QAE@XZ="C:\Windows\SysWOW64\ifsutil".??0NUMBER_SET@@QAE@XZ
  ??0POW_CACHE@@QAE@XZ="C:\Windows\SysWOW64\ifsutil".??0POW_CACHE@@QAE@XZ
  ??0POW_TRACK@@QAE@XZ="C:\Windows\SysWOW64\ifsutil".??0POW_TRACK@@QAE@XZ
  ??0READ_AHEAD_CACHE@@QAE@XZ="C:\Windows\SysWOW64\ifsutil".??0READ_AHEAD_CACHE@@QAE@XZ
  ??0READ_CACHE@@QAE@XZ="C:\Windows\SysWOW64\ifsutil".??0READ_CACHE@@QAE@XZ
  ??0READ_MODIFY_WRITE_CACHE@@QAE@XZ="C:\Windows\SysWOW64\ifsutil".??0READ_MODIFY_WRITE_CACHE@@QAE@XZ
  ??0READ_WRITE_CACHE@@QAE@XZ="C:\Windows\SysWOW64\ifsutil".??0READ_WRITE_CACHE@@QAE@XZ
  ??0SECRUN@@QAE@XZ="C:\Windows\SysWOW64\ifsutil".??0SECRUN@@QAE@XZ
  ??0SNAPSHOT@@AAE@XZ="C:\Windows\SysWOW64\ifsutil".??0SNAPSHOT@@AAE@XZ
  ??0SPARSE_SET@@QAE@XZ="C:\Windows\SysWOW64\ifsutil".??0SPARSE_SET@@QAE@XZ
  ??0SUPERAREA@@IAE@XZ="C:\Windows\SysWOW64\ifsutil".??0SUPERAREA@@IAE@XZ
  ??0TLINK@@QAE@XZ="C:\Windows\SysWOW64\ifsutil".??0TLINK@@QAE@XZ
  ??0VOL_LIODPDRV@@IAE@XZ="C:\Windows\SysWOW64\ifsutil".??0VOL_LIODPDRV@@IAE@XZ
  ??0WRITEVIEW_CACHE@@QAE@XZ="C:\Windows\SysWOW64\ifsutil".??0WRITEVIEW_CACHE@@QAE@XZ
  ??0WRITEVIEW_CACHE_ENTRY@@QAE@PAVWRITEVIEW_CACHE@@G@Z="C:\Windows\SysWOW64\ifsutil".??0WRITEVIEW_CACHE_ENTRY@@QAE@PAVWRITEVIEW_CACHE@@G@Z
  ??0WRITE_ONCE_CACHE@@QAE@XZ="C:\Windows\SysWOW64\ifsutil".??0WRITE_ONCE_CACHE@@QAE@XZ
  ??1BLOCK_CACHE@@UAE@XZ="C:\Windows\SysWOW64\ifsutil".??1BLOCK_CACHE@@UAE@XZ
  ??1CANNED_SECURITY@@UAE@XZ="C:\Windows\SysWOW64\ifsutil".??1CANNED_SECURITY@@UAE@XZ
  ??1DIGRAPH@@UAE@XZ="C:\Windows\SysWOW64\ifsutil".??1DIGRAPH@@UAE@XZ
  ??1DP_DRIVE@@UAE@XZ="C:\Windows\SysWOW64\ifsutil".??1DP_DRIVE@@UAE@XZ
  ??1INTSTACK@@UAE@XZ="C:\Windows\SysWOW64\ifsutil".??1INTSTACK@@UAE@XZ
  ??1LOG_IO_DP_DRIVE@@UAE@XZ="C:\Windows\SysWOW64\ifsutil".??1LOG_IO_DP_DRIVE@@UAE@XZ
  ??1MOUNT_POINT_MAP@@UAE@XZ="C:\Windows\SysWOW64\ifsutil".??1MOUNT_POINT_MAP@@UAE@XZ
  ??1NUMBER_SET@@UAE@XZ="C:\Windows\SysWOW64\ifsutil".??1NUMBER_SET@@UAE@XZ
  ??1SECRUN@@UAE@XZ="C:\Windows\SysWOW64\ifsutil".??1SECRUN@@UAE@XZ
  ??1SNAPSHOT@@EAE@XZ="C:\Windows\SysWOW64\ifsutil".??1SNAPSHOT@@EAE@XZ
  ??1SPARSE_SET@@UAE@XZ="C:\Windows\SysWOW64\ifsutil".??1SPARSE_SET@@UAE@XZ
  ??1SUPERAREA@@UAE@XZ="C:\Windows\SysWOW64\ifsutil".??1SUPERAREA@@UAE@XZ
  ??1TLINK@@UAE@XZ="C:\Windows\SysWOW64\ifsutil".??1TLINK@@UAE@XZ
  ??1VOL_LIODPDRV@@UAE@XZ="C:\Windows\SysWOW64\ifsutil".??1VOL_LIODPDRV@@UAE@XZ
  ??1WRITEVIEW_CACHE@@UAE@XZ="C:\Windows\SysWOW64\ifsutil".??1WRITEVIEW_CACHE@@UAE@XZ
  ??1WRITEVIEW_CACHE_ENTRY@@QAE@XZ="C:\Windows\SysWOW64\ifsutil".??1WRITEVIEW_CACHE_ENTRY@@QAE@XZ
  ?Add@NUMBER_SET@@QAEEPBV1@@Z="C:\Windows\SysWOW64\ifsutil".?Add@NUMBER_SET@@QAEEPBV1@@Z
  ?Add@NUMBER_SET@@QAEEVBIG_INT@@0@Z="C:\Windows\SysWOW64\ifsutil".?Add@NUMBER_SET@@QAEEVBIG_INT@@0@Z
  ?Add@NUMBER_SET@@QAEEVBIG_INT@@@Z="C:\Windows\SysWOW64\ifsutil".?Add@NUMBER_SET@@QAEEVBIG_INT@@@Z
  ?Add@SPARSE_SET@@QAEEPBV1@@Z="C:\Windows\SysWOW64\ifsutil".?Add@SPARSE_SET@@QAEEPBV1@@Z
  ?Add@SPARSE_SET@@QAEEVBIG_INT@@@Z="C:\Windows\SysWOW64\ifsutil".?Add@SPARSE_SET@@QAEEVBIG_INT@@@Z
  ?AddDriveName@MOUNT_POINT_MAP@@QAEEPAVWSTRING@@0@Z="C:\Windows\SysWOW64\ifsutil".?AddDriveName@MOUNT_POINT_MAP@@QAEEPAVWSTRING@@0@Z
  ?AddEdge@DIGRAPH@@QAEEKK@Z="C:\Windows\SysWOW64\ifsutil".?AddEdge@DIGRAPH@@QAEEKK@Z
  ?AddEntry@AUTOREG@@SGEPBVWSTRING@@@Z="C:\Windows\SysWOW64\ifsutil".?AddEntry@AUTOREG@@SGEPBVWSTRING@@@Z
  ?AddVolumeName@MOUNT_POINT_MAP@@QAEEPAVWSTRING@@0@Z="C:\Windows\SysWOW64\ifsutil".?AddVolumeName@MOUNT_POINT_MAP@@QAEEPAVWSTRING@@0@Z
  ?AdjustCacheSize@BLOCK_CACHE@@UAEXPA_K0@Z="C:\Windows\SysWOW64\ifsutil".?AdjustCacheSize@BLOCK_CACHE@@UAEXPA_K0@Z
  ?AdjustCacheSize@IO_DP_DRIVE@@QAEXPA_K0@Z="C:\Windows\SysWOW64\ifsutil".?AdjustCacheSize@IO_DP_DRIVE@@QAEXPA_K0@Z
  ?AdjustCacheSize@WRITEVIEW_CACHE@@UAEXPA_K0@Z="C:\Windows\SysWOW64\ifsutil".?AdjustCacheSize@WRITEVIEW_CACHE@@UAEXPA_K0@Z
  ?Check@SPARSE_SET@@QAEEVBIG_INT@@@Z="C:\Windows\SysWOW64\ifsutil".?Check@SPARSE_SET@@QAEEVBIG_INT@@@Z
  ?CheckAndAdd@NUMBER_SET@@QAEEVBIG_INT@@PAE@Z="C:\Windows\SysWOW64\ifsutil".?CheckAndAdd@NUMBER_SET@@QAEEVBIG_INT@@PAE@Z
  ?CheckAndAdd@SPARSE_SET@@QAEEVBIG_INT@@PAE@Z="C:\Windows\SysWOW64\ifsutil".?CheckAndAdd@SPARSE_SET@@QAEEVBIG_INT@@PAE@Z
  ?CheckAndRemove@NUMBER_SET@@QAEEVBIG_INT@@PAE@Z="C:\Windows\SysWOW64\ifsutil".?CheckAndRemove@NUMBER_SET@@QAEEVBIG_INT@@PAE@Z
  ?CheckAndRemove@SPARSE_SET@@QAEEVBIG_INT@@PAE@Z="C:\Windows\SysWOW64\ifsutil".?CheckAndRemove@SPARSE_SET@@QAEEVBIG_INT@@PAE@Z
  ?CheckLinkList@TLINK@@QAEXXZ="C:\Windows\SysWOW64\ifsutil".?CheckLinkList@TLINK@@QAEXXZ
  ?CheckSnapshotPresence@SNAPSHOT@@QAEEXZ="C:\Windows\SysWOW64\ifsutil".?CheckSnapshotPresence@SNAPSHOT@@QAEEXZ
  ?CheckValidSecurityDescriptor@IFS_SYSTEM@@SGEKPAU_SECURITY_DESCRIPTOR@@@Z="C:\Windows\SysWOW64\ifsutil".?CheckValidSecurityDescriptor@IFS_SYSTEM@@SGEKPAU_SECURITY_DESCRIPTOR@@@Z
  ?ChkDsk@VOL_LIODPDRV@@QAEEW4FIX_LEVEL@@PAVMESSAGE@@KKGPAKPBVWSTRING@@@Z="C:\Windows\SysWOW64\ifsutil".?ChkDsk@VOL_LIODPDRV@@QAEEW4FIX_LEVEL@@PAVMESSAGE@@KKGPAKPBVWSTRING@@@Z
  ?CleanupBackingStore@WRITEVIEW_BACKINGSTORE@@SGEPAVWSTRING@@@Z="C:\Windows\SysWOW64\ifsutil".?CleanupBackingStore@WRITEVIEW_BACKINGSTORE@@SGEPAVWSTRING@@@Z
  ?CloseDriveHandle@DP_DRIVE@@QAEXXZ="C:\Windows\SysWOW64\ifsutil".?CloseDriveHandle@DP_DRIVE@@QAEXXZ
  ?ComputeVolId@SUPERAREA@@SGKK@Z="C:\Windows\SysWOW64\ifsutil".?ComputeVolId@SUPERAREA@@SGKK@Z
  ?CreateTrack@DP_DRIVE@@QAEEKEW4NwaType@1@@Z="C:\Windows\SysWOW64\ifsutil".?CreateTrack@DP_DRIVE@@QAEEKEW4NwaType@1@@Z
  ?CreateTrack@MEDIA_TRACK_INFORMATION@@QAEPAV1@KE@Z="C:\Windows\SysWOW64\ifsutil".?CreateTrack@MEDIA_TRACK_INFORMATION@@QAEPAV1@KE@Z
  ?Delete@WRITEVIEW_CACHE@@QAEXPAVWRITEVIEW_CACHE_ENTRY@@@Z="C:\Windows\SysWOW64\ifsutil".?Delete@WRITEVIEW_CACHE@@QAEXPAVWRITEVIEW_CACHE_ENTRY@@@Z
  ?DeleteEntry@AUTOREG@@SGEPBVWSTRING@@00@Z="C:\Windows\SysWOW64\ifsutil".?DeleteEntry@AUTOREG@@SGEPBVWSTRING@@00@Z
  ?DeleteEntry@AUTOREG@@SGEPBVWSTRING@@0@Z="C:\Windows\SysWOW64\ifsutil".?DeleteEntry@AUTOREG@@SGEPBVWSTRING@@0@Z
  ?DeleteEntry@AUTOREG@@SGEPBVWSTRING@@E@Z="C:\Windows\SysWOW64\ifsutil".?DeleteEntry@AUTOREG@@SGEPBVWSTRING@@E@Z
  ?Destroy@WRITEVIEW_CACHE@@QAEXXZ="C:\Windows\SysWOW64\ifsutil".?Destroy@WRITEVIEW_CACHE@@QAEXXZ
  ?DestroyWrites@WRITEVIEW_CACHE@@QAEXXZ="C:\Windows\SysWOW64\ifsutil".?DestroyWrites@WRITEVIEW_CACHE@@QAEXXZ
  ?DismountAndLock@IO_DP_DRIVE@@QAEEXZ="C:\Windows\SysWOW64\ifsutil".?DismountAndLock@IO_DP_DRIVE@@QAEEXZ
  ?DismountVolume@IFS_SYSTEM@@SGEPBVWSTRING@@@Z="C:\Windows\SysWOW64\ifsutil".?DismountVolume@IFS_SYSTEM@@SGEPBVWSTRING@@@Z
  ?DoesIntersectSet@NUMBER_SET@@QBEEVBIG_INT@@0@Z="C:\Windows\SysWOW64\ifsutil".?DoesIntersectSet@NUMBER_SET@@QBEEVBIG_INT@@0@Z
  ?DosDriveNameToNtDriveName@IFS_SYSTEM@@SGEPBVWSTRING@@PAV2@@Z="C:\Windows\SysWOW64\ifsutil".?DosDriveNameToNtDriveName@IFS_SYSTEM@@SGEPBVWSTRING@@PAV2@@Z
  ?DumpHashTable@SPARSE_SET@@QAEXXZ="C:\Windows\SysWOW64\ifsutil".?DumpHashTable@SPARSE_SET@@QAEXXZ
  ?EliminateCycles@DIGRAPH@@QAEEPAVCONTAINER@@PAE@Z="C:\Windows\SysWOW64\ifsutil".?EliminateCycles@DIGRAPH@@QAEEPAVCONTAINER@@PAE@Z
  ?EnableFileSystem@IFS_SYSTEM@@SGEPBVWSTRING@@@Z="C:\Windows\SysWOW64\ifsutil".?EnableFileSystem@IFS_SYSTEM@@SGEPBVWSTRING@@@Z
  ?EnableVolumeCompression@IFS_SYSTEM@@SGEPBVWSTRING@@@Z="C:\Windows\SysWOW64\ifsutil".?EnableVolumeCompression@IFS_SYSTEM@@SGEPBVWSTRING@@@Z
  ?EnableVolumeIntegrity@IFS_SYSTEM@@SGEPBVWSTRING@@G@Z="C:\Windows\SysWOW64\ifsutil".?EnableVolumeIntegrity@IFS_SYSTEM@@SGEPBVWSTRING@@G@Z
  ?EnableVolumeUpgrade@IFS_SYSTEM@@SGEPBVWSTRING@@@Z="C:\Windows\SysWOW64\ifsutil".?EnableVolumeUpgrade@IFS_SYSTEM@@SGEPBVWSTRING@@@Z
  ?Enumerate@NUMBER_SET@@QBEEEPAVBIG_INT@@0@Z="C:\Windows\SysWOW64\ifsutil".?Enumerate@NUMBER_SET@@QBEEEPAVBIG_INT@@0@Z
  ?Export@FORMAT_SQM@@QAEEH@Z="C:\Windows\SysWOW64\ifsutil".?Export@FORMAT_SQM@@QAEEH@Z
  ?FileSetAttributes@IFS_SYSTEM@@SGEPBVWSTRING@@KPAK@Z="C:\Windows\SysWOW64\ifsutil".?FileSetAttributes@IFS_SYSTEM@@SGEPBVWSTRING@@KPAK@Z
  ?FlushCache@IO_DP_DRIVE@@QAEEXZ="C:\Windows\SysWOW64\ifsutil".?FlushCache@IO_DP_DRIVE@@QAEEXZ
  ?ForceAutochk@VOL_LIODPDRV@@QAEEEKKGPBVWSTRING@@@Z="C:\Windows\SysWOW64\ifsutil".?ForceAutochk@VOL_LIODPDRV@@QAEEEKKGPBVWSTRING@@@Z
  ?Format@VOL_LIODPDRV@@QAE?AW4FORMAT_ERROR_CODE@@PBVWSTRING@@PAVMESSAGE@@KKK@Z="C:\Windows\SysWOW64\ifsutil".?Format@VOL_LIODPDRV@@QAE?AW4FORMAT_ERROR_CODE@@PBVWSTRING@@PAVMESSAGE@@KKK@Z
  ?FormatScaleQuickFormatVerify@IFS_SYSTEM@@SGE_KPAK11PA_K@Z="C:\Windows\SysWOW64\ifsutil".?FormatScaleQuickFormatVerify@IFS_SYSTEM@@SGE_KPAK11PA_K@Z
  ?FormatScaleTotalFreeClusters@IFS_SYSTEM@@SGE_K0PAK1PA_K2@Z="C:\Windows\SysWOW64\ifsutil".?FormatScaleTotalFreeClusters@IFS_SYSTEM@@SGE_K0PAK1PA_K2@Z
  ?GenerateLabelNotification@SUPERAREA@@SGJPBVWSTRING@@PAV2@PAU_FILE_FS_SIZE_INFORMATION@@PAU_FILE_FS_VOLUME_INFORMATION@@@Z="C:\Windows\SysWOW64\ifsutil".?GenerateLabelNotification@SUPERAREA@@SGJPBVWSTRING@@PAV2@PAU_FILE_FS_SIZE_INFORMATION@@PAU_FILE_FS_VOLUME_INFORMATION@@@Z
  ?GetAt@MOUNT_POINT_MAP@@QAEEKPAVWSTRING@@0@Z="C:\Windows\SysWOW64\ifsutil".?GetAt@MOUNT_POINT_MAP@@QAEEKPAVWSTRING@@0@Z
  ?GetAt@MOUNT_POINT_MAP@@QAEEKPAVWSTRING@@0PAE@Z="C:\Windows\SysWOW64\ifsutil".?GetAt@MOUNT_POINT_MAP@@QAEEKPAVWSTRING@@0PAE@Z
  ?GetBuffer@TLINK@@QAEPAXPAX@Z="C:\Windows\SysWOW64\ifsutil".?GetBuffer@TLINK@@QAEPAXPAX@Z
  ?GetCannedSecurity@IFS_SYSTEM@@SGPAVCANNED_SECURITY@@XZ="C:\Windows\SysWOW64\ifsutil".?GetCannedSecurity@IFS_SYSTEM@@SGPAVCANNED_SECURITY@@XZ
  ?GetCannedSecurityDescriptor@CANNED_SECURITY@@QAEPAXW4_CANNED_SECURITY_TYPE@@PAK@Z="C:\Windows\SysWOW64\ifsutil".?GetCannedSecurityDescriptor@CANNED_SECURITY@@QAEPAXW4_CANNED_SECURITY_TYPE@@PAK@Z
  ?GetCurrentSnapshot@SNAPSHOT@@SGPAV1@XZ="C:\Windows\SysWOW64\ifsutil".?GetCurrentSnapshot@SNAPSHOT@@SGPAV1@XZ
  ?GetData@TLINK@@QAEAAVBIG_INT@@G@Z="C:\Windows\SysWOW64\ifsutil".?GetData@TLINK@@QAEAAVBIG_INT@@G@Z
  ?GetData@TLINK@@QAEAAVBIG_INT@@PAX@Z="C:\Windows\SysWOW64\ifsutil".?GetData@TLINK@@QAEAAVBIG_INT@@PAX@Z
  ?GetDrive@SECRUN@@QAEPAVIO_DP_DRIVE@@XZ="C:\Windows\SysWOW64\ifsutil".?GetDrive@SECRUN@@QAEPAVIO_DP_DRIVE@@XZ
  ?GetDrive@SUPERAREA@@QAEPAVIO_DP_DRIVE@@XZ="C:\Windows\SysWOW64\ifsutil".?GetDrive@SUPERAREA@@QAEPAVIO_DP_DRIVE@@XZ
  ?GetFileSystemName@VOL_LIODPDRV@@QAEPBGXZ="C:\Windows\SysWOW64\ifsutil".?GetFileSystemName@VOL_LIODPDRV@@QAEPBGXZ
  ?GetFirst@TLINK@@QAEPAXXZ="C:\Windows\SysWOW64\ifsutil".?GetFirst@TLINK@@QAEPAXXZ
  ?GetIoErrorDisplayFlags@IO_DP_DRIVE@@QBEKXZ="C:\Windows\SysWOW64\ifsutil".?GetIoErrorDisplayFlags@IO_DP_DRIVE@@QBEKXZ
  ?GetMessageW@IO_DP_DRIVE@@QAEPAVMESSAGE@@XZ="C:\Windows\SysWOW64\ifsutil".?GetMessageW@IO_DP_DRIVE@@QAEPAVMESSAGE@@XZ
  ?GetMessageW@SUPERAREA@@QAEPAVMESSAGE@@XZ="C:\Windows\SysWOW64\ifsutil".?GetMessageW@SUPERAREA@@QAEPAVMESSAGE@@XZ
  ?GetNext@TLINK@@QAEPAXPAX@Z="C:\Windows\SysWOW64\ifsutil".?GetNext@TLINK@@QAEPAXPAX@Z
  ?GetNextDataSlot@TLINK@@QAEAAVBIG_INT@@XZ="C:\Windows\SysWOW64\ifsutil".?GetNextDataSlot@TLINK@@QAEAAVBIG_INT@@XZ
  ?GetPerfFreq@BLOCK_CACHE@@QAE_KXZ="C:\Windows\SysWOW64\ifsutil".?GetPerfFreq@BLOCK_CACHE@@QAE_KXZ
  ?GetPhaseSubPhase@DRIVE_CACHE@@SGXPAPAG0@Z="C:\Windows\SysWOW64\ifsutil".?GetPhaseSubPhase@DRIVE_CACHE@@SGXPAPAG0@Z
  ?GetSnapshotErrorMessage@SNAPSHOT@@SGEJPAVWSTRING@@@Z="C:\Windows\SysWOW64\ifsutil".?GetSnapshotErrorMessage@SNAPSHOT@@SGEJPAVWSTRING@@@Z
  ?GetSnapshotGlobalDeviceName@SNAPSHOT@@QAEPAGXZ="C:\Windows\SysWOW64\ifsutil".?GetSnapshotGlobalDeviceName@SNAPSHOT@@QAEPAGXZ
  ?GetSnapshotNtDeviceName@SNAPSHOT@@QAEPAGXZ="C:\Windows\SysWOW64\ifsutil".?GetSnapshotNtDeviceName@SNAPSHOT@@QAEPAGXZ
  ?GetSortedFirst@TLINK@@QAEPAXXZ="C:\Windows\SysWOW64\ifsutil".?GetSortedFirst@TLINK@@QAEPAXXZ
  ?GetSortedNext@TLINK@@QAEPAXPAX@Z="C:\Windows\SysWOW64\ifsutil".?GetSortedNext@TLINK@@QAEPAXPAX@Z
  ?GetSystemTime@IFS_SYSTEM@@SGXPAU_TIME_FIELDS@@@Z="C:\Windows\SysWOW64\ifsutil".?GetSystemTime@IFS_SYSTEM@@SGXPAU_TIME_FIELDS@@@Z
  ?GetVolumeSnapshot@SNAPSHOT@@SGJPAVWSTRING@@PAPAV1@@Z="C:\Windows\SysWOW64\ifsutil".?GetVolumeSnapshot@SNAPSHOT@@SGJPAVWSTRING@@PAPAV1@@Z
  ?HardRead@IO_DP_DRIVE@@QAEEVBIG_INT@@KPAX@Z="C:\Windows\SysWOW64\ifsutil".?HardRead@IO_DP_DRIVE@@QAEEVBIG_INT@@KPAX@Z
  ?HardWrite@IO_DP_DRIVE@@QAEEVBIG_INT@@KPAXE@Z="C:\Windows\SysWOW64\ifsutil".?HardWrite@IO_DP_DRIVE@@QAEEVBIG_INT@@KPAXE@Z
  ?Initialize@BLOCK_CACHE@@QAEEPAVIO_DP_DRIVE@@@Z="C:\Windows\SysWOW64\ifsutil".?Initialize@BLOCK_CACHE@@QAEEPAVIO_DP_DRIVE@@@Z
  ?Initialize@CANNED_SECURITY@@QAEEXZ="C:\Windows\SysWOW64\ifsutil".?Initialize@CANNED_SECURITY@@QAEEXZ
  ?Initialize@DIGRAPH@@QAEEK@Z="C:\Windows\SysWOW64\ifsutil".?Initialize@DIGRAPH@@QAEEK@Z
  ?Initialize@DP_DRIVE@@QAEEPBVWSTRING@@0PAVMESSAGE@@EE@Z="C:\Windows\SysWOW64\ifsutil".?Initialize@DP_DRIVE@@QAEEPBVWSTRING@@0PAVMESSAGE@@EE@Z
  ?Initialize@DP_DRIVE@@QAEEPBVWSTRING@@PAVMESSAGE@@EE@Z="C:\Windows\SysWOW64\ifsutil".?Initialize@DP_DRIVE@@QAEEPBVWSTRING@@PAVMESSAGE@@EE@Z
  ?Initialize@FORMAT_SQM@@QAEEPAVDP_DRIVE@@PBGKK@Z="C:\Windows\SysWOW64\ifsutil".?Initialize@FORMAT_SQM@@QAEEPAVDP_DRIVE@@PBGKK@Z
  ?Initialize@INTSTACK@@QAEEXZ="C:\Windows\SysWOW64\ifsutil".?Initialize@INTSTACK@@QAEEXZ
  ?Initialize@LOG_IO_DP_DRIVE@@QAEEPAXE@Z="C:\Windows\SysWOW64\ifsutil".?Initialize@LOG_IO_DP_DRIVE@@QAEEPAXE@Z
  ?Initialize@LOG_IO_DP_DRIVE@@QAEEPBVWSTRING@@0PAVMESSAGE@@E@Z="C:\Windows\SysWOW64\ifsutil".?Initialize@LOG_IO_DP_DRIVE@@QAEEPBVWSTRING@@0PAVMESSAGE@@E@Z
  ?Initialize@LOG_IO_DP_DRIVE@@QAEEPBVWSTRING@@PAVMESSAGE@@E@Z="C:\Windows\SysWOW64\ifsutil".?Initialize@LOG_IO_DP_DRIVE@@QAEEPBVWSTRING@@PAVMESSAGE@@E@Z
  ?Initialize@MEDIA_TRACK_INFORMATION@@QAEXPAU_TRACK_INFORMATION2@@@Z="C:\Windows\SysWOW64\ifsutil".?Initialize@MEDIA_TRACK_INFORMATION@@QAEXPAU_TRACK_INFORMATION2@@@Z
  ?Initialize@MEDIA_TRACK_INFORMATION_SORTED_BY_SIZE@@QAEXPAVMEDIA_TRACK_INFORMATION@@@Z="C:\Windows\SysWOW64\ifsutil".?Initialize@MEDIA_TRACK_INFORMATION_SORTED_BY_SIZE@@QAEXPAVMEDIA_TRACK_INFORMATION@@@Z
  ?Initialize@MOUNT_POINT_MAP@@QAEEXZ="C:\Windows\SysWOW64\ifsutil".?Initialize@MOUNT_POINT_MAP@@QAEEXZ
  ?Initialize@NUMBER_SET@@QAEEXZ="C:\Windows\SysWOW64\ifsutil".?Initialize@NUMBER_SET@@QAEEXZ
  ?Initialize@POW_CACHE@@QAEEKKKKK@Z="C:\Windows\SysWOW64\ifsutil".?Initialize@POW_CACHE@@QAEEKKKKK@Z
  ?Initialize@POW_CACHE@@QAEEPAVIO_DP_DRIVE@@@Z="C:\Windows\SysWOW64\ifsutil".?Initialize@POW_CACHE@@QAEEPAVIO_DP_DRIVE@@@Z
  ?Initialize@READ_AHEAD_CACHE@@QAEEPAVIO_DP_DRIVE@@KK@Z="C:\Windows\SysWOW64\ifsutil".?Initialize@READ_AHEAD_CACHE@@QAEEPAVIO_DP_DRIVE@@KK@Z
  ?Initialize@READ_CACHE@@QAEEPAVIO_DP_DRIVE@@K@Z="C:\Windows\SysWOW64\ifsutil".?Initialize@READ_CACHE@@QAEEPAVIO_DP_DRIVE@@K@Z
  ?Initialize@READ_MODIFY_WRITE_CACHE@@QAEEPAVIO_DP_DRIVE@@KKEE@Z="C:\Windows\SysWOW64\ifsutil".?Initialize@READ_MODIFY_WRITE_CACHE@@QAEEPAVIO_DP_DRIVE@@KKEE@Z
  ?Initialize@READ_WRITE_CACHE@@QAEEPAVIO_DP_DRIVE@@KE@Z="C:\Windows\SysWOW64\ifsutil".?Initialize@READ_WRITE_CACHE@@QAEEPAVIO_DP_DRIVE@@KE@Z
  ?Initialize@SECRUN@@QAEEPAVMEM@@PAVIO_DP_DRIVE@@VBIG_INT@@K@Z="C:\Windows\SysWOW64\ifsutil".?Initialize@SECRUN@@QAEEPAVMEM@@PAVIO_DP_DRIVE@@VBIG_INT@@K@Z
  ?Initialize@SNAPSHOT@@AAEJPAG@Z="C:\Windows\SysWOW64\ifsutil".?Initialize@SNAPSHOT@@AAEJPAG@Z
  ?Initialize@SPARSE_SET@@QAEEXZ="C:\Windows\SysWOW64\ifsutil".?Initialize@SPARSE_SET@@QAEEXZ
  ?Initialize@SUPERAREA@@IAEEPAVMEM@@PAVLOG_IO_DP_DRIVE@@KPAVMESSAGE@@@Z="C:\Windows\SysWOW64\ifsutil".?Initialize@SUPERAREA@@IAEEPAVMEM@@PAVLOG_IO_DP_DRIVE@@KPAVMESSAGE@@@Z
  ?Initialize@TLINK@@QAEEG@Z="C:\Windows\SysWOW64\ifsutil".?Initialize@TLINK@@QAEEG@Z
  ?Initialize@VOL_LIODPDRV@@IAE?AW4FORMAT_ERROR_CODE@@PBVWSTRING@@PAVSUPERAREA@@PAVMESSAGE@@EEW4_MEDIA_TYPE@@GEIE@Z="C:\Windows\SysWOW64\ifsutil".?Initialize@VOL_LIODPDRV@@IAE?AW4FORMAT_ERROR_CODE@@PBVWSTRING@@PAVSUPERAREA@@PAVMESSAGE@@EEW4_MEDIA_TYPE@@GEIE@Z
  ?Initialize@VOL_LIODPDRV@@IAEEPBVWSTRING@@0PAVSUPERAREA@@PAVMESSAGE@@E@Z="C:\Windows\SysWOW64\ifsutil".?Initialize@VOL_LIODPDRV@@IAEEPBVWSTRING@@0PAVSUPERAREA@@PAVMESSAGE@@E@Z
  ?Initialize@WRITEVIEW_CACHE@@QAEEPAVIO_DP_DRIVE@@PAVDRIVE_CACHE@@PBVWSTRING@@GEE@Z="C:\Windows\SysWOW64\ifsutil".?Initialize@WRITEVIEW_CACHE@@QAEEPAVIO_DP_DRIVE@@PAVDRIVE_CACHE@@PBVWSTRING@@GEE@Z
  ?Initialize@WRITE_ONCE_CACHE@@QAEEPAVIO_DP_DRIVE@@KKK@Z="C:\Windows\SysWOW64\ifsutil".?Initialize@WRITE_ONCE_CACHE@@QAEEPAVIO_DP_DRIVE@@KKK@Z
  ?InitializePowTrackConfiguration@DP_DRIVE@@QAEEEPAE@Z="C:\Windows\SysWOW64\ifsutil".?InitializePowTrackConfiguration@DP_DRIVE@@QAEEEPAE@Z
  ?InvalidateVolume@IO_DP_DRIVE@@QAEEXZ="C:\Windows\SysWOW64\ifsutil".?InvalidateVolume@IO_DP_DRIVE@@QAEEXZ
  ?IsArcSystemPartition@IFS_SYSTEM@@SGEPBVWSTRING@@PAE@Z="C:\Windows\SysWOW64\ifsutil".?IsArcSystemPartition@IFS_SYSTEM@@SGEPBVWSTRING@@PAE@Z
  ?IsBootCriticalVolume@DP_DRIVE@@QAEEXZ="C:\Windows\SysWOW64\ifsutil".?IsBootCriticalVolume@DP_DRIVE@@QAEEXZ
  ?IsDax@IO_DP_DRIVE@@QAEEXZ="C:\Windows\SysWOW64\ifsutil".?IsDax@IO_DP_DRIVE@@QAEEXZ
  ?IsEntryPresent@AUTOREG@@SGEPBVWSTRING@@0@Z="C:\Windows\SysWOW64\ifsutil".?IsEntryPresent@AUTOREG@@SGEPBVWSTRING@@0@Z
  ?IsEntryPresent@AUTOREG@@SGEPBVWSTRING@@@Z="C:\Windows\SysWOW64\ifsutil".?IsEntryPresent@AUTOREG@@SGEPBVWSTRING@@@Z
  ?IsFatalError@SNAPSHOT@@SGEJ@Z="C:\Windows\SysWOW64\ifsutil".?IsFatalError@SNAPSHOT@@SGEJ@Z
  ?IsFileSystemEnabled@IFS_SYSTEM@@SGEPBVWSTRING@@PAE@Z="C:\Windows\SysWOW64\ifsutil".?IsFileSystemEnabled@IFS_SYSTEM@@SGEPBVWSTRING@@PAE@Z
  ?IsFrontEndPresent@AUTOREG@@SGEPBVWSTRING@@0@Z="C:\Windows\SysWOW64\ifsutil".?IsFrontEndPresent@AUTOREG@@SGEPBVWSTRING@@0@Z
  ?IsLocked@IO_DP_DRIVE@@QAEEXZ="C:\Windows\SysWOW64\ifsutil".?IsLocked@IO_DP_DRIVE@@QAEEXZ
  ?IsMember@INTSTACK@@QBEEVBIG_INT@@@Z="C:\Windows\SysWOW64\ifsutil".?IsMember@INTSTACK@@QBEEVBIG_INT@@@Z
  ?IsThinlyProvisioned@DP_DRIVE@@QAEEXZ="C:\Windows\SysWOW64\ifsutil".?IsThinlyProvisioned@DP_DRIVE@@QAEEXZ
  ?IsThisNtfs@IFS_SYSTEM@@SGEVBIG_INT@@KPAX@Z="C:\Windows\SysWOW64\ifsutil".?IsThisNtfs@IFS_SYSTEM@@SGEVBIG_INT@@KPAX@Z
  ?IsThisReFS@IFS_SYSTEM@@SGEVBIG_INT@@KPAX@Z="C:\Windows\SysWOW64\ifsutil".?IsThisReFS@IFS_SYSTEM@@SGEVBIG_INT@@KPAX@Z
  ?IsTotalDeviceFailure@IFS_SYSTEM@@SGEJ@Z="C:\Windows\SysWOW64\ifsutil".?IsTotalDeviceFailure@IFS_SYSTEM@@SGEJ@Z
  ?IsUdfMediaWritable@DP_DRIVE@@QAEEXZ="C:\Windows\SysWOW64\ifsutil".?IsUdfMediaWritable@DP_DRIVE@@QAEEXZ
  ?IsVolumeDirty@IFS_SYSTEM@@SGEPAVWSTRING@@PAE1PAJ@Z="C:\Windows\SysWOW64\ifsutil".?IsVolumeDirty@IFS_SYSTEM@@SGEPAVWSTRING@@PAE1PAJ@Z
  ?IsVolumeWriteable@IFS_SYSTEM@@SGEPAVWSTRING@@PAEPAJ@Z="C:\Windows\SysWOW64\ifsutil".?IsVolumeWriteable@IFS_SYSTEM@@SGEPAVWSTRING@@PAEPAJ@Z
  ?IssueDeleteNotification@IO_DP_DRIVE@@QAEE_KK@Z="C:\Windows\SysWOW64\ifsutil".?IssueDeleteNotification@IO_DP_DRIVE@@QAEE_KK@Z
  ?Lock@IO_DP_DRIVE@@QAEEXZ="C:\Windows\SysWOW64\ifsutil".?Lock@IO_DP_DRIVE@@QAEEXZ
  ?Look@INTSTACK@@QBE?AVBIG_INT@@K@Z="C:\Windows\SysWOW64\ifsutil".?Look@INTSTACK@@QBE?AVBIG_INT@@K@Z
  ?NtDeviceNameToDosDriveName@IFS_SYSTEM@@SGEPBVWSTRING@@PAV2@@Z="C:\Windows\SysWOW64\ifsutil".?NtDeviceNameToDosDriveName@IFS_SYSTEM@@SGEPBVWSTRING@@PAV2@@Z
  ?NtDriveNameToDosDriveName@IFS_SYSTEM@@SGEPBVWSTRING@@PAV2@@Z="C:\Windows\SysWOW64\ifsutil".?NtDriveNameToDosDriveName@IFS_SYSTEM@@SGEPBVWSTRING@@PAV2@@Z
  ?Pop@INTSTACK@@QAEXK@Z="C:\Windows\SysWOW64\ifsutil".?Pop@INTSTACK@@QAEXK@Z
  ?PowForceAllocation@IO_DP_DRIVE@@QAEEKKPAKW4NwaType@DP_DRIVE@@@Z="C:\Windows\SysWOW64\ifsutil".?PowForceAllocation@IO_DP_DRIVE@@QAEEKKPAKW4NwaType@DP_DRIVE@@@Z
  ?Prefetch@IO_DP_DRIVE@@QAEEVBIG_INT@@K@Z="C:\Windows\SysWOW64\ifsutil".?Prefetch@IO_DP_DRIVE@@QAEEVBIG_INT@@K@Z
  ?Purge@WRITEVIEW_CACHE@@QAEXVBIG_INT@@K@Z="C:\Windows\SysWOW64\ifsutil".?Purge@WRITEVIEW_CACHE@@QAEXVBIG_INT@@K@Z
  ?Push@INTSTACK@@QAEEVBIG_INT@@@Z="C:\Windows\SysWOW64\ifsutil".?Push@INTSTACK@@QAEEVBIG_INT@@@Z
  ?PushEntry@AUTOREG@@SGEPBVWSTRING@@@Z="C:\Windows\SysWOW64\ifsutil".?PushEntry@AUTOREG@@SGEPBVWSTRING@@@Z
  ?QueryAutochkTimeOut@VOL_LIODPDRV@@SGEPAK@Z="C:\Windows\SysWOW64\ifsutil".?QueryAutochkTimeOut@VOL_LIODPDRV@@SGEPAK@Z
  ?QueryCacheSize@BLOCK_CACHE@@UAEXPA_K0@Z="C:\Windows\SysWOW64\ifsutil".?QueryCacheSize@BLOCK_CACHE@@UAEXPA_K0@Z
  ?QueryCacheSize@IO_DP_DRIVE@@QAEXPA_K0@Z="C:\Windows\SysWOW64\ifsutil".?QueryCacheSize@IO_DP_DRIVE@@QAEXPA_K0@Z
  ?QueryCacheSize@WRITEVIEW_CACHE@@UAEXPA_K0@Z="C:\Windows\SysWOW64\ifsutil".?QueryCacheSize@WRITEVIEW_CACHE@@UAEXPA_K0@Z
  ?QueryCanonicalNtDriveName@IFS_SYSTEM@@SGEPBVWSTRING@@PAV2@@Z="C:\Windows\SysWOW64\ifsutil".?QueryCanonicalNtDriveName@IFS_SYSTEM@@SGEPBVWSTRING@@PAV2@@Z
  ?QueryChildren@DIGRAPH@@QBEEKPAVNUMBER_SET@@@Z="C:\Windows\SysWOW64\ifsutil".?QueryChildren@DIGRAPH@@QBEEKPAVNUMBER_SET@@@Z
  ?QueryCluster@IFS_SYSTEM@@SGEPAE@Z="C:\Windows\SysWOW64\ifsutil".?QueryCluster@IFS_SYSTEM@@SGEPAE@Z
  ?QueryClusterFunctionalLevel@IFS_SYSTEM@@SGEPAK0@Z="C:\Windows\SysWOW64\ifsutil".?QueryClusterFunctionalLevel@IFS_SYSTEM@@SGEPAK0@Z
  ?QueryCompressedInteger@BIG_INT@@QBEXPAE0@Z="C:\Windows\SysWOW64\ifsutil".?QueryCompressedInteger@BIG_INT@@QBEXPAE0@Z
  ?QueryContainingRange@NUMBER_SET@@QBEEVBIG_INT@@PAV2@1@Z="C:\Windows\SysWOW64\ifsutil".?QueryContainingRange@NUMBER_SET@@QBEEVBIG_INT@@PAV2@1@Z
  ?QueryCorruptionState@IFS_SYSTEM@@SGEPAVWSTRING@@PAKPAEPAJ@Z="C:\Windows\SysWOW64\ifsutil".?QueryCorruptionState@IFS_SYSTEM@@SGEPAVWSTRING@@PAKPAEPAJ@Z
  ?QueryDataRedundancyCount@DP_DRIVE@@UAEJPAK0@Z="C:\Windows\SysWOW64\ifsutil".?QueryDataRedundancyCount@DP_DRIVE@@UAEJPAK0@Z
  ?QueryDiscStatus@DP_DRIVE@@QAEEPAK0@Z="C:\Windows\SysWOW64\ifsutil".?QueryDiscStatus@DP_DRIVE@@QAEEPAK0@Z
  ?QueryDisjointRange@NUMBER_SET@@QBEXKPAVBIG_INT@@0@Z="C:\Windows\SysWOW64\ifsutil".?QueryDisjointRange@NUMBER_SET@@QBEXKPAVBIG_INT@@0@Z
  ?QueryDisjointRangeAndAssignBuffer@TLINK@@QAEPAXPAVBIG_INT@@PAG1PAXK2@Z="C:\Windows\SysWOW64\ifsutil".?QueryDisjointRangeAndAssignBuffer@TLINK@@QAEPAXPAVBIG_INT@@PAG1PAXK2@Z
  ?QueryDriveHandle@DP_DRIVE@@QBEPAXXZ="C:\Windows\SysWOW64\ifsutil".?QueryDriveHandle@DP_DRIVE@@QBEPAXXZ
  ?QueryDriveName@MOUNT_POINT_MAP@@QAEEPAVWSTRING@@0@Z="C:\Windows\SysWOW64\ifsutil".?QueryDriveName@MOUNT_POINT_MAP@@QAEEPAVWSTRING@@0@Z
  ?QueryDriveType@DP_DRIVE@@QBE?AW4DRIVE_TYPE@@XZ="C:\Windows\SysWOW64\ifsutil".?QueryDriveType@DP_DRIVE@@QBE?AW4DRIVE_TYPE@@XZ
  ?QueryEccBlockSizeInSectors@DP_DRIVE@@QAEGXZ="C:\Windows\SysWOW64\ifsutil".?QueryEccBlockSizeInSectors@DP_DRIVE@@QAEGXZ
  ?QueryFileSystemName@IFS_SYSTEM@@SGEPBVWSTRING@@PAV2@PAJ1@Z="C:\Windows\SysWOW64\ifsutil".?QueryFileSystemName@IFS_SYSTEM@@SGEPBVWSTRING@@PAV2@PAJ1@Z
  ?QueryFileSystemNameByHandle@IFS_SYSTEM@@SGEPAXPAVWSTRING@@PAJ1@Z="C:\Windows\SysWOW64\ifsutil".?QueryFileSystemNameByHandle@IFS_SYSTEM@@SGEPAXPAVWSTRING@@PAJ1@Z
  ?QueryFirstBlockInLastNonEmptySession@DP_DRIVE@@QAEEPAK@Z="C:\Windows\SysWOW64\ifsutil".?QueryFirstBlockInLastNonEmptySession@DP_DRIVE@@QAEEPAK@Z
  ?QueryFirstBlockInLastSession@DP_DRIVE@@QAEEPAK@Z="C:\Windows\SysWOW64\ifsutil".?QueryFirstBlockInLastSession@DP_DRIVE@@QAEEPAK@Z
  ?QueryFreeBlocksInLastTrack@DP_DRIVE@@QAEEPAK@Z="C:\Windows\SysWOW64\ifsutil".?QueryFreeBlocksInLastTrack@DP_DRIVE@@QAEEPAK@Z
  ?QueryFreeBlocksInLastTrack@DP_DRIVE@@SGEPAXPAK@Z="C:\Windows\SysWOW64\ifsutil".?QueryFreeBlocksInLastTrack@DP_DRIVE@@SGEPAXPAK@Z
  ?QueryFreeDiskSpace@IFS_SYSTEM@@SGEPBVWSTRING@@PAVBIG_INT@@@Z="C:\Windows\SysWOW64\ifsutil".?QueryFreeDiskSpace@IFS_SYSTEM@@SGEPBVWSTRING@@PAVBIG_INT@@@Z
  ?QueryHighestTrackAddress@DP_DRIVE@@QAEEPAK@Z="C:\Windows\SysWOW64\ifsutil".?QueryHighestTrackAddress@DP_DRIVE@@QAEEPAK@Z
  ?QueryHotPlugInfo@DP_DRIVE@@QBEEXZ="C:\Windows\SysWOW64\ifsutil".?QueryHotPlugInfo@DP_DRIVE@@QBEEXZ
  ?QueryID@DP_DRIVE@@QAEEPAU_GUID@@PBVWSTRING@@@Z="C:\Windows\SysWOW64\ifsutil".?QueryID@DP_DRIVE@@QAEEPAU_GUID@@PBVWSTRING@@@Z
  ?QueryID@DP_DRIVE@@QAEEPAVWSTRING@@PBV2@@Z="C:\Windows\SysWOW64\ifsutil".?QueryID@DP_DRIVE@@QAEEPAVWSTRING@@PBV2@@Z
  ?QueryIsSystemPartition@MOUNT_POINT_MAP@@QAEEPAVWSTRING@@PAE@Z="C:\Windows\SysWOW64\ifsutil".?QueryIsSystemPartition@MOUNT_POINT_MAP@@QAEEPAVWSTRING@@PAE@Z
  ?QueryIsSystemUEFI@IFS_SYSTEM@@SGEXZ="C:\Windows\SysWOW64\ifsutil".?QueryIsSystemUEFI@IFS_SYSTEM@@SGEXZ
  ?QueryLastRecordedAddress@DP_DRIVE@@QAEEPAK@Z="C:\Windows\SysWOW64\ifsutil".?QueryLastRecordedAddress@DP_DRIVE@@QAEEPAK@Z
  ?QueryLastWritableAddress@DP_DRIVE@@QAEEPAKW4NwaType@1@@Z="C:\Windows\SysWOW64\ifsutil".?QueryLastWritableAddress@DP_DRIVE@@QAEEPAKW4NwaType@1@@Z
  ?QueryMediaByte@DP_DRIVE@@QBEEXZ="C:\Windows\SysWOW64\ifsutil".?QueryMediaByte@DP_DRIVE@@QBEEXZ
  ?QueryMemberCount@TLINK@@QBEGXZ="C:\Windows\SysWOW64\ifsutil".?QueryMemberCount@TLINK@@QBEGXZ
  ?QueryMemoryLimit@IO_DP_DRIVE@@QAEEPA_KPAE@Z="C:\Windows\SysWOW64\ifsutil".?QueryMemoryLimit@IO_DP_DRIVE@@QAEEPA_KPAE@Z
  ?QueryMemoryLimit@WRITEVIEW_CACHE@@UAEEPA_KPAE@Z="C:\Windows\SysWOW64\ifsutil".?QueryMemoryLimit@WRITEVIEW_CACHE@@UAEEPA_KPAE@Z
  ?QueryMrwSupport@DP_DRIVE@@SGEPAX@Z="C:\Windows\SysWOW64\ifsutil".?QueryMrwSupport@DP_DRIVE@@SGEPAX@Z
  ?QueryNextWritableAddress@DP_DRIVE@@QAEEPAKW4NwaType@1@@Z="C:\Windows\SysWOW64\ifsutil".?QueryNextWritableAddress@DP_DRIVE@@QAEEPAKW4NwaType@1@@Z
  ?QueryNtfsSupportInfo@DP_DRIVE@@SGJPAXPAE@Z="C:\Windows\SysWOW64\ifsutil".?QueryNtfsSupportInfo@DP_DRIVE@@SGJPAXPAE@Z
  ?QueryNtfsTime@IFS_SYSTEM@@SGXPAT_LARGE_INTEGER@@@Z="C:\Windows\SysWOW64\ifsutil".?QueryNtfsTime@IFS_SYSTEM@@SGXPAT_LARGE_INTEGER@@@Z
  ?QueryNtfsVersion@IFS_SYSTEM@@SGEPAE0PAVLOG_IO_DP_DRIVE@@PAX@Z="C:\Windows\SysWOW64\ifsutil".?QueryNtfsVersion@IFS_SYSTEM@@SGEPAE0PAVLOG_IO_DP_DRIVE@@PAX@Z
  ?QueryNumChildren@DIGRAPH@@QBEKK@Z="C:\Windows\SysWOW64\ifsutil".?QueryNumChildren@DIGRAPH@@QBEKK@Z
  ?QueryNumParents@DIGRAPH@@QBEKK@Z="C:\Windows\SysWOW64\ifsutil".?QueryNumParents@DIGRAPH@@QBEKK@Z
  ?QueryNumber@NUMBER_SET@@QBE?AVBIG_INT@@V2@@Z="C:\Windows\SysWOW64\ifsutil".?QueryNumber@NUMBER_SET@@QBE?AVBIG_INT@@V2@@Z
  ?QueryOpenSessionBounds@DP_DRIVE@@QAEEPAK0@Z="C:\Windows\SysWOW64\ifsutil".?QueryOpenSessionBounds@DP_DRIVE@@QAEEPAK0@Z
  ?QueryPageSize@IFS_SYSTEM@@SGKXZ="C:\Windows\SysWOW64\ifsutil".?QueryPageSize@IFS_SYSTEM@@SGKXZ
  ?QueryParents@DIGRAPH@@QBEEKPAVNUMBER_SET@@@Z="C:\Windows\SysWOW64\ifsutil".?QueryParents@DIGRAPH@@QBEEKPAVNUMBER_SET@@@Z
  ?QueryParentsWithChildren@DIGRAPH@@QBEEPAVNUMBER_SET@@K@Z="C:\Windows\SysWOW64\ifsutil".?QueryParentsWithChildren@DIGRAPH@@QBEEPAVNUMBER_SET@@K@Z
  ?QueryPartitionInfo@DP_DRIVE@@UAEEPAU_PARTITION_INFORMATION_EX@@@Z="C:\Windows\SysWOW64\ifsutil".?QueryPartitionInfo@DP_DRIVE@@UAEEPAU_PARTITION_INFORMATION_EX@@@Z
  ?QueryPersistentVolumeFlags@IFS_SYSTEM@@SGEPAVWSTRING@@KPAKPAEPAJ@Z="C:\Windows\SysWOW64\ifsutil".?QueryPersistentVolumeFlags@IFS_SYSTEM@@SGEPAVWSTRING@@KPAKPAEPAJ@Z
  ?QueryPhysicalSectorSize@DP_DRIVE@@QAEKXZ="C:\Windows\SysWOW64\ifsutil".?QueryPhysicalSectorSize@DP_DRIVE@@QAEKXZ
  ?QueryProcessPrivateMemory@IFS_SYSTEM@@SGEPAXPA_K@Z="C:\Windows\SysWOW64\ifsutil".?QueryProcessPrivateMemory@IFS_SYSTEM@@SGEPAXPA_K@Z
  ?QueryProcessorInformation@IFS_SYSTEM@@SGEPAVDSTRING@@PAKPA_K@Z="C:\Windows\SysWOW64\ifsutil".?QueryProcessorInformation@IFS_SYSTEM@@SGEPAVDSTRING@@PAKPA_K@Z
  ?QueryReadAndVerifiedUsage@IO_DP_DRIVE@@QAEXPA_K0@Z="C:\Windows\SysWOW64\ifsutil".?QueryReadAndVerifiedUsage@IO_DP_DRIVE@@QAEXPA_K0@Z
  ?QueryReadCacheSize@DP_DRIVE@@UAEJPA_K@Z="C:\Windows\SysWOW64\ifsutil".?QueryReadCacheSize@DP_DRIVE@@UAEJPA_K@Z
  ?QueryReadUsage@IO_DP_DRIVE@@QAEXPA_K0@Z="C:\Windows\SysWOW64\ifsutil".?QueryReadUsage@IO_DP_DRIVE@@QAEXPA_K0@Z
  ?QueryRecommendedMediaType@DP_DRIVE@@QBE?AW4_MEDIA_TYPE@@XZ="C:\Windows\SysWOW64\ifsutil".?QueryRecommendedMediaType@DP_DRIVE@@QBE?AW4_MEDIA_TYPE@@XZ
  ?QueryRewritableMOSupport@DP_DRIVE@@QAEEXZ="C:\Windows\SysWOW64\ifsutil".?QueryRewritableMOSupport@DP_DRIVE@@QAEEXZ
  ?QuerySectorSize@DP_DRIVE@@UBEKXZ="C:\Windows\SysWOW64\ifsutil".?QuerySectorSize@DP_DRIVE@@UBEKXZ
  ?QuerySectorSize@POW_CACHE@@QAEKXZ="C:\Windows\SysWOW64\ifsutil".?QuerySectorSize@POW_CACHE@@QAEKXZ
  ?QuerySectors@DP_DRIVE@@UBE?AVBIG_INT@@XZ="C:\Windows\SysWOW64\ifsutil".?QuerySectors@DP_DRIVE@@UBE?AVBIG_INT@@XZ
  ?QueryServer@IFS_SYSTEM@@SGEPAE@Z="C:\Windows\SysWOW64\ifsutil".?QueryServer@IFS_SYSTEM@@SGEPAE@Z
  ?QuerySize@TLINK@@QBEGXZ="C:\Windows\SysWOW64\ifsutil".?QuerySize@TLINK@@QBEGXZ
  ?QuerySnapshotDiffAreaVolume@SNAPSHOT@@QAEEPAVWSTRING@@@Z="C:\Windows\SysWOW64\ifsutil".?QuerySnapshotDiffAreaVolume@SNAPSHOT@@QAEEPAVWSTRING@@@Z
  ?QueryStorageAdapterProperty@IFS_SYSTEM@@SGEPAXPAVDSTRING@@1@Z="C:\Windows\SysWOW64\ifsutil".?QueryStorageAdapterProperty@IFS_SYSTEM@@SGEPAXPAVDSTRING@@1@Z
  ?QueryStorageDeviceProperty@IFS_SYSTEM@@SGEPAXPAVDSTRING@@11PAE2@Z="C:\Windows\SysWOW64\ifsutil".?QueryStorageDeviceProperty@IFS_SYSTEM@@SGEPAXPAVDSTRING@@11PAE2@Z
  ?QuerySystemMemory@IFS_SYSTEM@@SGEPAKPA_K11@Z="C:\Windows\SysWOW64\ifsutil".?QuerySystemMemory@IFS_SYSTEM@@SGEPAKPA_K11@Z
  ?QuerySystemVersion@IFS_SYSTEM@@SGEPAVDSTRING@@@Z="C:\Windows\SysWOW64\ifsutil".?QuerySystemVersion@IFS_SYSTEM@@SGEPAVDSTRING@@@Z
  ?QueryTierCount@DP_DRIVE@@UAEJPAK@Z="C:\Windows\SysWOW64\ifsutil".?QueryTierCount@DP_DRIVE@@UAEJPAK@Z
  ?QueryUdfMediaHasPow@DP_DRIVE@@QAEEXZ="C:\Windows\SysWOW64\ifsutil".?QueryUdfMediaHasPow@DP_DRIVE@@QAEEXZ
  ?QueryUdfMediaNeedsLowLevelFormat@DP_DRIVE@@QAEEXZ="C:\Windows\SysWOW64\ifsutil".?QueryUdfMediaNeedsLowLevelFormat@DP_DRIVE@@QAEEXZ
  ?QueryUdfMediaNeedsSparing@DP_DRIVE@@QAEEXZ="C:\Windows\SysWOW64\ifsutil".?QueryUdfMediaNeedsSparing@DP_DRIVE@@QAEEXZ
  ?QueryUdfMediaNeedsVat@DP_DRIVE@@QAEEXZ="C:\Windows\SysWOW64\ifsutil".?QueryUdfMediaNeedsVat@DP_DRIVE@@QAEEXZ
  ?QueryUdfMediaSupportsBackgroundFormat@DP_DRIVE@@QAEEXZ="C:\Windows\SysWOW64\ifsutil".?QueryUdfMediaSupportsBackgroundFormat@DP_DRIVE@@QAEEXZ
  ?QueryUdfMediaSupportsQuickGrow@DP_DRIVE@@QAEEXZ="C:\Windows\SysWOW64\ifsutil".?QueryUdfMediaSupportsQuickGrow@DP_DRIVE@@QAEEXZ
  ?QueryUdfMediaType@DP_DRIVE@@QAEKXZ="C:\Windows\SysWOW64\ifsutil".?QueryUdfMediaType@DP_DRIVE@@QAEKXZ
  ?QueryVerifyHandle@IO_DP_DRIVE@@QAEPAXXZ="C:\Windows\SysWOW64\ifsutil".?QueryVerifyHandle@IO_DP_DRIVE@@QAEPAXXZ
  ?QueryVolumeBounds@DP_DRIVE@@QAEEPAK0@Z="C:\Windows\SysWOW64\ifsutil".?QueryVolumeBounds@DP_DRIVE@@QAEEPAK0@Z
  ?QueryVolumeName@MOUNT_POINT_MAP@@QAEEPAVWSTRING@@0@Z="C:\Windows\SysWOW64\ifsutil".?QueryVolumeName@MOUNT_POINT_MAP@@QAEEPAVWSTRING@@0@Z
  ?QueryVolumeSize@IFS_SYSTEM@@SGEPBVWSTRING@@PA_K@Z="C:\Windows\SysWOW64\ifsutil".?QueryVolumeSize@IFS_SYSTEM@@SGEPBVWSTRING@@PA_K@Z
  ?QueryWriteBlockSize@DP_DRIVE@@UBEKXZ="C:\Windows\SysWOW64\ifsutil".?QueryWriteBlockSize@DP_DRIVE@@UBEKXZ
  ?QueryWriteUsage@IO_DP_DRIVE@@QAEXPA_K0@Z="C:\Windows\SysWOW64\ifsutil".?QueryWriteUsage@IO_DP_DRIVE@@QAEXPA_K0@Z
  ?Read@IO_DP_DRIVE@@QAEEVBIG_INT@@KPAX@Z="C:\Windows\SysWOW64\ifsutil".?Read@IO_DP_DRIVE@@QAEEVBIG_INT@@KPAX@Z
  ?Read@SECRUN@@UAEEXZ="C:\Windows\SysWOW64\ifsutil".?Read@SECRUN@@UAEEXZ
  ?ReadFormattableCapacity@DP_DRIVE@@QAEEEPAKPAE0@Z="C:\Windows\SysWOW64\ifsutil".?ReadFormattableCapacity@DP_DRIVE@@QAEEEPAKPAE0@Z
  ?Recover@VOL_LIODPDRV@@QAEEPBVWSTRING@@PAVMESSAGE@@@Z="C:\Windows\SysWOW64\ifsutil".?Recover@VOL_LIODPDRV@@QAEEPBVWSTRING@@PAVMESSAGE@@@Z
  ?ReinitializeDriveParameters@DP_DRIVE@@QAEEPAVMESSAGE@@@Z="C:\Windows\SysWOW64\ifsutil".?ReinitializeDriveParameters@DP_DRIVE@@QAEEPAVMESSAGE@@@Z
  ?ReinitiateBackgroundFormat@DP_DRIVE@@QAEEXZ="C:\Windows\SysWOW64\ifsutil".?ReinitiateBackgroundFormat@DP_DRIVE@@QAEEXZ
  ?ReleaseVolumeSnapshot@SNAPSHOT@@SGEPAV1@@Z="C:\Windows\SysWOW64\ifsutil".?ReleaseVolumeSnapshot@SNAPSHOT@@SGEPAV1@@Z
  ?Remove@NUMBER_SET@@QAEEPBV1@@Z="C:\Windows\SysWOW64\ifsutil".?Remove@NUMBER_SET@@QAEEPBV1@@Z
  ?Remove@NUMBER_SET@@QAEEVBIG_INT@@0@Z="C:\Windows\SysWOW64\ifsutil".?Remove@NUMBER_SET@@QAEEVBIG_INT@@0@Z
  ?Remove@NUMBER_SET@@QAEEVBIG_INT@@@Z="C:\Windows\SysWOW64\ifsutil".?Remove@NUMBER_SET@@QAEEVBIG_INT@@@Z
  ?Remove@WRITEVIEW_CACHE@@QAEXPAVWRITEVIEW_CACHE_ENTRY@@@Z="C:\Windows\SysWOW64\ifsutil".?Remove@WRITEVIEW_CACHE@@QAEXPAVWRITEVIEW_CACHE_ENTRY@@@Z
  ?RemoveAll@NUMBER_SET@@QAEEXZ="C:\Windows\SysWOW64\ifsutil".?RemoveAll@NUMBER_SET@@QAEEXZ
  ?RemoveAll@SPARSE_SET@@QAEEXZ="C:\Windows\SysWOW64\ifsutil".?RemoveAll@SPARSE_SET@@QAEEXZ
  ?RemoveEdge@DIGRAPH@@QAEEKK@Z="C:\Windows\SysWOW64\ifsutil".?RemoveEdge@DIGRAPH@@QAEEKK@Z
  ?ReverseCopy@INTSTACK@@QAEEPAV1@@Z="C:\Windows\SysWOW64\ifsutil".?ReverseCopy@INTSTACK@@QAEEPAV1@@Z
  ?SearchForMatch@DIGRAPH@@QAEEKPAVBITVECTOR@@PAVNUMBER_SET@@PAEPAVBIG_INT@@@Z="C:\Windows\SysWOW64\ifsutil".?SearchForMatch@DIGRAPH@@QAEEKPAVBITVECTOR@@PAVNUMBER_SET@@PAEPAVBIG_INT@@@Z
  ?SendPowLowLevelFormat@DP_DRIVE@@QAEEPAVMESSAGE@@@Z="C:\Windows\SysWOW64\ifsutil".?SendPowLowLevelFormat@DP_DRIVE@@QAEEPAVMESSAGE@@@Z
  ?SendSonyMSFormatCmd@DP_DRIVE@@QAEEE@Z="C:\Windows\SysWOW64\ifsutil".?SendSonyMSFormatCmd@DP_DRIVE@@QAEEE@Z
  ?SendSonyMSInquiryCmd@DP_DRIVE@@QAEEPAUSONY_MS_INQUIRY_DATA@@@Z="C:\Windows\SysWOW64\ifsutil".?SendSonyMSInquiryCmd@DP_DRIVE@@QAEEPAUSONY_MS_INQUIRY_DATA@@@Z
  ?SendSonyMSModeSenseCmd@DP_DRIVE@@QAEEPAUSONY_MS_MODE_SENSE_DATA@@@Z="C:\Windows\SysWOW64\ifsutil".?SendSonyMSModeSenseCmd@DP_DRIVE@@QAEEPAUSONY_MS_MODE_SENSE_DATA@@@Z
  ?SendSonyMSRequestSenseCmd@DP_DRIVE@@QAEEPAU_SENSE_DATA@@@Z="C:\Windows\SysWOW64\ifsutil".?SendSonyMSRequestSenseCmd@DP_DRIVE@@QAEEPAU_SENSE_DATA@@@Z
  ?SendSonyMSTestUnitReadyCmd@DP_DRIVE@@QAEEPAU_SENSE_DATA@@@Z="C:\Windows\SysWOW64\ifsutil".?SendSonyMSTestUnitReadyCmd@DP_DRIVE@@QAEEPAU_SENSE_DATA@@@Z
  ?Set@BIG_INT@@QAEXEPBE@Z="C:\Windows\SysWOW64\ifsutil".?Set@BIG_INT@@QAEXEPBE@Z
  ?SetAutochkTimeOut@VOL_LIODPDRV@@SGEK@Z="C:\Windows\SysWOW64\ifsutil".?SetAutochkTimeOut@VOL_LIODPDRV@@SGEK@Z
  ?SetCache@IO_DP_DRIVE@@QAEXPAVDRIVE_CACHE@@@Z="C:\Windows\SysWOW64\ifsutil".?SetCache@IO_DP_DRIVE@@QAEXPAVDRIVE_CACHE@@@Z
  ?SetDaxAttribute@IO_DP_DRIVE@@QAE?AW4FORMAT_ERROR_CODE@@E@Z="C:\Windows\SysWOW64\ifsutil".?SetDaxAttribute@IO_DP_DRIVE@@QAE?AW4FORMAT_ERROR_CODE@@E@Z
  ?SetFileSystemName@VOL_LIODPDRV@@QAEEPBG@Z="C:\Windows\SysWOW64\ifsutil".?SetFileSystemName@VOL_LIODPDRV@@QAEEPBG@Z
  ?SetIoErrorDisplayFlags@IO_DP_DRIVE@@QAEXK@Z="C:\Windows\SysWOW64\ifsutil".?SetIoErrorDisplayFlags@IO_DP_DRIVE@@QAEXK@Z
  ?SetIsSystemPartition@MOUNT_POINT_MAP@@QAEEPAVWSTRING@@E@Z="C:\Windows\SysWOW64\ifsutil".?SetIsSystemPartition@MOUNT_POINT_MAP@@QAEEPAVWSTRING@@E@Z
  ?SetLastStatus@DP_DRIVE@@QAEXJ@Z="C:\Windows\SysWOW64\ifsutil".?SetLastStatus@DP_DRIVE@@QAEXJ@Z
  ?SetPersistentVolumeFlags@IFS_SYSTEM@@SGEPAVWSTRING@@KKPAEPAJ@Z="C:\Windows\SysWOW64\ifsutil".?SetPersistentVolumeFlags@IFS_SYSTEM@@SGEPAVWSTRING@@KKPAEPAJ@Z
  ?SetPhaseSubPhase@DRIVE_CACHE@@SGXPAG0@Z="C:\Windows\SysWOW64\ifsutil".?SetPhaseSubPhase@DRIVE_CACHE@@SGXPAG0@Z
  ?SetPowTrackConfiguration@DP_DRIVE@@QAEEE@Z="C:\Windows\SysWOW64\ifsutil".?SetPowTrackConfiguration@DP_DRIVE@@QAEEE@Z
  ?SetSectors@DP_DRIVE@@QAEXVBIG_INT@@@Z="C:\Windows\SysWOW64\ifsutil".?SetSectors@DP_DRIVE@@QAEXVBIG_INT@@@Z
  ?SetSystemId@LOG_IO_DP_DRIVE@@QAEEE@Z="C:\Windows\SysWOW64\ifsutil".?SetSystemId@LOG_IO_DP_DRIVE@@QAEEE@Z
  ?SetVerifyHandle@IO_DP_DRIVE@@QAEPAXPAX@Z="C:\Windows\SysWOW64\ifsutil".?SetVerifyHandle@IO_DP_DRIVE@@QAEPAXPAX@Z
  ?SetVolumeLabelAndPrintFormatReport@VOL_LIODPDRV@@QAEEPBVWSTRING@@PAVMESSAGE@@@Z="C:\Windows\SysWOW64\ifsutil".?SetVolumeLabelAndPrintFormatReport@VOL_LIODPDRV@@QAEEPBVWSTRING@@PAVMESSAGE@@@Z
  ?ShellSort@TLINK@@QAEXXZ="C:\Windows\SysWOW64\ifsutil".?ShellSort@TLINK@@QAEXXZ
  ?Sort@TLINK@@QAEXXZ="C:\Windows\SysWOW64\ifsutil".?Sort@TLINK@@QAEXXZ
  ?SqmExport@BLOCK_CACHE@@UAEEP6AEPAXKEPADZZ0@Z="C:\Windows\SysWOW64\ifsutil".?SqmExport@BLOCK_CACHE@@UAEEP6AEPAXKEPADZZ0@Z
  ?SqmExport@IO_DP_DRIVE@@QAEEPBVWSTRING@@P6AEPAXKEPADZZ1@Z="C:\Windows\SysWOW64\ifsutil".?SqmExport@IO_DP_DRIVE@@QAEEPBVWSTRING@@P6AEPAXKEPADZZ1@Z
  ?SqmExport@WRITEVIEW_CACHE@@UAEEP6AEPAXKEPADZZ0@Z="C:\Windows\SysWOW64\ifsutil".?SqmExport@WRITEVIEW_CACHE@@UAEEP6AEPAXKEPADZZ0@Z
  ?Subtract@NUMBER_SET@@QAEEPAV1@0@Z="C:\Windows\SysWOW64\ifsutil".?Subtract@NUMBER_SET@@QAEEPAV1@0@Z
  ?TraverseLinkList@TLINK@@QAEXXZ="C:\Windows\SysWOW64\ifsutil".?TraverseLinkList@TLINK@@QAEXXZ
  ?Verify@IO_DP_DRIVE@@QAEEVBIG_INT@@0@Z="C:\Windows\SysWOW64\ifsutil".?Verify@IO_DP_DRIVE@@QAEEVBIG_INT@@0@Z
  ?Verify@IO_DP_DRIVE@@QAEEVBIG_INT@@0PAVNUMBER_SET@@@Z="C:\Windows\SysWOW64\ifsutil".?Verify@IO_DP_DRIVE@@QAEEVBIG_INT@@0PAVNUMBER_SET@@@Z
  ?VerifyRead@IO_DP_DRIVE@@QAEEVBIG_INT@@KPAX@Z="C:\Windows\SysWOW64\ifsutil".?VerifyRead@IO_DP_DRIVE@@QAEEVBIG_INT@@KPAX@Z
  ?VerifyRead@SECRUN@@UAEEPAE@Z="C:\Windows\SysWOW64\ifsutil".?VerifyRead@SECRUN@@UAEEPAE@Z
  ?WaitForUnit@DP_DRIVE@@QAEEPAVMESSAGE@@@Z="C:\Windows\SysWOW64\ifsutil".?WaitForUnit@DP_DRIVE@@QAEEPAVMESSAGE@@@Z
  ?WaitForWriteCompletion@DP_DRIVE@@QAEEPAVMESSAGE@@@Z="C:\Windows\SysWOW64\ifsutil".?WaitForWriteCompletion@DP_DRIVE@@QAEEPAVMESSAGE@@@Z
  ?Write@IO_DP_DRIVE@@QAEEVBIG_INT@@KPAX@Z="C:\Windows\SysWOW64\ifsutil".?Write@IO_DP_DRIVE@@QAEEVBIG_INT@@KPAX@Z
  ?Write@SECRUN@@UAEEXZ="C:\Windows\SysWOW64\ifsutil".?Write@SECRUN@@UAEEXZ
  ?WriteEntireDrive@VOL_LIODPDRV@@UAE?AW4FORMAT_ERROR_CODE@@PAVMESSAGE@@PAXKII@Z="C:\Windows\SysWOW64\ifsutil".?WriteEntireDrive@VOL_LIODPDRV@@UAE?AW4FORMAT_ERROR_CODE@@PAVMESSAGE@@PAXKII@Z
  ?WriteToFile@IFS_SYSTEM@@SGEPBVWSTRING@@PAXKE@Z="C:\Windows\SysWOW64\ifsutil".?WriteToFile@IFS_SYSTEM@@SGEPBVWSTRING@@PAXKE@Z
  GetDefaultFileSystemIfs="C:\Windows\SysWOW64\ifsutil".GetDefaultFileSystemIfs
  InvalidateFve="C:\Windows\SysWOW64\ifsutil".InvalidateFve
  NotifyFveAfterFormat="C:\Windows\SysWOW64\ifsutil".NotifyFveAfterFormat
  RegisterExtensionCallbacks="C:\Windows\SysWOW64\ifsutil".RegisterExtensionCallbacks
  RestoreThreadExecutionState="C:\Windows\SysWOW64\ifsutil".RestoreThreadExecutionState
  _QueryPersistRegistryKeyValueWithFallback@12="C:\Windows\SysWOW64\ifsutil"._QueryPersistRegistryKeyValueWithFallback@12
  _WritePersistRegistryKeyValue@24="C:\Windows\SysWOW64\ifsutil"._WritePersistRegistryKeyValue@24
