EXPORTS
  ??0?$Lockable@VSharedMutex@ngeo@Microsoft@@@ngeo@Microsoft@@IAE@XZ="C:\Windows\SysWOW64\MapRouter".??0?$Lockable@VSharedMutex@ngeo@Microsoft@@@ngeo@Microsoft@@IAE@XZ
  ??0?$Lockable@VSharedMutex@ngeo@Microsoft@@@ngeo@Microsoft@@QAE@ABV012@@Z="C:\Windows\SysWOW64\MapRouter".??0?$Lockable@VSharedMutex@ngeo@Microsoft@@@ngeo@Microsoft@@QAE@ABV012@@Z
  ??0?$ObjectHandle@VViewObject@ngeo@Microsoft@@$00@internal@ngeo@Microsoft@@QAE@ABV0123@@Z="C:\Windows\SysWOW64\MapRouter".??0?$ObjectHandle@VViewObject@ngeo@Microsoft@@$00@internal@ngeo@Microsoft@@QAE@ABV0123@@Z
  ??0?$ObjectHandle@VViewObject@ngeo@Microsoft@@$00@internal@ngeo@Microsoft@@QAE@PAVViewObject@23@@Z="C:\Windows\SysWOW64\MapRouter".??0?$ObjectHandle@VViewObject@ngeo@Microsoft@@$00@internal@ngeo@Microsoft@@QAE@PAVViewObject@23@@Z
  ??0?$Pimpl@VGuidanceOptions@ngeo@Microsoft@@VGuidanceOptionsImpl@internal@23@@ngeo@Microsoft@@IAE@XZ="C:\Windows\SysWOW64\MapRouter".??0?$Pimpl@VGuidanceOptions@ngeo@Microsoft@@VGuidanceOptionsImpl@internal@23@@ngeo@Microsoft@@IAE@XZ
  ??0?$Pimpl@VGuidanceOptions@ngeo@Microsoft@@VGuidanceOptionsImpl@internal@23@@ngeo@Microsoft@@QAE@$$QAV012@@Z="C:\Windows\SysWOW64\MapRouter".??0?$Pimpl@VGuidanceOptions@ngeo@Microsoft@@VGuidanceOptionsImpl@internal@23@@ngeo@Microsoft@@QAE@$$QAV012@@Z
  ??0?$Pimpl@VGuidanceOptions@ngeo@Microsoft@@VGuidanceOptionsImpl@internal@23@@ngeo@Microsoft@@QAE@ABV012@@Z="C:\Windows\SysWOW64\MapRouter".??0?$Pimpl@VGuidanceOptions@ngeo@Microsoft@@VGuidanceOptionsImpl@internal@23@@ngeo@Microsoft@@QAE@ABV012@@Z
  ??0?$Pimpl@VLanguageKeyValuePair@ngeo@Microsoft@@VLanguageKeyValuePairImpl@internal@23@@ngeo@Microsoft@@IAE@XZ="C:\Windows\SysWOW64\MapRouter".??0?$Pimpl@VLanguageKeyValuePair@ngeo@Microsoft@@VLanguageKeyValuePairImpl@internal@23@@ngeo@Microsoft@@IAE@XZ
  ??0?$Pimpl@VLanguageKeyValuePair@ngeo@Microsoft@@VLanguageKeyValuePairImpl@internal@23@@ngeo@Microsoft@@QAE@$$QAV012@@Z="C:\Windows\SysWOW64\MapRouter".??0?$Pimpl@VLanguageKeyValuePair@ngeo@Microsoft@@VLanguageKeyValuePairImpl@internal@23@@ngeo@Microsoft@@QAE@$$QAV012@@Z
  ??0?$Pimpl@VLanguageKeyValuePair@ngeo@Microsoft@@VLanguageKeyValuePairImpl@internal@23@@ngeo@Microsoft@@QAE@ABV012@@Z="C:\Windows\SysWOW64\MapRouter".??0?$Pimpl@VLanguageKeyValuePair@ngeo@Microsoft@@VLanguageKeyValuePairImpl@internal@23@@ngeo@Microsoft@@QAE@ABV012@@Z
  ??0?$Pimpl@VLanguageMapping@ngeo@Microsoft@@VLanguageMappingImpl@internal@23@@ngeo@Microsoft@@IAE@XZ="C:\Windows\SysWOW64\MapRouter".??0?$Pimpl@VLanguageMapping@ngeo@Microsoft@@VLanguageMappingImpl@internal@23@@ngeo@Microsoft@@IAE@XZ
  ??0?$Pimpl@VLanguageMapping@ngeo@Microsoft@@VLanguageMappingImpl@internal@23@@ngeo@Microsoft@@QAE@$$QAV012@@Z="C:\Windows\SysWOW64\MapRouter".??0?$Pimpl@VLanguageMapping@ngeo@Microsoft@@VLanguageMappingImpl@internal@23@@ngeo@Microsoft@@QAE@$$QAV012@@Z
  ??0?$Pimpl@VLanguageMapping@ngeo@Microsoft@@VLanguageMappingImpl@internal@23@@ngeo@Microsoft@@QAE@ABV012@@Z="C:\Windows\SysWOW64\MapRouter".??0?$Pimpl@VLanguageMapping@ngeo@Microsoft@@VLanguageMappingImpl@internal@23@@ngeo@Microsoft@@QAE@ABV012@@Z
  ??0?$Pimpl@VLocationSource@ngeo@Microsoft@@VLocationSourceImpl@internal@23@@ngeo@Microsoft@@IAE@XZ="C:\Windows\SysWOW64\MapRouter".??0?$Pimpl@VLocationSource@ngeo@Microsoft@@VLocationSourceImpl@internal@23@@ngeo@Microsoft@@IAE@XZ
  ??0?$Pimpl@VLocationSource@ngeo@Microsoft@@VLocationSourceImpl@internal@23@@ngeo@Microsoft@@QAE@$$QAV012@@Z="C:\Windows\SysWOW64\MapRouter".??0?$Pimpl@VLocationSource@ngeo@Microsoft@@VLocationSourceImpl@internal@23@@ngeo@Microsoft@@QAE@$$QAV012@@Z
  ??0?$Pimpl@VLocationSource@ngeo@Microsoft@@VLocationSourceImpl@internal@23@@ngeo@Microsoft@@QAE@ABV012@@Z="C:\Windows\SysWOW64\MapRouter".??0?$Pimpl@VLocationSource@ngeo@Microsoft@@VLocationSourceImpl@internal@23@@ngeo@Microsoft@@QAE@ABV012@@Z
  ??0?$Pimpl@VManeuverVoiceInfo@ngeo@Microsoft@@VManeuverVoiceInfoImpl@internal@23@@ngeo@Microsoft@@IAE@XZ="C:\Windows\SysWOW64\MapRouter".??0?$Pimpl@VManeuverVoiceInfo@ngeo@Microsoft@@VManeuverVoiceInfoImpl@internal@23@@ngeo@Microsoft@@IAE@XZ
  ??0?$Pimpl@VManeuverVoiceInfo@ngeo@Microsoft@@VManeuverVoiceInfoImpl@internal@23@@ngeo@Microsoft@@QAE@$$QAV012@@Z="C:\Windows\SysWOW64\MapRouter".??0?$Pimpl@VManeuverVoiceInfo@ngeo@Microsoft@@VManeuverVoiceInfoImpl@internal@23@@ngeo@Microsoft@@QAE@$$QAV012@@Z
  ??0?$Pimpl@VManeuverVoiceInfo@ngeo@Microsoft@@VManeuverVoiceInfoImpl@internal@23@@ngeo@Microsoft@@QAE@ABV012@@Z="C:\Windows\SysWOW64\MapRouter".??0?$Pimpl@VManeuverVoiceInfo@ngeo@Microsoft@@VManeuverVoiceInfoImpl@internal@23@@ngeo@Microsoft@@QAE@ABV012@@Z
  ??0?$Pimpl@VMapMatcher@ngeo@Microsoft@@VMapMatcherImpl@internal@23@@ngeo@Microsoft@@IAE@XZ="C:\Windows\SysWOW64\MapRouter".??0?$Pimpl@VMapMatcher@ngeo@Microsoft@@VMapMatcherImpl@internal@23@@ngeo@Microsoft@@IAE@XZ
  ??0?$Pimpl@VMapMatcher@ngeo@Microsoft@@VMapMatcherImpl@internal@23@@ngeo@Microsoft@@QAE@$$QAV012@@Z="C:\Windows\SysWOW64\MapRouter".??0?$Pimpl@VMapMatcher@ngeo@Microsoft@@VMapMatcherImpl@internal@23@@ngeo@Microsoft@@QAE@$$QAV012@@Z
  ??0?$Pimpl@VMapMatcher@ngeo@Microsoft@@VMapMatcherImpl@internal@23@@ngeo@Microsoft@@QAE@ABV012@@Z="C:\Windows\SysWOW64\MapRouter".??0?$Pimpl@VMapMatcher@ngeo@Microsoft@@VMapMatcherImpl@internal@23@@ngeo@Microsoft@@QAE@ABV012@@Z
  ??0?$Pimpl@VMapMatcherOptions@ngeo@Microsoft@@VMapMatcherOptionsImpl@internal@23@@ngeo@Microsoft@@IAE@XZ="C:\Windows\SysWOW64\MapRouter".??0?$Pimpl@VMapMatcherOptions@ngeo@Microsoft@@VMapMatcherOptionsImpl@internal@23@@ngeo@Microsoft@@IAE@XZ
  ??0?$Pimpl@VMapMatcherOptions@ngeo@Microsoft@@VMapMatcherOptionsImpl@internal@23@@ngeo@Microsoft@@QAE@$$QAV012@@Z="C:\Windows\SysWOW64\MapRouter".??0?$Pimpl@VMapMatcherOptions@ngeo@Microsoft@@VMapMatcherOptionsImpl@internal@23@@ngeo@Microsoft@@QAE@$$QAV012@@Z
  ??0?$Pimpl@VMapMatcherOptions@ngeo@Microsoft@@VMapMatcherOptionsImpl@internal@23@@ngeo@Microsoft@@QAE@ABV012@@Z="C:\Windows\SysWOW64\MapRouter".??0?$Pimpl@VMapMatcherOptions@ngeo@Microsoft@@VMapMatcherOptionsImpl@internal@23@@ngeo@Microsoft@@QAE@ABV012@@Z
  ??0?$Pimpl@VNaturalGuidanceVoiceInfo@ngeo@Microsoft@@VNaturalGuidanceVoiceInfoImpl@internal@23@@ngeo@Microsoft@@IAE@XZ="C:\Windows\SysWOW64\MapRouter".??0?$Pimpl@VNaturalGuidanceVoiceInfo@ngeo@Microsoft@@VNaturalGuidanceVoiceInfoImpl@internal@23@@ngeo@Microsoft@@IAE@XZ
  ??0?$Pimpl@VNaturalGuidanceVoiceInfo@ngeo@Microsoft@@VNaturalGuidanceVoiceInfoImpl@internal@23@@ngeo@Microsoft@@QAE@$$QAV012@@Z="C:\Windows\SysWOW64\MapRouter".??0?$Pimpl@VNaturalGuidanceVoiceInfo@ngeo@Microsoft@@VNaturalGuidanceVoiceInfoImpl@internal@23@@ngeo@Microsoft@@QAE@$$QAV012@@Z
  ??0?$Pimpl@VNaturalGuidanceVoiceInfo@ngeo@Microsoft@@VNaturalGuidanceVoiceInfoImpl@internal@23@@ngeo@Microsoft@@QAE@ABV012@@Z="C:\Windows\SysWOW64\MapRouter".??0?$Pimpl@VNaturalGuidanceVoiceInfo@ngeo@Microsoft@@VNaturalGuidanceVoiceInfoImpl@internal@23@@ngeo@Microsoft@@QAE@ABV012@@Z
  ??0?$Pimpl@VPhonemeMapping@ngeo@Microsoft@@VPhonemeMappingImpl@internal@23@@ngeo@Microsoft@@IAE@XZ="C:\Windows\SysWOW64\MapRouter".??0?$Pimpl@VPhonemeMapping@ngeo@Microsoft@@VPhonemeMappingImpl@internal@23@@ngeo@Microsoft@@IAE@XZ
  ??0?$Pimpl@VPhonemeMapping@ngeo@Microsoft@@VPhonemeMappingImpl@internal@23@@ngeo@Microsoft@@QAE@$$QAV012@@Z="C:\Windows\SysWOW64\MapRouter".??0?$Pimpl@VPhonemeMapping@ngeo@Microsoft@@VPhonemeMappingImpl@internal@23@@ngeo@Microsoft@@QAE@$$QAV012@@Z
  ??0?$Pimpl@VPhonemeMapping@ngeo@Microsoft@@VPhonemeMappingImpl@internal@23@@ngeo@Microsoft@@QAE@ABV012@@Z="C:\Windows\SysWOW64\MapRouter".??0?$Pimpl@VPhonemeMapping@ngeo@Microsoft@@VPhonemeMappingImpl@internal@23@@ngeo@Microsoft@@QAE@ABV012@@Z
  ??0?$Pimpl@VSideOfDestinationVoiceInfo@ngeo@Microsoft@@VSideOfDestinationVoiceInfoImpl@internal@23@@ngeo@Microsoft@@IAE@XZ="C:\Windows\SysWOW64\MapRouter".??0?$Pimpl@VSideOfDestinationVoiceInfo@ngeo@Microsoft@@VSideOfDestinationVoiceInfoImpl@internal@23@@ngeo@Microsoft@@IAE@XZ
  ??0?$Pimpl@VSideOfDestinationVoiceInfo@ngeo@Microsoft@@VSideOfDestinationVoiceInfoImpl@internal@23@@ngeo@Microsoft@@QAE@$$QAV012@@Z="C:\Windows\SysWOW64\MapRouter".??0?$Pimpl@VSideOfDestinationVoiceInfo@ngeo@Microsoft@@VSideOfDestinationVoiceInfoImpl@internal@23@@ngeo@Microsoft@@QAE@$$QAV012@@Z
  ??0?$Pimpl@VSideOfDestinationVoiceInfo@ngeo@Microsoft@@VSideOfDestinationVoiceInfoImpl@internal@23@@ngeo@Microsoft@@QAE@ABV012@@Z="C:\Windows\SysWOW64\MapRouter".??0?$Pimpl@VSideOfDestinationVoiceInfo@ngeo@Microsoft@@VSideOfDestinationVoiceInfoImpl@internal@23@@ngeo@Microsoft@@QAE@ABV012@@Z
  ??0?$Pimpl@VSignpostLabelVoiceInfo@ngeo@Microsoft@@VSignpostLabelVoiceInfoImpl@internal@23@@ngeo@Microsoft@@IAE@XZ="C:\Windows\SysWOW64\MapRouter".??0?$Pimpl@VSignpostLabelVoiceInfo@ngeo@Microsoft@@VSignpostLabelVoiceInfoImpl@internal@23@@ngeo@Microsoft@@IAE@XZ
  ??0?$Pimpl@VSignpostLabelVoiceInfo@ngeo@Microsoft@@VSignpostLabelVoiceInfoImpl@internal@23@@ngeo@Microsoft@@QAE@$$QAV012@@Z="C:\Windows\SysWOW64\MapRouter".??0?$Pimpl@VSignpostLabelVoiceInfo@ngeo@Microsoft@@VSignpostLabelVoiceInfoImpl@internal@23@@ngeo@Microsoft@@QAE@$$QAV012@@Z
  ??0?$Pimpl@VSignpostLabelVoiceInfo@ngeo@Microsoft@@VSignpostLabelVoiceInfoImpl@internal@23@@ngeo@Microsoft@@QAE@ABV012@@Z="C:\Windows\SysWOW64\MapRouter".??0?$Pimpl@VSignpostLabelVoiceInfo@ngeo@Microsoft@@VSignpostLabelVoiceInfoImpl@internal@23@@ngeo@Microsoft@@QAE@ABV012@@Z
  ??0?$Pimpl@VSignpostVoiceInfo@ngeo@Microsoft@@VSignpostVoiceInfoImpl@internal@23@@ngeo@Microsoft@@IAE@XZ="C:\Windows\SysWOW64\MapRouter".??0?$Pimpl@VSignpostVoiceInfo@ngeo@Microsoft@@VSignpostVoiceInfoImpl@internal@23@@ngeo@Microsoft@@IAE@XZ
  ??0?$Pimpl@VSignpostVoiceInfo@ngeo@Microsoft@@VSignpostVoiceInfoImpl@internal@23@@ngeo@Microsoft@@QAE@$$QAV012@@Z="C:\Windows\SysWOW64\MapRouter".??0?$Pimpl@VSignpostVoiceInfo@ngeo@Microsoft@@VSignpostVoiceInfoImpl@internal@23@@ngeo@Microsoft@@QAE@$$QAV012@@Z
  ??0?$Pimpl@VSignpostVoiceInfo@ngeo@Microsoft@@VSignpostVoiceInfoImpl@internal@23@@ngeo@Microsoft@@QAE@ABV012@@Z="C:\Windows\SysWOW64\MapRouter".??0?$Pimpl@VSignpostVoiceInfo@ngeo@Microsoft@@VSignpostVoiceInfoImpl@internal@23@@ngeo@Microsoft@@QAE@ABV012@@Z
  ??0?$Pimpl@VStreetVoiceInfo@ngeo@Microsoft@@VStreetVoiceInfoImpl@internal@23@@ngeo@Microsoft@@IAE@XZ="C:\Windows\SysWOW64\MapRouter".??0?$Pimpl@VStreetVoiceInfo@ngeo@Microsoft@@VStreetVoiceInfoImpl@internal@23@@ngeo@Microsoft@@IAE@XZ
  ??0?$Pimpl@VStreetVoiceInfo@ngeo@Microsoft@@VStreetVoiceInfoImpl@internal@23@@ngeo@Microsoft@@QAE@$$QAV012@@Z="C:\Windows\SysWOW64\MapRouter".??0?$Pimpl@VStreetVoiceInfo@ngeo@Microsoft@@VStreetVoiceInfoImpl@internal@23@@ngeo@Microsoft@@QAE@$$QAV012@@Z
  ??0?$Pimpl@VStreetVoiceInfo@ngeo@Microsoft@@VStreetVoiceInfoImpl@internal@23@@ngeo@Microsoft@@QAE@ABV012@@Z="C:\Windows\SysWOW64\MapRouter".??0?$Pimpl@VStreetVoiceInfo@ngeo@Microsoft@@VStreetVoiceInfoImpl@internal@23@@ngeo@Microsoft@@QAE@ABV012@@Z
  ??0?$Pimpl@VVoiceCommandInfo@ngeo@Microsoft@@VVoiceCommandInfoImpl@internal@23@@ngeo@Microsoft@@IAE@XZ="C:\Windows\SysWOW64\MapRouter".??0?$Pimpl@VVoiceCommandInfo@ngeo@Microsoft@@VVoiceCommandInfoImpl@internal@23@@ngeo@Microsoft@@IAE@XZ
  ??0?$Pimpl@VVoiceCommandInfo@ngeo@Microsoft@@VVoiceCommandInfoImpl@internal@23@@ngeo@Microsoft@@QAE@$$QAV012@@Z="C:\Windows\SysWOW64\MapRouter".??0?$Pimpl@VVoiceCommandInfo@ngeo@Microsoft@@VVoiceCommandInfoImpl@internal@23@@ngeo@Microsoft@@QAE@$$QAV012@@Z
  ??0?$Pimpl@VVoiceCommandInfo@ngeo@Microsoft@@VVoiceCommandInfoImpl@internal@23@@ngeo@Microsoft@@QAE@ABV012@@Z="C:\Windows\SysWOW64\MapRouter".??0?$Pimpl@VVoiceCommandInfo@ngeo@Microsoft@@VVoiceCommandInfoImpl@internal@23@@ngeo@Microsoft@@QAE@ABV012@@Z
  ??0?$Pimpl@VVoiceSkin@ngeo@Microsoft@@VVoiceSkinImpl@internal@23@@ngeo@Microsoft@@IAE@XZ="C:\Windows\SysWOW64\MapRouter".??0?$Pimpl@VVoiceSkin@ngeo@Microsoft@@VVoiceSkinImpl@internal@23@@ngeo@Microsoft@@IAE@XZ
  ??0?$Pimpl@VVoiceSkin@ngeo@Microsoft@@VVoiceSkinImpl@internal@23@@ngeo@Microsoft@@QAE@$$QAV012@@Z="C:\Windows\SysWOW64\MapRouter".??0?$Pimpl@VVoiceSkin@ngeo@Microsoft@@VVoiceSkinImpl@internal@23@@ngeo@Microsoft@@QAE@$$QAV012@@Z
  ??0?$Pimpl@VVoiceSkin@ngeo@Microsoft@@VVoiceSkinImpl@internal@23@@ngeo@Microsoft@@QAE@ABV012@@Z="C:\Windows\SysWOW64\MapRouter".??0?$Pimpl@VVoiceSkin@ngeo@Microsoft@@VVoiceSkinImpl@internal@23@@ngeo@Microsoft@@QAE@ABV012@@Z
  ??0BaseEngine@nmacore@Microsoft@@IAE@XZ="C:\Windows\SysWOW64\MapRouter".??0BaseEngine@nmacore@Microsoft@@IAE@XZ
  ??0BaseEngine@nmacore@Microsoft@@QAE@ABV012@@Z="C:\Windows\SysWOW64\MapRouter".??0BaseEngine@nmacore@Microsoft@@QAE@ABV012@@Z
  ??0BufferInputStream@nmacore@Microsoft@@QAE@$$QAV012@@Z="C:\Windows\SysWOW64\MapRouter".??0BufferInputStream@nmacore@Microsoft@@QAE@$$QAV012@@Z
  ??0BufferInputStream@nmacore@Microsoft@@QAE@ABV012@@Z="C:\Windows\SysWOW64\MapRouter".??0BufferInputStream@nmacore@Microsoft@@QAE@ABV012@@Z
  ??0BufferInputStream@nmacore@Microsoft@@QAE@PAEI@Z="C:\Windows\SysWOW64\MapRouter".??0BufferInputStream@nmacore@Microsoft@@QAE@PAEI@Z
  ??0BufferOutputStream@nmacore@Microsoft@@QAE@ABV012@@Z="C:\Windows\SysWOW64\MapRouter".??0BufferOutputStream@nmacore@Microsoft@@QAE@ABV012@@Z
  ??0BufferOutputStream@nmacore@Microsoft@@QAE@XZ="C:\Windows\SysWOW64\MapRouter".??0BufferOutputStream@nmacore@Microsoft@@QAE@XZ
  ??0Color@ngeo@Microsoft@@QAE@ABVHSV@012@E@Z="C:\Windows\SysWOW64\MapRouter".??0Color@ngeo@Microsoft@@QAE@ABVHSV@012@E@Z
  ??0Color@ngeo@Microsoft@@QAE@EEEE@Z="C:\Windows\SysWOW64\MapRouter".??0Color@ngeo@Microsoft@@QAE@EEEE@Z
  ??0Color@ngeo@Microsoft@@QAE@I@Z="C:\Windows\SysWOW64\MapRouter".??0Color@ngeo@Microsoft@@QAE@I@Z
  ??0Color@ngeo@Microsoft@@QAE@XZ="C:\Windows\SysWOW64\MapRouter".??0Color@ngeo@Microsoft@@QAE@XZ
  ??0Date@ngeo@Microsoft@@QAE@FEE@Z="C:\Windows\SysWOW64\MapRouter".??0Date@ngeo@Microsoft@@QAE@FEE@Z
  ??0Date@ngeo@Microsoft@@QAE@XZ="C:\Windows\SysWOW64\MapRouter".??0Date@ngeo@Microsoft@@QAE@XZ
  ??0DateTime@ngeo@Microsoft@@QAE@ABVDate@12@@Z="C:\Windows\SysWOW64\MapRouter".??0DateTime@ngeo@Microsoft@@QAE@ABVDate@12@@Z
  ??0DateTime@ngeo@Microsoft@@QAE@ABVDate@12@ABVTime@12@@Z="C:\Windows\SysWOW64\MapRouter".??0DateTime@ngeo@Microsoft@@QAE@ABVDate@12@ABVTime@12@@Z
  ??0DateTime@ngeo@Microsoft@@QAE@XZ="C:\Windows\SysWOW64\MapRouter".??0DateTime@ngeo@Microsoft@@QAE@XZ
  ??0DateTime@ngeo@Microsoft@@QAE@_J@Z="C:\Windows\SysWOW64\MapRouter".??0DateTime@ngeo@Microsoft@@QAE@_J@Z
  ??0DriveSimulator@ngeo@Microsoft@@QAE@ABV012@@Z="C:\Windows\SysWOW64\MapRouter".??0DriveSimulator@ngeo@Microsoft@@QAE@ABV012@@Z
  ??0DriveSimulator@ngeo@Microsoft@@QAE@XZ="C:\Windows\SysWOW64\MapRouter".??0DriveSimulator@ngeo@Microsoft@@QAE@XZ
  ??0DriveSimulator@nmacore@Microsoft@@QAE@AAVISimulationObserver@12@@Z="C:\Windows\SysWOW64\MapRouter".??0DriveSimulator@nmacore@Microsoft@@QAE@AAVISimulationObserver@12@@Z
  ??0DriveSimulator@nmacore@Microsoft@@QAE@ABV012@@Z="C:\Windows\SysWOW64\MapRouter".??0DriveSimulator@nmacore@Microsoft@@QAE@ABV012@@Z
  ??0DynamicPenalty@ngeo@Microsoft@@QAE@ABV012@@Z="C:\Windows\SysWOW64\MapRouter".??0DynamicPenalty@ngeo@Microsoft@@QAE@ABV012@@Z
  ??0DynamicPenalty@ngeo@Microsoft@@QAE@XZ="C:\Windows\SysWOW64\MapRouter".??0DynamicPenalty@ngeo@Microsoft@@QAE@XZ
  ??0GeoArea@ngeo@Microsoft@@IAE@XZ="C:\Windows\SysWOW64\MapRouter".??0GeoArea@ngeo@Microsoft@@IAE@XZ
  ??0GeoArea@ngeo@Microsoft@@QAE@ABV012@@Z="C:\Windows\SysWOW64\MapRouter".??0GeoArea@ngeo@Microsoft@@QAE@ABV012@@Z
  ??0GeoCoordinates@ngeo@Microsoft@@QAE@$$QAV012@@Z="C:\Windows\SysWOW64\MapRouter".??0GeoCoordinates@ngeo@Microsoft@@QAE@$$QAV012@@Z
  ??0GeoCoordinates@ngeo@Microsoft@@QAE@ABV012@@Z="C:\Windows\SysWOW64\MapRouter".??0GeoCoordinates@ngeo@Microsoft@@QAE@ABV012@@Z
  ??0GeoCoordinates@ngeo@Microsoft@@QAE@ABVIGeoCoordinates@msngeo@@@Z="C:\Windows\SysWOW64\MapRouter".??0GeoCoordinates@ngeo@Microsoft@@QAE@ABVIGeoCoordinates@msngeo@@@Z
  ??0GeoCoordinates@ngeo@Microsoft@@QAE@NNM@Z="C:\Windows\SysWOW64\MapRouter".??0GeoCoordinates@ngeo@Microsoft@@QAE@NNM@Z
  ??0GeoCoordinates@ngeo@Microsoft@@QAE@XZ="C:\Windows\SysWOW64\MapRouter".??0GeoCoordinates@ngeo@Microsoft@@QAE@XZ
  ??0GeoPolygon@ngeo@Microsoft@@QAE@$$QAV012@@Z="C:\Windows\SysWOW64\MapRouter".??0GeoPolygon@ngeo@Microsoft@@QAE@$$QAV012@@Z
  ??0GeoPolygon@ngeo@Microsoft@@QAE@ABV012@@Z="C:\Windows\SysWOW64\MapRouter".??0GeoPolygon@ngeo@Microsoft@@QAE@ABV012@@Z
  ??0GeoPolygon@ngeo@Microsoft@@QAE@ABVGeoRect@12@@Z="C:\Windows\SysWOW64\MapRouter".??0GeoPolygon@ngeo@Microsoft@@QAE@ABVGeoRect@12@@Z
  ??0GeoPolygon@ngeo@Microsoft@@QAE@PBVGeoCoordinates@12@I@Z="C:\Windows\SysWOW64\MapRouter".??0GeoPolygon@ngeo@Microsoft@@QAE@PBVGeoCoordinates@12@I@Z
  ??0GeoPolygon@ngeo@Microsoft@@QAE@XZ="C:\Windows\SysWOW64\MapRouter".??0GeoPolygon@ngeo@Microsoft@@QAE@XZ
  ??0GeoPolyline@ngeo@Microsoft@@QAE@$$QAV012@@Z="C:\Windows\SysWOW64\MapRouter".??0GeoPolyline@ngeo@Microsoft@@QAE@$$QAV012@@Z
  ??0GeoPolyline@ngeo@Microsoft@@QAE@ABV012@@Z="C:\Windows\SysWOW64\MapRouter".??0GeoPolyline@ngeo@Microsoft@@QAE@ABV012@@Z
  ??0GeoPolyline@ngeo@Microsoft@@QAE@PBVGeoCoordinates@12@I@Z="C:\Windows\SysWOW64\MapRouter".??0GeoPolyline@ngeo@Microsoft@@QAE@PBVGeoCoordinates@12@I@Z
  ??0GeoPolyline@ngeo@Microsoft@@QAE@XZ="C:\Windows\SysWOW64\MapRouter".??0GeoPolyline@ngeo@Microsoft@@QAE@XZ
  ??0GeoRect@ngeo@Microsoft@@QAE@$$QAV012@@Z="C:\Windows\SysWOW64\MapRouter".??0GeoRect@ngeo@Microsoft@@QAE@$$QAV012@@Z
  ??0GeoRect@ngeo@Microsoft@@QAE@ABV012@@Z="C:\Windows\SysWOW64\MapRouter".??0GeoRect@ngeo@Microsoft@@QAE@ABV012@@Z
  ??0GeoRect@ngeo@Microsoft@@QAE@ABVGeoCoordinates@12@0@Z="C:\Windows\SysWOW64\MapRouter".??0GeoRect@ngeo@Microsoft@@QAE@ABVGeoCoordinates@12@0@Z
  ??0GeoRect@ngeo@Microsoft@@QAE@ABVIGeoRect@msngeo@@@Z="C:\Windows\SysWOW64\MapRouter".??0GeoRect@ngeo@Microsoft@@QAE@ABVIGeoRect@msngeo@@@Z
  ??0GeoRect@ngeo@Microsoft@@QAE@NNNN@Z="C:\Windows\SysWOW64\MapRouter".??0GeoRect@ngeo@Microsoft@@QAE@NNNN@Z
  ??0GeoRect@ngeo@Microsoft@@QAE@XZ="C:\Windows\SysWOW64\MapRouter".??0GeoRect@ngeo@Microsoft@@QAE@XZ
  ??0Guidance@ngeo@Microsoft@@QAE@ABV012@@Z="C:\Windows\SysWOW64\MapRouter".??0Guidance@ngeo@Microsoft@@QAE@ABV012@@Z
  ??0Guidance@ngeo@Microsoft@@QAE@XZ="C:\Windows\SysWOW64\MapRouter".??0Guidance@ngeo@Microsoft@@QAE@XZ
  ??0Guidance@nmacore@Microsoft@@QAE@ABV012@@Z="C:\Windows\SysWOW64\MapRouter".??0Guidance@nmacore@Microsoft@@QAE@ABV012@@Z
  ??0Guidance@nmacore@Microsoft@@QAE@XZ="C:\Windows\SysWOW64\MapRouter".??0Guidance@nmacore@Microsoft@@QAE@XZ
  ??0GuidanceListener@ngeo@Microsoft@@QAE@ABV012@@Z="C:\Windows\SysWOW64\MapRouter".??0GuidanceListener@ngeo@Microsoft@@QAE@ABV012@@Z
  ??0GuidanceListener@ngeo@Microsoft@@QAE@XZ="C:\Windows\SysWOW64\MapRouter".??0GuidanceListener@ngeo@Microsoft@@QAE@XZ
  ??0GuidanceOptions@ngeo@Microsoft@@QAE@ABV012@@Z="C:\Windows\SysWOW64\MapRouter".??0GuidanceOptions@ngeo@Microsoft@@QAE@ABV012@@Z
  ??0GuidanceOptions@ngeo@Microsoft@@QAE@XZ="C:\Windows\SysWOW64\MapRouter".??0GuidanceOptions@ngeo@Microsoft@@QAE@XZ
  ??0GuidanceVisualizer@nmacore@Microsoft@@QAE@$$QAV012@@Z="C:\Windows\SysWOW64\MapRouter".??0GuidanceVisualizer@nmacore@Microsoft@@QAE@$$QAV012@@Z
  ??0GuidanceVisualizer@nmacore@Microsoft@@QAE@ABV012@@Z="C:\Windows\SysWOW64\MapRouter".??0GuidanceVisualizer@nmacore@Microsoft@@QAE@ABV012@@Z
  ??0GuidanceVisualizer@nmacore@Microsoft@@QAE@XZ="C:\Windows\SysWOW64\MapRouter".??0GuidanceVisualizer@nmacore@Microsoft@@QAE@XZ
  ??0ICompass@nmacore@Microsoft@@QAE@$$QAV012@@Z="C:\Windows\SysWOW64\MapRouter".??0ICompass@nmacore@Microsoft@@QAE@$$QAV012@@Z
  ??0ICompass@nmacore@Microsoft@@QAE@ABV012@@Z="C:\Windows\SysWOW64\MapRouter".??0ICompass@nmacore@Microsoft@@QAE@ABV012@@Z
  ??0ICompass@nmacore@Microsoft@@QAE@XZ="C:\Windows\SysWOW64\MapRouter".??0ICompass@nmacore@Microsoft@@QAE@XZ
  ??0IGeoCoordinates@msngeo@@QAE@ABV01@@Z="C:\Windows\SysWOW64\MapRouter".??0IGeoCoordinates@msngeo@@QAE@ABV01@@Z
  ??0IGeoCoordinates@msngeo@@QAE@XZ="C:\Windows\SysWOW64\MapRouter".??0IGeoCoordinates@msngeo@@QAE@XZ
  ??0IGeoRect@msngeo@@QAE@ABV01@@Z="C:\Windows\SysWOW64\MapRouter".??0IGeoRect@msngeo@@QAE@ABV01@@Z
  ??0IGeoRect@msngeo@@QAE@XZ="C:\Windows\SysWOW64\MapRouter".??0IGeoRect@msngeo@@QAE@XZ
  ??0IGuidanceListener@nmacore@Microsoft@@QAE@$$QAV012@@Z="C:\Windows\SysWOW64\MapRouter".??0IGuidanceListener@nmacore@Microsoft@@QAE@$$QAV012@@Z
  ??0IGuidanceListener@nmacore@Microsoft@@QAE@ABV012@@Z="C:\Windows\SysWOW64\MapRouter".??0IGuidanceListener@nmacore@Microsoft@@QAE@ABV012@@Z
  ??0IGuidanceListener@nmacore@Microsoft@@QAE@XZ="C:\Windows\SysWOW64\MapRouter".??0IGuidanceListener@nmacore@Microsoft@@QAE@XZ
  ??0IItineraryWarning@msnma@@QAE@ABV01@@Z="C:\Windows\SysWOW64\MapRouter".??0IItineraryWarning@msnma@@QAE@ABV01@@Z
  ??0IItineraryWarning@msnma@@QAE@XZ="C:\Windows\SysWOW64\MapRouter".??0IItineraryWarning@msnma@@QAE@XZ
  ??0IItineraryWarningAttributes@msngeo@@QAE@ABV01@@Z="C:\Windows\SysWOW64\MapRouter".??0IItineraryWarningAttributes@msngeo@@QAE@ABV01@@Z
  ??0IItineraryWarningAttributes@msngeo@@QAE@XZ="C:\Windows\SysWOW64\MapRouter".??0IItineraryWarningAttributes@msngeo@@QAE@XZ
  ??0IItineraryWarningAttributes@msnma@@QAE@ABV01@@Z="C:\Windows\SysWOW64\MapRouter".??0IItineraryWarningAttributes@msnma@@QAE@ABV01@@Z
  ??0IItineraryWarningAttributes@msnma@@QAE@XZ="C:\Windows\SysWOW64\MapRouter".??0IItineraryWarningAttributes@msnma@@QAE@XZ
  ??0IItineraryWarningDivChange@msnma@@QAE@ABV01@@Z="C:\Windows\SysWOW64\MapRouter".??0IItineraryWarningDivChange@msnma@@QAE@ABV01@@Z
  ??0IItineraryWarningDivChange@msnma@@QAE@XZ="C:\Windows\SysWOW64\MapRouter".??0IItineraryWarningDivChange@msnma@@QAE@XZ
  ??0IItineraryWarningTraffic@msngeo@@QAE@ABV01@@Z="C:\Windows\SysWOW64\MapRouter".??0IItineraryWarningTraffic@msngeo@@QAE@ABV01@@Z
  ??0IItineraryWarningTraffic@msngeo@@QAE@XZ="C:\Windows\SysWOW64\MapRouter".??0IItineraryWarningTraffic@msngeo@@QAE@XZ
  ??0IItineraryWarningTraffic@msnma@@QAE@ABV01@@Z="C:\Windows\SysWOW64\MapRouter".??0IItineraryWarningTraffic@msnma@@QAE@ABV01@@Z
  ??0IItineraryWarningTraffic@msnma@@QAE@XZ="C:\Windows\SysWOW64\MapRouter".??0IItineraryWarningTraffic@msnma@@QAE@XZ
  ??0IManeuver@msnma@@QAE@ABV01@@Z="C:\Windows\SysWOW64\MapRouter".??0IManeuver@msnma@@QAE@ABV01@@Z
  ??0IManeuver@msnma@@QAE@XZ="C:\Windows\SysWOW64\MapRouter".??0IManeuver@msnma@@QAE@XZ
  ??0IPositioning@nmacore@Microsoft@@QAE@$$QAV012@@Z="C:\Windows\SysWOW64\MapRouter".??0IPositioning@nmacore@Microsoft@@QAE@$$QAV012@@Z
  ??0IPositioning@nmacore@Microsoft@@QAE@ABV012@@Z="C:\Windows\SysWOW64\MapRouter".??0IPositioning@nmacore@Microsoft@@QAE@ABV012@@Z
  ??0IPositioning@nmacore@Microsoft@@QAE@XZ="C:\Windows\SysWOW64\MapRouter".??0IPositioning@nmacore@Microsoft@@QAE@XZ
  ??0IPositioningObserver@nmacore@Microsoft@@QAE@$$QAV012@@Z="C:\Windows\SysWOW64\MapRouter".??0IPositioningObserver@nmacore@Microsoft@@QAE@$$QAV012@@Z
  ??0IPositioningObserver@nmacore@Microsoft@@QAE@ABV012@@Z="C:\Windows\SysWOW64\MapRouter".??0IPositioningObserver@nmacore@Microsoft@@QAE@ABV012@@Z
  ??0IPositioningObserver@nmacore@Microsoft@@QAE@XZ="C:\Windows\SysWOW64\MapRouter".??0IPositioningObserver@nmacore@Microsoft@@QAE@XZ
  ??0IRoute@msnma@@QAE@ABV01@@Z="C:\Windows\SysWOW64\MapRouter".??0IRoute@msnma@@QAE@ABV01@@Z
  ??0IRoute@msnma@@QAE@XZ="C:\Windows\SysWOW64\MapRouter".??0IRoute@msnma@@QAE@XZ
  ??0IRouterEngineListener@nmacore@Microsoft@@QAE@$$QAV012@@Z="C:\Windows\SysWOW64\MapRouter".??0IRouterEngineListener@nmacore@Microsoft@@QAE@$$QAV012@@Z
  ??0IRouterEngineListener@nmacore@Microsoft@@QAE@ABV012@@Z="C:\Windows\SysWOW64\MapRouter".??0IRouterEngineListener@nmacore@Microsoft@@QAE@ABV012@@Z
  ??0IRouterEngineListener@nmacore@Microsoft@@QAE@XZ="C:\Windows\SysWOW64\MapRouter".??0IRouterEngineListener@nmacore@Microsoft@@QAE@XZ
  ??0ISignpost@msngeo@@QAE@ABV01@@Z="C:\Windows\SysWOW64\MapRouter".??0ISignpost@msngeo@@QAE@ABV01@@Z
  ??0ISignpost@msngeo@@QAE@XZ="C:\Windows\SysWOW64\MapRouter".??0ISignpost@msngeo@@QAE@XZ
  ??0ITimerObserver@msnma@@QAE@ABV01@@Z="C:\Windows\SysWOW64\MapRouter".??0ITimerObserver@msnma@@QAE@ABV01@@Z
  ??0ITimerObserver@msnma@@QAE@XZ="C:\Windows\SysWOW64\MapRouter".??0ITimerObserver@msnma@@QAE@XZ
  ??0ITimerSource@msnma@@QAE@ABV01@@Z="C:\Windows\SysWOW64\MapRouter".??0ITimerSource@msnma@@QAE@ABV01@@Z
  ??0ITimerSource@msnma@@QAE@XZ="C:\Windows\SysWOW64\MapRouter".??0ITimerSource@msnma@@QAE@XZ
  ??0Icon@ngeo@Microsoft@@QAE@ABV012@@Z="C:\Windows\SysWOW64\MapRouter".??0Icon@ngeo@Microsoft@@QAE@ABV012@@Z
  ??0Icon@ngeo@Microsoft@@QAE@XZ="C:\Windows\SysWOW64\MapRouter".??0Icon@ngeo@Microsoft@@QAE@XZ
  ??0ItineraryWarning@ngeo@Microsoft@@QAE@ABV012@@Z="C:\Windows\SysWOW64\MapRouter".??0ItineraryWarning@ngeo@Microsoft@@QAE@ABV012@@Z
  ??0ItineraryWarning@ngeo@Microsoft@@QAE@XZ="C:\Windows\SysWOW64\MapRouter".??0ItineraryWarning@ngeo@Microsoft@@QAE@XZ
  ??0ItineraryWarning@nmacore@Microsoft@@QAE@$$QAV?$unique_ptr@VItineraryWarningAttributes@nmacore@Microsoft@@U?$default_delete@VItineraryWarningAttributes@nmacore@Microsoft@@@std@@@std@@@Z="C:\Windows\SysWOW64\MapRouter".??0ItineraryWarning@nmacore@Microsoft@@QAE@$$QAV?$unique_ptr@VItineraryWarningAttributes@nmacore@Microsoft@@U?$default_delete@VItineraryWarningAttributes@nmacore@Microsoft@@@std@@@std@@@Z
  ??0ItineraryWarning@nmacore@Microsoft@@QAE@$$QAV?$unique_ptr@VItineraryWarningDivChange@nmacore@Microsoft@@U?$default_delete@VItineraryWarningDivChange@nmacore@Microsoft@@@std@@@std@@@Z="C:\Windows\SysWOW64\MapRouter".??0ItineraryWarning@nmacore@Microsoft@@QAE@$$QAV?$unique_ptr@VItineraryWarningDivChange@nmacore@Microsoft@@U?$default_delete@VItineraryWarningDivChange@nmacore@Microsoft@@@std@@@std@@@Z
  ??0ItineraryWarning@nmacore@Microsoft@@QAE@$$QAV?$unique_ptr@VItineraryWarningTraffic@nmacore@Microsoft@@U?$default_delete@VItineraryWarningTraffic@nmacore@Microsoft@@@std@@@std@@@Z="C:\Windows\SysWOW64\MapRouter".??0ItineraryWarning@nmacore@Microsoft@@QAE@$$QAV?$unique_ptr@VItineraryWarningTraffic@nmacore@Microsoft@@U?$default_delete@VItineraryWarningTraffic@nmacore@Microsoft@@@std@@@std@@@Z
  ??0ItineraryWarning@nmacore@Microsoft@@QAE@ABV012@@Z="C:\Windows\SysWOW64\MapRouter".??0ItineraryWarning@nmacore@Microsoft@@QAE@ABV012@@Z
  ??0ItineraryWarning@nmacore@Microsoft@@QAE@PBV0ngeo@2@@Z="C:\Windows\SysWOW64\MapRouter".??0ItineraryWarning@nmacore@Microsoft@@QAE@PBV0ngeo@2@@Z
  ??0ItineraryWarning@nmacore@Microsoft@@QAE@XZ="C:\Windows\SysWOW64\MapRouter".??0ItineraryWarning@nmacore@Microsoft@@QAE@XZ
  ??0ItineraryWarningAdminDivChange@ngeo@Microsoft@@AAE@ABV?$basic_string@GU?$char_traits@G@std@@V?$allocator@G@2@@std@@0_N@Z="C:\Windows\SysWOW64\MapRouter".??0ItineraryWarningAdminDivChange@ngeo@Microsoft@@AAE@ABV?$basic_string@GU?$char_traits@G@std@@V?$allocator@G@2@@std@@0_N@Z
  ??0ItineraryWarningAdminDivChange@ngeo@Microsoft@@QAE@ABV012@@Z="C:\Windows\SysWOW64\MapRouter".??0ItineraryWarningAdminDivChange@ngeo@Microsoft@@QAE@ABV012@@Z
  ??0ItineraryWarningAttributes@ngeo@Microsoft@@AAE@ABV?$bitset@$0M@@std@@@Z="C:\Windows\SysWOW64\MapRouter".??0ItineraryWarningAttributes@ngeo@Microsoft@@AAE@ABV?$bitset@$0M@@std@@@Z
  ??0ItineraryWarningAttributes@ngeo@Microsoft@@QAE@ABV012@@Z="C:\Windows\SysWOW64\MapRouter".??0ItineraryWarningAttributes@ngeo@Microsoft@@QAE@ABV012@@Z
  ??0ItineraryWarningAttributes@nmacore@Microsoft@@QAE@ABV012@@Z="C:\Windows\SysWOW64\MapRouter".??0ItineraryWarningAttributes@nmacore@Microsoft@@QAE@ABV012@@Z
  ??0ItineraryWarningAttributes@nmacore@Microsoft@@QAE@PBV0ngeo@2@@Z="C:\Windows\SysWOW64\MapRouter".??0ItineraryWarningAttributes@nmacore@Microsoft@@QAE@PBV0ngeo@2@@Z
  ??0ItineraryWarningAttributes@nmacore@Microsoft@@QAE@W4TAttribute@IItineraryWarningAttributes@msnma@@@Z="C:\Windows\SysWOW64\MapRouter".??0ItineraryWarningAttributes@nmacore@Microsoft@@QAE@W4TAttribute@IItineraryWarningAttributes@msnma@@@Z
  ??0ItineraryWarningAttributes@nmacore@Microsoft@@QAE@_K@Z="C:\Windows\SysWOW64\MapRouter".??0ItineraryWarningAttributes@nmacore@Microsoft@@QAE@_K@Z
  ??0ItineraryWarningDivChange@nmacore@Microsoft@@QAE@ABV012@@Z="C:\Windows\SysWOW64\MapRouter".??0ItineraryWarningDivChange@nmacore@Microsoft@@QAE@ABV012@@Z
  ??0ItineraryWarningDivChange@nmacore@Microsoft@@QAE@ABV?$basic_string@GU?$char_traits@G@std@@V?$allocator@G@2@@std@@0_N@Z="C:\Windows\SysWOW64\MapRouter".??0ItineraryWarningDivChange@nmacore@Microsoft@@QAE@ABV?$basic_string@GU?$char_traits@G@std@@V?$allocator@G@2@@std@@0_N@Z
  ??0ItineraryWarningDivChange@nmacore@Microsoft@@QAE@PBVItineraryWarningAdminDivChange@ngeo@2@@Z="C:\Windows\SysWOW64\MapRouter".??0ItineraryWarningDivChange@nmacore@Microsoft@@QAE@PBVItineraryWarningAdminDivChange@ngeo@2@@Z
  ??0ItineraryWarningTraffic@ngeo@Microsoft@@AAE@ABV0smart5@2@@Z="C:\Windows\SysWOW64\MapRouter".??0ItineraryWarningTraffic@ngeo@Microsoft@@AAE@ABV0smart5@2@@Z
  ??0ItineraryWarningTraffic@ngeo@Microsoft@@QAE@ABV012@@Z="C:\Windows\SysWOW64\MapRouter".??0ItineraryWarningTraffic@ngeo@Microsoft@@QAE@ABV012@@Z
  ??0ItineraryWarningTraffic@nmacore@Microsoft@@QAE@ABV012@@Z="C:\Windows\SysWOW64\MapRouter".??0ItineraryWarningTraffic@nmacore@Microsoft@@QAE@ABV012@@Z
  ??0ItineraryWarningTraffic@nmacore@Microsoft@@QAE@PBV0ngeo@2@@Z="C:\Windows\SysWOW64\MapRouter".??0ItineraryWarningTraffic@nmacore@Microsoft@@QAE@PBV0ngeo@2@@Z
  ??0ItineraryWarningTraffic@nmacore@Microsoft@@QAE@W4TIncident@IItineraryWarningTraffic@msnma@@W4TSeverity@45@ABV?$basic_string@GU?$char_traits@G@std@@V?$allocator@G@2@@std@@ABVIGeoCoordinates@msngeo@@3@Z="C:\Windows\SysWOW64\MapRouter".??0ItineraryWarningTraffic@nmacore@Microsoft@@QAE@W4TIncident@IItineraryWarningTraffic@msnma@@W4TSeverity@45@ABV?$basic_string@GU?$char_traits@G@std@@V?$allocator@G@2@@std@@ABVIGeoCoordinates@msngeo@@3@Z
  ??0ItineraryWarningVisitor@ngeo@Microsoft@@QAE@ABV012@@Z="C:\Windows\SysWOW64\MapRouter".??0ItineraryWarningVisitor@ngeo@Microsoft@@QAE@ABV012@@Z
  ??0ItineraryWarningVisitor@ngeo@Microsoft@@QAE@XZ="C:\Windows\SysWOW64\MapRouter".??0ItineraryWarningVisitor@ngeo@Microsoft@@QAE@XZ
  ??0LaneInfo@ngeo@Microsoft@@QAE@$$QAV012@@Z="C:\Windows\SysWOW64\MapRouter".??0LaneInfo@ngeo@Microsoft@@QAE@$$QAV012@@Z
  ??0LaneInfo@ngeo@Microsoft@@QAE@ABV012@@Z="C:\Windows\SysWOW64\MapRouter".??0LaneInfo@ngeo@Microsoft@@QAE@ABV012@@Z
  ??0LaneInfo@ngeo@Microsoft@@QAE@ABV?$vector@W4DIRECTION@LaneInfo@ngeo@Microsoft@@V?$allocator@W4DIRECTION@LaneInfo@ngeo@Microsoft@@@std@@@std@@_N@Z="C:\Windows\SysWOW64\MapRouter".??0LaneInfo@ngeo@Microsoft@@QAE@ABV?$vector@W4DIRECTION@LaneInfo@ngeo@Microsoft@@V?$allocator@W4DIRECTION@LaneInfo@ngeo@Microsoft@@@std@@@std@@_N@Z
  ??0LaneInfo@ngeo@Microsoft@@QAE@XZ="C:\Windows\SysWOW64\MapRouter".??0LaneInfo@ngeo@Microsoft@@QAE@XZ
  ??0LanguageKeyValuePair@ngeo@Microsoft@@QAE@ABV012@@Z="C:\Windows\SysWOW64\MapRouter".??0LanguageKeyValuePair@ngeo@Microsoft@@QAE@ABV012@@Z
  ??0LanguageKeyValuePair@ngeo@Microsoft@@QAE@XZ="C:\Windows\SysWOW64\MapRouter".??0LanguageKeyValuePair@ngeo@Microsoft@@QAE@XZ
  ??0LanguageMapping@ngeo@Microsoft@@QAE@ABV012@@Z="C:\Windows\SysWOW64\MapRouter".??0LanguageMapping@ngeo@Microsoft@@QAE@ABV012@@Z
  ??0LanguageMapping@ngeo@Microsoft@@QAE@XZ="C:\Windows\SysWOW64\MapRouter".??0LanguageMapping@ngeo@Microsoft@@QAE@XZ
  ??0Location@ngeo@Microsoft@@QAE@ABV012@@Z="C:\Windows\SysWOW64\MapRouter".??0Location@ngeo@Microsoft@@QAE@ABV012@@Z
  ??0Location@ngeo@Microsoft@@QAE@ABVGeoCoordinates@12@ABVLocationInfo@12@@Z="C:\Windows\SysWOW64\MapRouter".??0Location@ngeo@Microsoft@@QAE@ABVGeoCoordinates@12@ABVLocationInfo@12@@Z
  ??0Location@ngeo@Microsoft@@QAE@XZ="C:\Windows\SysWOW64\MapRouter".??0Location@ngeo@Microsoft@@QAE@XZ
  ??0LocationInfo@ngeo@Microsoft@@QAE@ABV012@@Z="C:\Windows\SysWOW64\MapRouter".??0LocationInfo@ngeo@Microsoft@@QAE@ABV012@@Z
  ??0LocationInfo@ngeo@Microsoft@@QAE@ABV?$basic_string@GU?$char_traits@G@std@@V?$allocator@G@2@@std@@0000000@Z="C:\Windows\SysWOW64\MapRouter".??0LocationInfo@ngeo@Microsoft@@QAE@ABV?$basic_string@GU?$char_traits@G@std@@V?$allocator@G@2@@std@@0000000@Z
  ??0LocationInfo@ngeo@Microsoft@@QAE@XZ="C:\Windows\SysWOW64\MapRouter".??0LocationInfo@ngeo@Microsoft@@QAE@XZ
  ??0LocationSource@ngeo@Microsoft@@QAE@ABV012@@Z="C:\Windows\SysWOW64\MapRouter".??0LocationSource@ngeo@Microsoft@@QAE@ABV012@@Z
  ??0LocationSource@ngeo@Microsoft@@QAE@XZ="C:\Windows\SysWOW64\MapRouter".??0LocationSource@ngeo@Microsoft@@QAE@XZ
  ??0LocationSourceListener@ngeo@Microsoft@@QAE@ABV012@@Z="C:\Windows\SysWOW64\MapRouter".??0LocationSourceListener@ngeo@Microsoft@@QAE@ABV012@@Z
  ??0LocationSourceListener@ngeo@Microsoft@@QAE@XZ="C:\Windows\SysWOW64\MapRouter".??0LocationSourceListener@ngeo@Microsoft@@QAE@XZ
  ??0Maneuver@ngeo@Microsoft@@AAE@XZ="C:\Windows\SysWOW64\MapRouter".??0Maneuver@ngeo@Microsoft@@AAE@XZ
  ??0Maneuver@ngeo@Microsoft@@QAE@ABV012@@Z="C:\Windows\SysWOW64\MapRouter".??0Maneuver@ngeo@Microsoft@@QAE@ABV012@@Z
  ??0Maneuver@nmacore@Microsoft@@IAE@XZ="C:\Windows\SysWOW64\MapRouter".??0Maneuver@nmacore@Microsoft@@IAE@XZ
  ??0Maneuver@nmacore@Microsoft@@QAE@ABV012@@Z="C:\Windows\SysWOW64\MapRouter".??0Maneuver@nmacore@Microsoft@@QAE@ABV012@@Z
  ??0Maneuver@nmacore@Microsoft@@QAE@ABV0ngeo@2@ABVRoute@32@@Z="C:\Windows\SysWOW64\MapRouter".??0Maneuver@nmacore@Microsoft@@QAE@ABV0ngeo@2@ABVRoute@32@@Z
  ??0ManeuverVoiceInfo@ngeo@Microsoft@@QAE@ABV012@@Z="C:\Windows\SysWOW64\MapRouter".??0ManeuverVoiceInfo@ngeo@Microsoft@@QAE@ABV012@@Z
  ??0ManeuverVoiceInfo@ngeo@Microsoft@@QAE@XZ="C:\Windows\SysWOW64\MapRouter".??0ManeuverVoiceInfo@ngeo@Microsoft@@QAE@XZ
  ??0MapMatchedLocation@ngeo@Microsoft@@QAE@ABV012@@Z="C:\Windows\SysWOW64\MapRouter".??0MapMatchedLocation@ngeo@Microsoft@@QAE@ABV012@@Z
  ??0MapMatchedLocation@ngeo@Microsoft@@QAE@ABVLocation@12@0@Z="C:\Windows\SysWOW64\MapRouter".??0MapMatchedLocation@ngeo@Microsoft@@QAE@ABVLocation@12@0@Z
  ??0MapMatchedLocation@ngeo@Microsoft@@QAE@ABVLocation@12@0ABVRoadElement@12@@Z="C:\Windows\SysWOW64\MapRouter".??0MapMatchedLocation@ngeo@Microsoft@@QAE@ABVLocation@12@0ABVRoadElement@12@@Z
  ??0MapMatchedLocation@ngeo@Microsoft@@QAE@ABVLocation@12@@Z="C:\Windows\SysWOW64\MapRouter".??0MapMatchedLocation@ngeo@Microsoft@@QAE@ABVLocation@12@@Z
  ??0MapMatchedLocation@ngeo@Microsoft@@QAE@XZ="C:\Windows\SysWOW64\MapRouter".??0MapMatchedLocation@ngeo@Microsoft@@QAE@XZ
  ??0MapMatcher@ngeo@Microsoft@@QAE@ABV012@@Z="C:\Windows\SysWOW64\MapRouter".??0MapMatcher@ngeo@Microsoft@@QAE@ABV012@@Z
  ??0MapMatcher@ngeo@Microsoft@@QAE@XZ="C:\Windows\SysWOW64\MapRouter".??0MapMatcher@ngeo@Microsoft@@QAE@XZ
  ??0MapMatcherListener@ngeo@Microsoft@@QAE@ABV012@@Z="C:\Windows\SysWOW64\MapRouter".??0MapMatcherListener@ngeo@Microsoft@@QAE@ABV012@@Z
  ??0MapMatcherListener@ngeo@Microsoft@@QAE@XZ="C:\Windows\SysWOW64\MapRouter".??0MapMatcherListener@ngeo@Microsoft@@QAE@XZ
  ??0MapMatcherOptions@ngeo@Microsoft@@QAE@ABV012@@Z="C:\Windows\SysWOW64\MapRouter".??0MapMatcherOptions@ngeo@Microsoft@@QAE@ABV012@@Z
  ??0MapMatcherOptions@ngeo@Microsoft@@QAE@XZ="C:\Windows\SysWOW64\MapRouter".??0MapMatcherOptions@ngeo@Microsoft@@QAE@XZ
  ??0MapMatcherProxy@nmacore@Microsoft@@QAE@ABV012@@Z="C:\Windows\SysWOW64\MapRouter".??0MapMatcherProxy@nmacore@Microsoft@@QAE@ABV012@@Z
  ??0MapMatcherProxy@nmacore@Microsoft@@QAE@XZ="C:\Windows\SysWOW64\MapRouter".??0MapMatcherProxy@nmacore@Microsoft@@QAE@XZ
  ??0MapModel@ngeo@Microsoft@@QAE@ABV012@@Z="C:\Windows\SysWOW64\MapRouter".??0MapModel@ngeo@Microsoft@@QAE@ABV012@@Z
  ??0MapModel@ngeo@Microsoft@@QAE@ABV?$PresentSharedPtr@$$CBVRoutingGridLoader@smart5@Microsoft@@@Core@@ABV?$PresentSharedPtr@VLocaleMapConfiguration@MapControl@@@4@@Z="C:\Windows\SysWOW64\MapRouter".??0MapModel@ngeo@Microsoft@@QAE@ABV?$PresentSharedPtr@$$CBVRoutingGridLoader@smart5@Microsoft@@@Core@@ABV?$PresentSharedPtr@VLocaleMapConfiguration@MapControl@@@4@@Z
  ??0MapModel@ngeo@Microsoft@@QAE@XZ="C:\Windows\SysWOW64\MapRouter".??0MapModel@ngeo@Microsoft@@QAE@XZ
  ??0MapSensor@ngeo@Microsoft@@QAE@XZ="C:\Windows\SysWOW64\MapRouter".??0MapSensor@ngeo@Microsoft@@QAE@XZ
  ??0MapSensor@nmacore@Microsoft@@QAE@XZ="C:\Windows\SysWOW64\MapRouter".??0MapSensor@nmacore@Microsoft@@QAE@XZ
  ??0MicrosoftTtsVoiceInfo@ngeo@Microsoft@@QAE@$$QAV012@@Z="C:\Windows\SysWOW64\MapRouter".??0MicrosoftTtsVoiceInfo@ngeo@Microsoft@@QAE@$$QAV012@@Z
  ??0MicrosoftTtsVoiceInfo@ngeo@Microsoft@@QAE@ABV012@@Z="C:\Windows\SysWOW64\MapRouter".??0MicrosoftTtsVoiceInfo@ngeo@Microsoft@@QAE@ABV012@@Z
  ??0MicrosoftTtsVoiceInfo@ngeo@Microsoft@@QAE@ABV?$basic_string@GU?$char_traits@G@std@@V?$allocator@G@2@@std@@0@Z="C:\Windows\SysWOW64\MapRouter".??0MicrosoftTtsVoiceInfo@ngeo@Microsoft@@QAE@ABV?$basic_string@GU?$char_traits@G@std@@V?$allocator@G@2@@std@@0@Z
  ??0MicrosoftTtsVoiceInfo@ngeo@Microsoft@@QAE@XZ="C:\Windows\SysWOW64\MapRouter".??0MicrosoftTtsVoiceInfo@ngeo@Microsoft@@QAE@XZ
  ??0Mutex@ngeo@Microsoft@@AAE@ABV012@@Z="C:\Windows\SysWOW64\MapRouter".??0Mutex@ngeo@Microsoft@@AAE@ABV012@@Z
  ??0Mutex@ngeo@Microsoft@@QAE@XZ="C:\Windows\SysWOW64\MapRouter".??0Mutex@ngeo@Microsoft@@QAE@XZ
  ??0NaturalGuidanceVoiceInfo@ngeo@Microsoft@@QAE@ABV012@@Z="C:\Windows\SysWOW64\MapRouter".??0NaturalGuidanceVoiceInfo@ngeo@Microsoft@@QAE@ABV012@@Z
  ??0NaturalGuidanceVoiceInfo@ngeo@Microsoft@@QAE@XZ="C:\Windows\SysWOW64\MapRouter".??0NaturalGuidanceVoiceInfo@ngeo@Microsoft@@QAE@XZ
  ??0OperatingHours@ngeo@Microsoft@@QAE@XZ="C:\Windows\SysWOW64\MapRouter".??0OperatingHours@ngeo@Microsoft@@QAE@XZ
  ??0Output@ngeo@Microsoft@@QAE@$$QAV012@@Z="C:\Windows\SysWOW64\MapRouter".??0Output@ngeo@Microsoft@@QAE@$$QAV012@@Z
  ??0Output@ngeo@Microsoft@@QAE@ABV012@@Z="C:\Windows\SysWOW64\MapRouter".??0Output@ngeo@Microsoft@@QAE@ABV012@@Z
  ??0Output@ngeo@Microsoft@@QAE@XZ="C:\Windows\SysWOW64\MapRouter".??0Output@ngeo@Microsoft@@QAE@XZ
  ??0OutputEngine@ngeo@Microsoft@@QAE@ABV012@@Z="C:\Windows\SysWOW64\MapRouter".??0OutputEngine@ngeo@Microsoft@@QAE@ABV012@@Z
  ??0OutputEngine@ngeo@Microsoft@@QAE@XZ="C:\Windows\SysWOW64\MapRouter".??0OutputEngine@ngeo@Microsoft@@QAE@XZ
  ??0PhonemeMapping@ngeo@Microsoft@@QAE@ABV012@@Z="C:\Windows\SysWOW64\MapRouter".??0PhonemeMapping@ngeo@Microsoft@@QAE@ABV012@@Z
  ??0PhonemeMapping@ngeo@Microsoft@@QAE@XZ="C:\Windows\SysWOW64\MapRouter".??0PhonemeMapping@ngeo@Microsoft@@QAE@XZ
  ??0PixelCoordinates@ngeo@Microsoft@@QAE@MM@Z="C:\Windows\SysWOW64\MapRouter".??0PixelCoordinates@ngeo@Microsoft@@QAE@MM@Z
  ??0PixelCoordinates@ngeo@Microsoft@@QAE@XZ="C:\Windows\SysWOW64\MapRouter".??0PixelCoordinates@ngeo@Microsoft@@QAE@XZ
  ??0PixelRect@ngeo@Microsoft@@QAE@ABVPixelCoordinates@12@ABVSizeInPixels@12@@Z="C:\Windows\SysWOW64\MapRouter".??0PixelRect@ngeo@Microsoft@@QAE@ABVPixelCoordinates@12@ABVSizeInPixels@12@@Z
  ??0PixelRect@ngeo@Microsoft@@QAE@MMMM@Z="C:\Windows\SysWOW64\MapRouter".??0PixelRect@ngeo@Microsoft@@QAE@MMMM@Z
  ??0PixelRect@ngeo@Microsoft@@QAE@XZ="C:\Windows\SysWOW64\MapRouter".??0PixelRect@ngeo@Microsoft@@QAE@XZ
  ??0Poller@nmacore@Microsoft@@QAE@ABV012@@Z="C:\Windows\SysWOW64\MapRouter".??0Poller@nmacore@Microsoft@@QAE@ABV012@@Z
  ??0Poller@nmacore@Microsoft@@QAE@XZ="C:\Windows\SysWOW64\MapRouter".??0Poller@nmacore@Microsoft@@QAE@XZ
  ??0ProxyObject@ngeo@Microsoft@@IAE@XZ="C:\Windows\SysWOW64\MapRouter".??0ProxyObject@ngeo@Microsoft@@IAE@XZ
  ??0ProxyObject@ngeo@Microsoft@@QAE@ABV012@@Z="C:\Windows\SysWOW64\MapRouter".??0ProxyObject@ngeo@Microsoft@@QAE@ABV012@@Z
  ??0ProxyObjectHandle@ngeo@Microsoft@@QAE@$$QAU012@@Z="C:\Windows\SysWOW64\MapRouter".??0ProxyObjectHandle@ngeo@Microsoft@@QAE@$$QAU012@@Z
  ??0ProxyObjectHandle@ngeo@Microsoft@@QAE@ABU012@@Z="C:\Windows\SysWOW64\MapRouter".??0ProxyObjectHandle@ngeo@Microsoft@@QAE@ABU012@@Z
  ??0ProxyObjectHandle@ngeo@Microsoft@@QAE@PAVProxyObject@12@@Z="C:\Windows\SysWOW64\MapRouter".??0ProxyObjectHandle@ngeo@Microsoft@@QAE@PAVProxyObject@12@@Z
  ??0RefCountable@internal@ngeo@Microsoft@@QAE@ABV0123@@Z="C:\Windows\SysWOW64\MapRouter".??0RefCountable@internal@ngeo@Microsoft@@QAE@ABV0123@@Z
  ??0RefCountable@internal@ngeo@Microsoft@@QAE@XZ="C:\Windows\SysWOW64\MapRouter".??0RefCountable@internal@ngeo@Microsoft@@QAE@XZ
  ??0RenderBuffer@ngeo@Microsoft@@QAE@ABV012@@Z="C:\Windows\SysWOW64\MapRouter".??0RenderBuffer@ngeo@Microsoft@@QAE@ABV012@@Z
  ??0RenderBuffer@ngeo@Microsoft@@QAE@ABVPixelRect@12@0W4RenderingMode@012@@Z="C:\Windows\SysWOW64\MapRouter".??0RenderBuffer@ngeo@Microsoft@@QAE@ABVPixelRect@12@0W4RenderingMode@012@@Z
  ??0RenderBuffer@ngeo@Microsoft@@QAE@ABVPixelRect@12@W4RenderingMode@012@@Z="C:\Windows\SysWOW64\MapRouter".??0RenderBuffer@ngeo@Microsoft@@QAE@ABVPixelRect@12@W4RenderingMode@012@@Z
  ??0RoadElement@ngeo@Microsoft@@AAE@ABV?$SharedPointer@VRoadElementImpl@internal@ngeo@Microsoft@@$0A@@12@@Z="C:\Windows\SysWOW64\MapRouter".??0RoadElement@ngeo@Microsoft@@AAE@ABV?$SharedPointer@VRoadElementImpl@internal@ngeo@Microsoft@@$0A@@12@@Z
  ??0RoadElement@ngeo@Microsoft@@QAE@$$QAV012@@Z="C:\Windows\SysWOW64\MapRouter".??0RoadElement@ngeo@Microsoft@@QAE@$$QAV012@@Z
  ??0RoadElement@ngeo@Microsoft@@QAE@ABV012@@Z="C:\Windows\SysWOW64\MapRouter".??0RoadElement@ngeo@Microsoft@@QAE@ABV012@@Z
  ??0RoadElement@ngeo@Microsoft@@QAE@XZ="C:\Windows\SysWOW64\MapRouter".??0RoadElement@ngeo@Microsoft@@QAE@XZ
  ??0RoadElementPenalty@DynamicPenalty@ngeo@Microsoft@@QAE@ABVEdgeId@smart5@3@W4DrivingDirection@23@E_N@Z="C:\Windows\SysWOW64\MapRouter".??0RoadElementPenalty@DynamicPenalty@ngeo@Microsoft@@QAE@ABVEdgeId@smart5@3@W4DrivingDirection@23@E_N@Z
  ??0RoadElementPenalty@DynamicPenalty@ngeo@Microsoft@@QAE@XZ="C:\Windows\SysWOW64\MapRouter".??0RoadElementPenalty@DynamicPenalty@ngeo@Microsoft@@QAE@XZ
  ??0Route@ngeo@Microsoft@@QAE@$$QAV012@@Z="C:\Windows\SysWOW64\MapRouter".??0Route@ngeo@Microsoft@@QAE@$$QAV012@@Z
  ??0Route@ngeo@Microsoft@@QAE@ABV012@@Z="C:\Windows\SysWOW64\MapRouter".??0Route@ngeo@Microsoft@@QAE@ABV012@@Z
  ??0Route@ngeo@Microsoft@@QAE@ABVRoutePlan@12@ABV?$PresentSharedPtr@$$CBVRoutingGridLoader@smart5@Microsoft@@@Core@@@Z="C:\Windows\SysWOW64\MapRouter".??0Route@ngeo@Microsoft@@QAE@ABVRoutePlan@12@ABV?$PresentSharedPtr@$$CBVRoutingGridLoader@smart5@Microsoft@@@Core@@@Z
  ??0Route@ngeo@Microsoft@@QAE@XZ="C:\Windows\SysWOW64\MapRouter".??0Route@ngeo@Microsoft@@QAE@XZ
  ??0Route@nmacore@Microsoft@@IAE@XZ="C:\Windows\SysWOW64\MapRouter".??0Route@nmacore@Microsoft@@IAE@XZ
  ??0Route@nmacore@Microsoft@@IAE@_N@Z="C:\Windows\SysWOW64\MapRouter".??0Route@nmacore@Microsoft@@IAE@_N@Z
  ??0Route@nmacore@Microsoft@@QAE@ABV012@@Z="C:\Windows\SysWOW64\MapRouter".??0Route@nmacore@Microsoft@@QAE@ABV012@@Z
  ??0Route@nmacore@Microsoft@@QAE@ABV0ngeo@2@W4TCalculationType@IRoute@msnma@@@Z="C:\Windows\SysWOW64\MapRouter".??0Route@nmacore@Microsoft@@QAE@ABV0ngeo@2@W4TCalculationType@IRoute@msnma@@@Z
  ??0RouteElement@ngeo@Microsoft@@AAE@ABV?$SharedPointer@VRouteImpl@internal@ngeo@Microsoft@@$0A@@12@I@Z="C:\Windows\SysWOW64\MapRouter".??0RouteElement@ngeo@Microsoft@@AAE@ABV?$SharedPointer@VRouteImpl@internal@ngeo@Microsoft@@$0A@@12@I@Z
  ??0RouteElement@ngeo@Microsoft@@AAE@XZ="C:\Windows\SysWOW64\MapRouter".??0RouteElement@ngeo@Microsoft@@AAE@XZ
  ??0RouteElement@ngeo@Microsoft@@QAE@$$QAV012@@Z="C:\Windows\SysWOW64\MapRouter".??0RouteElement@ngeo@Microsoft@@QAE@$$QAV012@@Z
  ??0RouteElement@ngeo@Microsoft@@QAE@ABV012@@Z="C:\Windows\SysWOW64\MapRouter".??0RouteElement@ngeo@Microsoft@@QAE@ABV012@@Z
  ??0RouteElements@ngeo@Microsoft@@AAE@ABV?$SharedPointer@VRouteImpl@internal@ngeo@Microsoft@@$0A@@12@@Z="C:\Windows\SysWOW64\MapRouter".??0RouteElements@ngeo@Microsoft@@AAE@ABV?$SharedPointer@VRouteImpl@internal@ngeo@Microsoft@@$0A@@12@@Z
  ??0RouteElements@ngeo@Microsoft@@AAE@ABV?$SharedPointer@VRouteImpl@internal@ngeo@Microsoft@@$0A@@12@II@Z="C:\Windows\SysWOW64\MapRouter".??0RouteElements@ngeo@Microsoft@@AAE@ABV?$SharedPointer@VRouteImpl@internal@ngeo@Microsoft@@$0A@@12@II@Z
  ??0RouteElements@ngeo@Microsoft@@QAE@$$QAV012@@Z="C:\Windows\SysWOW64\MapRouter".??0RouteElements@ngeo@Microsoft@@QAE@$$QAV012@@Z
  ??0RouteElements@ngeo@Microsoft@@QAE@ABV012@@Z="C:\Windows\SysWOW64\MapRouter".??0RouteElements@ngeo@Microsoft@@QAE@ABV012@@Z
  ??0RouteElements@ngeo@Microsoft@@QAE@XZ="C:\Windows\SysWOW64\MapRouter".??0RouteElements@ngeo@Microsoft@@QAE@XZ
  ??0RouteOptions@ngeo@Microsoft@@QAE@ABV012@@Z="C:\Windows\SysWOW64\MapRouter".??0RouteOptions@ngeo@Microsoft@@QAE@ABV012@@Z
  ??0RouteOptions@ngeo@Microsoft@@QAE@XZ="C:\Windows\SysWOW64\MapRouter".??0RouteOptions@ngeo@Microsoft@@QAE@XZ
  ??0RouteOptions@nmacore@Microsoft@@QAE@ABV012@@Z="C:\Windows\SysWOW64\MapRouter".??0RouteOptions@nmacore@Microsoft@@QAE@ABV012@@Z
  ??0RouteOptions@nmacore@Microsoft@@QAE@ABV0ngeo@2@@Z="C:\Windows\SysWOW64\MapRouter".??0RouteOptions@nmacore@Microsoft@@QAE@ABV0ngeo@2@@Z
  ??0RouteOptions@nmacore@Microsoft@@QAE@XZ="C:\Windows\SysWOW64\MapRouter".??0RouteOptions@nmacore@Microsoft@@QAE@XZ
  ??0RoutePlan@ngeo@Microsoft@@QAE@ABV012@@Z="C:\Windows\SysWOW64\MapRouter".??0RoutePlan@ngeo@Microsoft@@QAE@ABV012@@Z
  ??0RoutePlan@ngeo@Microsoft@@QAE@XZ="C:\Windows\SysWOW64\MapRouter".??0RoutePlan@ngeo@Microsoft@@QAE@XZ
  ??0RouteWaypoint@ngeo@Microsoft@@QAE@$$QAV012@@Z="C:\Windows\SysWOW64\MapRouter".??0RouteWaypoint@ngeo@Microsoft@@QAE@$$QAV012@@Z
  ??0RouteWaypoint@ngeo@Microsoft@@QAE@ABV012@@Z="C:\Windows\SysWOW64\MapRouter".??0RouteWaypoint@ngeo@Microsoft@@QAE@ABV012@@Z
  ??0RouteWaypoint@ngeo@Microsoft@@QAE@ABVLocation@12@W4Type@012@@Z="C:\Windows\SysWOW64\MapRouter".??0RouteWaypoint@ngeo@Microsoft@@QAE@ABVLocation@12@W4Type@012@@Z
  ??0RouteWaypoint@ngeo@Microsoft@@QAE@XZ="C:\Windows\SysWOW64\MapRouter".??0RouteWaypoint@ngeo@Microsoft@@QAE@XZ
  ??0Router@ngeo@Microsoft@@QAE@ABVMapModel@12@V?$bitset@$00@std@@@Z="C:\Windows\SysWOW64\MapRouter".??0Router@ngeo@Microsoft@@QAE@ABVMapModel@12@V?$bitset@$00@std@@@Z
  ??0RouterEngine@nmacore@Microsoft@@QAE@ABVMapModel@ngeo@2@@Z="C:\Windows\SysWOW64\MapRouter".??0RouterEngine@nmacore@Microsoft@@QAE@ABVMapModel@ngeo@2@@Z
  ??0RouterEngine@nmacore@Microsoft@@QAE@XZ="C:\Windows\SysWOW64\MapRouter".??0RouterEngine@nmacore@Microsoft@@QAE@XZ
  ??0RouterListener@ngeo@Microsoft@@QAE@ABV012@@Z="C:\Windows\SysWOW64\MapRouter".??0RouterListener@ngeo@Microsoft@@QAE@ABV012@@Z
  ??0RouterListener@ngeo@Microsoft@@QAE@XZ="C:\Windows\SysWOW64\MapRouter".??0RouterListener@ngeo@Microsoft@@QAE@XZ
  ??0Runtime@nmacore@Microsoft@@QAE@XZ="C:\Windows\SysWOW64\MapRouter".??0Runtime@nmacore@Microsoft@@QAE@XZ
  ??0Sensors@nmacore@Microsoft@@QAE@ABV012@@Z="C:\Windows\SysWOW64\MapRouter".??0Sensors@nmacore@Microsoft@@QAE@ABV012@@Z
  ??0Sensors@nmacore@Microsoft@@QAE@XZ="C:\Windows\SysWOW64\MapRouter".??0Sensors@nmacore@Microsoft@@QAE@XZ
  ??0SharedMutex@ngeo@Microsoft@@QAE@ABV012@@Z="C:\Windows\SysWOW64\MapRouter".??0SharedMutex@ngeo@Microsoft@@QAE@ABV012@@Z
  ??0SharedMutex@ngeo@Microsoft@@QAE@XZ="C:\Windows\SysWOW64\MapRouter".??0SharedMutex@ngeo@Microsoft@@QAE@XZ
  ??0SideOfDestinationVoiceInfo@ngeo@Microsoft@@QAE@ABV012@@Z="C:\Windows\SysWOW64\MapRouter".??0SideOfDestinationVoiceInfo@ngeo@Microsoft@@QAE@ABV012@@Z
  ??0SideOfDestinationVoiceInfo@ngeo@Microsoft@@QAE@XZ="C:\Windows\SysWOW64\MapRouter".??0SideOfDestinationVoiceInfo@ngeo@Microsoft@@QAE@XZ
  ??0Signpost@ngeo@Microsoft@@AAE@XZ="C:\Windows\SysWOW64\MapRouter".??0Signpost@ngeo@Microsoft@@AAE@XZ
  ??0Signpost@ngeo@Microsoft@@QAE@$$QAV012@@Z="C:\Windows\SysWOW64\MapRouter".??0Signpost@ngeo@Microsoft@@QAE@$$QAV012@@Z
  ??0Signpost@ngeo@Microsoft@@QAE@ABV012@@Z="C:\Windows\SysWOW64\MapRouter".??0Signpost@ngeo@Microsoft@@QAE@ABV012@@Z
  ??0SignpostLabelVoiceInfo@ngeo@Microsoft@@QAE@ABV012@@Z="C:\Windows\SysWOW64\MapRouter".??0SignpostLabelVoiceInfo@ngeo@Microsoft@@QAE@ABV012@@Z
  ??0SignpostLabelVoiceInfo@ngeo@Microsoft@@QAE@XZ="C:\Windows\SysWOW64\MapRouter".??0SignpostLabelVoiceInfo@ngeo@Microsoft@@QAE@XZ
  ??0SignpostVoiceInfo@ngeo@Microsoft@@QAE@ABV012@@Z="C:\Windows\SysWOW64\MapRouter".??0SignpostVoiceInfo@ngeo@Microsoft@@QAE@ABV012@@Z
  ??0SignpostVoiceInfo@ngeo@Microsoft@@QAE@XZ="C:\Windows\SysWOW64\MapRouter".??0SignpostVoiceInfo@ngeo@Microsoft@@QAE@XZ
  ??0SimpleGuidance@naviplayer@Microsoft@@QAE@ABV012@@Z="C:\Windows\SysWOW64\MapRouter".??0SimpleGuidance@naviplayer@Microsoft@@QAE@ABV012@@Z
  ??0SimpleGuidance@naviplayer@Microsoft@@QAE@XZ="C:\Windows\SysWOW64\MapRouter".??0SimpleGuidance@naviplayer@Microsoft@@QAE@XZ
  ??0SimpleGuidanceListener@naviplayer@Microsoft@@QAE@ABV012@@Z="C:\Windows\SysWOW64\MapRouter".??0SimpleGuidanceListener@naviplayer@Microsoft@@QAE@ABV012@@Z
  ??0SimpleGuidanceListener@naviplayer@Microsoft@@QAE@XZ="C:\Windows\SysWOW64\MapRouter".??0SimpleGuidanceListener@naviplayer@Microsoft@@QAE@XZ
  ??0SimpleGuidanceOptions@naviplayer@Microsoft@@QAE@ABV012@@Z="C:\Windows\SysWOW64\MapRouter".??0SimpleGuidanceOptions@naviplayer@Microsoft@@QAE@ABV012@@Z
  ??0SimpleGuidanceOptions@naviplayer@Microsoft@@QAE@W4TrafficAvoidanceMode@012@I@Z="C:\Windows\SysWOW64\MapRouter".??0SimpleGuidanceOptions@naviplayer@Microsoft@@QAE@W4TrafficAvoidanceMode@012@I@Z
  ??0SimpleGuidanceOptions@naviplayer@Microsoft@@QAE@XZ="C:\Windows\SysWOW64\MapRouter".??0SimpleGuidanceOptions@naviplayer@Microsoft@@QAE@XZ
  ??0SizeInPixels@ngeo@Microsoft@@QAE@MM@Z="C:\Windows\SysWOW64\MapRouter".??0SizeInPixels@ngeo@Microsoft@@QAE@MM@Z
  ??0SizeInPixels@ngeo@Microsoft@@QAE@XZ="C:\Windows\SysWOW64\MapRouter".??0SizeInPixels@ngeo@Microsoft@@QAE@XZ
  ??0SpeedNotification@ngeo@Microsoft@@AAE@XZ="C:\Windows\SysWOW64\MapRouter".??0SpeedNotification@ngeo@Microsoft@@AAE@XZ
  ??0SpeedNotification@ngeo@Microsoft@@QAE@$$QAV012@@Z="C:\Windows\SysWOW64\MapRouter".??0SpeedNotification@ngeo@Microsoft@@QAE@$$QAV012@@Z
  ??0SpeedNotification@ngeo@Microsoft@@QAE@ABV012@@Z="C:\Windows\SysWOW64\MapRouter".??0SpeedNotification@ngeo@Microsoft@@QAE@ABV012@@Z
  ??0SpeedWarner@ngeo@Microsoft@@QAE@XZ="C:\Windows\SysWOW64\MapRouter".??0SpeedWarner@ngeo@Microsoft@@QAE@XZ
  ??0SpeedWarnerListener@ngeo@Microsoft@@QAE@ABV012@@Z="C:\Windows\SysWOW64\MapRouter".??0SpeedWarnerListener@ngeo@Microsoft@@QAE@ABV012@@Z
  ??0SpeedWarnerListener@ngeo@Microsoft@@QAE@XZ="C:\Windows\SysWOW64\MapRouter".??0SpeedWarnerListener@ngeo@Microsoft@@QAE@XZ
  ??0SpeedWarnerOptions@ngeo@Microsoft@@QAE@MMM@Z="C:\Windows\SysWOW64\MapRouter".??0SpeedWarnerOptions@ngeo@Microsoft@@QAE@MMM@Z
  ??0StatRepository@nmacore@Microsoft@@QAE@ABV012@@Z="C:\Windows\SysWOW64\MapRouter".??0StatRepository@nmacore@Microsoft@@QAE@ABV012@@Z
  ??0StatRepository@nmacore@Microsoft@@QAE@XZ="C:\Windows\SysWOW64\MapRouter".??0StatRepository@nmacore@Microsoft@@QAE@XZ
  ??0StatStartTiming@nmacore@Microsoft@@QAE@ABV012@@Z="C:\Windows\SysWOW64\MapRouter".??0StatStartTiming@nmacore@Microsoft@@QAE@ABV012@@Z
  ??0StatStartTiming@nmacore@Microsoft@@QAE@V?$basic_string@GU?$char_traits@G@std@@V?$allocator@G@2@@std@@@Z="C:\Windows\SysWOW64\MapRouter".??0StatStartTiming@nmacore@Microsoft@@QAE@V?$basic_string@GU?$char_traits@G@std@@V?$allocator@G@2@@std@@@Z
  ??0StatStartTiming@nmacore@Microsoft@@QAE@XZ="C:\Windows\SysWOW64\MapRouter".??0StatStartTiming@nmacore@Microsoft@@QAE@XZ
  ??0StreetVoiceInfo@ngeo@Microsoft@@QAE@ABV012@@Z="C:\Windows\SysWOW64\MapRouter".??0StreetVoiceInfo@ngeo@Microsoft@@QAE@ABV012@@Z
  ??0StreetVoiceInfo@ngeo@Microsoft@@QAE@XZ="C:\Windows\SysWOW64\MapRouter".??0StreetVoiceInfo@ngeo@Microsoft@@QAE@XZ
  ??0Surface@ngeo@Microsoft@@QAE@ABV012@@Z="C:\Windows\SysWOW64\MapRouter".??0Surface@ngeo@Microsoft@@QAE@ABV012@@Z
  ??0Surface@ngeo@Microsoft@@QAE@II@Z="C:\Windows\SysWOW64\MapRouter".??0Surface@ngeo@Microsoft@@QAE@II@Z
  ??0Time@ngeo@Microsoft@@QAE@EEEG@Z="C:\Windows\SysWOW64\MapRouter".??0Time@ngeo@Microsoft@@QAE@EEEG@Z
  ??0Time@ngeo@Microsoft@@QAE@XZ="C:\Windows\SysWOW64\MapRouter".??0Time@ngeo@Microsoft@@QAE@XZ
  ??0TimeInterval@ngeo@Microsoft@@QAE@ABVTime@12@0@Z="C:\Windows\SysWOW64\MapRouter".??0TimeInterval@ngeo@Microsoft@@QAE@ABVTime@12@0@Z
  ??0TimeInterval@ngeo@Microsoft@@QAE@XZ="C:\Windows\SysWOW64\MapRouter".??0TimeInterval@ngeo@Microsoft@@QAE@XZ
  ??0Traffic@ngeo@Microsoft@@QAE@ABV012@@Z="C:\Windows\SysWOW64\MapRouter".??0Traffic@ngeo@Microsoft@@QAE@ABV012@@Z
  ??0Traffic@ngeo@Microsoft@@QAE@XZ="C:\Windows\SysWOW64\MapRouter".??0Traffic@ngeo@Microsoft@@QAE@XZ
  ??0TrafficEngine@nmacore@Microsoft@@QAE@ABV012@@Z="C:\Windows\SysWOW64\MapRouter".??0TrafficEngine@nmacore@Microsoft@@QAE@ABV012@@Z
  ??0TrafficEngine@nmacore@Microsoft@@QAE@XZ="C:\Windows\SysWOW64\MapRouter".??0TrafficEngine@nmacore@Microsoft@@QAE@XZ
  ??0TrafficEvent@ngeo@Microsoft@@QAE@ABV012@@Z="C:\Windows\SysWOW64\MapRouter".??0TrafficEvent@ngeo@Microsoft@@QAE@ABV012@@Z
  ??0TrafficEvent@ngeo@Microsoft@@QAE@XZ="C:\Windows\SysWOW64\MapRouter".??0TrafficEvent@ngeo@Microsoft@@QAE@XZ
  ??0TrafficEvent@nmacore@Microsoft@@QAE@ABV012@@Z="C:\Windows\SysWOW64\MapRouter".??0TrafficEvent@nmacore@Microsoft@@QAE@ABV012@@Z
  ??0TrafficEvent@nmacore@Microsoft@@QAE@ABV0ngeo@2@@Z="C:\Windows\SysWOW64\MapRouter".??0TrafficEvent@nmacore@Microsoft@@QAE@ABV0ngeo@2@@Z
  ??0TrafficEventObject@ngeo@Microsoft@@AAE@ABVTrafficEvent@12@ABVGeoCoordinates@12@@Z="C:\Windows\SysWOW64\MapRouter".??0TrafficEventObject@ngeo@Microsoft@@AAE@ABVTrafficEvent@12@ABVGeoCoordinates@12@@Z
  ??0TrafficEventObject@ngeo@Microsoft@@AAE@XZ="C:\Windows\SysWOW64\MapRouter".??0TrafficEventObject@ngeo@Microsoft@@AAE@XZ
  ??0TrafficEventObject@ngeo@Microsoft@@QAE@ABV012@@Z="C:\Windows\SysWOW64\MapRouter".??0TrafficEventObject@ngeo@Microsoft@@QAE@ABV012@@Z
  ??0TrafficListener@ngeo@Microsoft@@IAE@XZ="C:\Windows\SysWOW64\MapRouter".??0TrafficListener@ngeo@Microsoft@@IAE@XZ
  ??0TrafficListener@ngeo@Microsoft@@QAE@ABV012@@Z="C:\Windows\SysWOW64\MapRouter".??0TrafficListener@ngeo@Microsoft@@QAE@ABV012@@Z
  ??0TrafficNotification@ngeo@Microsoft@@AAE@XZ="C:\Windows\SysWOW64\MapRouter".??0TrafficNotification@ngeo@Microsoft@@AAE@XZ
  ??0TrafficNotificationInfo@ngeo@Microsoft@@QAE@XZ="C:\Windows\SysWOW64\MapRouter".??0TrafficNotificationInfo@ngeo@Microsoft@@QAE@XZ
  ??0TrafficPenaltySource@DynamicPenalty@ngeo@Microsoft@@QAE@AAVTraffic@23@W4MODE@0123@@Z="C:\Windows\SysWOW64\MapRouter".??0TrafficPenaltySource@DynamicPenalty@ngeo@Microsoft@@QAE@AAVTraffic@23@W4MODE@0123@@Z
  ??0TrafficPenaltySource@DynamicPenalty@ngeo@Microsoft@@QAE@ABV0123@@Z="C:\Windows\SysWOW64\MapRouter".??0TrafficPenaltySource@DynamicPenalty@ngeo@Microsoft@@QAE@ABV0123@@Z
  ??0TrafficPenaltySource@DynamicPenalty@ngeo@Microsoft@@QAE@XZ="C:\Windows\SysWOW64\MapRouter".??0TrafficPenaltySource@DynamicPenalty@ngeo@Microsoft@@QAE@XZ
  ??0TrafficVisitor@ngeo@Microsoft@@QAE@ABV012@@Z="C:\Windows\SysWOW64\MapRouter".??0TrafficVisitor@ngeo@Microsoft@@QAE@ABV012@@Z
  ??0TrafficVisitor@ngeo@Microsoft@@QAE@XZ="C:\Windows\SysWOW64\MapRouter".??0TrafficVisitor@ngeo@Microsoft@@QAE@XZ
  ??0TrafficWarner@ngeo@Microsoft@@QAE@XZ="C:\Windows\SysWOW64\MapRouter".??0TrafficWarner@ngeo@Microsoft@@QAE@XZ
  ??0TrafficWarnerListener@ngeo@Microsoft@@QAE@ABV012@@Z="C:\Windows\SysWOW64\MapRouter".??0TrafficWarnerListener@ngeo@Microsoft@@QAE@ABV012@@Z
  ??0TrafficWarnerListener@ngeo@Microsoft@@QAE@XZ="C:\Windows\SysWOW64\MapRouter".??0TrafficWarnerListener@ngeo@Microsoft@@QAE@XZ
  ??0TrafficWarnerOptions@ngeo@Microsoft@@QAE@IIII@Z="C:\Windows\SysWOW64\MapRouter".??0TrafficWarnerOptions@ngeo@Microsoft@@QAE@IIII@Z
  ??0TrafficWarnerOptions@ngeo@Microsoft@@QAE@XZ="C:\Windows\SysWOW64\MapRouter".??0TrafficWarnerOptions@ngeo@Microsoft@@QAE@XZ
  ??0TransitAccessInfo@ngeo@Microsoft@@QAE@XZ="C:\Windows\SysWOW64\MapRouter".??0TransitAccessInfo@ngeo@Microsoft@@QAE@XZ
  ??0TransitDatabase@ngeo@Microsoft@@QAE@XZ="C:\Windows\SysWOW64\MapRouter".??0TransitDatabase@ngeo@Microsoft@@QAE@XZ
  ??0TransitDatabase@nmacore@Microsoft@@QAE@ABV012@@Z="C:\Windows\SysWOW64\MapRouter".??0TransitDatabase@nmacore@Microsoft@@QAE@ABV012@@Z
  ??0TransitDatabase@nmacore@Microsoft@@QAE@XZ="C:\Windows\SysWOW64\MapRouter".??0TransitDatabase@nmacore@Microsoft@@QAE@XZ
  ??0TransitDatabaseListener@ngeo@Microsoft@@IAE@XZ="C:\Windows\SysWOW64\MapRouter".??0TransitDatabaseListener@ngeo@Microsoft@@IAE@XZ
  ??0TransitDatabaseListener@ngeo@Microsoft@@QAE@ABV012@@Z="C:\Windows\SysWOW64\MapRouter".??0TransitDatabaseListener@ngeo@Microsoft@@QAE@ABV012@@Z
  ??0TransitDatabaseListener@nmacore@Microsoft@@QAE@ABV012@@Z="C:\Windows\SysWOW64\MapRouter".??0TransitDatabaseListener@nmacore@Microsoft@@QAE@ABV012@@Z
  ??0TransitDatabaseListener@nmacore@Microsoft@@QAE@XZ="C:\Windows\SysWOW64\MapRouter".??0TransitDatabaseListener@nmacore@Microsoft@@QAE@XZ
  ??0TransitLineInfo@ngeo@Microsoft@@QAE@XZ="C:\Windows\SysWOW64\MapRouter".??0TransitLineInfo@ngeo@Microsoft@@QAE@XZ
  ??0TransitLineInfo@nmacore@Microsoft@@QAE@ABV012@@Z="C:\Windows\SysWOW64\MapRouter".??0TransitLineInfo@nmacore@Microsoft@@QAE@ABV012@@Z
  ??0TransitLineInfo@nmacore@Microsoft@@QAE@ABV0ngeo@2@@Z="C:\Windows\SysWOW64\MapRouter".??0TransitLineInfo@nmacore@Microsoft@@QAE@ABV0ngeo@2@@Z
  ??0TransitLineInfo@nmacore@Microsoft@@QAE@ABVEdgeId@smart5@2@@Z="C:\Windows\SysWOW64\MapRouter".??0TransitLineInfo@nmacore@Microsoft@@QAE@ABVEdgeId@smart5@2@@Z
  ??0TransitLineInfo@nmacore@Microsoft@@QAE@XZ="C:\Windows\SysWOW64\MapRouter".??0TransitLineInfo@nmacore@Microsoft@@QAE@XZ
  ??0TransitRouteElement@ngeo@Microsoft@@AAE@ABV?$SharedPointer@VRouteImpl@internal@ngeo@Microsoft@@$0A@@12@I@Z="C:\Windows\SysWOW64\MapRouter".??0TransitRouteElement@ngeo@Microsoft@@AAE@ABV?$SharedPointer@VRouteImpl@internal@ngeo@Microsoft@@$0A@@12@I@Z
  ??0TransitRouteElement@ngeo@Microsoft@@QAE@$$QAV012@@Z="C:\Windows\SysWOW64\MapRouter".??0TransitRouteElement@ngeo@Microsoft@@QAE@$$QAV012@@Z
  ??0TransitRouteElement@ngeo@Microsoft@@QAE@ABV012@@Z="C:\Windows\SysWOW64\MapRouter".??0TransitRouteElement@ngeo@Microsoft@@QAE@ABV012@@Z
  ??0TransitRouteElement@ngeo@Microsoft@@QAE@XZ="C:\Windows\SysWOW64\MapRouter".??0TransitRouteElement@ngeo@Microsoft@@QAE@XZ
  ??0TransitRouteOptions@ngeo@Microsoft@@QAE@XZ="C:\Windows\SysWOW64\MapRouter".??0TransitRouteOptions@ngeo@Microsoft@@QAE@XZ
  ??0TransitRouteStop@ngeo@Microsoft@@AAE@ABV?$SharedPointer@VRouteImpl@internal@ngeo@Microsoft@@$0A@@12@I_N@Z="C:\Windows\SysWOW64\MapRouter".??0TransitRouteStop@ngeo@Microsoft@@AAE@ABV?$SharedPointer@VRouteImpl@internal@ngeo@Microsoft@@$0A@@12@I_N@Z
  ??0TransitRouteStop@ngeo@Microsoft@@QAE@$$QAV012@@Z="C:\Windows\SysWOW64\MapRouter".??0TransitRouteStop@ngeo@Microsoft@@QAE@$$QAV012@@Z
  ??0TransitRouteStop@ngeo@Microsoft@@QAE@ABV012@@Z="C:\Windows\SysWOW64\MapRouter".??0TransitRouteStop@ngeo@Microsoft@@QAE@ABV012@@Z
  ??0TransitRouteStop@ngeo@Microsoft@@QAE@XZ="C:\Windows\SysWOW64\MapRouter".??0TransitRouteStop@ngeo@Microsoft@@QAE@XZ
  ??0TransitStopInfo@ngeo@Microsoft@@QAE@XZ="C:\Windows\SysWOW64\MapRouter".??0TransitStopInfo@ngeo@Microsoft@@QAE@XZ
  ??0TransitSystemInfo@ngeo@Microsoft@@QAE@ABV012@@Z="C:\Windows\SysWOW64\MapRouter".??0TransitSystemInfo@ngeo@Microsoft@@QAE@ABV012@@Z
  ??0TransitSystemInfo@ngeo@Microsoft@@QAE@XZ="C:\Windows\SysWOW64\MapRouter".??0TransitSystemInfo@ngeo@Microsoft@@QAE@XZ
  ??0TtsEngine@ngeo@Microsoft@@AAE@PAVTtsEngineImpl@internal@12@@Z="C:\Windows\SysWOW64\MapRouter".??0TtsEngine@ngeo@Microsoft@@AAE@PAVTtsEngineImpl@internal@12@@Z
  ??0TtsEngine@ngeo@Microsoft@@QAE@ABV012@@Z="C:\Windows\SysWOW64\MapRouter".??0TtsEngine@ngeo@Microsoft@@QAE@ABV012@@Z
  ??0TtsEngine@nmacore@Microsoft@@QAE@ABV012@@Z="C:\Windows\SysWOW64\MapRouter".??0TtsEngine@nmacore@Microsoft@@QAE@ABV012@@Z
  ??0TtsEngine@nmacore@Microsoft@@QAE@W4TtsEngineType@TtsEngineFactory@ngeo@2@@Z="C:\Windows\SysWOW64\MapRouter".??0TtsEngine@nmacore@Microsoft@@QAE@W4TtsEngineType@TtsEngineFactory@ngeo@2@@Z
  ??0TtsListener@ngeo@Microsoft@@QAE@ABV012@@Z="C:\Windows\SysWOW64\MapRouter".??0TtsListener@ngeo@Microsoft@@QAE@ABV012@@Z
  ??0TtsListener@ngeo@Microsoft@@QAE@XZ="C:\Windows\SysWOW64\MapRouter".??0TtsListener@ngeo@Microsoft@@QAE@XZ
  ??0TtsOptions@ngeo@Microsoft@@QAE@$$QAV012@@Z="C:\Windows\SysWOW64\MapRouter".??0TtsOptions@ngeo@Microsoft@@QAE@$$QAV012@@Z
  ??0TtsOptions@ngeo@Microsoft@@QAE@ABV012@@Z="C:\Windows\SysWOW64\MapRouter".??0TtsOptions@ngeo@Microsoft@@QAE@ABV012@@Z
  ??0TtsOptions@ngeo@Microsoft@@QAE@ABVVoiceSkin@12@I@Z="C:\Windows\SysWOW64\MapRouter".??0TtsOptions@ngeo@Microsoft@@QAE@ABVVoiceSkin@12@I@Z
  ??0TtsOptions@ngeo@Microsoft@@QAE@XZ="C:\Windows\SysWOW64\MapRouter".??0TtsOptions@ngeo@Microsoft@@QAE@XZ
  ??0TtsVoiceInfo@ngeo@Microsoft@@QAE@$$QAV012@@Z="C:\Windows\SysWOW64\MapRouter".??0TtsVoiceInfo@ngeo@Microsoft@@QAE@$$QAV012@@Z
  ??0TtsVoiceInfo@ngeo@Microsoft@@QAE@ABV012@@Z="C:\Windows\SysWOW64\MapRouter".??0TtsVoiceInfo@ngeo@Microsoft@@QAE@ABV012@@Z
  ??0TtsVoiceInfo@ngeo@Microsoft@@QAE@ABV?$basic_string@GU?$char_traits@G@std@@V?$allocator@G@2@@std@@ABV?$vector@V?$basic_string@GU?$char_traits@G@std@@V?$allocator@G@2@@std@@V?$allocator@V?$basic_string@GU?$char_traits@G@std@@V?$allocator@G@2@@std@@@2@@4@@Z="C:\Windows\SysWOW64\MapRouter".??0TtsVoiceInfo@ngeo@Microsoft@@QAE@ABV?$basic_string@GU?$char_traits@G@std@@V?$allocator@G@2@@std@@ABV?$vector@V?$basic_string@GU?$char_traits@G@std@@V?$allocator@G@2@@std@@V?$allocator@V?$basic_string@GU?$char_traits@G@std@@V?$allocator@G@2@@std@@@2@@4@@Z
  ??0TtsVoiceInfo@ngeo@Microsoft@@QAE@XZ="C:\Windows\SysWOW64\MapRouter".??0TtsVoiceInfo@ngeo@Microsoft@@QAE@XZ
  ??0Version@ngeo@Microsoft@@QAE@ABV?$basic_string@GU?$char_traits@G@std@@V?$allocator@G@2@@std@@@Z="C:\Windows\SysWOW64\MapRouter".??0Version@ngeo@Microsoft@@QAE@ABV?$basic_string@GU?$char_traits@G@std@@V?$allocator@G@2@@std@@@Z
  ??0Version@ngeo@Microsoft@@QAE@IIII@Z="C:\Windows\SysWOW64\MapRouter".??0Version@ngeo@Microsoft@@QAE@IIII@Z
  ??0Version@ngeo@Microsoft@@QAE@XZ="C:\Windows\SysWOW64\MapRouter".??0Version@ngeo@Microsoft@@QAE@XZ
  ??0Vicinity@Traffic@ngeo@Microsoft@@QAE@$$QAU0123@@Z="C:\Windows\SysWOW64\MapRouter".??0Vicinity@Traffic@ngeo@Microsoft@@QAE@$$QAU0123@@Z
  ??0Vicinity@Traffic@ngeo@Microsoft@@QAE@ABU0123@@Z="C:\Windows\SysWOW64\MapRouter".??0Vicinity@Traffic@ngeo@Microsoft@@QAE@ABU0123@@Z
  ??0Vicinity@Traffic@ngeo@Microsoft@@QAE@ABVGeoCoordinates@23@I@Z="C:\Windows\SysWOW64\MapRouter".??0Vicinity@Traffic@ngeo@Microsoft@@QAE@ABVGeoCoordinates@23@I@Z
  ??0ViewObject@ngeo@Microsoft@@IAE@XZ="C:\Windows\SysWOW64\MapRouter".??0ViewObject@ngeo@Microsoft@@IAE@XZ
  ??0ViewObject@ngeo@Microsoft@@QAE@ABV012@@Z="C:\Windows\SysWOW64\MapRouter".??0ViewObject@ngeo@Microsoft@@QAE@ABV012@@Z
  ??0ViewObjectHandle@ngeo@Microsoft@@QAE@$$QAU012@@Z="C:\Windows\SysWOW64\MapRouter".??0ViewObjectHandle@ngeo@Microsoft@@QAE@$$QAU012@@Z
  ??0ViewObjectHandle@ngeo@Microsoft@@QAE@ABU012@@Z="C:\Windows\SysWOW64\MapRouter".??0ViewObjectHandle@ngeo@Microsoft@@QAE@ABU012@@Z
  ??0ViewObjectHandle@ngeo@Microsoft@@QAE@PAVViewObject@12@@Z="C:\Windows\SysWOW64\MapRouter".??0ViewObjectHandle@ngeo@Microsoft@@QAE@PAVViewObject@12@@Z
  ??0VoiceCommandInfo@ngeo@Microsoft@@QAE@ABV012@@Z="C:\Windows\SysWOW64\MapRouter".??0VoiceCommandInfo@ngeo@Microsoft@@QAE@ABV012@@Z
  ??0VoiceCommandInfo@ngeo@Microsoft@@QAE@XZ="C:\Windows\SysWOW64\MapRouter".??0VoiceCommandInfo@ngeo@Microsoft@@QAE@XZ
  ??0VoiceSkin@ngeo@Microsoft@@QAE@ABV012@@Z="C:\Windows\SysWOW64\MapRouter".??0VoiceSkin@ngeo@Microsoft@@QAE@ABV012@@Z
  ??0VoiceSkin@ngeo@Microsoft@@QAE@XZ="C:\Windows\SysWOW64\MapRouter".??0VoiceSkin@ngeo@Microsoft@@QAE@XZ
  ??0iterator@RouteElements@ngeo@Microsoft@@QAE@$$QAV0123@@Z="C:\Windows\SysWOW64\MapRouter".??0iterator@RouteElements@ngeo@Microsoft@@QAE@$$QAV0123@@Z
  ??0iterator@RouteElements@ngeo@Microsoft@@QAE@ABV0123@@Z="C:\Windows\SysWOW64\MapRouter".??0iterator@RouteElements@ngeo@Microsoft@@QAE@ABV0123@@Z
  ??0iterator@RouteElements@ngeo@Microsoft@@QAE@ABV?$SharedPointer@VRouteImpl@internal@ngeo@Microsoft@@$0A@@23@I@Z="C:\Windows\SysWOW64\MapRouter".??0iterator@RouteElements@ngeo@Microsoft@@QAE@ABV?$SharedPointer@VRouteImpl@internal@ngeo@Microsoft@@$0A@@23@I@Z
  ??1?$Lockable@VSharedMutex@ngeo@Microsoft@@@ngeo@Microsoft@@IAE@XZ="C:\Windows\SysWOW64\MapRouter".??1?$Lockable@VSharedMutex@ngeo@Microsoft@@@ngeo@Microsoft@@IAE@XZ
  ??1?$ObjectHandle@VViewObject@ngeo@Microsoft@@$00@internal@ngeo@Microsoft@@QAE@XZ="C:\Windows\SysWOW64\MapRouter".??1?$ObjectHandle@VViewObject@ngeo@Microsoft@@$00@internal@ngeo@Microsoft@@QAE@XZ
  ??1?$Pimpl@VGuidanceOptions@ngeo@Microsoft@@VGuidanceOptionsImpl@internal@23@@ngeo@Microsoft@@QAE@XZ="C:\Windows\SysWOW64\MapRouter".??1?$Pimpl@VGuidanceOptions@ngeo@Microsoft@@VGuidanceOptionsImpl@internal@23@@ngeo@Microsoft@@QAE@XZ
  ??1?$Pimpl@VLanguageKeyValuePair@ngeo@Microsoft@@VLanguageKeyValuePairImpl@internal@23@@ngeo@Microsoft@@QAE@XZ="C:\Windows\SysWOW64\MapRouter".??1?$Pimpl@VLanguageKeyValuePair@ngeo@Microsoft@@VLanguageKeyValuePairImpl@internal@23@@ngeo@Microsoft@@QAE@XZ
  ??1?$Pimpl@VLanguageMapping@ngeo@Microsoft@@VLanguageMappingImpl@internal@23@@ngeo@Microsoft@@QAE@XZ="C:\Windows\SysWOW64\MapRouter".??1?$Pimpl@VLanguageMapping@ngeo@Microsoft@@VLanguageMappingImpl@internal@23@@ngeo@Microsoft@@QAE@XZ
  ??1?$Pimpl@VLocationSource@ngeo@Microsoft@@VLocationSourceImpl@internal@23@@ngeo@Microsoft@@QAE@XZ="C:\Windows\SysWOW64\MapRouter".??1?$Pimpl@VLocationSource@ngeo@Microsoft@@VLocationSourceImpl@internal@23@@ngeo@Microsoft@@QAE@XZ
  ??1?$Pimpl@VManeuverVoiceInfo@ngeo@Microsoft@@VManeuverVoiceInfoImpl@internal@23@@ngeo@Microsoft@@QAE@XZ="C:\Windows\SysWOW64\MapRouter".??1?$Pimpl@VManeuverVoiceInfo@ngeo@Microsoft@@VManeuverVoiceInfoImpl@internal@23@@ngeo@Microsoft@@QAE@XZ
  ??1?$Pimpl@VMapMatcher@ngeo@Microsoft@@VMapMatcherImpl@internal@23@@ngeo@Microsoft@@QAE@XZ="C:\Windows\SysWOW64\MapRouter".??1?$Pimpl@VMapMatcher@ngeo@Microsoft@@VMapMatcherImpl@internal@23@@ngeo@Microsoft@@QAE@XZ
  ??1?$Pimpl@VMapMatcherOptions@ngeo@Microsoft@@VMapMatcherOptionsImpl@internal@23@@ngeo@Microsoft@@QAE@XZ="C:\Windows\SysWOW64\MapRouter".??1?$Pimpl@VMapMatcherOptions@ngeo@Microsoft@@VMapMatcherOptionsImpl@internal@23@@ngeo@Microsoft@@QAE@XZ
  ??1?$Pimpl@VNaturalGuidanceVoiceInfo@ngeo@Microsoft@@VNaturalGuidanceVoiceInfoImpl@internal@23@@ngeo@Microsoft@@QAE@XZ="C:\Windows\SysWOW64\MapRouter".??1?$Pimpl@VNaturalGuidanceVoiceInfo@ngeo@Microsoft@@VNaturalGuidanceVoiceInfoImpl@internal@23@@ngeo@Microsoft@@QAE@XZ
  ??1?$Pimpl@VPhonemeMapping@ngeo@Microsoft@@VPhonemeMappingImpl@internal@23@@ngeo@Microsoft@@QAE@XZ="C:\Windows\SysWOW64\MapRouter".??1?$Pimpl@VPhonemeMapping@ngeo@Microsoft@@VPhonemeMappingImpl@internal@23@@ngeo@Microsoft@@QAE@XZ
  ??1?$Pimpl@VSideOfDestinationVoiceInfo@ngeo@Microsoft@@VSideOfDestinationVoiceInfoImpl@internal@23@@ngeo@Microsoft@@QAE@XZ="C:\Windows\SysWOW64\MapRouter".??1?$Pimpl@VSideOfDestinationVoiceInfo@ngeo@Microsoft@@VSideOfDestinationVoiceInfoImpl@internal@23@@ngeo@Microsoft@@QAE@XZ
  ??1?$Pimpl@VSignpostLabelVoiceInfo@ngeo@Microsoft@@VSignpostLabelVoiceInfoImpl@internal@23@@ngeo@Microsoft@@QAE@XZ="C:\Windows\SysWOW64\MapRouter".??1?$Pimpl@VSignpostLabelVoiceInfo@ngeo@Microsoft@@VSignpostLabelVoiceInfoImpl@internal@23@@ngeo@Microsoft@@QAE@XZ
  ??1?$Pimpl@VSignpostVoiceInfo@ngeo@Microsoft@@VSignpostVoiceInfoImpl@internal@23@@ngeo@Microsoft@@QAE@XZ="C:\Windows\SysWOW64\MapRouter".??1?$Pimpl@VSignpostVoiceInfo@ngeo@Microsoft@@VSignpostVoiceInfoImpl@internal@23@@ngeo@Microsoft@@QAE@XZ
  ??1?$Pimpl@VStreetVoiceInfo@ngeo@Microsoft@@VStreetVoiceInfoImpl@internal@23@@ngeo@Microsoft@@QAE@XZ="C:\Windows\SysWOW64\MapRouter".??1?$Pimpl@VStreetVoiceInfo@ngeo@Microsoft@@VStreetVoiceInfoImpl@internal@23@@ngeo@Microsoft@@QAE@XZ
  ??1?$Pimpl@VVoiceCommandInfo@ngeo@Microsoft@@VVoiceCommandInfoImpl@internal@23@@ngeo@Microsoft@@QAE@XZ="C:\Windows\SysWOW64\MapRouter".??1?$Pimpl@VVoiceCommandInfo@ngeo@Microsoft@@VVoiceCommandInfoImpl@internal@23@@ngeo@Microsoft@@QAE@XZ
  ??1?$Pimpl@VVoiceSkin@ngeo@Microsoft@@VVoiceSkinImpl@internal@23@@ngeo@Microsoft@@QAE@XZ="C:\Windows\SysWOW64\MapRouter".??1?$Pimpl@VVoiceSkin@ngeo@Microsoft@@VVoiceSkinImpl@internal@23@@ngeo@Microsoft@@QAE@XZ
  ??1BaseEngine@nmacore@Microsoft@@MAE@XZ="C:\Windows\SysWOW64\MapRouter".??1BaseEngine@nmacore@Microsoft@@MAE@XZ
  ??1BufferOutputStream@nmacore@Microsoft@@UAE@XZ="C:\Windows\SysWOW64\MapRouter".??1BufferOutputStream@nmacore@Microsoft@@UAE@XZ
  ??1DateTime@ngeo@Microsoft@@QAE@XZ="C:\Windows\SysWOW64\MapRouter".??1DateTime@ngeo@Microsoft@@QAE@XZ
  ??1DriveSimulator@ngeo@Microsoft@@QAE@XZ="C:\Windows\SysWOW64\MapRouter".??1DriveSimulator@ngeo@Microsoft@@QAE@XZ
  ??1DriveSimulator@nmacore@Microsoft@@UAE@XZ="C:\Windows\SysWOW64\MapRouter".??1DriveSimulator@nmacore@Microsoft@@UAE@XZ
  ??1DynamicPenalty@ngeo@Microsoft@@QAE@XZ="C:\Windows\SysWOW64\MapRouter".??1DynamicPenalty@ngeo@Microsoft@@QAE@XZ
  ??1GeoArea@ngeo@Microsoft@@UAE@XZ="C:\Windows\SysWOW64\MapRouter".??1GeoArea@ngeo@Microsoft@@UAE@XZ
  ??1GeoCoordinates@ngeo@Microsoft@@UAE@XZ="C:\Windows\SysWOW64\MapRouter".??1GeoCoordinates@ngeo@Microsoft@@UAE@XZ
  ??1GeoPolygon@ngeo@Microsoft@@UAE@XZ="C:\Windows\SysWOW64\MapRouter".??1GeoPolygon@ngeo@Microsoft@@UAE@XZ
  ??1GeoPolyline@ngeo@Microsoft@@UAE@XZ="C:\Windows\SysWOW64\MapRouter".??1GeoPolyline@ngeo@Microsoft@@UAE@XZ
  ??1GeoRect@ngeo@Microsoft@@UAE@XZ="C:\Windows\SysWOW64\MapRouter".??1GeoRect@ngeo@Microsoft@@UAE@XZ
  ??1Guidance@ngeo@Microsoft@@QAE@XZ="C:\Windows\SysWOW64\MapRouter".??1Guidance@ngeo@Microsoft@@QAE@XZ
  ??1Guidance@nmacore@Microsoft@@UAE@XZ="C:\Windows\SysWOW64\MapRouter".??1Guidance@nmacore@Microsoft@@UAE@XZ
  ??1GuidanceListener@ngeo@Microsoft@@UAE@XZ="C:\Windows\SysWOW64\MapRouter".??1GuidanceListener@ngeo@Microsoft@@UAE@XZ
  ??1GuidanceOptions@ngeo@Microsoft@@QAE@XZ="C:\Windows\SysWOW64\MapRouter".??1GuidanceOptions@ngeo@Microsoft@@QAE@XZ
  ??1IGeoCoordinates@msngeo@@UAE@XZ="C:\Windows\SysWOW64\MapRouter".??1IGeoCoordinates@msngeo@@UAE@XZ
  ??1IGeoRect@msngeo@@UAE@XZ="C:\Windows\SysWOW64\MapRouter".??1IGeoRect@msngeo@@UAE@XZ
  ??1IItineraryWarning@msnma@@UAE@XZ="C:\Windows\SysWOW64\MapRouter".??1IItineraryWarning@msnma@@UAE@XZ
  ??1IItineraryWarningAttributes@msngeo@@UAE@XZ="C:\Windows\SysWOW64\MapRouter".??1IItineraryWarningAttributes@msngeo@@UAE@XZ
  ??1IItineraryWarningAttributes@msnma@@UAE@XZ="C:\Windows\SysWOW64\MapRouter".??1IItineraryWarningAttributes@msnma@@UAE@XZ
  ??1IItineraryWarningDivChange@msnma@@UAE@XZ="C:\Windows\SysWOW64\MapRouter".??1IItineraryWarningDivChange@msnma@@UAE@XZ
  ??1IItineraryWarningTraffic@msngeo@@UAE@XZ="C:\Windows\SysWOW64\MapRouter".??1IItineraryWarningTraffic@msngeo@@UAE@XZ
  ??1IItineraryWarningTraffic@msnma@@UAE@XZ="C:\Windows\SysWOW64\MapRouter".??1IItineraryWarningTraffic@msnma@@UAE@XZ
  ??1IManeuver@msnma@@UAE@XZ="C:\Windows\SysWOW64\MapRouter".??1IManeuver@msnma@@UAE@XZ
  ??1IRoute@msnma@@UAE@XZ="C:\Windows\SysWOW64\MapRouter".??1IRoute@msnma@@UAE@XZ
  ??1ISignpost@msngeo@@UAE@XZ="C:\Windows\SysWOW64\MapRouter".??1ISignpost@msngeo@@UAE@XZ
  ??1ITimerObserver@msnma@@UAE@XZ="C:\Windows\SysWOW64\MapRouter".??1ITimerObserver@msnma@@UAE@XZ
  ??1ITimerSource@msnma@@UAE@XZ="C:\Windows\SysWOW64\MapRouter".??1ITimerSource@msnma@@UAE@XZ
  ??1Icon@ngeo@Microsoft@@QAE@XZ="C:\Windows\SysWOW64\MapRouter".??1Icon@ngeo@Microsoft@@QAE@XZ
  ??1ItineraryWarning@ngeo@Microsoft@@UAE@XZ="C:\Windows\SysWOW64\MapRouter".??1ItineraryWarning@ngeo@Microsoft@@UAE@XZ
  ??1ItineraryWarning@nmacore@Microsoft@@UAE@XZ="C:\Windows\SysWOW64\MapRouter".??1ItineraryWarning@nmacore@Microsoft@@UAE@XZ
  ??1ItineraryWarningAdminDivChange@ngeo@Microsoft@@UAE@XZ="C:\Windows\SysWOW64\MapRouter".??1ItineraryWarningAdminDivChange@ngeo@Microsoft@@UAE@XZ
  ??1ItineraryWarningAttributes@ngeo@Microsoft@@UAE@XZ="C:\Windows\SysWOW64\MapRouter".??1ItineraryWarningAttributes@ngeo@Microsoft@@UAE@XZ
  ??1ItineraryWarningAttributes@nmacore@Microsoft@@UAE@XZ="C:\Windows\SysWOW64\MapRouter".??1ItineraryWarningAttributes@nmacore@Microsoft@@UAE@XZ
  ??1ItineraryWarningDivChange@nmacore@Microsoft@@UAE@XZ="C:\Windows\SysWOW64\MapRouter".??1ItineraryWarningDivChange@nmacore@Microsoft@@UAE@XZ
  ??1ItineraryWarningTraffic@ngeo@Microsoft@@UAE@XZ="C:\Windows\SysWOW64\MapRouter".??1ItineraryWarningTraffic@ngeo@Microsoft@@UAE@XZ
  ??1ItineraryWarningTraffic@nmacore@Microsoft@@UAE@XZ="C:\Windows\SysWOW64\MapRouter".??1ItineraryWarningTraffic@nmacore@Microsoft@@UAE@XZ
  ??1ItineraryWarningVisitor@ngeo@Microsoft@@UAE@XZ="C:\Windows\SysWOW64\MapRouter".??1ItineraryWarningVisitor@ngeo@Microsoft@@UAE@XZ
  ??1LaneInfo@ngeo@Microsoft@@QAE@XZ="C:\Windows\SysWOW64\MapRouter".??1LaneInfo@ngeo@Microsoft@@QAE@XZ
  ??1LanguageKeyValuePair@ngeo@Microsoft@@QAE@XZ="C:\Windows\SysWOW64\MapRouter".??1LanguageKeyValuePair@ngeo@Microsoft@@QAE@XZ
  ??1LanguageMapping@ngeo@Microsoft@@QAE@XZ="C:\Windows\SysWOW64\MapRouter".??1LanguageMapping@ngeo@Microsoft@@QAE@XZ
  ??1Location@ngeo@Microsoft@@UAE@XZ="C:\Windows\SysWOW64\MapRouter".??1Location@ngeo@Microsoft@@UAE@XZ
  ??1LocationInfo@ngeo@Microsoft@@QAE@XZ="C:\Windows\SysWOW64\MapRouter".??1LocationInfo@ngeo@Microsoft@@QAE@XZ
  ??1LocationSource@ngeo@Microsoft@@QAE@XZ="C:\Windows\SysWOW64\MapRouter".??1LocationSource@ngeo@Microsoft@@QAE@XZ
  ??1LocationSourceListener@ngeo@Microsoft@@UAE@XZ="C:\Windows\SysWOW64\MapRouter".??1LocationSourceListener@ngeo@Microsoft@@UAE@XZ
  ??1Maneuver@ngeo@Microsoft@@QAE@XZ="C:\Windows\SysWOW64\MapRouter".??1Maneuver@ngeo@Microsoft@@QAE@XZ
  ??1Maneuver@nmacore@Microsoft@@UAE@XZ="C:\Windows\SysWOW64\MapRouter".??1Maneuver@nmacore@Microsoft@@UAE@XZ
  ??1ManeuverVoiceInfo@ngeo@Microsoft@@QAE@XZ="C:\Windows\SysWOW64\MapRouter".??1ManeuverVoiceInfo@ngeo@Microsoft@@QAE@XZ
  ??1MapMatchedLocation@ngeo@Microsoft@@UAE@XZ="C:\Windows\SysWOW64\MapRouter".??1MapMatchedLocation@ngeo@Microsoft@@UAE@XZ
  ??1MapMatcher@ngeo@Microsoft@@QAE@XZ="C:\Windows\SysWOW64\MapRouter".??1MapMatcher@ngeo@Microsoft@@QAE@XZ
  ??1MapMatcherListener@ngeo@Microsoft@@UAE@XZ="C:\Windows\SysWOW64\MapRouter".??1MapMatcherListener@ngeo@Microsoft@@UAE@XZ
  ??1MapMatcherOptions@ngeo@Microsoft@@QAE@XZ="C:\Windows\SysWOW64\MapRouter".??1MapMatcherOptions@ngeo@Microsoft@@QAE@XZ
  ??1MapMatcherProxy@nmacore@Microsoft@@QAE@XZ="C:\Windows\SysWOW64\MapRouter".??1MapMatcherProxy@nmacore@Microsoft@@QAE@XZ
  ??1MapModel@ngeo@Microsoft@@QAE@XZ="C:\Windows\SysWOW64\MapRouter".??1MapModel@ngeo@Microsoft@@QAE@XZ
  ??1MapSensor@ngeo@Microsoft@@QAE@XZ="C:\Windows\SysWOW64\MapRouter".??1MapSensor@ngeo@Microsoft@@QAE@XZ
  ??1MapSensor@nmacore@Microsoft@@QAE@XZ="C:\Windows\SysWOW64\MapRouter".??1MapSensor@nmacore@Microsoft@@QAE@XZ
  ??1MicrosoftTtsVoiceInfo@ngeo@Microsoft@@QAE@XZ="C:\Windows\SysWOW64\MapRouter".??1MicrosoftTtsVoiceInfo@ngeo@Microsoft@@QAE@XZ
  ??1Mutex@ngeo@Microsoft@@QAE@XZ="C:\Windows\SysWOW64\MapRouter".??1Mutex@ngeo@Microsoft@@QAE@XZ
  ??1NaturalGuidanceVoiceInfo@ngeo@Microsoft@@QAE@XZ="C:\Windows\SysWOW64\MapRouter".??1NaturalGuidanceVoiceInfo@ngeo@Microsoft@@QAE@XZ
  ??1OperatingHours@ngeo@Microsoft@@QAE@XZ="C:\Windows\SysWOW64\MapRouter".??1OperatingHours@ngeo@Microsoft@@QAE@XZ
  ??1Output@ngeo@Microsoft@@QAE@XZ="C:\Windows\SysWOW64\MapRouter".??1Output@ngeo@Microsoft@@QAE@XZ
  ??1OutputEngine@ngeo@Microsoft@@QAE@XZ="C:\Windows\SysWOW64\MapRouter".??1OutputEngine@ngeo@Microsoft@@QAE@XZ
  ??1PhonemeMapping@ngeo@Microsoft@@QAE@XZ="C:\Windows\SysWOW64\MapRouter".??1PhonemeMapping@ngeo@Microsoft@@QAE@XZ
  ??1Poller@nmacore@Microsoft@@UAE@XZ="C:\Windows\SysWOW64\MapRouter".??1Poller@nmacore@Microsoft@@UAE@XZ
  ??1ProxyObject@ngeo@Microsoft@@MAE@XZ="C:\Windows\SysWOW64\MapRouter".??1ProxyObject@ngeo@Microsoft@@MAE@XZ
  ??1ProxyObjectHandle@ngeo@Microsoft@@QAE@XZ="C:\Windows\SysWOW64\MapRouter".??1ProxyObjectHandle@ngeo@Microsoft@@QAE@XZ
  ??1RefCountable@internal@ngeo@Microsoft@@UAE@XZ="C:\Windows\SysWOW64\MapRouter".??1RefCountable@internal@ngeo@Microsoft@@UAE@XZ
  ??1RenderBuffer@ngeo@Microsoft@@UAE@XZ="C:\Windows\SysWOW64\MapRouter".??1RenderBuffer@ngeo@Microsoft@@UAE@XZ
  ??1RoadElement@ngeo@Microsoft@@QAE@XZ="C:\Windows\SysWOW64\MapRouter".??1RoadElement@ngeo@Microsoft@@QAE@XZ
  ??1RoadElementPenalty@DynamicPenalty@ngeo@Microsoft@@QAE@XZ="C:\Windows\SysWOW64\MapRouter".??1RoadElementPenalty@DynamicPenalty@ngeo@Microsoft@@QAE@XZ
  ??1Route@ngeo@Microsoft@@QAE@XZ="C:\Windows\SysWOW64\MapRouter".??1Route@ngeo@Microsoft@@QAE@XZ
  ??1Route@nmacore@Microsoft@@UAE@XZ="C:\Windows\SysWOW64\MapRouter".??1Route@nmacore@Microsoft@@UAE@XZ
  ??1RouteElement@ngeo@Microsoft@@QAE@XZ="C:\Windows\SysWOW64\MapRouter".??1RouteElement@ngeo@Microsoft@@QAE@XZ
  ??1RouteElements@ngeo@Microsoft@@QAE@XZ="C:\Windows\SysWOW64\MapRouter".??1RouteElements@ngeo@Microsoft@@QAE@XZ
  ??1RouteOptions@ngeo@Microsoft@@QAE@XZ="C:\Windows\SysWOW64\MapRouter".??1RouteOptions@ngeo@Microsoft@@QAE@XZ
  ??1RouteOptions@nmacore@Microsoft@@QAE@XZ="C:\Windows\SysWOW64\MapRouter".??1RouteOptions@nmacore@Microsoft@@QAE@XZ
  ??1RoutePlan@ngeo@Microsoft@@QAE@XZ="C:\Windows\SysWOW64\MapRouter".??1RoutePlan@ngeo@Microsoft@@QAE@XZ
  ??1RouteWaypoint@ngeo@Microsoft@@UAE@XZ="C:\Windows\SysWOW64\MapRouter".??1RouteWaypoint@ngeo@Microsoft@@UAE@XZ
  ??1Router@ngeo@Microsoft@@QAE@XZ="C:\Windows\SysWOW64\MapRouter".??1Router@ngeo@Microsoft@@QAE@XZ
  ??1RouterEngine@nmacore@Microsoft@@UAE@XZ="C:\Windows\SysWOW64\MapRouter".??1RouterEngine@nmacore@Microsoft@@UAE@XZ
  ??1RouterListener@ngeo@Microsoft@@UAE@XZ="C:\Windows\SysWOW64\MapRouter".??1RouterListener@ngeo@Microsoft@@UAE@XZ
  ??1Runtime@nmacore@Microsoft@@UAE@XZ="C:\Windows\SysWOW64\MapRouter".??1Runtime@nmacore@Microsoft@@UAE@XZ
  ??1Sensors@nmacore@Microsoft@@QAE@XZ="C:\Windows\SysWOW64\MapRouter".??1Sensors@nmacore@Microsoft@@QAE@XZ
  ??1SharedMutex@ngeo@Microsoft@@QAE@XZ="C:\Windows\SysWOW64\MapRouter".??1SharedMutex@ngeo@Microsoft@@QAE@XZ
  ??1SideOfDestinationVoiceInfo@ngeo@Microsoft@@QAE@XZ="C:\Windows\SysWOW64\MapRouter".??1SideOfDestinationVoiceInfo@ngeo@Microsoft@@QAE@XZ
  ??1Signpost@ngeo@Microsoft@@UAE@XZ="C:\Windows\SysWOW64\MapRouter".??1Signpost@ngeo@Microsoft@@UAE@XZ
  ??1SignpostLabelVoiceInfo@ngeo@Microsoft@@QAE@XZ="C:\Windows\SysWOW64\MapRouter".??1SignpostLabelVoiceInfo@ngeo@Microsoft@@QAE@XZ
  ??1SignpostVoiceInfo@ngeo@Microsoft@@QAE@XZ="C:\Windows\SysWOW64\MapRouter".??1SignpostVoiceInfo@ngeo@Microsoft@@QAE@XZ
  ??1SimpleGuidance@naviplayer@Microsoft@@QAE@XZ="C:\Windows\SysWOW64\MapRouter".??1SimpleGuidance@naviplayer@Microsoft@@QAE@XZ
  ??1SimpleGuidanceListener@naviplayer@Microsoft@@UAE@XZ="C:\Windows\SysWOW64\MapRouter".??1SimpleGuidanceListener@naviplayer@Microsoft@@UAE@XZ
  ??1SpeedNotification@ngeo@Microsoft@@QAE@XZ="C:\Windows\SysWOW64\MapRouter".??1SpeedNotification@ngeo@Microsoft@@QAE@XZ
  ??1SpeedWarner@ngeo@Microsoft@@QAE@XZ="C:\Windows\SysWOW64\MapRouter".??1SpeedWarner@ngeo@Microsoft@@QAE@XZ
  ??1SpeedWarnerListener@ngeo@Microsoft@@UAE@XZ="C:\Windows\SysWOW64\MapRouter".??1SpeedWarnerListener@ngeo@Microsoft@@UAE@XZ
  ??1SpeedWarnerOptions@ngeo@Microsoft@@QAE@XZ="C:\Windows\SysWOW64\MapRouter".??1SpeedWarnerOptions@ngeo@Microsoft@@QAE@XZ
  ??1StatRepository@nmacore@Microsoft@@QAE@XZ="C:\Windows\SysWOW64\MapRouter".??1StatRepository@nmacore@Microsoft@@QAE@XZ
  ??1StatStartTiming@nmacore@Microsoft@@QAE@XZ="C:\Windows\SysWOW64\MapRouter".??1StatStartTiming@nmacore@Microsoft@@QAE@XZ
  ??1StreetVoiceInfo@ngeo@Microsoft@@QAE@XZ="C:\Windows\SysWOW64\MapRouter".??1StreetVoiceInfo@ngeo@Microsoft@@QAE@XZ
  ??1Surface@ngeo@Microsoft@@UAE@XZ="C:\Windows\SysWOW64\MapRouter".??1Surface@ngeo@Microsoft@@UAE@XZ
  ??1Time@ngeo@Microsoft@@QAE@XZ="C:\Windows\SysWOW64\MapRouter".??1Time@ngeo@Microsoft@@QAE@XZ
  ??1TimeInterval@ngeo@Microsoft@@QAE@XZ="C:\Windows\SysWOW64\MapRouter".??1TimeInterval@ngeo@Microsoft@@QAE@XZ
  ??1Traffic@ngeo@Microsoft@@UAE@XZ="C:\Windows\SysWOW64\MapRouter".??1Traffic@ngeo@Microsoft@@UAE@XZ
  ??1TrafficEngine@nmacore@Microsoft@@UAE@XZ="C:\Windows\SysWOW64\MapRouter".??1TrafficEngine@nmacore@Microsoft@@UAE@XZ
  ??1TrafficEvent@ngeo@Microsoft@@QAE@XZ="C:\Windows\SysWOW64\MapRouter".??1TrafficEvent@ngeo@Microsoft@@QAE@XZ
  ??1TrafficEvent@nmacore@Microsoft@@QAE@XZ="C:\Windows\SysWOW64\MapRouter".??1TrafficEvent@nmacore@Microsoft@@QAE@XZ
  ??1TrafficEventObject@ngeo@Microsoft@@EAE@XZ="C:\Windows\SysWOW64\MapRouter".??1TrafficEventObject@ngeo@Microsoft@@EAE@XZ
  ??1TrafficListener@ngeo@Microsoft@@UAE@XZ="C:\Windows\SysWOW64\MapRouter".??1TrafficListener@ngeo@Microsoft@@UAE@XZ
  ??1TrafficNotificationInfo@ngeo@Microsoft@@QAE@XZ="C:\Windows\SysWOW64\MapRouter".??1TrafficNotificationInfo@ngeo@Microsoft@@QAE@XZ
  ??1TrafficPenaltySource@DynamicPenalty@ngeo@Microsoft@@QAE@XZ="C:\Windows\SysWOW64\MapRouter".??1TrafficPenaltySource@DynamicPenalty@ngeo@Microsoft@@QAE@XZ
  ??1TrafficVisitor@ngeo@Microsoft@@UAE@XZ="C:\Windows\SysWOW64\MapRouter".??1TrafficVisitor@ngeo@Microsoft@@UAE@XZ
  ??1TrafficWarner@ngeo@Microsoft@@QAE@XZ="C:\Windows\SysWOW64\MapRouter".??1TrafficWarner@ngeo@Microsoft@@QAE@XZ
  ??1TrafficWarnerListener@ngeo@Microsoft@@UAE@XZ="C:\Windows\SysWOW64\MapRouter".??1TrafficWarnerListener@ngeo@Microsoft@@UAE@XZ
  ??1TrafficWarnerOptions@ngeo@Microsoft@@QAE@XZ="C:\Windows\SysWOW64\MapRouter".??1TrafficWarnerOptions@ngeo@Microsoft@@QAE@XZ
  ??1TransitAccessInfo@ngeo@Microsoft@@QAE@XZ="C:\Windows\SysWOW64\MapRouter".??1TransitAccessInfo@ngeo@Microsoft@@QAE@XZ
  ??1TransitDatabase@ngeo@Microsoft@@QAE@XZ="C:\Windows\SysWOW64\MapRouter".??1TransitDatabase@ngeo@Microsoft@@QAE@XZ
  ??1TransitDatabase@nmacore@Microsoft@@UAE@XZ="C:\Windows\SysWOW64\MapRouter".??1TransitDatabase@nmacore@Microsoft@@UAE@XZ
  ??1TransitDatabaseListener@ngeo@Microsoft@@UAE@XZ="C:\Windows\SysWOW64\MapRouter".??1TransitDatabaseListener@ngeo@Microsoft@@UAE@XZ
  ??1TransitDatabaseListener@nmacore@Microsoft@@UAE@XZ="C:\Windows\SysWOW64\MapRouter".??1TransitDatabaseListener@nmacore@Microsoft@@UAE@XZ
  ??1TransitLineInfo@ngeo@Microsoft@@QAE@XZ="C:\Windows\SysWOW64\MapRouter".??1TransitLineInfo@ngeo@Microsoft@@QAE@XZ
  ??1TransitLineInfo@nmacore@Microsoft@@QAE@XZ="C:\Windows\SysWOW64\MapRouter".??1TransitLineInfo@nmacore@Microsoft@@QAE@XZ
  ??1TransitRouteElement@ngeo@Microsoft@@QAE@XZ="C:\Windows\SysWOW64\MapRouter".??1TransitRouteElement@ngeo@Microsoft@@QAE@XZ
  ??1TransitRouteStop@ngeo@Microsoft@@QAE@XZ="C:\Windows\SysWOW64\MapRouter".??1TransitRouteStop@ngeo@Microsoft@@QAE@XZ
  ??1TransitStopInfo@ngeo@Microsoft@@QAE@XZ="C:\Windows\SysWOW64\MapRouter".??1TransitStopInfo@ngeo@Microsoft@@QAE@XZ
  ??1TransitSystemInfo@ngeo@Microsoft@@QAE@XZ="C:\Windows\SysWOW64\MapRouter".??1TransitSystemInfo@ngeo@Microsoft@@QAE@XZ
  ??1TtsEngine@ngeo@Microsoft@@UAE@XZ="C:\Windows\SysWOW64\MapRouter".??1TtsEngine@ngeo@Microsoft@@UAE@XZ
  ??1TtsEngine@nmacore@Microsoft@@UAE@XZ="C:\Windows\SysWOW64\MapRouter".??1TtsEngine@nmacore@Microsoft@@UAE@XZ
  ??1TtsListener@ngeo@Microsoft@@UAE@XZ="C:\Windows\SysWOW64\MapRouter".??1TtsListener@ngeo@Microsoft@@UAE@XZ
  ??1TtsOptions@ngeo@Microsoft@@QAE@XZ="C:\Windows\SysWOW64\MapRouter".??1TtsOptions@ngeo@Microsoft@@QAE@XZ
  ??1TtsVoiceInfo@ngeo@Microsoft@@QAE@XZ="C:\Windows\SysWOW64\MapRouter".??1TtsVoiceInfo@ngeo@Microsoft@@QAE@XZ
  ??1Vicinity@Traffic@ngeo@Microsoft@@QAE@XZ="C:\Windows\SysWOW64\MapRouter".??1Vicinity@Traffic@ngeo@Microsoft@@QAE@XZ
  ??1ViewObject@ngeo@Microsoft@@MAE@XZ="C:\Windows\SysWOW64\MapRouter".??1ViewObject@ngeo@Microsoft@@MAE@XZ
  ??1ViewObjectHandle@ngeo@Microsoft@@QAE@XZ="C:\Windows\SysWOW64\MapRouter".??1ViewObjectHandle@ngeo@Microsoft@@QAE@XZ
  ??1VoiceCommandInfo@ngeo@Microsoft@@QAE@XZ="C:\Windows\SysWOW64\MapRouter".??1VoiceCommandInfo@ngeo@Microsoft@@QAE@XZ
  ??1VoiceSkin@ngeo@Microsoft@@QAE@XZ="C:\Windows\SysWOW64\MapRouter".??1VoiceSkin@ngeo@Microsoft@@QAE@XZ
  ??1iterator@RouteElements@ngeo@Microsoft@@QAE@XZ="C:\Windows\SysWOW64\MapRouter".??1iterator@RouteElements@ngeo@Microsoft@@QAE@XZ
  ??4?$Lockable@VSharedMutex@ngeo@Microsoft@@@ngeo@Microsoft@@QAEAAV012@ABV012@@Z="C:\Windows\SysWOW64\MapRouter".??4?$Lockable@VSharedMutex@ngeo@Microsoft@@@ngeo@Microsoft@@QAEAAV012@ABV012@@Z
  ??4?$ObjectHandle@VViewObject@ngeo@Microsoft@@$00@internal@ngeo@Microsoft@@QAEAAV0123@ABV0123@@Z="C:\Windows\SysWOW64\MapRouter".??4?$ObjectHandle@VViewObject@ngeo@Microsoft@@$00@internal@ngeo@Microsoft@@QAEAAV0123@ABV0123@@Z
  ??4?$Pimpl@VGuidanceOptions@ngeo@Microsoft@@VGuidanceOptionsImpl@internal@23@@ngeo@Microsoft@@QAEAAV012@$$QAV012@@Z="C:\Windows\SysWOW64\MapRouter".??4?$Pimpl@VGuidanceOptions@ngeo@Microsoft@@VGuidanceOptionsImpl@internal@23@@ngeo@Microsoft@@QAEAAV012@$$QAV012@@Z
  ??4?$Pimpl@VGuidanceOptions@ngeo@Microsoft@@VGuidanceOptionsImpl@internal@23@@ngeo@Microsoft@@QAEAAV012@ABV012@@Z="C:\Windows\SysWOW64\MapRouter".??4?$Pimpl@VGuidanceOptions@ngeo@Microsoft@@VGuidanceOptionsImpl@internal@23@@ngeo@Microsoft@@QAEAAV012@ABV012@@Z
  ??4?$Pimpl@VLanguageKeyValuePair@ngeo@Microsoft@@VLanguageKeyValuePairImpl@internal@23@@ngeo@Microsoft@@QAEAAV012@$$QAV012@@Z="C:\Windows\SysWOW64\MapRouter".??4?$Pimpl@VLanguageKeyValuePair@ngeo@Microsoft@@VLanguageKeyValuePairImpl@internal@23@@ngeo@Microsoft@@QAEAAV012@$$QAV012@@Z
  ??4?$Pimpl@VLanguageKeyValuePair@ngeo@Microsoft@@VLanguageKeyValuePairImpl@internal@23@@ngeo@Microsoft@@QAEAAV012@ABV012@@Z="C:\Windows\SysWOW64\MapRouter".??4?$Pimpl@VLanguageKeyValuePair@ngeo@Microsoft@@VLanguageKeyValuePairImpl@internal@23@@ngeo@Microsoft@@QAEAAV012@ABV012@@Z
  ??4?$Pimpl@VLanguageMapping@ngeo@Microsoft@@VLanguageMappingImpl@internal@23@@ngeo@Microsoft@@QAEAAV012@$$QAV012@@Z="C:\Windows\SysWOW64\MapRouter".??4?$Pimpl@VLanguageMapping@ngeo@Microsoft@@VLanguageMappingImpl@internal@23@@ngeo@Microsoft@@QAEAAV012@$$QAV012@@Z
  ??4?$Pimpl@VLanguageMapping@ngeo@Microsoft@@VLanguageMappingImpl@internal@23@@ngeo@Microsoft@@QAEAAV012@ABV012@@Z="C:\Windows\SysWOW64\MapRouter".??4?$Pimpl@VLanguageMapping@ngeo@Microsoft@@VLanguageMappingImpl@internal@23@@ngeo@Microsoft@@QAEAAV012@ABV012@@Z
  ??4?$Pimpl@VLocationSource@ngeo@Microsoft@@VLocationSourceImpl@internal@23@@ngeo@Microsoft@@QAEAAV012@$$QAV012@@Z="C:\Windows\SysWOW64\MapRouter".??4?$Pimpl@VLocationSource@ngeo@Microsoft@@VLocationSourceImpl@internal@23@@ngeo@Microsoft@@QAEAAV012@$$QAV012@@Z
  ??4?$Pimpl@VLocationSource@ngeo@Microsoft@@VLocationSourceImpl@internal@23@@ngeo@Microsoft@@QAEAAV012@ABV012@@Z="C:\Windows\SysWOW64\MapRouter".??4?$Pimpl@VLocationSource@ngeo@Microsoft@@VLocationSourceImpl@internal@23@@ngeo@Microsoft@@QAEAAV012@ABV012@@Z
  ??4?$Pimpl@VManeuverVoiceInfo@ngeo@Microsoft@@VManeuverVoiceInfoImpl@internal@23@@ngeo@Microsoft@@QAEAAV012@$$QAV012@@Z="C:\Windows\SysWOW64\MapRouter".??4?$Pimpl@VManeuverVoiceInfo@ngeo@Microsoft@@VManeuverVoiceInfoImpl@internal@23@@ngeo@Microsoft@@QAEAAV012@$$QAV012@@Z
  ??4?$Pimpl@VManeuverVoiceInfo@ngeo@Microsoft@@VManeuverVoiceInfoImpl@internal@23@@ngeo@Microsoft@@QAEAAV012@ABV012@@Z="C:\Windows\SysWOW64\MapRouter".??4?$Pimpl@VManeuverVoiceInfo@ngeo@Microsoft@@VManeuverVoiceInfoImpl@internal@23@@ngeo@Microsoft@@QAEAAV012@ABV012@@Z
  ??4?$Pimpl@VMapMatcher@ngeo@Microsoft@@VMapMatcherImpl@internal@23@@ngeo@Microsoft@@QAEAAV012@$$QAV012@@Z="C:\Windows\SysWOW64\MapRouter".??4?$Pimpl@VMapMatcher@ngeo@Microsoft@@VMapMatcherImpl@internal@23@@ngeo@Microsoft@@QAEAAV012@$$QAV012@@Z
  ??4?$Pimpl@VMapMatcher@ngeo@Microsoft@@VMapMatcherImpl@internal@23@@ngeo@Microsoft@@QAEAAV012@ABV012@@Z="C:\Windows\SysWOW64\MapRouter".??4?$Pimpl@VMapMatcher@ngeo@Microsoft@@VMapMatcherImpl@internal@23@@ngeo@Microsoft@@QAEAAV012@ABV012@@Z
  ??4?$Pimpl@VMapMatcherOptions@ngeo@Microsoft@@VMapMatcherOptionsImpl@internal@23@@ngeo@Microsoft@@QAEAAV012@$$QAV012@@Z="C:\Windows\SysWOW64\MapRouter".??4?$Pimpl@VMapMatcherOptions@ngeo@Microsoft@@VMapMatcherOptionsImpl@internal@23@@ngeo@Microsoft@@QAEAAV012@$$QAV012@@Z
  ??4?$Pimpl@VMapMatcherOptions@ngeo@Microsoft@@VMapMatcherOptionsImpl@internal@23@@ngeo@Microsoft@@QAEAAV012@ABV012@@Z="C:\Windows\SysWOW64\MapRouter".??4?$Pimpl@VMapMatcherOptions@ngeo@Microsoft@@VMapMatcherOptionsImpl@internal@23@@ngeo@Microsoft@@QAEAAV012@ABV012@@Z
  ??4?$Pimpl@VNaturalGuidanceVoiceInfo@ngeo@Microsoft@@VNaturalGuidanceVoiceInfoImpl@internal@23@@ngeo@Microsoft@@QAEAAV012@$$QAV012@@Z="C:\Windows\SysWOW64\MapRouter".??4?$Pimpl@VNaturalGuidanceVoiceInfo@ngeo@Microsoft@@VNaturalGuidanceVoiceInfoImpl@internal@23@@ngeo@Microsoft@@QAEAAV012@$$QAV012@@Z
  ??4?$Pimpl@VNaturalGuidanceVoiceInfo@ngeo@Microsoft@@VNaturalGuidanceVoiceInfoImpl@internal@23@@ngeo@Microsoft@@QAEAAV012@ABV012@@Z="C:\Windows\SysWOW64\MapRouter".??4?$Pimpl@VNaturalGuidanceVoiceInfo@ngeo@Microsoft@@VNaturalGuidanceVoiceInfoImpl@internal@23@@ngeo@Microsoft@@QAEAAV012@ABV012@@Z
  ??4?$Pimpl@VPhonemeMapping@ngeo@Microsoft@@VPhonemeMappingImpl@internal@23@@ngeo@Microsoft@@QAEAAV012@$$QAV012@@Z="C:\Windows\SysWOW64\MapRouter".??4?$Pimpl@VPhonemeMapping@ngeo@Microsoft@@VPhonemeMappingImpl@internal@23@@ngeo@Microsoft@@QAEAAV012@$$QAV012@@Z
  ??4?$Pimpl@VPhonemeMapping@ngeo@Microsoft@@VPhonemeMappingImpl@internal@23@@ngeo@Microsoft@@QAEAAV012@ABV012@@Z="C:\Windows\SysWOW64\MapRouter".??4?$Pimpl@VPhonemeMapping@ngeo@Microsoft@@VPhonemeMappingImpl@internal@23@@ngeo@Microsoft@@QAEAAV012@ABV012@@Z
  ??4?$Pimpl@VSideOfDestinationVoiceInfo@ngeo@Microsoft@@VSideOfDestinationVoiceInfoImpl@internal@23@@ngeo@Microsoft@@QAEAAV012@$$QAV012@@Z="C:\Windows\SysWOW64\MapRouter".??4?$Pimpl@VSideOfDestinationVoiceInfo@ngeo@Microsoft@@VSideOfDestinationVoiceInfoImpl@internal@23@@ngeo@Microsoft@@QAEAAV012@$$QAV012@@Z
  ??4?$Pimpl@VSideOfDestinationVoiceInfo@ngeo@Microsoft@@VSideOfDestinationVoiceInfoImpl@internal@23@@ngeo@Microsoft@@QAEAAV012@ABV012@@Z="C:\Windows\SysWOW64\MapRouter".??4?$Pimpl@VSideOfDestinationVoiceInfo@ngeo@Microsoft@@VSideOfDestinationVoiceInfoImpl@internal@23@@ngeo@Microsoft@@QAEAAV012@ABV012@@Z
  ??4?$Pimpl@VSignpostLabelVoiceInfo@ngeo@Microsoft@@VSignpostLabelVoiceInfoImpl@internal@23@@ngeo@Microsoft@@QAEAAV012@$$QAV012@@Z="C:\Windows\SysWOW64\MapRouter".??4?$Pimpl@VSignpostLabelVoiceInfo@ngeo@Microsoft@@VSignpostLabelVoiceInfoImpl@internal@23@@ngeo@Microsoft@@QAEAAV012@$$QAV012@@Z
  ??4?$Pimpl@VSignpostLabelVoiceInfo@ngeo@Microsoft@@VSignpostLabelVoiceInfoImpl@internal@23@@ngeo@Microsoft@@QAEAAV012@ABV012@@Z="C:\Windows\SysWOW64\MapRouter".??4?$Pimpl@VSignpostLabelVoiceInfo@ngeo@Microsoft@@VSignpostLabelVoiceInfoImpl@internal@23@@ngeo@Microsoft@@QAEAAV012@ABV012@@Z
  ??4?$Pimpl@VSignpostVoiceInfo@ngeo@Microsoft@@VSignpostVoiceInfoImpl@internal@23@@ngeo@Microsoft@@QAEAAV012@$$QAV012@@Z="C:\Windows\SysWOW64\MapRouter".??4?$Pimpl@VSignpostVoiceInfo@ngeo@Microsoft@@VSignpostVoiceInfoImpl@internal@23@@ngeo@Microsoft@@QAEAAV012@$$QAV012@@Z
  ??4?$Pimpl@VSignpostVoiceInfo@ngeo@Microsoft@@VSignpostVoiceInfoImpl@internal@23@@ngeo@Microsoft@@QAEAAV012@ABV012@@Z="C:\Windows\SysWOW64\MapRouter".??4?$Pimpl@VSignpostVoiceInfo@ngeo@Microsoft@@VSignpostVoiceInfoImpl@internal@23@@ngeo@Microsoft@@QAEAAV012@ABV012@@Z
  ??4?$Pimpl@VStreetVoiceInfo@ngeo@Microsoft@@VStreetVoiceInfoImpl@internal@23@@ngeo@Microsoft@@QAEAAV012@$$QAV012@@Z="C:\Windows\SysWOW64\MapRouter".??4?$Pimpl@VStreetVoiceInfo@ngeo@Microsoft@@VStreetVoiceInfoImpl@internal@23@@ngeo@Microsoft@@QAEAAV012@$$QAV012@@Z
  ??4?$Pimpl@VStreetVoiceInfo@ngeo@Microsoft@@VStreetVoiceInfoImpl@internal@23@@ngeo@Microsoft@@QAEAAV012@ABV012@@Z="C:\Windows\SysWOW64\MapRouter".??4?$Pimpl@VStreetVoiceInfo@ngeo@Microsoft@@VStreetVoiceInfoImpl@internal@23@@ngeo@Microsoft@@QAEAAV012@ABV012@@Z
  ??4?$Pimpl@VVoiceCommandInfo@ngeo@Microsoft@@VVoiceCommandInfoImpl@internal@23@@ngeo@Microsoft@@QAEAAV012@$$QAV012@@Z="C:\Windows\SysWOW64\MapRouter".??4?$Pimpl@VVoiceCommandInfo@ngeo@Microsoft@@VVoiceCommandInfoImpl@internal@23@@ngeo@Microsoft@@QAEAAV012@$$QAV012@@Z
  ??4?$Pimpl@VVoiceCommandInfo@ngeo@Microsoft@@VVoiceCommandInfoImpl@internal@23@@ngeo@Microsoft@@QAEAAV012@ABV012@@Z="C:\Windows\SysWOW64\MapRouter".??4?$Pimpl@VVoiceCommandInfo@ngeo@Microsoft@@VVoiceCommandInfoImpl@internal@23@@ngeo@Microsoft@@QAEAAV012@ABV012@@Z
  ??4?$Pimpl@VVoiceSkin@ngeo@Microsoft@@VVoiceSkinImpl@internal@23@@ngeo@Microsoft@@QAEAAV012@$$QAV012@@Z="C:\Windows\SysWOW64\MapRouter".??4?$Pimpl@VVoiceSkin@ngeo@Microsoft@@VVoiceSkinImpl@internal@23@@ngeo@Microsoft@@QAEAAV012@$$QAV012@@Z
  ??4?$Pimpl@VVoiceSkin@ngeo@Microsoft@@VVoiceSkinImpl@internal@23@@ngeo@Microsoft@@QAEAAV012@ABV012@@Z="C:\Windows\SysWOW64\MapRouter".??4?$Pimpl@VVoiceSkin@ngeo@Microsoft@@VVoiceSkinImpl@internal@23@@ngeo@Microsoft@@QAEAAV012@ABV012@@Z
  ??4BaseEngine@nmacore@Microsoft@@QAEAAV012@ABV012@@Z="C:\Windows\SysWOW64\MapRouter".??4BaseEngine@nmacore@Microsoft@@QAEAAV012@ABV012@@Z
  ??4BufferInputStream@nmacore@Microsoft@@QAEAAV012@$$QAV012@@Z="C:\Windows\SysWOW64\MapRouter".??4BufferInputStream@nmacore@Microsoft@@QAEAAV012@$$QAV012@@Z
  ??4BufferInputStream@nmacore@Microsoft@@QAEAAV012@ABV012@@Z="C:\Windows\SysWOW64\MapRouter".??4BufferInputStream@nmacore@Microsoft@@QAEAAV012@ABV012@@Z
  ??4BufferOutputStream@nmacore@Microsoft@@QAEAAV012@ABV012@@Z="C:\Windows\SysWOW64\MapRouter".??4BufferOutputStream@nmacore@Microsoft@@QAEAAV012@ABV012@@Z
  ??4Color@ngeo@Microsoft@@QAEAAV012@$$QAV012@@Z="C:\Windows\SysWOW64\MapRouter".??4Color@ngeo@Microsoft@@QAEAAV012@$$QAV012@@Z
  ??4Color@ngeo@Microsoft@@QAEAAV012@ABV012@@Z="C:\Windows\SysWOW64\MapRouter".??4Color@ngeo@Microsoft@@QAEAAV012@ABV012@@Z
  ??4Date@ngeo@Microsoft@@QAEAAV012@$$QAV012@@Z="C:\Windows\SysWOW64\MapRouter".??4Date@ngeo@Microsoft@@QAEAAV012@$$QAV012@@Z
  ??4Date@ngeo@Microsoft@@QAEAAV012@ABV012@@Z="C:\Windows\SysWOW64\MapRouter".??4Date@ngeo@Microsoft@@QAEAAV012@ABV012@@Z
  ??4DateTime@ngeo@Microsoft@@QAEAAV012@$$QAV012@@Z="C:\Windows\SysWOW64\MapRouter".??4DateTime@ngeo@Microsoft@@QAEAAV012@$$QAV012@@Z
  ??4DateTime@ngeo@Microsoft@@QAEAAV012@ABV012@@Z="C:\Windows\SysWOW64\MapRouter".??4DateTime@ngeo@Microsoft@@QAEAAV012@ABV012@@Z
  ??4DriveSimulator@ngeo@Microsoft@@QAEAAV012@ABV012@@Z="C:\Windows\SysWOW64\MapRouter".??4DriveSimulator@ngeo@Microsoft@@QAEAAV012@ABV012@@Z
  ??4DynamicPenalty@ngeo@Microsoft@@QAEAAV012@ABV012@@Z="C:\Windows\SysWOW64\MapRouter".??4DynamicPenalty@ngeo@Microsoft@@QAEAAV012@ABV012@@Z
  ??4GeoArea@ngeo@Microsoft@@QAEAAV012@ABV012@@Z="C:\Windows\SysWOW64\MapRouter".??4GeoArea@ngeo@Microsoft@@QAEAAV012@ABV012@@Z
  ??4GeoCoordinates@ngeo@Microsoft@@QAEAAV012@$$QAV012@@Z="C:\Windows\SysWOW64\MapRouter".??4GeoCoordinates@ngeo@Microsoft@@QAEAAV012@$$QAV012@@Z
  ??4GeoCoordinates@ngeo@Microsoft@@QAEAAV012@ABV012@@Z="C:\Windows\SysWOW64\MapRouter".??4GeoCoordinates@ngeo@Microsoft@@QAEAAV012@ABV012@@Z
  ??4GeoPolygon@ngeo@Microsoft@@QAEAAV012@$$QAV012@@Z="C:\Windows\SysWOW64\MapRouter".??4GeoPolygon@ngeo@Microsoft@@QAEAAV012@$$QAV012@@Z
  ??4GeoPolygon@ngeo@Microsoft@@QAEAAV012@ABV012@@Z="C:\Windows\SysWOW64\MapRouter".??4GeoPolygon@ngeo@Microsoft@@QAEAAV012@ABV012@@Z
  ??4GeoPolyline@ngeo@Microsoft@@QAEAAV012@$$QAV012@@Z="C:\Windows\SysWOW64\MapRouter".??4GeoPolyline@ngeo@Microsoft@@QAEAAV012@$$QAV012@@Z
  ??4GeoPolyline@ngeo@Microsoft@@QAEAAV012@ABV012@@Z="C:\Windows\SysWOW64\MapRouter".??4GeoPolyline@ngeo@Microsoft@@QAEAAV012@ABV012@@Z
  ??4GeoRect@ngeo@Microsoft@@QAEAAV012@$$QAV012@@Z="C:\Windows\SysWOW64\MapRouter".??4GeoRect@ngeo@Microsoft@@QAEAAV012@$$QAV012@@Z
  ??4GeoRect@ngeo@Microsoft@@QAEAAV012@ABV012@@Z="C:\Windows\SysWOW64\MapRouter".??4GeoRect@ngeo@Microsoft@@QAEAAV012@ABV012@@Z
  ??4Guidance@ngeo@Microsoft@@QAEAAV012@ABV012@@Z="C:\Windows\SysWOW64\MapRouter".??4Guidance@ngeo@Microsoft@@QAEAAV012@ABV012@@Z
  ??4Guidance@nmacore@Microsoft@@QAEAAV012@ABV012@@Z="C:\Windows\SysWOW64\MapRouter".??4Guidance@nmacore@Microsoft@@QAEAAV012@ABV012@@Z
  ??4GuidanceListener@ngeo@Microsoft@@QAEAAV012@ABV012@@Z="C:\Windows\SysWOW64\MapRouter".??4GuidanceListener@ngeo@Microsoft@@QAEAAV012@ABV012@@Z
  ??4GuidanceOptions@ngeo@Microsoft@@QAEAAV012@ABV012@@Z="C:\Windows\SysWOW64\MapRouter".??4GuidanceOptions@ngeo@Microsoft@@QAEAAV012@ABV012@@Z
  ??4GuidanceVisualizer@nmacore@Microsoft@@QAEAAV012@$$QAV012@@Z="C:\Windows\SysWOW64\MapRouter".??4GuidanceVisualizer@nmacore@Microsoft@@QAEAAV012@$$QAV012@@Z
  ??4GuidanceVisualizer@nmacore@Microsoft@@QAEAAV012@ABV012@@Z="C:\Windows\SysWOW64\MapRouter".??4GuidanceVisualizer@nmacore@Microsoft@@QAEAAV012@ABV012@@Z
  ??4ICompass@nmacore@Microsoft@@QAEAAV012@$$QAV012@@Z="C:\Windows\SysWOW64\MapRouter".??4ICompass@nmacore@Microsoft@@QAEAAV012@$$QAV012@@Z
  ??4ICompass@nmacore@Microsoft@@QAEAAV012@ABV012@@Z="C:\Windows\SysWOW64\MapRouter".??4ICompass@nmacore@Microsoft@@QAEAAV012@ABV012@@Z
  ??4IGeoCoordinates@msngeo@@QAEAAV01@ABV01@@Z="C:\Windows\SysWOW64\MapRouter".??4IGeoCoordinates@msngeo@@QAEAAV01@ABV01@@Z
  ??4IGeoRect@msngeo@@QAEAAV01@ABV01@@Z="C:\Windows\SysWOW64\MapRouter".??4IGeoRect@msngeo@@QAEAAV01@ABV01@@Z
  ??4IGuidanceListener@nmacore@Microsoft@@QAEAAV012@$$QAV012@@Z="C:\Windows\SysWOW64\MapRouter".??4IGuidanceListener@nmacore@Microsoft@@QAEAAV012@$$QAV012@@Z
  ??4IGuidanceListener@nmacore@Microsoft@@QAEAAV012@ABV012@@Z="C:\Windows\SysWOW64\MapRouter".??4IGuidanceListener@nmacore@Microsoft@@QAEAAV012@ABV012@@Z
  ??4IItineraryWarning@msnma@@QAEAAV01@ABV01@@Z="C:\Windows\SysWOW64\MapRouter".??4IItineraryWarning@msnma@@QAEAAV01@ABV01@@Z
  ??4IItineraryWarningAttributes@msngeo@@QAEAAV01@ABV01@@Z="C:\Windows\SysWOW64\MapRouter".??4IItineraryWarningAttributes@msngeo@@QAEAAV01@ABV01@@Z
  ??4IItineraryWarningAttributes@msnma@@QAEAAV01@ABV01@@Z="C:\Windows\SysWOW64\MapRouter".??4IItineraryWarningAttributes@msnma@@QAEAAV01@ABV01@@Z
  ??4IItineraryWarningDivChange@msnma@@QAEAAV01@ABV01@@Z="C:\Windows\SysWOW64\MapRouter".??4IItineraryWarningDivChange@msnma@@QAEAAV01@ABV01@@Z
  ??4IItineraryWarningTraffic@msngeo@@QAEAAV01@ABV01@@Z="C:\Windows\SysWOW64\MapRouter".??4IItineraryWarningTraffic@msngeo@@QAEAAV01@ABV01@@Z
  ??4IItineraryWarningTraffic@msnma@@QAEAAV01@ABV01@@Z="C:\Windows\SysWOW64\MapRouter".??4IItineraryWarningTraffic@msnma@@QAEAAV01@ABV01@@Z
  ??4IManeuver@msnma@@QAEAAV01@ABV01@@Z="C:\Windows\SysWOW64\MapRouter".??4IManeuver@msnma@@QAEAAV01@ABV01@@Z
  ??4IPositioning@nmacore@Microsoft@@QAEAAV012@$$QAV012@@Z="C:\Windows\SysWOW64\MapRouter".??4IPositioning@nmacore@Microsoft@@QAEAAV012@$$QAV012@@Z
  ??4IPositioning@nmacore@Microsoft@@QAEAAV012@ABV012@@Z="C:\Windows\SysWOW64\MapRouter".??4IPositioning@nmacore@Microsoft@@QAEAAV012@ABV012@@Z
  ??4IPositioningObserver@nmacore@Microsoft@@QAEAAV012@$$QAV012@@Z="C:\Windows\SysWOW64\MapRouter".??4IPositioningObserver@nmacore@Microsoft@@QAEAAV012@$$QAV012@@Z
  ??4IPositioningObserver@nmacore@Microsoft@@QAEAAV012@ABV012@@Z="C:\Windows\SysWOW64\MapRouter".??4IPositioningObserver@nmacore@Microsoft@@QAEAAV012@ABV012@@Z
  ??4IRoute@msnma@@QAEAAV01@ABV01@@Z="C:\Windows\SysWOW64\MapRouter".??4IRoute@msnma@@QAEAAV01@ABV01@@Z
  ??4IRouterEngineListener@nmacore@Microsoft@@QAEAAV012@$$QAV012@@Z="C:\Windows\SysWOW64\MapRouter".??4IRouterEngineListener@nmacore@Microsoft@@QAEAAV012@$$QAV012@@Z
  ??4IRouterEngineListener@nmacore@Microsoft@@QAEAAV012@ABV012@@Z="C:\Windows\SysWOW64\MapRouter".??4IRouterEngineListener@nmacore@Microsoft@@QAEAAV012@ABV012@@Z
  ??4ISignpost@msngeo@@QAEAAV01@ABV01@@Z="C:\Windows\SysWOW64\MapRouter".??4ISignpost@msngeo@@QAEAAV01@ABV01@@Z
  ??4ITimerObserver@msnma@@QAEAAV01@ABV01@@Z="C:\Windows\SysWOW64\MapRouter".??4ITimerObserver@msnma@@QAEAAV01@ABV01@@Z
  ??4ITimerSource@msnma@@QAEAAV01@ABV01@@Z="C:\Windows\SysWOW64\MapRouter".??4ITimerSource@msnma@@QAEAAV01@ABV01@@Z
  ??4Icon@ngeo@Microsoft@@QAEAAV012@ABV012@@Z="C:\Windows\SysWOW64\MapRouter".??4Icon@ngeo@Microsoft@@QAEAAV012@ABV012@@Z
  ??4ItineraryWarning@ngeo@Microsoft@@QAEAAV012@ABV012@@Z="C:\Windows\SysWOW64\MapRouter".??4ItineraryWarning@ngeo@Microsoft@@QAEAAV012@ABV012@@Z
  ??4ItineraryWarning@nmacore@Microsoft@@QAEAAV012@ABV012@@Z="C:\Windows\SysWOW64\MapRouter".??4ItineraryWarning@nmacore@Microsoft@@QAEAAV012@ABV012@@Z
  ??4ItineraryWarningAdminDivChange@ngeo@Microsoft@@QAEAAV012@ABV012@@Z="C:\Windows\SysWOW64\MapRouter".??4ItineraryWarningAdminDivChange@ngeo@Microsoft@@QAEAAV012@ABV012@@Z
  ??4ItineraryWarningAttributes@ngeo@Microsoft@@QAEAAV012@ABV012@@Z="C:\Windows\SysWOW64\MapRouter".??4ItineraryWarningAttributes@ngeo@Microsoft@@QAEAAV012@ABV012@@Z
  ??4ItineraryWarningTraffic@ngeo@Microsoft@@QAEAAV012@ABV012@@Z="C:\Windows\SysWOW64\MapRouter".??4ItineraryWarningTraffic@ngeo@Microsoft@@QAEAAV012@ABV012@@Z
  ??4ItineraryWarningTraffic@nmacore@Microsoft@@QAEAAV012@ABV012@@Z="C:\Windows\SysWOW64\MapRouter".??4ItineraryWarningTraffic@nmacore@Microsoft@@QAEAAV012@ABV012@@Z
  ??4ItineraryWarningVisitor@ngeo@Microsoft@@QAEAAV012@ABV012@@Z="C:\Windows\SysWOW64\MapRouter".??4ItineraryWarningVisitor@ngeo@Microsoft@@QAEAAV012@ABV012@@Z
  ??4LaneInfo@ngeo@Microsoft@@QAEAAV012@$$QAV012@@Z="C:\Windows\SysWOW64\MapRouter".??4LaneInfo@ngeo@Microsoft@@QAEAAV012@$$QAV012@@Z
  ??4LaneInfo@ngeo@Microsoft@@QAEAAV012@ABV012@@Z="C:\Windows\SysWOW64\MapRouter".??4LaneInfo@ngeo@Microsoft@@QAEAAV012@ABV012@@Z
  ??4LanguageKeyValuePair@ngeo@Microsoft@@QAEAAV012@ABV012@@Z="C:\Windows\SysWOW64\MapRouter".??4LanguageKeyValuePair@ngeo@Microsoft@@QAEAAV012@ABV012@@Z
  ??4LanguageMapping@ngeo@Microsoft@@QAEAAV012@ABV012@@Z="C:\Windows\SysWOW64\MapRouter".??4LanguageMapping@ngeo@Microsoft@@QAEAAV012@ABV012@@Z
  ??4Location@ngeo@Microsoft@@QAEAAV012@ABV012@@Z="C:\Windows\SysWOW64\MapRouter".??4Location@ngeo@Microsoft@@QAEAAV012@ABV012@@Z
  ??4LocationInfo@ngeo@Microsoft@@QAEAAV012@ABV012@@Z="C:\Windows\SysWOW64\MapRouter".??4LocationInfo@ngeo@Microsoft@@QAEAAV012@ABV012@@Z
  ??4LocationSource@ngeo@Microsoft@@QAEAAV012@ABV012@@Z="C:\Windows\SysWOW64\MapRouter".??4LocationSource@ngeo@Microsoft@@QAEAAV012@ABV012@@Z
  ??4LocationSourceListener@ngeo@Microsoft@@QAEAAV012@ABV012@@Z="C:\Windows\SysWOW64\MapRouter".??4LocationSourceListener@ngeo@Microsoft@@QAEAAV012@ABV012@@Z
  ??4Maneuver@ngeo@Microsoft@@QAEAAV012@ABV012@@Z="C:\Windows\SysWOW64\MapRouter".??4Maneuver@ngeo@Microsoft@@QAEAAV012@ABV012@@Z
  ??4Maneuver@nmacore@Microsoft@@QAEABV012@ABV012@@Z="C:\Windows\SysWOW64\MapRouter".??4Maneuver@nmacore@Microsoft@@QAEABV012@ABV012@@Z
  ??4ManeuverUtil@naviplayer@Microsoft@@QAEAAV012@$$QAV012@@Z="C:\Windows\SysWOW64\MapRouter".??4ManeuverUtil@naviplayer@Microsoft@@QAEAAV012@$$QAV012@@Z
  ??4ManeuverUtil@naviplayer@Microsoft@@QAEAAV012@ABV012@@Z="C:\Windows\SysWOW64\MapRouter".??4ManeuverUtil@naviplayer@Microsoft@@QAEAAV012@ABV012@@Z
  ??4ManeuverVoiceInfo@ngeo@Microsoft@@QAEAAV012@ABV012@@Z="C:\Windows\SysWOW64\MapRouter".??4ManeuverVoiceInfo@ngeo@Microsoft@@QAEAAV012@ABV012@@Z
  ??4MapMatchedLocation@ngeo@Microsoft@@QAEAAV012@ABV012@@Z="C:\Windows\SysWOW64\MapRouter".??4MapMatchedLocation@ngeo@Microsoft@@QAEAAV012@ABV012@@Z
  ??4MapMatcher@ngeo@Microsoft@@QAEAAV012@ABV012@@Z="C:\Windows\SysWOW64\MapRouter".??4MapMatcher@ngeo@Microsoft@@QAEAAV012@ABV012@@Z
  ??4MapMatcherListener@ngeo@Microsoft@@QAEAAV012@ABV012@@Z="C:\Windows\SysWOW64\MapRouter".??4MapMatcherListener@ngeo@Microsoft@@QAEAAV012@ABV012@@Z
  ??4MapMatcherOptions@ngeo@Microsoft@@QAEAAV012@ABV012@@Z="C:\Windows\SysWOW64\MapRouter".??4MapMatcherOptions@ngeo@Microsoft@@QAEAAV012@ABV012@@Z
  ??4MapMatcherProxy@nmacore@Microsoft@@QAEAAV012@ABV012@@Z="C:\Windows\SysWOW64\MapRouter".??4MapMatcherProxy@nmacore@Microsoft@@QAEAAV012@ABV012@@Z
  ??4MapModel@ngeo@Microsoft@@QAEAAV012@ABV012@@Z="C:\Windows\SysWOW64\MapRouter".??4MapModel@ngeo@Microsoft@@QAEAAV012@ABV012@@Z
  ??4MetricsAccessor@ngeo@Microsoft@@QAEAAV012@$$QAV012@@Z="C:\Windows\SysWOW64\MapRouter".??4MetricsAccessor@ngeo@Microsoft@@QAEAAV012@$$QAV012@@Z
  ??4MetricsAccessor@ngeo@Microsoft@@QAEAAV012@ABV012@@Z="C:\Windows\SysWOW64\MapRouter".??4MetricsAccessor@ngeo@Microsoft@@QAEAAV012@ABV012@@Z
  ??4MetricsInfo@ngeo@Microsoft@@QAEAAV012@$$QAV012@@Z="C:\Windows\SysWOW64\MapRouter".??4MetricsInfo@ngeo@Microsoft@@QAEAAV012@$$QAV012@@Z
  ??4MetricsInfo@ngeo@Microsoft@@QAEAAV012@ABV012@@Z="C:\Windows\SysWOW64\MapRouter".??4MetricsInfo@ngeo@Microsoft@@QAEAAV012@ABV012@@Z
  ??4MicrosoftTtsVoiceInfo@ngeo@Microsoft@@QAEAAV012@$$QAV012@@Z="C:\Windows\SysWOW64\MapRouter".??4MicrosoftTtsVoiceInfo@ngeo@Microsoft@@QAEAAV012@$$QAV012@@Z
  ??4MicrosoftTtsVoiceInfo@ngeo@Microsoft@@QAEAAV012@ABV012@@Z="C:\Windows\SysWOW64\MapRouter".??4MicrosoftTtsVoiceInfo@ngeo@Microsoft@@QAEAAV012@ABV012@@Z
  ??4Mutex@ngeo@Microsoft@@AAEAAV012@ABV012@@Z="C:\Windows\SysWOW64\MapRouter".??4Mutex@ngeo@Microsoft@@AAEAAV012@ABV012@@Z
  ??4NaturalGuidanceVoiceInfo@ngeo@Microsoft@@QAEAAV012@ABV012@@Z="C:\Windows\SysWOW64\MapRouter".??4NaturalGuidanceVoiceInfo@ngeo@Microsoft@@QAEAAV012@ABV012@@Z
  ??4Output@ngeo@Microsoft@@QAEAAV012@$$QAV012@@Z="C:\Windows\SysWOW64\MapRouter".??4Output@ngeo@Microsoft@@QAEAAV012@$$QAV012@@Z
  ??4Output@ngeo@Microsoft@@QAEAAV012@ABV012@@Z="C:\Windows\SysWOW64\MapRouter".??4Output@ngeo@Microsoft@@QAEAAV012@ABV012@@Z
  ??4OutputEngine@ngeo@Microsoft@@QAEAAV012@ABV012@@Z="C:\Windows\SysWOW64\MapRouter".??4OutputEngine@ngeo@Microsoft@@QAEAAV012@ABV012@@Z
  ??4PhonemeMapping@ngeo@Microsoft@@QAEAAV012@ABV012@@Z="C:\Windows\SysWOW64\MapRouter".??4PhonemeMapping@ngeo@Microsoft@@QAEAAV012@ABV012@@Z
  ??4PixelCoordinates@ngeo@Microsoft@@QAEAAV012@$$QAV012@@Z="C:\Windows\SysWOW64\MapRouter".??4PixelCoordinates@ngeo@Microsoft@@QAEAAV012@$$QAV012@@Z
  ??4PixelCoordinates@ngeo@Microsoft@@QAEAAV012@ABV012@@Z="C:\Windows\SysWOW64\MapRouter".??4PixelCoordinates@ngeo@Microsoft@@QAEAAV012@ABV012@@Z
  ??4PixelRect@ngeo@Microsoft@@QAEAAV012@$$QAV012@@Z="C:\Windows\SysWOW64\MapRouter".??4PixelRect@ngeo@Microsoft@@QAEAAV012@$$QAV012@@Z
  ??4PixelRect@ngeo@Microsoft@@QAEAAV012@ABV012@@Z="C:\Windows\SysWOW64\MapRouter".??4PixelRect@ngeo@Microsoft@@QAEAAV012@ABV012@@Z
  ??4Poller@nmacore@Microsoft@@QAEAAV012@ABV012@@Z="C:\Windows\SysWOW64\MapRouter".??4Poller@nmacore@Microsoft@@QAEAAV012@ABV012@@Z
  ??4ProxyObject@ngeo@Microsoft@@QAEAAV012@ABV012@@Z="C:\Windows\SysWOW64\MapRouter".??4ProxyObject@ngeo@Microsoft@@QAEAAV012@ABV012@@Z
  ??4ProxyObjectHandle@ngeo@Microsoft@@QAEAAU012@$$QAU012@@Z="C:\Windows\SysWOW64\MapRouter".??4ProxyObjectHandle@ngeo@Microsoft@@QAEAAU012@$$QAU012@@Z
  ??4ProxyObjectHandle@ngeo@Microsoft@@QAEAAU012@ABU012@@Z="C:\Windows\SysWOW64\MapRouter".??4ProxyObjectHandle@ngeo@Microsoft@@QAEAAU012@ABU012@@Z
  ??4RefCountable@internal@ngeo@Microsoft@@QAEAAV0123@ABV0123@@Z="C:\Windows\SysWOW64\MapRouter".??4RefCountable@internal@ngeo@Microsoft@@QAEAAV0123@ABV0123@@Z
  ??4RenderBuffer@ngeo@Microsoft@@QAEAAV012@ABV012@@Z="C:\Windows\SysWOW64\MapRouter".??4RenderBuffer@ngeo@Microsoft@@QAEAAV012@ABV012@@Z
  ??4RoadElement@ngeo@Microsoft@@QAEAAV012@$$QAV012@@Z="C:\Windows\SysWOW64\MapRouter".??4RoadElement@ngeo@Microsoft@@QAEAAV012@$$QAV012@@Z
  ??4RoadElement@ngeo@Microsoft@@QAEAAV012@ABV012@@Z="C:\Windows\SysWOW64\MapRouter".??4RoadElement@ngeo@Microsoft@@QAEAAV012@ABV012@@Z
  ??4RoadElementPenalty@DynamicPenalty@ngeo@Microsoft@@QAEAAV0123@ABV0123@@Z="C:\Windows\SysWOW64\MapRouter".??4RoadElementPenalty@DynamicPenalty@ngeo@Microsoft@@QAEAAV0123@ABV0123@@Z
  ??4Route@ngeo@Microsoft@@QAEAAV012@$$QAV012@@Z="C:\Windows\SysWOW64\MapRouter".??4Route@ngeo@Microsoft@@QAEAAV012@$$QAV012@@Z
  ??4Route@ngeo@Microsoft@@QAEAAV012@ABV012@@Z="C:\Windows\SysWOW64\MapRouter".??4Route@ngeo@Microsoft@@QAEAAV012@ABV012@@Z
  ??4Route@nmacore@Microsoft@@QAEAAV012@ABV012@@Z="C:\Windows\SysWOW64\MapRouter".??4Route@nmacore@Microsoft@@QAEAAV012@ABV012@@Z
  ??4RouteElement@ngeo@Microsoft@@QAEAAV012@$$QAV012@@Z="C:\Windows\SysWOW64\MapRouter".??4RouteElement@ngeo@Microsoft@@QAEAAV012@$$QAV012@@Z
  ??4RouteElement@ngeo@Microsoft@@QAEAAV012@ABV012@@Z="C:\Windows\SysWOW64\MapRouter".??4RouteElement@ngeo@Microsoft@@QAEAAV012@ABV012@@Z
  ??4RouteElements@ngeo@Microsoft@@QAEAAV012@$$QAV012@@Z="C:\Windows\SysWOW64\MapRouter".??4RouteElements@ngeo@Microsoft@@QAEAAV012@$$QAV012@@Z
  ??4RouteElements@ngeo@Microsoft@@QAEAAV012@ABV012@@Z="C:\Windows\SysWOW64\MapRouter".??4RouteElements@ngeo@Microsoft@@QAEAAV012@ABV012@@Z
  ??4RouteOptions@ngeo@Microsoft@@QAEAAV012@ABV012@@Z="C:\Windows\SysWOW64\MapRouter".??4RouteOptions@ngeo@Microsoft@@QAEAAV012@ABV012@@Z
  ??4RouteOptions@nmacore@Microsoft@@QAEAAV012@ABV012@@Z="C:\Windows\SysWOW64\MapRouter".??4RouteOptions@nmacore@Microsoft@@QAEAAV012@ABV012@@Z
  ??4RoutePlan@ngeo@Microsoft@@QAEAAV012@ABV012@@Z="C:\Windows\SysWOW64\MapRouter".??4RoutePlan@ngeo@Microsoft@@QAEAAV012@ABV012@@Z
  ??4RouteWaypoint@ngeo@Microsoft@@QAEAAV012@$$QAV012@@Z="C:\Windows\SysWOW64\MapRouter".??4RouteWaypoint@ngeo@Microsoft@@QAEAAV012@$$QAV012@@Z
  ??4RouteWaypoint@ngeo@Microsoft@@QAEAAV012@ABV012@@Z="C:\Windows\SysWOW64\MapRouter".??4RouteWaypoint@ngeo@Microsoft@@QAEAAV012@ABV012@@Z
  ??4RouterListener@ngeo@Microsoft@@QAEAAV012@ABV012@@Z="C:\Windows\SysWOW64\MapRouter".??4RouterListener@ngeo@Microsoft@@QAEAAV012@ABV012@@Z
  ??4Sensors@nmacore@Microsoft@@QAEAAV012@ABV012@@Z="C:\Windows\SysWOW64\MapRouter".??4Sensors@nmacore@Microsoft@@QAEAAV012@ABV012@@Z
  ??4SharedMutex@ngeo@Microsoft@@QAEAAV012@ABV012@@Z="C:\Windows\SysWOW64\MapRouter".??4SharedMutex@ngeo@Microsoft@@QAEAAV012@ABV012@@Z
  ??4SideOfDestinationVoiceInfo@ngeo@Microsoft@@QAEAAV012@ABV012@@Z="C:\Windows\SysWOW64\MapRouter".??4SideOfDestinationVoiceInfo@ngeo@Microsoft@@QAEAAV012@ABV012@@Z
  ??4Signpost@ngeo@Microsoft@@QAEAAV012@$$QAV012@@Z="C:\Windows\SysWOW64\MapRouter".??4Signpost@ngeo@Microsoft@@QAEAAV012@$$QAV012@@Z
  ??4Signpost@ngeo@Microsoft@@QAEAAV012@ABV012@@Z="C:\Windows\SysWOW64\MapRouter".??4Signpost@ngeo@Microsoft@@QAEAAV012@ABV012@@Z
  ??4SignpostLabelVoiceInfo@ngeo@Microsoft@@QAEAAV012@ABV012@@Z="C:\Windows\SysWOW64\MapRouter".??4SignpostLabelVoiceInfo@ngeo@Microsoft@@QAEAAV012@ABV012@@Z
  ??4SignpostVoiceInfo@ngeo@Microsoft@@QAEAAV012@ABV012@@Z="C:\Windows\SysWOW64\MapRouter".??4SignpostVoiceInfo@ngeo@Microsoft@@QAEAAV012@ABV012@@Z
  ??4SimpleGuidance@naviplayer@Microsoft@@QAEAAV012@ABV012@@Z="C:\Windows\SysWOW64\MapRouter".??4SimpleGuidance@naviplayer@Microsoft@@QAEAAV012@ABV012@@Z
  ??4SimpleGuidanceListener@naviplayer@Microsoft@@QAEAAV012@ABV012@@Z="C:\Windows\SysWOW64\MapRouter".??4SimpleGuidanceListener@naviplayer@Microsoft@@QAEAAV012@ABV012@@Z
  ??4SimpleGuidanceOptions@naviplayer@Microsoft@@QAEAAV012@ABV012@@Z="C:\Windows\SysWOW64\MapRouter".??4SimpleGuidanceOptions@naviplayer@Microsoft@@QAEAAV012@ABV012@@Z
  ??4SizeInPixels@ngeo@Microsoft@@QAEAAV012@$$QAV012@@Z="C:\Windows\SysWOW64\MapRouter".??4SizeInPixels@ngeo@Microsoft@@QAEAAV012@$$QAV012@@Z
  ??4SizeInPixels@ngeo@Microsoft@@QAEAAV012@ABV012@@Z="C:\Windows\SysWOW64\MapRouter".??4SizeInPixels@ngeo@Microsoft@@QAEAAV012@ABV012@@Z
  ??4SpeedNotification@ngeo@Microsoft@@QAEAAV012@$$QAV012@@Z="C:\Windows\SysWOW64\MapRouter".??4SpeedNotification@ngeo@Microsoft@@QAEAAV012@$$QAV012@@Z
  ??4SpeedNotification@ngeo@Microsoft@@QAEAAV012@ABV012@@Z="C:\Windows\SysWOW64\MapRouter".??4SpeedNotification@ngeo@Microsoft@@QAEAAV012@ABV012@@Z
  ??4SpeedWarnerListener@ngeo@Microsoft@@QAEAAV012@ABV012@@Z="C:\Windows\SysWOW64\MapRouter".??4SpeedWarnerListener@ngeo@Microsoft@@QAEAAV012@ABV012@@Z
  ??4SpeedWarnerOptions@ngeo@Microsoft@@QAEAAV012@ABV012@@Z="C:\Windows\SysWOW64\MapRouter".??4SpeedWarnerOptions@ngeo@Microsoft@@QAEAAV012@ABV012@@Z
  ??4StatRepository@nmacore@Microsoft@@QAEAAV012@ABV012@@Z="C:\Windows\SysWOW64\MapRouter".??4StatRepository@nmacore@Microsoft@@QAEAAV012@ABV012@@Z
  ??4StatStartTiming@nmacore@Microsoft@@QAEAAV012@ABV012@@Z="C:\Windows\SysWOW64\MapRouter".??4StatStartTiming@nmacore@Microsoft@@QAEAAV012@ABV012@@Z
  ??4StreetVoiceInfo@ngeo@Microsoft@@QAEAAV012@ABV012@@Z="C:\Windows\SysWOW64\MapRouter".??4StreetVoiceInfo@ngeo@Microsoft@@QAEAAV012@ABV012@@Z
  ??4Surface@ngeo@Microsoft@@QAEAAV012@ABV012@@Z="C:\Windows\SysWOW64\MapRouter".??4Surface@ngeo@Microsoft@@QAEAAV012@ABV012@@Z
  ??4Time@ngeo@Microsoft@@QAEAAV012@ABV012@@Z="C:\Windows\SysWOW64\MapRouter".??4Time@ngeo@Microsoft@@QAEAAV012@ABV012@@Z
  ??4Traffic@ngeo@Microsoft@@QAEAAV012@ABV012@@Z="C:\Windows\SysWOW64\MapRouter".??4Traffic@ngeo@Microsoft@@QAEAAV012@ABV012@@Z
  ??4TrafficEngine@nmacore@Microsoft@@QAEAAV012@ABV012@@Z="C:\Windows\SysWOW64\MapRouter".??4TrafficEngine@nmacore@Microsoft@@QAEAAV012@ABV012@@Z
  ??4TrafficEvent@ngeo@Microsoft@@QAEAAV012@ABV012@@Z="C:\Windows\SysWOW64\MapRouter".??4TrafficEvent@ngeo@Microsoft@@QAEAAV012@ABV012@@Z
  ??4TrafficEvent@nmacore@Microsoft@@QAEAAV012@ABV012@@Z="C:\Windows\SysWOW64\MapRouter".??4TrafficEvent@nmacore@Microsoft@@QAEAAV012@ABV012@@Z
  ??4TrafficEventObject@ngeo@Microsoft@@QAEAAV012@ABV012@@Z="C:\Windows\SysWOW64\MapRouter".??4TrafficEventObject@ngeo@Microsoft@@QAEAAV012@ABV012@@Z
  ??4TrafficListener@ngeo@Microsoft@@QAEAAV012@ABV012@@Z="C:\Windows\SysWOW64\MapRouter".??4TrafficListener@ngeo@Microsoft@@QAEAAV012@ABV012@@Z
  ??4TrafficNotification@ngeo@Microsoft@@QAEAAV012@$$QAV012@@Z="C:\Windows\SysWOW64\MapRouter".??4TrafficNotification@ngeo@Microsoft@@QAEAAV012@$$QAV012@@Z
  ??4TrafficNotification@ngeo@Microsoft@@QAEAAV012@ABV012@@Z="C:\Windows\SysWOW64\MapRouter".??4TrafficNotification@ngeo@Microsoft@@QAEAAV012@ABV012@@Z
  ??4TrafficNotificationInfo@ngeo@Microsoft@@QAEAAV012@ABV012@@Z="C:\Windows\SysWOW64\MapRouter".??4TrafficNotificationInfo@ngeo@Microsoft@@QAEAAV012@ABV012@@Z
  ??4TrafficOptions@ngeo@Microsoft@@QAEAAV012@ABV012@@Z="C:\Windows\SysWOW64\MapRouter".??4TrafficOptions@ngeo@Microsoft@@QAEAAV012@ABV012@@Z
  ??4TrafficPenaltySource@DynamicPenalty@ngeo@Microsoft@@QAEAAV0123@ABV0123@@Z="C:\Windows\SysWOW64\MapRouter".??4TrafficPenaltySource@DynamicPenalty@ngeo@Microsoft@@QAEAAV0123@ABV0123@@Z
  ??4TrafficSource@ngeo@Microsoft@@QAEAAV012@$$QAV012@@Z="C:\Windows\SysWOW64\MapRouter".??4TrafficSource@ngeo@Microsoft@@QAEAAV012@$$QAV012@@Z
  ??4TrafficSource@ngeo@Microsoft@@QAEAAV012@ABV012@@Z="C:\Windows\SysWOW64\MapRouter".??4TrafficSource@ngeo@Microsoft@@QAEAAV012@ABV012@@Z
  ??4TrafficSourceStatus@ngeo@Microsoft@@QAEAAV012@$$QAV012@@Z="C:\Windows\SysWOW64\MapRouter".??4TrafficSourceStatus@ngeo@Microsoft@@QAEAAV012@$$QAV012@@Z
  ??4TrafficSourceStatus@ngeo@Microsoft@@QAEAAV012@ABV012@@Z="C:\Windows\SysWOW64\MapRouter".??4TrafficSourceStatus@ngeo@Microsoft@@QAEAAV012@ABV012@@Z
  ??4TrafficVisitor@ngeo@Microsoft@@QAEAAV012@ABV012@@Z="C:\Windows\SysWOW64\MapRouter".??4TrafficVisitor@ngeo@Microsoft@@QAEAAV012@ABV012@@Z
  ??4TrafficWarnerListener@ngeo@Microsoft@@QAEAAV012@ABV012@@Z="C:\Windows\SysWOW64\MapRouter".??4TrafficWarnerListener@ngeo@Microsoft@@QAEAAV012@ABV012@@Z
  ??4TrafficWarnerOptions@ngeo@Microsoft@@QAEAAV012@ABV012@@Z="C:\Windows\SysWOW64\MapRouter".??4TrafficWarnerOptions@ngeo@Microsoft@@QAEAAV012@ABV012@@Z
  ??4TransitDatabase@nmacore@Microsoft@@QAEAAV012@ABV012@@Z="C:\Windows\SysWOW64\MapRouter".??4TransitDatabase@nmacore@Microsoft@@QAEAAV012@ABV012@@Z
  ??4TransitDatabaseListener@ngeo@Microsoft@@QAEAAV012@ABV012@@Z="C:\Windows\SysWOW64\MapRouter".??4TransitDatabaseListener@ngeo@Microsoft@@QAEAAV012@ABV012@@Z
  ??4TransitDatabaseListener@nmacore@Microsoft@@QAEAAV012@ABV012@@Z="C:\Windows\SysWOW64\MapRouter".??4TransitDatabaseListener@nmacore@Microsoft@@QAEAAV012@ABV012@@Z
  ??4TransitLineInfo@nmacore@Microsoft@@QAEAAV012@ABV012@@Z="C:\Windows\SysWOW64\MapRouter".??4TransitLineInfo@nmacore@Microsoft@@QAEAAV012@ABV012@@Z
  ??4TransitRouteElement@ngeo@Microsoft@@QAEAAV012@$$QAV012@@Z="C:\Windows\SysWOW64\MapRouter".??4TransitRouteElement@ngeo@Microsoft@@QAEAAV012@$$QAV012@@Z
  ??4TransitRouteElement@ngeo@Microsoft@@QAEAAV012@ABV012@@Z="C:\Windows\SysWOW64\MapRouter".??4TransitRouteElement@ngeo@Microsoft@@QAEAAV012@ABV012@@Z
  ??4TransitRouteOptions@ngeo@Microsoft@@QAEAAV012@$$QAV012@@Z="C:\Windows\SysWOW64\MapRouter".??4TransitRouteOptions@ngeo@Microsoft@@QAEAAV012@$$QAV012@@Z
  ??4TransitRouteOptions@ngeo@Microsoft@@QAEAAV012@ABV012@@Z="C:\Windows\SysWOW64\MapRouter".??4TransitRouteOptions@ngeo@Microsoft@@QAEAAV012@ABV012@@Z
  ??4TransitRouteStop@ngeo@Microsoft@@QAEAAV012@$$QAV012@@Z="C:\Windows\SysWOW64\MapRouter".??4TransitRouteStop@ngeo@Microsoft@@QAEAAV012@$$QAV012@@Z
  ??4TransitRouteStop@ngeo@Microsoft@@QAEAAV012@ABV012@@Z="C:\Windows\SysWOW64\MapRouter".??4TransitRouteStop@ngeo@Microsoft@@QAEAAV012@ABV012@@Z
  ??4TransitSystemInfo@ngeo@Microsoft@@QAEAAV012@ABV012@@Z="C:\Windows\SysWOW64\MapRouter".??4TransitSystemInfo@ngeo@Microsoft@@QAEAAV012@ABV012@@Z
  ??4TtsEngine@ngeo@Microsoft@@QAEAAV012@ABV012@@Z="C:\Windows\SysWOW64\MapRouter".??4TtsEngine@ngeo@Microsoft@@QAEAAV012@ABV012@@Z
  ??4TtsEngine@nmacore@Microsoft@@QAEAAV012@ABV012@@Z="C:\Windows\SysWOW64\MapRouter".??4TtsEngine@nmacore@Microsoft@@QAEAAV012@ABV012@@Z
  ??4TtsEngineFactory@ngeo@Microsoft@@QAEAAV012@$$QAV012@@Z="C:\Windows\SysWOW64\MapRouter".??4TtsEngineFactory@ngeo@Microsoft@@QAEAAV012@$$QAV012@@Z
  ??4TtsEngineFactory@ngeo@Microsoft@@QAEAAV012@ABV012@@Z="C:\Windows\SysWOW64\MapRouter".??4TtsEngineFactory@ngeo@Microsoft@@QAEAAV012@ABV012@@Z
  ??4TtsListener@ngeo@Microsoft@@QAEAAV012@ABV012@@Z="C:\Windows\SysWOW64\MapRouter".??4TtsListener@ngeo@Microsoft@@QAEAAV012@ABV012@@Z
  ??4TtsOptions@ngeo@Microsoft@@QAEAAV012@$$QAV012@@Z="C:\Windows\SysWOW64\MapRouter".??4TtsOptions@ngeo@Microsoft@@QAEAAV012@$$QAV012@@Z
  ??4TtsOptions@ngeo@Microsoft@@QAEAAV012@ABV012@@Z="C:\Windows\SysWOW64\MapRouter".??4TtsOptions@ngeo@Microsoft@@QAEAAV012@ABV012@@Z
  ??4TtsVoiceInfo@ngeo@Microsoft@@QAEAAV012@$$QAV012@@Z="C:\Windows\SysWOW64\MapRouter".??4TtsVoiceInfo@ngeo@Microsoft@@QAEAAV012@$$QAV012@@Z
  ??4TtsVoiceInfo@ngeo@Microsoft@@QAEAAV012@ABV012@@Z="C:\Windows\SysWOW64\MapRouter".??4TtsVoiceInfo@ngeo@Microsoft@@QAEAAV012@ABV012@@Z
  ??4Version@ngeo@Microsoft@@QAEAAV012@$$QAV012@@Z="C:\Windows\SysWOW64\MapRouter".??4Version@ngeo@Microsoft@@QAEAAV012@$$QAV012@@Z
  ??4Version@ngeo@Microsoft@@QAEAAV012@ABV012@@Z="C:\Windows\SysWOW64\MapRouter".??4Version@ngeo@Microsoft@@QAEAAV012@ABV012@@Z
  ??4Vicinity@Traffic@ngeo@Microsoft@@QAEAAU0123@$$QAU0123@@Z="C:\Windows\SysWOW64\MapRouter".??4Vicinity@Traffic@ngeo@Microsoft@@QAEAAU0123@$$QAU0123@@Z
  ??4Vicinity@Traffic@ngeo@Microsoft@@QAEAAU0123@ABU0123@@Z="C:\Windows\SysWOW64\MapRouter".??4Vicinity@Traffic@ngeo@Microsoft@@QAEAAU0123@ABU0123@@Z
  ??4ViewObject@ngeo@Microsoft@@QAEAAV012@ABV012@@Z="C:\Windows\SysWOW64\MapRouter".??4ViewObject@ngeo@Microsoft@@QAEAAV012@ABV012@@Z
  ??4ViewObjectHandle@ngeo@Microsoft@@QAEAAU012@$$QAU012@@Z="C:\Windows\SysWOW64\MapRouter".??4ViewObjectHandle@ngeo@Microsoft@@QAEAAU012@$$QAU012@@Z
  ??4ViewObjectHandle@ngeo@Microsoft@@QAEAAU012@ABU012@@Z="C:\Windows\SysWOW64\MapRouter".??4ViewObjectHandle@ngeo@Microsoft@@QAEAAU012@ABU012@@Z
  ??4VoiceCommandInfo@ngeo@Microsoft@@QAEAAV012@ABV012@@Z="C:\Windows\SysWOW64\MapRouter".??4VoiceCommandInfo@ngeo@Microsoft@@QAEAAV012@ABV012@@Z
  ??4VoiceSkin@ngeo@Microsoft@@QAEAAV012@ABV012@@Z="C:\Windows\SysWOW64\MapRouter".??4VoiceSkin@ngeo@Microsoft@@QAEAAV012@ABV012@@Z
  ??4iterator@RouteElements@ngeo@Microsoft@@QAEAAV0123@$$QAV0123@@Z="C:\Windows\SysWOW64\MapRouter".??4iterator@RouteElements@ngeo@Microsoft@@QAEAAV0123@$$QAV0123@@Z
  ??4iterator@RouteElements@ngeo@Microsoft@@QAEAAV0123@ABV0123@@Z="C:\Windows\SysWOW64\MapRouter".??4iterator@RouteElements@ngeo@Microsoft@@QAEAAV0123@ABV0123@@Z
  ??8?$ObjectHandle@VViewObject@ngeo@Microsoft@@$00@internal@ngeo@Microsoft@@QBE_NABV0123@@Z="C:\Windows\SysWOW64\MapRouter".??8?$ObjectHandle@VViewObject@ngeo@Microsoft@@$00@internal@ngeo@Microsoft@@QBE_NABV0123@@Z
  ??8RoadElement@ngeo@Microsoft@@QBE_NABV012@@Z="C:\Windows\SysWOW64\MapRouter".??8RoadElement@ngeo@Microsoft@@QBE_NABV012@@Z
  ??8RoadElement@ngeo@Microsoft@@QBE_NABVRouteElement@12@@Z="C:\Windows\SysWOW64\MapRouter".??8RoadElement@ngeo@Microsoft@@QBE_NABVRouteElement@12@@Z
  ??8RouteElement@ngeo@Microsoft@@QBE_NABV012@@Z="C:\Windows\SysWOW64\MapRouter".??8RouteElement@ngeo@Microsoft@@QBE_NABV012@@Z
  ??8RouteElement@ngeo@Microsoft@@QBE_NABVRoadElement@12@@Z="C:\Windows\SysWOW64\MapRouter".??8RouteElement@ngeo@Microsoft@@QBE_NABVRoadElement@12@@Z
  ??8RouteElement@ngeo@Microsoft@@QBE_NABVTransitRouteElement@12@@Z="C:\Windows\SysWOW64\MapRouter".??8RouteElement@ngeo@Microsoft@@QBE_NABVTransitRouteElement@12@@Z
  ??8TransitRouteElement@ngeo@Microsoft@@QBE_NABV012@@Z="C:\Windows\SysWOW64\MapRouter".??8TransitRouteElement@ngeo@Microsoft@@QBE_NABV012@@Z
  ??8TransitRouteElement@ngeo@Microsoft@@QBE_NABVRouteElement@12@@Z="C:\Windows\SysWOW64\MapRouter".??8TransitRouteElement@ngeo@Microsoft@@QBE_NABVRouteElement@12@@Z
  ??8Version@ngeo@Microsoft@@QBE_NABV012@@Z="C:\Windows\SysWOW64\MapRouter".??8Version@ngeo@Microsoft@@QBE_NABV012@@Z
  ??8iterator@RouteElements@ngeo@Microsoft@@QAE_NABV0123@@Z="C:\Windows\SysWOW64\MapRouter".??8iterator@RouteElements@ngeo@Microsoft@@QAE_NABV0123@@Z
  ??8ngeo@Microsoft@@YG_NABVColor@01@0@Z="C:\Windows\SysWOW64\MapRouter".??8ngeo@Microsoft@@YG_NABVColor@01@0@Z
  ??8ngeo@Microsoft@@YG_NABVGeoCoordinates@01@0@Z="C:\Windows\SysWOW64\MapRouter".??8ngeo@Microsoft@@YG_NABVGeoCoordinates@01@0@Z
  ??8ngeo@Microsoft@@YG_NABVGeoPolyline@01@0@Z="C:\Windows\SysWOW64\MapRouter".??8ngeo@Microsoft@@YG_NABVGeoPolyline@01@0@Z
  ??8ngeo@Microsoft@@YG_NABVGeoRect@01@0@Z="C:\Windows\SysWOW64\MapRouter".??8ngeo@Microsoft@@YG_NABVGeoRect@01@0@Z
  ??8ngeo@Microsoft@@YG_NABVLaneInfo@01@0@Z="C:\Windows\SysWOW64\MapRouter".??8ngeo@Microsoft@@YG_NABVLaneInfo@01@0@Z
  ??8ngeo@Microsoft@@YG_NABVLocationInfo@01@0@Z="C:\Windows\SysWOW64\MapRouter".??8ngeo@Microsoft@@YG_NABVLocationInfo@01@0@Z
  ??8ngeo@Microsoft@@YG_NABVPixelCoordinates@01@0@Z="C:\Windows\SysWOW64\MapRouter".??8ngeo@Microsoft@@YG_NABVPixelCoordinates@01@0@Z
  ??8ngeo@Microsoft@@YG_NABVPixelRect@01@0@Z="C:\Windows\SysWOW64\MapRouter".??8ngeo@Microsoft@@YG_NABVPixelRect@01@0@Z
  ??8ngeo@Microsoft@@YG_NABVSizeInPixels@01@0@Z="C:\Windows\SysWOW64\MapRouter".??8ngeo@Microsoft@@YG_NABVSizeInPixels@01@0@Z
  ??8ngeo@Microsoft@@YG_NABVTrafficEvent@01@0@Z="C:\Windows\SysWOW64\MapRouter".??8ngeo@Microsoft@@YG_NABVTrafficEvent@01@0@Z
  ??9?$ObjectHandle@VViewObject@ngeo@Microsoft@@$00@internal@ngeo@Microsoft@@QBE_NABV0123@@Z="C:\Windows\SysWOW64\MapRouter".??9?$ObjectHandle@VViewObject@ngeo@Microsoft@@$00@internal@ngeo@Microsoft@@QBE_NABV0123@@Z
  ??9RoadElement@ngeo@Microsoft@@QBE_NABV012@@Z="C:\Windows\SysWOW64\MapRouter".??9RoadElement@ngeo@Microsoft@@QBE_NABV012@@Z
  ??9RoadElement@ngeo@Microsoft@@QBE_NABVRouteElement@12@@Z="C:\Windows\SysWOW64\MapRouter".??9RoadElement@ngeo@Microsoft@@QBE_NABVRouteElement@12@@Z
  ??9RouteElement@ngeo@Microsoft@@QBE_NABV012@@Z="C:\Windows\SysWOW64\MapRouter".??9RouteElement@ngeo@Microsoft@@QBE_NABV012@@Z
  ??9RouteElement@ngeo@Microsoft@@QBE_NABVRoadElement@12@@Z="C:\Windows\SysWOW64\MapRouter".??9RouteElement@ngeo@Microsoft@@QBE_NABVRoadElement@12@@Z
  ??9RouteElement@ngeo@Microsoft@@QBE_NABVTransitRouteElement@12@@Z="C:\Windows\SysWOW64\MapRouter".??9RouteElement@ngeo@Microsoft@@QBE_NABVTransitRouteElement@12@@Z
  ??9TransitRouteElement@ngeo@Microsoft@@QBE_NABV012@@Z="C:\Windows\SysWOW64\MapRouter".??9TransitRouteElement@ngeo@Microsoft@@QBE_NABV012@@Z
  ??9TransitRouteElement@ngeo@Microsoft@@QBE_NABVRouteElement@12@@Z="C:\Windows\SysWOW64\MapRouter".??9TransitRouteElement@ngeo@Microsoft@@QBE_NABVRouteElement@12@@Z
  ??9Version@ngeo@Microsoft@@QBE_NABV012@@Z="C:\Windows\SysWOW64\MapRouter".??9Version@ngeo@Microsoft@@QBE_NABV012@@Z
  ??9iterator@RouteElements@ngeo@Microsoft@@QAE_NABV0123@@Z="C:\Windows\SysWOW64\MapRouter".??9iterator@RouteElements@ngeo@Microsoft@@QAE_NABV0123@@Z
  ??9ngeo@Microsoft@@YG_NABVColor@01@0@Z="C:\Windows\SysWOW64\MapRouter".??9ngeo@Microsoft@@YG_NABVColor@01@0@Z
  ??9ngeo@Microsoft@@YG_NABVGeoCoordinates@01@0@Z="C:\Windows\SysWOW64\MapRouter".??9ngeo@Microsoft@@YG_NABVGeoCoordinates@01@0@Z
  ??9ngeo@Microsoft@@YG_NABVGeoPolyline@01@0@Z="C:\Windows\SysWOW64\MapRouter".??9ngeo@Microsoft@@YG_NABVGeoPolyline@01@0@Z
  ??9ngeo@Microsoft@@YG_NABVGeoRect@01@0@Z="C:\Windows\SysWOW64\MapRouter".??9ngeo@Microsoft@@YG_NABVGeoRect@01@0@Z
  ??9ngeo@Microsoft@@YG_NABVLaneInfo@01@0@Z="C:\Windows\SysWOW64\MapRouter".??9ngeo@Microsoft@@YG_NABVLaneInfo@01@0@Z
  ??9ngeo@Microsoft@@YG_NABVLocationInfo@01@0@Z="C:\Windows\SysWOW64\MapRouter".??9ngeo@Microsoft@@YG_NABVLocationInfo@01@0@Z
  ??9ngeo@Microsoft@@YG_NABVPixelCoordinates@01@0@Z="C:\Windows\SysWOW64\MapRouter".??9ngeo@Microsoft@@YG_NABVPixelCoordinates@01@0@Z
  ??9ngeo@Microsoft@@YG_NABVPixelRect@01@0@Z="C:\Windows\SysWOW64\MapRouter".??9ngeo@Microsoft@@YG_NABVPixelRect@01@0@Z
  ??9ngeo@Microsoft@@YG_NABVSizeInPixels@01@0@Z="C:\Windows\SysWOW64\MapRouter".??9ngeo@Microsoft@@YG_NABVSizeInPixels@01@0@Z
  ??9ngeo@Microsoft@@YG_NABVTrafficEvent@01@0@Z="C:\Windows\SysWOW64\MapRouter".??9ngeo@Microsoft@@YG_NABVTrafficEvent@01@0@Z
  ??AGeoPolyline@ngeo@Microsoft@@QAEAAVGeoCoordinates@12@I@Z="C:\Windows\SysWOW64\MapRouter".??AGeoPolyline@ngeo@Microsoft@@QAEAAVGeoCoordinates@12@I@Z
  ??AGeoPolyline@ngeo@Microsoft@@QBEABVGeoCoordinates@12@I@Z="C:\Windows\SysWOW64\MapRouter".??AGeoPolyline@ngeo@Microsoft@@QBEABVGeoCoordinates@12@I@Z
  ??ALanguageMapping@ngeo@Microsoft@@QBEABV?$basic_string@GU?$char_traits@G@std@@V?$allocator@G@2@@std@@ABV34@@Z="C:\Windows\SysWOW64\MapRouter".??ALanguageMapping@ngeo@Microsoft@@QBEABV?$basic_string@GU?$char_traits@G@std@@V?$allocator@G@2@@std@@ABV34@@Z
  ??ARouteElements@ngeo@Microsoft@@QBE?AVRouteElement@12@I@Z="C:\Windows\SysWOW64\MapRouter".??ARouteElements@ngeo@Microsoft@@QBE?AVRouteElement@12@I@Z
  ??C?$ObjectHandle@VViewObject@ngeo@Microsoft@@$00@internal@ngeo@Microsoft@@QAEPAVViewObject@23@XZ="C:\Windows\SysWOW64\MapRouter".??C?$ObjectHandle@VViewObject@ngeo@Microsoft@@$00@internal@ngeo@Microsoft@@QAEPAVViewObject@23@XZ
  ??C?$ObjectHandle@VViewObject@ngeo@Microsoft@@$00@internal@ngeo@Microsoft@@QBEPBVViewObject@23@XZ="C:\Windows\SysWOW64\MapRouter".??C?$ObjectHandle@VViewObject@ngeo@Microsoft@@$00@internal@ngeo@Microsoft@@QBEPBVViewObject@23@XZ
  ??CProxyObjectHandle@ngeo@Microsoft@@QAEPAVProxyObject@12@XZ="C:\Windows\SysWOW64\MapRouter".??CProxyObjectHandle@ngeo@Microsoft@@QAEPAVProxyObject@12@XZ
  ??CProxyObjectHandle@ngeo@Microsoft@@QBEPBVProxyObject@12@XZ="C:\Windows\SysWOW64\MapRouter".??CProxyObjectHandle@ngeo@Microsoft@@QBEPBVProxyObject@12@XZ
  ??Citerator@RouteElements@ngeo@Microsoft@@QBE?AVRouteElement@23@XZ="C:\Windows\SysWOW64\MapRouter".??Citerator@RouteElements@ngeo@Microsoft@@QBE?AVRouteElement@23@XZ
  ??Diterator@RouteElements@ngeo@Microsoft@@QBE?AVRouteElement@23@XZ="C:\Windows\SysWOW64\MapRouter".??Diterator@RouteElements@ngeo@Microsoft@@QBE?AVRouteElement@23@XZ
  ??Eiterator@RouteElements@ngeo@Microsoft@@QAE?AV0123@H@Z="C:\Windows\SysWOW64\MapRouter".??Eiterator@RouteElements@ngeo@Microsoft@@QAE?AV0123@H@Z
  ??Eiterator@RouteElements@ngeo@Microsoft@@QAEAAV0123@XZ="C:\Windows\SysWOW64\MapRouter".??Eiterator@RouteElements@ngeo@Microsoft@@QAEAAV0123@XZ
  ??Fiterator@RouteElements@ngeo@Microsoft@@QAE?AV0123@H@Z="C:\Windows\SysWOW64\MapRouter".??Fiterator@RouteElements@ngeo@Microsoft@@QAE?AV0123@H@Z
  ??Fiterator@RouteElements@ngeo@Microsoft@@QAEAAV0123@XZ="C:\Windows\SysWOW64\MapRouter".??Fiterator@RouteElements@ngeo@Microsoft@@QAEAAV0123@XZ
  ??MVersion@ngeo@Microsoft@@QBE_NABV012@@Z="C:\Windows\SysWOW64\MapRouter".??MVersion@ngeo@Microsoft@@QBE_NABV012@@Z
  ??Miterator@RouteElements@ngeo@Microsoft@@QAE_NABV0123@@Z="C:\Windows\SysWOW64\MapRouter".??Miterator@RouteElements@ngeo@Microsoft@@QAE_NABV0123@@Z
  ??Mngeo@Microsoft@@YG_NABVTrafficEvent@01@0@Z="C:\Windows\SysWOW64\MapRouter".??Mngeo@Microsoft@@YG_NABVTrafficEvent@01@0@Z
  ??NVersion@ngeo@Microsoft@@QBE_NABV012@@Z="C:\Windows\SysWOW64\MapRouter".??NVersion@ngeo@Microsoft@@QBE_NABV012@@Z
  ??Niterator@RouteElements@ngeo@Microsoft@@QAE_NABV0123@@Z="C:\Windows\SysWOW64\MapRouter".??Niterator@RouteElements@ngeo@Microsoft@@QAE_NABV0123@@Z
  ??OVersion@ngeo@Microsoft@@QBE_NABV012@@Z="C:\Windows\SysWOW64\MapRouter".??OVersion@ngeo@Microsoft@@QBE_NABV012@@Z
  ??Oiterator@RouteElements@ngeo@Microsoft@@QAE_NABV0123@@Z="C:\Windows\SysWOW64\MapRouter".??Oiterator@RouteElements@ngeo@Microsoft@@QAE_NABV0123@@Z
  ??PVersion@ngeo@Microsoft@@QBE_NABV012@@Z="C:\Windows\SysWOW64\MapRouter".??PVersion@ngeo@Microsoft@@QBE_NABV012@@Z
  ??Piterator@RouteElements@ngeo@Microsoft@@QAE_NABV0123@@Z="C:\Windows\SysWOW64\MapRouter".??Piterator@RouteElements@ngeo@Microsoft@@QAE_NABV0123@@Z
  ??_7BaseEngine@nmacore@Microsoft@@6B@="C:\Windows\SysWOW64\MapRouter".??_7BaseEngine@nmacore@Microsoft@@6B@
  ??_7BufferInputStream@nmacore@Microsoft@@6B@="C:\Windows\SysWOW64\MapRouter".??_7BufferInputStream@nmacore@Microsoft@@6B@
  ??_7BufferOutputStream@nmacore@Microsoft@@6B@="C:\Windows\SysWOW64\MapRouter".??_7BufferOutputStream@nmacore@Microsoft@@6B@
  ??_7DriveSimulator@nmacore@Microsoft@@6BBaseEngine@12@@="C:\Windows\SysWOW64\MapRouter".??_7DriveSimulator@nmacore@Microsoft@@6BBaseEngine@12@@
  ??_7DriveSimulator@nmacore@Microsoft@@6BLocationSourceListener@ngeo@2@@="C:\Windows\SysWOW64\MapRouter".??_7DriveSimulator@nmacore@Microsoft@@6BLocationSourceListener@ngeo@2@@
  ??_7GeoArea@ngeo@Microsoft@@6B@="C:\Windows\SysWOW64\MapRouter".??_7GeoArea@ngeo@Microsoft@@6B@
  ??_7GeoCoordinates@ngeo@Microsoft@@6B@="C:\Windows\SysWOW64\MapRouter".??_7GeoCoordinates@ngeo@Microsoft@@6B@
  ??_7GeoPolygon@ngeo@Microsoft@@6B@="C:\Windows\SysWOW64\MapRouter".??_7GeoPolygon@ngeo@Microsoft@@6B@
  ??_7GeoPolyline@ngeo@Microsoft@@6B@="C:\Windows\SysWOW64\MapRouter".??_7GeoPolyline@ngeo@Microsoft@@6B@
  ??_7GeoRect@ngeo@Microsoft@@6BGeoArea@12@@="C:\Windows\SysWOW64\MapRouter".??_7GeoRect@ngeo@Microsoft@@6BGeoArea@12@@
  ??_7GeoRect@ngeo@Microsoft@@6BIGeoRect@msngeo@@@="C:\Windows\SysWOW64\MapRouter".??_7GeoRect@ngeo@Microsoft@@6BIGeoRect@msngeo@@@
  ??_7Guidance@nmacore@Microsoft@@6B@="C:\Windows\SysWOW64\MapRouter".??_7Guidance@nmacore@Microsoft@@6B@
  ??_7Guidance@nmacore@Microsoft@@6BGuidanceListener@ngeo@2@@="C:\Windows\SysWOW64\MapRouter".??_7Guidance@nmacore@Microsoft@@6BGuidanceListener@ngeo@2@@
  ??_7Guidance@nmacore@Microsoft@@6BSpeedWarnerListener@ngeo@2@@="C:\Windows\SysWOW64\MapRouter".??_7Guidance@nmacore@Microsoft@@6BSpeedWarnerListener@ngeo@2@@
  ??_7Guidance@nmacore@Microsoft@@6BTrafficWarnerListener@ngeo@2@@="C:\Windows\SysWOW64\MapRouter".??_7Guidance@nmacore@Microsoft@@6BTrafficWarnerListener@ngeo@2@@
  ??_7GuidanceListener@ngeo@Microsoft@@6B@="C:\Windows\SysWOW64\MapRouter".??_7GuidanceListener@ngeo@Microsoft@@6B@
  ??_7GuidanceVisualizer@nmacore@Microsoft@@6B@="C:\Windows\SysWOW64\MapRouter".??_7GuidanceVisualizer@nmacore@Microsoft@@6B@
  ??_7ICompass@nmacore@Microsoft@@6B@="C:\Windows\SysWOW64\MapRouter".??_7ICompass@nmacore@Microsoft@@6B@
  ??_7IGeoCoordinates@msngeo@@6B@="C:\Windows\SysWOW64\MapRouter".??_7IGeoCoordinates@msngeo@@6B@
  ??_7IGeoRect@msngeo@@6B@="C:\Windows\SysWOW64\MapRouter".??_7IGeoRect@msngeo@@6B@
  ??_7IGuidanceListener@nmacore@Microsoft@@6B@="C:\Windows\SysWOW64\MapRouter".??_7IGuidanceListener@nmacore@Microsoft@@6B@
  ??_7IItineraryWarning@msnma@@6B@="C:\Windows\SysWOW64\MapRouter".??_7IItineraryWarning@msnma@@6B@
  ??_7IItineraryWarningAttributes@msngeo@@6B@="C:\Windows\SysWOW64\MapRouter".??_7IItineraryWarningAttributes@msngeo@@6B@
  ??_7IItineraryWarningAttributes@msnma@@6B@="C:\Windows\SysWOW64\MapRouter".??_7IItineraryWarningAttributes@msnma@@6B@
  ??_7IItineraryWarningDivChange@msnma@@6B@="C:\Windows\SysWOW64\MapRouter".??_7IItineraryWarningDivChange@msnma@@6B@
  ??_7IItineraryWarningTraffic@msngeo@@6B@="C:\Windows\SysWOW64\MapRouter".??_7IItineraryWarningTraffic@msngeo@@6B@
  ??_7IItineraryWarningTraffic@msnma@@6B@="C:\Windows\SysWOW64\MapRouter".??_7IItineraryWarningTraffic@msnma@@6B@
  ??_7IManeuver@msnma@@6B@="C:\Windows\SysWOW64\MapRouter".??_7IManeuver@msnma@@6B@
  ??_7IPositioning@nmacore@Microsoft@@6B@="C:\Windows\SysWOW64\MapRouter".??_7IPositioning@nmacore@Microsoft@@6B@
  ??_7IPositioningObserver@nmacore@Microsoft@@6B@="C:\Windows\SysWOW64\MapRouter".??_7IPositioningObserver@nmacore@Microsoft@@6B@
  ??_7IRoute@msnma@@6B@="C:\Windows\SysWOW64\MapRouter".??_7IRoute@msnma@@6B@
  ??_7IRouterEngineListener@nmacore@Microsoft@@6B@="C:\Windows\SysWOW64\MapRouter".??_7IRouterEngineListener@nmacore@Microsoft@@6B@
  ??_7ISignpost@msngeo@@6B@="C:\Windows\SysWOW64\MapRouter".??_7ISignpost@msngeo@@6B@
  ??_7ITimerObserver@msnma@@6B@="C:\Windows\SysWOW64\MapRouter".??_7ITimerObserver@msnma@@6B@
  ??_7ITimerSource@msnma@@6B@="C:\Windows\SysWOW64\MapRouter".??_7ITimerSource@msnma@@6B@
  ??_7ItineraryWarning@ngeo@Microsoft@@6B@="C:\Windows\SysWOW64\MapRouter".??_7ItineraryWarning@ngeo@Microsoft@@6B@
  ??_7ItineraryWarning@nmacore@Microsoft@@6B@="C:\Windows\SysWOW64\MapRouter".??_7ItineraryWarning@nmacore@Microsoft@@6B@
  ??_7ItineraryWarningAdminDivChange@ngeo@Microsoft@@6B@="C:\Windows\SysWOW64\MapRouter".??_7ItineraryWarningAdminDivChange@ngeo@Microsoft@@6B@
  ??_7ItineraryWarningAttributes@ngeo@Microsoft@@6B@="C:\Windows\SysWOW64\MapRouter".??_7ItineraryWarningAttributes@ngeo@Microsoft@@6B@
  ??_7ItineraryWarningAttributes@nmacore@Microsoft@@6B@="C:\Windows\SysWOW64\MapRouter".??_7ItineraryWarningAttributes@nmacore@Microsoft@@6B@
  ??_7ItineraryWarningDivChange@nmacore@Microsoft@@6B@="C:\Windows\SysWOW64\MapRouter".??_7ItineraryWarningDivChange@nmacore@Microsoft@@6B@
  ??_7ItineraryWarningTraffic@ngeo@Microsoft@@6B@="C:\Windows\SysWOW64\MapRouter".??_7ItineraryWarningTraffic@ngeo@Microsoft@@6B@
  ??_7ItineraryWarningTraffic@nmacore@Microsoft@@6B@="C:\Windows\SysWOW64\MapRouter".??_7ItineraryWarningTraffic@nmacore@Microsoft@@6B@
  ??_7ItineraryWarningVisitor@ngeo@Microsoft@@6B@="C:\Windows\SysWOW64\MapRouter".??_7ItineraryWarningVisitor@ngeo@Microsoft@@6B@
  ??_7Location@ngeo@Microsoft@@6B@="C:\Windows\SysWOW64\MapRouter".??_7Location@ngeo@Microsoft@@6B@
  ??_7LocationSourceListener@ngeo@Microsoft@@6B@="C:\Windows\SysWOW64\MapRouter".??_7LocationSourceListener@ngeo@Microsoft@@6B@
  ??_7Maneuver@nmacore@Microsoft@@6B@="C:\Windows\SysWOW64\MapRouter".??_7Maneuver@nmacore@Microsoft@@6B@
  ??_7MapMatchedLocation@ngeo@Microsoft@@6B@="C:\Windows\SysWOW64\MapRouter".??_7MapMatchedLocation@ngeo@Microsoft@@6B@
  ??_7MapMatcherListener@ngeo@Microsoft@@6B@="C:\Windows\SysWOW64\MapRouter".??_7MapMatcherListener@ngeo@Microsoft@@6B@
  ??_7MapMatcherProxy@nmacore@Microsoft@@6B@="C:\Windows\SysWOW64\MapRouter".??_7MapMatcherProxy@nmacore@Microsoft@@6B@
  ??_7Poller@nmacore@Microsoft@@6B@="C:\Windows\SysWOW64\MapRouter".??_7Poller@nmacore@Microsoft@@6B@
  ??_7ProxyObject@ngeo@Microsoft@@6B@="C:\Windows\SysWOW64\MapRouter".??_7ProxyObject@ngeo@Microsoft@@6B@
  ??_7RefCountable@internal@ngeo@Microsoft@@6B@="C:\Windows\SysWOW64\MapRouter".??_7RefCountable@internal@ngeo@Microsoft@@6B@
  ??_7RenderBuffer@ngeo@Microsoft@@6B@="C:\Windows\SysWOW64\MapRouter".??_7RenderBuffer@ngeo@Microsoft@@6B@
  ??_7Route@nmacore@Microsoft@@6B@="C:\Windows\SysWOW64\MapRouter".??_7Route@nmacore@Microsoft@@6B@
  ??_7RouteWaypoint@ngeo@Microsoft@@6B@="C:\Windows\SysWOW64\MapRouter".??_7RouteWaypoint@ngeo@Microsoft@@6B@
  ??_7RouterEngine@nmacore@Microsoft@@6BBaseEngine@12@@="C:\Windows\SysWOW64\MapRouter".??_7RouterEngine@nmacore@Microsoft@@6BBaseEngine@12@@
  ??_7RouterEngine@nmacore@Microsoft@@6BRouterListener@ngeo@2@@="C:\Windows\SysWOW64\MapRouter".??_7RouterEngine@nmacore@Microsoft@@6BRouterListener@ngeo@2@@
  ??_7RouterListener@ngeo@Microsoft@@6B@="C:\Windows\SysWOW64\MapRouter".??_7RouterListener@ngeo@Microsoft@@6B@
  ??_7Runtime@nmacore@Microsoft@@6B@="C:\Windows\SysWOW64\MapRouter".??_7Runtime@nmacore@Microsoft@@6B@
  ??_7Sensors@nmacore@Microsoft@@6BICompass@12@@="C:\Windows\SysWOW64\MapRouter".??_7Sensors@nmacore@Microsoft@@6BICompass@12@@
  ??_7Sensors@nmacore@Microsoft@@6BIPositioning@12@@="C:\Windows\SysWOW64\MapRouter".??_7Sensors@nmacore@Microsoft@@6BIPositioning@12@@
  ??_7Signpost@ngeo@Microsoft@@6B@="C:\Windows\SysWOW64\MapRouter".??_7Signpost@ngeo@Microsoft@@6B@
  ??_7SimpleGuidanceListener@naviplayer@Microsoft@@6BGuidanceListener@ngeo@2@@="C:\Windows\SysWOW64\MapRouter".??_7SimpleGuidanceListener@naviplayer@Microsoft@@6BGuidanceListener@ngeo@2@@
  ??_7SimpleGuidanceListener@naviplayer@Microsoft@@6BSpeedWarnerListener@ngeo@2@@="C:\Windows\SysWOW64\MapRouter".??_7SimpleGuidanceListener@naviplayer@Microsoft@@6BSpeedWarnerListener@ngeo@2@@
  ??_7SimpleGuidanceListener@naviplayer@Microsoft@@6BTrafficWarnerListener@ngeo@2@@="C:\Windows\SysWOW64\MapRouter".??_7SimpleGuidanceListener@naviplayer@Microsoft@@6BTrafficWarnerListener@ngeo@2@@
  ??_7SpeedWarnerListener@ngeo@Microsoft@@6B@="C:\Windows\SysWOW64\MapRouter".??_7SpeedWarnerListener@ngeo@Microsoft@@6B@
  ??_7Surface@ngeo@Microsoft@@6B@="C:\Windows\SysWOW64\MapRouter".??_7Surface@ngeo@Microsoft@@6B@
  ??_7Traffic@ngeo@Microsoft@@6B@="C:\Windows\SysWOW64\MapRouter".??_7Traffic@ngeo@Microsoft@@6B@
  ??_7TrafficEngine@nmacore@Microsoft@@6BBaseEngine@12@@="C:\Windows\SysWOW64\MapRouter".??_7TrafficEngine@nmacore@Microsoft@@6BBaseEngine@12@@
  ??_7TrafficEngine@nmacore@Microsoft@@6BTrafficListener@ngeo@2@@="C:\Windows\SysWOW64\MapRouter".??_7TrafficEngine@nmacore@Microsoft@@6BTrafficListener@ngeo@2@@
  ??_7TrafficEventObject@ngeo@Microsoft@@6B@="C:\Windows\SysWOW64\MapRouter".??_7TrafficEventObject@ngeo@Microsoft@@6B@
  ??_7TrafficListener@ngeo@Microsoft@@6B@="C:\Windows\SysWOW64\MapRouter".??_7TrafficListener@ngeo@Microsoft@@6B@
  ??_7TrafficVisitor@ngeo@Microsoft@@6B@="C:\Windows\SysWOW64\MapRouter".??_7TrafficVisitor@ngeo@Microsoft@@6B@
  ??_7TrafficWarnerListener@ngeo@Microsoft@@6B@="C:\Windows\SysWOW64\MapRouter".??_7TrafficWarnerListener@ngeo@Microsoft@@6B@
  ??_7TransitDatabase@nmacore@Microsoft@@6BBaseEngine@12@@="C:\Windows\SysWOW64\MapRouter".??_7TransitDatabase@nmacore@Microsoft@@6BBaseEngine@12@@
  ??_7TransitDatabase@nmacore@Microsoft@@6BTransitDatabaseListener@ngeo@2@@="C:\Windows\SysWOW64\MapRouter".??_7TransitDatabase@nmacore@Microsoft@@6BTransitDatabaseListener@ngeo@2@@
  ??_7TransitDatabaseListener@ngeo@Microsoft@@6B@="C:\Windows\SysWOW64\MapRouter".??_7TransitDatabaseListener@ngeo@Microsoft@@6B@
  ??_7TransitDatabaseListener@nmacore@Microsoft@@6B@="C:\Windows\SysWOW64\MapRouter".??_7TransitDatabaseListener@nmacore@Microsoft@@6B@
  ??_7TtsEngine@ngeo@Microsoft@@6B@="C:\Windows\SysWOW64\MapRouter".??_7TtsEngine@ngeo@Microsoft@@6B@
  ??_7TtsEngine@nmacore@Microsoft@@6BBaseEngine@12@@="C:\Windows\SysWOW64\MapRouter".??_7TtsEngine@nmacore@Microsoft@@6BBaseEngine@12@@
  ??_7TtsEngine@nmacore@Microsoft@@6BITtsEngine@12@@="C:\Windows\SysWOW64\MapRouter".??_7TtsEngine@nmacore@Microsoft@@6BITtsEngine@12@@
  ??_7TtsEngine@nmacore@Microsoft@@6BTtsListener@ngeo@2@@="C:\Windows\SysWOW64\MapRouter".??_7TtsEngine@nmacore@Microsoft@@6BTtsListener@ngeo@2@@
  ??_7TtsListener@ngeo@Microsoft@@6B@="C:\Windows\SysWOW64\MapRouter".??_7TtsListener@ngeo@Microsoft@@6B@
  ??_7ViewObject@ngeo@Microsoft@@6B@="C:\Windows\SysWOW64\MapRouter".??_7ViewObject@ngeo@Microsoft@@6B@
  ??_F?$ObjectHandle@VViewObject@ngeo@Microsoft@@$00@internal@ngeo@Microsoft@@QAEXXZ="C:\Windows\SysWOW64\MapRouter".??_F?$ObjectHandle@VViewObject@ngeo@Microsoft@@$00@internal@ngeo@Microsoft@@QAEXXZ
  ??_FProxyObjectHandle@ngeo@Microsoft@@QAEXXZ="C:\Windows\SysWOW64\MapRouter".??_FProxyObjectHandle@ngeo@Microsoft@@QAEXXZ
  ??_FSpeedWarnerOptions@ngeo@Microsoft@@QAEXXZ="C:\Windows\SysWOW64\MapRouter".??_FSpeedWarnerOptions@ngeo@Microsoft@@QAEXXZ
  ??_FVicinity@Traffic@ngeo@Microsoft@@QAEXXZ="C:\Windows\SysWOW64\MapRouter".??_FVicinity@Traffic@ngeo@Microsoft@@QAEXXZ
  ??_FViewObjectHandle@ngeo@Microsoft@@QAEXXZ="C:\Windows\SysWOW64\MapRouter".??_FViewObjectHandle@ngeo@Microsoft@@QAEXXZ
  ?AudioNotificationRequested@IGuidanceListener@nmacore@Microsoft@@UAEXW4AudioEvents@Guidance@23@ABV?$vector@V?$basic_string@GU?$char_traits@G@std@@V?$allocator@G@2@@std@@V?$allocator@V?$basic_string@GU?$char_traits@G@std@@V?$allocator@G@2@@std@@@2@@std@@ABV?$basic_string@GU?$char_traits@G@std@@V?$allocator@G@2@@7@@Z="C:\Windows\SysWOW64\MapRouter".?AudioNotificationRequested@IGuidanceListener@nmacore@Microsoft@@UAEXW4AudioEvents@Guidance@23@ABV?$vector@V?$basic_string@GU?$char_traits@G@std@@V?$allocator@G@2@@std@@V?$allocator@V?$basic_string@GU?$char_traits@G@std@@V?$allocator@G@2@@std@@@2@@std@@ABV?$basic_string@GU?$char_traits@G@std@@V?$allocator@G@2@@7@@Z
  ?CountryChanged@IGuidanceListener@nmacore@Microsoft@@UAEXABV?$basic_string@GU?$char_traits@G@std@@V?$allocator@G@2@@std@@0@Z="C:\Windows\SysWOW64\MapRouter".?CountryChanged@IGuidanceListener@nmacore@Microsoft@@UAEXABV?$basic_string@GU?$char_traits@G@std@@V?$allocator@G@2@@std@@0@Z
  ?DestinationReached@IGuidanceListener@nmacore@Microsoft@@UAEXXZ="C:\Windows\SysWOW64\MapRouter".?DestinationReached@IGuidanceListener@nmacore@Microsoft@@UAEXXZ
  ?GpsLost@IGuidanceListener@nmacore@Microsoft@@UAEXXZ="C:\Windows\SysWOW64\MapRouter".?GpsLost@IGuidanceListener@nmacore@Microsoft@@UAEXXZ
  ?GpsRestored@IGuidanceListener@nmacore@Microsoft@@UAEXXZ="C:\Windows\SysWOW64\MapRouter".?GpsRestored@IGuidanceListener@nmacore@Microsoft@@UAEXXZ
  ?GuidanceUpdated@IGuidanceListener@nmacore@Microsoft@@UAEXXZ="C:\Windows\SysWOW64\MapRouter".?GuidanceUpdated@IGuidanceListener@nmacore@Microsoft@@UAEXXZ
  ?INVALID_DISTANCE@Guidance@ngeo@Microsoft@@2_KB="C:\Windows\SysWOW64\MapRouter".?INVALID_DISTANCE@Guidance@ngeo@Microsoft@@2_KB
  ?INVALID_DISTANCE@TrafficNotificationInfo@ngeo@Microsoft@@2IB="C:\Windows\SysWOW64\MapRouter".?INVALID_DISTANCE@TrafficNotificationInfo@ngeo@Microsoft@@2IB
  ?INVALID_PENALTY@DynamicPenalty@ngeo@Microsoft@@2EB="C:\Windows\SysWOW64\MapRouter".?INVALID_PENALTY@DynamicPenalty@ngeo@Microsoft@@2EB
  ?INVALID_REQUEST_INTERVAL@SimpleGuidanceOptions@naviplayer@Microsoft@@2IB="C:\Windows\SysWOW64\MapRouter".?INVALID_REQUEST_INTERVAL@SimpleGuidanceOptions@naviplayer@Microsoft@@2IB
  ?INVALID_ROUTE_DURATION@Route@ngeo@Microsoft@@2IB="C:\Windows\SysWOW64\MapRouter".?INVALID_ROUTE_DURATION@Route@ngeo@Microsoft@@2IB
  ?INVALID_ROUTE_LENGTH@Route@ngeo@Microsoft@@2IB="C:\Windows\SysWOW64\MapRouter".?INVALID_ROUTE_LENGTH@Route@ngeo@Microsoft@@2IB
  ?INVALID_SIZE@TrafficVisitor@ngeo@Microsoft@@2IB="C:\Windows\SysWOW64\MapRouter".?INVALID_SIZE@TrafficVisitor@ngeo@Microsoft@@2IB
  ?INVALID_TIME@Guidance@ngeo@Microsoft@@2_KB="C:\Windows\SysWOW64\MapRouter".?INVALID_TIME@Guidance@ngeo@Microsoft@@2_KB
  ?INVALID_UNIX_TIMESTAMP@Guidance@ngeo@Microsoft@@2_JB="C:\Windows\SysWOW64\MapRouter".?INVALID_UNIX_TIMESTAMP@Guidance@ngeo@Microsoft@@2_JB
  ?LAST_STOPOVER@RoutePlan@ngeo@Microsoft@@2IB="C:\Windows\SysWOW64\MapRouter".?LAST_STOPOVER@RoutePlan@ngeo@Microsoft@@2IB
  ?LAST_WAYPOINT@RoutePlan@ngeo@Microsoft@@2IB="C:\Windows\SysWOW64\MapRouter".?LAST_WAYPOINT@RoutePlan@ngeo@Microsoft@@2IB
  ?LOCATION_ADDRESS@LocationType@ngeo@Microsoft@@3QBDB="C:\Windows\SysWOW64\MapRouter".?LOCATION_ADDRESS@LocationType@ngeo@Microsoft@@3QBDB
  ?LOCATION_POI@LocationType@ngeo@Microsoft@@3QBDB="C:\Windows\SysWOW64\MapRouter".?LOCATION_POI@LocationType@ngeo@Microsoft@@3QBDB
  ?LOCATION_SEARCH_CENTER@LocationMeta@ngeo@Microsoft@@3QBDB="C:\Windows\SysWOW64\MapRouter".?LOCATION_SEARCH_CENTER@LocationMeta@ngeo@Microsoft@@3QBDB
  ?LOCATION_STRING@LocationType@ngeo@Microsoft@@3QBDB="C:\Windows\SysWOW64\MapRouter".?LOCATION_STRING@LocationType@ngeo@Microsoft@@3QBDB
  ?LOCATION_WITH_DIDYOUMEAN_CORRECTION@LocationMeta@ngeo@Microsoft@@3QBDB="C:\Windows\SysWOW64\MapRouter".?LOCATION_WITH_DIDYOUMEAN_CORRECTION@LocationMeta@ngeo@Microsoft@@3QBDB
  ?LaneInfoHide@IGuidanceListener@nmacore@Microsoft@@UAEXABV?$vector@VLaneInfo@ngeo@Microsoft@@V?$allocator@VLaneInfo@ngeo@Microsoft@@@std@@@std@@@Z="C:\Windows\SysWOW64\MapRouter".?LaneInfoHide@IGuidanceListener@nmacore@Microsoft@@UAEXABV?$vector@VLaneInfo@ngeo@Microsoft@@V?$allocator@VLaneInfo@ngeo@Microsoft@@@std@@@std@@@Z
  ?LaneInfoShow@IGuidanceListener@nmacore@Microsoft@@UAEXABV?$vector@VLaneInfo@ngeo@Microsoft@@V?$allocator@VLaneInfo@ngeo@Microsoft@@@std@@@std@@@Z="C:\Windows\SysWOW64\MapRouter".?LaneInfoShow@IGuidanceListener@nmacore@Microsoft@@UAEXABV?$vector@VLaneInfo@ngeo@Microsoft@@V?$allocator@VLaneInfo@ngeo@Microsoft@@@std@@@std@@@Z
  ?MAX_EVENT_COUNT@StatRepository@nmacore@Microsoft@@2IB="C:\Windows\SysWOW64\MapRouter".?MAX_EVENT_COUNT@StatRepository@nmacore@Microsoft@@2IB
  ?MAX_EVENT_NAME_SIZE@StatRepository@nmacore@Microsoft@@2IB="C:\Windows\SysWOW64\MapRouter".?MAX_EVENT_NAME_SIZE@StatRepository@nmacore@Microsoft@@2IB
  ?ManeuverAvailable@IGuidanceListener@nmacore@Microsoft@@UAEXXZ="C:\Windows\SysWOW64\MapRouter".?ManeuverAvailable@IGuidanceListener@nmacore@Microsoft@@UAEXXZ
  ?NO_LOCATION_BUT_WITH_DIDYOUMEAN_GUESS@LocationMeta@ngeo@Microsoft@@3QBDB="C:\Windows\SysWOW64\MapRouter".?NO_LOCATION_BUT_WITH_DIDYOUMEAN_GUESS@LocationMeta@ngeo@Microsoft@@3QBDB
  ?NextManeuverUpdated@IGuidanceListener@nmacore@Microsoft@@UAEXXZ="C:\Windows\SysWOW64\MapRouter".?NextManeuverUpdated@IGuidanceListener@nmacore@Microsoft@@UAEXXZ
  ?RerouteBegin@IGuidanceListener@nmacore@Microsoft@@UAEXXZ="C:\Windows\SysWOW64\MapRouter".?RerouteBegin@IGuidanceListener@nmacore@Microsoft@@UAEXXZ
  ?RerouteEnd@IGuidanceListener@nmacore@Microsoft@@UAEXXZ="C:\Windows\SysWOW64\MapRouter".?RerouteEnd@IGuidanceListener@nmacore@Microsoft@@UAEXXZ
  ?RerouteFailed@IGuidanceListener@nmacore@Microsoft@@UAEXXZ="C:\Windows\SysWOW64\MapRouter".?RerouteFailed@IGuidanceListener@nmacore@Microsoft@@UAEXXZ
  ?RouteUpdated@IGuidanceListener@nmacore@Microsoft@@UAEXXZ="C:\Windows\SysWOW64\MapRouter".?RouteUpdated@IGuidanceListener@nmacore@Microsoft@@UAEXXZ
  ?START_DIRECTION_ANY@RouteOptions@nmacore@Microsoft@@2IA="C:\Windows\SysWOW64\MapRouter".?START_DIRECTION_ANY@RouteOptions@nmacore@Microsoft@@2IA
  ?SpeedExceededBegin@IGuidanceListener@nmacore@Microsoft@@UAEXABV?$basic_string@GU?$char_traits@G@std@@V?$allocator@G@2@@std@@H@Z="C:\Windows\SysWOW64\MapRouter".?SpeedExceededBegin@IGuidanceListener@nmacore@Microsoft@@UAEXABV?$basic_string@GU?$char_traits@G@std@@V?$allocator@G@2@@std@@H@Z
  ?SpeedExceededEnd@IGuidanceListener@nmacore@Microsoft@@UAEXABV?$basic_string@GU?$char_traits@G@std@@V?$allocator@G@2@@std@@H@Z="C:\Windows\SysWOW64\MapRouter".?SpeedExceededEnd@IGuidanceListener@nmacore@Microsoft@@UAEXABV?$basic_string@GU?$char_traits@G@std@@V?$allocator@G@2@@std@@H@Z
  ?StopoverReached@IGuidanceListener@nmacore@Microsoft@@UAEXABVRoutePlan@ngeo@3@I@Z="C:\Windows\SysWOW64\MapRouter".?StopoverReached@IGuidanceListener@nmacore@Microsoft@@UAEXABVRoutePlan@ngeo@3@I@Z
  ?TrafficEnableRoutingStateChanged@IGuidanceListener@nmacore@Microsoft@@UAEXXZ="C:\Windows\SysWOW64\MapRouter".?TrafficEnableRoutingStateChanged@IGuidanceListener@nmacore@Microsoft@@UAEXXZ
  ?TrafficEventNotification@IGuidanceListener@nmacore@Microsoft@@UAEXABV?$vector@VTrafficNotificationInfo@ngeo@Microsoft@@V?$allocator@VTrafficNotificationInfo@ngeo@Microsoft@@@std@@@std@@@Z="C:\Windows\SysWOW64\MapRouter".?TrafficEventNotification@IGuidanceListener@nmacore@Microsoft@@UAEXABV?$vector@VTrafficNotificationInfo@ngeo@Microsoft@@V?$allocator@VTrafficNotificationInfo@ngeo@Microsoft@@@std@@@std@@@Z
  ?TransitTypeToNgeo@RouteOptions@nmacore@Microsoft@@CG?AW4TransitType@ngeo@3@W44123@@Z="C:\Windows\SysWOW64\MapRouter".?TransitTypeToNgeo@RouteOptions@nmacore@Microsoft@@CG?AW4TransitType@ngeo@3@W44123@@Z
  ?UNLIMITED_CHANGES@TransitRouteOptions@ngeo@Microsoft@@2IB="C:\Windows\SysWOW64\MapRouter".?UNLIMITED_CHANGES@TransitRouteOptions@ngeo@Microsoft@@2IB
  ?WHOLE_ROUTE@Route@ngeo@Microsoft@@2IB="C:\Windows\SysWOW64\MapRouter".?WHOLE_ROUTE@Route@ngeo@Microsoft@@2IB
  ?abort@TransitDatabase@ngeo@Microsoft@@QAEXXZ="C:\Windows\SysWOW64\MapRouter".?abort@TransitDatabase@ngeo@Microsoft@@QAEXXZ
  ?activate_source@Traffic@ngeo@Microsoft@@QAE?AW4ErrorCode@errorcodes@msngeo@@ABVTrafficSource@23@@Z="C:\Windows\SysWOW64\MapRouter".?activate_source@Traffic@ngeo@Microsoft@@QAE?AW4ErrorCode@errorcodes@msngeo@@ABVTrafficSource@23@@Z
  ?activationDate@TrafficEvent@nmacore@Microsoft@@QBEIXZ="C:\Windows\SysWOW64\MapRouter".?activationDate@TrafficEvent@nmacore@Microsoft@@QBEIXZ
  ?addEngine@Poller@nmacore@Microsoft@@QAEXPAVBaseEngine@23@@Z="C:\Windows\SysWOW64\MapRouter".?addEngine@Poller@nmacore@Microsoft@@QAEXPAVBaseEngine@23@@Z
  ?addObserver@MapMatcherProxy@nmacore@Microsoft@@QAE_NPAVIMapMatcherProxyObserver@23@@Z="C:\Windows\SysWOW64\MapRouter".?addObserver@MapMatcherProxy@nmacore@Microsoft@@QAE_NPAVIMapMatcherProxyObserver@23@@Z
  ?addVisualizer@Guidance@nmacore@Microsoft@@QAEXPAVGuidanceVisualizer@23@@Z="C:\Windows\SysWOW64\MapRouter".?addVisualizer@Guidance@nmacore@Microsoft@@QAEXPAVGuidanceVisualizer@23@@Z
  ?addVisualizer@TrafficEngine@nmacore@Microsoft@@QAEXPAVTrafficVisualizer@23@@Z="C:\Windows\SysWOW64\MapRouter".?addVisualizer@TrafficEngine@nmacore@Microsoft@@QAEXPAVTrafficVisualizer@23@@Z
  ?add_area@DynamicPenalty@ngeo@Microsoft@@QAEXABVGeoPolygon@23@E@Z="C:\Windows\SysWOW64\MapRouter".?add_area@DynamicPenalty@ngeo@Microsoft@@QAEXABVGeoPolygon@23@E@Z
  ?add_head_to_mode@GuidanceOptions@ngeo@Microsoft@@QAEXW4HeadToFlags@123@@Z="C:\Windows\SysWOW64\MapRouter".?add_head_to_mode@GuidanceOptions@ngeo@Microsoft@@QAEXW4HeadToFlags@123@@Z
  ?add_listener@Guidance@ngeo@Microsoft@@QAEXPAVGuidanceListener@23@@Z="C:\Windows\SysWOW64\MapRouter".?add_listener@Guidance@ngeo@Microsoft@@QAEXPAVGuidanceListener@23@@Z
  ?add_listener@LocationSource@ngeo@Microsoft@@QAEXPAVLocationSourceListener@23@@Z="C:\Windows\SysWOW64\MapRouter".?add_listener@LocationSource@ngeo@Microsoft@@QAEXPAVLocationSourceListener@23@@Z
  ?add_listener@MapMatcher@ngeo@Microsoft@@QAEXPAVMapMatcherListener@23@@Z="C:\Windows\SysWOW64\MapRouter".?add_listener@MapMatcher@ngeo@Microsoft@@QAEXPAVMapMatcherListener@23@@Z
  ?add_listener@SimpleGuidance@naviplayer@Microsoft@@QAEXPAVSimpleGuidanceListener@23@@Z="C:\Windows\SysWOW64\MapRouter".?add_listener@SimpleGuidance@naviplayer@Microsoft@@QAEXPAVSimpleGuidanceListener@23@@Z
  ?add_listener@SpeedWarner@ngeo@Microsoft@@QAEXPAVSpeedWarnerListener@23@@Z="C:\Windows\SysWOW64\MapRouter".?add_listener@SpeedWarner@ngeo@Microsoft@@QAEXPAVSpeedWarnerListener@23@@Z
  ?add_listener@Traffic@ngeo@Microsoft@@QAEXPAVTrafficListener@23@@Z="C:\Windows\SysWOW64\MapRouter".?add_listener@Traffic@ngeo@Microsoft@@QAEXPAVTrafficListener@23@@Z
  ?add_listener@TrafficWarner@ngeo@Microsoft@@QAEXPAVTrafficWarnerListener@23@@Z="C:\Windows\SysWOW64\MapRouter".?add_listener@TrafficWarner@ngeo@Microsoft@@QAEXPAVTrafficWarnerListener@23@@Z
  ?add_listener@TtsEngine@ngeo@Microsoft@@QAEXPAVTtsListener@23@@Z="C:\Windows\SysWOW64\MapRouter".?add_listener@TtsEngine@ngeo@Microsoft@@QAEXPAVTtsListener@23@@Z
  ?add_listener@VoiceSkin@ngeo@Microsoft@@QAE?AW4ErrorCode@errorcodes@msngeo@@PAVVoiceSkinListener@23@@Z="C:\Windows\SysWOW64\MapRouter".?add_listener@VoiceSkin@ngeo@Microsoft@@QAE?AW4ErrorCode@errorcodes@msngeo@@PAVVoiceSkinListener@23@@Z
  ?affectedArea@TrafficEvent@nmacore@Microsoft@@QBE?AVGeoRect@ngeo@3@XZ="C:\Windows\SysWOW64\MapRouter".?affectedArea@TrafficEvent@nmacore@Microsoft@@QBE?AVGeoRect@ngeo@3@XZ
  ?affectedLength@TrafficEvent@nmacore@Microsoft@@QBEIXZ="C:\Windows\SysWOW64\MapRouter".?affectedLength@TrafficEvent@nmacore@Microsoft@@QBEIXZ
  ?affectedRoadElements@TrafficEvent@nmacore@Microsoft@@QAEABV?$map@VEdgeId@smart5@Microsoft@@W4DrivingDirection@ngeo@3@U?$less@VEdgeId@smart5@Microsoft@@@std@@V?$allocator@U?$pair@$$CBVEdgeId@smart5@Microsoft@@W4DrivingDirection@ngeo@3@@std@@@7@@std@@XZ="C:\Windows\SysWOW64\MapRouter".?affectedRoadElements@TrafficEvent@nmacore@Microsoft@@QAEABV?$map@VEdgeId@smart5@Microsoft@@W4DrivingDirection@ngeo@3@U?$less@VEdgeId@smart5@Microsoft@@@std@@V?$allocator@U?$pair@$$CBVEdgeId@smart5@Microsoft@@W4DrivingDirection@ngeo@3@@std@@@7@@std@@XZ
  ?affectedStreets@TrafficEvent@nmacore@Microsoft@@QBE?AV?$basic_string@GU?$char_traits@G@std@@V?$allocator@G@2@@std@@XZ="C:\Windows\SysWOW64\MapRouter".?affectedStreets@TrafficEvent@nmacore@Microsoft@@QBE?AV?$basic_string@GU?$char_traits@G@std@@V?$allocator@G@2@@std@@XZ
  ?allowOptionToBool@RouteOptions@nmacore@Microsoft@@CG_NI@Z="C:\Windows\SysWOW64\MapRouter".?allowOptionToBool@RouteOptions@nmacore@Microsoft@@CG_NI@Z
  ?alreadyRepeated@Guidance@nmacore@Microsoft@@ABE_NABVOutput@ngeo@3@@Z="C:\Windows\SysWOW64\MapRouter".?alreadyRepeated@Guidance@nmacore@Microsoft@@ABE_NABVOutput@ngeo@3@@Z
  ?append_interval@OperatingHours@ngeo@Microsoft@@QAE?AW4ErrorCode@errorcodes@msngeo@@W4DayOfWeek@123@ABVTimeInterval@23@@Z="C:\Windows\SysWOW64\MapRouter".?append_interval@OperatingHours@ngeo@Microsoft@@QAE?AW4ErrorCode@errorcodes@msngeo@@W4DayOfWeek@123@ABVTimeInterval@23@@Z
  ?are_points_valid@GeoPolyline@ngeo@Microsoft@@IBE_NXZ="C:\Windows\SysWOW64\MapRouter".?are_points_valid@GeoPolyline@ngeo@Microsoft@@IBE_NXZ
  ?back@RouteElements@ngeo@Microsoft@@QBE?AVRouteElement@23@XZ="C:\Windows\SysWOW64\MapRouter".?back@RouteElements@ngeo@Microsoft@@QBE?AVRouteElement@23@XZ
  ?bbox@GeoPolyline@ngeo@Microsoft@@UBE?AVGeoRect@23@XZ="C:\Windows\SysWOW64\MapRouter".?bbox@GeoPolyline@ngeo@Microsoft@@UBE?AVGeoRect@23@XZ
  ?bbox@GeoRect@ngeo@Microsoft@@UBE?AV123@XZ="C:\Windows\SysWOW64\MapRouter".?bbox@GeoRect@ngeo@Microsoft@@UBE?AV123@XZ
  ?begin@RouteElements@ngeo@Microsoft@@QBE?AViterator@123@XZ="C:\Windows\SysWOW64\MapRouter".?begin@RouteElements@ngeo@Microsoft@@QBE?AViterator@123@XZ
  ?beginAvoidTraffic@Guidance@nmacore@Microsoft@@QAE_NXZ="C:\Windows\SysWOW64\MapRouter".?beginAvoidTraffic@Guidance@nmacore@Microsoft@@QAE_NXZ
  ?begin_access_info_request@TransitDatabase@ngeo@Microsoft@@QAE?AW4ErrorCode@errorcodes@msngeo@@VEdgeId@smart5@3@PAVTransitDatabaseListener@23@@Z="C:\Windows\SysWOW64\MapRouter".?begin_access_info_request@TransitDatabase@ngeo@Microsoft@@QAE?AW4ErrorCode@errorcodes@msngeo@@VEdgeId@smart5@3@PAVTransitDatabaseListener@23@@Z
  ?begin_avoid_traffic@SimpleGuidance@naviplayer@Microsoft@@QAE?AW4ErrorCode@errorcodes@msngeo@@XZ="C:\Windows\SysWOW64\MapRouter".?begin_avoid_traffic@SimpleGuidance@naviplayer@Microsoft@@QAE?AW4ErrorCode@errorcodes@msngeo@@XZ
  ?begin_configure@TtsEngine@ngeo@Microsoft@@QAE?AW4ErrorCode@errorcodes@msngeo@@ABVVoiceSkin@23@@Z="C:\Windows\SysWOW64\MapRouter".?begin_configure@TtsEngine@ngeo@Microsoft@@QAE?AW4ErrorCode@errorcodes@msngeo@@ABVVoiceSkin@23@@Z
  ?begin_line_info_request@TransitDatabase@ngeo@Microsoft@@QAE?AW4ErrorCode@errorcodes@msngeo@@VEdgeId@smart5@3@PAVTransitDatabaseListener@23@@Z="C:\Windows\SysWOW64\MapRouter".?begin_line_info_request@TransitDatabase@ngeo@Microsoft@@QAE?AW4ErrorCode@errorcodes@msngeo@@VEdgeId@smart5@3@PAVTransitDatabaseListener@23@@Z
  ?begin_populate_traffic_availability_db@Traffic@ngeo@Microsoft@@QAE?AW4ErrorCode@errorcodes@msngeo@@XZ="C:\Windows\SysWOW64\MapRouter".?begin_populate_traffic_availability_db@Traffic@ngeo@Microsoft@@QAE?AW4ErrorCode@errorcodes@msngeo@@XZ
  ?begin_populate_traffic_db@Traffic@ngeo@Microsoft@@QAE?AW4ErrorCode@errorcodes@msngeo@@XZ="C:\Windows\SysWOW64\MapRouter".?begin_populate_traffic_db@Traffic@ngeo@Microsoft@@QAE?AW4ErrorCode@errorcodes@msngeo@@XZ
  ?begin_routing@Router@ngeo@Microsoft@@QAE?AW4ErrorCode@errorcodes@msngeo@@ABVRoutePlan@23@ABVDynamicPenalty@23@_NAAVRouterListener@23@@Z="C:\Windows\SysWOW64\MapRouter".?begin_routing@Router@ngeo@Microsoft@@QAE?AW4ErrorCode@errorcodes@msngeo@@ABVRoutePlan@23@ABVDynamicPenalty@23@_NAAVRouterListener@23@@Z
  ?begin_stop_info_request@TransitDatabase@ngeo@Microsoft@@QAE?AW4ErrorCode@errorcodes@msngeo@@VEdgeId@smart5@3@PAVTransitDatabaseListener@23@@Z="C:\Windows\SysWOW64\MapRouter".?begin_stop_info_request@TransitDatabase@ngeo@Microsoft@@QAE?AW4ErrorCode@errorcodes@msngeo@@VEdgeId@smart5@3@PAVTransitDatabaseListener@23@@Z
  ?begin_stop_info_search@TransitDatabase@ngeo@Microsoft@@QAE?AW4ErrorCode@errorcodes@msngeo@@ABVGeoArea@23@PAVTransitDatabaseListener@23@@Z="C:\Windows\SysWOW64\MapRouter".?begin_stop_info_search@TransitDatabase@ngeo@Microsoft@@QAE?AW4ErrorCode@errorcodes@msngeo@@ABVGeoArea@23@PAVTransitDatabaseListener@23@@Z
  ?begin_synthesize@TtsEngine@ngeo@Microsoft@@QAE?AW4ErrorCode@errorcodes@msngeo@@ABV?$basic_string@GU?$char_traits@G@std@@V?$allocator@G@2@@std@@@Z="C:\Windows\SysWOW64\MapRouter".?begin_synthesize@TtsEngine@ngeo@Microsoft@@QAE?AW4ErrorCode@errorcodes@msngeo@@ABV?$basic_string@GU?$char_traits@G@std@@V?$allocator@G@2@@std@@@Z
  ?begin_system_info_request@TransitDatabase@ngeo@Microsoft@@QAE?AW4ErrorCode@errorcodes@msngeo@@VEdgeId@smart5@3@PAVTransitDatabaseListener@23@@Z="C:\Windows\SysWOW64\MapRouter".?begin_system_info_request@TransitDatabase@ngeo@Microsoft@@QAE?AW4ErrorCode@errorcodes@msngeo@@VEdgeId@smart5@3@PAVTransitDatabaseListener@23@@Z
  ?begin_update_traffic@Traffic@ngeo@Microsoft@@QAE?AW4ErrorCode@errorcodes@msngeo@@ABUVicinity@123@@Z="C:\Windows\SysWOW64\MapRouter".?begin_update_traffic@Traffic@ngeo@Microsoft@@QAE?AW4ErrorCode@errorcodes@msngeo@@ABUVicinity@123@@Z
  ?begin_update_traffic@Traffic@ngeo@Microsoft@@QAE?AW4ErrorCode@errorcodes@msngeo@@ABV?$vector@UVicinity@Traffic@ngeo@Microsoft@@V?$allocator@UVicinity@Traffic@ngeo@Microsoft@@@std@@@std@@@Z="C:\Windows\SysWOW64\MapRouter".?begin_update_traffic@Traffic@ngeo@Microsoft@@QAE?AW4ErrorCode@errorcodes@msngeo@@ABV?$vector@UVicinity@Traffic@ngeo@Microsoft@@V?$allocator@UVicinity@Traffic@ngeo@Microsoft@@@std@@@std@@@Z
  ?begin_update_traffic@Traffic@ngeo@Microsoft@@QAE?AW4ErrorCode@errorcodes@msngeo@@ABVRoute@23@@Z="C:\Windows\SysWOW64\MapRouter".?begin_update_traffic@Traffic@ngeo@Microsoft@@QAE?AW4ErrorCode@errorcodes@msngeo@@ABVRoute@23@@Z
  ?begin_update_traffic@Traffic@ngeo@Microsoft@@QAE?AW4ErrorCode@errorcodes@msngeo@@ABVRoute@23@I@Z="C:\Windows\SysWOW64\MapRouter".?begin_update_traffic@Traffic@ngeo@Microsoft@@QAE?AW4ErrorCode@errorcodes@msngeo@@ABVRoute@23@I@Z
  ?black@Color@ngeo@Microsoft@@SGABV123@XZ="C:\Windows\SysWOW64\MapRouter".?black@Color@ngeo@Microsoft@@SGABV123@XZ
  ?blue@Color@ngeo@Microsoft@@SGABV123@XZ="C:\Windows\SysWOW64\MapRouter".?blue@Color@ngeo@Microsoft@@SGABV123@XZ
  ?boolToAllowOption@RouteOptions@nmacore@Microsoft@@CG?AW4FeatureWeight@1ngeo@3@_N@Z="C:\Windows\SysWOW64\MapRouter".?boolToAllowOption@RouteOptions@nmacore@Microsoft@@CG?AW4FeatureWeight@1ngeo@3@_N@Z
  ?bottom_right@GeoRect@ngeo@Microsoft@@UBEABVIGeoCoordinates@msngeo@@XZ="C:\Windows\SysWOW64\MapRouter".?bottom_right@GeoRect@ngeo@Microsoft@@UBEABVIGeoCoordinates@msngeo@@XZ
  ?calculate@RouterEngine@nmacore@Microsoft@@QAE?AW4TErrorCode@@ABVRoutePlan@ngeo@3@ABVDynamicPenalty@63@@Z="C:\Windows\SysWOW64\MapRouter".?calculate@RouterEngine@nmacore@Microsoft@@QAE?AW4TErrorCode@@ABVRoutePlan@ngeo@3@ABVDynamicPenalty@63@@Z
  ?calculateEstimatedPosition@MapMatcherProxy@nmacore@Microsoft@@QAE?AVMapMatchedLocation@ngeo@3@XZ="C:\Windows\SysWOW64\MapRouter".?calculateEstimatedPosition@MapMatcherProxy@nmacore@Microsoft@@QAE?AVMapMatchedLocation@ngeo@3@XZ
  ?callRoutingDone@RouterEngine@nmacore@Microsoft@@AAEXW4TErrorCode@@PAVRoute@23@@Z="C:\Windows\SysWOW64\MapRouter".?callRoutingDone@RouterEngine@nmacore@Microsoft@@AAEXW4TErrorCode@@PAVRoute@23@@Z
  ?cancel@RouterEngine@nmacore@Microsoft@@QAEXXZ="C:\Windows\SysWOW64\MapRouter".?cancel@RouterEngine@nmacore@Microsoft@@QAEXXZ
  ?cancel@TransitDatabase@nmacore@Microsoft@@QAEXXZ="C:\Windows\SysWOW64\MapRouter".?cancel@TransitDatabase@nmacore@Microsoft@@QAEXXZ
  ?cancel@TtsEngine@ngeo@Microsoft@@QAE?AW4ErrorCode@errorcodes@msngeo@@XZ="C:\Windows\SysWOW64\MapRouter".?cancel@TtsEngine@ngeo@Microsoft@@QAE?AW4ErrorCode@errorcodes@msngeo@@XZ
  ?cancel_routing@Router@ngeo@Microsoft@@QAE?AW4ErrorCode@errorcodes@msngeo@@XZ="C:\Windows\SysWOW64\MapRouter".?cancel_routing@Router@ngeo@Microsoft@@QAE?AW4ErrorCode@errorcodes@msngeo@@XZ
  ?class_type_id@GeoPolygon@ngeo@Microsoft@@SGHXZ="C:\Windows\SysWOW64\MapRouter".?class_type_id@GeoPolygon@ngeo@Microsoft@@SGHXZ
  ?class_type_id@GeoPolyline@ngeo@Microsoft@@SGHXZ="C:\Windows\SysWOW64\MapRouter".?class_type_id@GeoPolyline@ngeo@Microsoft@@SGHXZ
  ?class_type_id@GeoRect@ngeo@Microsoft@@SGHXZ="C:\Windows\SysWOW64\MapRouter".?class_type_id@GeoRect@ngeo@Microsoft@@SGHXZ
  ?class_type_id@ProxyObject@ngeo@Microsoft@@SGHXZ="C:\Windows\SysWOW64\MapRouter".?class_type_id@ProxyObject@ngeo@Microsoft@@SGHXZ
  ?class_type_id@TrafficEventObject@ngeo@Microsoft@@SGHXZ="C:\Windows\SysWOW64\MapRouter".?class_type_id@TrafficEventObject@ngeo@Microsoft@@SGHXZ
  ?clear@Guidance@ngeo@Microsoft@@QAEXXZ="C:\Windows\SysWOW64\MapRouter".?clear@Guidance@ngeo@Microsoft@@QAEXXZ
  ?clear@Guidance@nmacore@Microsoft@@QAEXXZ="C:\Windows\SysWOW64\MapRouter".?clear@Guidance@nmacore@Microsoft@@QAEXXZ
  ?clear@MapMatcher@ngeo@Microsoft@@QAEXXZ="C:\Windows\SysWOW64\MapRouter".?clear@MapMatcher@ngeo@Microsoft@@QAEXXZ
  ?clear@RouteElements@ngeo@Microsoft@@QAEXXZ="C:\Windows\SysWOW64\MapRouter".?clear@RouteElements@ngeo@Microsoft@@QAEXXZ
  ?clear@RoutePlan@ngeo@Microsoft@@QAEXXZ="C:\Windows\SysWOW64\MapRouter".?clear@RoutePlan@ngeo@Microsoft@@QAEXXZ
  ?clear@SimpleGuidance@naviplayer@Microsoft@@QAEXXZ="C:\Windows\SysWOW64\MapRouter".?clear@SimpleGuidance@naviplayer@Microsoft@@QAEXXZ
  ?clear@SpeedWarner@ngeo@Microsoft@@QAEXXZ="C:\Windows\SysWOW64\MapRouter".?clear@SpeedWarner@ngeo@Microsoft@@QAEXXZ
  ?clear@StatRepository@nmacore@Microsoft@@QAEXXZ="C:\Windows\SysWOW64\MapRouter".?clear@StatRepository@nmacore@Microsoft@@QAEXXZ
  ?clear@TrafficWarner@ngeo@Microsoft@@QAEXXZ="C:\Windows\SysWOW64\MapRouter".?clear@TrafficWarner@ngeo@Microsoft@@QAEXXZ
  ?clear@TtsEngine@ngeo@Microsoft@@QAE?AW4ErrorCode@errorcodes@msngeo@@XZ="C:\Windows\SysWOW64\MapRouter".?clear@TtsEngine@ngeo@Microsoft@@QAE?AW4ErrorCode@errorcodes@msngeo@@XZ
  ?clear@Version@ngeo@Microsoft@@QAEXXZ="C:\Windows\SysWOW64\MapRouter".?clear@Version@ngeo@Microsoft@@QAEXXZ
  ?clearCache@Runtime@nmacore@Microsoft@@QAEXXZ="C:\Windows\SysWOW64\MapRouter".?clearCache@Runtime@nmacore@Microsoft@@QAEXXZ
  ?clearEvents@TrafficEngine@nmacore@Microsoft@@QAEXXZ="C:\Windows\SysWOW64\MapRouter".?clearEvents@TrafficEngine@nmacore@Microsoft@@QAEXXZ
  ?clearLocalData@MapSensor@nmacore@Microsoft@@QAEXXZ="C:\Windows\SysWOW64\MapRouter".?clearLocalData@MapSensor@nmacore@Microsoft@@QAEXXZ
  ?clearQueue@TtsEngine@nmacore@Microsoft@@UAEXXZ="C:\Windows\SysWOW64\MapRouter".?clearQueue@TtsEngine@nmacore@Microsoft@@UAEXXZ
  ?clear_global@StatRepository@nmacore@Microsoft@@SGXXZ="C:\Windows\SysWOW64\MapRouter".?clear_global@StatRepository@nmacore@Microsoft@@SGXXZ
  ?clear_name_hint@RouteWaypoint@ngeo@Microsoft@@QAEXXZ="C:\Windows\SysWOW64\MapRouter".?clear_name_hint@RouteWaypoint@ngeo@Microsoft@@QAEXXZ
  ?clear_traffic_events@Traffic@ngeo@Microsoft@@QAE?AW4ErrorCode@errorcodes@msngeo@@XZ="C:\Windows\SysWOW64\MapRouter".?clear_traffic_events@Traffic@ngeo@Microsoft@@QAE?AW4ErrorCode@errorcodes@msngeo@@XZ
  ?compensate_output_latency@OutputEngine@ngeo@Microsoft@@QAEXI@Z="C:\Windows\SysWOW64\MapRouter".?compensate_output_latency@OutputEngine@ngeo@Microsoft@@QAEXI@Z
  ?consume_location@MapSensor@ngeo@Microsoft@@QAE?AW4ErrorCode@errorcodes@msngeo@@VLocation@23@@Z="C:\Windows\SysWOW64\MapRouter".?consume_location@MapSensor@ngeo@Microsoft@@QAE?AW4ErrorCode@errorcodes@msngeo@@VLocation@23@@Z
  ?contains@GeoPolygon@ngeo@Microsoft@@UBE_NABVGeoCoordinates@23@@Z="C:\Windows\SysWOW64\MapRouter".?contains@GeoPolygon@ngeo@Microsoft@@UBE_NABVGeoCoordinates@23@@Z
  ?contains@GeoPolyline@ngeo@Microsoft@@UBE_NABVGeoCoordinates@23@@Z="C:\Windows\SysWOW64\MapRouter".?contains@GeoPolyline@ngeo@Microsoft@@UBE_NABVGeoCoordinates@23@@Z
  ?contains@GeoRect@ngeo@Microsoft@@UBE_NABVGeoCoordinates@23@@Z="C:\Windows\SysWOW64\MapRouter".?contains@GeoRect@ngeo@Microsoft@@UBE_NABVGeoCoordinates@23@@Z
  ?contains@LanguageMapping@ngeo@Microsoft@@QBE_NABV?$basic_string@GU?$char_traits@G@std@@V?$allocator@G@2@@std@@@Z="C:\Windows\SysWOW64\MapRouter".?contains@LanguageMapping@ngeo@Microsoft@@QBE_NABV?$basic_string@GU?$char_traits@G@std@@V?$allocator@G@2@@std@@@Z
  ?contains@PhonemeMapping@ngeo@Microsoft@@QBE_NABV?$basic_string@GU?$char_traits@G@std@@V?$allocator@G@2@@std@@0@Z="C:\Windows\SysWOW64\MapRouter".?contains@PhonemeMapping@ngeo@Microsoft@@QBE_NABV?$basic_string@GU?$char_traits@G@std@@V?$allocator@G@2@@std@@0@Z
  ?contains@PhonemeMapping@ngeo@Microsoft@@QBE_NABVLanguageKeyValuePair@23@@Z="C:\Windows\SysWOW64\MapRouter".?contains@PhonemeMapping@ngeo@Microsoft@@QBE_NABVLanguageKeyValuePair@23@@Z
  ?contains@PixelRect@ngeo@Microsoft@@QBE_NABVPixelCoordinates@23@@Z="C:\Windows\SysWOW64\MapRouter".?contains@PixelRect@ngeo@Microsoft@@QBE_NABVPixelCoordinates@23@@Z
  ?convertTrafficCongestionType@Route@nmacore@Microsoft@@IBE?AW4TrafficCongestionType@IRoute@msnma@@W4TrafficCongestion@1ngeo@3@@Z="C:\Windows\SysWOW64\MapRouter".?convertTrafficCongestionType@Route@nmacore@Microsoft@@IBE?AW4TrafficCongestionType@IRoute@msnma@@W4TrafficCongestion@1ngeo@3@@Z
  ?convertViolatedOptions@RouterEngine@nmacore@Microsoft@@QAEHABV?$bitset@$08@std@@@Z="C:\Windows\SysWOW64\MapRouter".?convertViolatedOptions@RouterEngine@nmacore@Microsoft@@QAEHABV?$bitset@$08@std@@@Z
  ?copy@Maneuver@nmacore@Microsoft@@UBE?AV?$unique_ptr@VIManeuver@msnma@@U?$default_delete@VIManeuver@msnma@@@std@@@std@@XZ="C:\Windows\SysWOW64\MapRouter".?copy@Maneuver@nmacore@Microsoft@@UBE?AV?$unique_ptr@VIManeuver@msnma@@U?$default_delete@VIManeuver@msnma@@@std@@@std@@XZ
  ?copy@Route@nmacore@Microsoft@@UBE?AV?$unique_ptr@VIRoute@msnma@@U?$default_delete@VIRoute@msnma@@@std@@@std@@XZ="C:\Windows\SysWOW64\MapRouter".?copy@Route@nmacore@Microsoft@@UBE?AV?$unique_ptr@VIRoute@msnma@@U?$default_delete@VIRoute@msnma@@@std@@@std@@XZ
  ?copyFrom@ItineraryWarning@nmacore@Microsoft@@AAEXABV123@@Z="C:\Windows\SysWOW64\MapRouter".?copyFrom@ItineraryWarning@nmacore@Microsoft@@AAEXABV123@@Z
  ?create@TrafficEventObject@ngeo@Microsoft@@CG?AUProxyObjectHandle@23@ABVTrafficEvent@23@ABVGeoCoordinates@23@@Z="C:\Windows\SysWOW64\MapRouter".?create@TrafficEventObject@ngeo@Microsoft@@CG?AUProxyObjectHandle@23@ABVTrafficEvent@23@ABVGeoCoordinates@23@@Z
  ?createRoutingGridLoader@Runtime@nmacore@Microsoft@@UBE?AV?$PresentSharedPtr@$$CBVRoutingGridLoader@smart5@Microsoft@@@Core@@ABV?$PresentSharedPtr@$$CBVIGridLoader@MapControl@@@5@@Z="C:\Windows\SysWOW64\MapRouter".?createRoutingGridLoader@Runtime@nmacore@Microsoft@@UBE?AV?$PresentSharedPtr@$$CBVRoutingGridLoader@smart5@Microsoft@@@Core@@ABV?$PresentSharedPtr@$$CBVIGridLoader@MapControl@@@5@@Z
  ?create_impl@?$Pimpl@VGuidanceOptions@ngeo@Microsoft@@VGuidanceOptionsImpl@internal@23@@ngeo@Microsoft@@IAE?AW4ErrorCode@errorcodes@msngeo@@XZ="C:\Windows\SysWOW64\MapRouter".?create_impl@?$Pimpl@VGuidanceOptions@ngeo@Microsoft@@VGuidanceOptionsImpl@internal@23@@ngeo@Microsoft@@IAE?AW4ErrorCode@errorcodes@msngeo@@XZ
  ?create_impl@?$Pimpl@VLanguageKeyValuePair@ngeo@Microsoft@@VLanguageKeyValuePairImpl@internal@23@@ngeo@Microsoft@@IAE?AW4ErrorCode@errorcodes@msngeo@@XZ="C:\Windows\SysWOW64\MapRouter".?create_impl@?$Pimpl@VLanguageKeyValuePair@ngeo@Microsoft@@VLanguageKeyValuePairImpl@internal@23@@ngeo@Microsoft@@IAE?AW4ErrorCode@errorcodes@msngeo@@XZ
  ?create_impl@?$Pimpl@VLanguageMapping@ngeo@Microsoft@@VLanguageMappingImpl@internal@23@@ngeo@Microsoft@@IAE?AW4ErrorCode@errorcodes@msngeo@@XZ="C:\Windows\SysWOW64\MapRouter".?create_impl@?$Pimpl@VLanguageMapping@ngeo@Microsoft@@VLanguageMappingImpl@internal@23@@ngeo@Microsoft@@IAE?AW4ErrorCode@errorcodes@msngeo@@XZ
  ?create_impl@?$Pimpl@VManeuverVoiceInfo@ngeo@Microsoft@@VManeuverVoiceInfoImpl@internal@23@@ngeo@Microsoft@@IAE?AW4ErrorCode@errorcodes@msngeo@@XZ="C:\Windows\SysWOW64\MapRouter".?create_impl@?$Pimpl@VManeuverVoiceInfo@ngeo@Microsoft@@VManeuverVoiceInfoImpl@internal@23@@ngeo@Microsoft@@IAE?AW4ErrorCode@errorcodes@msngeo@@XZ
  ?create_impl@?$Pimpl@VMapMatcher@ngeo@Microsoft@@VMapMatcherImpl@internal@23@@ngeo@Microsoft@@IAE?AW4ErrorCode@errorcodes@msngeo@@XZ="C:\Windows\SysWOW64\MapRouter".?create_impl@?$Pimpl@VMapMatcher@ngeo@Microsoft@@VMapMatcherImpl@internal@23@@ngeo@Microsoft@@IAE?AW4ErrorCode@errorcodes@msngeo@@XZ
  ?create_impl@?$Pimpl@VMapMatcherOptions@ngeo@Microsoft@@VMapMatcherOptionsImpl@internal@23@@ngeo@Microsoft@@IAE?AW4ErrorCode@errorcodes@msngeo@@XZ="C:\Windows\SysWOW64\MapRouter".?create_impl@?$Pimpl@VMapMatcherOptions@ngeo@Microsoft@@VMapMatcherOptionsImpl@internal@23@@ngeo@Microsoft@@IAE?AW4ErrorCode@errorcodes@msngeo@@XZ
  ?create_impl@?$Pimpl@VNaturalGuidanceVoiceInfo@ngeo@Microsoft@@VNaturalGuidanceVoiceInfoImpl@internal@23@@ngeo@Microsoft@@IAE?AW4ErrorCode@errorcodes@msngeo@@XZ="C:\Windows\SysWOW64\MapRouter".?create_impl@?$Pimpl@VNaturalGuidanceVoiceInfo@ngeo@Microsoft@@VNaturalGuidanceVoiceInfoImpl@internal@23@@ngeo@Microsoft@@IAE?AW4ErrorCode@errorcodes@msngeo@@XZ
  ?create_impl@?$Pimpl@VPhonemeMapping@ngeo@Microsoft@@VPhonemeMappingImpl@internal@23@@ngeo@Microsoft@@IAE?AW4ErrorCode@errorcodes@msngeo@@XZ="C:\Windows\SysWOW64\MapRouter".?create_impl@?$Pimpl@VPhonemeMapping@ngeo@Microsoft@@VPhonemeMappingImpl@internal@23@@ngeo@Microsoft@@IAE?AW4ErrorCode@errorcodes@msngeo@@XZ
  ?create_impl@?$Pimpl@VSideOfDestinationVoiceInfo@ngeo@Microsoft@@VSideOfDestinationVoiceInfoImpl@internal@23@@ngeo@Microsoft@@IAE?AW4ErrorCode@errorcodes@msngeo@@XZ="C:\Windows\SysWOW64\MapRouter".?create_impl@?$Pimpl@VSideOfDestinationVoiceInfo@ngeo@Microsoft@@VSideOfDestinationVoiceInfoImpl@internal@23@@ngeo@Microsoft@@IAE?AW4ErrorCode@errorcodes@msngeo@@XZ
  ?create_impl@?$Pimpl@VSignpostLabelVoiceInfo@ngeo@Microsoft@@VSignpostLabelVoiceInfoImpl@internal@23@@ngeo@Microsoft@@IAE?AW4ErrorCode@errorcodes@msngeo@@XZ="C:\Windows\SysWOW64\MapRouter".?create_impl@?$Pimpl@VSignpostLabelVoiceInfo@ngeo@Microsoft@@VSignpostLabelVoiceInfoImpl@internal@23@@ngeo@Microsoft@@IAE?AW4ErrorCode@errorcodes@msngeo@@XZ
  ?create_impl@?$Pimpl@VSignpostVoiceInfo@ngeo@Microsoft@@VSignpostVoiceInfoImpl@internal@23@@ngeo@Microsoft@@IAE?AW4ErrorCode@errorcodes@msngeo@@XZ="C:\Windows\SysWOW64\MapRouter".?create_impl@?$Pimpl@VSignpostVoiceInfo@ngeo@Microsoft@@VSignpostVoiceInfoImpl@internal@23@@ngeo@Microsoft@@IAE?AW4ErrorCode@errorcodes@msngeo@@XZ
  ?create_impl@?$Pimpl@VStreetVoiceInfo@ngeo@Microsoft@@VStreetVoiceInfoImpl@internal@23@@ngeo@Microsoft@@IAE?AW4ErrorCode@errorcodes@msngeo@@XZ="C:\Windows\SysWOW64\MapRouter".?create_impl@?$Pimpl@VStreetVoiceInfo@ngeo@Microsoft@@VStreetVoiceInfoImpl@internal@23@@ngeo@Microsoft@@IAE?AW4ErrorCode@errorcodes@msngeo@@XZ
  ?create_impl@?$Pimpl@VVoiceCommandInfo@ngeo@Microsoft@@VVoiceCommandInfoImpl@internal@23@@ngeo@Microsoft@@IAE?AW4ErrorCode@errorcodes@msngeo@@XZ="C:\Windows\SysWOW64\MapRouter".?create_impl@?$Pimpl@VVoiceCommandInfo@ngeo@Microsoft@@VVoiceCommandInfoImpl@internal@23@@ngeo@Microsoft@@IAE?AW4ErrorCode@errorcodes@msngeo@@XZ
  ?create_impl@?$Pimpl@VVoiceSkin@ngeo@Microsoft@@VVoiceSkinImpl@internal@23@@ngeo@Microsoft@@IAE?AW4ErrorCode@errorcodes@msngeo@@XZ="C:\Windows\SysWOW64\MapRouter".?create_impl@?$Pimpl@VVoiceSkin@ngeo@Microsoft@@VVoiceSkinImpl@internal@23@@ngeo@Microsoft@@IAE?AW4ErrorCode@errorcodes@msngeo@@XZ
  ?create_source@Traffic@ngeo@Microsoft@@QAE?AW4ErrorCode@errorcodes@msngeo@@AAVTrafficSource@23@@Z="C:\Windows\SysWOW64\MapRouter".?create_source@Traffic@ngeo@Microsoft@@QAE?AW4ErrorCode@errorcodes@msngeo@@AAVTrafficSource@23@@Z
  ?create_tts_engine@TtsEngineFactory@ngeo@Microsoft@@SG?AV?$SharedPointer@VTtsEngine@ngeo@Microsoft@@$0A@@23@W4TtsEngineType@123@@Z="C:\Windows\SysWOW64\MapRouter".?create_tts_engine@TtsEngineFactory@ngeo@Microsoft@@SG?AV?$SharedPointer@VTtsEngine@ngeo@Microsoft@@$0A@@23@W4TtsEngineType@123@@Z
  ?current@DateTime@ngeo@Microsoft@@SG?AV123@XZ="C:\Windows\SysWOW64\MapRouter".?current@DateTime@ngeo@Microsoft@@SG?AV123@XZ
  ?currentLocation@Guidance@nmacore@Microsoft@@QBEABVMapMatchedLocation@ngeo@3@XZ="C:\Windows\SysWOW64\MapRouter".?currentLocation@Guidance@nmacore@Microsoft@@QBEABVMapMatchedLocation@ngeo@3@XZ
  ?decodingProgress@TrafficEngine@nmacore@Microsoft@@QBENXZ="C:\Windows\SysWOW64\MapRouter".?decodingProgress@TrafficEngine@nmacore@Microsoft@@QBENXZ
  ?decrement_ref_count@RefCountable@internal@ngeo@Microsoft@@QAEH_N@Z="C:\Windows\SysWOW64\MapRouter".?decrement_ref_count@RefCountable@internal@ngeo@Microsoft@@QAEH_N@Z
  ?deserialize@Maneuver@nmacore@Microsoft@@SGIAAVIInStream@msnma@@PAPAV123@@Z="C:\Windows\SysWOW64\MapRouter".?deserialize@Maneuver@nmacore@Microsoft@@SGIAAVIInStream@msnma@@PAPAV123@@Z
  ?deserialize@Route@nmacore@Microsoft@@SGIAAVIInStream@msnma@@PAPAV123@@Z="C:\Windows\SysWOW64\MapRouter".?deserialize@Route@nmacore@Microsoft@@SGIAAVIInStream@msnma@@PAPAV123@@Z
  ?destroy_source@Traffic@ngeo@Microsoft@@QAE?AW4ErrorCode@errorcodes@msngeo@@ABVTrafficSource@23@@Z="C:\Windows\SysWOW64\MapRouter".?destroy_source@Traffic@ngeo@Microsoft@@QAE?AW4ErrorCode@errorcodes@msngeo@@ABVTrafficSource@23@@Z
  ?disable@LocationSource@ngeo@Microsoft@@QAE_NXZ="C:\Windows\SysWOW64\MapRouter".?disable@LocationSource@ngeo@Microsoft@@QAE_NXZ
  ?dispatch@ItineraryWarningAdminDivChange@ngeo@Microsoft@@EBEXAAVItineraryWarningVisitor@23@@Z="C:\Windows\SysWOW64\MapRouter".?dispatch@ItineraryWarningAdminDivChange@ngeo@Microsoft@@EBEXAAVItineraryWarningVisitor@23@@Z
  ?dispatch@ItineraryWarningAttributes@ngeo@Microsoft@@EBEXAAVItineraryWarningVisitor@23@@Z="C:\Windows\SysWOW64\MapRouter".?dispatch@ItineraryWarningAttributes@ngeo@Microsoft@@EBEXAAVItineraryWarningVisitor@23@@Z
  ?dispatch@ItineraryWarningTraffic@ngeo@Microsoft@@EBEXAAVItineraryWarningVisitor@23@@Z="C:\Windows\SysWOW64\MapRouter".?dispatch@ItineraryWarningTraffic@ngeo@Microsoft@@EBEXAAVItineraryWarningVisitor@23@@Z
  ?distanceTo@TrafficEvent@nmacore@Microsoft@@QBEIABVGeoCoordinates@ngeo@3@@Z="C:\Windows\SysWOW64\MapRouter".?distanceTo@TrafficEvent@nmacore@Microsoft@@QBEIABVGeoCoordinates@ngeo@3@@Z
  ?doAddEngine@Poller@nmacore@Microsoft@@IAEXPAVBaseEngine@23@@Z="C:\Windows\SysWOW64\MapRouter".?doAddEngine@Poller@nmacore@Microsoft@@IAEXPAVBaseEngine@23@@Z
  ?doInit@Runtime@nmacore@Microsoft@@QAE?AW4TErrorCode@@ABV?$basic_string@GU?$char_traits@G@std@@V?$allocator@G@2@@std@@0@Z="C:\Windows\SysWOW64\MapRouter".?doInit@Runtime@nmacore@Microsoft@@QAE?AW4TErrorCode@@ABV?$basic_string@GU?$char_traits@G@std@@V?$allocator@G@2@@std@@0@Z
  ?doPollEngineNow@Poller@nmacore@Microsoft@@IAEXPAVBaseEngine@23@@Z="C:\Windows\SysWOW64\MapRouter".?doPollEngineNow@Poller@nmacore@Microsoft@@IAEXPAVBaseEngine@23@@Z
  ?doRemoveEngine@Poller@nmacore@Microsoft@@IAEXPAVBaseEngine@23@@Z="C:\Windows\SysWOW64\MapRouter".?doRemoveEngine@Poller@nmacore@Microsoft@@IAEXPAVBaseEngine@23@@Z
  ?doResumeAll@Poller@nmacore@Microsoft@@IAEXXZ="C:\Windows\SysWOW64\MapRouter".?doResumeAll@Poller@nmacore@Microsoft@@IAEXXZ
  ?doSuspendAll@Poller@nmacore@Microsoft@@IAEXXZ="C:\Windows\SysWOW64\MapRouter".?doSuspendAll@Poller@nmacore@Microsoft@@IAEXXZ
  ?empty@GeoPolyline@ngeo@Microsoft@@QBE_NXZ="C:\Windows\SysWOW64\MapRouter".?empty@GeoPolyline@ngeo@Microsoft@@QBE_NXZ
  ?enable@LocationSource@ngeo@Microsoft@@QAE_NXZ="C:\Windows\SysWOW64\MapRouter".?enable@LocationSource@ngeo@Microsoft@@QAE_NXZ
  ?enableTraffic@Guidance@nmacore@Microsoft@@QAEX_N@Z="C:\Windows\SysWOW64\MapRouter".?enableTraffic@Guidance@nmacore@Microsoft@@QAEX_N@Z
  ?end@RouteElements@ngeo@Microsoft@@QBE?AViterator@123@XZ="C:\Windows\SysWOW64\MapRouter".?end@RouteElements@ngeo@Microsoft@@QBE?AViterator@123@XZ
  ?enter@Mutex@ngeo@Microsoft@@QAEXXZ="C:\Windows\SysWOW64\MapRouter".?enter@Mutex@ngeo@Microsoft@@QAEXXZ
  ?enter@SharedMutex@ngeo@Microsoft@@QAEXXZ="C:\Windows\SysWOW64\MapRouter".?enter@SharedMutex@ngeo@Microsoft@@QAEXXZ
  ?estimatedSpeedLimit@TrafficEvent@nmacore@Microsoft@@QBEIXZ="C:\Windows\SysWOW64\MapRouter".?estimatedSpeedLimit@TrafficEvent@nmacore@Microsoft@@QBEIXZ
  ?eventCount@TrafficEngine@nmacore@Microsoft@@QBEIXZ="C:\Windows\SysWOW64\MapRouter".?eventCount@TrafficEngine@nmacore@Microsoft@@QBEIXZ
  ?eventText@TrafficEvent@nmacore@Microsoft@@QBE?AV?$basic_string@GU?$char_traits@G@std@@V?$allocator@G@2@@std@@XZ="C:\Windows\SysWOW64\MapRouter".?eventText@TrafficEvent@nmacore@Microsoft@@QBE?AV?$basic_string@GU?$char_traits@G@std@@V?$allocator@G@2@@std@@XZ
  ?exit@Mutex@ngeo@Microsoft@@QAEXXZ="C:\Windows\SysWOW64\MapRouter".?exit@Mutex@ngeo@Microsoft@@QAEXXZ
  ?exit@SharedMutex@ngeo@Microsoft@@QAEXXZ="C:\Windows\SysWOW64\MapRouter".?exit@SharedMutex@ngeo@Microsoft@@QAEXXZ
  ?fetchMosStatistics@StatRepository@nmacore@Microsoft@@QAEIXZ="C:\Windows\SysWOW64\MapRouter".?fetchMosStatistics@StatRepository@nmacore@Microsoft@@QAEIXZ
  ?findAllNextIntersections@Route@nmacore@Microsoft@@QBE?AW4TErrorCode@@ABVRoadElement@ngeo@3@AAV?$vector@VIntersection@Route@ngeo@Microsoft@@V?$allocator@VIntersection@Route@ngeo@Microsoft@@@std@@@std@@II@Z="C:\Windows\SysWOW64\MapRouter".?findAllNextIntersections@Route@nmacore@Microsoft@@QBE?AW4TErrorCode@@ABVRoadElement@ngeo@3@AAV?$vector@VIntersection@Route@ngeo@Microsoft@@V?$allocator@VIntersection@Route@ngeo@Microsoft@@@std@@@std@@II@Z
  ?findNextIntersection@Route@nmacore@Microsoft@@QBE?AW4TErrorCode@@ABVRoadElement@ngeo@3@AAVIntersection@163@II@Z="C:\Windows\SysWOW64\MapRouter".?findNextIntersection@Route@nmacore@Microsoft@@QBE?AW4TErrorCode@@ABVRoadElement@ngeo@3@AAVIntersection@163@II@Z
  ?findStopInfos@TransitDatabase@nmacore@Microsoft@@QAE?AW4TErrorCode@@ABVGeoArea@ngeo@3@AAV?$vector@VTransitStopInfo@ngeo@Microsoft@@V?$allocator@VTransitStopInfo@ngeo@Microsoft@@@std@@@std@@AAVTransitDatabaseListener@23@@Z="C:\Windows\SysWOW64\MapRouter".?findStopInfos@TransitDatabase@nmacore@Microsoft@@QAE?AW4TErrorCode@@ABVGeoArea@ngeo@3@AAV?$vector@VTransitStopInfo@ngeo@Microsoft@@V?$allocator@VTransitStopInfo@ngeo@Microsoft@@@std@@@std@@AAVTransitDatabaseListener@23@@Z
  ?findStopInfosCompleted@TransitDatabaseListener@nmacore@Microsoft@@UAEXW4TErrorCode@@@Z="C:\Windows\SysWOW64\MapRouter".?findStopInfosCompleted@TransitDatabaseListener@nmacore@Microsoft@@UAEXW4TErrorCode@@@Z
  ?find_all_next_intersections@Route@ngeo@Microsoft@@QBE?AW4ErrorCode@errorcodes@msngeo@@ABVRoadElement@23@AAV?$vector@VIntersection@Route@ngeo@Microsoft@@V?$allocator@VIntersection@Route@ngeo@Microsoft@@@std@@@std@@II@Z="C:\Windows\SysWOW64\MapRouter".?find_all_next_intersections@Route@ngeo@Microsoft@@QBE?AW4ErrorCode@errorcodes@msngeo@@ABVRoadElement@23@AAV?$vector@VIntersection@Route@ngeo@Microsoft@@V?$allocator@VIntersection@Route@ngeo@Microsoft@@@std@@@std@@II@Z
  ?find_next_intersection@Route@ngeo@Microsoft@@QBE?AW4ErrorCode@errorcodes@msngeo@@ABVRoadElement@23@AAVIntersection@123@II@Z="C:\Windows\SysWOW64\MapRouter".?find_next_intersection@Route@ngeo@Microsoft@@QBE?AW4ErrorCode@errorcodes@msngeo@@ABVRoadElement@23@AAVIntersection@123@II@Z
  ?firstAffectedStreet@TrafficEvent@nmacore@Microsoft@@QBE?AV?$basic_string@GU?$char_traits@G@std@@V?$allocator@G@2@@std@@XZ="C:\Windows\SysWOW64\MapRouter".?firstAffectedStreet@TrafficEvent@nmacore@Microsoft@@QBE?AV?$basic_string@GU?$char_traits@G@std@@V?$allocator@G@2@@std@@XZ
  ?flowEventCount@TrafficEngine@nmacore@Microsoft@@QBEIXZ="C:\Windows\SysWOW64\MapRouter".?flowEventCount@TrafficEngine@nmacore@Microsoft@@QBEIXZ
  ?forwardCompassCalibrationStateChangeToObserver@Sensors@nmacore@Microsoft@@AAEXW4TCompassCalibrationState@23@@Z="C:\Windows\SysWOW64\MapRouter".?forwardCompassCalibrationStateChangeToObserver@Sensors@nmacore@Microsoft@@AAEXW4TCompassCalibrationState@23@@Z
  ?forwardCompassHeadingUpdateToObservers@Sensors@nmacore@Microsoft@@AAEXW4TErrorCode@@H@Z="C:\Windows\SysWOW64\MapRouter".?forwardCompassHeadingUpdateToObservers@Sensors@nmacore@Microsoft@@AAEXW4TErrorCode@@H@Z
  ?forwardPositionUpdateToObservers@Sensors@nmacore@Microsoft@@AAEXW4TErrorCode@@ABVLocation@ngeo@3@@Z="C:\Windows\SysWOW64\MapRouter".?forwardPositionUpdateToObservers@Sensors@nmacore@Microsoft@@AAEXW4TErrorCode@@ABVLocation@ngeo@3@@Z
  ?forwardPositioningStatusChangeToObservers@Sensors@nmacore@Microsoft@@AAEXW4TPositioningStatus@23@@Z="C:\Windows\SysWOW64\MapRouter".?forwardPositioningStatusChangeToObservers@Sensors@nmacore@Microsoft@@AAEXW4TPositioningStatus@23@@Z
  ?fromNGeoSeverity@ItineraryWarningTraffic@nmacore@Microsoft@@CG?AW4TSeverity@IItineraryWarningTraffic@msnma@@W4Severity@5msngeo@@@Z="C:\Windows\SysWOW64\MapRouter".?fromNGeoSeverity@ItineraryWarningTraffic@nmacore@Microsoft@@CG?AW4TSeverity@IItineraryWarningTraffic@msnma@@W4Severity@5msngeo@@@Z
  ?fromNGeoType@ItineraryWarningTraffic@nmacore@Microsoft@@CG?AW4TIncident@IItineraryWarningTraffic@msnma@@W4IncidentType@5msngeo@@@Z="C:\Windows\SysWOW64\MapRouter".?fromNGeoType@ItineraryWarningTraffic@nmacore@Microsoft@@CG?AW4TIncident@IItineraryWarningTraffic@msnma@@W4IncidentType@5msngeo@@@Z
  ?fromSmart5Severity@ItineraryWarningTraffic@ngeo@Microsoft@@CG?AW4Severity@IItineraryWarningTraffic@msngeo@@W441smart5@3@@Z="C:\Windows\SysWOW64\MapRouter".?fromSmart5Severity@ItineraryWarningTraffic@ngeo@Microsoft@@CG?AW4Severity@IItineraryWarningTraffic@msngeo@@W441smart5@3@@Z
  ?fromSmart5Type@ItineraryWarningTraffic@ngeo@Microsoft@@CG?AW4IncidentType@IItineraryWarningTraffic@msngeo@@W441smart5@3@@Z="C:\Windows\SysWOW64\MapRouter".?fromSmart5Type@ItineraryWarningTraffic@ngeo@Microsoft@@CG?AW4IncidentType@IItineraryWarningTraffic@msngeo@@W441smart5@3@@Z
  ?fromStreets@TrafficEvent@nmacore@Microsoft@@QBE?AV?$basic_string@GU?$char_traits@G@std@@V?$allocator@G@2@@std@@XZ="C:\Windows\SysWOW64\MapRouter".?fromStreets@TrafficEvent@nmacore@Microsoft@@QBE?AV?$basic_string@GU?$char_traits@G@std@@V?$allocator@G@2@@std@@XZ
  ?front@RouteElements@ngeo@Microsoft@@QBE?AVRouteElement@23@XZ="C:\Windows\SysWOW64\MapRouter".?front@RouteElements@ngeo@Microsoft@@QBE?AVRouteElement@23@XZ
  ?get@LocationInfo@ngeo@Microsoft@@QBEABV?$basic_string@GU?$char_traits@G@std@@V?$allocator@G@2@@std@@W4Field@123@@Z="C:\Windows\SysWOW64\MapRouter".?get@LocationInfo@ngeo@Microsoft@@QBEABV?$basic_string@GU?$char_traits@G@std@@V?$allocator@G@2@@std@@W4Field@123@@Z
  ?getAction@Maneuver@nmacore@Microsoft@@UBEIXZ="C:\Windows\SysWOW64\MapRouter".?getAction@Maneuver@nmacore@Microsoft@@UBEIXZ
  ?getAdminName@ItineraryWarningDivChange@nmacore@Microsoft@@UBE?BV?$basic_string@GU?$char_traits@G@std@@V?$allocator@G@2@@std@@XZ="C:\Windows\SysWOW64\MapRouter".?getAdminName@ItineraryWarningDivChange@nmacore@Microsoft@@UBE?BV?$basic_string@GU?$char_traits@G@std@@V?$allocator@G@2@@std@@XZ
  ?getAfterNextManeuver@Guidance@nmacore@Microsoft@@QBE?AV?$unique_ptr@VManeuver@nmacore@Microsoft@@U?$default_delete@VManeuver@nmacore@Microsoft@@@std@@@std@@XZ="C:\Windows\SysWOW64\MapRouter".?getAfterNextManeuver@Guidance@nmacore@Microsoft@@QBE?AV?$unique_ptr@VManeuver@nmacore@Microsoft@@U?$default_delete@VManeuver@nmacore@Microsoft@@@std@@@std@@XZ
  ?getAfterNextManeuverDistance@Guidance@nmacore@Microsoft@@QBEHXZ="C:\Windows\SysWOW64\MapRouter".?getAfterNextManeuverDistance@Guidance@nmacore@Microsoft@@QBEHXZ
  ?getAllowBoatFerries@RouteOptions@nmacore@Microsoft@@QBE_NXZ="C:\Windows\SysWOW64\MapRouter".?getAllowBoatFerries@RouteOptions@nmacore@Microsoft@@QBE_NXZ
  ?getAllowDirtRoads@RouteOptions@nmacore@Microsoft@@QBE_NXZ="C:\Windows\SysWOW64\MapRouter".?getAllowDirtRoads@RouteOptions@nmacore@Microsoft@@QBE_NXZ
  ?getAllowHighways@RouteOptions@nmacore@Microsoft@@QBE_NXZ="C:\Windows\SysWOW64\MapRouter".?getAllowHighways@RouteOptions@nmacore@Microsoft@@QBE_NXZ
  ?getAllowParks@RouteOptions@nmacore@Microsoft@@QBE_NXZ="C:\Windows\SysWOW64\MapRouter".?getAllowParks@RouteOptions@nmacore@Microsoft@@QBE_NXZ
  ?getAllowRailFerries@RouteOptions@nmacore@Microsoft@@QBE_NXZ="C:\Windows\SysWOW64\MapRouter".?getAllowRailFerries@RouteOptions@nmacore@Microsoft@@QBE_NXZ
  ?getAllowTollRoads@RouteOptions@nmacore@Microsoft@@QBE_NXZ="C:\Windows\SysWOW64\MapRouter".?getAllowTollRoads@RouteOptions@nmacore@Microsoft@@QBE_NXZ
  ?getAllowTunnels@RouteOptions@nmacore@Microsoft@@QBE_NXZ="C:\Windows\SysWOW64\MapRouter".?getAllowTunnels@RouteOptions@nmacore@Microsoft@@QBE_NXZ
  ?getAlternativeRoutes@RouterEngine@nmacore@Microsoft@@QBEABV?$vector@U?$pair@VRoute@nmacore@Microsoft@@H@std@@V?$allocator@U?$pair@VRoute@nmacore@Microsoft@@H@std@@@2@@std@@XZ="C:\Windows\SysWOW64\MapRouter".?getAlternativeRoutes@RouterEngine@nmacore@Microsoft@@QBEABV?$vector@U?$pair@VRoute@nmacore@Microsoft@@H@std@@V?$allocator@U?$pair@VRoute@nmacore@Microsoft@@H@std@@@2@@std@@XZ
  ?getAngle@Maneuver@nmacore@Microsoft@@QBEIXZ="C:\Windows\SysWOW64\MapRouter".?getAngle@Maneuver@nmacore@Microsoft@@QBEIXZ
  ?getAudioOutputEvents@Guidance@nmacore@Microsoft@@QBEIXZ="C:\Windows\SysWOW64\MapRouter".?getAudioOutputEvents@Guidance@nmacore@Microsoft@@QBEIXZ
  ?getAvailability@TrafficEngine@nmacore@Microsoft@@QBE_NABV?$basic_string@GU?$char_traits@G@std@@V?$allocator@G@2@@std@@@Z="C:\Windows\SysWOW64\MapRouter".?getAvailability@TrafficEngine@nmacore@Microsoft@@QBE_NABV?$basic_string@GU?$char_traits@G@std@@V?$allocator@G@2@@std@@@Z
  ?getAvailability@TrafficEngine@nmacore@Microsoft@@QBE_NABVGeoCoordinates@ngeo@3@@Z="C:\Windows\SysWOW64\MapRouter".?getAvailability@TrafficEngine@nmacore@Microsoft@@QBE_NABVGeoCoordinates@ngeo@3@@Z
  ?getAverageSpeed@Guidance@nmacore@Microsoft@@QBENXZ="C:\Windows\SysWOW64\MapRouter".?getAverageSpeed@Guidance@nmacore@Microsoft@@QBENXZ
  ?getBingMapsKey@RouterEngine@nmacore@Microsoft@@SGABV?$basic_string@GU?$char_traits@G@std@@V?$allocator@G@2@@std@@XZ="C:\Windows\SysWOW64\MapRouter".?getBingMapsKey@RouterEngine@nmacore@Microsoft@@SGABV?$basic_string@GU?$char_traits@G@std@@V?$allocator@G@2@@std@@XZ
  ?getBoundingBox@Maneuver@nmacore@Microsoft@@QAEABVGeoRect@ngeo@3@XZ="C:\Windows\SysWOW64\MapRouter".?getBoundingBox@Maneuver@nmacore@Microsoft@@QAEABVGeoRect@ngeo@3@XZ
  ?getBoundingBox@Route@nmacore@Microsoft@@QAEABVIGeoRect@msngeo@@XZ="C:\Windows\SysWOW64\MapRouter".?getBoundingBox@Route@nmacore@Microsoft@@QAEABVIGeoRect@msngeo@@XZ
  ?getBoundingBox@Route@nmacore@Microsoft@@UAEABVGeoRect@ngeo@3@XZ="C:\Windows\SysWOW64\MapRouter".?getBoundingBox@Route@nmacore@Microsoft@@UAEABVGeoRect@ngeo@3@XZ
  ?getBuffer@BufferOutputStream@nmacore@Microsoft@@QAEXAAPAEAAI@Z="C:\Windows\SysWOW64\MapRouter".?getBuffer@BufferOutputStream@nmacore@Microsoft@@QAEXAAPAEAAI@Z
  ?getCalculationType@Route@nmacore@Microsoft@@UBE?AW4TCalculationType@IRoute@msnma@@XZ="C:\Windows\SysWOW64\MapRouter".?getCalculationType@Route@nmacore@Microsoft@@UBE?AW4TCalculationType@IRoute@msnma@@XZ
  ?getClosedList@Router@ngeo@Microsoft@@QAE?BV?$vector@VEdgeId@smart5@Microsoft@@V?$allocator@VEdgeId@smart5@Microsoft@@@std@@@std@@XZ="C:\Windows\SysWOW64\MapRouter".?getClosedList@Router@ngeo@Microsoft@@QAE?BV?$vector@VEdgeId@smart5@Microsoft@@V?$allocator@VEdgeId@smart5@Microsoft@@@std@@@std@@XZ
  ?getClosedList@RouterEngine@nmacore@Microsoft@@QAE?BV?$vector@VEdgeId@smart5@Microsoft@@V?$allocator@VEdgeId@smart5@Microsoft@@@std@@@std@@XZ="C:\Windows\SysWOW64\MapRouter".?getClosedList@RouterEngine@nmacore@Microsoft@@QAE?BV?$vector@VEdgeId@smart5@Microsoft@@V?$allocator@VEdgeId@smart5@Microsoft@@@std@@@std@@XZ
  ?getCompassCalibrationState@Sensors@nmacore@Microsoft@@EBE?AW4TCompassCalibrationState@23@XZ="C:\Windows\SysWOW64\MapRouter".?getCompassCalibrationState@Sensors@nmacore@Microsoft@@EBE?AW4TCompassCalibrationState@23@XZ
  ?getCompassHeading@Sensors@nmacore@Microsoft@@EAE?AW4TErrorCode@@AAH@Z="C:\Windows\SysWOW64\MapRouter".?getCompassHeading@Sensors@nmacore@Microsoft@@EAE?AW4TErrorCode@@AAH@Z
  ?getCountry@Guidance@nmacore@Microsoft@@QBE?AV?$basic_string@GU?$char_traits@G@std@@V?$allocator@G@2@@std@@XZ="C:\Windows\SysWOW64\MapRouter".?getCountry@Guidance@nmacore@Microsoft@@QBE?AV?$basic_string@GU?$char_traits@G@std@@V?$allocator@G@2@@std@@XZ
  ?getCountryName@ItineraryWarningDivChange@nmacore@Microsoft@@UBE?BV?$basic_string@GU?$char_traits@G@std@@V?$allocator@G@2@@std@@XZ="C:\Windows\SysWOW64\MapRouter".?getCountryName@ItineraryWarningDivChange@nmacore@Microsoft@@UBE?BV?$basic_string@GU?$char_traits@G@std@@V?$allocator@G@2@@std@@XZ
  ?getDescription@ItineraryWarningTraffic@ngeo@Microsoft@@QBEABV?$basic_string@GU?$char_traits@G@std@@V?$allocator@G@2@@std@@XZ="C:\Windows\SysWOW64\MapRouter".?getDescription@ItineraryWarningTraffic@ngeo@Microsoft@@QBEABV?$basic_string@GU?$char_traits@G@std@@V?$allocator@G@2@@std@@XZ
  ?getDescription@ItineraryWarningTraffic@nmacore@Microsoft@@UBEABV?$basic_string@GU?$char_traits@G@std@@V?$allocator@G@2@@std@@XZ="C:\Windows\SysWOW64\MapRouter".?getDescription@ItineraryWarningTraffic@nmacore@Microsoft@@UBEABV?$basic_string@GU?$char_traits@G@std@@V?$allocator@G@2@@std@@XZ
  ?getDestinationDistance@Guidance@nmacore@Microsoft@@QBEHXZ="C:\Windows\SysWOW64\MapRouter".?getDestinationDistance@Guidance@nmacore@Microsoft@@QBEHXZ
  ?getDistanceFromPreviousManeuver@Maneuver@nmacore@Microsoft@@UBEIXZ="C:\Windows\SysWOW64\MapRouter".?getDistanceFromPreviousManeuver@Maneuver@nmacore@Microsoft@@UBEIXZ
  ?getDistanceFromStart@Maneuver@nmacore@Microsoft@@QBEIXZ="C:\Windows\SysWOW64\MapRouter".?getDistanceFromStart@Maneuver@nmacore@Microsoft@@QBEIXZ
  ?getDistanceUnit@Guidance@nmacore@Microsoft@@QBEIXZ="C:\Windows\SysWOW64\MapRouter".?getDistanceUnit@Guidance@nmacore@Microsoft@@QBEIXZ
  ?getDuration@Route@nmacore@Microsoft@@UBEII@Z="C:\Windows\SysWOW64\MapRouter".?getDuration@Route@nmacore@Microsoft@@UBEII@Z
  ?getDuration@Route@nmacore@Microsoft@@UBEIXZ="C:\Windows\SysWOW64\MapRouter".?getDuration@Route@nmacore@Microsoft@@UBEIXZ
  ?getDurationWithTraffic@Route@nmacore@Microsoft@@UBEII@Z="C:\Windows\SysWOW64\MapRouter".?getDurationWithTraffic@Route@nmacore@Microsoft@@UBEII@Z
  ?getDurationWithTraffic@Route@nmacore@Microsoft@@UBEIXZ="C:\Windows\SysWOW64\MapRouter".?getDurationWithTraffic@Route@nmacore@Microsoft@@UBEIXZ
  ?getDurationWithoutTraffic@Route@nmacore@Microsoft@@UBEII@Z="C:\Windows\SysWOW64\MapRouter".?getDurationWithoutTraffic@Route@nmacore@Microsoft@@UBEII@Z
  ?getDurationWithoutTraffic@Route@nmacore@Microsoft@@UBEIXZ="C:\Windows\SysWOW64\MapRouter".?getDurationWithoutTraffic@Route@nmacore@Microsoft@@UBEIXZ
  ?getEdgeId@RoadElement@ngeo@Microsoft@@QBEABVEdgeId@smart5@3@XZ="C:\Windows\SysWOW64\MapRouter".?getEdgeId@RoadElement@ngeo@Microsoft@@QBEABVEdgeId@smart5@3@XZ
  ?getEdgeId@RouteElement@ngeo@Microsoft@@QBEABVEdgeId@smart5@3@XZ="C:\Windows\SysWOW64\MapRouter".?getEdgeId@RouteElement@ngeo@Microsoft@@QBEABVEdgeId@smart5@3@XZ
  ?getElapsedDistance@Guidance@nmacore@Microsoft@@QBEHXZ="C:\Windows\SysWOW64\MapRouter".?getElapsedDistance@Guidance@nmacore@Microsoft@@QBEHXZ
  ?getElapsedTime@Guidance@nmacore@Microsoft@@QBEHXZ="C:\Windows\SysWOW64\MapRouter".?getElapsedTime@Guidance@nmacore@Microsoft@@QBEHXZ
  ?getEndAngle@Maneuver@nmacore@Microsoft@@UBEIXZ="C:\Windows\SysWOW64\MapRouter".?getEndAngle@Maneuver@nmacore@Microsoft@@UBEIXZ
  ?getEndSegment@Maneuver@nmacore@Microsoft@@QBEIXZ="C:\Windows\SysWOW64\MapRouter".?getEndSegment@Maneuver@nmacore@Microsoft@@QBEIXZ
  ?getEngineId@DriveSimulator@nmacore@Microsoft@@MBE?AW4TEngineID@BaseEngine@23@XZ="C:\Windows\SysWOW64\MapRouter".?getEngineId@DriveSimulator@nmacore@Microsoft@@MBE?AW4TEngineID@BaseEngine@23@XZ
  ?getEngineId@Guidance@nmacore@Microsoft@@UBE?AW4TEngineID@BaseEngine@23@XZ="C:\Windows\SysWOW64\MapRouter".?getEngineId@Guidance@nmacore@Microsoft@@UBE?AW4TEngineID@BaseEngine@23@XZ
  ?getEngineId@RouterEngine@nmacore@Microsoft@@MBE?AW4TEngineID@BaseEngine@23@XZ="C:\Windows\SysWOW64\MapRouter".?getEngineId@RouterEngine@nmacore@Microsoft@@MBE?AW4TEngineID@BaseEngine@23@XZ
  ?getEngineId@TrafficEngine@nmacore@Microsoft@@EBE?AW4TEngineID@BaseEngine@23@XZ="C:\Windows\SysWOW64\MapRouter".?getEngineId@TrafficEngine@nmacore@Microsoft@@EBE?AW4TEngineID@BaseEngine@23@XZ
  ?getEngineId@TransitDatabase@nmacore@Microsoft@@EBE?AW4TEngineID@BaseEngine@23@XZ="C:\Windows\SysWOW64\MapRouter".?getEngineId@TransitDatabase@nmacore@Microsoft@@EBE?AW4TEngineID@BaseEngine@23@XZ
  ?getEngineId@TtsEngine@nmacore@Microsoft@@EBE?AW4TEngineID@BaseEngine@23@XZ="C:\Windows\SysWOW64\MapRouter".?getEngineId@TtsEngine@nmacore@Microsoft@@EBE?AW4TEngineID@BaseEngine@23@XZ
  ?getExitName@Maneuver@nmacore@Microsoft@@UBEABV?$basic_string@GU?$char_traits@G@std@@V?$allocator@G@2@@std@@XZ="C:\Windows\SysWOW64\MapRouter".?getExitName@Maneuver@nmacore@Microsoft@@UBEABV?$basic_string@GU?$char_traits@G@std@@V?$allocator@G@2@@std@@XZ
  ?getFallbackMode@RouterEngine@nmacore@Microsoft@@QBE?AW4TFallbackMode@123@XZ="C:\Windows\SysWOW64\MapRouter".?getFallbackMode@RouterEngine@nmacore@Microsoft@@QBE?AW4TFallbackMode@123@XZ
  ?getForceOnline@RouterEngine@nmacore@Microsoft@@QBE_NXZ="C:\Windows\SysWOW64\MapRouter".?getForceOnline@RouterEngine@nmacore@Microsoft@@QBE_NXZ
  ?getGeoCoordinates@Maneuver@nmacore@Microsoft@@UBEABVIGeoCoordinates@msngeo@@XZ="C:\Windows\SysWOW64\MapRouter".?getGeoCoordinates@Maneuver@nmacore@Microsoft@@UBEABVIGeoCoordinates@msngeo@@XZ
  ?getGuidance@Runtime@nmacore@Microsoft@@QAEPAVGuidance@23@XZ="C:\Windows\SysWOW64\MapRouter".?getGuidance@Runtime@nmacore@Microsoft@@QAEPAVGuidance@23@XZ
  ?getIcon@Maneuver@nmacore@Microsoft@@UBEIXZ="C:\Windows\SysWOW64\MapRouter".?getIcon@Maneuver@nmacore@Microsoft@@UBEIXZ
  ?getIconWstring@ManeuverUtil@naviplayer@Microsoft@@SGPBGW4IconId@123@@Z="C:\Windows\SysWOW64\MapRouter".?getIconWstring@ManeuverUtil@naviplayer@Microsoft@@SGPBGW4IconId@123@@Z
  ?getIncidentType@ItineraryWarningTraffic@ngeo@Microsoft@@QBE?AW4IncidentType@IItineraryWarningTraffic@msngeo@@XZ="C:\Windows\SysWOW64\MapRouter".?getIncidentType@ItineraryWarningTraffic@ngeo@Microsoft@@QBE?AW4IncidentType@IItineraryWarningTraffic@msngeo@@XZ
  ?getIncidentType@ItineraryWarningTraffic@nmacore@Microsoft@@UBE?AW4TIncident@IItineraryWarningTraffic@msnma@@XZ="C:\Windows\SysWOW64\MapRouter".?getIncidentType@ItineraryWarningTraffic@nmacore@Microsoft@@UBE?AW4TIncident@IItineraryWarningTraffic@msnma@@XZ
  ?getInstance@Runtime@nmacore@Microsoft@@SGAAV123@XZ="C:\Windows\SysWOW64\MapRouter".?getInstance@Runtime@nmacore@Microsoft@@SGAAV123@XZ
  ?getInstanceType@Route@nmacore@Microsoft@@UBE?AW4InstanceType@msnma@@XZ="C:\Windows\SysWOW64\MapRouter".?getInstanceType@Route@nmacore@Microsoft@@UBE?AW4InstanceType@msnma@@XZ
  ?getInstructionText@Maneuver@nmacore@Microsoft@@UBEABV?$basic_string@GU?$char_traits@G@std@@V?$allocator@G@2@@std@@XZ="C:\Windows\SysWOW64\MapRouter".?getInstructionText@Maneuver@nmacore@Microsoft@@UBEABV?$basic_string@GU?$char_traits@G@std@@V?$allocator@G@2@@std@@XZ
  ?getItineraryWarningAt@Maneuver@nmacore@Microsoft@@UAEABVIItineraryWarning@msnma@@I@Z="C:\Windows\SysWOW64\MapRouter".?getItineraryWarningAt@Maneuver@nmacore@Microsoft@@UAEABVIItineraryWarning@msnma@@I@Z
  ?getItineraryWarningAttributes@ItineraryWarning@nmacore@Microsoft@@UBEABVIItineraryWarningAttributes@msnma@@XZ="C:\Windows\SysWOW64\MapRouter".?getItineraryWarningAttributes@ItineraryWarning@nmacore@Microsoft@@UBEABVIItineraryWarningAttributes@msnma@@XZ
  ?getItineraryWarningCount@Maneuver@nmacore@Microsoft@@UAEIXZ="C:\Windows\SysWOW64\MapRouter".?getItineraryWarningCount@Maneuver@nmacore@Microsoft@@UAEIXZ
  ?getItineraryWarningDivChange@ItineraryWarning@nmacore@Microsoft@@UBEABVIItineraryWarningDivChange@msnma@@XZ="C:\Windows\SysWOW64\MapRouter".?getItineraryWarningDivChange@ItineraryWarning@nmacore@Microsoft@@UBEABVIItineraryWarningDivChange@msnma@@XZ
  ?getItineraryWarningTraffic@ItineraryWarning@nmacore@Microsoft@@UBEABVIItineraryWarningTraffic@msnma@@XZ="C:\Windows\SysWOW64\MapRouter".?getItineraryWarningTraffic@ItineraryWarning@nmacore@Microsoft@@UBEABVIItineraryWarningTraffic@msnma@@XZ
  ?getLanguage@RouteOptions@nmacore@Microsoft@@QBEABV?$basic_string@GU?$char_traits@G@std@@V?$allocator@G@2@@std@@XZ="C:\Windows\SysWOW64\MapRouter".?getLanguage@RouteOptions@nmacore@Microsoft@@QBEABV?$basic_string@GU?$char_traits@G@std@@V?$allocator@G@2@@std@@XZ
  ?getLastKnownPosition@Sensors@nmacore@Microsoft@@EAE?AW4TErrorCode@@AAVLocation@ngeo@3@@Z="C:\Windows\SysWOW64\MapRouter".?getLastKnownPosition@Sensors@nmacore@Microsoft@@EAE?AW4TErrorCode@@AAVLocation@ngeo@3@@Z
  ?getLastPosition@DriveSimulator@nmacore@Microsoft@@QAEABVLocation@ngeo@3@XZ="C:\Windows\SysWOW64\MapRouter".?getLastPosition@DriveSimulator@nmacore@Microsoft@@QAEABVLocation@ngeo@3@XZ
  ?getLength@Route@nmacore@Microsoft@@UBEII@Z="C:\Windows\SysWOW64\MapRouter".?getLength@Route@nmacore@Microsoft@@UBEII@Z
  ?getLength@Route@nmacore@Microsoft@@UBEIXZ="C:\Windows\SysWOW64\MapRouter".?getLength@Route@nmacore@Microsoft@@UBEIXZ
  ?getManeuverAt@Route@nmacore@Microsoft@@UAEAAVIManeuver@msnma@@I@Z="C:\Windows\SysWOW64\MapRouter".?getManeuverAt@Route@nmacore@Microsoft@@UAEAAVIManeuver@msnma@@I@Z
  ?getManeuverCount@Route@nmacore@Microsoft@@UAEIXZ="C:\Windows\SysWOW64\MapRouter".?getManeuverCount@Route@nmacore@Microsoft@@UAEIXZ
  ?getManeuverGeometry@Maneuver@nmacore@Microsoft@@QAEABV?$vector@VGeoCoordinates@ngeo@Microsoft@@V?$allocator@VGeoCoordinates@ngeo@Microsoft@@@std@@@std@@XZ="C:\Windows\SysWOW64\MapRouter".?getManeuverGeometry@Maneuver@nmacore@Microsoft@@QAEABV?$vector@VGeoCoordinates@ngeo@Microsoft@@V?$allocator@VGeoCoordinates@ngeo@Microsoft@@@std@@@std@@XZ
  ?getManeuvers@Route@nmacore@Microsoft@@QAEABV?$vector@VManeuver@nmacore@Microsoft@@V?$allocator@VManeuver@nmacore@Microsoft@@@std@@@std@@XZ="C:\Windows\SysWOW64\MapRouter".?getManeuvers@Route@nmacore@Microsoft@@QAEABV?$vector@VManeuver@nmacore@Microsoft@@V?$allocator@VManeuver@nmacore@Microsoft@@@std@@@std@@XZ
  ?getMapMatchedLocation@MapMatcherProxy@nmacore@Microsoft@@QBEABVMapMatchedLocation@ngeo@3@XZ="C:\Windows\SysWOW64\MapRouter".?getMapMatchedLocation@MapMatcherProxy@nmacore@Microsoft@@QBEABVMapMatchedLocation@ngeo@3@XZ
  ?getMapMatcherProxy@Sensors@nmacore@Microsoft@@QAEAAVMapMatcherProxy@23@XZ="C:\Windows\SysWOW64\MapRouter".?getMapMatcherProxy@Sensors@nmacore@Microsoft@@QAEAAVMapMatcherProxy@23@XZ
  ?getMapModel@Runtime@nmacore@Microsoft@@QAEAAVMapModel@ngeo@3@XZ="C:\Windows\SysWOW64\MapRouter".?getMapModel@Runtime@nmacore@Microsoft@@QAEAAVMapModel@ngeo@3@XZ
  ?getMapOrientation@Maneuver@nmacore@Microsoft@@UBEIXZ="C:\Windows\SysWOW64\MapRouter".?getMapOrientation@Maneuver@nmacore@Microsoft@@UBEIXZ
  ?getMatchMode@MapMatcherProxy@nmacore@Microsoft@@QBE?AW4MatchMode@MapMatcher@ngeo@3@XZ="C:\Windows\SysWOW64\MapRouter".?getMatchMode@MapMatcherProxy@nmacore@Microsoft@@QBE?AW4MatchMode@MapMatcher@ngeo@3@XZ
  ?getNavigationAudioEnabled@Guidance@nmacore@Microsoft@@QBE_NXZ="C:\Windows\SysWOW64\MapRouter".?getNavigationAudioEnabled@Guidance@nmacore@Microsoft@@QBE_NXZ
  ?getNextManeuver@Guidance@nmacore@Microsoft@@QBE?AV?$unique_ptr@VManeuver@nmacore@Microsoft@@U?$default_delete@VManeuver@nmacore@Microsoft@@@std@@@std@@XZ="C:\Windows\SysWOW64\MapRouter".?getNextManeuver@Guidance@nmacore@Microsoft@@QBE?AV?$unique_ptr@VManeuver@nmacore@Microsoft@@U?$default_delete@VManeuver@nmacore@Microsoft@@@std@@@std@@XZ
  ?getNextManeuverDistance@Guidance@nmacore@Microsoft@@QBEHXZ="C:\Windows\SysWOW64\MapRouter".?getNextManeuverDistance@Guidance@nmacore@Microsoft@@QBEHXZ
  ?getNextRoadName@Maneuver@nmacore@Microsoft@@UBEABV?$basic_string@GU?$char_traits@G@std@@V?$allocator@G@2@@std@@XZ="C:\Windows\SysWOW64\MapRouter".?getNextRoadName@Maneuver@nmacore@Microsoft@@UBEABV?$basic_string@GU?$char_traits@G@std@@V?$allocator@G@2@@std@@XZ
  ?getNextRouteName@Maneuver@nmacore@Microsoft@@UBEABV?$basic_string@GU?$char_traits@G@std@@V?$allocator@G@2@@std@@XZ="C:\Windows\SysWOW64\MapRouter".?getNextRouteName@Maneuver@nmacore@Microsoft@@UBEABV?$basic_string@GU?$char_traits@G@std@@V?$allocator@G@2@@std@@XZ
  ?getOpenList@Router@ngeo@Microsoft@@QAE?BV?$vector@PAVEdgeInfo@smart5@Microsoft@@V?$allocator@PAVEdgeInfo@smart5@Microsoft@@@std@@@std@@XZ="C:\Windows\SysWOW64\MapRouter".?getOpenList@Router@ngeo@Microsoft@@QAE?BV?$vector@PAVEdgeInfo@smart5@Microsoft@@V?$allocator@PAVEdgeInfo@smart5@Microsoft@@@std@@@std@@XZ
  ?getOpenList@RouterEngine@nmacore@Microsoft@@QAE?BV?$vector@PAVEdgeInfo@smart5@Microsoft@@V?$allocator@PAVEdgeInfo@smart5@Microsoft@@@std@@@std@@XZ="C:\Windows\SysWOW64\MapRouter".?getOpenList@RouterEngine@nmacore@Microsoft@@QAE?BV?$vector@PAVEdgeInfo@smart5@Microsoft@@V?$allocator@PAVEdgeInfo@smart5@Microsoft@@@std@@@std@@XZ
  ?getOriginLocation@ItineraryWarningTraffic@ngeo@Microsoft@@QBEABVIGeoCoordinates@msngeo@@XZ="C:\Windows\SysWOW64\MapRouter".?getOriginLocation@ItineraryWarningTraffic@ngeo@Microsoft@@QBEABVIGeoCoordinates@msngeo@@XZ
  ?getOriginLocation@ItineraryWarningTraffic@nmacore@Microsoft@@UBEABVIGeoCoordinates@msngeo@@XZ="C:\Windows\SysWOW64\MapRouter".?getOriginLocation@ItineraryWarningTraffic@nmacore@Microsoft@@UBEABVIGeoCoordinates@msngeo@@XZ
  ?getPollInterval@BaseEngine@nmacore@Microsoft@@UAEHXZ="C:\Windows\SysWOW64\MapRouter".?getPollInterval@BaseEngine@nmacore@Microsoft@@UAEHXZ
  ?getPollInterval@DriveSimulator@nmacore@Microsoft@@MAEHXZ="C:\Windows\SysWOW64\MapRouter".?getPollInterval@DriveSimulator@nmacore@Microsoft@@MAEHXZ
  ?getPollInterval@Guidance@nmacore@Microsoft@@UAEHXZ="C:\Windows\SysWOW64\MapRouter".?getPollInterval@Guidance@nmacore@Microsoft@@UAEHXZ
  ?getPollInterval@Poller@nmacore@Microsoft@@IAE_JPAVBaseEngine@23@@Z="C:\Windows\SysWOW64\MapRouter".?getPollInterval@Poller@nmacore@Microsoft@@IAE_JPAVBaseEngine@23@@Z
  ?getPollInterval@RouterEngine@nmacore@Microsoft@@MAEHXZ="C:\Windows\SysWOW64\MapRouter".?getPollInterval@RouterEngine@nmacore@Microsoft@@MAEHXZ
  ?getPollInterval@TrafficEngine@nmacore@Microsoft@@EAEHXZ="C:\Windows\SysWOW64\MapRouter".?getPollInterval@TrafficEngine@nmacore@Microsoft@@EAEHXZ
  ?getPollInterval@TransitDatabase@nmacore@Microsoft@@EAEHXZ="C:\Windows\SysWOW64\MapRouter".?getPollInterval@TransitDatabase@nmacore@Microsoft@@EAEHXZ
  ?getPollInterval@TtsEngine@nmacore@Microsoft@@EAEHXZ="C:\Windows\SysWOW64\MapRouter".?getPollInterval@TtsEngine@nmacore@Microsoft@@EAEHXZ
  ?getPoller@Runtime@nmacore@Microsoft@@QAEAAVPoller@23@XZ="C:\Windows\SysWOW64\MapRouter".?getPoller@Runtime@nmacore@Microsoft@@QAEAAVPoller@23@XZ
  ?getPosition@MapMatcherProxy@nmacore@Microsoft@@QBEABVMapMatchedLocation@ngeo@3@XZ="C:\Windows\SysWOW64\MapRouter".?getPosition@MapMatcherProxy@nmacore@Microsoft@@QBEABVMapMatchedLocation@ngeo@3@XZ
  ?getPositioningInterval@Sensors@nmacore@Microsoft@@EBEHXZ="C:\Windows\SysWOW64\MapRouter".?getPositioningInterval@Sensors@nmacore@Microsoft@@EBEHXZ
  ?getPositioningMethods@Sensors@nmacore@Microsoft@@EBEHXZ="C:\Windows\SysWOW64\MapRouter".?getPositioningMethods@Sensors@nmacore@Microsoft@@EBEHXZ
  ?getPositioningStatus@Sensors@nmacore@Microsoft@@EBE?AW4TPositioningStatus@23@XZ="C:\Windows\SysWOW64\MapRouter".?getPositioningStatus@Sensors@nmacore@Microsoft@@EBE?AW4TPositioningStatus@23@XZ
  ?getRelevantTrafficEvent@TrafficEngine@nmacore@Microsoft@@QBE?AV?$vector@VTrafficEvent@ngeo@Microsoft@@V?$allocator@VTrafficEvent@ngeo@Microsoft@@@std@@@std@@ABVEdgeId@smart5@3@W4DrivingDirection@ngeo@3@@Z="C:\Windows\SysWOW64\MapRouter".?getRelevantTrafficEvent@TrafficEngine@nmacore@Microsoft@@QBE?AV?$vector@VTrafficEvent@ngeo@Microsoft@@V?$allocator@VTrafficEvent@ngeo@Microsoft@@@std@@@std@@ABVEdgeId@smart5@3@W4DrivingDirection@ngeo@3@@Z
  ?getRoadName@Guidance@nmacore@Microsoft@@QBE?AV?$basic_string@GU?$char_traits@G@std@@V?$allocator@G@2@@std@@XZ="C:\Windows\SysWOW64\MapRouter".?getRoadName@Guidance@nmacore@Microsoft@@QBE?AV?$basic_string@GU?$char_traits@G@std@@V?$allocator@G@2@@std@@XZ
  ?getRoadName@Maneuver@nmacore@Microsoft@@UBEABV?$basic_string@GU?$char_traits@G@std@@V?$allocator@G@2@@std@@XZ="C:\Windows\SysWOW64\MapRouter".?getRoadName@Maneuver@nmacore@Microsoft@@UBEABV?$basic_string@GU?$char_traits@G@std@@V?$allocator@G@2@@std@@XZ
  ?getRoute@Guidance@nmacore@Microsoft@@QBEABVRoute@ngeo@3@XZ="C:\Windows\SysWOW64\MapRouter".?getRoute@Guidance@nmacore@Microsoft@@QBEABVRoute@ngeo@3@XZ
  ?getRouteAlternativesCount@RouteOptions@nmacore@Microsoft@@QBEIXZ="C:\Windows\SysWOW64\MapRouter".?getRouteAlternativesCount@RouteOptions@nmacore@Microsoft@@QBEIXZ
  ?getRouteCalculationTrafficEvents@Route@nmacore@Microsoft@@QAEABV?$vector@VTrafficEvent@nmacore@Microsoft@@V?$allocator@VTrafficEvent@nmacore@Microsoft@@@std@@@std@@XZ="C:\Windows\SysWOW64\MapRouter".?getRouteCalculationTrafficEvents@Route@nmacore@Microsoft@@QAEABV?$vector@VTrafficEvent@nmacore@Microsoft@@V?$allocator@VTrafficEvent@nmacore@Microsoft@@@std@@@std@@XZ
  ?getRouteElements@Route@nmacore@Microsoft@@QAEABVRouteElements@ngeo@3@XZ="C:\Windows\SysWOW64\MapRouter".?getRouteElements@Route@nmacore@Microsoft@@QAEABVRouteElements@ngeo@3@XZ
  ?getRouteGeometryAt@Route@nmacore@Microsoft@@UAEABVIGeoCoordinates@msngeo@@I@Z="C:\Windows\SysWOW64\MapRouter".?getRouteGeometryAt@Route@nmacore@Microsoft@@UAEABVIGeoCoordinates@msngeo@@I@Z
  ?getRouteGeometryAt@Route@nmacore@Microsoft@@UAEABVIGeoCoordinates@msngeo@@II@Z="C:\Windows\SysWOW64\MapRouter".?getRouteGeometryAt@Route@nmacore@Microsoft@@UAEABVIGeoCoordinates@msngeo@@II@Z
  ?getRouteGeometryCount@Route@nmacore@Microsoft@@UAEII@Z="C:\Windows\SysWOW64\MapRouter".?getRouteGeometryCount@Route@nmacore@Microsoft@@UAEII@Z
  ?getRouteGeometryCount@Route@nmacore@Microsoft@@UAEIXZ="C:\Windows\SysWOW64\MapRouter".?getRouteGeometryCount@Route@nmacore@Microsoft@@UAEIXZ
  ?getRouteMode@RouteOptions@nmacore@Microsoft@@QBE?AW4TRouteMode@123@XZ="C:\Windows\SysWOW64\MapRouter".?getRouteMode@RouteOptions@nmacore@Microsoft@@QBE?AW4TRouteMode@123@XZ
  ?getRouteName@Maneuver@nmacore@Microsoft@@UBEABV?$basic_string@GU?$char_traits@G@std@@V?$allocator@G@2@@std@@XZ="C:\Windows\SysWOW64\MapRouter".?getRouteName@Maneuver@nmacore@Microsoft@@UBEABV?$basic_string@GU?$char_traits@G@std@@V?$allocator@G@2@@std@@XZ
  ?getRoutePlan@Route@nmacore@Microsoft@@QAEABVRoutePlan@ngeo@3@XZ="C:\Windows\SysWOW64\MapRouter".?getRoutePlan@Route@nmacore@Microsoft@@QAEABVRoutePlan@ngeo@3@XZ
  ?getRouteType@RouteOptions@nmacore@Microsoft@@QBE?AW4TRouteType@123@XZ="C:\Windows\SysWOW64\MapRouter".?getRouteType@RouteOptions@nmacore@Microsoft@@QBE?AW4TRouteType@123@XZ
  ?getRoutingAvailability@TrafficEngine@nmacore@Microsoft@@QBE_NABVGeoCoordinates@ngeo@3@@Z="C:\Windows\SysWOW64\MapRouter".?getRoutingAvailability@TrafficEngine@nmacore@Microsoft@@QBE_NABVGeoCoordinates@ngeo@3@@Z
  ?getRoutingTimeoutSeconds@RouterEngine@nmacore@Microsoft@@QBE?AUTimeSpan@Core@@XZ="C:\Windows\SysWOW64\MapRouter".?getRoutingTimeoutSeconds@RouterEngine@nmacore@Microsoft@@QBE?AUTimeSpan@Core@@XZ
  ?getSearchTree@Router@ngeo@Microsoft@@QAE?AV?$shared_ptr@VGSearchTree@smart5@Microsoft@@@std@@XZ="C:\Windows\SysWOW64\MapRouter".?getSearchTree@Router@ngeo@Microsoft@@QAE?AV?$shared_ptr@VGSearchTree@smart5@Microsoft@@@std@@XZ
  ?getSearchTree@RouterEngine@nmacore@Microsoft@@QAE?AV?$shared_ptr@VGSearchTree@smart5@Microsoft@@@std@@XZ="C:\Windows\SysWOW64\MapRouter".?getSearchTree@RouterEngine@nmacore@Microsoft@@QAE?AV?$shared_ptr@VGSearchTree@smart5@Microsoft@@@std@@XZ
  ?getSensors@Runtime@nmacore@Microsoft@@QAEAAVSensors@23@XZ="C:\Windows\SysWOW64\MapRouter".?getSensors@Runtime@nmacore@Microsoft@@QAEAAVSensors@23@XZ
  ?getSeverity@ItineraryWarningTraffic@ngeo@Microsoft@@QBE?AW4Severity@IItineraryWarningTraffic@msngeo@@XZ="C:\Windows\SysWOW64\MapRouter".?getSeverity@ItineraryWarningTraffic@ngeo@Microsoft@@QBE?AW4Severity@IItineraryWarningTraffic@msngeo@@XZ
  ?getSeverity@ItineraryWarningTraffic@nmacore@Microsoft@@UBE?AW4TSeverity@IItineraryWarningTraffic@msnma@@XZ="C:\Windows\SysWOW64\MapRouter".?getSeverity@ItineraryWarningTraffic@nmacore@Microsoft@@UBE?AW4TSeverity@IItineraryWarningTraffic@msnma@@XZ
  ?getSignpost@Maneuver@nmacore@Microsoft@@UBEPBVISignpost@msngeo@@XZ="C:\Windows\SysWOW64\MapRouter".?getSignpost@Maneuver@nmacore@Microsoft@@UBEPBVISignpost@msngeo@@XZ
  ?getSpeed@DriveSimulator@nmacore@Microsoft@@QAENXZ="C:\Windows\SysWOW64\MapRouter".?getSpeed@DriveSimulator@nmacore@Microsoft@@QAENXZ
  ?getStartAngle@Maneuver@nmacore@Microsoft@@UBEIXZ="C:\Windows\SysWOW64\MapRouter".?getStartAngle@Maneuver@nmacore@Microsoft@@UBEIXZ
  ?getStartDirection@RouteOptions@nmacore@Microsoft@@QBEIXZ="C:\Windows\SysWOW64\MapRouter".?getStartDirection@RouteOptions@nmacore@Microsoft@@QBEIXZ
  ?getStartSegment@Maneuver@nmacore@Microsoft@@QBEIXZ="C:\Windows\SysWOW64\MapRouter".?getStartSegment@Maneuver@nmacore@Microsoft@@QBEIXZ
  ?getTTA@Guidance@nmacore@Microsoft@@ABEHW4RouteScope@1ngeo@3@@Z="C:\Windows\SysWOW64\MapRouter".?getTTA@Guidance@nmacore@Microsoft@@ABEHW4RouteScope@1ngeo@3@@Z
  ?getTimeToArrival@Guidance@nmacore@Microsoft@@QBEHXZ="C:\Windows\SysWOW64\MapRouter".?getTimeToArrival@Guidance@nmacore@Microsoft@@QBEHXZ
  ?getTimeToArrivalToStopover@Guidance@nmacore@Microsoft@@QBEHXZ="C:\Windows\SysWOW64\MapRouter".?getTimeToArrivalToStopover@Guidance@nmacore@Microsoft@@QBEHXZ
  ?getToLocation@ItineraryWarningTraffic@ngeo@Microsoft@@QBEABVIGeoCoordinates@msngeo@@XZ="C:\Windows\SysWOW64\MapRouter".?getToLocation@ItineraryWarningTraffic@ngeo@Microsoft@@QBEABVIGeoCoordinates@msngeo@@XZ
  ?getToLocation@ItineraryWarningTraffic@nmacore@Microsoft@@UBEABVIGeoCoordinates@msngeo@@XZ="C:\Windows\SysWOW64\MapRouter".?getToLocation@ItineraryWarningTraffic@nmacore@Microsoft@@UBEABVIGeoCoordinates@msngeo@@XZ
  ?getTrafficCongestion@Route@ngeo@Microsoft@@QBE?AW4TrafficCongestion@123@I@Z="C:\Windows\SysWOW64\MapRouter".?getTrafficCongestion@Route@ngeo@Microsoft@@QBE?AW4TrafficCongestion@123@I@Z
  ?getTrafficCongestion@Route@nmacore@Microsoft@@UBE?AW4TrafficCongestionType@IRoute@msnma@@I@Z="C:\Windows\SysWOW64\MapRouter".?getTrafficCongestion@Route@nmacore@Microsoft@@UBE?AW4TrafficCongestionType@IRoute@msnma@@I@Z
  ?getTrafficCongestion@Route@nmacore@Microsoft@@UBE?AW4TrafficCongestionType@IRoute@msnma@@XZ="C:\Windows\SysWOW64\MapRouter".?getTrafficCongestion@Route@nmacore@Microsoft@@UBE?AW4TrafficCongestionType@IRoute@msnma@@XZ
  ?getTrafficDirection@Maneuver@nmacore@Microsoft@@QBEIXZ="C:\Windows\SysWOW64\MapRouter".?getTrafficDirection@Maneuver@nmacore@Microsoft@@QBEIXZ
  ?getTrafficEnabledRoutingState@Guidance@nmacore@Microsoft@@QBE?AW4TrafficEnabledRoutingState@SimpleGuidanceListener@naviplayer@3@XZ="C:\Windows\SysWOW64\MapRouter".?getTrafficEnabledRoutingState@Guidance@nmacore@Microsoft@@QBE?AW4TrafficEnabledRoutingState@SimpleGuidanceListener@naviplayer@3@XZ
  ?getTrafficEngine@Runtime@nmacore@Microsoft@@QAEAAVTrafficEngine@23@XZ="C:\Windows\SysWOW64\MapRouter".?getTrafficEngine@Runtime@nmacore@Microsoft@@QAEAAVTrafficEngine@23@XZ
  ?getTrafficEvents@Route@nmacore@Microsoft@@QAEABV?$vector@VTrafficEvent@nmacore@Microsoft@@V?$allocator@VTrafficEvent@nmacore@Microsoft@@@std@@@std@@XZ="C:\Windows\SysWOW64\MapRouter".?getTrafficEvents@Route@nmacore@Microsoft@@QAEABV?$vector@VTrafficEvent@nmacore@Microsoft@@V?$allocator@VTrafficEvent@nmacore@Microsoft@@@std@@@std@@XZ
  ?getTransitDatabase@Runtime@nmacore@Microsoft@@QAEAAVTransitDatabase@23@XZ="C:\Windows\SysWOW64\MapRouter".?getTransitDatabase@Runtime@nmacore@Microsoft@@QAEAAVTransitDatabase@23@XZ
  ?getTransitMaximumChanges@RouteOptions@nmacore@Microsoft@@QBEIXZ="C:\Windows\SysWOW64\MapRouter".?getTransitMaximumChanges@RouteOptions@nmacore@Microsoft@@QBEIXZ
  ?getTransitMinimumChangeTime@RouteOptions@nmacore@Microsoft@@QBEIXZ="C:\Windows\SysWOW64\MapRouter".?getTransitMinimumChangeTime@RouteOptions@nmacore@Microsoft@@QBEIXZ
  ?getTransitOption@RouteOptions@nmacore@Microsoft@@QBE_NW4TransitOption@123@@Z="C:\Windows\SysWOW64\MapRouter".?getTransitOption@RouteOptions@nmacore@Microsoft@@QBE_NW4TransitOption@123@@Z
  ?getTransitTypeAllowed@RouteOptions@nmacore@Microsoft@@QBE_NW4TransitType@123@@Z="C:\Windows\SysWOW64\MapRouter".?getTransitTypeAllowed@RouteOptions@nmacore@Microsoft@@QBE_NW4TransitType@123@@Z
  ?getTransitWalkTimeMultiplier@RouteOptions@nmacore@Microsoft@@QBENXZ="C:\Windows\SysWOW64\MapRouter".?getTransitWalkTimeMultiplier@RouteOptions@nmacore@Microsoft@@QBENXZ
  ?getTurn@Maneuver@nmacore@Microsoft@@UBEIXZ="C:\Windows\SysWOW64\MapRouter".?getTurn@Maneuver@nmacore@Microsoft@@UBEIXZ
  ?getUseTraffic@RouterEngine@nmacore@Microsoft@@QBE_NXZ="C:\Windows\SysWOW64\MapRouter".?getUseTraffic@RouterEngine@nmacore@Microsoft@@QBE_NXZ
  ?getViolatedOptions@RouterEngine@nmacore@Microsoft@@QBEHXZ="C:\Windows\SysWOW64\MapRouter".?getViolatedOptions@RouterEngine@nmacore@Microsoft@@QBEHXZ
  ?getVoiceSettings@Guidance@nmacore@Microsoft@@QAEABV?$map@V?$basic_string@GU?$char_traits@G@std@@V?$allocator@G@2@@std@@V12@U?$less@V?$basic_string@GU?$char_traits@G@std@@V?$allocator@G@2@@std@@@2@V?$allocator@U?$pair@$$CBV?$basic_string@GU?$char_traits@G@std@@V?$allocator@G@2@@std@@V12@@std@@@2@@std@@XZ="C:\Windows\SysWOW64\MapRouter".?getVoiceSettings@Guidance@nmacore@Microsoft@@QAEABV?$map@V?$basic_string@GU?$char_traits@G@std@@V?$allocator@G@2@@std@@V12@U?$less@V?$basic_string@GU?$char_traits@G@std@@V?$allocator@G@2@@std@@@2@V?$allocator@U?$pair@$$CBV?$basic_string@GU?$char_traits@G@std@@V?$allocator@G@2@@std@@V12@@std@@@2@@std@@XZ
  ?getVoiceSkinId@Guidance@nmacore@Microsoft@@QBEIXZ="C:\Windows\SysWOW64\MapRouter".?getVoiceSkinId@Guidance@nmacore@Microsoft@@QBEIXZ
  ?getWarningType@ItineraryWarning@nmacore@Microsoft@@UBE?AW4TType@IItineraryWarning@msnma@@XZ="C:\Windows\SysWOW64\MapRouter".?getWarningType@ItineraryWarning@nmacore@Microsoft@@UBE?AW4TType@IItineraryWarning@msnma@@XZ
  ?get_action@Maneuver@ngeo@Microsoft@@QBE?AW4ActionId@123@XZ="C:\Windows\SysWOW64\MapRouter".?get_action@Maneuver@ngeo@Microsoft@@QBE?AW4ActionId@123@XZ
  ?get_action@ManeuverVoiceInfo@ngeo@Microsoft@@QBE?AW4Action@123@XZ="C:\Windows\SysWOW64\MapRouter".?get_action@ManeuverVoiceInfo@ngeo@Microsoft@@QBE?AW4Action@123@XZ
  ?get_actionid_string@Maneuver@ngeo@Microsoft@@SGPBGW4ActionId@123@@Z="C:\Windows\SysWOW64\MapRouter".?get_actionid_string@Maneuver@ngeo@Microsoft@@SGPBGW4ActionId@123@@Z
  ?get_activation_date@Traffic@ngeo@Microsoft@@QBE?AW4ErrorCode@errorcodes@msngeo@@ABVTrafficEvent@23@AAI@Z="C:\Windows\SysWOW64\MapRouter".?get_activation_date@Traffic@ngeo@Microsoft@@QBE?AW4ErrorCode@errorcodes@msngeo@@ABVTrafficEvent@23@AAI@Z
  ?get_admin_name@ItineraryWarningAdminDivChange@ngeo@Microsoft@@QBEABV?$basic_string@GU?$char_traits@G@std@@V?$allocator@G@2@@std@@XZ="C:\Windows\SysWOW64\MapRouter".?get_admin_name@ItineraryWarningAdminDivChange@ngeo@Microsoft@@QBEABV?$basic_string@GU?$char_traits@G@std@@V?$allocator@G@2@@std@@XZ
  ?get_affected_area@Traffic@ngeo@Microsoft@@QBE?AW4ErrorCode@errorcodes@msngeo@@ABVTrafficEvent@23@AAVGeoRect@23@@Z="C:\Windows\SysWOW64\MapRouter".?get_affected_area@Traffic@ngeo@Microsoft@@QBE?AW4ErrorCode@errorcodes@msngeo@@ABVTrafficEvent@23@AAVGeoRect@23@@Z
  ?get_affected_length@Traffic@ngeo@Microsoft@@QBE?AW4ErrorCode@errorcodes@msngeo@@ABVTrafficEvent@23@AAI@Z="C:\Windows\SysWOW64\MapRouter".?get_affected_length@Traffic@ngeo@Microsoft@@QBE?AW4ErrorCode@errorcodes@msngeo@@ABVTrafficEvent@23@AAI@Z
  ?get_affected_road_elements@Traffic@ngeo@Microsoft@@QBE?AW4ErrorCode@errorcodes@msngeo@@ABVTrafficEvent@23@AAV?$vector@VEdgeId@smart5@Microsoft@@V?$allocator@VEdgeId@smart5@Microsoft@@@std@@@std@@AAV?$vector@W4DrivingDirection@ngeo@Microsoft@@V?$allocator@W4DrivingDirection@ngeo@Microsoft@@@std@@@9@@Z="C:\Windows\SysWOW64\MapRouter".?get_affected_road_elements@Traffic@ngeo@Microsoft@@QBE?AW4ErrorCode@errorcodes@msngeo@@ABVTrafficEvent@23@AAV?$vector@VEdgeId@smart5@Microsoft@@V?$allocator@VEdgeId@smart5@Microsoft@@@std@@@std@@AAV?$vector@W4DrivingDirection@ngeo@Microsoft@@V?$allocator@W4DrivingDirection@ngeo@Microsoft@@@std@@@9@@Z
  ?get_affected_streets@Traffic@ngeo@Microsoft@@QBE?AW4ErrorCode@errorcodes@msngeo@@ABVTrafficEvent@23@AAV?$basic_string@GU?$char_traits@G@std@@V?$allocator@G@2@@std@@@Z="C:\Windows\SysWOW64\MapRouter".?get_affected_streets@Traffic@ngeo@Microsoft@@QBE?AW4ErrorCode@errorcodes@msngeo@@ABVTrafficEvent@23@AAV?$basic_string@GU?$char_traits@G@std@@V?$allocator@G@2@@std@@@Z
  ?get_allow_carpool@RouteOptions@ngeo@Microsoft@@QBE_NXZ="C:\Windows\SysWOW64\MapRouter".?get_allow_carpool@RouteOptions@ngeo@Microsoft@@QBE_NXZ
  ?get_alpha@Color@ngeo@Microsoft@@QBEEXZ="C:\Windows\SysWOW64\MapRouter".?get_alpha@Color@ngeo@Microsoft@@QBEEXZ
  ?get_altitude@GeoCoordinates@ngeo@Microsoft@@UBEMXZ="C:\Windows\SysWOW64\MapRouter".?get_altitude@GeoCoordinates@ngeo@Microsoft@@UBEMXZ
  ?get_altitude_amsl@GeoCoordinates@ngeo@Microsoft@@QBEMXZ="C:\Windows\SysWOW64\MapRouter".?get_altitude_amsl@GeoCoordinates@ngeo@Microsoft@@QBEMXZ
  ?get_angle@Maneuver@ngeo@Microsoft@@QBEIXZ="C:\Windows\SysWOW64\MapRouter".?get_angle@Maneuver@ngeo@Microsoft@@QBEIXZ
  ?get_anti_aliasing_quality_hint@RenderBuffer@ngeo@Microsoft@@QBE?AW4AntiAliasingQualityHint@123@XZ="C:\Windows\SysWOW64\MapRouter".?get_anti_aliasing_quality_hint@RenderBuffer@ngeo@Microsoft@@QBE?AW4AntiAliasingQualityHint@123@XZ
  ?get_any_start_direction@RouteOptions@ngeo@Microsoft@@SGGXZ="C:\Windows\SysWOW64\MapRouter".?get_any_start_direction@RouteOptions@ngeo@Microsoft@@SGGXZ
  ?get_areas@DynamicPenalty@ngeo@Microsoft@@QBEABV?$vector@VGeoPolygon@ngeo@Microsoft@@V?$allocator@VGeoPolygon@ngeo@Microsoft@@@std@@@std@@XZ="C:\Windows\SysWOW64\MapRouter".?get_areas@DynamicPenalty@ngeo@Microsoft@@QBEABV?$vector@VGeoPolygon@ngeo@Microsoft@@V?$allocator@VGeoPolygon@ngeo@Microsoft@@@std@@@std@@XZ
  ?get_areas_penalties@DynamicPenalty@ngeo@Microsoft@@QBEABV?$vector@EV?$allocator@E@std@@@std@@XZ="C:\Windows\SysWOW64\MapRouter".?get_areas_penalties@DynamicPenalty@ngeo@Microsoft@@QBEABV?$vector@EV?$allocator@E@std@@@std@@XZ
  ?get_arrival_station@TransitRouteElement@ngeo@Microsoft@@QBEABVTransitRouteStop@23@XZ="C:\Windows\SysWOW64\MapRouter".?get_arrival_station@TransitRouteElement@ngeo@Microsoft@@QBEABVTransitRouteStop@23@XZ
  ?get_arrival_time@Route@ngeo@Microsoft@@QBEJXZ="C:\Windows\SysWOW64\MapRouter".?get_arrival_time@Route@ngeo@Microsoft@@QBEJXZ
  ?get_arrival_time@TransitRouteElement@ngeo@Microsoft@@QBE?AVDateTime@23@XZ="C:\Windows\SysWOW64\MapRouter".?get_arrival_time@TransitRouteElement@ngeo@Microsoft@@QBE?AVDateTime@23@XZ
  ?get_ask_avoid_output@TrafficWarner@ngeo@Microsoft@@QBE?AW4ErrorCode@errorcodes@msngeo@@AAVTrafficNotification@23@@Z="C:\Windows\SysWOW64\MapRouter".?get_ask_avoid_output@TrafficWarner@ngeo@Microsoft@@QBE?AW4ErrorCode@errorcodes@msngeo@@AAVTrafficNotification@23@@Z
  ?get_attribute@RoadElement@ngeo@Microsoft@@QBE_NW4Attribute@123@@Z="C:\Windows\SysWOW64\MapRouter".?get_attribute@RoadElement@ngeo@Microsoft@@QBE_NW4Attribute@123@@Z
  ?get_attribute@TransitRouteElement@ngeo@Microsoft@@QBE_NW4Attribute@123@@Z="C:\Windows\SysWOW64\MapRouter".?get_attribute@TransitRouteElement@ngeo@Microsoft@@QBE_NW4Attribute@123@@Z
  ?get_attributes@TransitRouteElement@ngeo@Microsoft@@QBEIXZ="C:\Windows\SysWOW64\MapRouter".?get_attributes@TransitRouteElement@ngeo@Microsoft@@QBEIXZ
  ?get_attributes@TransitRouteStop@ngeo@Microsoft@@QBEIXZ="C:\Windows\SysWOW64\MapRouter".?get_attributes@TransitRouteStop@ngeo@Microsoft@@QBEIXZ
  ?get_audio_files_path@VoiceSkin@ngeo@Microsoft@@QBEABV?$basic_string@GU?$char_traits@G@std@@V?$allocator@G@2@@std@@XZ="C:\Windows\SysWOW64\MapRouter".?get_audio_files_path@VoiceSkin@ngeo@Microsoft@@QBEABV?$basic_string@GU?$char_traits@G@std@@V?$allocator@G@2@@std@@XZ
  ?get_audio_files_version@VoiceSkin@ngeo@Microsoft@@QBEABVVersion@23@XZ="C:\Windows\SysWOW64\MapRouter".?get_audio_files_version@VoiceSkin@ngeo@Microsoft@@QBEABVVersion@23@XZ
  ?get_audio_output@Output@ngeo@Microsoft@@QBEABV?$vector@V?$basic_string@GU?$char_traits@G@std@@V?$allocator@G@2@@std@@V?$allocator@V?$basic_string@GU?$char_traits@G@std@@V?$allocator@G@2@@std@@@2@@std@@XZ="C:\Windows\SysWOW64\MapRouter".?get_audio_output@Output@ngeo@Microsoft@@QBEABV?$vector@V?$basic_string@GU?$char_traits@G@std@@V?$allocator@G@2@@std@@V?$allocator@V?$basic_string@GU?$char_traits@G@std@@V?$allocator@G@2@@std@@@2@@std@@XZ
  ?get_availability@Traffic@ngeo@Microsoft@@QBE?AW4ErrorCode@errorcodes@msngeo@@ABV?$basic_string@GU?$char_traits@G@std@@V?$allocator@G@2@@std@@AA_N@Z="C:\Windows\SysWOW64\MapRouter".?get_availability@Traffic@ngeo@Microsoft@@QBE?AW4ErrorCode@errorcodes@msngeo@@ABV?$basic_string@GU?$char_traits@G@std@@V?$allocator@G@2@@std@@AA_N@Z
  ?get_availability@Traffic@ngeo@Microsoft@@QBE?AW4ErrorCode@errorcodes@msngeo@@ABVRoute@23@AAV?$vector@U?$pair@V?$basic_string@GU?$char_traits@G@std@@V?$allocator@G@2@@std@@_N@std@@V?$allocator@U?$pair@V?$basic_string@GU?$char_traits@G@std@@V?$allocator@G@2@@std@@_N@std@@@2@@std@@@Z="C:\Windows\SysWOW64\MapRouter".?get_availability@Traffic@ngeo@Microsoft@@QBE?AW4ErrorCode@errorcodes@msngeo@@ABVRoute@23@AAV?$vector@U?$pair@V?$basic_string@GU?$char_traits@G@std@@V?$allocator@G@2@@std@@_N@std@@V?$allocator@U?$pair@V?$basic_string@GU?$char_traits@G@std@@V?$allocator@G@2@@std@@_N@std@@@2@@std@@@Z
  ?get_average_speed_m_s@RoadElement@ngeo@Microsoft@@QBEIXZ="C:\Windows\SysWOW64\MapRouter".?get_average_speed_m_s@RoadElement@ngeo@Microsoft@@QBEIXZ
  ?get_background_color@Signpost@ngeo@Microsoft@@QBEABVColor@23@XZ="C:\Windows\SysWOW64\MapRouter".?get_background_color@Signpost@ngeo@Microsoft@@QBEABVColor@23@XZ
  ?get_base_directory@TtsOptions@ngeo@Microsoft@@QBEABV?$basic_string@GU?$char_traits@G@std@@V?$allocator@G@2@@std@@XZ="C:\Windows\SysWOW64\MapRouter".?get_base_directory@TtsOptions@ngeo@Microsoft@@QBEABV?$basic_string@GU?$char_traits@G@std@@V?$allocator@G@2@@std@@XZ
  ?get_base_path@VoiceSkin@ngeo@Microsoft@@QBEABV?$basic_string@GU?$char_traits@G@std@@V?$allocator@G@2@@std@@XZ="C:\Windows\SysWOW64\MapRouter".?get_base_path@VoiceSkin@ngeo@Microsoft@@QBEABV?$basic_string@GU?$char_traits@G@std@@V?$allocator@G@2@@std@@XZ
  ?get_bbox@Location@ngeo@Microsoft@@QBEABVGeoRect@23@XZ="C:\Windows\SysWOW64\MapRouter".?get_bbox@Location@ngeo@Microsoft@@QBEABVGeoRect@23@XZ
  ?get_bicycle_hours@TransitSystemInfo@ngeo@Microsoft@@QBEABVOperatingHours@23@XZ="C:\Windows\SysWOW64\MapRouter".?get_bicycle_hours@TransitSystemInfo@ngeo@Microsoft@@QBEABVOperatingHours@23@XZ
  ?get_bing_route_data@TransitStopInfo@ngeo@Microsoft@@QBEABV?$unordered_map@V?$basic_string@GU?$char_traits@G@std@@V?$allocator@G@2@@std@@V?$vector@V?$basic_string@GU?$char_traits@G@std@@V?$allocator@G@2@@std@@V?$allocator@V?$basic_string@GU?$char_traits@G@std@@V?$allocator@G@2@@std@@@2@@2@U?$hash@V?$basic_string@GU?$char_traits@G@std@@V?$allocator@G@2@@std@@@2@U?$equal_to@V?$basic_string@GU?$char_traits@G@std@@V?$allocator@G@2@@std@@@2@V?$allocator@U?$pair@$$CBV?$basic_string@GU?$char_traits@G@std@@V?$alloc="C:\Windows\SysWOW64\MapRouter".?get_bing_route_data@TransitStopInfo@ngeo@Microsoft@@QBEABV?$unordered_map@V?$basic_string@GU?$char_traits@G@std@@V?$allocator@G@2@@std@@V?$vector@V?$basic_string@GU?$char_traits@G@std@@V?$allocator@G@2@@std@@V?$allocator@V?$basic_string@GU?$char_traits@G@std@@V?$allocator@G@2@@std@@@2@@2@U?$hash@V?$basic_string@GU?$char_traits@G@std@@V?$allocator@G@2@@std@@@2@U?$equal_to@V?$basic_string@GU?$char_traits@G@std@@V?$allocator@G@2@@std@@@2@V?$allocator@U?$pair@$$CBV?$basic_string@GU?$char_traits@G@std@@V?$alloc
  ?get_blue@Color@ngeo@Microsoft@@QBEEXZ="C:\Windows\SysWOW64\MapRouter".?get_blue@Color@ngeo@Microsoft@@QBEEXZ
  ?get_body@?$ObjectHandle@VViewObject@ngeo@Microsoft@@$00@internal@ngeo@Microsoft@@QAEPAVViewObject@34@XZ="C:\Windows\SysWOW64\MapRouter".?get_body@?$ObjectHandle@VViewObject@ngeo@Microsoft@@$00@internal@ngeo@Microsoft@@QAEPAVViewObject@34@XZ
  ?get_body@?$ObjectHandle@VViewObject@ngeo@Microsoft@@$00@internal@ngeo@Microsoft@@QBEPBVViewObject@34@XZ="C:\Windows\SysWOW64\MapRouter".?get_body@?$ObjectHandle@VViewObject@ngeo@Microsoft@@$00@internal@ngeo@Microsoft@@QBEPBVViewObject@34@XZ
  ?get_body@ProxyObjectHandle@ngeo@Microsoft@@QAEPAVProxyObject@23@XZ="C:\Windows\SysWOW64\MapRouter".?get_body@ProxyObjectHandle@ngeo@Microsoft@@QAEPAVProxyObject@23@XZ
  ?get_body@ProxyObjectHandle@ngeo@Microsoft@@QBEPBVProxyObject@23@XZ="C:\Windows\SysWOW64\MapRouter".?get_body@ProxyObjectHandle@ngeo@Microsoft@@QBEPBVProxyObject@23@XZ
  ?get_bottom_right@GeoRect@ngeo@Microsoft@@QAEAAVGeoCoordinates@23@XZ="C:\Windows\SysWOW64\MapRouter".?get_bottom_right@GeoRect@ngeo@Microsoft@@QAEAAVGeoCoordinates@23@XZ
  ?get_bottom_right@GeoRect@ngeo@Microsoft@@QBEABVGeoCoordinates@23@XZ="C:\Windows\SysWOW64\MapRouter".?get_bottom_right@GeoRect@ngeo@Microsoft@@QBEABVGeoCoordinates@23@XZ
  ?get_bottom_right@PixelRect@ngeo@Microsoft@@QBE?AVPixelCoordinates@23@XZ="C:\Windows\SysWOW64\MapRouter".?get_bottom_right@PixelRect@ngeo@Microsoft@@QBE?AVPixelCoordinates@23@XZ
  ?get_buffer@Icon@ngeo@Microsoft@@QBEPBV?$vector@EV?$allocator@E@std@@@std@@XZ="C:\Windows\SysWOW64\MapRouter".?get_buffer@Icon@ngeo@Microsoft@@QBEPBV?$vector@EV?$allocator@E@std@@@std@@XZ
  ?get_buffer_size@Icon@ngeo@Microsoft@@QBEIXZ="C:\Windows\SysWOW64\MapRouter".?get_buffer_size@Icon@ngeo@Microsoft@@QBEIXZ
  ?get_build_num@Version@ngeo@Microsoft@@QBEIXZ="C:\Windows\SysWOW64\MapRouter".?get_build_num@Version@ngeo@Microsoft@@QBEIXZ
  ?get_bytes_per_pixel@RenderBuffer@ngeo@Microsoft@@SGIW4PixelFormat@23@@Z="C:\Windows\SysWOW64\MapRouter".?get_bytes_per_pixel@RenderBuffer@ngeo@Microsoft@@SGIW4PixelFormat@23@@Z
  ?get_bytes_per_pixel@Surface@ngeo@Microsoft@@SGIW4PixelFormat@23@@Z="C:\Windows\SysWOW64\MapRouter".?get_bytes_per_pixel@Surface@ngeo@Microsoft@@SGIW4PixelFormat@23@@Z
  ?get_center@GeoRect@ngeo@Microsoft@@QBE?AVGeoCoordinates@23@XZ="C:\Windows\SysWOW64\MapRouter".?get_center@GeoRect@ngeo@Microsoft@@QBE?AVGeoCoordinates@23@XZ
  ?get_center@Vicinity@Traffic@ngeo@Microsoft@@QBEABVGeoCoordinates@34@XZ="C:\Windows\SysWOW64\MapRouter".?get_center@Vicinity@Traffic@ngeo@Microsoft@@QBEABVGeoCoordinates@34@XZ
  ?get_class_type@GeoPolygon@ngeo@Microsoft@@UBEHXZ="C:\Windows\SysWOW64\MapRouter".?get_class_type@GeoPolygon@ngeo@Microsoft@@UBEHXZ
  ?get_class_type@GeoPolyline@ngeo@Microsoft@@UBEHXZ="C:\Windows\SysWOW64\MapRouter".?get_class_type@GeoPolyline@ngeo@Microsoft@@UBEHXZ
  ?get_class_type@GeoRect@ngeo@Microsoft@@UBEHXZ="C:\Windows\SysWOW64\MapRouter".?get_class_type@GeoRect@ngeo@Microsoft@@UBEHXZ
  ?get_class_type@ProxyObject@ngeo@Microsoft@@UBEHXZ="C:\Windows\SysWOW64\MapRouter".?get_class_type@ProxyObject@ngeo@Microsoft@@UBEHXZ
  ?get_class_type@TrafficEventObject@ngeo@Microsoft@@UBEHXZ="C:\Windows\SysWOW64\MapRouter".?get_class_type@TrafficEventObject@ngeo@Microsoft@@UBEHXZ
  ?get_clip_area@RenderBuffer@ngeo@Microsoft@@QBEABVPixelRect@23@XZ="C:\Windows\SysWOW64\MapRouter".?get_clip_area@RenderBuffer@ngeo@Microsoft@@QBEABVPixelRect@23@XZ
  ?get_color@TransitLineInfo@ngeo@Microsoft@@QBEABVColor@23@XZ="C:\Windows\SysWOW64\MapRouter".?get_color@TransitLineInfo@ngeo@Microsoft@@QBEABVColor@23@XZ
  ?get_company_informal_name@TransitSystemInfo@ngeo@Microsoft@@QBEABV?$basic_string@GU?$char_traits@G@std@@V?$allocator@G@2@@std@@XZ="C:\Windows\SysWOW64\MapRouter".?get_company_informal_name@TransitSystemInfo@ngeo@Microsoft@@QBEABV?$basic_string@GU?$char_traits@G@std@@V?$allocator@G@2@@std@@XZ
  ?get_company_logo@TransitSystemInfo@ngeo@Microsoft@@QBEABVIcon@23@XZ="C:\Windows\SysWOW64\MapRouter".?get_company_logo@TransitSystemInfo@ngeo@Microsoft@@QBEABVIcon@23@XZ
  ?get_company_official_name@TransitSystemInfo@ngeo@Microsoft@@QBEABV?$basic_string@GU?$char_traits@G@std@@V?$allocator@G@2@@std@@XZ="C:\Windows\SysWOW64\MapRouter".?get_company_official_name@TransitSystemInfo@ngeo@Microsoft@@QBEABV?$basic_string@GU?$char_traits@G@std@@V?$allocator@G@2@@std@@XZ
  ?get_company_phone@TransitSystemInfo@ngeo@Microsoft@@QBEABV?$basic_string@GU?$char_traits@G@std@@V?$allocator@G@2@@std@@XZ="C:\Windows\SysWOW64\MapRouter".?get_company_phone@TransitSystemInfo@ngeo@Microsoft@@QBEABV?$basic_string@GU?$char_traits@G@std@@V?$allocator@G@2@@std@@XZ
  ?get_company_route_planner_url@TransitSystemInfo@ngeo@Microsoft@@QBEABV?$basic_string@GU?$char_traits@G@std@@V?$allocator@G@2@@std@@XZ="C:\Windows\SysWOW64\MapRouter".?get_company_route_planner_url@TransitSystemInfo@ngeo@Microsoft@@QBEABV?$basic_string@GU?$char_traits@G@std@@V?$allocator@G@2@@std@@XZ
  ?get_company_schedule_url@TransitSystemInfo@ngeo@Microsoft@@QBEABV?$basic_string@GU?$char_traits@G@std@@V?$allocator@G@2@@std@@XZ="C:\Windows\SysWOW64\MapRouter".?get_company_schedule_url@TransitSystemInfo@ngeo@Microsoft@@QBEABV?$basic_string@GU?$char_traits@G@std@@V?$allocator@G@2@@std@@XZ
  ?get_company_short_name@TransitSystemInfo@ngeo@Microsoft@@QBEABV?$basic_string@GU?$char_traits@G@std@@V?$allocator@G@2@@std@@XZ="C:\Windows\SysWOW64\MapRouter".?get_company_short_name@TransitSystemInfo@ngeo@Microsoft@@QBEABV?$basic_string@GU?$char_traits@G@std@@V?$allocator@G@2@@std@@XZ
  ?get_company_website_url@TransitSystemInfo@ngeo@Microsoft@@QBEABV?$basic_string@GU?$char_traits@G@std@@V?$allocator@G@2@@std@@XZ="C:\Windows\SysWOW64\MapRouter".?get_company_website_url@TransitSystemInfo@ngeo@Microsoft@@QBEABV?$basic_string@GU?$char_traits@G@std@@V?$allocator@G@2@@std@@XZ
  ?get_compass_heading@ManeuverVoiceInfo@ngeo@Microsoft@@QBEMXZ="C:\Windows\SysWOW64\MapRouter".?get_compass_heading@ManeuverVoiceInfo@ngeo@Microsoft@@QBEMXZ
  ?get_compensated_output_latency_s@OutputEngine@ngeo@Microsoft@@QBEIXZ="C:\Windows\SysWOW64\MapRouter".?get_compensated_output_latency_s@OutputEngine@ngeo@Microsoft@@QBEIXZ
  ?get_coordinates@Location@ngeo@Microsoft@@QBEABVGeoCoordinates@23@XZ="C:\Windows\SysWOW64\MapRouter".?get_coordinates@Location@ngeo@Microsoft@@QBEABVGeoCoordinates@23@XZ
  ?get_coordinates@TrafficEventObject@ngeo@Microsoft@@QBEABVGeoCoordinates@23@XZ="C:\Windows\SysWOW64\MapRouter".?get_coordinates@TrafficEventObject@ngeo@Microsoft@@QBEABVGeoCoordinates@23@XZ
  ?get_count@MetricsInfo@ngeo@Microsoft@@QBE_KXZ="C:\Windows\SysWOW64\MapRouter".?get_count@MetricsInfo@ngeo@Microsoft@@QBE_KXZ
  ?get_counter_map@StatRepository@nmacore@Microsoft@@QBEPBV?$map@V?$basic_string@GU?$char_traits@G@std@@V?$allocator@G@2@@std@@PAVStatEvents@nmacore@Microsoft@@U?$less@V?$basic_string@GU?$char_traits@G@std@@V?$allocator@G@2@@std@@@2@V?$allocator@U?$pair@$$CBV?$basic_string@GU?$char_traits@G@std@@V?$allocator@G@2@@std@@PAVStatEvents@nmacore@Microsoft@@@std@@@2@@std@@XZ="C:\Windows\SysWOW64\MapRouter".?get_counter_map@StatRepository@nmacore@Microsoft@@QBEPBV?$map@V?$basic_string@GU?$char_traits@G@std@@V?$allocator@G@2@@std@@PAVStatEvents@nmacore@Microsoft@@U?$less@V?$basic_string@GU?$char_traits@G@std@@V?$allocator@G@2@@std@@@2@V?$allocator@U?$pair@$$CBV?$basic_string@GU?$char_traits@G@std@@V?$allocator@G@2@@std@@PAVStatEvents@nmacore@Microsoft@@@std@@@2@@std@@XZ
  ?get_counter_map_global@StatRepository@nmacore@Microsoft@@SGPBV?$map@V?$basic_string@GU?$char_traits@G@std@@V?$allocator@G@2@@std@@PAVStatEvents@nmacore@Microsoft@@U?$less@V?$basic_string@GU?$char_traits@G@std@@V?$allocator@G@2@@std@@@2@V?$allocator@U?$pair@$$CBV?$basic_string@GU?$char_traits@G@std@@V?$allocator@G@2@@std@@PAVStatEvents@nmacore@Microsoft@@@std@@@2@@std@@XZ="C:\Windows\SysWOW64\MapRouter".?get_counter_map_global@StatRepository@nmacore@Microsoft@@SGPBV?$map@V?$basic_string@GU?$char_traits@G@std@@V?$allocator@G@2@@std@@PAVStatEvents@nmacore@Microsoft@@U?$less@V?$basic_string@GU?$char_traits@G@std@@V?$allocator@G@2@@std@@@2@V?$allocator@U?$pair@$$CBV?$basic_string@GU?$char_traits@G@std@@V?$allocator@G@2@@std@@PAVStatEvents@nmacore@Microsoft@@@std@@@2@@std@@XZ
  ?get_country@Guidance@ngeo@Microsoft@@QBE?AW4ErrorCode@errorcodes@msngeo@@AAV?$basic_string@GU?$char_traits@G@std@@V?$allocator@G@2@@std@@@Z="C:\Windows\SysWOW64\MapRouter".?get_country@Guidance@ngeo@Microsoft@@QBE?AW4ErrorCode@errorcodes@msngeo@@AAV?$basic_string@GU?$char_traits@G@std@@V?$allocator@G@2@@std@@@Z
  ?get_country@SimpleGuidance@naviplayer@Microsoft@@QBE?AW4ErrorCode@errorcodes@msngeo@@AAV?$basic_string@GU?$char_traits@G@std@@V?$allocator@G@2@@std@@@Z="C:\Windows\SysWOW64\MapRouter".?get_country@SimpleGuidance@naviplayer@Microsoft@@QBE?AW4ErrorCode@errorcodes@msngeo@@AAV?$basic_string@GU?$char_traits@G@std@@V?$allocator@G@2@@std@@@Z
  ?get_country_name@ItineraryWarningAdminDivChange@ngeo@Microsoft@@QBEABV?$basic_string@GU?$char_traits@G@std@@V?$allocator@G@2@@std@@XZ="C:\Windows\SysWOW64\MapRouter".?get_country_name@ItineraryWarningAdminDivChange@ngeo@Microsoft@@QBEABV?$basic_string@GU?$char_traits@G@std@@V?$allocator@G@2@@std@@XZ
  ?get_course_degrees@Location@ngeo@Microsoft@@QBENXZ="C:\Windows\SysWOW64\MapRouter".?get_course_degrees@Location@ngeo@Microsoft@@QBENXZ
  ?get_current_road_name@Maneuver@ngeo@Microsoft@@QBEABV?$basic_string@GU?$char_traits@G@std@@V?$allocator@G@2@@std@@XZ="C:\Windows\SysWOW64\MapRouter".?get_current_road_name@Maneuver@ngeo@Microsoft@@QBEABV?$basic_string@GU?$char_traits@G@std@@V?$allocator@G@2@@std@@XZ
  ?get_current_road_number@Maneuver@ngeo@Microsoft@@QBEABV?$basic_string@GU?$char_traits@G@std@@V?$allocator@G@2@@std@@XZ="C:\Windows\SysWOW64\MapRouter".?get_current_road_number@Maneuver@ngeo@Microsoft@@QBEABV?$basic_string@GU?$char_traits@G@std@@V?$allocator@G@2@@std@@XZ
  ?get_current_routeleg@Guidance@ngeo@Microsoft@@QBEIXZ="C:\Windows\SysWOW64\MapRouter".?get_current_routeleg@Guidance@ngeo@Microsoft@@QBEIXZ
  ?get_current_speed_ms@Guidance@ngeo@Microsoft@@QBENXZ="C:\Windows\SysWOW64\MapRouter".?get_current_speed_ms@Guidance@ngeo@Microsoft@@QBENXZ
  ?get_data_source@TransitStopInfo@ngeo@Microsoft@@QBEABV?$basic_string@GU?$char_traits@G@std@@V?$allocator@G@2@@std@@XZ="C:\Windows\SysWOW64\MapRouter".?get_data_source@TransitStopInfo@ngeo@Microsoft@@QBEABV?$basic_string@GU?$char_traits@G@std@@V?$allocator@G@2@@std@@XZ
  ?get_date@DateTime@ngeo@Microsoft@@QBEABVDate@23@XZ="C:\Windows\SysWOW64\MapRouter".?get_date@DateTime@ngeo@Microsoft@@QBEABVDate@23@XZ
  ?get_day@Date@ngeo@Microsoft@@QBEEXZ="C:\Windows\SysWOW64\MapRouter".?get_day@Date@ngeo@Microsoft@@QBEEXZ
  ?get_default_source@Traffic@ngeo@Microsoft@@QAE?AW4ErrorCode@errorcodes@msngeo@@AAVTrafficSource@23@@Z="C:\Windows\SysWOW64\MapRouter".?get_default_source@Traffic@ngeo@Microsoft@@QAE?AW4ErrorCode@errorcodes@msngeo@@AAVTrafficSource@23@@Z
  ?get_delivery_buffer_size@TtsOptions@ngeo@Microsoft@@QBEIXZ="C:\Windows\SysWOW64\MapRouter".?get_delivery_buffer_size@TtsOptions@ngeo@Microsoft@@QBEIXZ
  ?get_departing_lines@TransitStopInfo@ngeo@Microsoft@@QBEXAAV?$vector@VEdgeId@smart5@Microsoft@@V?$allocator@VEdgeId@smart5@Microsoft@@@std@@@std@@@Z="C:\Windows\SysWOW64\MapRouter".?get_departing_lines@TransitStopInfo@ngeo@Microsoft@@QBEXAAV?$vector@VEdgeId@smart5@Microsoft@@V?$allocator@VEdgeId@smart5@Microsoft@@@std@@@std@@@Z
  ?get_departing_systems@TransitStopInfo@ngeo@Microsoft@@QBEXAAV?$vector@VEdgeId@smart5@Microsoft@@V?$allocator@VEdgeId@smart5@Microsoft@@@std@@@std@@@Z="C:\Windows\SysWOW64\MapRouter".?get_departing_systems@TransitStopInfo@ngeo@Microsoft@@QBEXAAV?$vector@VEdgeId@smart5@Microsoft@@V?$allocator@VEdgeId@smart5@Microsoft@@@std@@@std@@@Z
  ?get_departure_station@TransitRouteElement@ngeo@Microsoft@@QBEABVTransitRouteStop@23@XZ="C:\Windows\SysWOW64\MapRouter".?get_departure_station@TransitRouteElement@ngeo@Microsoft@@QBEABVTransitRouteStop@23@XZ
  ?get_departure_time@Route@ngeo@Microsoft@@QBEJXZ="C:\Windows\SysWOW64\MapRouter".?get_departure_time@Route@ngeo@Microsoft@@QBEJXZ
  ?get_departure_time@TransitRouteElement@ngeo@Microsoft@@QBE?AVDateTime@23@XZ="C:\Windows\SysWOW64\MapRouter".?get_departure_time@TransitRouteElement@ngeo@Microsoft@@QBE?AVDateTime@23@XZ
  ?get_description@RouteWaypoint@ngeo@Microsoft@@QBEABV?$basic_string@GU?$char_traits@G@std@@V?$allocator@G@2@@std@@XZ="C:\Windows\SysWOW64\MapRouter".?get_description@RouteWaypoint@ngeo@Microsoft@@QBEABV?$basic_string@GU?$char_traits@G@std@@V?$allocator@G@2@@std@@XZ
  ?get_description@VoiceSkin@ngeo@Microsoft@@QBEABV?$basic_string@GU?$char_traits@G@std@@V?$allocator@G@2@@std@@XZ="C:\Windows\SysWOW64\MapRouter".?get_description@VoiceSkin@ngeo@Microsoft@@QBEABV?$basic_string@GU?$char_traits@G@std@@V?$allocator@G@2@@std@@XZ
  ?get_destination@TransitRouteElement@ngeo@Microsoft@@QBEABV?$basic_string@GU?$char_traits@G@std@@V?$allocator@G@2@@std@@XZ="C:\Windows\SysWOW64\MapRouter".?get_destination@TransitRouteElement@ngeo@Microsoft@@QBEABV?$basic_string@GU?$char_traits@G@std@@V?$allocator@G@2@@std@@XZ
  ?get_direction@RoadElementPenalty@DynamicPenalty@ngeo@Microsoft@@QBE?AW4DrivingDirection@34@XZ="C:\Windows\SysWOW64\MapRouter".?get_direction@RoadElementPenalty@DynamicPenalty@ngeo@Microsoft@@QBE?AW4DrivingDirection@34@XZ
  ?get_directions@LaneInfo@ngeo@Microsoft@@QBEABV?$vector@W4DIRECTION@LaneInfo@ngeo@Microsoft@@V?$allocator@W4DIRECTION@LaneInfo@ngeo@Microsoft@@@std@@@std@@XZ="C:\Windows\SysWOW64\MapRouter".?get_directions@LaneInfo@ngeo@Microsoft@@QBEABV?$vector@W4DIRECTION@LaneInfo@ngeo@Microsoft@@V?$allocator@W4DIRECTION@LaneInfo@ngeo@Microsoft@@@std@@@std@@XZ
  ?get_directions@SignpostLabelVoiceInfo@ngeo@Microsoft@@QBEABVLanguageMapping@23@XZ="C:\Windows\SysWOW64\MapRouter".?get_directions@SignpostLabelVoiceInfo@ngeo@Microsoft@@QBEABVLanguageMapping@23@XZ
  ?get_directions_int@LaneInfo@ngeo@Microsoft@@QBEHXZ="C:\Windows\SysWOW64\MapRouter".?get_directions_int@LaneInfo@ngeo@Microsoft@@QBEHXZ
  ?get_distance@ManeuverVoiceInfo@ngeo@Microsoft@@QBENXZ="C:\Windows\SysWOW64\MapRouter".?get_distance@ManeuverVoiceInfo@ngeo@Microsoft@@QBENXZ
  ?get_distance_from_previous_maneuver_m@Maneuver@ngeo@Microsoft@@QBEIXZ="C:\Windows\SysWOW64\MapRouter".?get_distance_from_previous_maneuver_m@Maneuver@ngeo@Microsoft@@QBEIXZ
  ?get_distance_from_start_m@Maneuver@ngeo@Microsoft@@QBEIXZ="C:\Windows\SysWOW64\MapRouter".?get_distance_from_start_m@Maneuver@ngeo@Microsoft@@QBEIXZ
  ?get_distance_m@GeoCoordinates@ngeo@Microsoft@@QBENABV123@@Z="C:\Windows\SysWOW64\MapRouter".?get_distance_m@GeoCoordinates@ngeo@Microsoft@@QBENABV123@@Z
  ?get_distance_m@SideOfDestinationVoiceInfo@ngeo@Microsoft@@QBEIXZ="C:\Windows\SysWOW64\MapRouter".?get_distance_m@SideOfDestinationVoiceInfo@ngeo@Microsoft@@QBEIXZ
  ?get_distance_m@TrafficNotificationInfo@ngeo@Microsoft@@QBEIXZ="C:\Windows\SysWOW64\MapRouter".?get_distance_m@TrafficNotificationInfo@ngeo@Microsoft@@QBEIXZ
  ?get_distance_to@Traffic@ngeo@Microsoft@@QBE?AW4ErrorCode@errorcodes@msngeo@@ABVTrafficEvent@23@ABVGeoCoordinates@23@AAI@Z="C:\Windows\SysWOW64\MapRouter".?get_distance_to@Traffic@ngeo@Microsoft@@QBE?AW4ErrorCode@errorcodes@msngeo@@ABVTrafficEvent@23@ABVGeoCoordinates@23@AAI@Z
  ?get_distance_to_maneuver_m@Guidance@ngeo@Microsoft@@QBE_KABVManeuver@23@@Z="C:\Windows\SysWOW64\MapRouter".?get_distance_to_maneuver_m@Guidance@ngeo@Microsoft@@QBE_KABVManeuver@23@@Z
  ?get_distance_to_next_maneuver@Maneuver@ngeo@Microsoft@@QBEIXZ="C:\Windows\SysWOW64\MapRouter".?get_distance_to_next_maneuver@Maneuver@ngeo@Microsoft@@QBEIXZ
  ?get_dynamic_penalty@SimpleGuidance@naviplayer@Microsoft@@QBEABVDynamicPenalty@ngeo@3@XZ="C:\Windows\SysWOW64\MapRouter".?get_dynamic_penalty@SimpleGuidance@naviplayer@Microsoft@@QBEABVDynamicPenalty@ngeo@3@XZ
  ?get_egress_coordinates@TransitRouteStop@ngeo@Microsoft@@QBE?AVGeoCoordinates@23@XZ="C:\Windows\SysWOW64\MapRouter".?get_egress_coordinates@TransitRouteStop@ngeo@Microsoft@@QBE?AVGeoCoordinates@23@XZ
  ?get_elapsed_distance_m@Guidance@ngeo@Microsoft@@QBE_KW4RouteScope@123@@Z="C:\Windows\SysWOW64\MapRouter".?get_elapsed_distance_m@Guidance@ngeo@Microsoft@@QBE_KW4RouteScope@123@@Z
  ?get_elapsed_time_s@Guidance@ngeo@Microsoft@@QBE_KXZ="C:\Windows\SysWOW64\MapRouter".?get_elapsed_time_s@Guidance@ngeo@Microsoft@@QBE_KXZ
  ?get_end_segment@Maneuver@ngeo@Microsoft@@QBEIXZ="C:\Windows\SysWOW64\MapRouter".?get_end_segment@Maneuver@ngeo@Microsoft@@QBEIXZ
  ?get_end_time@TimeInterval@ngeo@Microsoft@@QBEABVTime@23@XZ="C:\Windows\SysWOW64\MapRouter".?get_end_time@TimeInterval@ngeo@Microsoft@@QBEABVTime@23@XZ
  ?get_estimated@MapMatcher@ngeo@Microsoft@@QBE?AVMapMatchedLocation@23@ABVGuidance@23@@Z="C:\Windows\SysWOW64\MapRouter".?get_estimated@MapMatcher@ngeo@Microsoft@@QBE?AVMapMatchedLocation@23@ABVGuidance@23@@Z
  ?get_estimated_speed_limit@Traffic@ngeo@Microsoft@@QBE?AW4ErrorCode@errorcodes@msngeo@@ABVTrafficEvent@23@AAE@Z="C:\Windows\SysWOW64\MapRouter".?get_estimated_speed_limit@Traffic@ngeo@Microsoft@@QBE?AW4ErrorCode@errorcodes@msngeo@@ABVTrafficEvent@23@AAE@Z
  ?get_eta@Route@ngeo@Microsoft@@QBE?AW4RouteETAValidity@123@AAVDateTime@23@0ABV523@ABVDynamicPenalty@23@@Z="C:\Windows\SysWOW64\MapRouter".?get_eta@Route@ngeo@Microsoft@@QBE?AW4RouteETAValidity@123@AAVDateTime@23@0ABV523@ABVDynamicPenalty@23@@Z
  ?get_eta_s@Guidance@ngeo@Microsoft@@QBE_KW4RouteScope@123@ABVDynamicPenalty@23@@Z="C:\Windows\SysWOW64\MapRouter".?get_eta_s@Guidance@ngeo@Microsoft@@QBE_KW4RouteScope@123@ABVDynamicPenalty@23@@Z
  ?get_event@TrafficNotificationInfo@ngeo@Microsoft@@QBEABVTrafficEvent@23@XZ="C:\Windows\SysWOW64\MapRouter".?get_event@TrafficNotificationInfo@ngeo@Microsoft@@QBEABVTrafficEvent@23@XZ
  ?get_event_text@Traffic@ngeo@Microsoft@@QBE?AW4ErrorCode@errorcodes@msngeo@@ABVTrafficEvent@23@AAV?$basic_string@GU?$char_traits@G@std@@V?$allocator@G@2@@std@@@Z="C:\Windows\SysWOW64\MapRouter".?get_event_text@Traffic@ngeo@Microsoft@@QBE?AW4ErrorCode@errorcodes@msngeo@@ABVTrafficEvent@23@AAV?$basic_string@GU?$char_traits@G@std@@V?$allocator@G@2@@std@@@Z
  ?get_event_text@Traffic@ngeo@Microsoft@@QBE?AW4ErrorCode@errorcodes@msngeo@@ABVTrafficEvent@23@ABV?$basic_string@GU?$char_traits@G@std@@V?$allocator@G@2@@std@@AAV89@@Z="C:\Windows\SysWOW64\MapRouter".?get_event_text@Traffic@ngeo@Microsoft@@QBE?AW4ErrorCode@errorcodes@msngeo@@ABVTrafficEvent@23@ABV?$basic_string@GU?$char_traits@G@std@@V?$allocator@G@2@@std@@AAV89@@Z
  ?get_events_on@Traffic@ngeo@Microsoft@@QBE?AW4ErrorCode@errorcodes@msngeo@@ABVEdgeId@smart5@3@W4DrivingDirection@23@AAVTrafficVisitor@23@@Z="C:\Windows\SysWOW64\MapRouter".?get_events_on@Traffic@ngeo@Microsoft@@QBE?AW4ErrorCode@errorcodes@msngeo@@ABVEdgeId@smart5@3@W4DrivingDirection@23@AAVTrafficVisitor@23@@Z
  ?get_events_on@Traffic@ngeo@Microsoft@@QBE?AW4ErrorCode@errorcodes@msngeo@@ABVRoute@23@AAVTrafficVisitor@23@@Z="C:\Windows\SysWOW64\MapRouter".?get_events_on@Traffic@ngeo@Microsoft@@QBE?AW4ErrorCode@errorcodes@msngeo@@ABVRoute@23@AAVTrafficVisitor@23@@Z
  ?get_exit_directions@Signpost@ngeo@Microsoft@@UBEABV?$vector@ULocalizedLabel@ISignpost@msngeo@@V?$allocator@ULocalizedLabel@ISignpost@msngeo@@@std@@@std@@XZ="C:\Windows\SysWOW64\MapRouter".?get_exit_directions@Signpost@ngeo@Microsoft@@UBEABV?$vector@ULocalizedLabel@ISignpost@msngeo@@V?$allocator@ULocalizedLabel@ISignpost@msngeo@@@std@@@std@@XZ
  ?get_exit_icon@Signpost@ngeo@Microsoft@@QBEABVIcon@23@XZ="C:\Windows\SysWOW64\MapRouter".?get_exit_icon@Signpost@ngeo@Microsoft@@QBEABVIcon@23@XZ
  ?get_exit_names@SignpostVoiceInfo@ngeo@Microsoft@@QBEABVLanguageMapping@23@XZ="C:\Windows\SysWOW64\MapRouter".?get_exit_names@SignpostVoiceInfo@ngeo@Microsoft@@QBEABVLanguageMapping@23@XZ
  ?get_exit_number@Maneuver@ngeo@Microsoft@@SGIW4TurnId@123@@Z="C:\Windows\SysWOW64\MapRouter".?get_exit_number@Maneuver@ngeo@Microsoft@@SGIW4TurnId@123@@Z
  ?get_exit_number@Signpost@ngeo@Microsoft@@UBEABV?$basic_string@GU?$char_traits@G@std@@V?$allocator@G@2@@std@@XZ="C:\Windows\SysWOW64\MapRouter".?get_exit_number@Signpost@ngeo@Microsoft@@UBEABV?$basic_string@GU?$char_traits@G@std@@V?$allocator@G@2@@std@@XZ
  ?get_exit_numbers@SignpostVoiceInfo@ngeo@Microsoft@@QBEABVLanguageMapping@23@XZ="C:\Windows\SysWOW64\MapRouter".?get_exit_numbers@SignpostVoiceInfo@ngeo@Microsoft@@QBEABVLanguageMapping@23@XZ
  ?get_exit_text@Signpost@ngeo@Microsoft@@QBEABV?$basic_string@GU?$char_traits@G@std@@V?$allocator@G@2@@std@@XZ="C:\Windows\SysWOW64\MapRouter".?get_exit_text@Signpost@ngeo@Microsoft@@QBEABV?$basic_string@GU?$char_traits@G@std@@V?$allocator@G@2@@std@@XZ
  ?get_failures@MetricsInfo@ngeo@Microsoft@@QBE_KXZ="C:\Windows\SysWOW64\MapRouter".?get_failures@MetricsInfo@ngeo@Microsoft@@QBE_KXZ
  ?get_feature_list@VoiceSkin@ngeo@Microsoft@@QBEABV?$vector@W4Feature@VoiceSkin@ngeo@Microsoft@@V?$allocator@W4Feature@VoiceSkin@ngeo@Microsoft@@@std@@@std@@XZ="C:\Windows\SysWOW64\MapRouter".?get_feature_list@VoiceSkin@ngeo@Microsoft@@QBEABV?$vector@W4Feature@VoiceSkin@ngeo@Microsoft@@V?$allocator@W4Feature@VoiceSkin@ngeo@Microsoft@@@std@@@std@@XZ
  ?get_feature_num@Version@ngeo@Microsoft@@QBEIXZ="C:\Windows\SysWOW64\MapRouter".?get_feature_num@Version@ngeo@Microsoft@@QBEIXZ
  ?get_feature_weight@RouteOptions@ngeo@Microsoft@@QBE?AW4FeatureWeight@123@W4FeatureType@123@@Z="C:\Windows\SysWOW64\MapRouter".?get_feature_weight@RouteOptions@ngeo@Microsoft@@QBE?AW4FeatureWeight@123@W4FeatureType@123@@Z
  ?get_first_affected_street@Traffic@ngeo@Microsoft@@QBE?AW4ErrorCode@errorcodes@msngeo@@ABVTrafficEvent@23@AAV?$basic_string@GU?$char_traits@G@std@@V?$allocator@G@2@@std@@@Z="C:\Windows\SysWOW64\MapRouter".?get_first_affected_street@Traffic@ngeo@Microsoft@@QBE?AW4ErrorCode@errorcodes@msngeo@@ABVTrafficEvent@23@AAV?$basic_string@GU?$char_traits@G@std@@V?$allocator@G@2@@std@@@Z
  ?get_first_breakout_street@ManeuverVoiceInfo@ngeo@Microsoft@@QBEABVStreetVoiceInfo@23@XZ="C:\Windows\SysWOW64\MapRouter".?get_first_breakout_street@ManeuverVoiceInfo@ngeo@Microsoft@@QBEABVStreetVoiceInfo@23@XZ
  ?get_first_maneuver@VoiceCommandInfo@ngeo@Microsoft@@QBEABVManeuverVoiceInfo@23@XZ="C:\Windows\SysWOW64\MapRouter".?get_first_maneuver@VoiceCommandInfo@ngeo@Microsoft@@QBEABVManeuverVoiceInfo@23@XZ
  ?get_first_stop_waypoint_index@RoutePlan@ngeo@Microsoft@@QBEIXZ="C:\Windows\SysWOW64\MapRouter".?get_first_stop_waypoint_index@RoutePlan@ngeo@Microsoft@@QBEIXZ
  ?get_first_subleg_index@Route@ngeo@Microsoft@@QBE?AW4ErrorCode@errorcodes@msngeo@@IAAI@Z="C:\Windows\SysWOW64\MapRouter".?get_first_subleg_index@Route@ngeo@Microsoft@@QBE?AW4ErrorCode@errorcodes@msngeo@@IAAI@Z
  ?get_flow_events@Traffic@ngeo@Microsoft@@QBE?AW4ErrorCode@errorcodes@msngeo@@AAVTrafficVisitor@23@@Z="C:\Windows\SysWOW64\MapRouter".?get_flow_events@Traffic@ngeo@Microsoft@@QBE?AW4ErrorCode@errorcodes@msngeo@@AAVTrafficVisitor@23@@Z
  ?get_foreground_color@Signpost@ngeo@Microsoft@@QBEABVColor@23@XZ="C:\Windows\SysWOW64\MapRouter".?get_foreground_color@Signpost@ngeo@Microsoft@@QBEABVColor@23@XZ
  ?get_form_of_way@RoadElement@ngeo@Microsoft@@QBE?AW4FormOfWay@123@XZ="C:\Windows\SysWOW64\MapRouter".?get_form_of_way@RoadElement@ngeo@Microsoft@@QBE?AW4FormOfWay@123@XZ
  ?get_frequency@VoiceSkin@ngeo@Microsoft@@QBEABV?$basic_string@GU?$char_traits@G@std@@V?$allocator@G@2@@std@@XZ="C:\Windows\SysWOW64\MapRouter".?get_frequency@VoiceSkin@ngeo@Microsoft@@QBEABV?$basic_string@GU?$char_traits@G@std@@V?$allocator@G@2@@std@@XZ
  ?get_from_streets@Traffic@ngeo@Microsoft@@QBE?AW4ErrorCode@errorcodes@msngeo@@ABVTrafficEvent@23@AAV?$basic_string@GU?$char_traits@G@std@@V?$allocator@G@2@@std@@@Z="C:\Windows\SysWOW64\MapRouter".?get_from_streets@Traffic@ngeo@Microsoft@@QBE?AW4ErrorCode@errorcodes@msngeo@@ABVTrafficEvent@23@AAV?$basic_string@GU?$char_traits@G@std@@V?$allocator@G@2@@std@@@Z
  ?get_functional_road_class@RoadElement@ngeo@Microsoft@@QBEEXZ="C:\Windows\SysWOW64\MapRouter".?get_functional_road_class@RoadElement@ngeo@Microsoft@@QBEEXZ
  ?get_gender@VoiceSkin@ngeo@Microsoft@@QBEABV?$basic_string@GU?$char_traits@G@std@@V?$allocator@G@2@@std@@XZ="C:\Windows\SysWOW64\MapRouter".?get_gender@VoiceSkin@ngeo@Microsoft@@QBEABV?$basic_string@GU?$char_traits@G@std@@V?$allocator@G@2@@std@@XZ
  ?get_geometry@RoadElement@ngeo@Microsoft@@QBE?AW4ErrorCode@errorcodes@msngeo@@AAVGeoPolyline@23@@Z="C:\Windows\SysWOW64\MapRouter".?get_geometry@RoadElement@ngeo@Microsoft@@QBE?AW4ErrorCode@errorcodes@msngeo@@AAVGeoPolyline@23@@Z
  ?get_geometry@RouteElement@ngeo@Microsoft@@QBE?AW4ErrorCode@errorcodes@msngeo@@AAVGeoPolyline@23@@Z="C:\Windows\SysWOW64\MapRouter".?get_geometry@RouteElement@ngeo@Microsoft@@QBE?AW4ErrorCode@errorcodes@msngeo@@AAVGeoPolyline@23@@Z
  ?get_geometry@RouteElements@ngeo@Microsoft@@QAE?AW4ErrorCode@errorcodes@msngeo@@AAVGeoPolyline@23@@Z="C:\Windows\SysWOW64\MapRouter".?get_geometry@RouteElements@ngeo@Microsoft@@QAE?AW4ErrorCode@errorcodes@msngeo@@AAVGeoPolyline@23@@Z
  ?get_geometry@RouteElements@ngeo@Microsoft@@QAE?AW4ErrorCode@errorcodes@msngeo@@AAVGeoPolyline@23@II@Z="C:\Windows\SysWOW64\MapRouter".?get_geometry@RouteElements@ngeo@Microsoft@@QAE?AW4ErrorCode@errorcodes@msngeo@@AAVGeoPolyline@23@II@Z
  ?get_geometry@TransitRouteElement@ngeo@Microsoft@@QBE?AW4ErrorCode@errorcodes@msngeo@@AAVGeoPolyline@23@@Z="C:\Windows\SysWOW64\MapRouter".?get_geometry@TransitRouteElement@ngeo@Microsoft@@QBE?AW4ErrorCode@errorcodes@msngeo@@AAVGeoPolyline@23@@Z
  ?get_geometry_from_elements@RoadElement@ngeo@Microsoft@@SG?AW4ErrorCode@errorcodes@msngeo@@ABV?$vector@VRoadElement@ngeo@Microsoft@@V?$allocator@VRoadElement@ngeo@Microsoft@@@std@@@std@@AAVGeoPolyline@23@@Z="C:\Windows\SysWOW64\MapRouter".?get_geometry_from_elements@RoadElement@ngeo@Microsoft@@SG?AW4ErrorCode@errorcodes@msngeo@@ABV?$vector@VRoadElement@ngeo@Microsoft@@V?$allocator@VRoadElement@ngeo@Microsoft@@@std@@@std@@AAVGeoPolyline@23@@Z
  ?get_global@StatRepository@nmacore@Microsoft@@SGPAV123@XZ="C:\Windows\SysWOW64\MapRouter".?get_global@StatRepository@nmacore@Microsoft@@SGPAV123@XZ
  ?get_gps_location@VoiceCommandInfo@ngeo@Microsoft@@QBEABVStreetVoiceInfo@23@XZ="C:\Windows\SysWOW64\MapRouter".?get_gps_location@VoiceCommandInfo@ngeo@Microsoft@@QBEABVStreetVoiceInfo@23@XZ
  ?get_green@Color@ngeo@Microsoft@@QBEEXZ="C:\Windows\SysWOW64\MapRouter".?get_green@Color@ngeo@Microsoft@@QBEEXZ
  ?get_gridLoader@MapModel@ngeo@Microsoft@@QBEABV?$PresentSharedPtr@$$CBVRoutingGridLoader@smart5@Microsoft@@@Core@@XZ="C:\Windows\SysWOW64\MapRouter".?get_gridLoader@MapModel@ngeo@Microsoft@@QBEABV?$PresentSharedPtr@$$CBVRoutingGridLoader@smart5@Microsoft@@@Core@@XZ
  ?get_grid_height@PixelRect@ngeo@Microsoft@@QBEIXZ="C:\Windows\SysWOW64\MapRouter".?get_grid_height@PixelRect@ngeo@Microsoft@@QBEIXZ
  ?get_grid_height@SizeInPixels@ngeo@Microsoft@@QBEIXZ="C:\Windows\SysWOW64\MapRouter".?get_grid_height@SizeInPixels@ngeo@Microsoft@@QBEIXZ
  ?get_grid_width@PixelRect@ngeo@Microsoft@@QBEIXZ="C:\Windows\SysWOW64\MapRouter".?get_grid_width@PixelRect@ngeo@Microsoft@@QBEIXZ
  ?get_grid_width@SizeInPixels@ngeo@Microsoft@@QBEIXZ="C:\Windows\SysWOW64\MapRouter".?get_grid_width@SizeInPixels@ngeo@Microsoft@@QBEIXZ
  ?get_grid_x@PixelCoordinates@ngeo@Microsoft@@QBEHXZ="C:\Windows\SysWOW64\MapRouter".?get_grid_x@PixelCoordinates@ngeo@Microsoft@@QBEHXZ
  ?get_grid_y@PixelCoordinates@ngeo@Microsoft@@QBEHXZ="C:\Windows\SysWOW64\MapRouter".?get_grid_y@PixelCoordinates@ngeo@Microsoft@@QBEHXZ
  ?get_guidance@SimpleGuidance@naviplayer@Microsoft@@QBEABVGuidance@ngeo@3@XZ="C:\Windows\SysWOW64\MapRouter".?get_guidance@SimpleGuidance@naviplayer@Microsoft@@QBEABVGuidance@ngeo@3@XZ
  ?get_head_to_mode@GuidanceOptions@ngeo@Microsoft@@QBEIXZ="C:\Windows\SysWOW64\MapRouter".?get_head_to_mode@GuidanceOptions@ngeo@Microsoft@@QBEIXZ
  ?get_heading@GeoCoordinates@ngeo@Microsoft@@QBENABV123@@Z="C:\Windows\SysWOW64\MapRouter".?get_heading@GeoCoordinates@ngeo@Microsoft@@QBENABV123@@Z
  ?get_heading_radians@GeoCoordinates@ngeo@Microsoft@@QBENABV123@@Z="C:\Windows\SysWOW64\MapRouter".?get_heading_radians@GeoCoordinates@ngeo@Microsoft@@QBENABV123@@Z
  ?get_height@RenderBuffer@ngeo@Microsoft@@UBEIXZ="C:\Windows\SysWOW64\MapRouter".?get_height@RenderBuffer@ngeo@Microsoft@@UBEIXZ
  ?get_height@SizeInPixels@ngeo@Microsoft@@QBEMXZ="C:\Windows\SysWOW64\MapRouter".?get_height@SizeInPixels@ngeo@Microsoft@@QBEMXZ
  ?get_height@Surface@ngeo@Microsoft@@UBEIXZ="C:\Windows\SysWOW64\MapRouter".?get_height@Surface@ngeo@Microsoft@@UBEIXZ
  ?get_high_speed_boundary_m_s@SpeedWarnerOptions@ngeo@Microsoft@@QBEMXZ="C:\Windows\SysWOW64\MapRouter".?get_high_speed_boundary_m_s@SpeedWarnerOptions@ngeo@Microsoft@@QBEMXZ
  ?get_high_speed_offset_m_s@SpeedWarnerOptions@ngeo@Microsoft@@QBEMXZ="C:\Windows\SysWOW64\MapRouter".?get_high_speed_offset_m_s@SpeedWarnerOptions@ngeo@Microsoft@@QBEMXZ
  ?get_hour@Time@ngeo@Microsoft@@QBEEXZ="C:\Windows\SysWOW64\MapRouter".?get_hour@Time@ngeo@Microsoft@@QBEEXZ
  ?get_hsv@Color@ngeo@Microsoft@@QBE?AVHSV@123@XZ="C:\Windows\SysWOW64\MapRouter".?get_hsv@Color@ngeo@Microsoft@@QBE?AVHSV@123@XZ
  ?get_icon@ManeuverUtil@naviplayer@Microsoft@@SG?AW4IconId@123@ABVManeuver@ngeo@3@@Z="C:\Windows\SysWOW64\MapRouter".?get_icon@ManeuverUtil@naviplayer@Microsoft@@SG?AW4IconId@123@ABVManeuver@ngeo@3@@Z
  ?get_icon@ManeuverUtil@naviplayer@Microsoft@@SG?AW4IconId@123@W4ActionId@Maneuver@ngeo@3@W4TurnId@673@W4TrafficDirection@673@I_N33@Z="C:\Windows\SysWOW64\MapRouter".?get_icon@ManeuverUtil@naviplayer@Microsoft@@SG?AW4IconId@123@W4ActionId@Maneuver@ngeo@3@W4TurnId@673@W4TrafficDirection@673@I_N33@Z
  ?get_icon@Traffic@ngeo@Microsoft@@QBE?AVIcon@23@ABVTrafficEvent@23@_N@Z="C:\Windows\SysWOW64\MapRouter".?get_icon@Traffic@ngeo@Microsoft@@QBE?AVIcon@23@ABVTrafficEvent@23@_N@Z
  ?get_icon_size@Icon@ngeo@Microsoft@@QBEABVSizeInPixels@23@XZ="C:\Windows\SysWOW64\MapRouter".?get_icon_size@Icon@ngeo@Microsoft@@QBEABVSizeInPixels@23@XZ
  ?get_id@RoadElementPenalty@DynamicPenalty@ngeo@Microsoft@@QBEAAVEdgeId@smart5@4@XZ="C:\Windows\SysWOW64\MapRouter".?get_id@RoadElementPenalty@DynamicPenalty@ngeo@Microsoft@@QBEAAVEdgeId@smart5@4@XZ
  ?get_id@TransitAccessInfo@ngeo@Microsoft@@QBEABVEdgeId@smart5@3@XZ="C:\Windows\SysWOW64\MapRouter".?get_id@TransitAccessInfo@ngeo@Microsoft@@QBEABVEdgeId@smart5@3@XZ
  ?get_id@TransitLineInfo@ngeo@Microsoft@@QBEABVEdgeId@smart5@3@XZ="C:\Windows\SysWOW64\MapRouter".?get_id@TransitLineInfo@ngeo@Microsoft@@QBEABVEdgeId@smart5@3@XZ
  ?get_id@TransitStopInfo@ngeo@Microsoft@@QBEABVEdgeId@smart5@3@XZ="C:\Windows\SysWOW64\MapRouter".?get_id@TransitStopInfo@ngeo@Microsoft@@QBEABVEdgeId@smart5@3@XZ
  ?get_id@TransitSystemInfo@ngeo@Microsoft@@QBEABVEdgeId@smart5@3@XZ="C:\Windows\SysWOW64\MapRouter".?get_id@TransitSystemInfo@ngeo@Microsoft@@QBEABVEdgeId@smart5@3@XZ
  ?get_id@VoiceSkin@ngeo@Microsoft@@QBEIXZ="C:\Windows\SysWOW64\MapRouter".?get_id@VoiceSkin@ngeo@Microsoft@@QBEIXZ
  ?get_identifier@RoadElement@ngeo@Microsoft@@QBE?AV?$basic_string@GU?$char_traits@G@std@@V?$allocator@G@2@@std@@XZ="C:\Windows\SysWOW64\MapRouter".?get_identifier@RoadElement@ngeo@Microsoft@@QBE?AV?$basic_string@GU?$char_traits@G@std@@V?$allocator@G@2@@std@@XZ
  ?get_identifier@TransitRouteElement@ngeo@Microsoft@@QBE?AVEdgeId@smart5@3@XZ="C:\Windows\SysWOW64\MapRouter".?get_identifier@TransitRouteElement@ngeo@Microsoft@@QBE?AVEdgeId@smart5@3@XZ
  ?get_identifier@TransitRouteStop@ngeo@Microsoft@@QBE?AVEdgeId@smart5@3@XZ="C:\Windows\SysWOW64\MapRouter".?get_identifier@TransitRouteStop@ngeo@Microsoft@@QBE?AVEdgeId@smart5@3@XZ
  ?get_incident_events@Traffic@ngeo@Microsoft@@QBE?AW4ErrorCode@errorcodes@msngeo@@AAVTrafficVisitor@23@@Z="C:\Windows\SysWOW64\MapRouter".?get_incident_events@Traffic@ngeo@Microsoft@@QBE?AW4ErrorCode@errorcodes@msngeo@@AAVTrafficVisitor@23@@Z
  ?get_info@Location@ngeo@Microsoft@@QAEAAVLocationInfo@23@XZ="C:\Windows\SysWOW64\MapRouter".?get_info@Location@ngeo@Microsoft@@QAEAAVLocationInfo@23@XZ
  ?get_info@Location@ngeo@Microsoft@@QBEABVLocationInfo@23@XZ="C:\Windows\SysWOW64\MapRouter".?get_info@Location@ngeo@Microsoft@@QBEABVLocationInfo@23@XZ
  ?get_info@TrafficNotification@ngeo@Microsoft@@QBE?AW4ErrorCode@errorcodes@msngeo@@AAV?$vector@VTrafficNotificationInfo@ngeo@Microsoft@@V?$allocator@VTrafficNotificationInfo@ngeo@Microsoft@@@std@@@std@@@Z="C:\Windows\SysWOW64\MapRouter".?get_info@TrafficNotification@ngeo@Microsoft@@QBE?AW4ErrorCode@errorcodes@msngeo@@AAV?$vector@VTrafficNotificationInfo@ngeo@Microsoft@@V?$allocator@VTrafficNotificationInfo@ngeo@Microsoft@@@std@@@std@@@Z
  ?get_info@VoiceSkin@ngeo@Microsoft@@SG?AW4ErrorCode@errorcodes@msngeo@@ABV?$basic_string@GU?$char_traits@G@std@@V?$allocator@G@2@@std@@AAV123@@Z="C:\Windows\SysWOW64\MapRouter".?get_info@VoiceSkin@ngeo@Microsoft@@SG?AW4ErrorCode@errorcodes@msngeo@@ABV?$basic_string@GU?$char_traits@G@std@@V?$allocator@G@2@@std@@AAV123@@Z
  ?get_inform_avoid_output@TrafficWarner@ngeo@Microsoft@@QBE?AW4ErrorCode@errorcodes@msngeo@@AAVTrafficNotification@23@@Z="C:\Windows\SysWOW64\MapRouter".?get_inform_avoid_output@TrafficWarner@ngeo@Microsoft@@QBE?AW4ErrorCode@errorcodes@msngeo@@AAVTrafficNotification@23@@Z
  ?get_informal_name@TransitLineInfo@ngeo@Microsoft@@QBEABV?$basic_string@GU?$char_traits@G@std@@V?$allocator@G@2@@std@@XZ="C:\Windows\SysWOW64\MapRouter".?get_informal_name@TransitLineInfo@ngeo@Microsoft@@QBEABV?$basic_string@GU?$char_traits@G@std@@V?$allocator@G@2@@std@@XZ
  ?get_informal_name@TransitStopInfo@ngeo@Microsoft@@QBEABV?$basic_string@GU?$char_traits@G@std@@V?$allocator@G@2@@std@@XZ="C:\Windows\SysWOW64\MapRouter".?get_informal_name@TransitStopInfo@ngeo@Microsoft@@QBEABV?$basic_string@GU?$char_traits@G@std@@V?$allocator@G@2@@std@@XZ
  ?get_input_location@MapMatchedLocation@ngeo@Microsoft@@QBEABVLocation@23@XZ="C:\Windows\SysWOW64\MapRouter".?get_input_location@MapMatchedLocation@ngeo@Microsoft@@QBEABVLocation@23@XZ
  ?get_interval@OperatingHours@ngeo@Microsoft@@QBEABVTimeInterval@23@W4DayOfWeek@123@I@Z="C:\Windows\SysWOW64\MapRouter".?get_interval@OperatingHours@ngeo@Microsoft@@QBEABVTimeInterval@23@W4DayOfWeek@123@I@Z
  ?get_interval_count@OperatingHours@ngeo@Microsoft@@QBEIW4DayOfWeek@123@@Z="C:\Windows\SysWOW64\MapRouter".?get_interval_count@OperatingHours@ngeo@Microsoft@@QBEIW4DayOfWeek@123@@Z
  ?get_invalid_icon@Icon@ngeo@Microsoft@@SGABV123@XZ="C:\Windows\SysWOW64\MapRouter".?get_invalid_icon@Icon@ngeo@Microsoft@@SGABV123@XZ
  ?get_invalid_transit_route_options@TransitRouteOptions@ngeo@Microsoft@@SGABV123@XZ="C:\Windows\SysWOW64\MapRouter".?get_invalid_transit_route_options@TransitRouteOptions@ngeo@Microsoft@@SGABV123@XZ
  ?get_invalid_transit_route_stop@TransitRouteStop@ngeo@Microsoft@@SGABV123@XZ="C:\Windows\SysWOW64\MapRouter".?get_invalid_transit_route_stop@TransitRouteStop@ngeo@Microsoft@@SGABV123@XZ
  ?get_itinerary_warning@Maneuver@ngeo@Microsoft@@QBEPAVItineraryWarning@23@I@Z="C:\Windows\SysWOW64\MapRouter".?get_itinerary_warning@Maneuver@ngeo@Microsoft@@QBEPAVItineraryWarning@23@I@Z
  ?get_itinerary_warning_count@Maneuver@ngeo@Microsoft@@QBEIXZ="C:\Windows\SysWOW64\MapRouter".?get_itinerary_warning_count@Maneuver@ngeo@Microsoft@@QBEIXZ
  ?get_junction_icon@ManeuverUtil@naviplayer@Microsoft@@CG?AW4IconId@123@W4ActionId@Maneuver@ngeo@3@W4TurnId@673@I@Z="C:\Windows\SysWOW64\MapRouter".?get_junction_icon@ManeuverUtil@naviplayer@Microsoft@@CG?AW4IconId@123@W4ActionId@Maneuver@ngeo@3@W4TurnId@673@I@Z
  ?get_labels@SignpostVoiceInfo@ngeo@Microsoft@@QBEABV?$vector@VSignpostLabelVoiceInfo@ngeo@Microsoft@@V?$allocator@VSignpostLabelVoiceInfo@ngeo@Microsoft@@@std@@@std@@XZ="C:\Windows\SysWOW64\MapRouter".?get_labels@SignpostVoiceInfo@ngeo@Microsoft@@QBEABV?$vector@VSignpostLabelVoiceInfo@ngeo@Microsoft@@V?$allocator@VSignpostLabelVoiceInfo@ngeo@Microsoft@@@std@@@std@@XZ
  ?get_language@MicrosoftTtsVoiceInfo@ngeo@Microsoft@@QBEABV?$basic_string@GU?$char_traits@G@std@@V?$allocator@G@2@@std@@XZ="C:\Windows\SysWOW64\MapRouter".?get_language@MicrosoftTtsVoiceInfo@ngeo@Microsoft@@QBEABV?$basic_string@GU?$char_traits@G@std@@V?$allocator@G@2@@std@@XZ
  ?get_language@RouteOptions@ngeo@Microsoft@@QBEABV?$basic_string@GU?$char_traits@G@std@@V?$allocator@G@2@@std@@XZ="C:\Windows\SysWOW64\MapRouter".?get_language@RouteOptions@ngeo@Microsoft@@QBEABV?$basic_string@GU?$char_traits@G@std@@V?$allocator@G@2@@std@@XZ
  ?get_language@TtsVoiceInfo@ngeo@Microsoft@@QBEABV?$basic_string@GU?$char_traits@G@std@@V?$allocator@G@2@@std@@XZ="C:\Windows\SysWOW64\MapRouter".?get_language@TtsVoiceInfo@ngeo@Microsoft@@QBEABV?$basic_string@GU?$char_traits@G@std@@V?$allocator@G@2@@std@@XZ
  ?get_language@VoiceSkin@ngeo@Microsoft@@QBEABV?$basic_string@GU?$char_traits@G@std@@V?$allocator@G@2@@std@@XZ="C:\Windows\SysWOW64\MapRouter".?get_language@VoiceSkin@ngeo@Microsoft@@QBEABV?$basic_string@GU?$char_traits@G@std@@V?$allocator@G@2@@std@@XZ
  ?get_language_code@LanguageKeyValuePair@ngeo@Microsoft@@QBEABV?$basic_string@GU?$char_traits@G@std@@V?$allocator@G@2@@std@@XZ="C:\Windows\SysWOW64\MapRouter".?get_language_code@LanguageKeyValuePair@ngeo@Microsoft@@QBEABV?$basic_string@GU?$char_traits@G@std@@V?$allocator@G@2@@std@@XZ
  ?get_last_input@MapMatcher@ngeo@Microsoft@@QBEABVLocation@23@XZ="C:\Windows\SysWOW64\MapRouter".?get_last_input@MapMatcher@ngeo@Microsoft@@QBEABVLocation@23@XZ
  ?get_last_matched@MapMatcher@ngeo@Microsoft@@QBEABVMapMatchedLocation@23@XZ="C:\Windows\SysWOW64\MapRouter".?get_last_matched@MapMatcher@ngeo@Microsoft@@QBEABVMapMatchedLocation@23@XZ
  ?get_last_street_before@Route@ngeo@Microsoft@@QBE?AW4ErrorCode@errorcodes@msngeo@@ABVManeuver@23@AAV?$basic_string@GU?$char_traits@G@std@@V?$allocator@G@2@@std@@@Z="C:\Windows\SysWOW64\MapRouter".?get_last_street_before@Route@ngeo@Microsoft@@QBE?AW4ErrorCode@errorcodes@msngeo@@ABVManeuver@23@AAV?$basic_string@GU?$char_traits@G@std@@V?$allocator@G@2@@std@@@Z
  ?get_latitude@GeoCoordinates@ngeo@Microsoft@@UBENXZ="C:\Windows\SysWOW64\MapRouter".?get_latitude@GeoCoordinates@ngeo@Microsoft@@UBENXZ
  ?get_latitude_radians@GeoCoordinates@ngeo@Microsoft@@QBENXZ="C:\Windows\SysWOW64\MapRouter".?get_latitude_radians@GeoCoordinates@ngeo@Microsoft@@QBENXZ
  ?get_left_exits@ManeuverVoiceInfo@ngeo@Microsoft@@QBEIXZ="C:\Windows\SysWOW64\MapRouter".?get_left_exits@ManeuverVoiceInfo@ngeo@Microsoft@@QBEIXZ
  ?get_length_m@GeoPolygon@ngeo@Microsoft@@UBENXZ="C:\Windows\SysWOW64\MapRouter".?get_length_m@GeoPolygon@ngeo@Microsoft@@UBENXZ
  ?get_length_m@GeoPolyline@ngeo@Microsoft@@UBENXZ="C:\Windows\SysWOW64\MapRouter".?get_length_m@GeoPolyline@ngeo@Microsoft@@UBENXZ
  ?get_level@TransitAccessInfo@ngeo@Microsoft@@QBEHXZ="C:\Windows\SysWOW64\MapRouter".?get_level@TransitAccessInfo@ngeo@Microsoft@@QBEHXZ
  ?get_line_geometry@TransitRouteElement@ngeo@Microsoft@@QBE?AW4ErrorCode@errorcodes@msngeo@@AAVGeoPolyline@23@@Z="C:\Windows\SysWOW64\MapRouter".?get_line_geometry@TransitRouteElement@ngeo@Microsoft@@QBE?AW4ErrorCode@errorcodes@msngeo@@AAVGeoPolyline@23@@Z
  ?get_line_name@TransitRouteElement@ngeo@Microsoft@@QBEABV?$basic_string@GU?$char_traits@G@std@@V?$allocator@G@2@@std@@XZ="C:\Windows\SysWOW64\MapRouter".?get_line_name@TransitRouteElement@ngeo@Microsoft@@QBEABV?$basic_string@GU?$char_traits@G@std@@V?$allocator@G@2@@std@@XZ
  ?get_line_style@TransitRouteElement@ngeo@Microsoft@@QBE?AW4LineStyle@123@XZ="C:\Windows\SysWOW64\MapRouter".?get_line_style@TransitRouteElement@ngeo@Microsoft@@QBE?AW4LineStyle@123@XZ
  ?get_lines@TransitStopInfo@ngeo@Microsoft@@QBEXAAV?$vector@VEdgeId@smart5@Microsoft@@V?$allocator@VEdgeId@smart5@Microsoft@@@std@@@std@@@Z="C:\Windows\SysWOW64\MapRouter".?get_lines@TransitStopInfo@ngeo@Microsoft@@QBEXAAV?$vector@VEdgeId@smart5@Microsoft@@V?$allocator@VEdgeId@smart5@Microsoft@@@std@@@std@@@Z
  ?get_localeMapConfiguration@MapModel@ngeo@Microsoft@@QBEABV?$PresentSharedPtr@VLocaleMapConfiguration@MapControl@@@Core@@XZ="C:\Windows\SysWOW64\MapRouter".?get_localeMapConfiguration@MapModel@ngeo@Microsoft@@QBEABV?$PresentSharedPtr@VLocaleMapConfiguration@MapControl@@@Core@@XZ
  ?get_location@LocationSource@ngeo@Microsoft@@QBEABVLocation@23@XZ="C:\Windows\SysWOW64\MapRouter".?get_location@LocationSource@ngeo@Microsoft@@QBEABVLocation@23@XZ
  ?get_location@SpeedNotification@ngeo@Microsoft@@QBEABVLocation@23@XZ="C:\Windows\SysWOW64\MapRouter".?get_location@SpeedNotification@ngeo@Microsoft@@QBEABVLocation@23@XZ
  ?get_location_method@Location@ngeo@Microsoft@@QBE?AW4LocationMethod@123@XZ="C:\Windows\SysWOW64\MapRouter".?get_location_method@Location@ngeo@Microsoft@@QBE?AW4LocationMethod@123@XZ
  ?get_longitude@GeoCoordinates@ngeo@Microsoft@@UBENXZ="C:\Windows\SysWOW64\MapRouter".?get_longitude@GeoCoordinates@ngeo@Microsoft@@UBENXZ
  ?get_longitude_radians@GeoCoordinates@ngeo@Microsoft@@QBENXZ="C:\Windows\SysWOW64\MapRouter".?get_longitude_radians@GeoCoordinates@ngeo@Microsoft@@QBENXZ
  ?get_low_speed_offset_m_s@SpeedWarnerOptions@ngeo@Microsoft@@QBEMXZ="C:\Windows\SysWOW64\MapRouter".?get_low_speed_offset_m_s@SpeedWarnerOptions@ngeo@Microsoft@@QBEMXZ
  ?get_main_attributes@VoiceSkin@ngeo@Microsoft@@QBEABV?$map@V?$basic_string@GU?$char_traits@G@std@@V?$allocator@G@2@@std@@V12@U?$less@V?$basic_string@GU?$char_traits@G@std@@V?$allocator@G@2@@std@@@2@V?$allocator@U?$pair@$$CBV?$basic_string@GU?$char_traits@G@std@@V?$allocator@G@2@@std@@V12@@std@@@2@@std@@XZ="C:\Windows\SysWOW64\MapRouter".?get_main_attributes@VoiceSkin@ngeo@Microsoft@@QBEABV?$map@V?$basic_string@GU?$char_traits@G@std@@V?$allocator@G@2@@std@@V12@U?$less@V?$basic_string@GU?$char_traits@G@std@@V?$allocator@G@2@@std@@@2@V?$allocator@U?$pair@$$CBV?$basic_string@GU?$char_traits@G@std@@V?$allocator@G@2@@std@@V12@@std@@@2@@std@@XZ
  ?get_major_num@Version@ngeo@Microsoft@@QBEIXZ="C:\Windows\SysWOW64\MapRouter".?get_major_num@Version@ngeo@Microsoft@@QBEIXZ
  ?get_maneuver_position@ManeuverUtil@naviplayer@Microsoft@@SG?AW4ErrorCode@errorcodes@msngeo@@ABVManeuver@ngeo@3@ABVRoute@83@AAVGeoCoordinates@83@AAG@Z="C:\Windows\SysWOW64\MapRouter".?get_maneuver_position@ManeuverUtil@naviplayer@Microsoft@@SG?AW4ErrorCode@errorcodes@msngeo@@ABVManeuver@ngeo@3@ABVRoute@83@AAVGeoCoordinates@83@AAG@Z
  ?get_maneuver_text@Guidance@ngeo@Microsoft@@QBE?AW4ErrorCode@errorcodes@msngeo@@ABVManeuver@23@AAV?$basic_string@GU?$char_traits@G@std@@V?$allocator@G@2@@std@@@Z="C:\Windows\SysWOW64\MapRouter".?get_maneuver_text@Guidance@ngeo@Microsoft@@QBE?AW4ErrorCode@errorcodes@msngeo@@ABVManeuver@23@AAV?$basic_string@GU?$char_traits@G@std@@V?$allocator@G@2@@std@@@Z
  ?get_maneuvers@Guidance@ngeo@Microsoft@@QBE?AW4ErrorCode@errorcodes@msngeo@@AAV?$vector@VManeuver@ngeo@Microsoft@@V?$allocator@VManeuver@ngeo@Microsoft@@@std@@@std@@@Z="C:\Windows\SysWOW64\MapRouter".?get_maneuvers@Guidance@ngeo@Microsoft@@QBE?AW4ErrorCode@errorcodes@msngeo@@AAV?$vector@VManeuver@ngeo@Microsoft@@V?$allocator@VManeuver@ngeo@Microsoft@@@std@@@std@@@Z
  ?get_maneuvers@Route@ngeo@Microsoft@@QBEABV?$vector@VManeuver@ngeo@Microsoft@@V?$allocator@VManeuver@ngeo@Microsoft@@@std@@@std@@XZ="C:\Windows\SysWOW64\MapRouter".?get_maneuvers@Route@ngeo@Microsoft@@QBEABV?$vector@VManeuver@ngeo@Microsoft@@V?$allocator@VManeuver@ngeo@Microsoft@@@std@@@std@@XZ
  ?get_maneuvers_enabled@RouteOptions@ngeo@Microsoft@@QBE_NXZ="C:\Windows\SysWOW64\MapRouter".?get_maneuvers_enabled@RouteOptions@ngeo@Microsoft@@QBE_NXZ
  ?get_mapmatch_fitness@MapMatchedLocation@ngeo@Microsoft@@QBEHXZ="C:\Windows\SysWOW64\MapRouter".?get_mapmatch_fitness@MapMatchedLocation@ngeo@Microsoft@@QBEHXZ
  ?get_marc_code@VoiceSkin@ngeo@Microsoft@@QBEABV?$basic_string@GU?$char_traits@G@std@@V?$allocator@G@2@@std@@XZ="C:\Windows\SysWOW64\MapRouter".?get_marc_code@VoiceSkin@ngeo@Microsoft@@QBEABV?$basic_string@GU?$char_traits@G@std@@V?$allocator@G@2@@std@@XZ
  ?get_match_mode@MapMatcher@ngeo@Microsoft@@QBE?AW4MatchMode@123@XZ="C:\Windows\SysWOW64\MapRouter".?get_match_mode@MapMatcher@ngeo@Microsoft@@QBE?AW4MatchMode@123@XZ
  ?get_maximum_changes@TransitRouteOptions@ngeo@Microsoft@@QBEIXZ="C:\Windows\SysWOW64\MapRouter".?get_maximum_changes@TransitRouteOptions@ngeo@Microsoft@@QBEIXZ
  ?get_millisecond@Time@ngeo@Microsoft@@QBEGXZ="C:\Windows\SysWOW64\MapRouter".?get_millisecond@Time@ngeo@Microsoft@@QBEGXZ
  ?get_minimum_change_time@TransitRouteOptions@ngeo@Microsoft@@QBEIXZ="C:\Windows\SysWOW64\MapRouter".?get_minimum_change_time@TransitRouteOptions@ngeo@Microsoft@@QBEIXZ
  ?get_minimum_distance_before_first_turn@RouteOptions@ngeo@Microsoft@@QBEIXZ="C:\Windows\SysWOW64\MapRouter".?get_minimum_distance_before_first_turn@RouteOptions@ngeo@Microsoft@@QBEIXZ
  ?get_minor_num@Version@ngeo@Microsoft@@QBEIXZ="C:\Windows\SysWOW64\MapRouter".?get_minor_num@Version@ngeo@Microsoft@@QBEIXZ
  ?get_minute@Time@ngeo@Microsoft@@QBEEXZ="C:\Windows\SysWOW64\MapRouter".?get_minute@Time@ngeo@Microsoft@@QBEEXZ
  ?get_mode@TrafficPenaltySource@DynamicPenalty@ngeo@Microsoft@@QBE?AW4MODE@1234@XZ="C:\Windows\SysWOW64\MapRouter".?get_mode@TrafficPenaltySource@DynamicPenalty@ngeo@Microsoft@@QBE?AW4MODE@1234@XZ
  ?get_month@Date@ngeo@Microsoft@@QBEEXZ="C:\Windows\SysWOW64\MapRouter".?get_month@Date@ngeo@Microsoft@@QBEEXZ
  ?get_name@MetricsInfo@ngeo@Microsoft@@QBEABV?$basic_string@GU?$char_traits@G@std@@V?$allocator@G@2@@std@@XZ="C:\Windows\SysWOW64\MapRouter".?get_name@MetricsInfo@ngeo@Microsoft@@QBEABV?$basic_string@GU?$char_traits@G@std@@V?$allocator@G@2@@std@@XZ
  ?get_name@TransitAccessInfo@ngeo@Microsoft@@QBEABV?$basic_string@GU?$char_traits@G@std@@V?$allocator@G@2@@std@@XZ="C:\Windows\SysWOW64\MapRouter".?get_name@TransitAccessInfo@ngeo@Microsoft@@QBEABV?$basic_string@GU?$char_traits@G@std@@V?$allocator@G@2@@std@@XZ
  ?get_name@TransitRouteStop@ngeo@Microsoft@@QBEABV?$basic_string@GU?$char_traits@G@std@@V?$allocator@G@2@@std@@XZ="C:\Windows\SysWOW64\MapRouter".?get_name@TransitRouteStop@ngeo@Microsoft@@QBEABV?$basic_string@GU?$char_traits@G@std@@V?$allocator@G@2@@std@@XZ
  ?get_names@NaturalGuidanceVoiceInfo@ngeo@Microsoft@@QBEABVLanguageMapping@23@XZ="C:\Windows\SysWOW64\MapRouter".?get_names@NaturalGuidanceVoiceInfo@ngeo@Microsoft@@QBEABVLanguageMapping@23@XZ
  ?get_names@StreetVoiceInfo@ngeo@Microsoft@@QBEABVLanguageMapping@23@XZ="C:\Windows\SysWOW64\MapRouter".?get_names@StreetVoiceInfo@ngeo@Microsoft@@QBEABVLanguageMapping@23@XZ
  ?get_natural_guidance@ManeuverVoiceInfo@ngeo@Microsoft@@QBEABVNaturalGuidanceVoiceInfo@23@XZ="C:\Windows\SysWOW64\MapRouter".?get_natural_guidance@ManeuverVoiceInfo@ngeo@Microsoft@@QBEABVNaturalGuidanceVoiceInfo@23@XZ
  ?get_natural_guidance_mode@SimpleGuidanceOptions@naviplayer@Microsoft@@QBEIXZ="C:\Windows\SysWOW64\MapRouter".?get_natural_guidance_mode@SimpleGuidanceOptions@naviplayer@Microsoft@@QBEIXZ
  ?get_network_mode@MapSensor@ngeo@Microsoft@@QBE?AW4NetworkMode@123@XZ="C:\Windows\SysWOW64\MapRouter".?get_network_mode@MapSensor@ngeo@Microsoft@@QBE?AW4NetworkMode@123@XZ
  ?get_next_maneuver@Guidance@ngeo@Microsoft@@QBEPBVManeuver@23@ABV423@@Z="C:\Windows\SysWOW64\MapRouter".?get_next_maneuver@Guidance@ngeo@Microsoft@@QBEPBVManeuver@23@ABV423@@Z
  ?get_next_maneuver@Guidance@ngeo@Microsoft@@QBEPBVManeuver@23@XZ="C:\Windows\SysWOW64\MapRouter".?get_next_maneuver@Guidance@ngeo@Microsoft@@QBEPBVManeuver@23@XZ
  ?get_next_road_icon@Maneuver@ngeo@Microsoft@@QBEABVIcon@23@XZ="C:\Windows\SysWOW64\MapRouter".?get_next_road_icon@Maneuver@ngeo@Microsoft@@QBEABVIcon@23@XZ
  ?get_next_road_name@Maneuver@ngeo@Microsoft@@QBEABV?$basic_string@GU?$char_traits@G@std@@V?$allocator@G@2@@std@@XZ="C:\Windows\SysWOW64\MapRouter".?get_next_road_name@Maneuver@ngeo@Microsoft@@QBEABV?$basic_string@GU?$char_traits@G@std@@V?$allocator@G@2@@std@@XZ
  ?get_next_road_number@Maneuver@ngeo@Microsoft@@QBEABV?$basic_string@GU?$char_traits@G@std@@V?$allocator@G@2@@std@@XZ="C:\Windows\SysWOW64\MapRouter".?get_next_road_number@Maneuver@ngeo@Microsoft@@QBEABV?$basic_string@GU?$char_traits@G@std@@V?$allocator@G@2@@std@@XZ
  ?get_next_stop_waypoint_index@RoutePlan@ngeo@Microsoft@@QBEII@Z="C:\Windows\SysWOW64\MapRouter".?get_next_stop_waypoint_index@RoutePlan@ngeo@Microsoft@@QBEII@Z
  ?get_next_street_after@Route@ngeo@Microsoft@@QBE?AW4ErrorCode@errorcodes@msngeo@@ABVManeuver@23@AAV?$basic_string@GU?$char_traits@G@std@@V?$allocator@G@2@@std@@@Z="C:\Windows\SysWOW64\MapRouter".?get_next_street_after@Route@ngeo@Microsoft@@QBE?AW4ErrorCode@errorcodes@msngeo@@ABVManeuver@23@AAV?$basic_string@GU?$char_traits@G@std@@V?$allocator@G@2@@std@@@Z
  ?get_number_of_lanes@RoadElement@ngeo@Microsoft@@QBEIXZ="C:\Windows\SysWOW64\MapRouter".?get_number_of_lanes@RoadElement@ngeo@Microsoft@@QBEIXZ
  ?get_official_name@TransitLineInfo@ngeo@Microsoft@@QBEABV?$basic_string@GU?$char_traits@G@std@@V?$allocator@G@2@@std@@XZ="C:\Windows\SysWOW64\MapRouter".?get_official_name@TransitLineInfo@ngeo@Microsoft@@QBEABV?$basic_string@GU?$char_traits@G@std@@V?$allocator@G@2@@std@@XZ
  ?get_official_name@TransitStopInfo@ngeo@Microsoft@@QBEABV?$basic_string@GU?$char_traits@G@std@@V?$allocator@G@2@@std@@XZ="C:\Windows\SysWOW64\MapRouter".?get_official_name@TransitStopInfo@ngeo@Microsoft@@QBEABV?$basic_string@GU?$char_traits@G@std@@V?$allocator@G@2@@std@@XZ
  ?get_on_route@TrafficWarner@ngeo@Microsoft@@SG?AW4ErrorCode@errorcodes@msngeo@@AAVGuidance@23@AAVTrafficNotification@23@@Z="C:\Windows\SysWOW64\MapRouter".?get_on_route@TrafficWarner@ngeo@Microsoft@@SG?AW4ErrorCode@errorcodes@msngeo@@AAVGuidance@23@AAVTrafficNotification@23@@Z
  ?get_on_route@TrafficWarner@ngeo@Microsoft@@SG?AW4ErrorCode@errorcodes@msngeo@@ABVRoute@23@AAVTrafficNotification@23@@Z="C:\Windows\SysWOW64\MapRouter".?get_on_route@TrafficWarner@ngeo@Microsoft@@SG?AW4ErrorCode@errorcodes@msngeo@@ABVRoute@23@AAVTrafficNotification@23@@Z
  ?get_online_response@RouteOptions@ngeo@Microsoft@@QBEABV?$basic_string@GU?$char_traits@G@std@@V?$allocator@G@2@@std@@XZ="C:\Windows\SysWOW64\MapRouter".?get_online_response@RouteOptions@ngeo@Microsoft@@QBEABV?$basic_string@GU?$char_traits@G@std@@V?$allocator@G@2@@std@@XZ
  ?get_opening_hours@TransitAccessInfo@ngeo@Microsoft@@QBEABVOperatingHours@23@XZ="C:\Windows\SysWOW64\MapRouter".?get_opening_hours@TransitAccessInfo@ngeo@Microsoft@@QBEABVOperatingHours@23@XZ
  ?get_operating_hours@TransitStopInfo@ngeo@Microsoft@@QBEABVOperatingHours@23@XZ="C:\Windows\SysWOW64\MapRouter".?get_operating_hours@TransitStopInfo@ngeo@Microsoft@@QBEABVOperatingHours@23@XZ
  ?get_option@TransitRouteOptions@ngeo@Microsoft@@QBE_NW4Option@123@@Z="C:\Windows\SysWOW64\MapRouter".?get_option@TransitRouteOptions@ngeo@Microsoft@@QBE_NW4Option@123@@Z
  ?get_options@Router@ngeo@Microsoft@@QAEAAV?$bitset@$00@std@@XZ="C:\Windows\SysWOW64\MapRouter".?get_options@Router@ngeo@Microsoft@@QAEAAV?$bitset@$00@std@@XZ
  ?get_options@Router@ngeo@Microsoft@@QBEABV?$bitset@$00@std@@XZ="C:\Windows\SysWOW64\MapRouter".?get_options@Router@ngeo@Microsoft@@QBEABV?$bitset@$00@std@@XZ
  ?get_options@SimpleGuidance@naviplayer@Microsoft@@QBEABVSimpleGuidanceOptions@23@XZ="C:\Windows\SysWOW64\MapRouter".?get_options@SimpleGuidance@naviplayer@Microsoft@@QBEABVSimpleGuidanceOptions@23@XZ
  ?get_options@SpeedWarner@ngeo@Microsoft@@QBEABVSpeedWarnerOptions@23@XZ="C:\Windows\SysWOW64\MapRouter".?get_options@SpeedWarner@ngeo@Microsoft@@QBEABVSpeedWarnerOptions@23@XZ
  ?get_original_position@RouteWaypoint@ngeo@Microsoft@@QBEABVGeoCoordinates@23@XZ="C:\Windows\SysWOW64\MapRouter".?get_original_position@RouteWaypoint@ngeo@Microsoft@@QBEABVGeoCoordinates@23@XZ
  ?get_output@SpeedNotification@ngeo@Microsoft@@QBEABVOutput@23@XZ="C:\Windows\SysWOW64\MapRouter".?get_output@SpeedNotification@ngeo@Microsoft@@QBEABVOutput@23@XZ
  ?get_output@TrafficNotification@ngeo@Microsoft@@QBE?AW4ErrorCode@errorcodes@msngeo@@AAVOutput@23@@Z="C:\Windows\SysWOW64\MapRouter".?get_output@TrafficNotification@ngeo@Microsoft@@QBE?AW4ErrorCode@errorcodes@msngeo@@AAVOutput@23@@Z
  ?get_output_engine@SimpleGuidance@naviplayer@Microsoft@@QBEABVOutputEngine@ngeo@3@XZ="C:\Windows\SysWOW64\MapRouter".?get_output_engine@SimpleGuidance@naviplayer@Microsoft@@QBEABVOutputEngine@ngeo@3@XZ
  ?get_output_type@VoiceSkin@ngeo@Microsoft@@QBE?AW4OutputType@123@XZ="C:\Windows\SysWOW64\MapRouter".?get_output_type@VoiceSkin@ngeo@Microsoft@@QBE?AW4OutputType@123@XZ
  ?get_parking_hours@TransitStopInfo@ngeo@Microsoft@@QBEABVOperatingHours@23@XZ="C:\Windows\SysWOW64\MapRouter".?get_parking_hours@TransitStopInfo@ngeo@Microsoft@@QBEABVOperatingHours@23@XZ
  ?get_parking_size@TransitStopInfo@ngeo@Microsoft@@QBE?AW4ParkingSize@123@XZ="C:\Windows\SysWOW64\MapRouter".?get_parking_size@TransitStopInfo@ngeo@Microsoft@@QBE?AW4ParkingSize@123@XZ
  ?get_penalty@RoadElementPenalty@DynamicPenalty@ngeo@Microsoft@@QBEEXZ="C:\Windows\SysWOW64\MapRouter".?get_penalty@RoadElementPenalty@DynamicPenalty@ngeo@Microsoft@@QBEEXZ
  ?get_penalty@Traffic@ngeo@Microsoft@@QBE?AW4ErrorCode@errorcodes@msngeo@@ABVTrafficEvent@23@AAE@Z="C:\Windows\SysWOW64\MapRouter".?get_penalty@Traffic@ngeo@Microsoft@@QBE?AW4ErrorCode@errorcodes@msngeo@@ABVTrafficEvent@23@AAE@Z
  ?get_phonemes@NaturalGuidanceVoiceInfo@ngeo@Microsoft@@QBEABVPhonemeMapping@23@XZ="C:\Windows\SysWOW64\MapRouter".?get_phonemes@NaturalGuidanceVoiceInfo@ngeo@Microsoft@@QBEABVPhonemeMapping@23@XZ
  ?get_phonemes@PhonemeMapping@ngeo@Microsoft@@QBEABVLanguageMapping@23@ABV?$basic_string@GU?$char_traits@G@std@@V?$allocator@G@2@@std@@0@Z="C:\Windows\SysWOW64\MapRouter".?get_phonemes@PhonemeMapping@ngeo@Microsoft@@QBEABVLanguageMapping@23@ABV?$basic_string@GU?$char_traits@G@std@@V?$allocator@G@2@@std@@0@Z
  ?get_phonemes@PhonemeMapping@ngeo@Microsoft@@QBEABVLanguageMapping@23@ABVLanguageKeyValuePair@23@@Z="C:\Windows\SysWOW64\MapRouter".?get_phonemes@PhonemeMapping@ngeo@Microsoft@@QBEABVLanguageMapping@23@ABVLanguageKeyValuePair@23@@Z
  ?get_phonemes@SignpostVoiceInfo@ngeo@Microsoft@@QBEABVPhonemeMapping@23@XZ="C:\Windows\SysWOW64\MapRouter".?get_phonemes@SignpostVoiceInfo@ngeo@Microsoft@@QBEABVPhonemeMapping@23@XZ
  ?get_phonemes@StreetVoiceInfo@ngeo@Microsoft@@QBEABVPhonemeMapping@23@XZ="C:\Windows\SysWOW64\MapRouter".?get_phonemes@StreetVoiceInfo@ngeo@Microsoft@@QBEABVPhonemeMapping@23@XZ
  ?get_places_id@TransitStopInfo@ngeo@Microsoft@@QBEABV?$basic_string@GU?$char_traits@G@std@@V?$allocator@G@2@@std@@XZ="C:\Windows\SysWOW64\MapRouter".?get_places_id@TransitStopInfo@ngeo@Microsoft@@QBEABV?$basic_string@GU?$char_traits@G@std@@V?$allocator@G@2@@std@@XZ
  ?get_platform_coordinates@TransitRouteStop@ngeo@Microsoft@@QBE?AVGeoCoordinates@23@XZ="C:\Windows\SysWOW64\MapRouter".?get_platform_coordinates@TransitRouteStop@ngeo@Microsoft@@QBE?AVGeoCoordinates@23@XZ
  ?get_platform_level@TransitRouteStop@ngeo@Microsoft@@QBEHXZ="C:\Windows\SysWOW64\MapRouter".?get_platform_level@TransitRouteStop@ngeo@Microsoft@@QBEHXZ
  ?get_position@TransitAccessInfo@ngeo@Microsoft@@QBEABVGeoCoordinates@23@XZ="C:\Windows\SysWOW64\MapRouter".?get_position@TransitAccessInfo@ngeo@Microsoft@@QBEABVGeoCoordinates@23@XZ
  ?get_position@TransitStopInfo@ngeo@Microsoft@@QBEABVGeoCoordinates@23@XZ="C:\Windows\SysWOW64\MapRouter".?get_position@TransitStopInfo@ngeo@Microsoft@@QBEABVGeoCoordinates@23@XZ
  ?get_prepositions@NaturalGuidanceVoiceInfo@ngeo@Microsoft@@QBEABVLanguageMapping@23@XZ="C:\Windows\SysWOW64\MapRouter".?get_prepositions@NaturalGuidanceVoiceInfo@ngeo@Microsoft@@QBEABVLanguageMapping@23@XZ
  ?get_primary_line_color@TransitRouteElement@ngeo@Microsoft@@QBE?AVColor@23@XZ="C:\Windows\SysWOW64\MapRouter".?get_primary_line_color@TransitRouteElement@ngeo@Microsoft@@QBE?AVColor@23@XZ
  ?get_quality@VoiceSkin@ngeo@Microsoft@@QBEABV?$basic_string@GU?$char_traits@G@std@@V?$allocator@G@2@@std@@XZ="C:\Windows\SysWOW64\MapRouter".?get_quality@VoiceSkin@ngeo@Microsoft@@QBEABV?$basic_string@GU?$char_traits@G@std@@V?$allocator@G@2@@std@@XZ
  ?get_radius_fuzzy_m@RouteWaypoint@ngeo@Microsoft@@QBEIXZ="C:\Windows\SysWOW64\MapRouter".?get_radius_fuzzy_m@RouteWaypoint@ngeo@Microsoft@@QBEIXZ
  ?get_radius_junction_m@RouteWaypoint@ngeo@Microsoft@@QBEIXZ="C:\Windows\SysWOW64\MapRouter".?get_radius_junction_m@RouteWaypoint@ngeo@Microsoft@@QBEIXZ
  ?get_radius_km@Vicinity@Traffic@ngeo@Microsoft@@QBEIXZ="C:\Windows\SysWOW64\MapRouter".?get_radius_km@Vicinity@Traffic@ngeo@Microsoft@@QBEIXZ
  ?get_radius_selective_m@RouteWaypoint@ngeo@Microsoft@@QBEIXZ="C:\Windows\SysWOW64\MapRouter".?get_radius_selective_m@RouteWaypoint@ngeo@Microsoft@@QBEIXZ
  ?get_red@Color@ngeo@Microsoft@@QBEEXZ="C:\Windows\SysWOW64\MapRouter".?get_red@Color@ngeo@Microsoft@@QBEEXZ
  ?get_remaining_distance_m@Guidance@ngeo@Microsoft@@QBE_KW4RouteScope@123@@Z="C:\Windows\SysWOW64\MapRouter".?get_remaining_distance_m@Guidance@ngeo@Microsoft@@QBE_KW4RouteScope@123@@Z
  ?get_remaining_maneuvers@Guidance@ngeo@Microsoft@@QBE?AW4ErrorCode@errorcodes@msngeo@@AAV?$vector@VManeuver@ngeo@Microsoft@@V?$allocator@VManeuver@ngeo@Microsoft@@@std@@@std@@@Z="C:\Windows\SysWOW64\MapRouter".?get_remaining_maneuvers@Guidance@ngeo@Microsoft@@QBE?AW4ErrorCode@errorcodes@msngeo@@AAV?$vector@VManeuver@ngeo@Microsoft@@V?$allocator@VManeuver@ngeo@Microsoft@@@std@@@std@@@Z
  ?get_remaining_time_s@Guidance@ngeo@Microsoft@@QBE_KW4RouteScope@123@ABVDynamicPenalty@23@@Z="C:\Windows\SysWOW64\MapRouter".?get_remaining_time_s@Guidance@ngeo@Microsoft@@QBE_KW4RouteScope@123@ABVDynamicPenalty@23@@Z
  ?get_render_mode@RenderBuffer@ngeo@Microsoft@@QBE?AW4RenderingMode@123@XZ="C:\Windows\SysWOW64\MapRouter".?get_render_mode@RenderBuffer@ngeo@Microsoft@@QBE?AW4RenderingMode@123@XZ
  ?get_response_time_max@MetricsInfo@ngeo@Microsoft@@QBENXZ="C:\Windows\SysWOW64\MapRouter".?get_response_time_max@MetricsInfo@ngeo@Microsoft@@QBENXZ
  ?get_response_time_mean@MetricsInfo@ngeo@Microsoft@@QBENXZ="C:\Windows\SysWOW64\MapRouter".?get_response_time_mean@MetricsInfo@ngeo@Microsoft@@QBENXZ
  ?get_response_time_min@MetricsInfo@ngeo@Microsoft@@QBENXZ="C:\Windows\SysWOW64\MapRouter".?get_response_time_min@MetricsInfo@ngeo@Microsoft@@QBENXZ
  ?get_response_time_sum@MetricsInfo@ngeo@Microsoft@@QBENXZ="C:\Windows\SysWOW64\MapRouter".?get_response_time_sum@MetricsInfo@ngeo@Microsoft@@QBENXZ
  ?get_rgba@Color@ngeo@Microsoft@@QBEIXZ="C:\Windows\SysWOW64\MapRouter".?get_rgba@Color@ngeo@Microsoft@@QBEIXZ
  ?get_right_exits@ManeuverVoiceInfo@ngeo@Microsoft@@QBEIXZ="C:\Windows\SysWOW64\MapRouter".?get_right_exits@ManeuverVoiceInfo@ngeo@Microsoft@@QBEIXZ
  ?get_road_element@MapMatchedLocation@ngeo@Microsoft@@QBEABVRoadElement@23@XZ="C:\Windows\SysWOW64\MapRouter".?get_road_element@MapMatchedLocation@ngeo@Microsoft@@QBEABVRoadElement@23@XZ
  ?get_road_element@RoadElement@ngeo@Microsoft@@SG?AW4ErrorCode@errorcodes@msngeo@@ABVMapModel@23@ABVEdgeId@smart5@3@AAV123@@Z="C:\Windows\SysWOW64\MapRouter".?get_road_element@RoadElement@ngeo@Microsoft@@SG?AW4ErrorCode@errorcodes@msngeo@@ABVMapModel@23@ABVEdgeId@smart5@3@AAV123@@Z
  ?get_road_element@RouteElement@ngeo@Microsoft@@QBE?AVRoadElement@23@XZ="C:\Windows\SysWOW64\MapRouter".?get_road_element@RouteElement@ngeo@Microsoft@@QBE?AVRoadElement@23@XZ
  ?get_road_element@SpeedNotification@ngeo@Microsoft@@QBEABVRoadElement@23@XZ="C:\Windows\SysWOW64\MapRouter".?get_road_element@SpeedNotification@ngeo@Microsoft@@QBEABVRoadElement@23@XZ
  ?get_road_elements@DynamicPenalty@ngeo@Microsoft@@QBEABVRoadElements@123@XZ="C:\Windows\SysWOW64\MapRouter".?get_road_elements@DynamicPenalty@ngeo@Microsoft@@QBEABVRoadElements@123@XZ
  ?get_road_elements@RoadElement@ngeo@Microsoft@@SG?AW4ErrorCode@errorcodes@msngeo@@ABVMapModel@23@ABVGeoArea@23@AAV?$vector@VRoadElement@ngeo@Microsoft@@V?$allocator@VRoadElement@ngeo@Microsoft@@@std@@@std@@@Z="C:\Windows\SysWOW64\MapRouter".?get_road_elements@RoadElement@ngeo@Microsoft@@SG?AW4ErrorCode@errorcodes@msngeo@@ABVMapModel@23@ABVGeoArea@23@AAV?$vector@VRoadElement@ngeo@Microsoft@@V?$allocator@VRoadElement@ngeo@Microsoft@@@std@@@std@@@Z
  ?get_road_elements@TrafficPenaltySource@DynamicPenalty@ngeo@Microsoft@@QBE?AW4ErrorCode@errorcodes@msngeo@@AAVRoadElements@234@@Z="C:\Windows\SysWOW64\MapRouter".?get_road_elements@TrafficPenaltySource@DynamicPenalty@ngeo@Microsoft@@QBE?AW4ErrorCode@errorcodes@msngeo@@AAVRoadElements@234@@Z
  ?get_road_elements@TrafficPenaltySource@DynamicPenalty@ngeo@Microsoft@@QBE?AW4ErrorCode@errorcodes@msngeo@@ABVTrafficEvent@34@AAVRoadElements@234@@Z="C:\Windows\SysWOW64\MapRouter".?get_road_elements@TrafficPenaltySource@DynamicPenalty@ngeo@Microsoft@@QBE?AW4ErrorCode@errorcodes@msngeo@@ABVTrafficEvent@34@AAVRoadElements@234@@Z
  ?get_road_name@RoadElement@ngeo@Microsoft@@QBEABV?$basic_string@GU?$char_traits@G@std@@V?$allocator@G@2@@std@@XZ="C:\Windows\SysWOW64\MapRouter".?get_road_name@RoadElement@ngeo@Microsoft@@QBEABV?$basic_string@GU?$char_traits@G@std@@V?$allocator@G@2@@std@@XZ
  ?get_roundabout_exits@ManeuverVoiceInfo@ngeo@Microsoft@@QBEIXZ="C:\Windows\SysWOW64\MapRouter".?get_roundabout_exits@ManeuverVoiceInfo@ngeo@Microsoft@@QBEIXZ
  ?get_route@Guidance@ngeo@Microsoft@@QBEABVRoute@23@XZ="C:\Windows\SysWOW64\MapRouter".?get_route@Guidance@ngeo@Microsoft@@QBEABVRoute@23@XZ
  ?get_route_alternatives@RouteOptions@ngeo@Microsoft@@QBEIXZ="C:\Windows\SysWOW64\MapRouter".?get_route_alternatives@RouteOptions@ngeo@Microsoft@@QBEIXZ
  ?get_route_calculation_events@Traffic@ngeo@Microsoft@@QBE?AW4ErrorCode@errorcodes@msngeo@@ABVRoute@23@AAVTrafficVisitor@23@@Z="C:\Windows\SysWOW64\MapRouter".?get_route_calculation_events@Traffic@ngeo@Microsoft@@QBE?AW4ErrorCode@errorcodes@msngeo@@ABVRoute@23@AAVTrafficVisitor@23@@Z
  ?get_route_duration_live_s@Route@ngeo@Microsoft@@QBEII@Z="C:\Windows\SysWOW64\MapRouter".?get_route_duration_live_s@Route@ngeo@Microsoft@@QBEII@Z
  ?get_route_duration_s@Route@ngeo@Microsoft@@QBEIW4SpeedType@123@I@Z="C:\Windows\SysWOW64\MapRouter".?get_route_duration_s@Route@ngeo@Microsoft@@QBEIW4SpeedType@123@I@Z
  ?get_route_elements@Route@ngeo@Microsoft@@QBE?AVRouteElements@23@XZ="C:\Windows\SysWOW64\MapRouter".?get_route_elements@Route@ngeo@Microsoft@@QBE?AVRouteElements@23@XZ
  ?get_route_elements_from_duration@Route@ngeo@Microsoft@@QBE?AVRouteElements@23@J@Z="C:\Windows\SysWOW64\MapRouter".?get_route_elements_from_duration@Route@ngeo@Microsoft@@QBE?AVRouteElements@23@J@Z
  ?get_route_elements_from_duration@Route@ngeo@Microsoft@@QBE?AVRouteElements@23@JJ@Z="C:\Windows\SysWOW64\MapRouter".?get_route_elements_from_duration@Route@ngeo@Microsoft@@QBE?AVRouteElements@23@JJ@Z
  ?get_route_elements_from_length@Route@ngeo@Microsoft@@QBE?AVRouteElements@23@I@Z="C:\Windows\SysWOW64\MapRouter".?get_route_elements_from_length@Route@ngeo@Microsoft@@QBE?AVRouteElements@23@I@Z
  ?get_route_elements_from_length@Route@ngeo@Microsoft@@QBE?AVRouteElements@23@II@Z="C:\Windows\SysWOW64\MapRouter".?get_route_elements_from_length@Route@ngeo@Microsoft@@QBE?AVRouteElements@23@II@Z
  ?get_route_elements_from_maneuver@Route@ngeo@Microsoft@@QBE?AVRouteElements@23@ABVManeuver@23@@Z="C:\Windows\SysWOW64\MapRouter".?get_route_elements_from_maneuver@Route@ngeo@Microsoft@@QBE?AVRouteElements@23@ABVManeuver@23@@Z
  ?get_route_geometry@Route@ngeo@Microsoft@@QBE?AW4ErrorCode@errorcodes@msngeo@@AAVGeoPolyline@23@@Z="C:\Windows\SysWOW64\MapRouter".?get_route_geometry@Route@ngeo@Microsoft@@QBE?AW4ErrorCode@errorcodes@msngeo@@AAVGeoPolyline@23@@Z
  ?get_route_length_m@Route@ngeo@Microsoft@@QBEII@Z="C:\Windows\SysWOW64\MapRouter".?get_route_length_m@Route@ngeo@Microsoft@@QBEII@Z
  ?get_route_name@RoadElement@ngeo@Microsoft@@QBEABV?$basic_string@GU?$char_traits@G@std@@V?$allocator@G@2@@std@@XZ="C:\Windows\SysWOW64\MapRouter".?get_route_name@RoadElement@ngeo@Microsoft@@QBEABV?$basic_string@GU?$char_traits@G@std@@V?$allocator@G@2@@std@@XZ
  ?get_route_names@SignpostLabelVoiceInfo@ngeo@Microsoft@@QBEABVLanguageMapping@23@XZ="C:\Windows\SysWOW64\MapRouter".?get_route_names@SignpostLabelVoiceInfo@ngeo@Microsoft@@QBEABVLanguageMapping@23@XZ
  ?get_route_names@StreetVoiceInfo@ngeo@Microsoft@@QBEABVLanguageMapping@23@XZ="C:\Windows\SysWOW64\MapRouter".?get_route_names@StreetVoiceInfo@ngeo@Microsoft@@QBEABVLanguageMapping@23@XZ
  ?get_route_options@RoutePlan@ngeo@Microsoft@@QAEAAVRouteOptions@23@XZ="C:\Windows\SysWOW64\MapRouter".?get_route_options@RoutePlan@ngeo@Microsoft@@QAEAAVRouteOptions@23@XZ
  ?get_route_options@RoutePlan@ngeo@Microsoft@@QBEABVRouteOptions@23@XZ="C:\Windows\SysWOW64\MapRouter".?get_route_options@RoutePlan@ngeo@Microsoft@@QBEABVRouteOptions@23@XZ
  ?get_route_plan@Route@ngeo@Microsoft@@QBEABVRoutePlan@23@XZ="C:\Windows\SysWOW64\MapRouter".?get_route_plan@Route@ngeo@Microsoft@@QBEABVRoutePlan@23@XZ
  ?get_route_plan@SimpleGuidance@naviplayer@Microsoft@@QBEABVRoutePlan@ngeo@3@XZ="C:\Windows\SysWOW64\MapRouter".?get_route_plan@SimpleGuidance@naviplayer@Microsoft@@QBEABVRoutePlan@ngeo@3@XZ
  ?get_route_request_interval_s@SimpleGuidanceOptions@naviplayer@Microsoft@@QBEIXZ="C:\Windows\SysWOW64\MapRouter".?get_route_request_interval_s@SimpleGuidanceOptions@naviplayer@Microsoft@@QBEIXZ
  ?get_route_type@RouteOptions@ngeo@Microsoft@@QBE?AW4RouteType@123@XZ="C:\Windows\SysWOW64\MapRouter".?get_route_type@RouteOptions@ngeo@Microsoft@@QBE?AW4RouteType@123@XZ
  ?get_routing_availability@Traffic@ngeo@Microsoft@@QBE?AW4ErrorCode@errorcodes@msngeo@@ABV?$basic_string@GU?$char_traits@G@std@@V?$allocator@G@2@@std@@AA_N@Z="C:\Windows\SysWOW64\MapRouter".?get_routing_availability@Traffic@ngeo@Microsoft@@QBE?AW4ErrorCode@errorcodes@msngeo@@ABV?$basic_string@GU?$char_traits@G@std@@V?$allocator@G@2@@std@@AA_N@Z
  ?get_routing_mode@RouteOptions@ngeo@Microsoft@@QBE?AW4RoutingMode@123@XZ="C:\Windows\SysWOW64\MapRouter".?get_routing_mode@RouteOptions@ngeo@Microsoft@@QBE?AW4RoutingMode@123@XZ
  ?get_rulesets_file@VoiceSkin@ngeo@Microsoft@@QBEABV?$basic_string@GU?$char_traits@G@std@@V?$allocator@G@2@@std@@XZ="C:\Windows\SysWOW64\MapRouter".?get_rulesets_file@VoiceSkin@ngeo@Microsoft@@QBEABV?$basic_string@GU?$char_traits@G@std@@V?$allocator@G@2@@std@@XZ
  ?get_sample_time_msec@StatRepository@nmacore@Microsoft@@QBEIXZ="C:\Windows\SysWOW64\MapRouter".?get_sample_time_msec@StatRepository@nmacore@Microsoft@@QBEIXZ
  ?get_sample_time_msec_global@StatRepository@nmacore@Microsoft@@SGIXZ="C:\Windows\SysWOW64\MapRouter".?get_sample_time_msec_global@StatRepository@nmacore@Microsoft@@SGIXZ
  ?get_second@Time@ngeo@Microsoft@@QBEEXZ="C:\Windows\SysWOW64\MapRouter".?get_second@Time@ngeo@Microsoft@@QBEEXZ
  ?get_second_maneuver@VoiceCommandInfo@ngeo@Microsoft@@QBEABVManeuverVoiceInfo@23@XZ="C:\Windows\SysWOW64\MapRouter".?get_second_maneuver@VoiceCommandInfo@ngeo@Microsoft@@QBEABVManeuverVoiceInfo@23@XZ
  ?get_secondary_line_color@TransitRouteElement@ngeo@Microsoft@@QBE?AVColor@23@XZ="C:\Windows\SysWOW64\MapRouter".?get_secondary_line_color@TransitRouteElement@ngeo@Microsoft@@QBE?AVColor@23@XZ
  ?get_short_name@TransitLineInfo@ngeo@Microsoft@@QBEABV?$basic_string@GU?$char_traits@G@std@@V?$allocator@G@2@@std@@XZ="C:\Windows\SysWOW64\MapRouter".?get_short_name@TransitLineInfo@ngeo@Microsoft@@QBEABV?$basic_string@GU?$char_traits@G@std@@V?$allocator@G@2@@std@@XZ
  ?get_short_text_enum@Traffic@ngeo@Microsoft@@QBE?AW4ErrorCode@errorcodes@msngeo@@ABVTrafficEvent@23@AAV?$basic_string@GU?$char_traits@G@std@@V?$allocator@G@2@@std@@@Z="C:\Windows\SysWOW64\MapRouter".?get_short_text_enum@Traffic@ngeo@Microsoft@@QBE?AW4ErrorCode@errorcodes@msngeo@@ABVTrafficEvent@23@AAV?$basic_string@GU?$char_traits@G@std@@V?$allocator@G@2@@std@@@Z
  ?get_side_of_destination@ManeuverVoiceInfo@ngeo@Microsoft@@QBEABVSideOfDestinationVoiceInfo@23@XZ="C:\Windows\SysWOW64\MapRouter".?get_side_of_destination@ManeuverVoiceInfo@ngeo@Microsoft@@QBEABVSideOfDestinationVoiceInfo@23@XZ
  ?get_side_of_destination@SideOfDestinationVoiceInfo@ngeo@Microsoft@@QBE?AW4SideOfDestination@123@XZ="C:\Windows\SysWOW64\MapRouter".?get_side_of_destination@SideOfDestinationVoiceInfo@ngeo@Microsoft@@QBE?AW4SideOfDestination@123@XZ
  ?get_signpost@Maneuver@ngeo@Microsoft@@QBEABVSignpost@23@XZ="C:\Windows\SysWOW64\MapRouter".?get_signpost@Maneuver@ngeo@Microsoft@@QBEABVSignpost@23@XZ
  ?get_signpost@ManeuverVoiceInfo@ngeo@Microsoft@@QBEABVSignpostVoiceInfo@23@XZ="C:\Windows\SysWOW64\MapRouter".?get_signpost@ManeuverVoiceInfo@ngeo@Microsoft@@QBEABVSignpostVoiceInfo@23@XZ
  ?get_size@PixelRect@ngeo@Microsoft@@QBEABVSizeInPixels@23@XZ="C:\Windows\SysWOW64\MapRouter".?get_size@PixelRect@ngeo@Microsoft@@QBEABVSizeInPixels@23@XZ
  ?get_skin_file@VoiceSkin@ngeo@Microsoft@@QBEABV?$basic_string@GU?$char_traits@G@std@@V?$allocator@G@2@@std@@XZ="C:\Windows\SysWOW64\MapRouter".?get_skin_file@VoiceSkin@ngeo@Microsoft@@QBEABV?$basic_string@GU?$char_traits@G@std@@V?$allocator@G@2@@std@@XZ
  ?get_source_status@Traffic@ngeo@Microsoft@@QAE?AW4ErrorCode@errorcodes@msngeo@@ABVTrafficSource@23@AAVTrafficSourceStatus@23@@Z="C:\Windows\SysWOW64\MapRouter".?get_source_status@Traffic@ngeo@Microsoft@@QAE?AW4ErrorCode@errorcodes@msngeo@@ABVTrafficSource@23@AAVTrafficSourceStatus@23@@Z
  ?get_speaker@VoiceSkin@ngeo@Microsoft@@QBEABV?$basic_string@GU?$char_traits@G@std@@V?$allocator@G@2@@std@@XZ="C:\Windows\SysWOW64\MapRouter".?get_speaker@VoiceSkin@ngeo@Microsoft@@QBEABV?$basic_string@GU?$char_traits@G@std@@V?$allocator@G@2@@std@@XZ
  ?get_speed@RoadElementPenalty@DynamicPenalty@ngeo@Microsoft@@QBEEXZ="C:\Windows\SysWOW64\MapRouter".?get_speed@RoadElementPenalty@DynamicPenalty@ngeo@Microsoft@@QBEEXZ
  ?get_speed_limit@Traffic@ngeo@Microsoft@@QBE?AW4ErrorCode@errorcodes@msngeo@@ABVTrafficEvent@23@AAE@Z="C:\Windows\SysWOW64\MapRouter".?get_speed_limit@Traffic@ngeo@Microsoft@@QBE?AW4ErrorCode@errorcodes@msngeo@@ABVTrafficEvent@23@AAE@Z
  ?get_speed_limit_m_s@RoadElement@ngeo@Microsoft@@QBEMXZ="C:\Windows\SysWOW64\MapRouter".?get_speed_limit_m_s@RoadElement@ngeo@Microsoft@@QBEMXZ
  ?get_speed_m_s@Location@ngeo@Microsoft@@QBENXZ="C:\Windows\SysWOW64\MapRouter".?get_speed_m_s@Location@ngeo@Microsoft@@QBENXZ
  ?get_speed_warner@SimpleGuidance@naviplayer@Microsoft@@QBEABVSpeedWarner@ngeo@3@XZ="C:\Windows\SysWOW64\MapRouter".?get_speed_warner@SimpleGuidance@naviplayer@Microsoft@@QBEABVSpeedWarner@ngeo@3@XZ
  ?get_start_angle@Maneuver@ngeo@Microsoft@@QBEIXZ="C:\Windows\SysWOW64\MapRouter".?get_start_angle@Maneuver@ngeo@Microsoft@@QBEIXZ
  ?get_start_direction@RouteOptions@ngeo@Microsoft@@QBEGXZ="C:\Windows\SysWOW64\MapRouter".?get_start_direction@RouteOptions@ngeo@Microsoft@@QBEGXZ
  ?get_start_position@Maneuver@ngeo@Microsoft@@QBEABVGeoCoordinates@23@XZ="C:\Windows\SysWOW64\MapRouter".?get_start_position@Maneuver@ngeo@Microsoft@@QBEABVGeoCoordinates@23@XZ
  ?get_start_segment@Maneuver@ngeo@Microsoft@@QBEIXZ="C:\Windows\SysWOW64\MapRouter".?get_start_segment@Maneuver@ngeo@Microsoft@@QBEIXZ
  ?get_start_time@Maneuver@ngeo@Microsoft@@QBEABVDateTime@23@XZ="C:\Windows\SysWOW64\MapRouter".?get_start_time@Maneuver@ngeo@Microsoft@@QBEABVDateTime@23@XZ
  ?get_start_time@RoadElement@ngeo@Microsoft@@QBE?AVDateTime@23@XZ="C:\Windows\SysWOW64\MapRouter".?get_start_time@RoadElement@ngeo@Microsoft@@QBE?AVDateTime@23@XZ
  ?get_start_time@TimeInterval@ngeo@Microsoft@@QBEABVTime@23@XZ="C:\Windows\SysWOW64\MapRouter".?get_start_time@TimeInterval@ngeo@Microsoft@@QBEABVTime@23@XZ
  ?get_stop_id@TransitAccessInfo@ngeo@Microsoft@@QBEABVEdgeId@smart5@3@XZ="C:\Windows\SysWOW64\MapRouter".?get_stop_id@TransitAccessInfo@ngeo@Microsoft@@QBEABVEdgeId@smart5@3@XZ
  ?get_stop_waypoint_count@RoutePlan@ngeo@Microsoft@@QBEIXZ="C:\Windows\SysWOW64\MapRouter".?get_stop_waypoint_count@RoutePlan@ngeo@Microsoft@@QBEIXZ
  ?get_stopovers@RoutePlan@ngeo@Microsoft@@QBEABV?$vector@VRouteWaypoint@ngeo@Microsoft@@V?$allocator@VRouteWaypoint@ngeo@Microsoft@@@std@@@std@@XZ="C:\Windows\SysWOW64\MapRouter".?get_stopovers@RoutePlan@ngeo@Microsoft@@QBEABV?$vector@VRouteWaypoint@ngeo@Microsoft@@V?$allocator@VRouteWaypoint@ngeo@Microsoft@@@std@@@std@@XZ
  ?get_street_after_maneuver@ManeuverVoiceInfo@ngeo@Microsoft@@QBEABVStreetVoiceInfo@23@XZ="C:\Windows\SysWOW64\MapRouter".?get_street_after_maneuver@ManeuverVoiceInfo@ngeo@Microsoft@@QBEABVStreetVoiceInfo@23@XZ
  ?get_street_before_maneuver@ManeuverVoiceInfo@ngeo@Microsoft@@QBEABVStreetVoiceInfo@23@XZ="C:\Windows\SysWOW64\MapRouter".?get_street_before_maneuver@ManeuverVoiceInfo@ngeo@Microsoft@@QBEABVStreetVoiceInfo@23@XZ
  ?get_street_type@StreetVoiceInfo@ngeo@Microsoft@@QBE?AW4StreetType@123@XZ="C:\Windows\SysWOW64\MapRouter".?get_street_type@StreetVoiceInfo@ngeo@Microsoft@@QBE?AW4StreetType@123@XZ
  ?get_subleg_count@Route@ngeo@Microsoft@@QBEIXZ="C:\Windows\SysWOW64\MapRouter".?get_subleg_count@Route@ngeo@Microsoft@@QBEIXZ
  ?get_supported_app@VoiceSkin@ngeo@Microsoft@@QBEABV?$vector@V?$basic_string@GU?$char_traits@G@std@@V?$allocator@G@2@@std@@V?$allocator@V?$basic_string@GU?$char_traits@G@std@@V?$allocator@G@2@@std@@@2@@std@@XZ="C:\Windows\SysWOW64\MapRouter".?get_supported_app@VoiceSkin@ngeo@Microsoft@@QBEABV?$vector@V?$basic_string@GU?$char_traits@G@std@@V?$allocator@G@2@@std@@V?$allocator@V?$basic_string@GU?$char_traits@G@std@@V?$allocator@G@2@@std@@@2@@std@@XZ
  ?get_supported_platforms@VoiceSkin@ngeo@Microsoft@@QBEABV?$vector@V?$basic_string@GU?$char_traits@G@std@@V?$allocator@G@2@@std@@V?$allocator@V?$basic_string@GU?$char_traits@G@std@@V?$allocator@G@2@@std@@@2@@std@@XZ="C:\Windows\SysWOW64\MapRouter".?get_supported_platforms@VoiceSkin@ngeo@Microsoft@@QBEABV?$vector@V?$basic_string@GU?$char_traits@G@std@@V?$allocator@G@2@@std@@V?$allocator@V?$basic_string@GU?$char_traits@G@std@@V?$allocator@G@2@@std@@@2@@std@@XZ
  ?get_supported_providers@VoiceSkin@ngeo@Microsoft@@QBEABV?$vector@V?$basic_string@GU?$char_traits@G@std@@V?$allocator@G@2@@std@@V?$allocator@V?$basic_string@GU?$char_traits@G@std@@V?$allocator@G@2@@std@@@2@@std@@XZ="C:\Windows\SysWOW64\MapRouter".?get_supported_providers@VoiceSkin@ngeo@Microsoft@@QBEABV?$vector@V?$basic_string@GU?$char_traits@G@std@@V?$allocator@G@2@@std@@V?$allocator@V?$basic_string@GU?$char_traits@G@std@@V?$allocator@G@2@@std@@@2@@std@@XZ
  ?get_supported_tts_engines@VoiceSkin@ngeo@Microsoft@@QBEABV?$vector@V?$basic_string@GU?$char_traits@G@std@@V?$allocator@G@2@@std@@V?$allocator@V?$basic_string@GU?$char_traits@G@std@@V?$allocator@G@2@@std@@@2@@std@@XZ="C:\Windows\SysWOW64\MapRouter".?get_supported_tts_engines@VoiceSkin@ngeo@Microsoft@@QBEABV?$vector@V?$basic_string@GU?$char_traits@G@std@@V?$allocator@G@2@@std@@V?$allocator@V?$basic_string@GU?$char_traits@G@std@@V?$allocator@G@2@@std@@@2@@std@@XZ
  ?get_system_access_logo@TransitRouteElement@ngeo@Microsoft@@QBEABVIcon@23@XZ="C:\Windows\SysWOW64\MapRouter".?get_system_access_logo@TransitRouteElement@ngeo@Microsoft@@QBEABVIcon@23@XZ
  ?get_system_access_logo@TransitSystemInfo@ngeo@Microsoft@@QBEABVIcon@23@XZ="C:\Windows\SysWOW64\MapRouter".?get_system_access_logo@TransitSystemInfo@ngeo@Microsoft@@QBEABVIcon@23@XZ
  ?get_system_id@TransitLineInfo@ngeo@Microsoft@@QBEABVEdgeId@smart5@3@XZ="C:\Windows\SysWOW64\MapRouter".?get_system_id@TransitLineInfo@ngeo@Microsoft@@QBEABVEdgeId@smart5@3@XZ
  ?get_system_informal_name@TransitRouteElement@ngeo@Microsoft@@QBEABV?$basic_string@GU?$char_traits@G@std@@V?$allocator@G@2@@std@@XZ="C:\Windows\SysWOW64\MapRouter".?get_system_informal_name@TransitRouteElement@ngeo@Microsoft@@QBEABV?$basic_string@GU?$char_traits@G@std@@V?$allocator@G@2@@std@@XZ
  ?get_system_informal_name@TransitSystemInfo@ngeo@Microsoft@@QBEABV?$basic_string@GU?$char_traits@G@std@@V?$allocator@G@2@@std@@XZ="C:\Windows\SysWOW64\MapRouter".?get_system_informal_name@TransitSystemInfo@ngeo@Microsoft@@QBEABV?$basic_string@GU?$char_traits@G@std@@V?$allocator@G@2@@std@@XZ
  ?get_system_logo@TransitRouteElement@ngeo@Microsoft@@QBEABVIcon@23@XZ="C:\Windows\SysWOW64\MapRouter".?get_system_logo@TransitRouteElement@ngeo@Microsoft@@QBEABVIcon@23@XZ
  ?get_system_logo@TransitSystemInfo@ngeo@Microsoft@@QBEABVIcon@23@XZ="C:\Windows\SysWOW64\MapRouter".?get_system_logo@TransitSystemInfo@ngeo@Microsoft@@QBEABVIcon@23@XZ
  ?get_system_official_name@TransitRouteElement@ngeo@Microsoft@@QBEABV?$basic_string@GU?$char_traits@G@std@@V?$allocator@G@2@@std@@XZ="C:\Windows\SysWOW64\MapRouter".?get_system_official_name@TransitRouteElement@ngeo@Microsoft@@QBEABV?$basic_string@GU?$char_traits@G@std@@V?$allocator@G@2@@std@@XZ
  ?get_system_official_name@TransitSystemInfo@ngeo@Microsoft@@QBEABV?$basic_string@GU?$char_traits@G@std@@V?$allocator@G@2@@std@@XZ="C:\Windows\SysWOW64\MapRouter".?get_system_official_name@TransitSystemInfo@ngeo@Microsoft@@QBEABV?$basic_string@GU?$char_traits@G@std@@V?$allocator@G@2@@std@@XZ
  ?get_system_short_name@TransitRouteElement@ngeo@Microsoft@@QBEABV?$basic_string@GU?$char_traits@G@std@@V?$allocator@G@2@@std@@XZ="C:\Windows\SysWOW64\MapRouter".?get_system_short_name@TransitRouteElement@ngeo@Microsoft@@QBEABV?$basic_string@GU?$char_traits@G@std@@V?$allocator@G@2@@std@@XZ
  ?get_system_short_name@TransitSystemInfo@ngeo@Microsoft@@QBEABV?$basic_string@GU?$char_traits@G@std@@V?$allocator@G@2@@std@@XZ="C:\Windows\SysWOW64\MapRouter".?get_system_short_name@TransitSystemInfo@ngeo@Microsoft@@QBEABV?$basic_string@GU?$char_traits@G@std@@V?$allocator@G@2@@std@@XZ
  ?get_system_website_url@TransitSystemInfo@ngeo@Microsoft@@QBEABV?$basic_string@GU?$char_traits@G@std@@V?$allocator@G@2@@std@@XZ="C:\Windows\SysWOW64\MapRouter".?get_system_website_url@TransitSystemInfo@ngeo@Microsoft@@QBEABV?$basic_string@GU?$char_traits@G@std@@V?$allocator@G@2@@std@@XZ
  ?get_systems@TransitStopInfo@ngeo@Microsoft@@QBEXAAV?$vector@VEdgeId@smart5@Microsoft@@V?$allocator@VEdgeId@smart5@Microsoft@@@std@@@std@@@Z="C:\Windows\SysWOW64\MapRouter".?get_systems@TransitStopInfo@ngeo@Microsoft@@QBEXAAV?$vector@VEdgeId@smart5@Microsoft@@V?$allocator@VEdgeId@smart5@Microsoft@@@std@@@std@@@Z
  ?get_terminating_lines@TransitStopInfo@ngeo@Microsoft@@QBEXAAV?$vector@VEdgeId@smart5@Microsoft@@V?$allocator@VEdgeId@smart5@Microsoft@@@std@@@std@@@Z="C:\Windows\SysWOW64\MapRouter".?get_terminating_lines@TransitStopInfo@ngeo@Microsoft@@QBEXAAV?$vector@VEdgeId@smart5@Microsoft@@V?$allocator@VEdgeId@smart5@Microsoft@@@std@@@std@@@Z
  ?get_terminating_systems@TransitStopInfo@ngeo@Microsoft@@QBEXAAV?$vector@VEdgeId@smart5@Microsoft@@V?$allocator@VEdgeId@smart5@Microsoft@@@std@@@std@@@Z="C:\Windows\SysWOW64\MapRouter".?get_terminating_systems@TransitStopInfo@ngeo@Microsoft@@QBEXAAV?$vector@VEdgeId@smart5@Microsoft@@V?$allocator@VEdgeId@smart5@Microsoft@@@std@@@std@@@Z
  ?get_text@LanguageKeyValuePair@ngeo@Microsoft@@QBEABV?$basic_string@GU?$char_traits@G@std@@V?$allocator@G@2@@std@@XZ="C:\Windows\SysWOW64\MapRouter".?get_text@LanguageKeyValuePair@ngeo@Microsoft@@QBEABV?$basic_string@GU?$char_traits@G@std@@V?$allocator@G@2@@std@@XZ
  ?get_text_output@Output@ngeo@Microsoft@@QBEABV?$basic_string@GU?$char_traits@G@std@@V?$allocator@G@2@@std@@XZ="C:\Windows\SysWOW64\MapRouter".?get_text_output@Output@ngeo@Microsoft@@QBEABV?$basic_string@GU?$char_traits@G@std@@V?$allocator@G@2@@std@@XZ
  ?get_texts@SignpostLabelVoiceInfo@ngeo@Microsoft@@QBEABVLanguageMapping@23@XZ="C:\Windows\SysWOW64\MapRouter".?get_texts@SignpostLabelVoiceInfo@ngeo@Microsoft@@QBEABVLanguageMapping@23@XZ
  ?get_time@DateTime@ngeo@Microsoft@@QBEABVTime@23@XZ="C:\Windows\SysWOW64\MapRouter".?get_time@DateTime@ngeo@Microsoft@@QBEABVTime@23@XZ
  ?get_time@RouteOptions@ngeo@Microsoft@@QBE?AW4TimeType@123@AAVDateTime@23@@Z="C:\Windows\SysWOW64\MapRouter".?get_time@RouteOptions@ngeo@Microsoft@@QBE?AW4TimeType@123@AAVDateTime@23@@Z
  ?get_time_type@RouteOptions@ngeo@Microsoft@@QBE?AW4TimeType@123@XZ="C:\Windows\SysWOW64\MapRouter".?get_time_type@RouteOptions@ngeo@Microsoft@@QBE?AW4TimeType@123@XZ
  ?get_timestamp@DateTime@ngeo@Microsoft@@QBE_JXZ="C:\Windows\SysWOW64\MapRouter".?get_timestamp@DateTime@ngeo@Microsoft@@QBE_JXZ
  ?get_timestamp@Location@ngeo@Microsoft@@QBE_JXZ="C:\Windows\SysWOW64\MapRouter".?get_timestamp@Location@ngeo@Microsoft@@QBE_JXZ
  ?get_to_streets@Traffic@ngeo@Microsoft@@QBE?AW4ErrorCode@errorcodes@msngeo@@ABVTrafficEvent@23@AAV?$basic_string@GU?$char_traits@G@std@@V?$allocator@G@2@@std@@@Z="C:\Windows\SysWOW64\MapRouter".?get_to_streets@Traffic@ngeo@Microsoft@@QBE?AW4ErrorCode@errorcodes@msngeo@@ABVTrafficEvent@23@AAV?$basic_string@GU?$char_traits@G@std@@V?$allocator@G@2@@std@@@Z
  ?get_top_left@GeoRect@ngeo@Microsoft@@QAEAAVGeoCoordinates@23@XZ="C:\Windows\SysWOW64\MapRouter".?get_top_left@GeoRect@ngeo@Microsoft@@QAEAAVGeoCoordinates@23@XZ
  ?get_top_left@GeoRect@ngeo@Microsoft@@QBEABVGeoCoordinates@23@XZ="C:\Windows\SysWOW64\MapRouter".?get_top_left@GeoRect@ngeo@Microsoft@@QBEABVGeoCoordinates@23@XZ
  ?get_top_left@PixelRect@ngeo@Microsoft@@QBEABVPixelCoordinates@23@XZ="C:\Windows\SysWOW64\MapRouter".?get_top_left@PixelRect@ngeo@Microsoft@@QBEABVPixelCoordinates@23@XZ
  ?get_traffic@TrafficPenaltySource@DynamicPenalty@ngeo@Microsoft@@QBEABVTraffic@34@XZ="C:\Windows\SysWOW64\MapRouter".?get_traffic@TrafficPenaltySource@DynamicPenalty@ngeo@Microsoft@@QBEABVTraffic@34@XZ
  ?get_traffic_avoidance_mode@SimpleGuidance@naviplayer@Microsoft@@QBE?AW4TrafficAvoidanceMode@SimpleGuidanceOptions@23@XZ="C:\Windows\SysWOW64\MapRouter".?get_traffic_avoidance_mode@SimpleGuidance@naviplayer@Microsoft@@QBE?AW4TrafficAvoidanceMode@SimpleGuidanceOptions@23@XZ
  ?get_traffic_avoidance_mode@SimpleGuidanceOptions@naviplayer@Microsoft@@QBE?AW4TrafficAvoidanceMode@123@XZ="C:\Windows\SysWOW64\MapRouter".?get_traffic_avoidance_mode@SimpleGuidanceOptions@naviplayer@Microsoft@@QBE?AW4TrafficAvoidanceMode@123@XZ
  ?get_traffic_direction@Maneuver@ngeo@Microsoft@@QBE?AW4TrafficDirection@123@XZ="C:\Windows\SysWOW64\MapRouter".?get_traffic_direction@Maneuver@ngeo@Microsoft@@QBE?AW4TrafficDirection@123@XZ
  ?get_traffic_direction_string@Maneuver@ngeo@Microsoft@@SGPBGW4TrafficDirection@123@@Z="C:\Windows\SysWOW64\MapRouter".?get_traffic_direction_string@Maneuver@ngeo@Microsoft@@SGPBGW4TrafficDirection@123@@Z
  ?get_traffic_event@TrafficEventObject@ngeo@Microsoft@@QBEABVTrafficEvent@23@XZ="C:\Windows\SysWOW64\MapRouter".?get_traffic_event@TrafficEventObject@ngeo@Microsoft@@QBEABVTrafficEvent@23@XZ
  ?get_traffic_light_count@NaturalGuidanceVoiceInfo@ngeo@Microsoft@@QBEIXZ="C:\Windows\SysWOW64\MapRouter".?get_traffic_light_count@NaturalGuidanceVoiceInfo@ngeo@Microsoft@@QBEIXZ
  ?get_traffic_penalty_source@DynamicPenalty@ngeo@Microsoft@@QBEABVTrafficPenaltySource@123@XZ="C:\Windows\SysWOW64\MapRouter".?get_traffic_penalty_source@DynamicPenalty@ngeo@Microsoft@@QBEABVTrafficPenaltySource@123@XZ
  ?get_traffic_warner@SimpleGuidance@naviplayer@Microsoft@@QBEABVTrafficWarner@ngeo@3@XZ="C:\Windows\SysWOW64\MapRouter".?get_traffic_warner@SimpleGuidance@naviplayer@Microsoft@@QBEABVTrafficWarner@ngeo@3@XZ
  ?get_transfers@TransitStopInfo@ngeo@Microsoft@@QBEXAAV?$vector@VEdgeId@smart5@Microsoft@@V?$allocator@VEdgeId@smart5@Microsoft@@@std@@@std@@@Z="C:\Windows\SysWOW64\MapRouter".?get_transfers@TransitStopInfo@ngeo@Microsoft@@QBEXAAV?$vector@VEdgeId@smart5@Microsoft@@V?$allocator@VEdgeId@smart5@Microsoft@@@std@@@std@@@Z
  ?get_transit_element@RouteElement@ngeo@Microsoft@@QBE?AVTransitRouteElement@23@XZ="C:\Windows\SysWOW64\MapRouter".?get_transit_element@RouteElement@ngeo@Microsoft@@QBE?AVTransitRouteElement@23@XZ
  ?get_transit_options@RouteOptions@ngeo@Microsoft@@QBEABVTransitRouteOptions@23@XZ="C:\Windows\SysWOW64\MapRouter".?get_transit_options@RouteOptions@ngeo@Microsoft@@QBEABVTransitRouteOptions@23@XZ
  ?get_transit_type@TransitRouteElement@ngeo@Microsoft@@QBE?AW4TransitType@23@XZ="C:\Windows\SysWOW64\MapRouter".?get_transit_type@TransitRouteElement@ngeo@Microsoft@@QBE?AW4TransitType@23@XZ
  ?get_transit_type_name@TransitRouteElement@ngeo@Microsoft@@QBEABV?$basic_string@GU?$char_traits@G@std@@V?$allocator@G@2@@std@@XZ="C:\Windows\SysWOW64\MapRouter".?get_transit_type_name@TransitRouteElement@ngeo@Microsoft@@QBEABV?$basic_string@GU?$char_traits@G@std@@V?$allocator@G@2@@std@@XZ
  ?get_travel_mode@VoiceSkin@ngeo@Microsoft@@QBE?AW4TravelMode@123@XZ="C:\Windows\SysWOW64\MapRouter".?get_travel_mode@VoiceSkin@ngeo@Microsoft@@QBE?AW4TravelMode@123@XZ
  ?get_travel_time_from_maneuver@Route@ngeo@Microsoft@@QBEIABVManeuver@23@W4SpeedType@123@@Z="C:\Windows\SysWOW64\MapRouter".?get_travel_time_from_maneuver@Route@ngeo@Microsoft@@QBEIABVManeuver@23@W4SpeedType@123@@Z
  ?get_travel_time_s@RoadElement@ngeo@Microsoft@@QBEIXZ="C:\Windows\SysWOW64\MapRouter".?get_travel_time_s@RoadElement@ngeo@Microsoft@@QBEIXZ
  ?get_travel_time_s@TransitRouteElement@ngeo@Microsoft@@QBEIXZ="C:\Windows\SysWOW64\MapRouter".?get_travel_time_s@TransitRouteElement@ngeo@Microsoft@@QBEIXZ
  ?get_turn@Maneuver@ngeo@Microsoft@@QBE?AW4TurnId@123@XZ="C:\Windows\SysWOW64\MapRouter".?get_turn@Maneuver@ngeo@Microsoft@@QBE?AW4TurnId@123@XZ
  ?get_turn@ManeuverVoiceInfo@ngeo@Microsoft@@QBE?AW4Turn@123@XZ="C:\Windows\SysWOW64\MapRouter".?get_turn@ManeuverVoiceInfo@ngeo@Microsoft@@QBE?AW4Turn@123@XZ
  ?get_turnid_string@Maneuver@ngeo@Microsoft@@SGPBGW4TurnId@123@@Z="C:\Windows\SysWOW64\MapRouter".?get_turnid_string@Maneuver@ngeo@Microsoft@@SGPBGW4TurnId@123@@Z
  ?get_type@Icon@ngeo@Microsoft@@QBE?AW4ImageType@23@XZ="C:\Windows\SysWOW64\MapRouter".?get_type@Icon@ngeo@Microsoft@@QBE?AW4ImageType@23@XZ
  ?get_type@NaturalGuidanceVoiceInfo@ngeo@Microsoft@@QBE?AW4ElementType@123@XZ="C:\Windows\SysWOW64\MapRouter".?get_type@NaturalGuidanceVoiceInfo@ngeo@Microsoft@@QBE?AW4ElementType@123@XZ
  ?get_type@RouteElement@ngeo@Microsoft@@QBE?AW4Type@123@XZ="C:\Windows\SysWOW64\MapRouter".?get_type@RouteElement@ngeo@Microsoft@@QBE?AW4Type@123@XZ
  ?get_type@RouteWaypoint@ngeo@Microsoft@@QBE?AW4Type@123@XZ="C:\Windows\SysWOW64\MapRouter".?get_type@RouteWaypoint@ngeo@Microsoft@@QBE?AW4Type@123@XZ
  ?get_type@TrafficNotificationInfo@ngeo@Microsoft@@QBE?AW4Type@123@XZ="C:\Windows\SysWOW64\MapRouter".?get_type@TrafficNotificationInfo@ngeo@Microsoft@@QBE?AW4Type@123@XZ
  ?get_type@TransitLineInfo@ngeo@Microsoft@@QBE?AW4TransitType@23@XZ="C:\Windows\SysWOW64\MapRouter".?get_type@TransitLineInfo@ngeo@Microsoft@@QBE?AW4TransitType@23@XZ
  ?get_type_as_string@TransitLineInfo@ngeo@Microsoft@@QBEPBDXZ="C:\Windows\SysWOW64\MapRouter".?get_type_as_string@TransitLineInfo@ngeo@Microsoft@@QBEPBDXZ
  ?get_update_date@Traffic@ngeo@Microsoft@@QBE?AW4ErrorCode@errorcodes@msngeo@@ABVTrafficEvent@23@AAI@Z="C:\Windows\SysWOW64\MapRouter".?get_update_date@Traffic@ngeo@Microsoft@@QBE?AW4ErrorCode@errorcodes@msngeo@@ABVTrafficEvent@23@AAI@Z
  ?get_use_traffic@Route@ngeo@Microsoft@@QBE_NXZ="C:\Windows\SysWOW64\MapRouter".?get_use_traffic@Route@ngeo@Microsoft@@QBE_NXZ
  ?get_userdictionary_file@VoiceSkin@ngeo@Microsoft@@QBEABV?$basic_string@GU?$char_traits@G@std@@V?$allocator@G@2@@std@@XZ="C:\Windows\SysWOW64\MapRouter".?get_userdictionary_file@VoiceSkin@ngeo@Microsoft@@QBEABV?$basic_string@GU?$char_traits@G@std@@V?$allocator@G@2@@std@@XZ
  ?get_validity_end@RoadElementPenalty@DynamicPenalty@ngeo@Microsoft@@QBE_JXZ="C:\Windows\SysWOW64\MapRouter".?get_validity_end@RoadElementPenalty@DynamicPenalty@ngeo@Microsoft@@QBE_JXZ
  ?get_validity_start@RoadElementPenalty@DynamicPenalty@ngeo@Microsoft@@QBE_JXZ="C:\Windows\SysWOW64\MapRouter".?get_validity_start@RoadElementPenalty@DynamicPenalty@ngeo@Microsoft@@QBE_JXZ
  ?get_value@LanguageMapping@ngeo@Microsoft@@QBEABV?$basic_string@GU?$char_traits@G@std@@V?$allocator@G@2@@std@@ABV45@@Z="C:\Windows\SysWOW64\MapRouter".?get_value@LanguageMapping@ngeo@Microsoft@@QBEABV?$basic_string@GU?$char_traits@G@std@@V?$allocator@G@2@@std@@ABV45@@Z
  ?get_value_max@MetricsInfo@ngeo@Microsoft@@QBENXZ="C:\Windows\SysWOW64\MapRouter".?get_value_max@MetricsInfo@ngeo@Microsoft@@QBENXZ
  ?get_value_mean@MetricsInfo@ngeo@Microsoft@@QBENXZ="C:\Windows\SysWOW64\MapRouter".?get_value_mean@MetricsInfo@ngeo@Microsoft@@QBENXZ
  ?get_value_min@MetricsInfo@ngeo@Microsoft@@QBENXZ="C:\Windows\SysWOW64\MapRouter".?get_value_min@MetricsInfo@ngeo@Microsoft@@QBENXZ
  ?get_value_sum@MetricsInfo@ngeo@Microsoft@@QBENXZ="C:\Windows\SysWOW64\MapRouter".?get_value_sum@MetricsInfo@ngeo@Microsoft@@QBENXZ
  ?get_vector@LanguageMapping@ngeo@Microsoft@@QBEABV?$vector@VLanguageKeyValuePair@ngeo@Microsoft@@V?$allocator@VLanguageKeyValuePair@ngeo@Microsoft@@@std@@@std@@XZ="C:\Windows\SysWOW64\MapRouter".?get_vector@LanguageMapping@ngeo@Microsoft@@QBEABV?$vector@VLanguageKeyValuePair@ngeo@Microsoft@@V?$allocator@VLanguageKeyValuePair@ngeo@Microsoft@@@std@@@std@@XZ
  ?get_vector@MetricsAccessor@ngeo@Microsoft@@QBEABV?$vector@VMetricsInfo@ngeo@Microsoft@@V?$allocator@VMetricsInfo@ngeo@Microsoft@@@std@@@std@@XZ="C:\Windows\SysWOW64\MapRouter".?get_vector@MetricsAccessor@ngeo@Microsoft@@QBEABV?$vector@VMetricsInfo@ngeo@Microsoft@@V?$allocator@VMetricsInfo@ngeo@Microsoft@@@std@@@std@@XZ
  ?get_vehicle_time_s@TransitRouteElement@ngeo@Microsoft@@QBEIXZ="C:\Windows\SysWOW64\MapRouter".?get_vehicle_time_s@TransitRouteElement@ngeo@Microsoft@@QBEIXZ
  ?get_version@MicrosoftTtsVoiceInfo@ngeo@Microsoft@@QBEABV?$basic_string@GU?$char_traits@G@std@@V?$allocator@G@2@@std@@XZ="C:\Windows\SysWOW64\MapRouter".?get_version@MicrosoftTtsVoiceInfo@ngeo@Microsoft@@QBEABV?$basic_string@GU?$char_traits@G@std@@V?$allocator@G@2@@std@@XZ
  ?get_version@Version@ngeo@Microsoft@@QBE?AV?$basic_string@GU?$char_traits@G@std@@V?$allocator@G@2@@std@@XZ="C:\Windows\SysWOW64\MapRouter".?get_version@Version@ngeo@Microsoft@@QBE?AV?$basic_string@GU?$char_traits@G@std@@V?$allocator@G@2@@std@@XZ
  ?get_versions@TtsVoiceInfo@ngeo@Microsoft@@QBEABV?$vector@V?$basic_string@GU?$char_traits@G@std@@V?$allocator@G@2@@std@@V?$allocator@V?$basic_string@GU?$char_traits@G@std@@V?$allocator@G@2@@std@@@2@@std@@XZ="C:\Windows\SysWOW64\MapRouter".?get_versions@TtsVoiceInfo@ngeo@Microsoft@@QBEABV?$vector@V?$basic_string@GU?$char_traits@G@std@@V?$allocator@G@2@@std@@V?$allocator@V?$basic_string@GU?$char_traits@G@std@@V?$allocator@G@2@@std@@@2@@std@@XZ
  ?get_via_waypoint_count@Route@ngeo@Microsoft@@QBE?AW4ErrorCode@errorcodes@msngeo@@IAAI@Z="C:\Windows\SysWOW64\MapRouter".?get_via_waypoint_count@Route@ngeo@Microsoft@@QBE?AW4ErrorCode@errorcodes@msngeo@@IAAI@Z
  ?get_via_waypoint_index@Route@ngeo@Microsoft@@QBE?AW4ErrorCode@errorcodes@msngeo@@IIAAI@Z="C:\Windows\SysWOW64\MapRouter".?get_via_waypoint_index@Route@ngeo@Microsoft@@QBE?AW4ErrorCode@errorcodes@msngeo@@IIAAI@Z
  ?get_view_area@RenderBuffer@ngeo@Microsoft@@QBEABVPixelRect@23@XZ="C:\Windows\SysWOW64\MapRouter".?get_view_area@RenderBuffer@ngeo@Microsoft@@QBEABVPixelRect@23@XZ
  ?get_voice_settings@OutputEngine@ngeo@Microsoft@@QBE?AW4ErrorCode@errorcodes@msngeo@@AAV?$map@V?$basic_string@GU?$char_traits@G@std@@V?$allocator@G@2@@std@@V12@U?$less@V?$basic_string@GU?$char_traits@G@std@@V?$allocator@G@2@@std@@@2@V?$allocator@U?$pair@$$CBV?$basic_string@GU?$char_traits@G@std@@V?$allocator@G@2@@std@@V12@@std@@@2@@std@@@Z="C:\Windows\SysWOW64\MapRouter".?get_voice_settings@OutputEngine@ngeo@Microsoft@@QBE?AW4ErrorCode@errorcodes@msngeo@@AAV?$map@V?$basic_string@GU?$char_traits@G@std@@V?$allocator@G@2@@std@@V12@U?$less@V?$basic_string@GU?$char_traits@G@std@@V?$allocator@G@2@@std@@@2@V?$allocator@U?$pair@$$CBV?$basic_string@GU?$char_traits@G@std@@V?$allocator@G@2@@std@@V12@@std@@@2@@std@@@Z
  ?get_voice_settings@SimpleGuidance@naviplayer@Microsoft@@QBE?AW4ErrorCode@errorcodes@msngeo@@AAV?$map@V?$basic_string@GU?$char_traits@G@std@@V?$allocator@G@2@@std@@V12@U?$less@V?$basic_string@GU?$char_traits@G@std@@V?$allocator@G@2@@std@@@2@V?$allocator@U?$pair@$$CBV?$basic_string@GU?$char_traits@G@std@@V?$allocator@G@2@@std@@V12@@std@@@2@@std@@@Z="C:\Windows\SysWOW64\MapRouter".?get_voice_settings@SimpleGuidance@naviplayer@Microsoft@@QBE?AW4ErrorCode@errorcodes@msngeo@@AAV?$map@V?$basic_string@GU?$char_traits@G@std@@V?$allocator@G@2@@std@@V12@U?$less@V?$basic_string@GU?$char_traits@G@std@@V?$allocator@G@2@@std@@@2@V?$allocator@U?$pair@$$CBV?$basic_string@GU?$char_traits@G@std@@V?$allocator@G@2@@std@@V12@@std@@@2@@std@@@Z
  ?get_voice_settings@VoiceSkin@ngeo@Microsoft@@QBE?AW4ErrorCode@errorcodes@msngeo@@AAV?$map@V?$basic_string@GU?$char_traits@G@std@@V?$allocator@G@2@@std@@V12@U?$less@V?$basic_string@GU?$char_traits@G@std@@V?$allocator@G@2@@std@@@2@V?$allocator@U?$pair@$$CBV?$basic_string@GU?$char_traits@G@std@@V?$allocator@G@2@@std@@V12@@std@@@2@@std@@@Z="C:\Windows\SysWOW64\MapRouter".?get_voice_settings@VoiceSkin@ngeo@Microsoft@@QBE?AW4ErrorCode@errorcodes@msngeo@@AAV?$map@V?$basic_string@GU?$char_traits@G@std@@V?$allocator@G@2@@std@@V12@U?$less@V?$basic_string@GU?$char_traits@G@std@@V?$allocator@G@2@@std@@@2@V?$allocator@U?$pair@$$CBV?$basic_string@GU?$char_traits@G@std@@V?$allocator@G@2@@std@@V12@@std@@@2@@std@@@Z
  ?get_voice_skin@SimpleGuidance@naviplayer@Microsoft@@QBE?AVVoiceSkin@ngeo@3@XZ="C:\Windows\SysWOW64\MapRouter".?get_voice_skin@SimpleGuidance@naviplayer@Microsoft@@QBE?AVVoiceSkin@ngeo@3@XZ
  ?get_walk_time_multiplier@TransitRouteOptions@ngeo@Microsoft@@QBEMXZ="C:\Windows\SysWOW64\MapRouter".?get_walk_time_multiplier@TransitRouteOptions@ngeo@Microsoft@@QBEMXZ
  ?get_warning_type@ItineraryWarningAdminDivChange@ngeo@Microsoft@@UBE?AW4Type@ItineraryWarning@23@XZ="C:\Windows\SysWOW64\MapRouter".?get_warning_type@ItineraryWarningAdminDivChange@ngeo@Microsoft@@UBE?AW4Type@ItineraryWarning@23@XZ
  ?get_warning_type@ItineraryWarningAttributes@ngeo@Microsoft@@UBE?AW4Type@ItineraryWarning@23@XZ="C:\Windows\SysWOW64\MapRouter".?get_warning_type@ItineraryWarningAttributes@ngeo@Microsoft@@UBE?AW4Type@ItineraryWarning@23@XZ
  ?get_warning_type@ItineraryWarningTraffic@ngeo@Microsoft@@UBE?AW4Type@ItineraryWarning@23@XZ="C:\Windows\SysWOW64\MapRouter".?get_warning_type@ItineraryWarningTraffic@ngeo@Microsoft@@UBE?AW4Type@ItineraryWarning@23@XZ
  ?get_waypoints@RoutePlan@ngeo@Microsoft@@QAEAAV?$vector@VRouteWaypoint@ngeo@Microsoft@@V?$allocator@VRouteWaypoint@ngeo@Microsoft@@@std@@@std@@XZ="C:\Windows\SysWOW64\MapRouter".?get_waypoints@RoutePlan@ngeo@Microsoft@@QAEAAV?$vector@VRouteWaypoint@ngeo@Microsoft@@V?$allocator@VRouteWaypoint@ngeo@Microsoft@@@std@@@std@@XZ
  ?get_waypoints@RoutePlan@ngeo@Microsoft@@QBEABV?$vector@VRouteWaypoint@ngeo@Microsoft@@V?$allocator@VRouteWaypoint@ngeo@Microsoft@@@std@@@std@@XZ="C:\Windows\SysWOW64\MapRouter".?get_waypoints@RoutePlan@ngeo@Microsoft@@QBEABV?$vector@VRouteWaypoint@ngeo@Microsoft@@V?$allocator@VRouteWaypoint@ngeo@Microsoft@@@std@@@std@@XZ
  ?get_weight@MapMatcherOptions@ngeo@Microsoft@@QBEMW4ID@Scenario@123@W44Rule@123@@Z="C:\Windows\SysWOW64\MapRouter".?get_weight@MapMatcherOptions@ngeo@Microsoft@@QBEMW4ID@Scenario@123@W44Rule@123@@Z
  ?get_width@RenderBuffer@ngeo@Microsoft@@UBEIXZ="C:\Windows\SysWOW64\MapRouter".?get_width@RenderBuffer@ngeo@Microsoft@@UBEIXZ
  ?get_width@SizeInPixels@ngeo@Microsoft@@QBEMXZ="C:\Windows\SysWOW64\MapRouter".?get_width@SizeInPixels@ngeo@Microsoft@@QBEMXZ
  ?get_width@Surface@ngeo@Microsoft@@UBEIXZ="C:\Windows\SysWOW64\MapRouter".?get_width@Surface@ngeo@Microsoft@@UBEIXZ
  ?get_x@PixelCoordinates@ngeo@Microsoft@@QBEMXZ="C:\Windows\SysWOW64\MapRouter".?get_x@PixelCoordinates@ngeo@Microsoft@@QBEMXZ
  ?get_x_accuracy_m@Location@ngeo@Microsoft@@QBEMXZ="C:\Windows\SysWOW64\MapRouter".?get_x_accuracy_m@Location@ngeo@Microsoft@@QBEMXZ
  ?get_y@PixelCoordinates@ngeo@Microsoft@@QBEMXZ="C:\Windows\SysWOW64\MapRouter".?get_y@PixelCoordinates@ngeo@Microsoft@@QBEMXZ
  ?get_y_accuracy_m@Location@ngeo@Microsoft@@QBEMXZ="C:\Windows\SysWOW64\MapRouter".?get_y_accuracy_m@Location@ngeo@Microsoft@@QBEMXZ
  ?get_year@Date@ngeo@Microsoft@@QBEFXZ="C:\Windows\SysWOW64\MapRouter".?get_year@Date@ngeo@Microsoft@@QBEFXZ
  ?get_z_accuracy_m@Location@ngeo@Microsoft@@QBEMXZ="C:\Windows\SysWOW64\MapRouter".?get_z_accuracy_m@Location@ngeo@Microsoft@@QBEMXZ
  ?green@Color@ngeo@Microsoft@@SGABV123@XZ="C:\Windows\SysWOW64\MapRouter".?green@Color@ngeo@Microsoft@@SGABV123@XZ
  ?guidance@Guidance@nmacore@Microsoft@@QBEABV1ngeo@3@XZ="C:\Windows\SysWOW64\MapRouter".?guidance@Guidance@nmacore@Microsoft@@QBEABV1ngeo@3@XZ
  ?guidanceMode@Guidance@nmacore@Microsoft@@QBE?AW4GuidanceMode@123@XZ="C:\Windows\SysWOW64\MapRouter".?guidanceMode@Guidance@nmacore@Microsoft@@QBE?AW4GuidanceMode@123@XZ
  ?has@LocationInfo@ngeo@Microsoft@@QBE_NW4Field@123@@Z="C:\Windows\SysWOW64\MapRouter".?has@LocationInfo@ngeo@Microsoft@@QBE_NW4Field@123@@Z
  ?hasAvailabilityDb@TrafficEngine@nmacore@Microsoft@@QBE_NXZ="C:\Windows\SysWOW64\MapRouter".?hasAvailabilityDb@TrafficEngine@nmacore@Microsoft@@QBE_NXZ
  ?hasSameCoordinatesAs@GeoCoordinates@ngeo@Microsoft@@QBE_NABV123@@Z="C:\Windows\SysWOW64\MapRouter".?hasSameCoordinatesAs@GeoCoordinates@ngeo@Microsoft@@QBE_NABV123@@Z
  ?has_attribute@TransitAccessInfo@ngeo@Microsoft@@QBE_NW4TransitAccessAttribute@23@@Z="C:\Windows\SysWOW64\MapRouter".?has_attribute@TransitAccessInfo@ngeo@Microsoft@@QBE_NW4TransitAccessAttribute@23@@Z
  ?has_attribute@TransitLineInfo@ngeo@Microsoft@@QBE_NW4TransitLineAttribute@23@@Z="C:\Windows\SysWOW64\MapRouter".?has_attribute@TransitLineInfo@ngeo@Microsoft@@QBE_NW4TransitLineAttribute@23@@Z
  ?has_attribute@TransitStopInfo@ngeo@Microsoft@@QBE_NW4TransitStopAttribute@23@@Z="C:\Windows\SysWOW64\MapRouter".?has_attribute@TransitStopInfo@ngeo@Microsoft@@QBE_NW4TransitStopAttribute@23@@Z
  ?has_attribute@TransitSystemInfo@ngeo@Microsoft@@QBE_NW4TransitSystemAttribute@23@@Z="C:\Windows\SysWOW64\MapRouter".?has_attribute@TransitSystemInfo@ngeo@Microsoft@@QBE_NW4TransitSystemAttribute@23@@Z
  ?has_color@TransitLineInfo@ngeo@Microsoft@@QBE_NXZ="C:\Windows\SysWOW64\MapRouter".?has_color@TransitLineInfo@ngeo@Microsoft@@QBE_NXZ
  ?has_entrance_method@TransitAccessInfo@ngeo@Microsoft@@QBE_NW4AccessMethod@123@@Z="C:\Windows\SysWOW64\MapRouter".?has_entrance_method@TransitAccessInfo@ngeo@Microsoft@@QBE_NW4AccessMethod@123@@Z
  ?has_exit_method@TransitAccessInfo@ngeo@Microsoft@@QBE_NW4AccessMethod@123@@Z="C:\Windows\SysWOW64\MapRouter".?has_exit_method@TransitAccessInfo@ngeo@Microsoft@@QBE_NW4AccessMethod@123@@Z
  ?has_line_type@TransitAccessInfo@ngeo@Microsoft@@QBE_NW4TransitType@23@@Z="C:\Windows\SysWOW64\MapRouter".?has_line_type@TransitAccessInfo@ngeo@Microsoft@@QBE_NW4TransitType@23@@Z
  ?has_line_type@TransitStopInfo@ngeo@Microsoft@@QBE_NW4TransitType@23@@Z="C:\Windows\SysWOW64\MapRouter".?has_line_type@TransitStopInfo@ngeo@Microsoft@@QBE_NW4TransitType@23@@Z
  ?has_name_hint@RouteWaypoint@ngeo@Microsoft@@QBE_NXZ="C:\Windows\SysWOW64\MapRouter".?has_name_hint@RouteWaypoint@ngeo@Microsoft@@QBE_NXZ
  ?has_original_position@RouteWaypoint@ngeo@Microsoft@@QBE_NXZ="C:\Windows\SysWOW64\MapRouter".?has_original_position@RouteWaypoint@ngeo@Microsoft@@QBE_NXZ
  ?has_primary_line_color@TransitRouteElement@ngeo@Microsoft@@QBE_NXZ="C:\Windows\SysWOW64\MapRouter".?has_primary_line_color@TransitRouteElement@ngeo@Microsoft@@QBE_NXZ
  ?has_secondary_line_color@TransitRouteElement@ngeo@Microsoft@@QBE_NXZ="C:\Windows\SysWOW64\MapRouter".?has_secondary_line_color@TransitRouteElement@ngeo@Microsoft@@QBE_NXZ
  ?has_valid_altitude@GeoCoordinates@ngeo@Microsoft@@QBE_NXZ="C:\Windows\SysWOW64\MapRouter".?has_valid_altitude@GeoCoordinates@ngeo@Microsoft@@QBE_NXZ
  ?has_valid_bbox@Location@ngeo@Microsoft@@QBE_NXZ="C:\Windows\SysWOW64\MapRouter".?has_valid_bbox@Location@ngeo@Microsoft@@QBE_NXZ
  ?have_manual_traffic_avoidance@SimpleGuidance@naviplayer@Microsoft@@QBE_NXZ="C:\Windows\SysWOW64\MapRouter".?have_manual_traffic_avoidance@SimpleGuidance@naviplayer@Microsoft@@QBE_NXZ
  ?hittestCountry@RouterEngine@nmacore@Microsoft@@QAEIW4CountryEnum@ngeo@3@ABV?$vector@VRouteWaypoint@ngeo@Microsoft@@V?$allocator@VRouteWaypoint@ngeo@Microsoft@@@std@@@std@@@Z="C:\Windows\SysWOW64\MapRouter".?hittestCountry@RouterEngine@nmacore@Microsoft@@QAEIW4CountryEnum@ngeo@3@ABV?$vector@VRouteWaypoint@ngeo@Microsoft@@V?$allocator@VRouteWaypoint@ngeo@Microsoft@@@std@@@std@@@Z
  ?hittest_country_polygons@MapModel@ngeo@Microsoft@@QBE?AW4ErrorCode@errorcodes@msngeo@@W4CountryEnum@23@ABVGeoCoordinates@23@PA_N@Z="C:\Windows\SysWOW64\MapRouter".?hittest_country_polygons@MapModel@ngeo@Microsoft@@QBE?AW4ErrorCode@errorcodes@msngeo@@W4CountryEnum@23@ABVGeoCoordinates@23@PA_N@Z
  ?iconOffRoute@TrafficEvent@nmacore@Microsoft@@QBE?AVIcon@ngeo@3@XZ="C:\Windows\SysWOW64\MapRouter".?iconOffRoute@TrafficEvent@nmacore@Microsoft@@QBE?AVIcon@ngeo@3@XZ
  ?iconOnRoute@TrafficEvent@nmacore@Microsoft@@QBE?AVIcon@ngeo@3@XZ="C:\Windows\SysWOW64\MapRouter".?iconOnRoute@TrafficEvent@nmacore@Microsoft@@QBE?AVIcon@ngeo@3@XZ
  ?identifier@TransitLineInfo@nmacore@Microsoft@@QBEABVEdgeId@smart5@3@XZ="C:\Windows\SysWOW64\MapRouter".?identifier@TransitLineInfo@nmacore@Microsoft@@QBEABVEdgeId@smart5@3@XZ
  ?impl@?$Pimpl@VGuidanceOptions@ngeo@Microsoft@@VGuidanceOptionsImpl@internal@23@@ngeo@Microsoft@@IAEPAVGuidanceOptionsImpl@internal@23@XZ="C:\Windows\SysWOW64\MapRouter".?impl@?$Pimpl@VGuidanceOptions@ngeo@Microsoft@@VGuidanceOptionsImpl@internal@23@@ngeo@Microsoft@@IAEPAVGuidanceOptionsImpl@internal@23@XZ
  ?impl@?$Pimpl@VGuidanceOptions@ngeo@Microsoft@@VGuidanceOptionsImpl@internal@23@@ngeo@Microsoft@@IBEPBVGuidanceOptionsImpl@internal@23@XZ="C:\Windows\SysWOW64\MapRouter".?impl@?$Pimpl@VGuidanceOptions@ngeo@Microsoft@@VGuidanceOptionsImpl@internal@23@@ngeo@Microsoft@@IBEPBVGuidanceOptionsImpl@internal@23@XZ
  ?impl@?$Pimpl@VLanguageKeyValuePair@ngeo@Microsoft@@VLanguageKeyValuePairImpl@internal@23@@ngeo@Microsoft@@IAEPAVLanguageKeyValuePairImpl@internal@23@XZ="C:\Windows\SysWOW64\MapRouter".?impl@?$Pimpl@VLanguageKeyValuePair@ngeo@Microsoft@@VLanguageKeyValuePairImpl@internal@23@@ngeo@Microsoft@@IAEPAVLanguageKeyValuePairImpl@internal@23@XZ
  ?impl@?$Pimpl@VLanguageKeyValuePair@ngeo@Microsoft@@VLanguageKeyValuePairImpl@internal@23@@ngeo@Microsoft@@IBEPBVLanguageKeyValuePairImpl@internal@23@XZ="C:\Windows\SysWOW64\MapRouter".?impl@?$Pimpl@VLanguageKeyValuePair@ngeo@Microsoft@@VLanguageKeyValuePairImpl@internal@23@@ngeo@Microsoft@@IBEPBVLanguageKeyValuePairImpl@internal@23@XZ
  ?impl@?$Pimpl@VLanguageMapping@ngeo@Microsoft@@VLanguageMappingImpl@internal@23@@ngeo@Microsoft@@IAEPAVLanguageMappingImpl@internal@23@XZ="C:\Windows\SysWOW64\MapRouter".?impl@?$Pimpl@VLanguageMapping@ngeo@Microsoft@@VLanguageMappingImpl@internal@23@@ngeo@Microsoft@@IAEPAVLanguageMappingImpl@internal@23@XZ
  ?impl@?$Pimpl@VLanguageMapping@ngeo@Microsoft@@VLanguageMappingImpl@internal@23@@ngeo@Microsoft@@IBEPBVLanguageMappingImpl@internal@23@XZ="C:\Windows\SysWOW64\MapRouter".?impl@?$Pimpl@VLanguageMapping@ngeo@Microsoft@@VLanguageMappingImpl@internal@23@@ngeo@Microsoft@@IBEPBVLanguageMappingImpl@internal@23@XZ
  ?impl@?$Pimpl@VLocationSource@ngeo@Microsoft@@VLocationSourceImpl@internal@23@@ngeo@Microsoft@@IAEPAVLocationSourceImpl@internal@23@XZ="C:\Windows\SysWOW64\MapRouter".?impl@?$Pimpl@VLocationSource@ngeo@Microsoft@@VLocationSourceImpl@internal@23@@ngeo@Microsoft@@IAEPAVLocationSourceImpl@internal@23@XZ
  ?impl@?$Pimpl@VLocationSource@ngeo@Microsoft@@VLocationSourceImpl@internal@23@@ngeo@Microsoft@@IBEPBVLocationSourceImpl@internal@23@XZ="C:\Windows\SysWOW64\MapRouter".?impl@?$Pimpl@VLocationSource@ngeo@Microsoft@@VLocationSourceImpl@internal@23@@ngeo@Microsoft@@IBEPBVLocationSourceImpl@internal@23@XZ
  ?impl@?$Pimpl@VManeuverVoiceInfo@ngeo@Microsoft@@VManeuverVoiceInfoImpl@internal@23@@ngeo@Microsoft@@IAEPAVManeuverVoiceInfoImpl@internal@23@XZ="C:\Windows\SysWOW64\MapRouter".?impl@?$Pimpl@VManeuverVoiceInfo@ngeo@Microsoft@@VManeuverVoiceInfoImpl@internal@23@@ngeo@Microsoft@@IAEPAVManeuverVoiceInfoImpl@internal@23@XZ
  ?impl@?$Pimpl@VManeuverVoiceInfo@ngeo@Microsoft@@VManeuverVoiceInfoImpl@internal@23@@ngeo@Microsoft@@IBEPBVManeuverVoiceInfoImpl@internal@23@XZ="C:\Windows\SysWOW64\MapRouter".?impl@?$Pimpl@VManeuverVoiceInfo@ngeo@Microsoft@@VManeuverVoiceInfoImpl@internal@23@@ngeo@Microsoft@@IBEPBVManeuverVoiceInfoImpl@internal@23@XZ
  ?impl@?$Pimpl@VMapMatcher@ngeo@Microsoft@@VMapMatcherImpl@internal@23@@ngeo@Microsoft@@IAEPAVMapMatcherImpl@internal@23@XZ="C:\Windows\SysWOW64\MapRouter".?impl@?$Pimpl@VMapMatcher@ngeo@Microsoft@@VMapMatcherImpl@internal@23@@ngeo@Microsoft@@IAEPAVMapMatcherImpl@internal@23@XZ
  ?impl@?$Pimpl@VMapMatcher@ngeo@Microsoft@@VMapMatcherImpl@internal@23@@ngeo@Microsoft@@IBEPBVMapMatcherImpl@internal@23@XZ="C:\Windows\SysWOW64\MapRouter".?impl@?$Pimpl@VMapMatcher@ngeo@Microsoft@@VMapMatcherImpl@internal@23@@ngeo@Microsoft@@IBEPBVMapMatcherImpl@internal@23@XZ
  ?impl@?$Pimpl@VMapMatcherOptions@ngeo@Microsoft@@VMapMatcherOptionsImpl@internal@23@@ngeo@Microsoft@@IAEPAVMapMatcherOptionsImpl@internal@23@XZ="C:\Windows\SysWOW64\MapRouter".?impl@?$Pimpl@VMapMatcherOptions@ngeo@Microsoft@@VMapMatcherOptionsImpl@internal@23@@ngeo@Microsoft@@IAEPAVMapMatcherOptionsImpl@internal@23@XZ
  ?impl@?$Pimpl@VMapMatcherOptions@ngeo@Microsoft@@VMapMatcherOptionsImpl@internal@23@@ngeo@Microsoft@@IBEPBVMapMatcherOptionsImpl@internal@23@XZ="C:\Windows\SysWOW64\MapRouter".?impl@?$Pimpl@VMapMatcherOptions@ngeo@Microsoft@@VMapMatcherOptionsImpl@internal@23@@ngeo@Microsoft@@IBEPBVMapMatcherOptionsImpl@internal@23@XZ
  ?impl@?$Pimpl@VNaturalGuidanceVoiceInfo@ngeo@Microsoft@@VNaturalGuidanceVoiceInfoImpl@internal@23@@ngeo@Microsoft@@IAEPAVNaturalGuidanceVoiceInfoImpl@internal@23@XZ="C:\Windows\SysWOW64\MapRouter".?impl@?$Pimpl@VNaturalGuidanceVoiceInfo@ngeo@Microsoft@@VNaturalGuidanceVoiceInfoImpl@internal@23@@ngeo@Microsoft@@IAEPAVNaturalGuidanceVoiceInfoImpl@internal@23@XZ
  ?impl@?$Pimpl@VNaturalGuidanceVoiceInfo@ngeo@Microsoft@@VNaturalGuidanceVoiceInfoImpl@internal@23@@ngeo@Microsoft@@IBEPBVNaturalGuidanceVoiceInfoImpl@internal@23@XZ="C:\Windows\SysWOW64\MapRouter".?impl@?$Pimpl@VNaturalGuidanceVoiceInfo@ngeo@Microsoft@@VNaturalGuidanceVoiceInfoImpl@internal@23@@ngeo@Microsoft@@IBEPBVNaturalGuidanceVoiceInfoImpl@internal@23@XZ
  ?impl@?$Pimpl@VPhonemeMapping@ngeo@Microsoft@@VPhonemeMappingImpl@internal@23@@ngeo@Microsoft@@IAEPAVPhonemeMappingImpl@internal@23@XZ="C:\Windows\SysWOW64\MapRouter".?impl@?$Pimpl@VPhonemeMapping@ngeo@Microsoft@@VPhonemeMappingImpl@internal@23@@ngeo@Microsoft@@IAEPAVPhonemeMappingImpl@internal@23@XZ
  ?impl@?$Pimpl@VPhonemeMapping@ngeo@Microsoft@@VPhonemeMappingImpl@internal@23@@ngeo@Microsoft@@IBEPBVPhonemeMappingImpl@internal@23@XZ="C:\Windows\SysWOW64\MapRouter".?impl@?$Pimpl@VPhonemeMapping@ngeo@Microsoft@@VPhonemeMappingImpl@internal@23@@ngeo@Microsoft@@IBEPBVPhonemeMappingImpl@internal@23@XZ
  ?impl@?$Pimpl@VSideOfDestinationVoiceInfo@ngeo@Microsoft@@VSideOfDestinationVoiceInfoImpl@internal@23@@ngeo@Microsoft@@IAEPAVSideOfDestinationVoiceInfoImpl@internal@23@XZ="C:\Windows\SysWOW64\MapRouter".?impl@?$Pimpl@VSideOfDestinationVoiceInfo@ngeo@Microsoft@@VSideOfDestinationVoiceInfoImpl@internal@23@@ngeo@Microsoft@@IAEPAVSideOfDestinationVoiceInfoImpl@internal@23@XZ
  ?impl@?$Pimpl@VSideOfDestinationVoiceInfo@ngeo@Microsoft@@VSideOfDestinationVoiceInfoImpl@internal@23@@ngeo@Microsoft@@IBEPBVSideOfDestinationVoiceInfoImpl@internal@23@XZ="C:\Windows\SysWOW64\MapRouter".?impl@?$Pimpl@VSideOfDestinationVoiceInfo@ngeo@Microsoft@@VSideOfDestinationVoiceInfoImpl@internal@23@@ngeo@Microsoft@@IBEPBVSideOfDestinationVoiceInfoImpl@internal@23@XZ
  ?impl@?$Pimpl@VSignpostLabelVoiceInfo@ngeo@Microsoft@@VSignpostLabelVoiceInfoImpl@internal@23@@ngeo@Microsoft@@IAEPAVSignpostLabelVoiceInfoImpl@internal@23@XZ="C:\Windows\SysWOW64\MapRouter".?impl@?$Pimpl@VSignpostLabelVoiceInfo@ngeo@Microsoft@@VSignpostLabelVoiceInfoImpl@internal@23@@ngeo@Microsoft@@IAEPAVSignpostLabelVoiceInfoImpl@internal@23@XZ
  ?impl@?$Pimpl@VSignpostLabelVoiceInfo@ngeo@Microsoft@@VSignpostLabelVoiceInfoImpl@internal@23@@ngeo@Microsoft@@IBEPBVSignpostLabelVoiceInfoImpl@internal@23@XZ="C:\Windows\SysWOW64\MapRouter".?impl@?$Pimpl@VSignpostLabelVoiceInfo@ngeo@Microsoft@@VSignpostLabelVoiceInfoImpl@internal@23@@ngeo@Microsoft@@IBEPBVSignpostLabelVoiceInfoImpl@internal@23@XZ
  ?impl@?$Pimpl@VSignpostVoiceInfo@ngeo@Microsoft@@VSignpostVoiceInfoImpl@internal@23@@ngeo@Microsoft@@IAEPAVSignpostVoiceInfoImpl@internal@23@XZ="C:\Windows\SysWOW64\MapRouter".?impl@?$Pimpl@VSignpostVoiceInfo@ngeo@Microsoft@@VSignpostVoiceInfoImpl@internal@23@@ngeo@Microsoft@@IAEPAVSignpostVoiceInfoImpl@internal@23@XZ
  ?impl@?$Pimpl@VSignpostVoiceInfo@ngeo@Microsoft@@VSignpostVoiceInfoImpl@internal@23@@ngeo@Microsoft@@IBEPBVSignpostVoiceInfoImpl@internal@23@XZ="C:\Windows\SysWOW64\MapRouter".?impl@?$Pimpl@VSignpostVoiceInfo@ngeo@Microsoft@@VSignpostVoiceInfoImpl@internal@23@@ngeo@Microsoft@@IBEPBVSignpostVoiceInfoImpl@internal@23@XZ
  ?impl@?$Pimpl@VStreetVoiceInfo@ngeo@Microsoft@@VStreetVoiceInfoImpl@internal@23@@ngeo@Microsoft@@IAEPAVStreetVoiceInfoImpl@internal@23@XZ="C:\Windows\SysWOW64\MapRouter".?impl@?$Pimpl@VStreetVoiceInfo@ngeo@Microsoft@@VStreetVoiceInfoImpl@internal@23@@ngeo@Microsoft@@IAEPAVStreetVoiceInfoImpl@internal@23@XZ
  ?impl@?$Pimpl@VStreetVoiceInfo@ngeo@Microsoft@@VStreetVoiceInfoImpl@internal@23@@ngeo@Microsoft@@IBEPBVStreetVoiceInfoImpl@internal@23@XZ="C:\Windows\SysWOW64\MapRouter".?impl@?$Pimpl@VStreetVoiceInfo@ngeo@Microsoft@@VStreetVoiceInfoImpl@internal@23@@ngeo@Microsoft@@IBEPBVStreetVoiceInfoImpl@internal@23@XZ
  ?impl@?$Pimpl@VVoiceCommandInfo@ngeo@Microsoft@@VVoiceCommandInfoImpl@internal@23@@ngeo@Microsoft@@IAEPAVVoiceCommandInfoImpl@internal@23@XZ="C:\Windows\SysWOW64\MapRouter".?impl@?$Pimpl@VVoiceCommandInfo@ngeo@Microsoft@@VVoiceCommandInfoImpl@internal@23@@ngeo@Microsoft@@IAEPAVVoiceCommandInfoImpl@internal@23@XZ
  ?impl@?$Pimpl@VVoiceCommandInfo@ngeo@Microsoft@@VVoiceCommandInfoImpl@internal@23@@ngeo@Microsoft@@IBEPBVVoiceCommandInfoImpl@internal@23@XZ="C:\Windows\SysWOW64\MapRouter".?impl@?$Pimpl@VVoiceCommandInfo@ngeo@Microsoft@@VVoiceCommandInfoImpl@internal@23@@ngeo@Microsoft@@IBEPBVVoiceCommandInfoImpl@internal@23@XZ
  ?impl@?$Pimpl@VVoiceSkin@ngeo@Microsoft@@VVoiceSkinImpl@internal@23@@ngeo@Microsoft@@IAEPAVVoiceSkinImpl@internal@23@XZ="C:\Windows\SysWOW64\MapRouter".?impl@?$Pimpl@VVoiceSkin@ngeo@Microsoft@@VVoiceSkinImpl@internal@23@@ngeo@Microsoft@@IAEPAVVoiceSkinImpl@internal@23@XZ
  ?impl@?$Pimpl@VVoiceSkin@ngeo@Microsoft@@VVoiceSkinImpl@internal@23@@ngeo@Microsoft@@IBEPBVVoiceSkinImpl@internal@23@XZ="C:\Windows\SysWOW64\MapRouter".?impl@?$Pimpl@VVoiceSkin@ngeo@Microsoft@@VVoiceSkinImpl@internal@23@@ngeo@Microsoft@@IBEPBVVoiceSkinImpl@internal@23@XZ
  ?impl@DriveSimulator@ngeo@Microsoft@@AAEPAVDriveSimulatorImpl@internal@23@XZ="C:\Windows\SysWOW64\MapRouter".?impl@DriveSimulator@ngeo@Microsoft@@AAEPAVDriveSimulatorImpl@internal@23@XZ
  ?impl@DriveSimulator@ngeo@Microsoft@@ABEPBVDriveSimulatorImpl@internal@23@XZ="C:\Windows\SysWOW64\MapRouter".?impl@DriveSimulator@ngeo@Microsoft@@ABEPBVDriveSimulatorImpl@internal@23@XZ
  ?incidentEventCount@TrafficEngine@nmacore@Microsoft@@QBEIXZ="C:\Windows\SysWOW64\MapRouter".?incidentEventCount@TrafficEngine@nmacore@Microsoft@@QBEIXZ
  ?increment_ref_count@RefCountable@internal@ngeo@Microsoft@@QAEX_N@Z="C:\Windows\SysWOW64\MapRouter".?increment_ref_count@RefCountable@internal@ngeo@Microsoft@@QAEX_N@Z
  ?init@DriveSimulator@ngeo@Microsoft@@QAE?AW4ErrorCode@errorcodes@msngeo@@ABVRoute@23@@Z="C:\Windows\SysWOW64\MapRouter".?init@DriveSimulator@ngeo@Microsoft@@QAE?AW4ErrorCode@errorcodes@msngeo@@ABVRoute@23@@Z
  ?init@DynamicPenalty@ngeo@Microsoft@@QAE?AW4ErrorCode@errorcodes@msngeo@@XZ="C:\Windows\SysWOW64\MapRouter".?init@DynamicPenalty@ngeo@Microsoft@@QAE?AW4ErrorCode@errorcodes@msngeo@@XZ
  ?init@Guidance@ngeo@Microsoft@@QAE?AW4ErrorCode@errorcodes@msngeo@@VMapModel@23@ABVGuidanceOptions@23@@Z="C:\Windows\SysWOW64\MapRouter".?init@Guidance@ngeo@Microsoft@@QAE?AW4ErrorCode@errorcodes@msngeo@@VMapModel@23@ABVGuidanceOptions@23@@Z
  ?init@GuidanceOptions@ngeo@Microsoft@@QAE?AW4ErrorCode@errorcodes@msngeo@@I@Z="C:\Windows\SysWOW64\MapRouter".?init@GuidanceOptions@ngeo@Microsoft@@QAE?AW4ErrorCode@errorcodes@msngeo@@I@Z
  ?init@LanguageKeyValuePair@ngeo@Microsoft@@AAE?AW4ErrorCode@errorcodes@msngeo@@XZ="C:\Windows\SysWOW64\MapRouter".?init@LanguageKeyValuePair@ngeo@Microsoft@@AAE?AW4ErrorCode@errorcodes@msngeo@@XZ
  ?init@LanguageMapping@ngeo@Microsoft@@AAE?AW4ErrorCode@errorcodes@msngeo@@XZ="C:\Windows\SysWOW64\MapRouter".?init@LanguageMapping@ngeo@Microsoft@@AAE?AW4ErrorCode@errorcodes@msngeo@@XZ
  ?init@ManeuverVoiceInfo@ngeo@Microsoft@@AAE?AW4ErrorCode@errorcodes@msngeo@@XZ="C:\Windows\SysWOW64\MapRouter".?init@ManeuverVoiceInfo@ngeo@Microsoft@@AAE?AW4ErrorCode@errorcodes@msngeo@@XZ
  ?init@MapMatcher@ngeo@Microsoft@@QAE?AW4ErrorCode@errorcodes@msngeo@@VMapModel@23@@Z="C:\Windows\SysWOW64\MapRouter".?init@MapMatcher@ngeo@Microsoft@@QAE?AW4ErrorCode@errorcodes@msngeo@@VMapModel@23@@Z
  ?init@MapMatcher@ngeo@Microsoft@@QAE?AW4ErrorCode@errorcodes@msngeo@@VMapModel@23@ABVMapMatcherOptions@23@@Z="C:\Windows\SysWOW64\MapRouter".?init@MapMatcher@ngeo@Microsoft@@QAE?AW4ErrorCode@errorcodes@msngeo@@VMapModel@23@ABVMapMatcherOptions@23@@Z
  ?init@MapMatcherOptions@ngeo@Microsoft@@QAE?AW4ErrorCode@errorcodes@msngeo@@XZ="C:\Windows\SysWOW64\MapRouter".?init@MapMatcherOptions@ngeo@Microsoft@@QAE?AW4ErrorCode@errorcodes@msngeo@@XZ
  ?init@MapSensor@ngeo@Microsoft@@QAE?AW4ErrorCode@errorcodes@msngeo@@VMapModel@23@VMapMatcher@23@ABV?$function@$$A6G_NPAVGeoCoordinates@ngeo@Microsoft@@0PAN@Z@std@@@Z="C:\Windows\SysWOW64\MapRouter".?init@MapSensor@ngeo@Microsoft@@QAE?AW4ErrorCode@errorcodes@msngeo@@VMapModel@23@VMapMatcher@23@ABV?$function@$$A6G_NPAVGeoCoordinates@ngeo@Microsoft@@0PAN@Z@std@@@Z
  ?init@MetricsAccessor@ngeo@Microsoft@@QAE?AW4ErrorCode@errorcodes@msngeo@@XZ="C:\Windows\SysWOW64\MapRouter".?init@MetricsAccessor@ngeo@Microsoft@@QAE?AW4ErrorCode@errorcodes@msngeo@@XZ
  ?init@MetricsInfo@ngeo@Microsoft@@AAE?AW4ErrorCode@errorcodes@msngeo@@XZ="C:\Windows\SysWOW64\MapRouter".?init@MetricsInfo@ngeo@Microsoft@@AAE?AW4ErrorCode@errorcodes@msngeo@@XZ
  ?init@NaturalGuidanceVoiceInfo@ngeo@Microsoft@@AAE?AW4ErrorCode@errorcodes@msngeo@@XZ="C:\Windows\SysWOW64\MapRouter".?init@NaturalGuidanceVoiceInfo@ngeo@Microsoft@@AAE?AW4ErrorCode@errorcodes@msngeo@@XZ
  ?init@OutputEngine@ngeo@Microsoft@@QAE?AW4ErrorCode@errorcodes@msngeo@@ABVVoiceSkin@23@@Z="C:\Windows\SysWOW64\MapRouter".?init@OutputEngine@ngeo@Microsoft@@QAE?AW4ErrorCode@errorcodes@msngeo@@ABVVoiceSkin@23@@Z
  ?init@PhonemeMapping@ngeo@Microsoft@@AAE?AW4ErrorCode@errorcodes@msngeo@@XZ="C:\Windows\SysWOW64\MapRouter".?init@PhonemeMapping@ngeo@Microsoft@@AAE?AW4ErrorCode@errorcodes@msngeo@@XZ
  ?init@SideOfDestinationVoiceInfo@ngeo@Microsoft@@AAE?AW4ErrorCode@errorcodes@msngeo@@XZ="C:\Windows\SysWOW64\MapRouter".?init@SideOfDestinationVoiceInfo@ngeo@Microsoft@@AAE?AW4ErrorCode@errorcodes@msngeo@@XZ
  ?init@SignpostLabelVoiceInfo@ngeo@Microsoft@@AAE?AW4ErrorCode@errorcodes@msngeo@@XZ="C:\Windows\SysWOW64\MapRouter".?init@SignpostLabelVoiceInfo@ngeo@Microsoft@@AAE?AW4ErrorCode@errorcodes@msngeo@@XZ
  ?init@SignpostVoiceInfo@ngeo@Microsoft@@AAE?AW4ErrorCode@errorcodes@msngeo@@XZ="C:\Windows\SysWOW64\MapRouter".?init@SignpostVoiceInfo@ngeo@Microsoft@@AAE?AW4ErrorCode@errorcodes@msngeo@@XZ
  ?init@SimpleGuidance@naviplayer@Microsoft@@QAE?AW4ErrorCode@errorcodes@msngeo@@ABVSimpleGuidanceOptions@23@@Z="C:\Windows\SysWOW64\MapRouter".?init@SimpleGuidance@naviplayer@Microsoft@@QAE?AW4ErrorCode@errorcodes@msngeo@@ABVSimpleGuidanceOptions@23@@Z
  ?init@SpeedWarner@ngeo@Microsoft@@QAE?AW4ErrorCode@errorcodes@msngeo@@VMapMatcher@23@@Z="C:\Windows\SysWOW64\MapRouter".?init@SpeedWarner@ngeo@Microsoft@@QAE?AW4ErrorCode@errorcodes@msngeo@@VMapMatcher@23@@Z
  ?init@SpeedWarner@ngeo@Microsoft@@QAE?AW4ErrorCode@errorcodes@msngeo@@VMapMatcher@23@ABVSpeedWarnerOptions@23@@Z="C:\Windows\SysWOW64\MapRouter".?init@SpeedWarner@ngeo@Microsoft@@QAE?AW4ErrorCode@errorcodes@msngeo@@VMapMatcher@23@ABVSpeedWarnerOptions@23@@Z
  ?init@StreetVoiceInfo@ngeo@Microsoft@@AAE?AW4ErrorCode@errorcodes@msngeo@@XZ="C:\Windows\SysWOW64\MapRouter".?init@StreetVoiceInfo@ngeo@Microsoft@@AAE?AW4ErrorCode@errorcodes@msngeo@@XZ
  ?init@Traffic@ngeo@Microsoft@@QAE?AW4ErrorCode@errorcodes@msngeo@@VMapModel@23@ABVTrafficOptions@23@@Z="C:\Windows\SysWOW64\MapRouter".?init@Traffic@ngeo@Microsoft@@QAE?AW4ErrorCode@errorcodes@msngeo@@VMapModel@23@ABVTrafficOptions@23@@Z
  ?init@Traffic@ngeo@Microsoft@@QAE?AW4ErrorCode@errorcodes@msngeo@@XZ="C:\Windows\SysWOW64\MapRouter".?init@Traffic@ngeo@Microsoft@@QAE?AW4ErrorCode@errorcodes@msngeo@@XZ
  ?init@TrafficEngine@nmacore@Microsoft@@QAEXXZ="C:\Windows\SysWOW64\MapRouter".?init@TrafficEngine@nmacore@Microsoft@@QAEXXZ
  ?init@TrafficWarner@ngeo@Microsoft@@QAE?AW4ErrorCode@errorcodes@msngeo@@VTraffic@23@VGuidance@23@ABVTrafficWarnerOptions@23@@Z="C:\Windows\SysWOW64\MapRouter".?init@TrafficWarner@ngeo@Microsoft@@QAE?AW4ErrorCode@errorcodes@msngeo@@VTraffic@23@VGuidance@23@ABVTrafficWarnerOptions@23@@Z
  ?init@TransitDatabase@ngeo@Microsoft@@QAE?AW4ErrorCode@errorcodes@msngeo@@VMapModel@23@ABVTransitDatabaseOptions@23@@Z="C:\Windows\SysWOW64\MapRouter".?init@TransitDatabase@ngeo@Microsoft@@QAE?AW4ErrorCode@errorcodes@msngeo@@VMapModel@23@ABVTransitDatabaseOptions@23@@Z
  ?init@TtsEngine@ngeo@Microsoft@@QAE?AW4ErrorCode@errorcodes@msngeo@@ABVTtsOptions@23@@Z="C:\Windows\SysWOW64\MapRouter".?init@TtsEngine@ngeo@Microsoft@@QAE?AW4ErrorCode@errorcodes@msngeo@@ABVTtsOptions@23@@Z
  ?init@VoiceCommandInfo@ngeo@Microsoft@@AAE?AW4ErrorCode@errorcodes@msngeo@@XZ="C:\Windows\SysWOW64\MapRouter".?init@VoiceCommandInfo@ngeo@Microsoft@@AAE?AW4ErrorCode@errorcodes@msngeo@@XZ
  ?init@VoiceSkin@ngeo@Microsoft@@AAE?AW4ErrorCode@errorcodes@msngeo@@XZ="C:\Windows\SysWOW64\MapRouter".?init@VoiceSkin@ngeo@Microsoft@@AAE?AW4ErrorCode@errorcodes@msngeo@@XZ
  ?initDynamicPenalty@Route@nmacore@Microsoft@@IAE_NXZ="C:\Windows\SysWOW64\MapRouter".?initDynamicPenalty@Route@nmacore@Microsoft@@IAE_NXZ
  ?initFromNgeoRoute@Route@nmacore@Microsoft@@IAEXABV1ngeo@3@@Z="C:\Windows\SysWOW64\MapRouter".?initFromNgeoRoute@Route@nmacore@Microsoft@@IAEXABV1ngeo@3@@Z
  ?initGeometry@Route@nmacore@Microsoft@@IAEXXZ="C:\Windows\SysWOW64\MapRouter".?initGeometry@Route@nmacore@Microsoft@@IAEXXZ
  ?initGuidance@Guidance@nmacore@Microsoft@@AAEXXZ="C:\Windows\SysWOW64\MapRouter".?initGuidance@Guidance@nmacore@Microsoft@@AAEXXZ
  ?initManeuvers@Route@nmacore@Microsoft@@IAEXXZ="C:\Windows\SysWOW64\MapRouter".?initManeuvers@Route@nmacore@Microsoft@@IAEXXZ
  ?initTraffic@TrafficEngine@nmacore@Microsoft@@AAEXXZ="C:\Windows\SysWOW64\MapRouter".?initTraffic@TrafficEngine@nmacore@Microsoft@@AAEXXZ
  ?init_guidance@SimpleGuidance@naviplayer@Microsoft@@QAE?AW4ErrorCode@errorcodes@msngeo@@VMapModel@ngeo@3@ABVGuidanceOptions@83@@Z="C:\Windows\SysWOW64\MapRouter".?init_guidance@SimpleGuidance@naviplayer@Microsoft@@QAE?AW4ErrorCode@errorcodes@msngeo@@VMapModel@ngeo@3@ABVGuidanceOptions@83@@Z
  ?init_output_engine@SimpleGuidance@naviplayer@Microsoft@@QAE?AW4ErrorCode@errorcodes@msngeo@@ABVVoiceSkin@ngeo@3@@Z="C:\Windows\SysWOW64\MapRouter".?init_output_engine@SimpleGuidance@naviplayer@Microsoft@@QAE?AW4ErrorCode@errorcodes@msngeo@@ABVVoiceSkin@ngeo@3@@Z
  ?init_speed_warner@SimpleGuidance@naviplayer@Microsoft@@QAE?AW4ErrorCode@errorcodes@msngeo@@VMapMatcher@ngeo@3@@Z="C:\Windows\SysWOW64\MapRouter".?init_speed_warner@SimpleGuidance@naviplayer@Microsoft@@QAE?AW4ErrorCode@errorcodes@msngeo@@VMapMatcher@ngeo@3@@Z
  ?init_speed_warner@SimpleGuidance@naviplayer@Microsoft@@QAE?AW4ErrorCode@errorcodes@msngeo@@VMapMatcher@ngeo@3@ABVSpeedWarnerOptions@83@@Z="C:\Windows\SysWOW64\MapRouter".?init_speed_warner@SimpleGuidance@naviplayer@Microsoft@@QAE?AW4ErrorCode@errorcodes@msngeo@@VMapMatcher@ngeo@3@ABVSpeedWarnerOptions@83@@Z
  ?init_traffic_warner@SimpleGuidance@naviplayer@Microsoft@@QAE?AW4ErrorCode@errorcodes@msngeo@@VTraffic@ngeo@3@ABVTrafficWarnerOptions@83@@Z="C:\Windows\SysWOW64\MapRouter".?init_traffic_warner@SimpleGuidance@naviplayer@Microsoft@@QAE?AW4ErrorCode@errorcodes@msngeo@@VTraffic@ngeo@3@ABVTrafficWarnerOptions@83@@Z
  ?initializeItineraryWarnings@Maneuver@nmacore@Microsoft@@IAEXXZ="C:\Windows\SysWOW64\MapRouter".?initializeItineraryWarnings@Maneuver@nmacore@Microsoft@@IAEXXZ
  ?initializeManeuver@Maneuver@nmacore@Microsoft@@IAEXABVRoute@ngeo@3@@Z="C:\Windows\SysWOW64\MapRouter".?initializeManeuver@Maneuver@nmacore@Microsoft@@IAEXABVRoute@ngeo@3@@Z
  ?inject_tpeg_bin@Traffic@ngeo@Microsoft@@QAE?AW4ErrorCode@errorcodes@msngeo@@ABVTrafficSource@23@QAEI@Z="C:\Windows\SysWOW64\MapRouter".?inject_tpeg_bin@Traffic@ngeo@Microsoft@@QAE?AW4ErrorCode@errorcodes@msngeo@@ABVTrafficSource@23@QAEI@Z
  ?insert@GeoPolyline@ngeo@Microsoft@@QAEXABVGeoCoordinates@23@I@Z="C:\Windows\SysWOW64\MapRouter".?insert@GeoPolyline@ngeo@Microsoft@@QAEXABVGeoCoordinates@23@I@Z
  ?insert_stopover@RoutePlan@ngeo@Microsoft@@QAE?AW4ErrorCode@errorcodes@msngeo@@ABVRouteWaypoint@23@I@Z="C:\Windows\SysWOW64\MapRouter".?insert_stopover@RoutePlan@ngeo@Microsoft@@QAE?AW4ErrorCode@errorcodes@msngeo@@ABVRouteWaypoint@23@I@Z
  ?insert_waypoint@RoutePlan@ngeo@Microsoft@@QAE?AW4ErrorCode@errorcodes@msngeo@@ABVRouteWaypoint@23@I@Z="C:\Windows\SysWOW64\MapRouter".?insert_waypoint@RoutePlan@ngeo@Microsoft@@QAE?AW4ErrorCode@errorcodes@msngeo@@ABVRouteWaypoint@23@I@Z
  ?isActive@TrafficEvent@nmacore@Microsoft@@QBE_NXZ="C:\Windows\SysWOW64\MapRouter".?isActive@TrafficEvent@nmacore@Microsoft@@QBE_NXZ
  ?isCompassEnabled@Sensors@nmacore@Microsoft@@EBE_NXZ="C:\Windows\SysWOW64\MapRouter".?isCompassEnabled@Sensors@nmacore@Microsoft@@EBE_NXZ
  ?isCondensed@Route@nmacore@Microsoft@@UBE_NXZ="C:\Windows\SysWOW64\MapRouter".?isCondensed@Route@nmacore@Microsoft@@UBE_NXZ
  ?isCountryChange@ItineraryWarningDivChange@nmacore@Microsoft@@UBE_NXZ="C:\Windows\SysWOW64\MapRouter".?isCountryChange@ItineraryWarningDivChange@nmacore@Microsoft@@UBE_NXZ
  ?isDeserialized@Route@nmacore@Microsoft@@UBE_NXZ="C:\Windows\SysWOW64\MapRouter".?isDeserialized@Route@nmacore@Microsoft@@UBE_NXZ
  ?isEnabled@MapSensor@nmacore@Microsoft@@QBE_NXZ="C:\Windows\SysWOW64\MapRouter".?isEnabled@MapSensor@nmacore@Microsoft@@QBE_NXZ
  ?isFlow@TrafficEvent@nmacore@Microsoft@@QBE_NXZ="C:\Windows\SysWOW64\MapRouter".?isFlow@TrafficEvent@nmacore@Microsoft@@QBE_NXZ
  ?isIncident@TrafficEvent@nmacore@Microsoft@@QBE_NXZ="C:\Windows\SysWOW64\MapRouter".?isIncident@TrafficEvent@nmacore@Microsoft@@QBE_NXZ
  ?isOnRoute@TrafficEvent@nmacore@Microsoft@@QAE_NABVRoute@23@@Z="C:\Windows\SysWOW64\MapRouter".?isOnRoute@TrafficEvent@nmacore@Microsoft@@QAE_NABVRoute@23@@Z
  ?isPedestrianMode@Guidance@nmacore@Microsoft@@ABE_NXZ="C:\Windows\SysWOW64\MapRouter".?isPedestrianMode@Guidance@nmacore@Microsoft@@ABE_NXZ
  ?isPositioningEnabled@Sensors@nmacore@Microsoft@@EBE_NXZ="C:\Windows\SysWOW64\MapRouter".?isPositioningEnabled@Sensors@nmacore@Microsoft@@EBE_NXZ
  ?isReroutable@TrafficEvent@nmacore@Microsoft@@QBE_NXZ="C:\Windows\SysWOW64\MapRouter".?isReroutable@TrafficEvent@nmacore@Microsoft@@QBE_NXZ
  ?isRunning@BaseEngine@nmacore@Microsoft@@QBE_NXZ="C:\Windows\SysWOW64\MapRouter".?isRunning@BaseEngine@nmacore@Microsoft@@QBE_NXZ
  ?isRunning@DriveSimulator@nmacore@Microsoft@@QAE_NXZ="C:\Windows\SysWOW64\MapRouter".?isRunning@DriveSimulator@nmacore@Microsoft@@QAE_NXZ
  ?isRunning@Guidance@nmacore@Microsoft@@QBE_NXZ="C:\Windows\SysWOW64\MapRouter".?isRunning@Guidance@nmacore@Microsoft@@QBE_NXZ
  ?isRunning@TtsEngine@nmacore@Microsoft@@UAE_NXZ="C:\Windows\SysWOW64\MapRouter".?isRunning@TtsEngine@nmacore@Microsoft@@UAE_NXZ
  ?isScenic@Route@nmacore@Microsoft@@UBE_NXZ="C:\Windows\SysWOW64\MapRouter".?isScenic@Route@nmacore@Microsoft@@UBE_NXZ
  ?isSuspended@BaseEngine@nmacore@Microsoft@@QBE_NXZ="C:\Windows\SysWOW64\MapRouter".?isSuspended@BaseEngine@nmacore@Microsoft@@QBE_NXZ
  ?isValid@Route@nmacore@Microsoft@@UBE_NXZ="C:\Windows\SysWOW64\MapRouter".?isValid@Route@nmacore@Microsoft@@UBE_NXZ
  ?isValid@Runtime@nmacore@Microsoft@@SG_NXZ="C:\Windows\SysWOW64\MapRouter".?isValid@Runtime@nmacore@Microsoft@@SG_NXZ
  ?isValid@TtsEngine@nmacore@Microsoft@@QBE_NXZ="C:\Windows\SysWOW64\MapRouter".?isValid@TtsEngine@nmacore@Microsoft@@QBE_NXZ
  ?isVisible@TrafficEvent@nmacore@Microsoft@@QBE_NXZ="C:\Windows\SysWOW64\MapRouter".?isVisible@TrafficEvent@nmacore@Microsoft@@QBE_NXZ
  ?isVoiceSupported@TtsEngine@nmacore@Microsoft@@QAE_NV?$basic_string@GU?$char_traits@G@std@@V?$allocator@G@2@@std@@@Z="C:\Windows\SysWOW64\MapRouter".?isVoiceSupported@TtsEngine@nmacore@Microsoft@@QAE_NV?$basic_string@GU?$char_traits@G@std@@V?$allocator@G@2@@std@@@Z
  ?is_active@Traffic@ngeo@Microsoft@@SG_NABVTrafficEvent@23@@Z="C:\Windows\SysWOW64\MapRouter".?is_active@Traffic@ngeo@Microsoft@@SG_NABVTrafficEvent@23@@Z
  ?is_ahead@TrafficWarner@ngeo@Microsoft@@QBE_NAAVTrafficNotification@23@@Z="C:\Windows\SysWOW64\MapRouter".?is_ahead@TrafficWarner@ngeo@Microsoft@@QBE_NAAVTrafficNotification@23@@Z
  ?is_based_on_complete_data@Route@ngeo@Microsoft@@QBE_NXZ="C:\Windows\SysWOW64\MapRouter".?is_based_on_complete_data@Route@ngeo@Microsoft@@QBE_NXZ
  ?is_close_to@PixelCoordinates@ngeo@Microsoft@@QBE_NABV123@M@Z="C:\Windows\SysWOW64\MapRouter".?is_close_to@PixelCoordinates@ngeo@Microsoft@@QBE_NABV123@M@Z
  ?is_close_to@PixelRect@ngeo@Microsoft@@QBE_NABV123@M@Z="C:\Windows\SysWOW64\MapRouter".?is_close_to@PixelRect@ngeo@Microsoft@@QBE_NABV123@M@Z
  ?is_close_to@SizeInPixels@ngeo@Microsoft@@QBE_NABV123@M@Z="C:\Windows\SysWOW64\MapRouter".?is_close_to@SizeInPixels@ngeo@Microsoft@@QBE_NABV123@M@Z
  ?is_configurable@VoiceSkin@ngeo@Microsoft@@QBE_NXZ="C:\Windows\SysWOW64\MapRouter".?is_configurable@VoiceSkin@ngeo@Microsoft@@QBE_NXZ
  ?is_counter_roundabout@Maneuver@ngeo@Microsoft@@QBE_NXZ="C:\Windows\SysWOW64\MapRouter".?is_counter_roundabout@Maneuver@ngeo@Microsoft@@QBE_NXZ
  ?is_country_change@ItineraryWarningAdminDivChange@ngeo@Microsoft@@QBE_NXZ="C:\Windows\SysWOW64\MapRouter".?is_country_change@ItineraryWarningAdminDivChange@ngeo@Microsoft@@QBE_NXZ
  ?is_enabled@LocationSource@ngeo@Microsoft@@QBE_NXZ="C:\Windows\SysWOW64\MapRouter".?is_enabled@LocationSource@ngeo@Microsoft@@QBE_NXZ
  ?is_end_of_street@ManeuverVoiceInfo@ngeo@Microsoft@@QBE_NXZ="C:\Windows\SysWOW64\MapRouter".?is_end_of_street@ManeuverVoiceInfo@ngeo@Microsoft@@QBE_NXZ
  ?is_extrapolated@MapMatchedLocation@ngeo@Microsoft@@QBE_NXZ="C:\Windows\SysWOW64\MapRouter".?is_extrapolated@MapMatchedLocation@ngeo@Microsoft@@QBE_NXZ
  ?is_flow@Traffic@ngeo@Microsoft@@SG_NABVTrafficEvent@23@@Z="C:\Windows\SysWOW64\MapRouter".?is_flow@Traffic@ngeo@Microsoft@@SG_NABVTrafficEvent@23@@Z
  ?is_handle_valid@?$Pimpl@VGuidanceOptions@ngeo@Microsoft@@VGuidanceOptionsImpl@internal@23@@ngeo@Microsoft@@IBE_NXZ="C:\Windows\SysWOW64\MapRouter".?is_handle_valid@?$Pimpl@VGuidanceOptions@ngeo@Microsoft@@VGuidanceOptionsImpl@internal@23@@ngeo@Microsoft@@IBE_NXZ
  ?is_handle_valid@?$Pimpl@VLanguageKeyValuePair@ngeo@Microsoft@@VLanguageKeyValuePairImpl@internal@23@@ngeo@Microsoft@@IBE_NXZ="C:\Windows\SysWOW64\MapRouter".?is_handle_valid@?$Pimpl@VLanguageKeyValuePair@ngeo@Microsoft@@VLanguageKeyValuePairImpl@internal@23@@ngeo@Microsoft@@IBE_NXZ
  ?is_handle_valid@?$Pimpl@VLanguageMapping@ngeo@Microsoft@@VLanguageMappingImpl@internal@23@@ngeo@Microsoft@@IBE_NXZ="C:\Windows\SysWOW64\MapRouter".?is_handle_valid@?$Pimpl@VLanguageMapping@ngeo@Microsoft@@VLanguageMappingImpl@internal@23@@ngeo@Microsoft@@IBE_NXZ
  ?is_handle_valid@?$Pimpl@VLocationSource@ngeo@Microsoft@@VLocationSourceImpl@internal@23@@ngeo@Microsoft@@IBE_NXZ="C:\Windows\SysWOW64\MapRouter".?is_handle_valid@?$Pimpl@VLocationSource@ngeo@Microsoft@@VLocationSourceImpl@internal@23@@ngeo@Microsoft@@IBE_NXZ
  ?is_handle_valid@?$Pimpl@VManeuverVoiceInfo@ngeo@Microsoft@@VManeuverVoiceInfoImpl@internal@23@@ngeo@Microsoft@@IBE_NXZ="C:\Windows\SysWOW64\MapRouter".?is_handle_valid@?$Pimpl@VManeuverVoiceInfo@ngeo@Microsoft@@VManeuverVoiceInfoImpl@internal@23@@ngeo@Microsoft@@IBE_NXZ
  ?is_handle_valid@?$Pimpl@VMapMatcher@ngeo@Microsoft@@VMapMatcherImpl@internal@23@@ngeo@Microsoft@@IBE_NXZ="C:\Windows\SysWOW64\MapRouter".?is_handle_valid@?$Pimpl@VMapMatcher@ngeo@Microsoft@@VMapMatcherImpl@internal@23@@ngeo@Microsoft@@IBE_NXZ
  ?is_handle_valid@?$Pimpl@VMapMatcherOptions@ngeo@Microsoft@@VMapMatcherOptionsImpl@internal@23@@ngeo@Microsoft@@IBE_NXZ="C:\Windows\SysWOW64\MapRouter".?is_handle_valid@?$Pimpl@VMapMatcherOptions@ngeo@Microsoft@@VMapMatcherOptionsImpl@internal@23@@ngeo@Microsoft@@IBE_NXZ
  ?is_handle_valid@?$Pimpl@VNaturalGuidanceVoiceInfo@ngeo@Microsoft@@VNaturalGuidanceVoiceInfoImpl@internal@23@@ngeo@Microsoft@@IBE_NXZ="C:\Windows\SysWOW64\MapRouter".?is_handle_valid@?$Pimpl@VNaturalGuidanceVoiceInfo@ngeo@Microsoft@@VNaturalGuidanceVoiceInfoImpl@internal@23@@ngeo@Microsoft@@IBE_NXZ
  ?is_handle_valid@?$Pimpl@VPhonemeMapping@ngeo@Microsoft@@VPhonemeMappingImpl@internal@23@@ngeo@Microsoft@@IBE_NXZ="C:\Windows\SysWOW64\MapRouter".?is_handle_valid@?$Pimpl@VPhonemeMapping@ngeo@Microsoft@@VPhonemeMappingImpl@internal@23@@ngeo@Microsoft@@IBE_NXZ
  ?is_handle_valid@?$Pimpl@VSideOfDestinationVoiceInfo@ngeo@Microsoft@@VSideOfDestinationVoiceInfoImpl@internal@23@@ngeo@Microsoft@@IBE_NXZ="C:\Windows\SysWOW64\MapRouter".?is_handle_valid@?$Pimpl@VSideOfDestinationVoiceInfo@ngeo@Microsoft@@VSideOfDestinationVoiceInfoImpl@internal@23@@ngeo@Microsoft@@IBE_NXZ
  ?is_handle_valid@?$Pimpl@VSignpostLabelVoiceInfo@ngeo@Microsoft@@VSignpostLabelVoiceInfoImpl@internal@23@@ngeo@Microsoft@@IBE_NXZ="C:\Windows\SysWOW64\MapRouter".?is_handle_valid@?$Pimpl@VSignpostLabelVoiceInfo@ngeo@Microsoft@@VSignpostLabelVoiceInfoImpl@internal@23@@ngeo@Microsoft@@IBE_NXZ
  ?is_handle_valid@?$Pimpl@VSignpostVoiceInfo@ngeo@Microsoft@@VSignpostVoiceInfoImpl@internal@23@@ngeo@Microsoft@@IBE_NXZ="C:\Windows\SysWOW64\MapRouter".?is_handle_valid@?$Pimpl@VSignpostVoiceInfo@ngeo@Microsoft@@VSignpostVoiceInfoImpl@internal@23@@ngeo@Microsoft@@IBE_NXZ
  ?is_handle_valid@?$Pimpl@VStreetVoiceInfo@ngeo@Microsoft@@VStreetVoiceInfoImpl@internal@23@@ngeo@Microsoft@@IBE_NXZ="C:\Windows\SysWOW64\MapRouter".?is_handle_valid@?$Pimpl@VStreetVoiceInfo@ngeo@Microsoft@@VStreetVoiceInfoImpl@internal@23@@ngeo@Microsoft@@IBE_NXZ
  ?is_handle_valid@?$Pimpl@VVoiceCommandInfo@ngeo@Microsoft@@VVoiceCommandInfoImpl@internal@23@@ngeo@Microsoft@@IBE_NXZ="C:\Windows\SysWOW64\MapRouter".?is_handle_valid@?$Pimpl@VVoiceCommandInfo@ngeo@Microsoft@@VVoiceCommandInfoImpl@internal@23@@ngeo@Microsoft@@IBE_NXZ
  ?is_handle_valid@?$Pimpl@VVoiceSkin@ngeo@Microsoft@@VVoiceSkinImpl@internal@23@@ngeo@Microsoft@@IBE_NXZ="C:\Windows\SysWOW64\MapRouter".?is_handle_valid@?$Pimpl@VVoiceSkin@ngeo@Microsoft@@VVoiceSkinImpl@internal@23@@ngeo@Microsoft@@IBE_NXZ
  ?is_head_to_mode_enabled@GuidanceOptions@ngeo@Microsoft@@QBE_NW4HeadToFlags@123@@Z="C:\Windows\SysWOW64\MapRouter".?is_head_to_mode_enabled@GuidanceOptions@ngeo@Microsoft@@QBE_NW4HeadToFlags@123@@Z
  ?is_impl_valid@?$Pimpl@VGuidanceOptions@ngeo@Microsoft@@VGuidanceOptionsImpl@internal@23@@ngeo@Microsoft@@ABE_NXZ="C:\Windows\SysWOW64\MapRouter".?is_impl_valid@?$Pimpl@VGuidanceOptions@ngeo@Microsoft@@VGuidanceOptionsImpl@internal@23@@ngeo@Microsoft@@ABE_NXZ
  ?is_impl_valid@?$Pimpl@VLanguageKeyValuePair@ngeo@Microsoft@@VLanguageKeyValuePairImpl@internal@23@@ngeo@Microsoft@@ABE_NXZ="C:\Windows\SysWOW64\MapRouter".?is_impl_valid@?$Pimpl@VLanguageKeyValuePair@ngeo@Microsoft@@VLanguageKeyValuePairImpl@internal@23@@ngeo@Microsoft@@ABE_NXZ
  ?is_impl_valid@?$Pimpl@VLanguageMapping@ngeo@Microsoft@@VLanguageMappingImpl@internal@23@@ngeo@Microsoft@@ABE_NXZ="C:\Windows\SysWOW64\MapRouter".?is_impl_valid@?$Pimpl@VLanguageMapping@ngeo@Microsoft@@VLanguageMappingImpl@internal@23@@ngeo@Microsoft@@ABE_NXZ
  ?is_impl_valid@?$Pimpl@VLocationSource@ngeo@Microsoft@@VLocationSourceImpl@internal@23@@ngeo@Microsoft@@ABE_NXZ="C:\Windows\SysWOW64\MapRouter".?is_impl_valid@?$Pimpl@VLocationSource@ngeo@Microsoft@@VLocationSourceImpl@internal@23@@ngeo@Microsoft@@ABE_NXZ
  ?is_impl_valid@?$Pimpl@VManeuverVoiceInfo@ngeo@Microsoft@@VManeuverVoiceInfoImpl@internal@23@@ngeo@Microsoft@@ABE_NXZ="C:\Windows\SysWOW64\MapRouter".?is_impl_valid@?$Pimpl@VManeuverVoiceInfo@ngeo@Microsoft@@VManeuverVoiceInfoImpl@internal@23@@ngeo@Microsoft@@ABE_NXZ
  ?is_impl_valid@?$Pimpl@VMapMatcher@ngeo@Microsoft@@VMapMatcherImpl@internal@23@@ngeo@Microsoft@@ABE_NXZ="C:\Windows\SysWOW64\MapRouter".?is_impl_valid@?$Pimpl@VMapMatcher@ngeo@Microsoft@@VMapMatcherImpl@internal@23@@ngeo@Microsoft@@ABE_NXZ
  ?is_impl_valid@?$Pimpl@VMapMatcherOptions@ngeo@Microsoft@@VMapMatcherOptionsImpl@internal@23@@ngeo@Microsoft@@ABE_NXZ="C:\Windows\SysWOW64\MapRouter".?is_impl_valid@?$Pimpl@VMapMatcherOptions@ngeo@Microsoft@@VMapMatcherOptionsImpl@internal@23@@ngeo@Microsoft@@ABE_NXZ
  ?is_impl_valid@?$Pimpl@VNaturalGuidanceVoiceInfo@ngeo@Microsoft@@VNaturalGuidanceVoiceInfoImpl@internal@23@@ngeo@Microsoft@@ABE_NXZ="C:\Windows\SysWOW64\MapRouter".?is_impl_valid@?$Pimpl@VNaturalGuidanceVoiceInfo@ngeo@Microsoft@@VNaturalGuidanceVoiceInfoImpl@internal@23@@ngeo@Microsoft@@ABE_NXZ
  ?is_impl_valid@?$Pimpl@VPhonemeMapping@ngeo@Microsoft@@VPhonemeMappingImpl@internal@23@@ngeo@Microsoft@@ABE_NXZ="C:\Windows\SysWOW64\MapRouter".?is_impl_valid@?$Pimpl@VPhonemeMapping@ngeo@Microsoft@@VPhonemeMappingImpl@internal@23@@ngeo@Microsoft@@ABE_NXZ
  ?is_impl_valid@?$Pimpl@VSideOfDestinationVoiceInfo@ngeo@Microsoft@@VSideOfDestinationVoiceInfoImpl@internal@23@@ngeo@Microsoft@@ABE_NXZ="C:\Windows\SysWOW64\MapRouter".?is_impl_valid@?$Pimpl@VSideOfDestinationVoiceInfo@ngeo@Microsoft@@VSideOfDestinationVoiceInfoImpl@internal@23@@ngeo@Microsoft@@ABE_NXZ
  ?is_impl_valid@?$Pimpl@VSignpostLabelVoiceInfo@ngeo@Microsoft@@VSignpostLabelVoiceInfoImpl@internal@23@@ngeo@Microsoft@@ABE_NXZ="C:\Windows\SysWOW64\MapRouter".?is_impl_valid@?$Pimpl@VSignpostLabelVoiceInfo@ngeo@Microsoft@@VSignpostLabelVoiceInfoImpl@internal@23@@ngeo@Microsoft@@ABE_NXZ
  ?is_impl_valid@?$Pimpl@VSignpostVoiceInfo@ngeo@Microsoft@@VSignpostVoiceInfoImpl@internal@23@@ngeo@Microsoft@@ABE_NXZ="C:\Windows\SysWOW64\MapRouter".?is_impl_valid@?$Pimpl@VSignpostVoiceInfo@ngeo@Microsoft@@VSignpostVoiceInfoImpl@internal@23@@ngeo@Microsoft@@ABE_NXZ
  ?is_impl_valid@?$Pimpl@VStreetVoiceInfo@ngeo@Microsoft@@VStreetVoiceInfoImpl@internal@23@@ngeo@Microsoft@@ABE_NXZ="C:\Windows\SysWOW64\MapRouter".?is_impl_valid@?$Pimpl@VStreetVoiceInfo@ngeo@Microsoft@@VStreetVoiceInfoImpl@internal@23@@ngeo@Microsoft@@ABE_NXZ
  ?is_impl_valid@?$Pimpl@VVoiceCommandInfo@ngeo@Microsoft@@VVoiceCommandInfoImpl@internal@23@@ngeo@Microsoft@@ABE_NXZ="C:\Windows\SysWOW64\MapRouter".?is_impl_valid@?$Pimpl@VVoiceCommandInfo@ngeo@Microsoft@@VVoiceCommandInfoImpl@internal@23@@ngeo@Microsoft@@ABE_NXZ
  ?is_impl_valid@VoiceSkin@ngeo@Microsoft@@IBE_NXZ="C:\Windows\SysWOW64\MapRouter".?is_impl_valid@VoiceSkin@ngeo@Microsoft@@IBE_NXZ
  ?is_incident@Traffic@ngeo@Microsoft@@SG_NABVTrafficEvent@23@@Z="C:\Windows\SysWOW64\MapRouter".?is_incident@Traffic@ngeo@Microsoft@@SG_NABVTrafficEvent@23@@Z
  ?is_invalidated@Traffic@ngeo@Microsoft@@QBE_NXZ="C:\Windows\SysWOW64\MapRouter".?is_invalidated@Traffic@ngeo@Microsoft@@QBE_NXZ
  ?is_on_route@TrafficWarner@ngeo@Microsoft@@QAE_NABVRoute@23@AAVTrafficNotification@23@@Z="C:\Windows\SysWOW64\MapRouter".?is_on_route@TrafficWarner@ngeo@Microsoft@@QAE_NABVRoute@23@AAVTrafficNotification@23@@Z
  ?is_on_street@MapMatchedLocation@ngeo@Microsoft@@QBE_NXZ="C:\Windows\SysWOW64\MapRouter".?is_on_street@MapMatchedLocation@ngeo@Microsoft@@QBE_NXZ
  ?is_online@MapModel@ngeo@Microsoft@@QBE_NXZ="C:\Windows\SysWOW64\MapRouter".?is_online@MapModel@ngeo@Microsoft@@QBE_NXZ
  ?is_online_route@Route@ngeo@Microsoft@@QBE_NXZ="C:\Windows\SysWOW64\MapRouter".?is_online_route@Route@ngeo@Microsoft@@QBE_NXZ
  ?is_pedestrian@RoadElement@ngeo@Microsoft@@QBE_NXZ="C:\Windows\SysWOW64\MapRouter".?is_pedestrian@RoadElement@ngeo@Microsoft@@QBE_NXZ
  ?is_reroutable@Traffic@ngeo@Microsoft@@SG_NABVTrafficEvent@23@@Z="C:\Windows\SysWOW64\MapRouter".?is_reroutable@Traffic@ngeo@Microsoft@@SG_NABVTrafficEvent@23@@Z
  ?is_scenic@Route@ngeo@Microsoft@@QBE_NXZ="C:\Windows\SysWOW64\MapRouter".?is_scenic@Route@ngeo@Microsoft@@QBE_NXZ
  ?is_suitable_for_map_matching@Location@ngeo@Microsoft@@QBE_NXZ="C:\Windows\SysWOW64\MapRouter".?is_suitable_for_map_matching@Location@ngeo@Microsoft@@QBE_NXZ
  ?is_transit@Maneuver@ngeo@Microsoft@@SG_NW4ActionId@123@@Z="C:\Windows\SysWOW64\MapRouter".?is_transit@Maneuver@ngeo@Microsoft@@SG_NW4ActionId@123@@Z
  ?is_transit_type_allowed@TransitRouteOptions@ngeo@Microsoft@@QBE_NW4TransitType@23@@Z="C:\Windows\SysWOW64\MapRouter".?is_transit_type_allowed@TransitRouteOptions@ngeo@Microsoft@@QBE_NW4TransitType@23@@Z
  ?is_urban@StreetVoiceInfo@ngeo@Microsoft@@QBE_NXZ="C:\Windows\SysWOW64\MapRouter".?is_urban@StreetVoiceInfo@ngeo@Microsoft@@QBE_NXZ
  ?is_using_disallowed_segments@Route@ngeo@Microsoft@@QBE_NPAV?$bitset@$08@std@@@Z="C:\Windows\SysWOW64\MapRouter".?is_using_disallowed_segments@Route@ngeo@Microsoft@@QBE_NPAV?$bitset@$08@std@@@Z
  ?is_valid@?$ObjectHandle@VViewObject@ngeo@Microsoft@@$00@internal@ngeo@Microsoft@@QBE_NXZ="C:\Windows\SysWOW64\MapRouter".?is_valid@?$ObjectHandle@VViewObject@ngeo@Microsoft@@$00@internal@ngeo@Microsoft@@QBE_NXZ
  ?is_valid@?$Pimpl@VGuidanceOptions@ngeo@Microsoft@@VGuidanceOptionsImpl@internal@23@@ngeo@Microsoft@@QBE_NXZ="C:\Windows\SysWOW64\MapRouter".?is_valid@?$Pimpl@VGuidanceOptions@ngeo@Microsoft@@VGuidanceOptionsImpl@internal@23@@ngeo@Microsoft@@QBE_NXZ
  ?is_valid@?$Pimpl@VLanguageKeyValuePair@ngeo@Microsoft@@VLanguageKeyValuePairImpl@internal@23@@ngeo@Microsoft@@QBE_NXZ="C:\Windows\SysWOW64\MapRouter".?is_valid@?$Pimpl@VLanguageKeyValuePair@ngeo@Microsoft@@VLanguageKeyValuePairImpl@internal@23@@ngeo@Microsoft@@QBE_NXZ
  ?is_valid@?$Pimpl@VLanguageMapping@ngeo@Microsoft@@VLanguageMappingImpl@internal@23@@ngeo@Microsoft@@QBE_NXZ="C:\Windows\SysWOW64\MapRouter".?is_valid@?$Pimpl@VLanguageMapping@ngeo@Microsoft@@VLanguageMappingImpl@internal@23@@ngeo@Microsoft@@QBE_NXZ
  ?is_valid@?$Pimpl@VLocationSource@ngeo@Microsoft@@VLocationSourceImpl@internal@23@@ngeo@Microsoft@@QBE_NXZ="C:\Windows\SysWOW64\MapRouter".?is_valid@?$Pimpl@VLocationSource@ngeo@Microsoft@@VLocationSourceImpl@internal@23@@ngeo@Microsoft@@QBE_NXZ
  ?is_valid@?$Pimpl@VManeuverVoiceInfo@ngeo@Microsoft@@VManeuverVoiceInfoImpl@internal@23@@ngeo@Microsoft@@QBE_NXZ="C:\Windows\SysWOW64\MapRouter".?is_valid@?$Pimpl@VManeuverVoiceInfo@ngeo@Microsoft@@VManeuverVoiceInfoImpl@internal@23@@ngeo@Microsoft@@QBE_NXZ
  ?is_valid@?$Pimpl@VMapMatcher@ngeo@Microsoft@@VMapMatcherImpl@internal@23@@ngeo@Microsoft@@QBE_NXZ="C:\Windows\SysWOW64\MapRouter".?is_valid@?$Pimpl@VMapMatcher@ngeo@Microsoft@@VMapMatcherImpl@internal@23@@ngeo@Microsoft@@QBE_NXZ
  ?is_valid@?$Pimpl@VMapMatcherOptions@ngeo@Microsoft@@VMapMatcherOptionsImpl@internal@23@@ngeo@Microsoft@@QBE_NXZ="C:\Windows\SysWOW64\MapRouter".?is_valid@?$Pimpl@VMapMatcherOptions@ngeo@Microsoft@@VMapMatcherOptionsImpl@internal@23@@ngeo@Microsoft@@QBE_NXZ
  ?is_valid@?$Pimpl@VNaturalGuidanceVoiceInfo@ngeo@Microsoft@@VNaturalGuidanceVoiceInfoImpl@internal@23@@ngeo@Microsoft@@QBE_NXZ="C:\Windows\SysWOW64\MapRouter".?is_valid@?$Pimpl@VNaturalGuidanceVoiceInfo@ngeo@Microsoft@@VNaturalGuidanceVoiceInfoImpl@internal@23@@ngeo@Microsoft@@QBE_NXZ
  ?is_valid@?$Pimpl@VPhonemeMapping@ngeo@Microsoft@@VPhonemeMappingImpl@internal@23@@ngeo@Microsoft@@QBE_NXZ="C:\Windows\SysWOW64\MapRouter".?is_valid@?$Pimpl@VPhonemeMapping@ngeo@Microsoft@@VPhonemeMappingImpl@internal@23@@ngeo@Microsoft@@QBE_NXZ
  ?is_valid@?$Pimpl@VSideOfDestinationVoiceInfo@ngeo@Microsoft@@VSideOfDestinationVoiceInfoImpl@internal@23@@ngeo@Microsoft@@QBE_NXZ="C:\Windows\SysWOW64\MapRouter".?is_valid@?$Pimpl@VSideOfDestinationVoiceInfo@ngeo@Microsoft@@VSideOfDestinationVoiceInfoImpl@internal@23@@ngeo@Microsoft@@QBE_NXZ
  ?is_valid@?$Pimpl@VSignpostLabelVoiceInfo@ngeo@Microsoft@@VSignpostLabelVoiceInfoImpl@internal@23@@ngeo@Microsoft@@QBE_NXZ="C:\Windows\SysWOW64\MapRouter".?is_valid@?$Pimpl@VSignpostLabelVoiceInfo@ngeo@Microsoft@@VSignpostLabelVoiceInfoImpl@internal@23@@ngeo@Microsoft@@QBE_NXZ
  ?is_valid@?$Pimpl@VSignpostVoiceInfo@ngeo@Microsoft@@VSignpostVoiceInfoImpl@internal@23@@ngeo@Microsoft@@QBE_NXZ="C:\Windows\SysWOW64\MapRouter".?is_valid@?$Pimpl@VSignpostVoiceInfo@ngeo@Microsoft@@VSignpostVoiceInfoImpl@internal@23@@ngeo@Microsoft@@QBE_NXZ
  ?is_valid@?$Pimpl@VStreetVoiceInfo@ngeo@Microsoft@@VStreetVoiceInfoImpl@internal@23@@ngeo@Microsoft@@QBE_NXZ="C:\Windows\SysWOW64\MapRouter".?is_valid@?$Pimpl@VStreetVoiceInfo@ngeo@Microsoft@@VStreetVoiceInfoImpl@internal@23@@ngeo@Microsoft@@QBE_NXZ
  ?is_valid@?$Pimpl@VVoiceCommandInfo@ngeo@Microsoft@@VVoiceCommandInfoImpl@internal@23@@ngeo@Microsoft@@QBE_NXZ="C:\Windows\SysWOW64\MapRouter".?is_valid@?$Pimpl@VVoiceCommandInfo@ngeo@Microsoft@@VVoiceCommandInfoImpl@internal@23@@ngeo@Microsoft@@QBE_NXZ
  ?is_valid@?$Pimpl@VVoiceSkin@ngeo@Microsoft@@VVoiceSkinImpl@internal@23@@ngeo@Microsoft@@QBE_NXZ="C:\Windows\SysWOW64\MapRouter".?is_valid@?$Pimpl@VVoiceSkin@ngeo@Microsoft@@VVoiceSkinImpl@internal@23@@ngeo@Microsoft@@QBE_NXZ
  ?is_valid@Date@ngeo@Microsoft@@QBE_NXZ="C:\Windows\SysWOW64\MapRouter".?is_valid@Date@ngeo@Microsoft@@QBE_NXZ
  ?is_valid@DateTime@ngeo@Microsoft@@QBE_NXZ="C:\Windows\SysWOW64\MapRouter".?is_valid@DateTime@ngeo@Microsoft@@QBE_NXZ
  ?is_valid@DynamicPenalty@ngeo@Microsoft@@QBE_NXZ="C:\Windows\SysWOW64\MapRouter".?is_valid@DynamicPenalty@ngeo@Microsoft@@QBE_NXZ
  ?is_valid@GeoCoordinates@ngeo@Microsoft@@UBE_NXZ="C:\Windows\SysWOW64\MapRouter".?is_valid@GeoCoordinates@ngeo@Microsoft@@UBE_NXZ
  ?is_valid@GeoPolygon@ngeo@Microsoft@@UBE_NXZ="C:\Windows\SysWOW64\MapRouter".?is_valid@GeoPolygon@ngeo@Microsoft@@UBE_NXZ
  ?is_valid@GeoPolyline@ngeo@Microsoft@@UBE_NXZ="C:\Windows\SysWOW64\MapRouter".?is_valid@GeoPolyline@ngeo@Microsoft@@UBE_NXZ
  ?is_valid@GeoRect@ngeo@Microsoft@@UBE_NXZ="C:\Windows\SysWOW64\MapRouter".?is_valid@GeoRect@ngeo@Microsoft@@UBE_NXZ
  ?is_valid@Guidance@ngeo@Microsoft@@QBE_NXZ="C:\Windows\SysWOW64\MapRouter".?is_valid@Guidance@ngeo@Microsoft@@QBE_NXZ
  ?is_valid@Icon@ngeo@Microsoft@@QBE_NXZ="C:\Windows\SysWOW64\MapRouter".?is_valid@Icon@ngeo@Microsoft@@QBE_NXZ
  ?is_valid@Location@ngeo@Microsoft@@QBE_NXZ="C:\Windows\SysWOW64\MapRouter".?is_valid@Location@ngeo@Microsoft@@QBE_NXZ
  ?is_valid@MapModel@ngeo@Microsoft@@QBE_NXZ="C:\Windows\SysWOW64\MapRouter".?is_valid@MapModel@ngeo@Microsoft@@QBE_NXZ
  ?is_valid@MapSensor@ngeo@Microsoft@@QBE_NXZ="C:\Windows\SysWOW64\MapRouter".?is_valid@MapSensor@ngeo@Microsoft@@QBE_NXZ
  ?is_valid@OutputEngine@ngeo@Microsoft@@QBE_NXZ="C:\Windows\SysWOW64\MapRouter".?is_valid@OutputEngine@ngeo@Microsoft@@QBE_NXZ
  ?is_valid@PixelCoordinates@ngeo@Microsoft@@QBE_NXZ="C:\Windows\SysWOW64\MapRouter".?is_valid@PixelCoordinates@ngeo@Microsoft@@QBE_NXZ
  ?is_valid@PixelRect@ngeo@Microsoft@@QBE_NXZ="C:\Windows\SysWOW64\MapRouter".?is_valid@PixelRect@ngeo@Microsoft@@QBE_NXZ
  ?is_valid@RenderBuffer@ngeo@Microsoft@@UBE_NXZ="C:\Windows\SysWOW64\MapRouter".?is_valid@RenderBuffer@ngeo@Microsoft@@UBE_NXZ
  ?is_valid@RoadElement@ngeo@Microsoft@@QBE_NXZ="C:\Windows\SysWOW64\MapRouter".?is_valid@RoadElement@ngeo@Microsoft@@QBE_NXZ
  ?is_valid@Route@ngeo@Microsoft@@QBE_NXZ="C:\Windows\SysWOW64\MapRouter".?is_valid@Route@ngeo@Microsoft@@QBE_NXZ
  ?is_valid@RouteElement@ngeo@Microsoft@@QBE_NXZ="C:\Windows\SysWOW64\MapRouter".?is_valid@RouteElement@ngeo@Microsoft@@QBE_NXZ
  ?is_valid@RouteElements@ngeo@Microsoft@@QBE_NXZ="C:\Windows\SysWOW64\MapRouter".?is_valid@RouteElements@ngeo@Microsoft@@QBE_NXZ
  ?is_valid@Signpost@ngeo@Microsoft@@UBE_NXZ="C:\Windows\SysWOW64\MapRouter".?is_valid@Signpost@ngeo@Microsoft@@UBE_NXZ
  ?is_valid@SimpleGuidance@naviplayer@Microsoft@@QBE_NXZ="C:\Windows\SysWOW64\MapRouter".?is_valid@SimpleGuidance@naviplayer@Microsoft@@QBE_NXZ
  ?is_valid@SimpleGuidanceOptions@naviplayer@Microsoft@@QBE_NXZ="C:\Windows\SysWOW64\MapRouter".?is_valid@SimpleGuidanceOptions@naviplayer@Microsoft@@QBE_NXZ
  ?is_valid@SizeInPixels@ngeo@Microsoft@@QBE_NXZ="C:\Windows\SysWOW64\MapRouter".?is_valid@SizeInPixels@ngeo@Microsoft@@QBE_NXZ
  ?is_valid@SpeedWarner@ngeo@Microsoft@@QBE_NXZ="C:\Windows\SysWOW64\MapRouter".?is_valid@SpeedWarner@ngeo@Microsoft@@QBE_NXZ
  ?is_valid@Surface@ngeo@Microsoft@@UBE_NXZ="C:\Windows\SysWOW64\MapRouter".?is_valid@Surface@ngeo@Microsoft@@UBE_NXZ
  ?is_valid@Time@ngeo@Microsoft@@QBE_NXZ="C:\Windows\SysWOW64\MapRouter".?is_valid@Time@ngeo@Microsoft@@QBE_NXZ
  ?is_valid@Traffic@ngeo@Microsoft@@QBE_NXZ="C:\Windows\SysWOW64\MapRouter".?is_valid@Traffic@ngeo@Microsoft@@QBE_NXZ
  ?is_valid@TrafficEventObject@ngeo@Microsoft@@ABE_NXZ="C:\Windows\SysWOW64\MapRouter".?is_valid@TrafficEventObject@ngeo@Microsoft@@ABE_NXZ
  ?is_valid@TrafficNotificationInfo@ngeo@Microsoft@@QBE_NXZ="C:\Windows\SysWOW64\MapRouter".?is_valid@TrafficNotificationInfo@ngeo@Microsoft@@QBE_NXZ
  ?is_valid@TrafficPenaltySource@DynamicPenalty@ngeo@Microsoft@@QBE_NXZ="C:\Windows\SysWOW64\MapRouter".?is_valid@TrafficPenaltySource@DynamicPenalty@ngeo@Microsoft@@QBE_NXZ
  ?is_valid@TrafficWarner@ngeo@Microsoft@@QBE_NXZ="C:\Windows\SysWOW64\MapRouter".?is_valid@TrafficWarner@ngeo@Microsoft@@QBE_NXZ
  ?is_valid@TrafficWarnerOptions@ngeo@Microsoft@@QBE_NXZ="C:\Windows\SysWOW64\MapRouter".?is_valid@TrafficWarnerOptions@ngeo@Microsoft@@QBE_NXZ
  ?is_valid@TransitRouteElement@ngeo@Microsoft@@QBE_NXZ="C:\Windows\SysWOW64\MapRouter".?is_valid@TransitRouteElement@ngeo@Microsoft@@QBE_NXZ
  ?is_valid@TransitRouteStop@ngeo@Microsoft@@QBE_NXZ="C:\Windows\SysWOW64\MapRouter".?is_valid@TransitRouteStop@ngeo@Microsoft@@QBE_NXZ
  ?is_valid@Version@ngeo@Microsoft@@QBE_NXZ="C:\Windows\SysWOW64\MapRouter".?is_valid@Version@ngeo@Microsoft@@QBE_NXZ
  ?is_visible@Traffic@ngeo@Microsoft@@SG_NABVTrafficEvent@23@@Z="C:\Windows\SysWOW64\MapRouter".?is_visible@Traffic@ngeo@Microsoft@@SG_NABVTrafficEvent@23@@Z
  ?is_voice_supported@TtsEngine@ngeo@Microsoft@@QAE_NABVTtsVoiceInfo@23@@Z="C:\Windows\SysWOW64\MapRouter".?is_voice_supported@TtsEngine@ngeo@Microsoft@@QAE_NABVTtsVoiceInfo@23@@Z
  ?load_options@MapMatcherOptions@ngeo@Microsoft@@QAE?AW4ErrorCode@errorcodes@msngeo@@ABV?$basic_string@GU?$char_traits@G@std@@V?$allocator@G@2@@std@@@Z="C:\Windows\SysWOW64\MapRouter".?load_options@MapMatcherOptions@ngeo@Microsoft@@QAE?AW4ErrorCode@errorcodes@msngeo@@ABV?$basic_string@GU?$char_traits@G@std@@V?$allocator@G@2@@std@@@Z
  ?lock@?$Lockable@VSharedMutex@ngeo@Microsoft@@@ngeo@Microsoft@@QBEXXZ="C:\Windows\SysWOW64\MapRouter".?lock@?$Lockable@VSharedMutex@ngeo@Microsoft@@@ngeo@Microsoft@@QBEXXZ
  ?lock_object_handle@?$ObjectHandle@VViewObject@ngeo@Microsoft@@$00@internal@ngeo@Microsoft@@ABEX_N@Z="C:\Windows\SysWOW64\MapRouter".?lock_object_handle@?$ObjectHandle@VViewObject@ngeo@Microsoft@@$00@internal@ngeo@Microsoft@@ABEX_N@Z
  ?mInstance@Runtime@nmacore@Microsoft@@0PAV123@A="C:\Windows\SysWOW64\MapRouter".?mInstance@Runtime@nmacore@Microsoft@@0PAV123@A
  ?maneuver@Maneuver@nmacore@Microsoft@@QBEPBV1ngeo@3@XZ="C:\Windows\SysWOW64\MapRouter".?maneuver@Maneuver@nmacore@Microsoft@@QBEPBV1ngeo@3@XZ
  ?mapMatcher@Guidance@nmacore@Microsoft@@QBEABVMapMatcher@ngeo@3@XZ="C:\Windows\SysWOW64\MapRouter".?mapMatcher@Guidance@nmacore@Microsoft@@QBEABVMapMatcher@ngeo@3@XZ
  ?mapMatcher@MapMatcherProxy@nmacore@Microsoft@@QAEAAVMapMatcher@ngeo@3@XZ="C:\Windows\SysWOW64\MapRouter".?mapMatcher@MapMatcherProxy@nmacore@Microsoft@@QAEAAVMapMatcher@ngeo@3@XZ
  ?mapMatcher@MapMatcherProxy@nmacore@Microsoft@@QBEABVMapMatcher@ngeo@3@XZ="C:\Windows\SysWOW64\MapRouter".?mapMatcher@MapMatcherProxy@nmacore@Microsoft@@QBEABVMapMatcher@ngeo@3@XZ
  ?match@MapMatcher@ngeo@Microsoft@@QAE?AVMapMatchedLocation@23@ABVLocation@23@@Z="C:\Windows\SysWOW64\MapRouter".?match@MapMatcher@ngeo@Microsoft@@QAE?AVMapMatchedLocation@23@ABVLocation@23@@Z
  ?match@MapMatcher@ngeo@Microsoft@@QAE?AVMapMatchedLocation@23@ABVLocation@23@ABVGuidance@23@@Z="C:\Windows\SysWOW64\MapRouter".?match@MapMatcher@ngeo@Microsoft@@QAE?AVMapMatchedLocation@23@ABVLocation@23@ABVGuidance@23@@Z
  ?match@MapMatcherProxy@nmacore@Microsoft@@AAEXABVLocation@ngeo@3@@Z="C:\Windows\SysWOW64\MapRouter".?match@MapMatcherProxy@nmacore@Microsoft@@AAEXABVLocation@ngeo@3@@Z
  ?name_hint@RouteWaypoint@ngeo@Microsoft@@QBEABV?$basic_string@GU?$char_traits@G@std@@V?$allocator@G@2@@std@@XZ="C:\Windows\SysWOW64\MapRouter".?name_hint@RouteWaypoint@ngeo@Microsoft@@QBEABV?$basic_string@GU?$char_traits@G@std@@V?$allocator@G@2@@std@@XZ
  ?navigate@Guidance@nmacore@Microsoft@@QAEXABVRoute@ngeo@3@@Z="C:\Windows\SysWOW64\MapRouter".?navigate@Guidance@nmacore@Microsoft@@QAEXABVRoute@ngeo@3@@Z
  ?navigateTo@Guidance@nmacore@Microsoft@@QAEXNN_N@Z="C:\Windows\SysWOW64\MapRouter".?navigateTo@Guidance@nmacore@Microsoft@@QAEXNN_N@Z
  ?nextTickIn@Poller@nmacore@Microsoft@@IAEX_J@Z="C:\Windows\SysWOW64\MapRouter".?nextTickIn@Poller@nmacore@Microsoft@@IAEX_J@Z
  ?next_is_sliproad@Maneuver@ngeo@Microsoft@@QBE_NXZ="C:\Windows\SysWOW64\MapRouter".?next_is_sliproad@Maneuver@ngeo@Microsoft@@QBE_NXZ
  ?normalize_coordinates@GeoCoordinates@ngeo@Microsoft@@SG_NAAN0@Z="C:\Windows\SysWOW64\MapRouter".?normalize_coordinates@GeoCoordinates@ngeo@Microsoft@@SG_NAAN0@Z
  ?notifyListener@TransitDatabase@nmacore@Microsoft@@AAEXW4TErrorCode@@@Z="C:\Windows\SysWOW64\MapRouter".?notifyListener@TransitDatabase@nmacore@Microsoft@@AAEXW4TErrorCode@@@Z
  ?notifyObservers@MapMatcherProxy@nmacore@Microsoft@@AAEXABVMapMatchedLocation@ngeo@3@@Z="C:\Windows\SysWOW64\MapRouter".?notifyObservers@MapMatcherProxy@nmacore@Microsoft@@AAEXABVMapMatchedLocation@ngeo@3@@Z
  ?number_of_points@GeoPolyline@ngeo@Microsoft@@QBEIXZ="C:\Windows\SysWOW64\MapRouter".?number_of_points@GeoPolyline@ngeo@Microsoft@@QBEIXZ
  ?on_alternate_route_calculated@SimpleGuidanceListener@naviplayer@Microsoft@@UAEXABVRoute@ngeo@3@@Z="C:\Windows\SysWOW64\MapRouter".?on_alternate_route_calculated@SimpleGuidanceListener@naviplayer@Microsoft@@UAEXABVRoute@ngeo@3@@Z
  ?on_availability_db_updated@TrafficEngine@nmacore@Microsoft@@EAEXXZ="C:\Windows\SysWOW64\MapRouter".?on_availability_db_updated@TrafficEngine@nmacore@Microsoft@@EAEXXZ
  ?on_availability_db_updated@TrafficListener@ngeo@Microsoft@@UAEXXZ="C:\Windows\SysWOW64\MapRouter".?on_availability_db_updated@TrafficListener@ngeo@Microsoft@@UAEXXZ
  ?on_avoid_traffic_failed@Guidance@nmacore@Microsoft@@EAEXABVTrafficNotification@ngeo@3@ABVOutput@53@@Z="C:\Windows\SysWOW64\MapRouter".?on_avoid_traffic_failed@Guidance@nmacore@Microsoft@@EAEXABVTrafficNotification@ngeo@3@ABVOutput@53@@Z
  ?on_avoid_traffic_failed@SimpleGuidanceListener@naviplayer@Microsoft@@UAEXABVTrafficNotification@ngeo@3@ABVOutput@53@@Z="C:\Windows\SysWOW64\MapRouter".?on_avoid_traffic_failed@SimpleGuidanceListener@naviplayer@Microsoft@@UAEXABVTrafficNotification@ngeo@3@ABVOutput@53@@Z
  ?on_bing_result@RouterEngine@nmacore@Microsoft@@QAEXAAV?$vector@VBingRoute@nmacore@Microsoft@@V?$allocator@VBingRoute@nmacore@Microsoft@@@std@@@std@@@Z="C:\Windows\SysWOW64\MapRouter".?on_bing_result@RouterEngine@nmacore@Microsoft@@QAEXAAV?$vector@VBingRoute@nmacore@Microsoft@@V?$allocator@VBingRoute@nmacore@Microsoft@@@std@@@std@@@Z
  ?on_cheat_begin@GuidanceListener@ngeo@Microsoft@@UAEXABVOutput@23@@Z="C:\Windows\SysWOW64\MapRouter".?on_cheat_begin@GuidanceListener@ngeo@Microsoft@@UAEXABVOutput@23@@Z
  ?on_cheat_end@GuidanceListener@ngeo@Microsoft@@UAEXABVOutput@23@@Z="C:\Windows\SysWOW64\MapRouter".?on_cheat_end@GuidanceListener@ngeo@Microsoft@@UAEXABVOutput@23@@Z
  ?on_country_info@Guidance@nmacore@Microsoft@@EAEXABV?$basic_string@GU?$char_traits@G@std@@V?$allocator@G@2@@std@@0@Z="C:\Windows\SysWOW64\MapRouter".?on_country_info@Guidance@nmacore@Microsoft@@EAEXABV?$basic_string@GU?$char_traits@G@std@@V?$allocator@G@2@@std@@0@Z
  ?on_country_info@GuidanceListener@ngeo@Microsoft@@UAEXABV?$basic_string@GU?$char_traits@G@std@@V?$allocator@G@2@@std@@0@Z="C:\Windows\SysWOW64\MapRouter".?on_country_info@GuidanceListener@ngeo@Microsoft@@UAEXABV?$basic_string@GU?$char_traits@G@std@@V?$allocator@G@2@@std@@0@Z
  ?on_destination_reached@Guidance@nmacore@Microsoft@@EAEXABVRoutePlan@ngeo@3@ABVOutput@53@@Z="C:\Windows\SysWOW64\MapRouter".?on_destination_reached@Guidance@nmacore@Microsoft@@EAEXABVRoutePlan@ngeo@3@ABVOutput@53@@Z
  ?on_destination_reached@GuidanceListener@ngeo@Microsoft@@UAEXABVRoutePlan@23@@Z="C:\Windows\SysWOW64\MapRouter".?on_destination_reached@GuidanceListener@ngeo@Microsoft@@UAEXABVRoutePlan@23@@Z
  ?on_destination_reached@GuidanceListener@ngeo@Microsoft@@UAEXABVRoutePlan@23@ABVOutput@23@@Z="C:\Windows\SysWOW64\MapRouter".?on_destination_reached@GuidanceListener@ngeo@Microsoft@@UAEXABVRoutePlan@23@ABVOutput@23@@Z
  ?on_end@Guidance@nmacore@Microsoft@@AAEXW4ErrorCode@errorcodes@msngeo@@@Z="C:\Windows\SysWOW64\MapRouter".?on_end@Guidance@nmacore@Microsoft@@AAEXW4ErrorCode@errorcodes@msngeo@@@Z
  ?on_end@RouterEngine@nmacore@Microsoft@@UAEXW4ErrorCode@errorcodes@msngeo@@ABV?$vector@V?$bitset@$08@std@@V?$allocator@V?$bitset@$08@std@@@2@@std@@@Z="C:\Windows\SysWOW64\MapRouter".?on_end@RouterEngine@nmacore@Microsoft@@UAEXW4ErrorCode@errorcodes@msngeo@@ABV?$vector@V?$bitset@$08@std@@V?$allocator@V?$bitset@$08@std@@@2@@std@@@Z
  ?on_end@TransitDatabase@nmacore@Microsoft@@EAEXW4ErrorCode@errorcodes@msngeo@@@Z="C:\Windows\SysWOW64\MapRouter".?on_end@TransitDatabase@nmacore@Microsoft@@EAEXW4ErrorCode@errorcodes@msngeo@@@Z
  ?on_end@TransitDatabaseListener@ngeo@Microsoft@@UAEXW4ErrorCode@errorcodes@msngeo@@@Z="C:\Windows\SysWOW64\MapRouter".?on_end@TransitDatabaseListener@ngeo@Microsoft@@UAEXW4ErrorCode@errorcodes@msngeo@@@Z
  ?on_gps_lost@Guidance@nmacore@Microsoft@@EAEXABVOutput@ngeo@3@@Z="C:\Windows\SysWOW64\MapRouter".?on_gps_lost@Guidance@nmacore@Microsoft@@EAEXABVOutput@ngeo@3@@Z
  ?on_gps_lost@GuidanceListener@ngeo@Microsoft@@UAEXABVOutput@23@@Z="C:\Windows\SysWOW64\MapRouter".?on_gps_lost@GuidanceListener@ngeo@Microsoft@@UAEXABVOutput@23@@Z
  ?on_gps_lost@GuidanceListener@ngeo@Microsoft@@UAEXXZ="C:\Windows\SysWOW64\MapRouter".?on_gps_lost@GuidanceListener@ngeo@Microsoft@@UAEXXZ
  ?on_gps_restored@Guidance@nmacore@Microsoft@@EAEXABVOutput@ngeo@3@@Z="C:\Windows\SysWOW64\MapRouter".?on_gps_restored@Guidance@nmacore@Microsoft@@EAEXABVOutput@ngeo@3@@Z
  ?on_gps_restored@GuidanceListener@ngeo@Microsoft@@UAEXABVOutput@23@@Z="C:\Windows\SysWOW64\MapRouter".?on_gps_restored@GuidanceListener@ngeo@Microsoft@@UAEXABVOutput@23@@Z
  ?on_gps_restored@GuidanceListener@ngeo@Microsoft@@UAEXXZ="C:\Windows\SysWOW64\MapRouter".?on_gps_restored@GuidanceListener@ngeo@Microsoft@@UAEXXZ
  ?on_hide_laneinfo@Guidance@nmacore@Microsoft@@EAEXABV?$vector@VLaneInfo@ngeo@Microsoft@@V?$allocator@VLaneInfo@ngeo@Microsoft@@@std@@@std@@@Z="C:\Windows\SysWOW64\MapRouter".?on_hide_laneinfo@Guidance@nmacore@Microsoft@@EAEXABV?$vector@VLaneInfo@ngeo@Microsoft@@V?$allocator@VLaneInfo@ngeo@Microsoft@@@std@@@std@@@Z
  ?on_hide_laneinfo@GuidanceListener@ngeo@Microsoft@@UAEXABV?$vector@VLaneInfo@ngeo@Microsoft@@V?$allocator@VLaneInfo@ngeo@Microsoft@@@std@@@std@@@Z="C:\Windows\SysWOW64\MapRouter".?on_hide_laneinfo@GuidanceListener@ngeo@Microsoft@@UAEXABV?$vector@VLaneInfo@ngeo@Microsoft@@V?$allocator@VLaneInfo@ngeo@Microsoft@@@std@@@std@@@Z
  ?on_inform_begin_avoid_traffic@SimpleGuidanceListener@naviplayer@Microsoft@@UAEXABVTrafficNotification@ngeo@3@@Z="C:\Windows\SysWOW64\MapRouter".?on_inform_begin_avoid_traffic@SimpleGuidanceListener@naviplayer@Microsoft@@UAEXABVTrafficNotification@ngeo@3@@Z
  ?on_location_changed@DriveSimulator@nmacore@Microsoft@@MAEXABVLocation@ngeo@3@@Z="C:\Windows\SysWOW64\MapRouter".?on_location_changed@DriveSimulator@nmacore@Microsoft@@MAEXABVLocation@ngeo@3@@Z
  ?on_maneuver@Guidance@nmacore@Microsoft@@EAEXPBDABVOutput@ngeo@3@@Z="C:\Windows\SysWOW64\MapRouter".?on_maneuver@Guidance@nmacore@Microsoft@@EAEXPBDABVOutput@ngeo@3@@Z
  ?on_maneuver@GuidanceListener@ngeo@Microsoft@@UAEXPBDABVOutput@23@@Z="C:\Windows\SysWOW64\MapRouter".?on_maneuver@GuidanceListener@ngeo@Microsoft@@UAEXPBDABVOutput@23@@Z
  ?on_maneuver@GuidanceListener@ngeo@Microsoft@@UAEXPBDABVVoiceCommandInfo@23@@Z="C:\Windows\SysWOW64\MapRouter".?on_maneuver@GuidanceListener@ngeo@Microsoft@@UAEXPBDABVVoiceCommandInfo@23@@Z
  ?on_place_category_tree_update_available@Guidance@nmacore@Microsoft@@AAEXXZ="C:\Windows\SysWOW64\MapRouter".?on_place_category_tree_update_available@Guidance@nmacore@Microsoft@@AAEXXZ
  ?on_progress@RouterEngine@nmacore@Microsoft@@UAEXI@Z="C:\Windows\SysWOW64\MapRouter".?on_progress@RouterEngine@nmacore@Microsoft@@UAEXI@Z
  ?on_progress@RouterListener@ngeo@Microsoft@@UAEXI@Z="C:\Windows\SysWOW64\MapRouter".?on_progress@RouterListener@ngeo@Microsoft@@UAEXI@Z
  ?on_reroute_begin@Guidance@nmacore@Microsoft@@EAEXABVOutput@ngeo@3@@Z="C:\Windows\SysWOW64\MapRouter".?on_reroute_begin@Guidance@nmacore@Microsoft@@EAEXABVOutput@ngeo@3@@Z
  ?on_reroute_begin@GuidanceListener@ngeo@Microsoft@@UAEXABVOutput@23@@Z="C:\Windows\SysWOW64\MapRouter".?on_reroute_begin@GuidanceListener@ngeo@Microsoft@@UAEXABVOutput@23@@Z
  ?on_reroute_begin@GuidanceListener@ngeo@Microsoft@@UAEXXZ="C:\Windows\SysWOW64\MapRouter".?on_reroute_begin@GuidanceListener@ngeo@Microsoft@@UAEXXZ
  ?on_reroute_end@Guidance@nmacore@Microsoft@@EAEXABVOutput@ngeo@3@@Z="C:\Windows\SysWOW64\MapRouter".?on_reroute_end@Guidance@nmacore@Microsoft@@EAEXABVOutput@ngeo@3@@Z
  ?on_reroute_end@GuidanceListener@ngeo@Microsoft@@UAEXABVOutput@23@@Z="C:\Windows\SysWOW64\MapRouter".?on_reroute_end@GuidanceListener@ngeo@Microsoft@@UAEXABVOutput@23@@Z
  ?on_reroute_end@GuidanceListener@ngeo@Microsoft@@UAEXXZ="C:\Windows\SysWOW64\MapRouter".?on_reroute_end@GuidanceListener@ngeo@Microsoft@@UAEXXZ
  ?on_reroute_failed@Guidance@nmacore@Microsoft@@EAEXABVOutput@ngeo@3@@Z="C:\Windows\SysWOW64\MapRouter".?on_reroute_failed@Guidance@nmacore@Microsoft@@EAEXABVOutput@ngeo@3@@Z
  ?on_reroute_failed@GuidanceListener@ngeo@Microsoft@@UAEXABVOutput@23@@Z="C:\Windows\SysWOW64\MapRouter".?on_reroute_failed@GuidanceListener@ngeo@Microsoft@@UAEXABVOutput@23@@Z
  ?on_reroute_failed@GuidanceListener@ngeo@Microsoft@@UAEXXZ="C:\Windows\SysWOW64\MapRouter".?on_reroute_failed@GuidanceListener@ngeo@Microsoft@@UAEXXZ
  ?on_result@Guidance@nmacore@Microsoft@@AAEXABVLocation@ngeo@3@@Z="C:\Windows\SysWOW64\MapRouter".?on_result@Guidance@nmacore@Microsoft@@AAEXABVLocation@ngeo@3@@Z
  ?on_result@RouterEngine@nmacore@Microsoft@@UAEXABV?$vector@VRoute@ngeo@Microsoft@@V?$allocator@VRoute@ngeo@Microsoft@@@std@@@std@@@Z="C:\Windows\SysWOW64\MapRouter".?on_result@RouterEngine@nmacore@Microsoft@@UAEXABV?$vector@VRoute@ngeo@Microsoft@@V?$allocator@VRoute@ngeo@Microsoft@@@std@@@std@@@Z
  ?on_road_element_unblocked_traffic@SimpleGuidanceListener@naviplayer@Microsoft@@UAEXABVEdgeId@smart5@3@@Z="C:\Windows\SysWOW64\MapRouter".?on_road_element_unblocked_traffic@SimpleGuidanceListener@naviplayer@Microsoft@@UAEXABVEdgeId@smart5@3@@Z
  ?on_route@LaneInfo@ngeo@Microsoft@@QBE_NXZ="C:\Windows\SysWOW64\MapRouter".?on_route@LaneInfo@ngeo@Microsoft@@QBE_NXZ
  ?on_route@Traffic@ngeo@Microsoft@@QBE?AW4ErrorCode@errorcodes@msngeo@@ABVTrafficEvent@23@ABVRoute@23@AA_N@Z="C:\Windows\SysWOW64\MapRouter".?on_route@Traffic@ngeo@Microsoft@@QBE?AW4ErrorCode@errorcodes@msngeo@@ABVTrafficEvent@23@ABVRoute@23@AA_N@Z
  ?on_route_updated@Guidance@nmacore@Microsoft@@EAEXABVRoute@ngeo@3@@Z="C:\Windows\SysWOW64\MapRouter".?on_route_updated@Guidance@nmacore@Microsoft@@EAEXABVRoute@ngeo@3@@Z
  ?on_route_updated@GuidanceListener@ngeo@Microsoft@@UAEXABVRoute@23@@Z="C:\Windows\SysWOW64\MapRouter".?on_route_updated@GuidanceListener@ngeo@Microsoft@@UAEXABVRoute@23@@Z
  ?on_route_updating@SimpleGuidanceListener@naviplayer@Microsoft@@UAE_NABVRoute@ngeo@3@ABV?$bitset@$08@std@@@Z="C:\Windows\SysWOW64\MapRouter".?on_route_updating@SimpleGuidanceListener@naviplayer@Microsoft@@UAE_NABVRoute@ngeo@3@ABV?$bitset@$08@std@@@Z
  ?on_show_laneinfo@Guidance@nmacore@Microsoft@@EAEXABV?$vector@VLaneInfo@ngeo@Microsoft@@V?$allocator@VLaneInfo@ngeo@Microsoft@@@std@@@std@@ABVLocation@ngeo@3@@Z="C:\Windows\SysWOW64\MapRouter".?on_show_laneinfo@Guidance@nmacore@Microsoft@@EAEXABV?$vector@VLaneInfo@ngeo@Microsoft@@V?$allocator@VLaneInfo@ngeo@Microsoft@@@std@@@std@@ABVLocation@ngeo@3@@Z
  ?on_show_laneinfo@GuidanceListener@ngeo@Microsoft@@UAEXABV?$vector@VLaneInfo@ngeo@Microsoft@@V?$allocator@VLaneInfo@ngeo@Microsoft@@@std@@@std@@ABVLocation@23@@Z="C:\Windows\SysWOW64\MapRouter".?on_show_laneinfo@GuidanceListener@ngeo@Microsoft@@UAEXABV?$vector@VLaneInfo@ngeo@Microsoft@@V?$allocator@VLaneInfo@ngeo@Microsoft@@@std@@@std@@ABVLocation@23@@Z
  ?on_simple_guidance_clear@SimpleGuidanceListener@naviplayer@Microsoft@@UAEXXZ="C:\Windows\SysWOW64\MapRouter".?on_simple_guidance_clear@SimpleGuidanceListener@naviplayer@Microsoft@@UAEXXZ
  ?on_simple_guidance_reset@SimpleGuidanceListener@naviplayer@Microsoft@@UAEXXZ="C:\Windows\SysWOW64\MapRouter".?on_simple_guidance_reset@SimpleGuidanceListener@naviplayer@Microsoft@@UAEXXZ
  ?on_speed_exceeded@Guidance@nmacore@Microsoft@@EAEXABVSpeedNotification@ngeo@3@@Z="C:\Windows\SysWOW64\MapRouter".?on_speed_exceeded@Guidance@nmacore@Microsoft@@EAEXABVSpeedNotification@ngeo@3@@Z
  ?on_speed_exceeded@SimpleGuidanceListener@naviplayer@Microsoft@@UAEXABVSpeedNotification@ngeo@3@@Z="C:\Windows\SysWOW64\MapRouter".?on_speed_exceeded@SimpleGuidanceListener@naviplayer@Microsoft@@UAEXABVSpeedNotification@ngeo@3@@Z
  ?on_speed_exceeded_end@Guidance@nmacore@Microsoft@@EAEXABVSpeedNotification@ngeo@3@@Z="C:\Windows\SysWOW64\MapRouter".?on_speed_exceeded_end@Guidance@nmacore@Microsoft@@EAEXABVSpeedNotification@ngeo@3@@Z
  ?on_speed_exceeded_end@SimpleGuidanceListener@naviplayer@Microsoft@@UAEXABVSpeedNotification@ngeo@3@@Z="C:\Windows\SysWOW64\MapRouter".?on_speed_exceeded_end@SimpleGuidanceListener@naviplayer@Microsoft@@UAEXABVSpeedNotification@ngeo@3@@Z
  ?on_stopover_reached@Guidance@nmacore@Microsoft@@EAEXABVRoutePlan@ngeo@3@IABVOutput@53@@Z="C:\Windows\SysWOW64\MapRouter".?on_stopover_reached@Guidance@nmacore@Microsoft@@EAEXABVRoutePlan@ngeo@3@IABVOutput@53@@Z
  ?on_stopover_reached@GuidanceListener@ngeo@Microsoft@@UAEXABVRoutePlan@23@I@Z="C:\Windows\SysWOW64\MapRouter".?on_stopover_reached@GuidanceListener@ngeo@Microsoft@@UAEXABVRoutePlan@23@I@Z
  ?on_stopover_reached@GuidanceListener@ngeo@Microsoft@@UAEXABVRoutePlan@23@IABVOutput@23@@Z="C:\Windows\SysWOW64\MapRouter".?on_stopover_reached@GuidanceListener@ngeo@Microsoft@@UAEXABVRoutePlan@23@IABVOutput@23@@Z
  ?on_text_db_updated@TrafficEngine@nmacore@Microsoft@@EAEXXZ="C:\Windows\SysWOW64\MapRouter".?on_text_db_updated@TrafficEngine@nmacore@Microsoft@@EAEXXZ
  ?on_text_db_updated@TrafficListener@ngeo@Microsoft@@UAEXXZ="C:\Windows\SysWOW64\MapRouter".?on_text_db_updated@TrafficListener@ngeo@Microsoft@@UAEXXZ
  ?on_traffic@Guidance@nmacore@Microsoft@@EAEXABVTrafficNotification@ngeo@3@@Z="C:\Windows\SysWOW64\MapRouter".?on_traffic@Guidance@nmacore@Microsoft@@EAEXABVTrafficNotification@ngeo@3@@Z
  ?on_traffic@SimpleGuidanceListener@naviplayer@Microsoft@@UAEXABVTrafficNotification@ngeo@3@@Z="C:\Windows\SysWOW64\MapRouter".?on_traffic@SimpleGuidanceListener@naviplayer@Microsoft@@UAEXABVTrafficNotification@ngeo@3@@Z
  ?on_traffic_enabled_routing_state@Guidance@nmacore@Microsoft@@EAEXW4TrafficEnabledRoutingState@SimpleGuidanceListener@naviplayer@3@@Z="C:\Windows\SysWOW64\MapRouter".?on_traffic_enabled_routing_state@Guidance@nmacore@Microsoft@@EAEXW4TrafficEnabledRoutingState@SimpleGuidanceListener@naviplayer@3@@Z
  ?on_traffic_enabled_routing_state@SimpleGuidanceListener@naviplayer@Microsoft@@UAEXW4TrafficEnabledRoutingState@123@@Z="C:\Windows\SysWOW64\MapRouter".?on_traffic_enabled_routing_state@SimpleGuidanceListener@naviplayer@Microsoft@@UAEXW4TrafficEnabledRoutingState@123@@Z
  ?on_transit_access_info@TransitDatabase@nmacore@Microsoft@@EAEXABVTransitAccessInfo@ngeo@3@@Z="C:\Windows\SysWOW64\MapRouter".?on_transit_access_info@TransitDatabase@nmacore@Microsoft@@EAEXABVTransitAccessInfo@ngeo@3@@Z
  ?on_transit_access_info@TransitDatabaseListener@ngeo@Microsoft@@UAEXABVTransitAccessInfo@23@@Z="C:\Windows\SysWOW64\MapRouter".?on_transit_access_info@TransitDatabaseListener@ngeo@Microsoft@@UAEXABVTransitAccessInfo@23@@Z
  ?on_transit_line_info@TransitDatabase@nmacore@Microsoft@@EAEXABVTransitLineInfo@ngeo@3@@Z="C:\Windows\SysWOW64\MapRouter".?on_transit_line_info@TransitDatabase@nmacore@Microsoft@@EAEXABVTransitLineInfo@ngeo@3@@Z
  ?on_transit_line_info@TransitDatabaseListener@ngeo@Microsoft@@UAEXABVTransitLineInfo@23@@Z="C:\Windows\SysWOW64\MapRouter".?on_transit_line_info@TransitDatabaseListener@ngeo@Microsoft@@UAEXABVTransitLineInfo@23@@Z
  ?on_transit_stop_info@TransitDatabase@nmacore@Microsoft@@EAEXABVTransitStopInfo@ngeo@3@@Z="C:\Windows\SysWOW64\MapRouter".?on_transit_stop_info@TransitDatabase@nmacore@Microsoft@@EAEXABVTransitStopInfo@ngeo@3@@Z
  ?on_transit_stop_info@TransitDatabaseListener@ngeo@Microsoft@@UAEXABVTransitStopInfo@23@@Z="C:\Windows\SysWOW64\MapRouter".?on_transit_stop_info@TransitDatabaseListener@ngeo@Microsoft@@UAEXABVTransitStopInfo@23@@Z
  ?on_transit_system_info@TransitDatabase@nmacore@Microsoft@@EAEXABVTransitSystemInfo@ngeo@3@@Z="C:\Windows\SysWOW64\MapRouter".?on_transit_system_info@TransitDatabase@nmacore@Microsoft@@EAEXABVTransitSystemInfo@ngeo@3@@Z
  ?on_transit_system_info@TransitDatabaseListener@ngeo@Microsoft@@UAEXABVTransitSystemInfo@23@@Z="C:\Windows\SysWOW64\MapRouter".?on_transit_system_info@TransitDatabaseListener@ngeo@Microsoft@@UAEXABVTransitSystemInfo@23@@Z
  ?on_tts_completed@TtsEngine@nmacore@Microsoft@@EAEXXZ="C:\Windows\SysWOW64\MapRouter".?on_tts_completed@TtsEngine@nmacore@Microsoft@@EAEXXZ
  ?on_tts_completed@TtsListener@ngeo@Microsoft@@UAEXXZ="C:\Windows\SysWOW64\MapRouter".?on_tts_completed@TtsListener@ngeo@Microsoft@@UAEXXZ
  ?on_tts_configured@TtsEngine@nmacore@Microsoft@@EAEXHH@Z="C:\Windows\SysWOW64\MapRouter".?on_tts_configured@TtsEngine@nmacore@Microsoft@@EAEXHH@Z
  ?on_tts_configured@TtsListener@ngeo@Microsoft@@UAEXHH@Z="C:\Windows\SysWOW64\MapRouter".?on_tts_configured@TtsListener@ngeo@Microsoft@@UAEXHH@Z
  ?on_tts_data@TtsEngine@nmacore@Microsoft@@EAEXPBXI@Z="C:\Windows\SysWOW64\MapRouter".?on_tts_data@TtsEngine@nmacore@Microsoft@@EAEXPBXI@Z
  ?on_tts_data@TtsListener@ngeo@Microsoft@@UAEXPBXI@Z="C:\Windows\SysWOW64\MapRouter".?on_tts_data@TtsListener@ngeo@Microsoft@@UAEXPBXI@Z
  ?on_tts_error@TtsEngine@nmacore@Microsoft@@EAEXW4ErrorCode@errorcodes@msngeo@@@Z="C:\Windows\SysWOW64\MapRouter".?on_tts_error@TtsEngine@nmacore@Microsoft@@EAEXW4ErrorCode@errorcodes@msngeo@@@Z
  ?on_tts_error@TtsListener@ngeo@Microsoft@@UAEXW4ErrorCode@errorcodes@msngeo@@@Z="C:\Windows\SysWOW64\MapRouter".?on_tts_error@TtsListener@ngeo@Microsoft@@UAEXW4ErrorCode@errorcodes@msngeo@@@Z
  ?on_tts_prompt_db_load@TtsEngine@nmacore@Microsoft@@EAEXW4ErrorCode@errorcodes@msngeo@@@Z="C:\Windows\SysWOW64\MapRouter".?on_tts_prompt_db_load@TtsEngine@nmacore@Microsoft@@EAEXW4ErrorCode@errorcodes@msngeo@@@Z
  ?on_tts_prompt_db_load@TtsListener@ngeo@Microsoft@@UAEXW4ErrorCode@errorcodes@msngeo@@@Z="C:\Windows\SysWOW64\MapRouter".?on_tts_prompt_db_load@TtsListener@ngeo@Microsoft@@UAEXW4ErrorCode@errorcodes@msngeo@@@Z
  ?on_update_begin@GuidanceListener@ngeo@Microsoft@@UAEXXZ="C:\Windows\SysWOW64\MapRouter".?on_update_begin@GuidanceListener@ngeo@Microsoft@@UAEXXZ
  ?on_update_end@GuidanceListener@ngeo@Microsoft@@UAEXXZ="C:\Windows\SysWOW64\MapRouter".?on_update_end@GuidanceListener@ngeo@Microsoft@@UAEXXZ
  ?on_update_traffic_status@TrafficEngine@nmacore@Microsoft@@EAEXW4UPDATE_TRAFFIC_STATUS@TrafficListener@ngeo@3@@Z="C:\Windows\SysWOW64\MapRouter".?on_update_traffic_status@TrafficEngine@nmacore@Microsoft@@EAEXW4UPDATE_TRAFFIC_STATUS@TrafficListener@ngeo@3@@Z
  ?on_update_traffic_status@TrafficListener@ngeo@Microsoft@@UAEXW4UPDATE_TRAFFIC_STATUS@123@@Z="C:\Windows\SysWOW64\MapRouter".?on_update_traffic_status@TrafficListener@ngeo@Microsoft@@UAEXW4UPDATE_TRAFFIC_STATUS@123@@Z
  ?on_visit_end@TrafficVisitor@ngeo@Microsoft@@UAEXXZ="C:\Windows\SysWOW64\MapRouter".?on_visit_end@TrafficVisitor@ngeo@Microsoft@@UAEXXZ
  ?orange@Color@ngeo@Microsoft@@SGABV123@XZ="C:\Windows\SysWOW64\MapRouter".?orange@Color@ngeo@Microsoft@@SGABV123@XZ
  ?overlaps@PixelRect@ngeo@Microsoft@@QBE_NABV123@@Z="C:\Windows\SysWOW64\MapRouter".?overlaps@PixelRect@ngeo@Microsoft@@QBE_NABV123@@Z
  ?pause@Guidance@ngeo@Microsoft@@QAEXXZ="C:\Windows\SysWOW64\MapRouter".?pause@Guidance@ngeo@Microsoft@@QAEXXZ
  ?pause@Guidance@nmacore@Microsoft@@QAEXXZ="C:\Windows\SysWOW64\MapRouter".?pause@Guidance@nmacore@Microsoft@@QAEXXZ
  ?pause@SimpleGuidance@naviplayer@Microsoft@@QAEXXZ="C:\Windows\SysWOW64\MapRouter".?pause@SimpleGuidance@naviplayer@Microsoft@@QAEXXZ
  ?pause@Traffic@ngeo@Microsoft@@QAE?AW4ErrorCode@errorcodes@msngeo@@XZ="C:\Windows\SysWOW64\MapRouter".?pause@Traffic@ngeo@Microsoft@@QAE?AW4ErrorCode@errorcodes@msngeo@@XZ
  ?penalty@TrafficEvent@nmacore@Microsoft@@QBEIXZ="C:\Windows\SysWOW64\MapRouter".?penalty@TrafficEvent@nmacore@Microsoft@@QBEIXZ
  ?playOutput@Guidance@nmacore@Microsoft@@AAEXABVOutput@ngeo@3@W4AudioEvents@123@@Z="C:\Windows\SysWOW64\MapRouter".?playOutput@Guidance@nmacore@Microsoft@@AAEXABVOutput@ngeo@3@W4AudioEvents@123@@Z
  ?playText@TtsEngine@nmacore@Microsoft@@UAE_NABV?$basic_string@GU?$char_traits@G@std@@V?$allocator@G@2@@std@@@Z="C:\Windows\SysWOW64\MapRouter".?playText@TtsEngine@nmacore@Microsoft@@UAE_NABV?$basic_string@GU?$char_traits@G@std@@V?$allocator@G@2@@std@@@Z
  ?poll@DriveSimulator@nmacore@Microsoft@@MAEXXZ="C:\Windows\SysWOW64\MapRouter".?poll@DriveSimulator@nmacore@Microsoft@@MAEXXZ
  ?poll@Guidance@nmacore@Microsoft@@UAEXXZ="C:\Windows\SysWOW64\MapRouter".?poll@Guidance@nmacore@Microsoft@@UAEXXZ
  ?poll@RouterEngine@nmacore@Microsoft@@MAEXXZ="C:\Windows\SysWOW64\MapRouter".?poll@RouterEngine@nmacore@Microsoft@@MAEXXZ
  ?poll@TrafficEngine@nmacore@Microsoft@@UAEXXZ="C:\Windows\SysWOW64\MapRouter".?poll@TrafficEngine@nmacore@Microsoft@@UAEXXZ
  ?poll@TransitDatabase@ngeo@Microsoft@@QAE?AW4ErrorCode@errorcodes@msngeo@@XZ="C:\Windows\SysWOW64\MapRouter".?poll@TransitDatabase@ngeo@Microsoft@@QAE?AW4ErrorCode@errorcodes@msngeo@@XZ
  ?poll@TransitDatabase@nmacore@Microsoft@@EAEXXZ="C:\Windows\SysWOW64\MapRouter".?poll@TransitDatabase@nmacore@Microsoft@@EAEXXZ
  ?poll@TtsEngine@ngeo@Microsoft@@QAE?AW4ErrorCode@errorcodes@msngeo@@XZ="C:\Windows\SysWOW64\MapRouter".?poll@TtsEngine@ngeo@Microsoft@@QAE?AW4ErrorCode@errorcodes@msngeo@@XZ
  ?poll@TtsEngine@nmacore@Microsoft@@EAEXXZ="C:\Windows\SysWOW64\MapRouter".?poll@TtsEngine@nmacore@Microsoft@@EAEXXZ
  ?pollEngineNow@Poller@nmacore@Microsoft@@QAEXPAVBaseEngine@23@@Z="C:\Windows\SysWOW64\MapRouter".?pollEngineNow@Poller@nmacore@Microsoft@@QAEXPAVBaseEngine@23@@Z
  ?poll_guidance@Guidance@ngeo@Microsoft@@QAE?AW4ErrorCode@errorcodes@msngeo@@ABVMapMatchedLocation@23@@Z="C:\Windows\SysWOW64\MapRouter".?poll_guidance@Guidance@ngeo@Microsoft@@QAE?AW4ErrorCode@errorcodes@msngeo@@ABVMapMatchedLocation@23@@Z
  ?poll_guidance@SimpleGuidance@naviplayer@Microsoft@@QAE?AW4ErrorCode@errorcodes@msngeo@@ABVMapMatchedLocation@ngeo@3@@Z="C:\Windows\SysWOW64\MapRouter".?poll_guidance@SimpleGuidance@naviplayer@Microsoft@@QAE?AW4ErrorCode@errorcodes@msngeo@@ABVMapMatchedLocation@ngeo@3@@Z
  ?poll_routing@Router@ngeo@Microsoft@@QAE?AW4ErrorCode@errorcodes@msngeo@@XZ="C:\Windows\SysWOW64\MapRouter".?poll_routing@Router@ngeo@Microsoft@@QAE?AW4ErrorCode@errorcodes@msngeo@@XZ
  ?poll_source@LocationSource@ngeo@Microsoft@@QAE?AW4ErrorCode@errorcodes@msngeo@@XZ="C:\Windows\SysWOW64\MapRouter".?poll_source@LocationSource@ngeo@Microsoft@@QAE?AW4ErrorCode@errorcodes@msngeo@@XZ
  ?poll_traffic@Traffic@ngeo@Microsoft@@QAE?AW4ErrorCode@errorcodes@msngeo@@XZ="C:\Windows\SysWOW64\MapRouter".?poll_traffic@Traffic@ngeo@Microsoft@@QAE?AW4ErrorCode@errorcodes@msngeo@@XZ
  ?positionUpdated@MapMatcherProxy@nmacore@Microsoft@@MAEXW4TErrorCode@@ABVLocation@ngeo@3@@Z="C:\Windows\SysWOW64\MapRouter".?positionUpdated@MapMatcherProxy@nmacore@Microsoft@@MAEXW4TErrorCode@@ABVLocation@ngeo@3@@Z
  ?positioningStatusChanged@MapMatcherProxy@nmacore@Microsoft@@MAEXW4TPositioningStatus@23@@Z="C:\Windows\SysWOW64\MapRouter".?positioningStatusChanged@MapMatcherProxy@nmacore@Microsoft@@MAEXW4TPositioningStatus@23@@Z
  ?process_itinerary_warnings@Maneuver@ngeo@Microsoft@@QBEXAAVItineraryWarningVisitor@23@@Z="C:\Windows\SysWOW64\MapRouter".?process_itinerary_warnings@Maneuver@ngeo@Microsoft@@QBEXAAVItineraryWarningVisitor@23@@Z
  ?push_back@GeoPolyline@ngeo@Microsoft@@QAEXABV123@@Z="C:\Windows\SysWOW64\MapRouter".?push_back@GeoPolyline@ngeo@Microsoft@@QAEXABV123@@Z
  ?push_back@GeoPolyline@ngeo@Microsoft@@QAEXABVGeoCoordinates@23@@Z="C:\Windows\SysWOW64\MapRouter".?push_back@GeoPolyline@ngeo@Microsoft@@QAEXABVGeoCoordinates@23@@Z
  ?push_back@GeoPolyline@ngeo@Microsoft@@QAEXPBVGeoCoordinates@23@I@Z="C:\Windows\SysWOW64\MapRouter".?push_back@GeoPolyline@ngeo@Microsoft@@QAEXPBVGeoCoordinates@23@I@Z
  ?read@BufferInputStream@nmacore@Microsoft@@UAEIPAEI@Z="C:\Windows\SysWOW64\MapRouter".?read@BufferInputStream@nmacore@Microsoft@@UAEIPAEI@Z
  ?record@StatRepository@nmacore@Microsoft@@QAE_NVStatEventData@23@@Z="C:\Windows\SysWOW64\MapRouter".?record@StatRepository@nmacore@Microsoft@@QAE_NVStatEventData@23@@Z
  ?record_global@StatRepository@nmacore@Microsoft@@SG_NVStatEventData@23@@Z="C:\Windows\SysWOW64\MapRouter".?record_global@StatRepository@nmacore@Microsoft@@SG_NVStatEventData@23@@Z
  ?red@Color@ngeo@Microsoft@@SGABV123@XZ="C:\Windows\SysWOW64\MapRouter".?red@Color@ngeo@Microsoft@@SGABV123@XZ
  ?registerCompassObserver@Sensors@nmacore@Microsoft@@EAE_NPAVICompassObserver@23@@Z="C:\Windows\SysWOW64\MapRouter".?registerCompassObserver@Sensors@nmacore@Microsoft@@EAE_NPAVICompassObserver@23@@Z
  ?registerPositioningObserver@Sensors@nmacore@Microsoft@@EAE_NPAVIPositioningObserver@23@@Z="C:\Windows\SysWOW64\MapRouter".?registerPositioningObserver@Sensors@nmacore@Microsoft@@EAE_NPAVIPositioningObserver@23@@Z
  ?rejectPosition@MapMatcherProxy@nmacore@Microsoft@@AAE_NABVLocation@ngeo@3@@Z="C:\Windows\SysWOW64\MapRouter".?rejectPosition@MapMatcherProxy@nmacore@Microsoft@@AAE_NABVLocation@ngeo@3@@Z
  ?release@?$Pimpl@VGuidanceOptions@ngeo@Microsoft@@VGuidanceOptionsImpl@internal@23@@ngeo@Microsoft@@QAEXXZ="C:\Windows\SysWOW64\MapRouter".?release@?$Pimpl@VGuidanceOptions@ngeo@Microsoft@@VGuidanceOptionsImpl@internal@23@@ngeo@Microsoft@@QAEXXZ
  ?release@?$Pimpl@VLanguageKeyValuePair@ngeo@Microsoft@@VLanguageKeyValuePairImpl@internal@23@@ngeo@Microsoft@@QAEXXZ="C:\Windows\SysWOW64\MapRouter".?release@?$Pimpl@VLanguageKeyValuePair@ngeo@Microsoft@@VLanguageKeyValuePairImpl@internal@23@@ngeo@Microsoft@@QAEXXZ
  ?release@?$Pimpl@VLanguageMapping@ngeo@Microsoft@@VLanguageMappingImpl@internal@23@@ngeo@Microsoft@@QAEXXZ="C:\Windows\SysWOW64\MapRouter".?release@?$Pimpl@VLanguageMapping@ngeo@Microsoft@@VLanguageMappingImpl@internal@23@@ngeo@Microsoft@@QAEXXZ
  ?release@?$Pimpl@VLocationSource@ngeo@Microsoft@@VLocationSourceImpl@internal@23@@ngeo@Microsoft@@QAEXXZ="C:\Windows\SysWOW64\MapRouter".?release@?$Pimpl@VLocationSource@ngeo@Microsoft@@VLocationSourceImpl@internal@23@@ngeo@Microsoft@@QAEXXZ
  ?release@?$Pimpl@VManeuverVoiceInfo@ngeo@Microsoft@@VManeuverVoiceInfoImpl@internal@23@@ngeo@Microsoft@@QAEXXZ="C:\Windows\SysWOW64\MapRouter".?release@?$Pimpl@VManeuverVoiceInfo@ngeo@Microsoft@@VManeuverVoiceInfoImpl@internal@23@@ngeo@Microsoft@@QAEXXZ
  ?release@?$Pimpl@VMapMatcher@ngeo@Microsoft@@VMapMatcherImpl@internal@23@@ngeo@Microsoft@@QAEXXZ="C:\Windows\SysWOW64\MapRouter".?release@?$Pimpl@VMapMatcher@ngeo@Microsoft@@VMapMatcherImpl@internal@23@@ngeo@Microsoft@@QAEXXZ
  ?release@?$Pimpl@VMapMatcherOptions@ngeo@Microsoft@@VMapMatcherOptionsImpl@internal@23@@ngeo@Microsoft@@QAEXXZ="C:\Windows\SysWOW64\MapRouter".?release@?$Pimpl@VMapMatcherOptions@ngeo@Microsoft@@VMapMatcherOptionsImpl@internal@23@@ngeo@Microsoft@@QAEXXZ
  ?release@?$Pimpl@VNaturalGuidanceVoiceInfo@ngeo@Microsoft@@VNaturalGuidanceVoiceInfoImpl@internal@23@@ngeo@Microsoft@@QAEXXZ="C:\Windows\SysWOW64\MapRouter".?release@?$Pimpl@VNaturalGuidanceVoiceInfo@ngeo@Microsoft@@VNaturalGuidanceVoiceInfoImpl@internal@23@@ngeo@Microsoft@@QAEXXZ
  ?release@?$Pimpl@VPhonemeMapping@ngeo@Microsoft@@VPhonemeMappingImpl@internal@23@@ngeo@Microsoft@@QAEXXZ="C:\Windows\SysWOW64\MapRouter".?release@?$Pimpl@VPhonemeMapping@ngeo@Microsoft@@VPhonemeMappingImpl@internal@23@@ngeo@Microsoft@@QAEXXZ
  ?release@?$Pimpl@VSideOfDestinationVoiceInfo@ngeo@Microsoft@@VSideOfDestinationVoiceInfoImpl@internal@23@@ngeo@Microsoft@@QAEXXZ="C:\Windows\SysWOW64\MapRouter".?release@?$Pimpl@VSideOfDestinationVoiceInfo@ngeo@Microsoft@@VSideOfDestinationVoiceInfoImpl@internal@23@@ngeo@Microsoft@@QAEXXZ
  ?release@?$Pimpl@VSignpostLabelVoiceInfo@ngeo@Microsoft@@VSignpostLabelVoiceInfoImpl@internal@23@@ngeo@Microsoft@@QAEXXZ="C:\Windows\SysWOW64\MapRouter".?release@?$Pimpl@VSignpostLabelVoiceInfo@ngeo@Microsoft@@VSignpostLabelVoiceInfoImpl@internal@23@@ngeo@Microsoft@@QAEXXZ
  ?release@?$Pimpl@VSignpostVoiceInfo@ngeo@Microsoft@@VSignpostVoiceInfoImpl@internal@23@@ngeo@Microsoft@@QAEXXZ="C:\Windows\SysWOW64\MapRouter".?release@?$Pimpl@VSignpostVoiceInfo@ngeo@Microsoft@@VSignpostVoiceInfoImpl@internal@23@@ngeo@Microsoft@@QAEXXZ
  ?release@?$Pimpl@VStreetVoiceInfo@ngeo@Microsoft@@VStreetVoiceInfoImpl@internal@23@@ngeo@Microsoft@@QAEXXZ="C:\Windows\SysWOW64\MapRouter".?release@?$Pimpl@VStreetVoiceInfo@ngeo@Microsoft@@VStreetVoiceInfoImpl@internal@23@@ngeo@Microsoft@@QAEXXZ
  ?release@?$Pimpl@VVoiceCommandInfo@ngeo@Microsoft@@VVoiceCommandInfoImpl@internal@23@@ngeo@Microsoft@@QAEXXZ="C:\Windows\SysWOW64\MapRouter".?release@?$Pimpl@VVoiceCommandInfo@ngeo@Microsoft@@VVoiceCommandInfoImpl@internal@23@@ngeo@Microsoft@@QAEXXZ
  ?release@?$Pimpl@VVoiceSkin@ngeo@Microsoft@@VVoiceSkinImpl@internal@23@@ngeo@Microsoft@@QAEXXZ="C:\Windows\SysWOW64\MapRouter".?release@?$Pimpl@VVoiceSkin@ngeo@Microsoft@@VVoiceSkinImpl@internal@23@@ngeo@Microsoft@@QAEXXZ
  ?release@RefCountable@internal@ngeo@Microsoft@@QAEXXZ="C:\Windows\SysWOW64\MapRouter".?release@RefCountable@internal@ngeo@Microsoft@@QAEXXZ
  ?release@SharedMutex@ngeo@Microsoft@@AAEXXZ="C:\Windows\SysWOW64\MapRouter".?release@SharedMutex@ngeo@Microsoft@@AAEXXZ
  ?remove@GeoPolyline@ngeo@Microsoft@@QAEXI@Z="C:\Windows\SysWOW64\MapRouter".?remove@GeoPolyline@ngeo@Microsoft@@QAEXI@Z
  ?removeEngine@Poller@nmacore@Microsoft@@QAEXPAVBaseEngine@23@@Z="C:\Windows\SysWOW64\MapRouter".?removeEngine@Poller@nmacore@Microsoft@@QAEXPAVBaseEngine@23@@Z
  ?removeObserver@MapMatcherProxy@nmacore@Microsoft@@QAE_NPAVIMapMatcherProxyObserver@23@@Z="C:\Windows\SysWOW64\MapRouter".?removeObserver@MapMatcherProxy@nmacore@Microsoft@@QAE_NPAVIMapMatcherProxyObserver@23@@Z
  ?removeVisualizer@Guidance@nmacore@Microsoft@@QAEXPAVGuidanceVisualizer@23@@Z="C:\Windows\SysWOW64\MapRouter".?removeVisualizer@Guidance@nmacore@Microsoft@@QAEXPAVGuidanceVisualizer@23@@Z
  ?removeVisualizer@TrafficEngine@nmacore@Microsoft@@QAEXPAVTrafficVisualizer@23@@Z="C:\Windows\SysWOW64\MapRouter".?removeVisualizer@TrafficEngine@nmacore@Microsoft@@QAEXPAVTrafficVisualizer@23@@Z
  ?remove_all_areas@DynamicPenalty@ngeo@Microsoft@@QAEXXZ="C:\Windows\SysWOW64\MapRouter".?remove_all_areas@DynamicPenalty@ngeo@Microsoft@@QAEXXZ
  ?remove_all_points@GeoPolyline@ngeo@Microsoft@@QAEXXZ="C:\Windows\SysWOW64\MapRouter".?remove_all_points@GeoPolyline@ngeo@Microsoft@@QAEXXZ
  ?remove_all_road_elements@DynamicPenalty@ngeo@Microsoft@@QAEXXZ="C:\Windows\SysWOW64\MapRouter".?remove_all_road_elements@DynamicPenalty@ngeo@Microsoft@@QAEXXZ
  ?remove_area@DynamicPenalty@ngeo@Microsoft@@QAEXABVGeoPolygon@23@@Z="C:\Windows\SysWOW64\MapRouter".?remove_area@DynamicPenalty@ngeo@Microsoft@@QAEXABVGeoPolygon@23@@Z
  ?remove_head_to_mode@GuidanceOptions@ngeo@Microsoft@@QAEXW4HeadToFlags@123@@Z="C:\Windows\SysWOW64\MapRouter".?remove_head_to_mode@GuidanceOptions@ngeo@Microsoft@@QAEXW4HeadToFlags@123@@Z
  ?remove_listener@Guidance@ngeo@Microsoft@@QAEXPAVGuidanceListener@23@@Z="C:\Windows\SysWOW64\MapRouter".?remove_listener@Guidance@ngeo@Microsoft@@QAEXPAVGuidanceListener@23@@Z
  ?remove_listener@LocationSource@ngeo@Microsoft@@QAEXPAVLocationSourceListener@23@@Z="C:\Windows\SysWOW64\MapRouter".?remove_listener@LocationSource@ngeo@Microsoft@@QAEXPAVLocationSourceListener@23@@Z
  ?remove_listener@MapMatcher@ngeo@Microsoft@@QAEXPAVMapMatcherListener@23@@Z="C:\Windows\SysWOW64\MapRouter".?remove_listener@MapMatcher@ngeo@Microsoft@@QAEXPAVMapMatcherListener@23@@Z
  ?remove_listener@SimpleGuidance@naviplayer@Microsoft@@QAEXPAVSimpleGuidanceListener@23@@Z="C:\Windows\SysWOW64\MapRouter".?remove_listener@SimpleGuidance@naviplayer@Microsoft@@QAEXPAVSimpleGuidanceListener@23@@Z
  ?remove_listener@SpeedWarner@ngeo@Microsoft@@QAEXPAVSpeedWarnerListener@23@@Z="C:\Windows\SysWOW64\MapRouter".?remove_listener@SpeedWarner@ngeo@Microsoft@@QAEXPAVSpeedWarnerListener@23@@Z
  ?remove_listener@Traffic@ngeo@Microsoft@@QAEXPAVTrafficListener@23@@Z="C:\Windows\SysWOW64\MapRouter".?remove_listener@Traffic@ngeo@Microsoft@@QAEXPAVTrafficListener@23@@Z
  ?remove_listener@TrafficWarner@ngeo@Microsoft@@QAEXPAVTrafficWarnerListener@23@@Z="C:\Windows\SysWOW64\MapRouter".?remove_listener@TrafficWarner@ngeo@Microsoft@@QAEXPAVTrafficWarnerListener@23@@Z
  ?remove_listener@TtsEngine@ngeo@Microsoft@@QAEXPAVTtsListener@23@@Z="C:\Windows\SysWOW64\MapRouter".?remove_listener@TtsEngine@ngeo@Microsoft@@QAEXPAVTtsListener@23@@Z
  ?remove_listener@VoiceSkin@ngeo@Microsoft@@QAE?AW4ErrorCode@errorcodes@msngeo@@PAVVoiceSkinListener@23@@Z="C:\Windows\SysWOW64\MapRouter".?remove_listener@VoiceSkin@ngeo@Microsoft@@QAE?AW4ErrorCode@errorcodes@msngeo@@PAVVoiceSkinListener@23@@Z
  ?remove_road_element@DynamicPenalty@ngeo@Microsoft@@QAEXABVEdgeId@smart5@3@@Z="C:\Windows\SysWOW64\MapRouter".?remove_road_element@DynamicPenalty@ngeo@Microsoft@@QAEXABVEdgeId@smart5@3@@Z
  ?remove_stopover@RoutePlan@ngeo@Microsoft@@QAE?AW4ErrorCode@errorcodes@msngeo@@I@Z="C:\Windows\SysWOW64\MapRouter".?remove_stopover@RoutePlan@ngeo@Microsoft@@QAE?AW4ErrorCode@errorcodes@msngeo@@I@Z
  ?remove_waypoint@RoutePlan@ngeo@Microsoft@@QAE?AW4ErrorCode@errorcodes@msngeo@@I@Z="C:\Windows\SysWOW64\MapRouter".?remove_waypoint@RoutePlan@ngeo@Microsoft@@QAE?AW4ErrorCode@errorcodes@msngeo@@I@Z
  ?repeat@Guidance@nmacore@Microsoft@@QAEXXZ="C:\Windows\SysWOW64\MapRouter".?repeat@Guidance@nmacore@Microsoft@@QAEXXZ
  ?repeat_last_output@Guidance@ngeo@Microsoft@@QBE?AW4ErrorCode@errorcodes@msngeo@@AAVOutput@23@@Z="C:\Windows\SysWOW64\MapRouter".?repeat_last_output@Guidance@ngeo@Microsoft@@QBE?AW4ErrorCode@errorcodes@msngeo@@AAVOutput@23@@Z
  ?repeat_last_output@OutputEngine@ngeo@Microsoft@@QBE?AVOutput@23@XZ="C:\Windows\SysWOW64\MapRouter".?repeat_last_output@OutputEngine@ngeo@Microsoft@@QBE?AVOutput@23@XZ
  ?repeat_last_output@SimpleGuidance@naviplayer@Microsoft@@QBE?AVOutput@ngeo@3@XZ="C:\Windows\SysWOW64\MapRouter".?repeat_last_output@SimpleGuidance@naviplayer@Microsoft@@QBE?AVOutput@ngeo@3@XZ
  ?requestAccessInfo@TransitDatabase@nmacore@Microsoft@@QAE?AW4TErrorCode@@ABVEdgeId@smart5@3@AAVTransitAccessInfo@ngeo@3@@Z="C:\Windows\SysWOW64\MapRouter".?requestAccessInfo@TransitDatabase@nmacore@Microsoft@@QAE?AW4TErrorCode@@ABVEdgeId@smart5@3@AAVTransitAccessInfo@ngeo@3@@Z
  ?requestAccessInfo@TransitDatabase@nmacore@Microsoft@@QAE?AW4TErrorCode@@ABVEdgeId@smart5@3@AAVTransitAccessInfo@ngeo@3@AAVTransitDatabaseListener@23@@Z="C:\Windows\SysWOW64\MapRouter".?requestAccessInfo@TransitDatabase@nmacore@Microsoft@@QAE?AW4TErrorCode@@ABVEdgeId@smart5@3@AAVTransitAccessInfo@ngeo@3@AAVTransitDatabaseListener@23@@Z
  ?requestAccessInfoCompleted@TransitDatabaseListener@nmacore@Microsoft@@UAEXW4TErrorCode@@@Z="C:\Windows\SysWOW64\MapRouter".?requestAccessInfoCompleted@TransitDatabaseListener@nmacore@Microsoft@@UAEXW4TErrorCode@@@Z
  ?requestLineInfo@TransitDatabase@nmacore@Microsoft@@QAE?AW4TErrorCode@@ABVEdgeId@smart5@3@AAVTransitLineInfo@ngeo@3@@Z="C:\Windows\SysWOW64\MapRouter".?requestLineInfo@TransitDatabase@nmacore@Microsoft@@QAE?AW4TErrorCode@@ABVEdgeId@smart5@3@AAVTransitLineInfo@ngeo@3@@Z
  ?requestLineInfo@TransitDatabase@nmacore@Microsoft@@QAE?AW4TErrorCode@@ABVEdgeId@smart5@3@AAVTransitLineInfo@ngeo@3@AAVTransitDatabaseListener@23@@Z="C:\Windows\SysWOW64\MapRouter".?requestLineInfo@TransitDatabase@nmacore@Microsoft@@QAE?AW4TErrorCode@@ABVEdgeId@smart5@3@AAVTransitLineInfo@ngeo@3@AAVTransitDatabaseListener@23@@Z
  ?requestLineInfoCompleted@TransitDatabaseListener@nmacore@Microsoft@@UAEXW4TErrorCode@@@Z="C:\Windows\SysWOW64\MapRouter".?requestLineInfoCompleted@TransitDatabaseListener@nmacore@Microsoft@@UAEXW4TErrorCode@@@Z
  ?requestStopInfo@TransitDatabase@nmacore@Microsoft@@QAE?AW4TErrorCode@@ABVEdgeId@smart5@3@AAVTransitStopInfo@ngeo@3@@Z="C:\Windows\SysWOW64\MapRouter".?requestStopInfo@TransitDatabase@nmacore@Microsoft@@QAE?AW4TErrorCode@@ABVEdgeId@smart5@3@AAVTransitStopInfo@ngeo@3@@Z
  ?requestStopInfo@TransitDatabase@nmacore@Microsoft@@QAE?AW4TErrorCode@@ABVEdgeId@smart5@3@AAVTransitStopInfo@ngeo@3@AAVTransitDatabaseListener@23@@Z="C:\Windows\SysWOW64\MapRouter".?requestStopInfo@TransitDatabase@nmacore@Microsoft@@QAE?AW4TErrorCode@@ABVEdgeId@smart5@3@AAVTransitStopInfo@ngeo@3@AAVTransitDatabaseListener@23@@Z
  ?requestStopInfoCompleted@TransitDatabaseListener@nmacore@Microsoft@@UAEXW4TErrorCode@@@Z="C:\Windows\SysWOW64\MapRouter".?requestStopInfoCompleted@TransitDatabaseListener@nmacore@Microsoft@@UAEXW4TErrorCode@@@Z
  ?requestSystemInfo@TransitDatabase@nmacore@Microsoft@@QAE?AW4TErrorCode@@ABVEdgeId@smart5@3@AAVTransitSystemInfo@ngeo@3@@Z="C:\Windows\SysWOW64\MapRouter".?requestSystemInfo@TransitDatabase@nmacore@Microsoft@@QAE?AW4TErrorCode@@ABVEdgeId@smart5@3@AAVTransitSystemInfo@ngeo@3@@Z
  ?requestSystemInfo@TransitDatabase@nmacore@Microsoft@@QAE?AW4TErrorCode@@ABVEdgeId@smart5@3@AAVTransitSystemInfo@ngeo@3@AAVTransitDatabaseListener@23@@Z="C:\Windows\SysWOW64\MapRouter".?requestSystemInfo@TransitDatabase@nmacore@Microsoft@@QAE?AW4TErrorCode@@ABVEdgeId@smart5@3@AAVTransitSystemInfo@ngeo@3@AAVTransitDatabaseListener@23@@Z
  ?requestSystemInfoCompleted@TransitDatabaseListener@nmacore@Microsoft@@UAEXW4TErrorCode@@@Z="C:\Windows\SysWOW64\MapRouter".?requestSystemInfoCompleted@TransitDatabaseListener@nmacore@Microsoft@@UAEXW4TErrorCode@@@Z
  ?requestTrafficInfo@TrafficEngine@nmacore@Microsoft@@QAE_NABV?$vector@UVicinity@Traffic@ngeo@Microsoft@@V?$allocator@UVicinity@Traffic@ngeo@Microsoft@@@std@@@std@@@Z="C:\Windows\SysWOW64\MapRouter".?requestTrafficInfo@TrafficEngine@nmacore@Microsoft@@QAE_NABV?$vector@UVicinity@Traffic@ngeo@Microsoft@@V?$allocator@UVicinity@Traffic@ngeo@Microsoft@@@std@@@std@@@Z
  ?requestTrafficInfo@TrafficEngine@nmacore@Microsoft@@QAE_NABVGeoCoordinates@ngeo@3@I@Z="C:\Windows\SysWOW64\MapRouter".?requestTrafficInfo@TrafficEngine@nmacore@Microsoft@@QAE_NABVGeoCoordinates@ngeo@3@I@Z
  ?requestTrafficInfo@TrafficEngine@nmacore@Microsoft@@QAE_NABVRoute@ngeo@3@@Z="C:\Windows\SysWOW64\MapRouter".?requestTrafficInfo@TrafficEngine@nmacore@Microsoft@@QAE_NABVRoute@ngeo@3@@Z
  ?reserve@GeoPolyline@ngeo@Microsoft@@QAEXI@Z="C:\Windows\SysWOW64\MapRouter".?reserve@GeoPolyline@ngeo@Microsoft@@QAEXI@Z
  ?reset@PixelRect@ngeo@Microsoft@@QAEXMMMM@Z="C:\Windows\SysWOW64\MapRouter".?reset@PixelRect@ngeo@Microsoft@@QAEXMMMM@Z
  ?reset@SimpleGuidance@naviplayer@Microsoft@@QAEXXZ="C:\Windows\SysWOW64\MapRouter".?reset@SimpleGuidance@naviplayer@Microsoft@@QAEXXZ
  ?reset@TrafficEngine@nmacore@Microsoft@@QAEXXZ="C:\Windows\SysWOW64\MapRouter".?reset@TrafficEngine@nmacore@Microsoft@@QAEXXZ
  ?reset_time@DriveSimulator@ngeo@Microsoft@@QAEXXZ="C:\Windows\SysWOW64\MapRouter".?reset_time@DriveSimulator@ngeo@Microsoft@@QAEXXZ
  ?resume@Guidance@nmacore@Microsoft@@QAEXXZ="C:\Windows\SysWOW64\MapRouter".?resume@Guidance@nmacore@Microsoft@@QAEXXZ
  ?resume@Runtime@nmacore@Microsoft@@QAE?AW4TErrorCode@@XZ="C:\Windows\SysWOW64\MapRouter".?resume@Runtime@nmacore@Microsoft@@QAE?AW4TErrorCode@@XZ
  ?resume@Traffic@ngeo@Microsoft@@QAE?AW4ErrorCode@errorcodes@msngeo@@XZ="C:\Windows\SysWOW64\MapRouter".?resume@Traffic@ngeo@Microsoft@@QAE?AW4ErrorCode@errorcodes@msngeo@@XZ
  ?resumeAll@Poller@nmacore@Microsoft@@QAEXXZ="C:\Windows\SysWOW64\MapRouter".?resumeAll@Poller@nmacore@Microsoft@@QAEXXZ
  ?resumeEngine@BaseEngine@nmacore@Microsoft@@UAE_NXZ="C:\Windows\SysWOW64\MapRouter".?resumeEngine@BaseEngine@nmacore@Microsoft@@UAE_NXZ
  ?resumeEngine@RouterEngine@nmacore@Microsoft@@UAE_NXZ="C:\Windows\SysWOW64\MapRouter".?resumeEngine@RouterEngine@nmacore@Microsoft@@UAE_NXZ
  ?retrieve_and_clear_temporary_metrics@MetricsAccessor@ngeo@Microsoft@@QAE?AW4ErrorCode@errorcodes@msngeo@@XZ="C:\Windows\SysWOW64\MapRouter".?retrieve_and_clear_temporary_metrics@MetricsAccessor@ngeo@Microsoft@@QAE?AW4ErrorCode@errorcodes@msngeo@@XZ
  ?retrieve_permanent_metrics@MetricsAccessor@ngeo@Microsoft@@QAE?AW4ErrorCode@errorcodes@msngeo@@XZ="C:\Windows\SysWOW64\MapRouter".?retrieve_permanent_metrics@MetricsAccessor@ngeo@Microsoft@@QAE?AW4ErrorCode@errorcodes@msngeo@@XZ
  ?reverse@GeoPolyline@ngeo@Microsoft@@QAEXXZ="C:\Windows\SysWOW64\MapRouter".?reverse@GeoPolyline@ngeo@Microsoft@@QAEXXZ
  ?route@Route@nmacore@Microsoft@@QBEABV1ngeo@3@XZ="C:\Windows\SysWOW64\MapRouter".?route@Route@nmacore@Microsoft@@QBEABV1ngeo@3@XZ
  ?routeElements@Maneuver@nmacore@Microsoft@@QAEABVRouteElements@ngeo@3@XZ="C:\Windows\SysWOW64\MapRouter".?routeElements@Maneuver@nmacore@Microsoft@@QAEABVRouteElements@ngeo@3@XZ
  ?routeOptions@RouteOptions@nmacore@Microsoft@@QBEABV1ngeo@3@XZ="C:\Windows\SysWOW64\MapRouter".?routeOptions@RouteOptions@nmacore@Microsoft@@QBEABV1ngeo@3@XZ
  ?runningState@Guidance@nmacore@Microsoft@@QBE?AW4GuidanceState@123@XZ="C:\Windows\SysWOW64\MapRouter".?runningState@Guidance@nmacore@Microsoft@@QBE?AW4GuidanceState@123@XZ
  ?s_class_type_id@GeoPolygon@ngeo@Microsoft@@2HA="C:\Windows\SysWOW64\MapRouter".?s_class_type_id@GeoPolygon@ngeo@Microsoft@@2HA
  ?s_class_type_id@GeoPolyline@ngeo@Microsoft@@2HA="C:\Windows\SysWOW64\MapRouter".?s_class_type_id@GeoPolyline@ngeo@Microsoft@@2HA
  ?s_class_type_id@GeoRect@ngeo@Microsoft@@2HA="C:\Windows\SysWOW64\MapRouter".?s_class_type_id@GeoRect@ngeo@Microsoft@@2HA
  ?s_class_type_id@ProxyObject@ngeo@Microsoft@@2HA="C:\Windows\SysWOW64\MapRouter".?s_class_type_id@ProxyObject@ngeo@Microsoft@@2HA
  ?s_class_type_id@TrafficEventObject@ngeo@Microsoft@@2HA="C:\Windows\SysWOW64\MapRouter".?s_class_type_id@TrafficEventObject@ngeo@Microsoft@@2HA
  ?search@VoiceSkin@ngeo@Microsoft@@SG?AW4ErrorCode@errorcodes@msngeo@@ABV?$basic_string@GU?$char_traits@G@std@@V?$allocator@G@2@@std@@IAAV123@I@Z="C:\Windows\SysWOW64\MapRouter".?search@VoiceSkin@ngeo@Microsoft@@SG?AW4ErrorCode@errorcodes@msngeo@@ABV?$basic_string@GU?$char_traits@G@std@@V?$allocator@G@2@@std@@IAAV123@I@Z
  ?search@VoiceSkin@ngeo@Microsoft@@SGXABV?$basic_string@GU?$char_traits@G@std@@V?$allocator@G@2@@std@@AAV?$vector@VVoiceSkin@ngeo@Microsoft@@V?$allocator@VVoiceSkin@ngeo@Microsoft@@@std@@@5@I@Z="C:\Windows\SysWOW64\MapRouter".?search@VoiceSkin@ngeo@Microsoft@@SGXABV?$basic_string@GU?$char_traits@G@std@@V?$allocator@G@2@@std@@AAV?$vector@VVoiceSkin@ngeo@Microsoft@@V?$allocator@VVoiceSkin@ngeo@Microsoft@@@std@@@5@I@Z
  ?serialize@Maneuver@nmacore@Microsoft@@QAEIAAVIOutStream@msnma@@@Z="C:\Windows\SysWOW64\MapRouter".?serialize@Maneuver@nmacore@Microsoft@@QAEIAAVIOutStream@msnma@@@Z
  ?serialize@Route@nmacore@Microsoft@@UAEIAAVIOutStream@msnma@@@Z="C:\Windows\SysWOW64\MapRouter".?serialize@Route@nmacore@Microsoft@@UAEIAAVIOutStream@msnma@@@Z
  ?set@LocationInfo@ngeo@Microsoft@@QAEXW4Field@123@ABV?$basic_string@GU?$char_traits@G@std@@V?$allocator@G@2@@std@@@Z="C:\Windows\SysWOW64\MapRouter".?set@LocationInfo@ngeo@Microsoft@@QAEXW4Field@123@ABV?$basic_string@GU?$char_traits@G@std@@V?$allocator@G@2@@std@@@Z
  ?set@TimeInterval@ngeo@Microsoft@@QAEXABVTime@23@0@Z="C:\Windows\SysWOW64\MapRouter".?set@TimeInterval@ngeo@Microsoft@@QAEXABVTime@23@0@Z
  ?setAllowBoatFerries@RouteOptions@nmacore@Microsoft@@QAEX_N@Z="C:\Windows\SysWOW64\MapRouter".?setAllowBoatFerries@RouteOptions@nmacore@Microsoft@@QAEX_N@Z
  ?setAllowDirtRoads@RouteOptions@nmacore@Microsoft@@QAEX_N@Z="C:\Windows\SysWOW64\MapRouter".?setAllowDirtRoads@RouteOptions@nmacore@Microsoft@@QAEX_N@Z
  ?setAllowHighways@RouteOptions@nmacore@Microsoft@@QAEX_N@Z="C:\Windows\SysWOW64\MapRouter".?setAllowHighways@RouteOptions@nmacore@Microsoft@@QAEX_N@Z
  ?setAllowParks@RouteOptions@nmacore@Microsoft@@QAEX_N@Z="C:\Windows\SysWOW64\MapRouter".?setAllowParks@RouteOptions@nmacore@Microsoft@@QAEX_N@Z
  ?setAllowRailFerries@RouteOptions@nmacore@Microsoft@@QAEX_N@Z="C:\Windows\SysWOW64\MapRouter".?setAllowRailFerries@RouteOptions@nmacore@Microsoft@@QAEX_N@Z
  ?setAllowTollRoads@RouteOptions@nmacore@Microsoft@@QAEX_N@Z="C:\Windows\SysWOW64\MapRouter".?setAllowTollRoads@RouteOptions@nmacore@Microsoft@@QAEX_N@Z
  ?setAllowTunnels@RouteOptions@nmacore@Microsoft@@QAEX_N@Z="C:\Windows\SysWOW64\MapRouter".?setAllowTunnels@RouteOptions@nmacore@Microsoft@@QAEX_N@Z
  ?setAudioOutputEvents@Guidance@nmacore@Microsoft@@QAEXI@Z="C:\Windows\SysWOW64\MapRouter".?setAudioOutputEvents@Guidance@nmacore@Microsoft@@QAEXI@Z
  ?setAudioPlayer@Guidance@nmacore@Microsoft@@QAEXPAVIAudioPlayer@23@@Z="C:\Windows\SysWOW64\MapRouter".?setAudioPlayer@Guidance@nmacore@Microsoft@@QAEXPAVIAudioPlayer@23@@Z
  ?setAudioPlayer@TtsEngine@nmacore@Microsoft@@UAEXPAVIAudioPlayer@23@@Z="C:\Windows\SysWOW64\MapRouter".?setAudioPlayer@TtsEngine@nmacore@Microsoft@@UAEXPAVIAudioPlayer@23@@Z
  ?setBingMapsKey@RouterEngine@nmacore@Microsoft@@SGXABV?$basic_string@GU?$char_traits@G@std@@V?$allocator@G@2@@std@@@Z="C:\Windows\SysWOW64\MapRouter".?setBingMapsKey@RouterEngine@nmacore@Microsoft@@SGXABV?$basic_string@GU?$char_traits@G@std@@V?$allocator@G@2@@std@@@Z
  ?setCompassEnabled@Sensors@nmacore@Microsoft@@EAEX_N@Z="C:\Windows\SysWOW64\MapRouter".?setCompassEnabled@Sensors@nmacore@Microsoft@@EAEX_N@Z
  ?setConnectionType@MapSensor@nmacore@Microsoft@@QAEXW4NetworkMode@1ngeo@3@@Z="C:\Windows\SysWOW64\MapRouter".?setConnectionType@MapSensor@nmacore@Microsoft@@QAEXW4NetworkMode@1ngeo@3@@Z
  ?setDataPath@MapSensor@nmacore@Microsoft@@QAEXABV?$basic_string@GU?$char_traits@G@std@@V?$allocator@G@2@@std@@@Z="C:\Windows\SysWOW64\MapRouter".?setDataPath@MapSensor@nmacore@Microsoft@@QAEXABV?$basic_string@GU?$char_traits@G@std@@V?$allocator@G@2@@std@@@Z
  ?setDistanceUnit@Guidance@nmacore@Microsoft@@QAEXI@Z="C:\Windows\SysWOW64\MapRouter".?setDistanceUnit@Guidance@nmacore@Microsoft@@QAEXI@Z
  ?setEnabled@MapSensor@nmacore@Microsoft@@QAEX_N@Z="C:\Windows\SysWOW64\MapRouter".?setEnabled@MapSensor@nmacore@Microsoft@@QAEX_N@Z
  ?setFallbackMode@RouterEngine@nmacore@Microsoft@@QAEXW4TFallbackMode@123@@Z="C:\Windows\SysWOW64\MapRouter".?setFallbackMode@RouterEngine@nmacore@Microsoft@@QAEXW4TFallbackMode@123@@Z
  ?setForceOnline@RouterEngine@nmacore@Microsoft@@QAEX_N@Z="C:\Windows\SysWOW64\MapRouter".?setForceOnline@RouterEngine@nmacore@Microsoft@@QAEX_N@Z
  ?setLanguage@RouteOptions@nmacore@Microsoft@@QAEXABV?$basic_string@GU?$char_traits@G@std@@V?$allocator@G@2@@std@@@Z="C:\Windows\SysWOW64\MapRouter".?setLanguage@RouteOptions@nmacore@Microsoft@@QAEXABV?$basic_string@GU?$char_traits@G@std@@V?$allocator@G@2@@std@@@Z
  ?setListener@Guidance@nmacore@Microsoft@@QAEXPAVIGuidanceListener@23@@Z="C:\Windows\SysWOW64\MapRouter".?setListener@Guidance@nmacore@Microsoft@@QAEXPAVIGuidanceListener@23@@Z
  ?setListener@RouterEngine@nmacore@Microsoft@@QAEXPAVIRouterEngineListener@23@@Z="C:\Windows\SysWOW64\MapRouter".?setListener@RouterEngine@nmacore@Microsoft@@QAEXPAVIRouterEngineListener@23@@Z
  ?setListener@TrafficEngine@nmacore@Microsoft@@QAEXPAVITrafficListener@23@@Z="C:\Windows\SysWOW64\MapRouter".?setListener@TrafficEngine@nmacore@Microsoft@@QAEXPAVITrafficListener@23@@Z
  ?setMatchMode@MapMatcherProxy@nmacore@Microsoft@@QAEXW4MatchMode@MapMatcher@ngeo@3@@Z="C:\Windows\SysWOW64\MapRouter".?setMatchMode@MapMatcherProxy@nmacore@Microsoft@@QAEXW4MatchMode@MapMatcher@ngeo@3@@Z
  ?setNaturalGuidance@Guidance@nmacore@Microsoft@@QAE_NI@Z="C:\Windows\SysWOW64\MapRouter".?setNaturalGuidance@Guidance@nmacore@Microsoft@@QAE_NI@Z
  ?setNavigationAudioEnabled@Guidance@nmacore@Microsoft@@QAEX_N@Z="C:\Windows\SysWOW64\MapRouter".?setNavigationAudioEnabled@Guidance@nmacore@Microsoft@@QAEX_N@Z
  ?setOutputLatency@Guidance@nmacore@Microsoft@@QAEXH@Z="C:\Windows\SysWOW64\MapRouter".?setOutputLatency@Guidance@nmacore@Microsoft@@QAEXH@Z
  ?setPollInterval@Guidance@nmacore@Microsoft@@QAEXH@Z="C:\Windows\SysWOW64\MapRouter".?setPollInterval@Guidance@nmacore@Microsoft@@QAEXH@Z
  ?setPositioningEnabled@Sensors@nmacore@Microsoft@@EAEX_N@Z="C:\Windows\SysWOW64\MapRouter".?setPositioningEnabled@Sensors@nmacore@Microsoft@@EAEX_N@Z
  ?setPositioningInterval@Sensors@nmacore@Microsoft@@EAEXH@Z="C:\Windows\SysWOW64\MapRouter".?setPositioningInterval@Sensors@nmacore@Microsoft@@EAEXH@Z
  ?setRouteAlternativesCount@RouteOptions@nmacore@Microsoft@@QAEXI@Z="C:\Windows\SysWOW64\MapRouter".?setRouteAlternativesCount@RouteOptions@nmacore@Microsoft@@QAEXI@Z
  ?setRouteDepartureTime@RouteOptions@nmacore@Microsoft@@QAEX_J@Z="C:\Windows\SysWOW64\MapRouter".?setRouteDepartureTime@RouteOptions@nmacore@Microsoft@@QAEX_J@Z
  ?setRouteMode@RouteOptions@nmacore@Microsoft@@QAEXW4TRouteMode@123@@Z="C:\Windows\SysWOW64\MapRouter".?setRouteMode@RouteOptions@nmacore@Microsoft@@QAEXW4TRouteMode@123@@Z
  ?setRouteRequestIntrevalSec@Guidance@nmacore@Microsoft@@QAEXI@Z="C:\Windows\SysWOW64\MapRouter".?setRouteRequestIntrevalSec@Guidance@nmacore@Microsoft@@QAEXI@Z
  ?setRouteType@RouteOptions@nmacore@Microsoft@@QAEXW4TRouteType@123@@Z="C:\Windows\SysWOW64\MapRouter".?setRouteType@RouteOptions@nmacore@Microsoft@@QAEXW4TRouteType@123@@Z
  ?setRoutingTimeoutSeconds@RouterEngine@nmacore@Microsoft@@QAEXUTimeSpan@Core@@@Z="C:\Windows\SysWOW64\MapRouter".?setRoutingTimeoutSeconds@RouterEngine@nmacore@Microsoft@@QAEXUTimeSpan@Core@@@Z
  ?setSensorsControl@Sensors@nmacore@Microsoft@@QAEXPAVISensorsControl@23@@Z="C:\Windows\SysWOW64\MapRouter".?setSensorsControl@Sensors@nmacore@Microsoft@@QAEXPAVISensorsControl@23@@Z
  ?setSpeed@DriveSimulator@nmacore@Microsoft@@QAEXN@Z="C:\Windows\SysWOW64\MapRouter".?setSpeed@DriveSimulator@nmacore@Microsoft@@QAEXN@Z
  ?setSpeedTrigger@MapSensor@nmacore@Microsoft@@QAEXN@Z="C:\Windows\SysWOW64\MapRouter".?setSpeedTrigger@MapSensor@nmacore@Microsoft@@QAEXN@Z
  ?setSpeedWarnerOptions@Guidance@nmacore@Microsoft@@QAEXMMM@Z="C:\Windows\SysWOW64\MapRouter".?setSpeedWarnerOptions@Guidance@nmacore@Microsoft@@QAEXMMM@Z
  ?setStartDirection@RouteOptions@nmacore@Microsoft@@QAEXI@Z="C:\Windows\SysWOW64\MapRouter".?setStartDirection@RouteOptions@nmacore@Microsoft@@QAEXI@Z
  ?setStatus@TrafficEngine@nmacore@Microsoft@@AAEXW4RequestStatus@123@@Z="C:\Windows\SysWOW64\MapRouter".?setStatus@TrafficEngine@nmacore@Microsoft@@AAEXW4RequestStatus@123@@Z
  ?setTimerSource@Poller@nmacore@Microsoft@@QAEXABV?$shared_ptr@VITimerSource@msnma@@@std@@@Z="C:\Windows\SysWOW64\MapRouter".?setTimerSource@Poller@nmacore@Microsoft@@QAEXABV?$shared_ptr@VITimerSource@msnma@@@std@@@Z
  ?setTimerSource@Runtime@nmacore@Microsoft@@QAEXABV?$shared_ptr@VITimerSource@msnma@@@std@@@Z="C:\Windows\SysWOW64\MapRouter".?setTimerSource@Runtime@nmacore@Microsoft@@QAEXABV?$shared_ptr@VITimerSource@msnma@@@std@@@Z
  ?setTrafficAvoidanceMode@Guidance@nmacore@Microsoft@@QAEXW4TrafficAvoidanceMode@SimpleGuidanceOptions@naviplayer@3@@Z="C:\Windows\SysWOW64\MapRouter".?setTrafficAvoidanceMode@Guidance@nmacore@Microsoft@@QAEXW4TrafficAvoidanceMode@SimpleGuidanceOptions@naviplayer@3@@Z
  ?setTransitMaximumChanges@RouteOptions@nmacore@Microsoft@@QAEXI@Z="C:\Windows\SysWOW64\MapRouter".?setTransitMaximumChanges@RouteOptions@nmacore@Microsoft@@QAEXI@Z
  ?setTransitMinimumChangeTime@RouteOptions@nmacore@Microsoft@@QAEXI@Z="C:\Windows\SysWOW64\MapRouter".?setTransitMinimumChangeTime@RouteOptions@nmacore@Microsoft@@QAEXI@Z
  ?setTransitOption@RouteOptions@nmacore@Microsoft@@QAEXW4TransitOption@123@_N@Z="C:\Windows\SysWOW64\MapRouter".?setTransitOption@RouteOptions@nmacore@Microsoft@@QAEXW4TransitOption@123@_N@Z
  ?setTransitTypeAllowed@RouteOptions@nmacore@Microsoft@@QAEXW4TransitType@123@_N@Z="C:\Windows\SysWOW64\MapRouter".?setTransitTypeAllowed@RouteOptions@nmacore@Microsoft@@QAEXW4TransitType@123@_N@Z
  ?setTransitWalkTimeMultiplier@RouteOptions@nmacore@Microsoft@@QAEXN@Z="C:\Windows\SysWOW64\MapRouter".?setTransitWalkTimeMultiplier@RouteOptions@nmacore@Microsoft@@QAEXN@Z
  ?setTtsEngine@Guidance@nmacore@Microsoft@@QAEXPAVITtsEngine@23@@Z="C:\Windows\SysWOW64\MapRouter".?setTtsEngine@Guidance@nmacore@Microsoft@@QAEXPAVITtsEngine@23@@Z
  ?setUploadFrequency@MapSensor@nmacore@Microsoft@@QAEXG@Z="C:\Windows\SysWOW64\MapRouter".?setUploadFrequency@MapSensor@nmacore@Microsoft@@QAEXG@Z
  ?setUseInternalEngine@TrafficEngine@nmacore@Microsoft@@QAEX_N@Z="C:\Windows\SysWOW64\MapRouter".?setUseInternalEngine@TrafficEngine@nmacore@Microsoft@@QAEX_N@Z
  ?setUseTraffic@RouterEngine@nmacore@Microsoft@@QAEX_N@Z="C:\Windows\SysWOW64\MapRouter".?setUseTraffic@RouterEngine@nmacore@Microsoft@@QAEX_N@Z
  ?setVoiceSettings@Guidance@nmacore@Microsoft@@QAEXABV?$map@V?$basic_string@GU?$char_traits@G@std@@V?$allocator@G@2@@std@@V12@U?$less@V?$basic_string@GU?$char_traits@G@std@@V?$allocator@G@2@@std@@@2@V?$allocator@U?$pair@$$CBV?$basic_string@GU?$char_traits@G@std@@V?$allocator@G@2@@std@@V12@@std@@@2@@std@@@Z="C:\Windows\SysWOW64\MapRouter".?setVoiceSettings@Guidance@nmacore@Microsoft@@QAEXABV?$map@V?$basic_string@GU?$char_traits@G@std@@V?$allocator@G@2@@std@@V12@U?$less@V?$basic_string@GU?$char_traits@G@std@@V?$allocator@G@2@@std@@@2@V?$allocator@U?$pair@$$CBV?$basic_string@GU?$char_traits@G@std@@V?$allocator@G@2@@std@@V12@@std@@@2@@std@@@Z
  ?setVoiceSkin@TtsEngine@nmacore@Microsoft@@UAEXABVVoiceSkin@ngeo@3@W4Gender@153@@Z="C:\Windows\SysWOW64\MapRouter".?setVoiceSkin@TtsEngine@nmacore@Microsoft@@UAEXABVVoiceSkin@ngeo@3@W4Gender@153@@Z
  ?setVoiceSkinId@Guidance@nmacore@Microsoft@@QAEXIABV?$basic_string@GU?$char_traits@G@std@@V?$allocator@G@2@@std@@@Z="C:\Windows\SysWOW64\MapRouter".?setVoiceSkinId@Guidance@nmacore@Microsoft@@QAEXIABV?$basic_string@GU?$char_traits@G@std@@V?$allocator@G@2@@std@@@Z
  ?set_allow_carpool@RouteOptions@ngeo@Microsoft@@QAEX_N@Z="C:\Windows\SysWOW64\MapRouter".?set_allow_carpool@RouteOptions@ngeo@Microsoft@@QAEX_N@Z
  ?set_altitude@GeoCoordinates@ngeo@Microsoft@@QAEXM@Z="C:\Windows\SysWOW64\MapRouter".?set_altitude@GeoCoordinates@ngeo@Microsoft@@QAEXM@Z
  ?set_anti_aliasing_quality_hint@RenderBuffer@ngeo@Microsoft@@QAEXW4AntiAliasingQualityHint@123@@Z="C:\Windows\SysWOW64\MapRouter".?set_anti_aliasing_quality_hint@RenderBuffer@ngeo@Microsoft@@QAEXW4AntiAliasingQualityHint@123@@Z
  ?set_bbox@Location@ngeo@Microsoft@@QAEXABVGeoRect@23@@Z="C:\Windows\SysWOW64\MapRouter".?set_bbox@Location@ngeo@Microsoft@@QAEXABVGeoRect@23@@Z
  ?set_buffer@Icon@ngeo@Microsoft@@QAE?AW4ErrorCode@errorcodes@msngeo@@PBXI@Z="C:\Windows\SysWOW64\MapRouter".?set_buffer@Icon@ngeo@Microsoft@@QAE?AW4ErrorCode@errorcodes@msngeo@@PBXI@Z
  ?set_build@Version@ngeo@Microsoft@@QAEXI@Z="C:\Windows\SysWOW64\MapRouter".?set_build@Version@ngeo@Microsoft@@QAEXI@Z
  ?set_clip_area@RenderBuffer@ngeo@Microsoft@@QAEXABVPixelRect@23@@Z="C:\Windows\SysWOW64\MapRouter".?set_clip_area@RenderBuffer@ngeo@Microsoft@@QAEXABVPixelRect@23@@Z
  ?set_coordinates@Location@ngeo@Microsoft@@QAEXABVGeoCoordinates@23@@Z="C:\Windows\SysWOW64\MapRouter".?set_coordinates@Location@ngeo@Microsoft@@QAEXABVGeoCoordinates@23@@Z
  ?set_course_degrees@Location@ngeo@Microsoft@@QAEXN@Z="C:\Windows\SysWOW64\MapRouter".?set_course_degrees@Location@ngeo@Microsoft@@QAEXN@Z
  ?set_date@Date@ngeo@Microsoft@@QAEXFEE@Z="C:\Windows\SysWOW64\MapRouter".?set_date@Date@ngeo@Microsoft@@QAEXFEE@Z
  ?set_date@DateTime@ngeo@Microsoft@@QAEXABVDate@23@@Z="C:\Windows\SysWOW64\MapRouter".?set_date@DateTime@ngeo@Microsoft@@QAEXABVDate@23@@Z
  ?set_day@Date@ngeo@Microsoft@@QAEXE@Z="C:\Windows\SysWOW64\MapRouter".?set_day@Date@ngeo@Microsoft@@QAEXE@Z
  ?set_description@RouteWaypoint@ngeo@Microsoft@@QAEXV?$basic_string@GU?$char_traits@G@std@@V?$allocator@G@2@@std@@@Z="C:\Windows\SysWOW64\MapRouter".?set_description@RouteWaypoint@ngeo@Microsoft@@QAEXV?$basic_string@GU?$char_traits@G@std@@V?$allocator@G@2@@std@@@Z
  ?set_direction@RoadElementPenalty@DynamicPenalty@ngeo@Microsoft@@QAEXW4DrivingDirection@34@@Z="C:\Windows\SysWOW64\MapRouter".?set_direction@RoadElementPenalty@DynamicPenalty@ngeo@Microsoft@@QAEXW4DrivingDirection@34@@Z
  ?set_end_time@TimeInterval@ngeo@Microsoft@@QAEXABVTime@23@@Z="C:\Windows\SysWOW64\MapRouter".?set_end_time@TimeInterval@ngeo@Microsoft@@QAEXABVTime@23@@Z
  ?set_feature@Version@ngeo@Microsoft@@QAEXI@Z="C:\Windows\SysWOW64\MapRouter".?set_feature@Version@ngeo@Microsoft@@QAEXI@Z
  ?set_feature_weight@RouteOptions@ngeo@Microsoft@@QAEXW4FeatureType@123@W4FeatureWeight@123@@Z="C:\Windows\SysWOW64\MapRouter".?set_feature_weight@RouteOptions@ngeo@Microsoft@@QAEXW4FeatureType@123@W4FeatureWeight@123@@Z
  ?set_gridLoader@MapModel@ngeo@Microsoft@@QAEXABV?$PresentSharedPtr@$$CBVRoutingGridLoader@smart5@Microsoft@@@Core@@@Z="C:\Windows\SysWOW64\MapRouter".?set_gridLoader@MapModel@ngeo@Microsoft@@QAEXABV?$PresentSharedPtr@$$CBVRoutingGridLoader@smart5@Microsoft@@@Core@@@Z
  ?set_guidance_options@SimpleGuidance@naviplayer@Microsoft@@QAE?AW4ErrorCode@errorcodes@msngeo@@VGuidanceOptions@ngeo@3@@Z="C:\Windows\SysWOW64\MapRouter".?set_guidance_options@SimpleGuidance@naviplayer@Microsoft@@QAE?AW4ErrorCode@errorcodes@msngeo@@VGuidanceOptions@ngeo@3@@Z
  ?set_head_to_mode@GuidanceOptions@ngeo@Microsoft@@QAEXI@Z="C:\Windows\SysWOW64\MapRouter".?set_head_to_mode@GuidanceOptions@ngeo@Microsoft@@QAEXI@Z
  ?set_height@SizeInPixels@ngeo@Microsoft@@QAEXM@Z="C:\Windows\SysWOW64\MapRouter".?set_height@SizeInPixels@ngeo@Microsoft@@QAEXM@Z
  ?set_high_speed_boundary_m_s@SpeedWarnerOptions@ngeo@Microsoft@@QAEXM@Z="C:\Windows\SysWOW64\MapRouter".?set_high_speed_boundary_m_s@SpeedWarnerOptions@ngeo@Microsoft@@QAEXM@Z
  ?set_high_speed_offset_m_s@SpeedWarnerOptions@ngeo@Microsoft@@QAEXM@Z="C:\Windows\SysWOW64\MapRouter".?set_high_speed_offset_m_s@SpeedWarnerOptions@ngeo@Microsoft@@QAEXM@Z
  ?set_hour@Time@ngeo@Microsoft@@QAEXE@Z="C:\Windows\SysWOW64\MapRouter".?set_hour@Time@ngeo@Microsoft@@QAEXE@Z
  ?set_id@RoadElementPenalty@DynamicPenalty@ngeo@Microsoft@@QAEXABVEdgeId@smart5@4@@Z="C:\Windows\SysWOW64\MapRouter".?set_id@RoadElementPenalty@DynamicPenalty@ngeo@Microsoft@@QAEXABVEdgeId@smart5@4@@Z
  ?set_impl@?$Pimpl@VLocationSource@ngeo@Microsoft@@VLocationSourceImpl@internal@23@@ngeo@Microsoft@@IAEXPAVLocationSourceImpl@internal@23@@Z="C:\Windows\SysWOW64\MapRouter".?set_impl@?$Pimpl@VLocationSource@ngeo@Microsoft@@VLocationSourceImpl@internal@23@@ngeo@Microsoft@@IAEXPAVLocationSourceImpl@internal@23@@Z
  ?set_info@Location@ngeo@Microsoft@@QAEXABVLocationInfo@23@@Z="C:\Windows\SysWOW64\MapRouter".?set_info@Location@ngeo@Microsoft@@QAEXABVLocationInfo@23@@Z
  ?set_language@MapMatcher@ngeo@Microsoft@@QAEXABV?$basic_string@GU?$char_traits@G@std@@V?$allocator@G@2@@std@@@Z="C:\Windows\SysWOW64\MapRouter".?set_language@MapMatcher@ngeo@Microsoft@@QAEXABV?$basic_string@GU?$char_traits@G@std@@V?$allocator@G@2@@std@@@Z
  ?set_language@RouteOptions@ngeo@Microsoft@@QAEXABV?$basic_string@GU?$char_traits@G@std@@V?$allocator@G@2@@std@@@Z="C:\Windows\SysWOW64\MapRouter".?set_language@RouteOptions@ngeo@Microsoft@@QAEXABV?$basic_string@GU?$char_traits@G@std@@V?$allocator@G@2@@std@@@Z
  ?set_latitude@GeoCoordinates@ngeo@Microsoft@@QAEXN@Z="C:\Windows\SysWOW64\MapRouter".?set_latitude@GeoCoordinates@ngeo@Microsoft@@QAEXN@Z
  ?set_location_method@Location@ngeo@Microsoft@@QAEXW4LocationMethod@123@@Z="C:\Windows\SysWOW64\MapRouter".?set_location_method@Location@ngeo@Microsoft@@QAEXW4LocationMethod@123@@Z
  ?set_longitude@GeoCoordinates@ngeo@Microsoft@@QAEXN@Z="C:\Windows\SysWOW64\MapRouter".?set_longitude@GeoCoordinates@ngeo@Microsoft@@QAEXN@Z
  ?set_low_speed_offset_m_s@SpeedWarnerOptions@ngeo@Microsoft@@QAEXM@Z="C:\Windows\SysWOW64\MapRouter".?set_low_speed_offset_m_s@SpeedWarnerOptions@ngeo@Microsoft@@QAEXM@Z
  ?set_major@Version@ngeo@Microsoft@@QAEXI@Z="C:\Windows\SysWOW64\MapRouter".?set_major@Version@ngeo@Microsoft@@QAEXI@Z
  ?set_maneuvers_enabled@RouteOptions@ngeo@Microsoft@@QAEX_N@Z="C:\Windows\SysWOW64\MapRouter".?set_maneuvers_enabled@RouteOptions@ngeo@Microsoft@@QAEX_N@Z
  ?set_match_mode@MapMatcher@ngeo@Microsoft@@QAEXW4MatchMode@123@@Z="C:\Windows\SysWOW64\MapRouter".?set_match_mode@MapMatcher@ngeo@Microsoft@@QAEXW4MatchMode@123@@Z
  ?set_maximum_changes@TransitRouteOptions@ngeo@Microsoft@@QAEXI@Z="C:\Windows\SysWOW64\MapRouter".?set_maximum_changes@TransitRouteOptions@ngeo@Microsoft@@QAEXI@Z
  ?set_millisecond@Time@ngeo@Microsoft@@QAEXG@Z="C:\Windows\SysWOW64\MapRouter".?set_millisecond@Time@ngeo@Microsoft@@QAEXG@Z
  ?set_minimum_change_time@TransitRouteOptions@ngeo@Microsoft@@QAEXI@Z="C:\Windows\SysWOW64\MapRouter".?set_minimum_change_time@TransitRouteOptions@ngeo@Microsoft@@QAEXI@Z
  ?set_minimum_distance_before_first_turn@RouteOptions@ngeo@Microsoft@@QAEXI@Z="C:\Windows\SysWOW64\MapRouter".?set_minimum_distance_before_first_turn@RouteOptions@ngeo@Microsoft@@QAEXI@Z
  ?set_minor@Version@ngeo@Microsoft@@QAEXI@Z="C:\Windows\SysWOW64\MapRouter".?set_minor@Version@ngeo@Microsoft@@QAEXI@Z
  ?set_minute@Time@ngeo@Microsoft@@QAEXE@Z="C:\Windows\SysWOW64\MapRouter".?set_minute@Time@ngeo@Microsoft@@QAEXE@Z
  ?set_month@Date@ngeo@Microsoft@@QAEXE@Z="C:\Windows\SysWOW64\MapRouter".?set_month@Date@ngeo@Microsoft@@QAEXE@Z
  ?set_name_hint@RouteWaypoint@ngeo@Microsoft@@QAEXABV?$basic_string@GU?$char_traits@G@std@@V?$allocator@G@2@@std@@@Z="C:\Windows\SysWOW64\MapRouter".?set_name_hint@RouteWaypoint@ngeo@Microsoft@@QAEXABV?$basic_string@GU?$char_traits@G@std@@V?$allocator@G@2@@std@@@Z
  ?set_natural_guidance_mode@Guidance@ngeo@Microsoft@@QAE?AW4ErrorCode@errorcodes@msngeo@@I@Z="C:\Windows\SysWOW64\MapRouter".?set_natural_guidance_mode@Guidance@ngeo@Microsoft@@QAE?AW4ErrorCode@errorcodes@msngeo@@I@Z
  ?set_natural_guidance_mode@SimpleGuidance@naviplayer@Microsoft@@QAE?AW4ErrorCode@errorcodes@msngeo@@I@Z="C:\Windows\SysWOW64\MapRouter".?set_natural_guidance_mode@SimpleGuidance@naviplayer@Microsoft@@QAE?AW4ErrorCode@errorcodes@msngeo@@I@Z
  ?set_natural_guidance_mode@SimpleGuidanceOptions@naviplayer@Microsoft@@QAEXI@Z="C:\Windows\SysWOW64\MapRouter".?set_natural_guidance_mode@SimpleGuidanceOptions@naviplayer@Microsoft@@QAEXI@Z
  ?set_network_mode@MapSensor@ngeo@Microsoft@@QAEXW4NetworkMode@123@@Z="C:\Windows\SysWOW64\MapRouter".?set_network_mode@MapSensor@ngeo@Microsoft@@QAEXW4NetworkMode@123@@Z
  ?set_online@MapModel@ngeo@Microsoft@@QAE?AW4ErrorCode@errorcodes@msngeo@@_N@Z="C:\Windows\SysWOW64\MapRouter".?set_online@MapModel@ngeo@Microsoft@@QAE?AW4ErrorCode@errorcodes@msngeo@@_N@Z
  ?set_online_response@RouteOptions@ngeo@Microsoft@@QAEXABV?$basic_string@GU?$char_traits@G@std@@V?$allocator@G@2@@std@@@Z="C:\Windows\SysWOW64\MapRouter".?set_online_response@RouteOptions@ngeo@Microsoft@@QAEXABV?$basic_string@GU?$char_traits@G@std@@V?$allocator@G@2@@std@@@Z
  ?set_option@TransitRouteOptions@ngeo@Microsoft@@QAEXW4Option@123@_N@Z="C:\Windows\SysWOW64\MapRouter".?set_option@TransitRouteOptions@ngeo@Microsoft@@QAEXW4Option@123@_N@Z
  ?set_options@Guidance@ngeo@Microsoft@@QAE?AW4ErrorCode@errorcodes@msngeo@@ABVGuidanceOptions@23@@Z="C:\Windows\SysWOW64\MapRouter".?set_options@Guidance@ngeo@Microsoft@@QAE?AW4ErrorCode@errorcodes@msngeo@@ABVGuidanceOptions@23@@Z
  ?set_options@SpeedWarner@ngeo@Microsoft@@QAE?AW4ErrorCode@errorcodes@msngeo@@ABVSpeedWarnerOptions@23@@Z="C:\Windows\SysWOW64\MapRouter".?set_options@SpeedWarner@ngeo@Microsoft@@QAE?AW4ErrorCode@errorcodes@msngeo@@ABVSpeedWarnerOptions@23@@Z
  ?set_original_position@RouteWaypoint@ngeo@Microsoft@@QAEXABVGeoCoordinates@23@@Z="C:\Windows\SysWOW64\MapRouter".?set_original_position@RouteWaypoint@ngeo@Microsoft@@QAEXABVGeoCoordinates@23@@Z
  ?set_output_engine@Guidance@ngeo@Microsoft@@QAE?AW4ErrorCode@errorcodes@msngeo@@VOutputEngine@23@@Z="C:\Windows\SysWOW64\MapRouter".?set_output_engine@Guidance@ngeo@Microsoft@@QAE?AW4ErrorCode@errorcodes@msngeo@@VOutputEngine@23@@Z
  ?set_output_engine@SpeedWarner@ngeo@Microsoft@@QAE?AW4ErrorCode@errorcodes@msngeo@@VOutputEngine@23@@Z="C:\Windows\SysWOW64\MapRouter".?set_output_engine@SpeedWarner@ngeo@Microsoft@@QAE?AW4ErrorCode@errorcodes@msngeo@@VOutputEngine@23@@Z
  ?set_output_engine@TrafficWarner@ngeo@Microsoft@@QAE?AW4ErrorCode@errorcodes@msngeo@@VOutputEngine@23@@Z="C:\Windows\SysWOW64\MapRouter".?set_output_engine@TrafficWarner@ngeo@Microsoft@@QAE?AW4ErrorCode@errorcodes@msngeo@@VOutputEngine@23@@Z
  ?set_output_latency_compensation_s@SimpleGuidance@naviplayer@Microsoft@@QAE?AW4ErrorCode@errorcodes@msngeo@@I@Z="C:\Windows\SysWOW64\MapRouter".?set_output_latency_compensation_s@SimpleGuidance@naviplayer@Microsoft@@QAE?AW4ErrorCode@errorcodes@msngeo@@I@Z
  ?set_penalty@RoadElementPenalty@DynamicPenalty@ngeo@Microsoft@@QAEXE@Z="C:\Windows\SysWOW64\MapRouter".?set_penalty@RoadElementPenalty@DynamicPenalty@ngeo@Microsoft@@QAEXE@Z
  ?set_radius_fuzzy_m@RouteWaypoint@ngeo@Microsoft@@QAEXI@Z="C:\Windows\SysWOW64\MapRouter".?set_radius_fuzzy_m@RouteWaypoint@ngeo@Microsoft@@QAEXI@Z
  ?set_radius_junction_m@RouteWaypoint@ngeo@Microsoft@@QAEXI@Z="C:\Windows\SysWOW64\MapRouter".?set_radius_junction_m@RouteWaypoint@ngeo@Microsoft@@QAEXI@Z
  ?set_radius_selective_m@RouteWaypoint@ngeo@Microsoft@@QAEXI@Z="C:\Windows\SysWOW64\MapRouter".?set_radius_selective_m@RouteWaypoint@ngeo@Microsoft@@QAEXI@Z
  ?set_route@DriveSimulator@ngeo@Microsoft@@QAE?AW4ErrorCode@errorcodes@msngeo@@ABVRoute@23@@Z="C:\Windows\SysWOW64\MapRouter".?set_route@DriveSimulator@ngeo@Microsoft@@QAE?AW4ErrorCode@errorcodes@msngeo@@ABVRoute@23@@Z
  ?set_route@Guidance@ngeo@Microsoft@@QAE?AW4ErrorCode@errorcodes@msngeo@@ABVRoute@23@@Z="C:\Windows\SysWOW64\MapRouter".?set_route@Guidance@ngeo@Microsoft@@QAE?AW4ErrorCode@errorcodes@msngeo@@ABVRoute@23@@Z
  ?set_route@SimpleGuidance@naviplayer@Microsoft@@QAE?AW4ErrorCode@errorcodes@msngeo@@ABVRoute@ngeo@3@@Z="C:\Windows\SysWOW64\MapRouter".?set_route@SimpleGuidance@naviplayer@Microsoft@@QAE?AW4ErrorCode@errorcodes@msngeo@@ABVRoute@ngeo@3@@Z
  ?set_route_alternatives@RouteOptions@ngeo@Microsoft@@QAEXH@Z="C:\Windows\SysWOW64\MapRouter".?set_route_alternatives@RouteOptions@ngeo@Microsoft@@QAEXH@Z
  ?set_route_options@RoutePlan@ngeo@Microsoft@@QAEXABVRouteOptions@23@@Z="C:\Windows\SysWOW64\MapRouter".?set_route_options@RoutePlan@ngeo@Microsoft@@QAEXABVRouteOptions@23@@Z
  ?set_route_plan@SimpleGuidance@naviplayer@Microsoft@@QAE?AW4ErrorCode@errorcodes@msngeo@@ABVRoutePlan@ngeo@3@@Z="C:\Windows\SysWOW64\MapRouter".?set_route_plan@SimpleGuidance@naviplayer@Microsoft@@QAE?AW4ErrorCode@errorcodes@msngeo@@ABVRoutePlan@ngeo@3@@Z
  ?set_route_request_interval_s@SimpleGuidance@naviplayer@Microsoft@@QAE?AW4ErrorCode@errorcodes@msngeo@@I@Z="C:\Windows\SysWOW64\MapRouter".?set_route_request_interval_s@SimpleGuidance@naviplayer@Microsoft@@QAE?AW4ErrorCode@errorcodes@msngeo@@I@Z
  ?set_route_request_interval_s@SimpleGuidanceOptions@naviplayer@Microsoft@@QAEXI@Z="C:\Windows\SysWOW64\MapRouter".?set_route_request_interval_s@SimpleGuidanceOptions@naviplayer@Microsoft@@QAEXI@Z
  ?set_route_type@RouteOptions@ngeo@Microsoft@@QAEXW4RouteType@123@@Z="C:\Windows\SysWOW64\MapRouter".?set_route_type@RouteOptions@ngeo@Microsoft@@QAEXW4RouteType@123@@Z
  ?set_routing_mode@RouteOptions@ngeo@Microsoft@@QAEXW4RoutingMode@123@@Z="C:\Windows\SysWOW64\MapRouter".?set_routing_mode@RouteOptions@ngeo@Microsoft@@QAEXW4RoutingMode@123@@Z
  ?set_second@Time@ngeo@Microsoft@@QAEXE@Z="C:\Windows\SysWOW64\MapRouter".?set_second@Time@ngeo@Microsoft@@QAEXE@Z
  ?set_speed@DriveSimulator@ngeo@Microsoft@@QAE?AW4ErrorCode@errorcodes@msngeo@@N@Z="C:\Windows\SysWOW64\MapRouter".?set_speed@DriveSimulator@ngeo@Microsoft@@QAE?AW4ErrorCode@errorcodes@msngeo@@N@Z
  ?set_speed@RoadElementPenalty@DynamicPenalty@ngeo@Microsoft@@QAEXE@Z="C:\Windows\SysWOW64\MapRouter".?set_speed@RoadElementPenalty@DynamicPenalty@ngeo@Microsoft@@QAEXE@Z
  ?set_speed_m_s@Location@ngeo@Microsoft@@QAEXN@Z="C:\Windows\SysWOW64\MapRouter".?set_speed_m_s@Location@ngeo@Microsoft@@QAEXN@Z
  ?set_speed_trigger@MapSensor@ngeo@Microsoft@@QAEXN@Z="C:\Windows\SysWOW64\MapRouter".?set_speed_trigger@MapSensor@ngeo@Microsoft@@QAEXN@Z
  ?set_speed_warner_options@SimpleGuidance@naviplayer@Microsoft@@QAE?AW4ErrorCode@errorcodes@msngeo@@ABVSpeedWarnerOptions@ngeo@3@@Z="C:\Windows\SysWOW64\MapRouter".?set_speed_warner_options@SimpleGuidance@naviplayer@Microsoft@@QAE?AW4ErrorCode@errorcodes@msngeo@@ABVSpeedWarnerOptions@ngeo@3@@Z
  ?set_start_direction@RouteOptions@ngeo@Microsoft@@QAEXG@Z="C:\Windows\SysWOW64\MapRouter".?set_start_direction@RouteOptions@ngeo@Microsoft@@QAEXG@Z
  ?set_start_time@TimeInterval@ngeo@Microsoft@@QAEXABVTime@23@@Z="C:\Windows\SysWOW64\MapRouter".?set_start_time@TimeInterval@ngeo@Microsoft@@QAEXABVTime@23@@Z
  ?set_time@DateTime@ngeo@Microsoft@@QAEXABVTime@23@@Z="C:\Windows\SysWOW64\MapRouter".?set_time@DateTime@ngeo@Microsoft@@QAEXABVTime@23@@Z
  ?set_time@RouteOptions@ngeo@Microsoft@@QAE?AW4ErrorCode@errorcodes@msngeo@@ABVDateTime@23@W4TimeType@123@@Z="C:\Windows\SysWOW64\MapRouter".?set_time@RouteOptions@ngeo@Microsoft@@QAE?AW4ErrorCode@errorcodes@msngeo@@ABVDateTime@23@W4TimeType@123@@Z
  ?set_time@Time@ngeo@Microsoft@@QAEXEEEG@Z="C:\Windows\SysWOW64\MapRouter".?set_time@Time@ngeo@Microsoft@@QAEXEEEG@Z
  ?set_timestamp@DateTime@ngeo@Microsoft@@QAEX_J@Z="C:\Windows\SysWOW64\MapRouter".?set_timestamp@DateTime@ngeo@Microsoft@@QAEX_J@Z
  ?set_timestamp@Location@ngeo@Microsoft@@QAEX_J@Z="C:\Windows\SysWOW64\MapRouter".?set_timestamp@Location@ngeo@Microsoft@@QAEX_J@Z
  ?set_traffic@SimpleGuidance@naviplayer@Microsoft@@QAE?AW4ErrorCode@errorcodes@msngeo@@VTraffic@ngeo@3@@Z="C:\Windows\SysWOW64\MapRouter".?set_traffic@SimpleGuidance@naviplayer@Microsoft@@QAE?AW4ErrorCode@errorcodes@msngeo@@VTraffic@ngeo@3@@Z
  ?set_traffic_avoidance_mode@SimpleGuidance@naviplayer@Microsoft@@QAE?AW4ErrorCode@errorcodes@msngeo@@W4TrafficAvoidanceMode@SimpleGuidanceOptions@23@@Z="C:\Windows\SysWOW64\MapRouter".?set_traffic_avoidance_mode@SimpleGuidance@naviplayer@Microsoft@@QAE?AW4ErrorCode@errorcodes@msngeo@@W4TrafficAvoidanceMode@SimpleGuidanceOptions@23@@Z
  ?set_traffic_avoidance_mode@SimpleGuidanceOptions@naviplayer@Microsoft@@QAEXW4TrafficAvoidanceMode@123@@Z="C:\Windows\SysWOW64\MapRouter".?set_traffic_avoidance_mode@SimpleGuidanceOptions@naviplayer@Microsoft@@QAEXW4TrafficAvoidanceMode@123@@Z
  ?set_traffic_penalty_source@DynamicPenalty@ngeo@Microsoft@@QAEXABVTrafficPenaltySource@123@@Z="C:\Windows\SysWOW64\MapRouter".?set_traffic_penalty_source@DynamicPenalty@ngeo@Microsoft@@QAEXABVTrafficPenaltySource@123@@Z
  ?set_transit_options@RouteOptions@ngeo@Microsoft@@QAEXABVTransitRouteOptions@23@@Z="C:\Windows\SysWOW64\MapRouter".?set_transit_options@RouteOptions@ngeo@Microsoft@@QAEXABVTransitRouteOptions@23@@Z
  ?set_transit_type_allowed@TransitRouteOptions@ngeo@Microsoft@@QAEXW4TransitType@23@_N@Z="C:\Windows\SysWOW64\MapRouter".?set_transit_type_allowed@TransitRouteOptions@ngeo@Microsoft@@QAEXW4TransitType@23@_N@Z
  ?set_type@RouteWaypoint@ngeo@Microsoft@@QAEXW4Type@123@@Z="C:\Windows\SysWOW64\MapRouter".?set_type@RouteWaypoint@ngeo@Microsoft@@QAEXW4Type@123@@Z
  ?set_unit@Guidance@ngeo@Microsoft@@QAE?AW4ErrorCode@errorcodes@msngeo@@W4UnitSystem@123@@Z="C:\Windows\SysWOW64\MapRouter".?set_unit@Guidance@ngeo@Microsoft@@QAE?AW4ErrorCode@errorcodes@msngeo@@W4UnitSystem@123@@Z
  ?set_unit@SimpleGuidance@naviplayer@Microsoft@@QAE?AW4ErrorCode@errorcodes@msngeo@@W4UnitSystem@Guidance@ngeo@3@@Z="C:\Windows\SysWOW64\MapRouter".?set_unit@SimpleGuidance@naviplayer@Microsoft@@QAE?AW4ErrorCode@errorcodes@msngeo@@W4UnitSystem@Guidance@ngeo@3@@Z
  ?set_upload_frequency@MapSensor@ngeo@Microsoft@@QAEXG@Z="C:\Windows\SysWOW64\MapRouter".?set_upload_frequency@MapSensor@ngeo@Microsoft@@QAEXG@Z
  ?set_user_identity@MapSensor@ngeo@Microsoft@@QAEXPBD00@Z="C:\Windows\SysWOW64\MapRouter".?set_user_identity@MapSensor@ngeo@Microsoft@@QAEXPBD00@Z
  ?set_validity_end@RoadElementPenalty@DynamicPenalty@ngeo@Microsoft@@QAEX_J@Z="C:\Windows\SysWOW64\MapRouter".?set_validity_end@RoadElementPenalty@DynamicPenalty@ngeo@Microsoft@@QAEX_J@Z
  ?set_validity_start@RoadElementPenalty@DynamicPenalty@ngeo@Microsoft@@QAEX_J@Z="C:\Windows\SysWOW64\MapRouter".?set_validity_start@RoadElementPenalty@DynamicPenalty@ngeo@Microsoft@@QAEX_J@Z
  ?set_version@Version@ngeo@Microsoft@@QAE?AW4ErrorCode@errorcodes@msngeo@@ABV?$basic_string@GU?$char_traits@G@std@@V?$allocator@G@2@@std@@@Z="C:\Windows\SysWOW64\MapRouter".?set_version@Version@ngeo@Microsoft@@QAE?AW4ErrorCode@errorcodes@msngeo@@ABV?$basic_string@GU?$char_traits@G@std@@V?$allocator@G@2@@std@@@Z
  ?set_view_area@RenderBuffer@ngeo@Microsoft@@QAEXABVPixelRect@23@@Z="C:\Windows\SysWOW64\MapRouter".?set_view_area@RenderBuffer@ngeo@Microsoft@@QAEXABVPixelRect@23@@Z
  ?set_voice_settings@OutputEngine@ngeo@Microsoft@@QAE?AW4ErrorCode@errorcodes@msngeo@@ABV?$map@V?$basic_string@GU?$char_traits@G@std@@V?$allocator@G@2@@std@@V12@U?$less@V?$basic_string@GU?$char_traits@G@std@@V?$allocator@G@2@@std@@@2@V?$allocator@U?$pair@$$CBV?$basic_string@GU?$char_traits@G@std@@V?$allocator@G@2@@std@@V12@@std@@@2@@std@@@Z="C:\Windows\SysWOW64\MapRouter".?set_voice_settings@OutputEngine@ngeo@Microsoft@@QAE?AW4ErrorCode@errorcodes@msngeo@@ABV?$map@V?$basic_string@GU?$char_traits@G@std@@V?$allocator@G@2@@std@@V12@U?$less@V?$basic_string@GU?$char_traits@G@std@@V?$allocator@G@2@@std@@@2@V?$allocator@U?$pair@$$CBV?$basic_string@GU?$char_traits@G@std@@V?$allocator@G@2@@std@@V12@@std@@@2@@std@@@Z
  ?set_voice_settings@SimpleGuidance@naviplayer@Microsoft@@QAE?AW4ErrorCode@errorcodes@msngeo@@ABV?$map@V?$basic_string@GU?$char_traits@G@std@@V?$allocator@G@2@@std@@V12@U?$less@V?$basic_string@GU?$char_traits@G@std@@V?$allocator@G@2@@std@@@2@V?$allocator@U?$pair@$$CBV?$basic_string@GU?$char_traits@G@std@@V?$allocator@G@2@@std@@V12@@std@@@2@@std@@@Z="C:\Windows\SysWOW64\MapRouter".?set_voice_settings@SimpleGuidance@naviplayer@Microsoft@@QAE?AW4ErrorCode@errorcodes@msngeo@@ABV?$map@V?$basic_string@GU?$char_traits@G@std@@V?$allocator@G@2@@std@@V12@U?$less@V?$basic_string@GU?$char_traits@G@std@@V?$allocator@G@2@@std@@@2@V?$allocator@U?$pair@$$CBV?$basic_string@GU?$char_traits@G@std@@V?$allocator@G@2@@std@@V12@@std@@@2@@std@@@Z
  ?set_voice_settings@VoiceSkin@ngeo@Microsoft@@QAE?AW4ErrorCode@errorcodes@msngeo@@ABV?$map@V?$basic_string@GU?$char_traits@G@std@@V?$allocator@G@2@@std@@V12@U?$less@V?$basic_string@GU?$char_traits@G@std@@V?$allocator@G@2@@std@@@2@V?$allocator@U?$pair@$$CBV?$basic_string@GU?$char_traits@G@std@@V?$allocator@G@2@@std@@V12@@std@@@2@@std@@@Z="C:\Windows\SysWOW64\MapRouter".?set_voice_settings@VoiceSkin@ngeo@Microsoft@@QAE?AW4ErrorCode@errorcodes@msngeo@@ABV?$map@V?$basic_string@GU?$char_traits@G@std@@V?$allocator@G@2@@std@@V12@U?$less@V?$basic_string@GU?$char_traits@G@std@@V?$allocator@G@2@@std@@@2@V?$allocator@U?$pair@$$CBV?$basic_string@GU?$char_traits@G@std@@V?$allocator@G@2@@std@@V12@@std@@@2@@std@@@Z
  ?set_walk_time_multiplier@TransitRouteOptions@ngeo@Microsoft@@QAEXM@Z="C:\Windows\SysWOW64\MapRouter".?set_walk_time_multiplier@TransitRouteOptions@ngeo@Microsoft@@QAEXM@Z
  ?set_weight@MapMatcherOptions@ngeo@Microsoft@@QAEXW4ID@Scenario@123@W44Rule@123@M@Z="C:\Windows\SysWOW64\MapRouter".?set_weight@MapMatcherOptions@ngeo@Microsoft@@QAEXW4ID@Scenario@123@W44Rule@123@M@Z
  ?set_width@SizeInPixels@ngeo@Microsoft@@QAEXM@Z="C:\Windows\SysWOW64\MapRouter".?set_width@SizeInPixels@ngeo@Microsoft@@QAEXM@Z
  ?set_x@PixelCoordinates@ngeo@Microsoft@@QAEXM@Z="C:\Windows\SysWOW64\MapRouter".?set_x@PixelCoordinates@ngeo@Microsoft@@QAEXM@Z
  ?set_x_accuracy_m@Location@ngeo@Microsoft@@QAEXM@Z="C:\Windows\SysWOW64\MapRouter".?set_x_accuracy_m@Location@ngeo@Microsoft@@QAEXM@Z
  ?set_y@PixelCoordinates@ngeo@Microsoft@@QAEXM@Z="C:\Windows\SysWOW64\MapRouter".?set_y@PixelCoordinates@ngeo@Microsoft@@QAEXM@Z
  ?set_y_accuracy_m@Location@ngeo@Microsoft@@QAEXM@Z="C:\Windows\SysWOW64\MapRouter".?set_y_accuracy_m@Location@ngeo@Microsoft@@QAEXM@Z
  ?set_year@Date@ngeo@Microsoft@@QAEXF@Z="C:\Windows\SysWOW64\MapRouter".?set_year@Date@ngeo@Microsoft@@QAEXF@Z
  ?set_z_accuracy_m@Location@ngeo@Microsoft@@QAEXM@Z="C:\Windows\SysWOW64\MapRouter".?set_z_accuracy_m@Location@ngeo@Microsoft@@QAEXM@Z
  ?shortTextEnum@TrafficEvent@nmacore@Microsoft@@QBE?AV?$basic_string@GU?$char_traits@G@std@@V?$allocator@G@2@@std@@XZ="C:\Windows\SysWOW64\MapRouter".?shortTextEnum@TrafficEvent@nmacore@Microsoft@@QBE?AV?$basic_string@GU?$char_traits@G@std@@V?$allocator@G@2@@std@@XZ
  ?shouldUseProxy@RouterEngine@nmacore@Microsoft@@QAE_NABVRoutePlan@ngeo@3@PAW4CountryEnum@53@PA_N@Z="C:\Windows\SysWOW64\MapRouter".?shouldUseProxy@RouterEngine@nmacore@Microsoft@@QAE_NABVRoutePlan@ngeo@3@PAW4CountryEnum@53@PA_N@Z
  ?signpost@Maneuver@nmacore@Microsoft@@QBEPBVSignpost@ngeo@3@XZ="C:\Windows\SysWOW64\MapRouter".?signpost@Maneuver@nmacore@Microsoft@@QBEPBVSignpost@ngeo@3@XZ
  ?simulate@Guidance@nmacore@Microsoft@@QAEXABVRoute@ngeo@3@0H@Z="C:\Windows\SysWOW64\MapRouter".?simulate@Guidance@nmacore@Microsoft@@QAEXABVRoute@ngeo@3@0H@Z
  ?simulate@Guidance@nmacore@Microsoft@@QAEXABVRoute@ngeo@3@H@Z="C:\Windows\SysWOW64\MapRouter".?simulate@Guidance@nmacore@Microsoft@@QAEXABVRoute@ngeo@3@H@Z
  ?size@RouteElements@ngeo@Microsoft@@QBEIXZ="C:\Windows\SysWOW64\MapRouter".?size@RouteElements@ngeo@Microsoft@@QBEIXZ
  ?speedLimit@TrafficEvent@nmacore@Microsoft@@QBEIXZ="C:\Windows\SysWOW64\MapRouter".?speedLimit@TrafficEvent@nmacore@Microsoft@@QBEIXZ
  ?speedTrigger@MapSensor@nmacore@Microsoft@@QAENXZ="C:\Windows\SysWOW64\MapRouter".?speedTrigger@MapSensor@nmacore@Microsoft@@QAENXZ
  ?start@BaseEngine@nmacore@Microsoft@@UAEXXZ="C:\Windows\SysWOW64\MapRouter".?start@BaseEngine@nmacore@Microsoft@@UAEXXZ
  ?start@DriveSimulator@nmacore@Microsoft@@QAEXABVRoute@23@@Z="C:\Windows\SysWOW64\MapRouter".?start@DriveSimulator@nmacore@Microsoft@@QAEXABVRoute@23@@Z
  ?start@Guidance@ngeo@Microsoft@@QAEXXZ="C:\Windows\SysWOW64\MapRouter".?start@Guidance@ngeo@Microsoft@@QAEXXZ
  ?start@MapSensor@ngeo@Microsoft@@QAEXXZ="C:\Windows\SysWOW64\MapRouter".?start@MapSensor@ngeo@Microsoft@@QAEXXZ
  ?start@SimpleGuidance@naviplayer@Microsoft@@QAEXXZ="C:\Windows\SysWOW64\MapRouter".?start@SimpleGuidance@naviplayer@Microsoft@@QAEXXZ
  ?start@SpeedWarner@ngeo@Microsoft@@QAEXXZ="C:\Windows\SysWOW64\MapRouter".?start@SpeedWarner@ngeo@Microsoft@@QAEXXZ
  ?start@StatStartTiming@nmacore@Microsoft@@QAEXXZ="C:\Windows\SysWOW64\MapRouter".?start@StatStartTiming@nmacore@Microsoft@@QAEXXZ
  ?start@TrafficEngine@nmacore@Microsoft@@EAEXXZ="C:\Windows\SysWOW64\MapRouter".?start@TrafficEngine@nmacore@Microsoft@@EAEXXZ
  ?start@TrafficWarner@ngeo@Microsoft@@QAEXXZ="C:\Windows\SysWOW64\MapRouter".?start@TrafficWarner@ngeo@Microsoft@@QAEXXZ
  ?startGuidance@Guidance@nmacore@Microsoft@@AAEXW4GuidanceMode@123@@Z="C:\Windows\SysWOW64\MapRouter".?startGuidance@Guidance@nmacore@Microsoft@@AAEXW4GuidanceMode@123@@Z
  ?startTicking@Poller@nmacore@Microsoft@@QAEXXZ="C:\Windows\SysWOW64\MapRouter".?startTicking@Poller@nmacore@Microsoft@@QAEXXZ
  ?startTracking@Guidance@nmacore@Microsoft@@QAEXXZ="C:\Windows\SysWOW64\MapRouter".?startTracking@Guidance@nmacore@Microsoft@@QAEXXZ
  ?startTrafficPoll@TrafficEngine@nmacore@Microsoft@@AAEXXZ="C:\Windows\SysWOW64\MapRouter".?startTrafficPoll@TrafficEngine@nmacore@Microsoft@@AAEXXZ
  ?start_logging@MapMatcher@ngeo@Microsoft@@QAEXABV?$basic_string@GU?$char_traits@G@std@@V?$allocator@G@2@@std@@@Z="C:\Windows\SysWOW64\MapRouter".?start_logging@MapMatcher@ngeo@Microsoft@@QAEXABV?$basic_string@GU?$char_traits@G@std@@V?$allocator@G@2@@std@@@Z
  ?starts_from_sliproad@Maneuver@ngeo@Microsoft@@QBE_NXZ="C:\Windows\SysWOW64\MapRouter".?starts_from_sliproad@Maneuver@ngeo@Microsoft@@QBE_NXZ
  ?status@TrafficEngine@nmacore@Microsoft@@QBE?AW4RequestStatus@123@XZ="C:\Windows\SysWOW64\MapRouter".?status@TrafficEngine@nmacore@Microsoft@@QBE?AW4RequestStatus@123@XZ
  ?stop@BaseEngine@nmacore@Microsoft@@UAEXXZ="C:\Windows\SysWOW64\MapRouter".?stop@BaseEngine@nmacore@Microsoft@@UAEXXZ
  ?stop@DriveSimulator@nmacore@Microsoft@@UAEXXZ="C:\Windows\SysWOW64\MapRouter".?stop@DriveSimulator@nmacore@Microsoft@@UAEXXZ
  ?stop@Guidance@ngeo@Microsoft@@QAEXXZ="C:\Windows\SysWOW64\MapRouter".?stop@Guidance@ngeo@Microsoft@@QAEXXZ
  ?stop@Guidance@nmacore@Microsoft@@UAEXXZ="C:\Windows\SysWOW64\MapRouter".?stop@Guidance@nmacore@Microsoft@@UAEXXZ
  ?stop@MapSensor@ngeo@Microsoft@@QAEX_N@Z="C:\Windows\SysWOW64\MapRouter".?stop@MapSensor@ngeo@Microsoft@@QAEX_N@Z
  ?stop@RouterEngine@nmacore@Microsoft@@UAEXXZ="C:\Windows\SysWOW64\MapRouter".?stop@RouterEngine@nmacore@Microsoft@@UAEXXZ
  ?stop@SimpleGuidance@naviplayer@Microsoft@@QAEXXZ="C:\Windows\SysWOW64\MapRouter".?stop@SimpleGuidance@naviplayer@Microsoft@@QAEXXZ
  ?stop@SpeedWarner@ngeo@Microsoft@@QAEXXZ="C:\Windows\SysWOW64\MapRouter".?stop@SpeedWarner@ngeo@Microsoft@@QAEXXZ
  ?stop@TrafficEngine@nmacore@Microsoft@@EAEXXZ="C:\Windows\SysWOW64\MapRouter".?stop@TrafficEngine@nmacore@Microsoft@@EAEXXZ
  ?stop@TrafficWarner@ngeo@Microsoft@@QAEXXZ="C:\Windows\SysWOW64\MapRouter".?stop@TrafficWarner@ngeo@Microsoft@@QAEXXZ
  ?stopInfosAvailable@TransitDatabase@nmacore@Microsoft@@QAE?AW4TErrorCode@@ABVGeoArea@ngeo@3@AAVTransitDatabaseListener@23@@Z="C:\Windows\SysWOW64\MapRouter".?stopInfosAvailable@TransitDatabase@nmacore@Microsoft@@QAE?AW4TErrorCode@@ABVGeoArea@ngeo@3@AAVTransitDatabaseListener@23@@Z
  ?stopInfosAvailableCompleted@TransitDatabaseListener@nmacore@Microsoft@@UAEXW4TErrorCode@@@Z="C:\Windows\SysWOW64\MapRouter".?stopInfosAvailableCompleted@TransitDatabaseListener@nmacore@Microsoft@@UAEXW4TErrorCode@@@Z
  ?stop_logging@MapMatcher@ngeo@Microsoft@@QAEXXZ="C:\Windows\SysWOW64\MapRouter".?stop_logging@MapMatcher@ngeo@Microsoft@@QAEXXZ
  ?stop_speed_warner@SimpleGuidance@naviplayer@Microsoft@@QAEXXZ="C:\Windows\SysWOW64\MapRouter".?stop_speed_warner@SimpleGuidance@naviplayer@Microsoft@@QAEXXZ
  ?stop_traffic_warner@SimpleGuidance@naviplayer@Microsoft@@QAEXXZ="C:\Windows\SysWOW64\MapRouter".?stop_traffic_warner@SimpleGuidance@naviplayer@Microsoft@@QAEXXZ
  ?supports_feature@VoiceSkin@ngeo@Microsoft@@QBE_NW4Feature@123@@Z="C:\Windows\SysWOW64\MapRouter".?supports_feature@VoiceSkin@ngeo@Microsoft@@QBE_NW4Feature@123@@Z
  ?suspend@Runtime@nmacore@Microsoft@@QAE?AW4TErrorCode@@XZ="C:\Windows\SysWOW64\MapRouter".?suspend@Runtime@nmacore@Microsoft@@QAE?AW4TErrorCode@@XZ
  ?suspendAll@Poller@nmacore@Microsoft@@QAEXXZ="C:\Windows\SysWOW64\MapRouter".?suspendAll@Poller@nmacore@Microsoft@@QAEXXZ
  ?suspendEngine@BaseEngine@nmacore@Microsoft@@UAE_NXZ="C:\Windows\SysWOW64\MapRouter".?suspendEngine@BaseEngine@nmacore@Microsoft@@UAE_NXZ
  ?swap_stopovers@RoutePlan@ngeo@Microsoft@@QAE?AW4ErrorCode@errorcodes@msngeo@@II@Z="C:\Windows\SysWOW64\MapRouter".?swap_stopovers@RoutePlan@ngeo@Microsoft@@QAE?AW4ErrorCode@errorcodes@msngeo@@II@Z
  ?swap_waypoints@RoutePlan@ngeo@Microsoft@@QAE?AW4ErrorCode@errorcodes@msngeo@@II@Z="C:\Windows\SysWOW64\MapRouter".?swap_waypoints@RoutePlan@ngeo@Microsoft@@QAE?AW4ErrorCode@errorcodes@msngeo@@II@Z
  ?synthesizeTTS@TtsEngine@nmacore@Microsoft@@AAEXXZ="C:\Windows\SysWOW64\MapRouter".?synthesizeTTS@TtsEngine@nmacore@Microsoft@@AAEXXZ
  ?testAttribute@ItineraryWarningAttributes@nmacore@Microsoft@@UBE_NW4TAttribute@IItineraryWarningAttributes@msnma@@@Z="C:\Windows\SysWOW64\MapRouter".?testAttribute@ItineraryWarningAttributes@nmacore@Microsoft@@UBE_NW4TAttribute@IItineraryWarningAttributes@msnma@@@Z
  ?test_attribute@ItineraryWarningAttributes@ngeo@Microsoft@@QBE_NW4Attribute@IItineraryWarningAttributes@msngeo@@@Z="C:\Windows\SysWOW64\MapRouter".?test_attribute@ItineraryWarningAttributes@ngeo@Microsoft@@QBE_NW4Attribute@IItineraryWarningAttributes@msngeo@@@Z
  ?timeOut@Poller@nmacore@Microsoft@@UAEXXZ="C:\Windows\SysWOW64\MapRouter".?timeOut@Poller@nmacore@Microsoft@@UAEXXZ
  ?toStreets@TrafficEvent@nmacore@Microsoft@@QBE?AV?$basic_string@GU?$char_traits@G@std@@V?$allocator@G@2@@std@@XZ="C:\Windows\SysWOW64\MapRouter".?toStreets@TrafficEvent@nmacore@Microsoft@@QBE?AV?$basic_string@GU?$char_traits@G@std@@V?$allocator@G@2@@std@@XZ
  ?toUlong@ItineraryWarningAttributes@nmacore@Microsoft@@QBEKXZ="C:\Windows\SysWOW64\MapRouter".?toUlong@ItineraryWarningAttributes@nmacore@Microsoft@@QBEKXZ
  ?to_street_element@RoadElement@ngeo@Microsoft@@QBEABVGStreetElement@smart5@3@XZ="C:\Windows\SysWOW64\MapRouter".?to_street_element@RoadElement@ngeo@Microsoft@@QBEABVGStreetElement@smart5@3@XZ
  ?to_string@RouteOptions@ngeo@Microsoft@@SG?AV?$basic_string@GU?$char_traits@G@std@@V?$allocator@G@2@@std@@W4RouteType@123@@Z="C:\Windows\SysWOW64\MapRouter".?to_string@RouteOptions@ngeo@Microsoft@@SG?AV?$basic_string@GU?$char_traits@G@std@@V?$allocator@G@2@@std@@W4RouteType@123@@Z
  ?to_string@RouteOptions@ngeo@Microsoft@@SG?AV?$basic_string@GU?$char_traits@G@std@@V?$allocator@G@2@@std@@W4RoutingMode@123@@Z="C:\Windows\SysWOW64\MapRouter".?to_string@RouteOptions@ngeo@Microsoft@@SG?AV?$basic_string@GU?$char_traits@G@std@@V?$allocator@G@2@@std@@W4RoutingMode@123@@Z
  ?to_string@SideOfDestinationVoiceInfo@ngeo@Microsoft@@SGPBGW4SideOfDestination@123@@Z="C:\Windows\SysWOW64\MapRouter".?to_string@SideOfDestinationVoiceInfo@ngeo@Microsoft@@SGPBGW4SideOfDestination@123@@Z
  ?to_string@StreetVoiceInfo@ngeo@Microsoft@@SGPBGW4StreetType@123@@Z="C:\Windows\SysWOW64\MapRouter".?to_string@StreetVoiceInfo@ngeo@Microsoft@@SGPBGW4StreetType@123@@Z
  ?to_ustring@ManeuverVoiceInfo@ngeo@Microsoft@@SGPBGW4Action@123@@Z="C:\Windows\SysWOW64\MapRouter".?to_ustring@ManeuverVoiceInfo@ngeo@Microsoft@@SGPBGW4Action@123@@Z
  ?to_ustring@ManeuverVoiceInfo@ngeo@Microsoft@@SGPBGW4Turn@123@@Z="C:\Windows\SysWOW64\MapRouter".?to_ustring@ManeuverVoiceInfo@ngeo@Microsoft@@SGPBGW4Turn@123@@Z
  ?to_ustring@NaturalGuidanceVoiceInfo@ngeo@Microsoft@@SGPBGW4ElementType@123@@Z="C:\Windows\SysWOW64\MapRouter".?to_ustring@NaturalGuidanceVoiceInfo@ngeo@Microsoft@@SGPBGW4ElementType@123@@Z
  ?top_left@GeoRect@ngeo@Microsoft@@UBEABVIGeoCoordinates@msngeo@@XZ="C:\Windows\SysWOW64\MapRouter".?top_left@GeoRect@ngeo@Microsoft@@UBEABVIGeoCoordinates@msngeo@@XZ
  ?traffic@TrafficEngine@nmacore@Microsoft@@QAEAAVTraffic@ngeo@3@XZ="C:\Windows\SysWOW64\MapRouter".?traffic@TrafficEngine@nmacore@Microsoft@@QAEAAVTraffic@ngeo@3@XZ
  ?trafficAvoidanceMode@Guidance@nmacore@Microsoft@@QBE?AW4TrafficAvoidanceMode@SimpleGuidanceOptions@naviplayer@3@XZ="C:\Windows\SysWOW64\MapRouter".?trafficAvoidanceMode@Guidance@nmacore@Microsoft@@QBE?AW4TrafficAvoidanceMode@SimpleGuidanceOptions@naviplayer@3@XZ
  ?trafficEnabled@Guidance@nmacore@Microsoft@@QBE_NXZ="C:\Windows\SysWOW64\MapRouter".?trafficEnabled@Guidance@nmacore@Microsoft@@QBE_NXZ
  ?trafficEvent@TrafficEvent@nmacore@Microsoft@@QBEABV1ngeo@3@XZ="C:\Windows\SysWOW64\MapRouter".?trafficEvent@TrafficEvent@nmacore@Microsoft@@QBEABV1ngeo@3@XZ
  ?trafficmlCriticality@TrafficEvent@nmacore@Microsoft@@QBE?AV?$basic_string@GU?$char_traits@G@std@@V?$allocator@G@2@@std@@XZ="C:\Windows\SysWOW64\MapRouter".?trafficmlCriticality@TrafficEvent@nmacore@Microsoft@@QBE?AV?$basic_string@GU?$char_traits@G@std@@V?$allocator@G@2@@std@@XZ
  ?trafficmlIncidentType@TrafficEvent@nmacore@Microsoft@@QBE?AV?$basic_string@GU?$char_traits@G@std@@V?$allocator@G@2@@std@@XZ="C:\Windows\SysWOW64\MapRouter".?trafficmlIncidentType@TrafficEvent@nmacore@Microsoft@@QBE?AV?$basic_string@GU?$char_traits@G@std@@V?$allocator@G@2@@std@@XZ
  ?transitLineInfo@TransitLineInfo@nmacore@Microsoft@@QBEABV1ngeo@3@XZ="C:\Windows\SysWOW64\MapRouter".?transitLineInfo@TransitLineInfo@nmacore@Microsoft@@QBEABV1ngeo@3@XZ
  ?transparent@Color@ngeo@Microsoft@@SGABV123@XZ="C:\Windows\SysWOW64\MapRouter".?transparent@Color@ngeo@Microsoft@@SGABV123@XZ
  ?try_enter@Mutex@ngeo@Microsoft@@QAE_NXZ="C:\Windows\SysWOW64\MapRouter".?try_enter@Mutex@ngeo@Microsoft@@QAE_NXZ
  ?try_enter@SharedMutex@ngeo@Microsoft@@QAE_NXZ="C:\Windows\SysWOW64\MapRouter".?try_enter@SharedMutex@ngeo@Microsoft@@QAE_NXZ
  ?try_lock@?$Lockable@VSharedMutex@ngeo@Microsoft@@@ngeo@Microsoft@@QBE_NXZ="C:\Windows\SysWOW64\MapRouter".?try_lock@?$Lockable@VSharedMutex@ngeo@Microsoft@@@ngeo@Microsoft@@QBE_NXZ
  ?unlock@?$Lockable@VSharedMutex@ngeo@Microsoft@@@ngeo@Microsoft@@QBEXXZ="C:\Windows\SysWOW64\MapRouter".?unlock@?$Lockable@VSharedMutex@ngeo@Microsoft@@@ngeo@Microsoft@@QBEXXZ
  ?unlock_object_handle@?$ObjectHandle@VViewObject@ngeo@Microsoft@@$00@internal@ngeo@Microsoft@@ABEX_N@Z="C:\Windows\SysWOW64\MapRouter".?unlock_object_handle@?$ObjectHandle@VViewObject@ngeo@Microsoft@@$00@internal@ngeo@Microsoft@@ABEX_N@Z
  ?unregisterCompassObserver@Sensors@nmacore@Microsoft@@EAE_NPAVICompassObserver@23@@Z="C:\Windows\SysWOW64\MapRouter".?unregisterCompassObserver@Sensors@nmacore@Microsoft@@EAE_NPAVICompassObserver@23@@Z
  ?unregisterPositioningObserver@Sensors@nmacore@Microsoft@@EAE_NPAVIPositioningObserver@23@@Z="C:\Windows\SysWOW64\MapRouter".?unregisterPositioningObserver@Sensors@nmacore@Microsoft@@EAE_NPAVIPositioningObserver@23@@Z
  ?update@Poller@nmacore@Microsoft@@IAEXXZ="C:\Windows\SysWOW64\MapRouter".?update@Poller@nmacore@Microsoft@@IAEXXZ
  ?updateCompassCalibrationState@Sensors@nmacore@Microsoft@@QAEXW4TCompassCalibrationState@23@@Z="C:\Windows\SysWOW64\MapRouter".?updateCompassCalibrationState@Sensors@nmacore@Microsoft@@QAEXW4TCompassCalibrationState@23@@Z
  ?updateCompassHeading@Sensors@nmacore@Microsoft@@QAEXH@Z="C:\Windows\SysWOW64\MapRouter".?updateCompassHeading@Sensors@nmacore@Microsoft@@QAEXH@Z
  ?updateDate@TrafficEvent@nmacore@Microsoft@@QBEIXZ="C:\Windows\SysWOW64\MapRouter".?updateDate@TrafficEvent@nmacore@Microsoft@@QBEIXZ
  ?updateMapMatchedPosition@MapMatcherProxy@nmacore@Microsoft@@QAEXXZ="C:\Windows\SysWOW64\MapRouter".?updateMapMatchedPosition@MapMatcherProxy@nmacore@Microsoft@@QAEXXZ
  ?updateNextNgeoManeuver@Guidance@nmacore@Microsoft@@AAEXPBVManeuver@ngeo@3@@Z="C:\Windows\SysWOW64\MapRouter".?updateNextNgeoManeuver@Guidance@nmacore@Microsoft@@AAEXPBVManeuver@ngeo@3@@Z
  ?updateNow@Poller@nmacore@Microsoft@@QAEXXZ="C:\Windows\SysWOW64\MapRouter".?updateNow@Poller@nmacore@Microsoft@@QAEXXZ
  ?updatePosition@Sensors@nmacore@Microsoft@@QAEXABVLocation@ngeo@3@@Z="C:\Windows\SysWOW64\MapRouter".?updatePosition@Sensors@nmacore@Microsoft@@QAEXABVLocation@ngeo@3@@Z
  ?updatePositioningStatus@Sensors@nmacore@Microsoft@@QAEXW4TPositioningStatus@23@@Z="C:\Windows\SysWOW64\MapRouter".?updatePositioningStatus@Sensors@nmacore@Microsoft@@QAEXW4TPositioningStatus@23@@Z
  ?update_dynamic_penalty@SimpleGuidance@naviplayer@Microsoft@@QAE?AW4ErrorCode@errorcodes@msngeo@@ABVDynamicPenalty@ngeo@3@@Z="C:\Windows\SysWOW64\MapRouter".?update_dynamic_penalty@SimpleGuidance@naviplayer@Microsoft@@QAE?AW4ErrorCode@errorcodes@msngeo@@ABVDynamicPenalty@ngeo@3@@Z
  ?update_road_element@DynamicPenalty@ngeo@Microsoft@@QAEXABVRoadElementPenalty@123@@Z="C:\Windows\SysWOW64\MapRouter".?update_road_element@DynamicPenalty@ngeo@Microsoft@@QAEXABVRoadElementPenalty@123@@Z
  ?uploadFrequency@MapSensor@nmacore@Microsoft@@QAEGXZ="C:\Windows\SysWOW64\MapRouter".?uploadFrequency@MapSensor@nmacore@Microsoft@@QAEGXZ
  ?visit@ItineraryWarningVisitor@ngeo@Microsoft@@UAEXABVItineraryWarning@23@@Z="C:\Windows\SysWOW64\MapRouter".?visit@ItineraryWarningVisitor@ngeo@Microsoft@@UAEXABVItineraryWarning@23@@Z
  ?visit@ItineraryWarningVisitor@ngeo@Microsoft@@UAEXABVItineraryWarningAdminDivChange@23@@Z="C:\Windows\SysWOW64\MapRouter".?visit@ItineraryWarningVisitor@ngeo@Microsoft@@UAEXABVItineraryWarningAdminDivChange@23@@Z
  ?visit@ItineraryWarningVisitor@ngeo@Microsoft@@UAEXABVItineraryWarningAttributes@23@@Z="C:\Windows\SysWOW64\MapRouter".?visit@ItineraryWarningVisitor@ngeo@Microsoft@@UAEXABVItineraryWarningAttributes@23@@Z
  ?visit@ItineraryWarningVisitor@ngeo@Microsoft@@UAEXABVItineraryWarningTraffic@23@@Z="C:\Windows\SysWOW64\MapRouter".?visit@ItineraryWarningVisitor@ngeo@Microsoft@@UAEXABVItineraryWarningTraffic@23@@Z
  ?white@Color@ngeo@Microsoft@@SGABV123@XZ="C:\Windows\SysWOW64\MapRouter".?white@Color@ngeo@Microsoft@@SGABV123@XZ
  ?write@BufferOutputStream@nmacore@Microsoft@@UAEIPAEI@Z="C:\Windows\SysWOW64\MapRouter".?write@BufferOutputStream@nmacore@Microsoft@@UAEIPAEI@Z
  ?yellow@Color@ngeo@Microsoft@@SGABV123@XZ="C:\Windows\SysWOW64\MapRouter".?yellow@Color@ngeo@Microsoft@@SGABV123@XZ
  MapRouter_AttatchGuidanceStatusChangedListener="C:\Windows\SysWOW64\MapRouter".MapRouter_AttatchGuidanceStatusChangedListener
  MapRouter_DetachGuidanceStatusChangedListener="C:\Windows\SysWOW64\MapRouter".MapRouter_DetachGuidanceStatusChangedListener
