EXPORTS
  ??0Application@Metadata@FLAC@@QAE@ABUFLAC__StreamMetadata@@@Z="C:\Windows\SysWOW64\MSFlacEncoder".??0Application@Metadata@FLAC@@QAE@ABUFLAC__StreamMetadata@@@Z
  ??0Application@Metadata@FLAC@@QAE@ABV012@@Z="C:\Windows\SysWOW64\MSFlacEncoder".??0Application@Metadata@FLAC@@QAE@ABV012@@Z
  ??0Application@Metadata@FLAC@@QAE@PAUFLAC__StreamMetadata@@_N@Z="C:\Windows\SysWOW64\MSFlacEncoder".??0Application@Metadata@FLAC@@QAE@PAUFLAC__StreamMetadata@@_N@Z
  ??0Application@Metadata@FLAC@@QAE@PBUFLAC__StreamMetadata@@@Z="C:\Windows\SysWOW64\MSFlacEncoder".??0Application@Metadata@FLAC@@QAE@PBUFLAC__StreamMetadata@@@Z
  ??0Chain@Metadata@FLAC@@QAE@ABV012@@Z="C:\Windows\SysWOW64\MSFlacEncoder".??0Chain@Metadata@FLAC@@QAE@ABV012@@Z
  ??0CueSheet@Metadata@FLAC@@QAE@ABUFLAC__StreamMetadata@@@Z="C:\Windows\SysWOW64\MSFlacEncoder".??0CueSheet@Metadata@FLAC@@QAE@ABUFLAC__StreamMetadata@@@Z
  ??0CueSheet@Metadata@FLAC@@QAE@ABV012@@Z="C:\Windows\SysWOW64\MSFlacEncoder".??0CueSheet@Metadata@FLAC@@QAE@ABV012@@Z
  ??0CueSheet@Metadata@FLAC@@QAE@PAUFLAC__StreamMetadata@@_N@Z="C:\Windows\SysWOW64\MSFlacEncoder".??0CueSheet@Metadata@FLAC@@QAE@PAUFLAC__StreamMetadata@@_N@Z
  ??0CueSheet@Metadata@FLAC@@QAE@PBUFLAC__StreamMetadata@@@Z="C:\Windows\SysWOW64\MSFlacEncoder".??0CueSheet@Metadata@FLAC@@QAE@PBUFLAC__StreamMetadata@@@Z
  ??0Iterator@Metadata@FLAC@@QAE@ABV012@@Z="C:\Windows\SysWOW64\MSFlacEncoder".??0Iterator@Metadata@FLAC@@QAE@ABV012@@Z
  ??0Padding@Metadata@FLAC@@QAE@ABUFLAC__StreamMetadata@@@Z="C:\Windows\SysWOW64\MSFlacEncoder".??0Padding@Metadata@FLAC@@QAE@ABUFLAC__StreamMetadata@@@Z
  ??0Padding@Metadata@FLAC@@QAE@ABV012@@Z="C:\Windows\SysWOW64\MSFlacEncoder".??0Padding@Metadata@FLAC@@QAE@ABV012@@Z
  ??0Padding@Metadata@FLAC@@QAE@PAUFLAC__StreamMetadata@@_N@Z="C:\Windows\SysWOW64\MSFlacEncoder".??0Padding@Metadata@FLAC@@QAE@PAUFLAC__StreamMetadata@@_N@Z
  ??0Padding@Metadata@FLAC@@QAE@PBUFLAC__StreamMetadata@@@Z="C:\Windows\SysWOW64\MSFlacEncoder".??0Padding@Metadata@FLAC@@QAE@PBUFLAC__StreamMetadata@@@Z
  ??0Picture@Metadata@FLAC@@QAE@ABUFLAC__StreamMetadata@@@Z="C:\Windows\SysWOW64\MSFlacEncoder".??0Picture@Metadata@FLAC@@QAE@ABUFLAC__StreamMetadata@@@Z
  ??0Picture@Metadata@FLAC@@QAE@ABV012@@Z="C:\Windows\SysWOW64\MSFlacEncoder".??0Picture@Metadata@FLAC@@QAE@ABV012@@Z
  ??0Picture@Metadata@FLAC@@QAE@PAUFLAC__StreamMetadata@@_N@Z="C:\Windows\SysWOW64\MSFlacEncoder".??0Picture@Metadata@FLAC@@QAE@PAUFLAC__StreamMetadata@@_N@Z
  ??0Picture@Metadata@FLAC@@QAE@PBUFLAC__StreamMetadata@@@Z="C:\Windows\SysWOW64\MSFlacEncoder".??0Picture@Metadata@FLAC@@QAE@PBUFLAC__StreamMetadata@@@Z
  ??0SeekTable@Metadata@FLAC@@QAE@ABUFLAC__StreamMetadata@@@Z="C:\Windows\SysWOW64\MSFlacEncoder".??0SeekTable@Metadata@FLAC@@QAE@ABUFLAC__StreamMetadata@@@Z
  ??0SeekTable@Metadata@FLAC@@QAE@ABV012@@Z="C:\Windows\SysWOW64\MSFlacEncoder".??0SeekTable@Metadata@FLAC@@QAE@ABV012@@Z
  ??0SeekTable@Metadata@FLAC@@QAE@PAUFLAC__StreamMetadata@@_N@Z="C:\Windows\SysWOW64\MSFlacEncoder".??0SeekTable@Metadata@FLAC@@QAE@PAUFLAC__StreamMetadata@@_N@Z
  ??0SeekTable@Metadata@FLAC@@QAE@PBUFLAC__StreamMetadata@@@Z="C:\Windows\SysWOW64\MSFlacEncoder".??0SeekTable@Metadata@FLAC@@QAE@PBUFLAC__StreamMetadata@@@Z
  ??0SimpleIterator@Metadata@FLAC@@QAE@ABV012@@Z="C:\Windows\SysWOW64\MSFlacEncoder".??0SimpleIterator@Metadata@FLAC@@QAE@ABV012@@Z
  ??0State@Stream@Decoder@FLAC@@QAE@W4FLAC__StreamDecoderState@@@Z="C:\Windows\SysWOW64\MSFlacEncoder".??0State@Stream@Decoder@FLAC@@QAE@W4FLAC__StreamDecoderState@@@Z
  ??0State@Stream@Encoder@FLAC@@QAE@W4FLAC__StreamEncoderState@@@Z="C:\Windows\SysWOW64\MSFlacEncoder".??0State@Stream@Encoder@FLAC@@QAE@W4FLAC__StreamEncoderState@@@Z
  ??0Status@Chain@Metadata@FLAC@@QAE@W4FLAC__Metadata_ChainStatus@@@Z="C:\Windows\SysWOW64\MSFlacEncoder".??0Status@Chain@Metadata@FLAC@@QAE@W4FLAC__Metadata_ChainStatus@@@Z
  ??0Status@SimpleIterator@Metadata@FLAC@@QAE@W4FLAC__Metadata_SimpleIteratorStatus@@@Z="C:\Windows\SysWOW64\MSFlacEncoder".??0Status@SimpleIterator@Metadata@FLAC@@QAE@W4FLAC__Metadata_SimpleIteratorStatus@@@Z
  ??0StreamInfo@Metadata@FLAC@@QAE@ABUFLAC__StreamMetadata@@@Z="C:\Windows\SysWOW64\MSFlacEncoder".??0StreamInfo@Metadata@FLAC@@QAE@ABUFLAC__StreamMetadata@@@Z
  ??0StreamInfo@Metadata@FLAC@@QAE@ABV012@@Z="C:\Windows\SysWOW64\MSFlacEncoder".??0StreamInfo@Metadata@FLAC@@QAE@ABV012@@Z
  ??0StreamInfo@Metadata@FLAC@@QAE@PAUFLAC__StreamMetadata@@_N@Z="C:\Windows\SysWOW64\MSFlacEncoder".??0StreamInfo@Metadata@FLAC@@QAE@PAUFLAC__StreamMetadata@@_N@Z
  ??0StreamInfo@Metadata@FLAC@@QAE@PBUFLAC__StreamMetadata@@@Z="C:\Windows\SysWOW64\MSFlacEncoder".??0StreamInfo@Metadata@FLAC@@QAE@PBUFLAC__StreamMetadata@@@Z
  ??0Unknown@Metadata@FLAC@@QAE@ABUFLAC__StreamMetadata@@@Z="C:\Windows\SysWOW64\MSFlacEncoder".??0Unknown@Metadata@FLAC@@QAE@ABUFLAC__StreamMetadata@@@Z
  ??0Unknown@Metadata@FLAC@@QAE@ABV012@@Z="C:\Windows\SysWOW64\MSFlacEncoder".??0Unknown@Metadata@FLAC@@QAE@ABV012@@Z
  ??0Unknown@Metadata@FLAC@@QAE@PAUFLAC__StreamMetadata@@_N@Z="C:\Windows\SysWOW64\MSFlacEncoder".??0Unknown@Metadata@FLAC@@QAE@PAUFLAC__StreamMetadata@@_N@Z
  ??0Unknown@Metadata@FLAC@@QAE@PBUFLAC__StreamMetadata@@@Z="C:\Windows\SysWOW64\MSFlacEncoder".??0Unknown@Metadata@FLAC@@QAE@PBUFLAC__StreamMetadata@@@Z
  ??0VorbisComment@Metadata@FLAC@@QAE@ABUFLAC__StreamMetadata@@@Z="C:\Windows\SysWOW64\MSFlacEncoder".??0VorbisComment@Metadata@FLAC@@QAE@ABUFLAC__StreamMetadata@@@Z
  ??0VorbisComment@Metadata@FLAC@@QAE@ABV012@@Z="C:\Windows\SysWOW64\MSFlacEncoder".??0VorbisComment@Metadata@FLAC@@QAE@ABV012@@Z
  ??0VorbisComment@Metadata@FLAC@@QAE@PAUFLAC__StreamMetadata@@_N@Z="C:\Windows\SysWOW64\MSFlacEncoder".??0VorbisComment@Metadata@FLAC@@QAE@PAUFLAC__StreamMetadata@@_N@Z
  ??0VorbisComment@Metadata@FLAC@@QAE@PBUFLAC__StreamMetadata@@@Z="C:\Windows\SysWOW64\MSFlacEncoder".??0VorbisComment@Metadata@FLAC@@QAE@PBUFLAC__StreamMetadata@@@Z
  ??4Application@Metadata@FLAC@@QAEAAV012@ABUFLAC__StreamMetadata@@@Z="C:\Windows\SysWOW64\MSFlacEncoder".??4Application@Metadata@FLAC@@QAEAAV012@ABUFLAC__StreamMetadata@@@Z
  ??4Application@Metadata@FLAC@@QAEAAV012@ABV012@@Z="C:\Windows\SysWOW64\MSFlacEncoder".??4Application@Metadata@FLAC@@QAEAAV012@ABV012@@Z
  ??4Application@Metadata@FLAC@@QAEAAV012@PBUFLAC__StreamMetadata@@@Z="C:\Windows\SysWOW64\MSFlacEncoder".??4Application@Metadata@FLAC@@QAEAAV012@PBUFLAC__StreamMetadata@@@Z
  ??4Chain@Metadata@FLAC@@QAEAAV012@ABV012@@Z="C:\Windows\SysWOW64\MSFlacEncoder".??4Chain@Metadata@FLAC@@QAEAAV012@ABV012@@Z
  ??4CueSheet@Metadata@FLAC@@QAEAAV012@ABUFLAC__StreamMetadata@@@Z="C:\Windows\SysWOW64\MSFlacEncoder".??4CueSheet@Metadata@FLAC@@QAEAAV012@ABUFLAC__StreamMetadata@@@Z
  ??4CueSheet@Metadata@FLAC@@QAEAAV012@ABV012@@Z="C:\Windows\SysWOW64\MSFlacEncoder".??4CueSheet@Metadata@FLAC@@QAEAAV012@ABV012@@Z
  ??4CueSheet@Metadata@FLAC@@QAEAAV012@PBUFLAC__StreamMetadata@@@Z="C:\Windows\SysWOW64\MSFlacEncoder".??4CueSheet@Metadata@FLAC@@QAEAAV012@PBUFLAC__StreamMetadata@@@Z
  ??4Iterator@Metadata@FLAC@@QAEAAV012@ABV012@@Z="C:\Windows\SysWOW64\MSFlacEncoder".??4Iterator@Metadata@FLAC@@QAEAAV012@ABV012@@Z
  ??4Padding@Metadata@FLAC@@QAEAAV012@ABUFLAC__StreamMetadata@@@Z="C:\Windows\SysWOW64\MSFlacEncoder".??4Padding@Metadata@FLAC@@QAEAAV012@ABUFLAC__StreamMetadata@@@Z
  ??4Padding@Metadata@FLAC@@QAEAAV012@ABV012@@Z="C:\Windows\SysWOW64\MSFlacEncoder".??4Padding@Metadata@FLAC@@QAEAAV012@ABV012@@Z
  ??4Padding@Metadata@FLAC@@QAEAAV012@PBUFLAC__StreamMetadata@@@Z="C:\Windows\SysWOW64\MSFlacEncoder".??4Padding@Metadata@FLAC@@QAEAAV012@PBUFLAC__StreamMetadata@@@Z
  ??4Picture@Metadata@FLAC@@QAEAAV012@ABUFLAC__StreamMetadata@@@Z="C:\Windows\SysWOW64\MSFlacEncoder".??4Picture@Metadata@FLAC@@QAEAAV012@ABUFLAC__StreamMetadata@@@Z
  ??4Picture@Metadata@FLAC@@QAEAAV012@ABV012@@Z="C:\Windows\SysWOW64\MSFlacEncoder".??4Picture@Metadata@FLAC@@QAEAAV012@ABV012@@Z
  ??4Picture@Metadata@FLAC@@QAEAAV012@PBUFLAC__StreamMetadata@@@Z="C:\Windows\SysWOW64\MSFlacEncoder".??4Picture@Metadata@FLAC@@QAEAAV012@PBUFLAC__StreamMetadata@@@Z
  ??4SeekTable@Metadata@FLAC@@QAEAAV012@ABUFLAC__StreamMetadata@@@Z="C:\Windows\SysWOW64\MSFlacEncoder".??4SeekTable@Metadata@FLAC@@QAEAAV012@ABUFLAC__StreamMetadata@@@Z
  ??4SeekTable@Metadata@FLAC@@QAEAAV012@ABV012@@Z="C:\Windows\SysWOW64\MSFlacEncoder".??4SeekTable@Metadata@FLAC@@QAEAAV012@ABV012@@Z
  ??4SeekTable@Metadata@FLAC@@QAEAAV012@PBUFLAC__StreamMetadata@@@Z="C:\Windows\SysWOW64\MSFlacEncoder".??4SeekTable@Metadata@FLAC@@QAEAAV012@PBUFLAC__StreamMetadata@@@Z
  ??4SimpleIterator@Metadata@FLAC@@QAEAAV012@ABV012@@Z="C:\Windows\SysWOW64\MSFlacEncoder".??4SimpleIterator@Metadata@FLAC@@QAEAAV012@ABV012@@Z
  ??4State@Stream@Decoder@FLAC@@QAEAAV0123@$$QAV0123@@Z="C:\Windows\SysWOW64\MSFlacEncoder".??4State@Stream@Decoder@FLAC@@QAEAAV0123@$$QAV0123@@Z
  ??4State@Stream@Decoder@FLAC@@QAEAAV0123@ABV0123@@Z="C:\Windows\SysWOW64\MSFlacEncoder".??4State@Stream@Decoder@FLAC@@QAEAAV0123@ABV0123@@Z
  ??4State@Stream@Encoder@FLAC@@QAEAAV0123@$$QAV0123@@Z="C:\Windows\SysWOW64\MSFlacEncoder".??4State@Stream@Encoder@FLAC@@QAEAAV0123@$$QAV0123@@Z
  ??4State@Stream@Encoder@FLAC@@QAEAAV0123@ABV0123@@Z="C:\Windows\SysWOW64\MSFlacEncoder".??4State@Stream@Encoder@FLAC@@QAEAAV0123@ABV0123@@Z
  ??4Status@Chain@Metadata@FLAC@@QAEAAV0123@$$QAV0123@@Z="C:\Windows\SysWOW64\MSFlacEncoder".??4Status@Chain@Metadata@FLAC@@QAEAAV0123@$$QAV0123@@Z
  ??4Status@Chain@Metadata@FLAC@@QAEAAV0123@ABV0123@@Z="C:\Windows\SysWOW64\MSFlacEncoder".??4Status@Chain@Metadata@FLAC@@QAEAAV0123@ABV0123@@Z
  ??4Status@SimpleIterator@Metadata@FLAC@@QAEAAV0123@$$QAV0123@@Z="C:\Windows\SysWOW64\MSFlacEncoder".??4Status@SimpleIterator@Metadata@FLAC@@QAEAAV0123@$$QAV0123@@Z
  ??4Status@SimpleIterator@Metadata@FLAC@@QAEAAV0123@ABV0123@@Z="C:\Windows\SysWOW64\MSFlacEncoder".??4Status@SimpleIterator@Metadata@FLAC@@QAEAAV0123@ABV0123@@Z
  ??4StreamInfo@Metadata@FLAC@@QAEAAV012@ABUFLAC__StreamMetadata@@@Z="C:\Windows\SysWOW64\MSFlacEncoder".??4StreamInfo@Metadata@FLAC@@QAEAAV012@ABUFLAC__StreamMetadata@@@Z
  ??4StreamInfo@Metadata@FLAC@@QAEAAV012@ABV012@@Z="C:\Windows\SysWOW64\MSFlacEncoder".??4StreamInfo@Metadata@FLAC@@QAEAAV012@ABV012@@Z
  ??4StreamInfo@Metadata@FLAC@@QAEAAV012@PBUFLAC__StreamMetadata@@@Z="C:\Windows\SysWOW64\MSFlacEncoder".??4StreamInfo@Metadata@FLAC@@QAEAAV012@PBUFLAC__StreamMetadata@@@Z
  ??4Unknown@Metadata@FLAC@@QAEAAV012@ABUFLAC__StreamMetadata@@@Z="C:\Windows\SysWOW64\MSFlacEncoder".??4Unknown@Metadata@FLAC@@QAEAAV012@ABUFLAC__StreamMetadata@@@Z
  ??4Unknown@Metadata@FLAC@@QAEAAV012@ABV012@@Z="C:\Windows\SysWOW64\MSFlacEncoder".??4Unknown@Metadata@FLAC@@QAEAAV012@ABV012@@Z
  ??4Unknown@Metadata@FLAC@@QAEAAV012@PBUFLAC__StreamMetadata@@@Z="C:\Windows\SysWOW64\MSFlacEncoder".??4Unknown@Metadata@FLAC@@QAEAAV012@PBUFLAC__StreamMetadata@@@Z
  ??4VorbisComment@Metadata@FLAC@@QAEAAV012@ABUFLAC__StreamMetadata@@@Z="C:\Windows\SysWOW64\MSFlacEncoder".??4VorbisComment@Metadata@FLAC@@QAEAAV012@ABUFLAC__StreamMetadata@@@Z
  ??4VorbisComment@Metadata@FLAC@@QAEAAV012@ABV012@@Z="C:\Windows\SysWOW64\MSFlacEncoder".??4VorbisComment@Metadata@FLAC@@QAEAAV012@ABV012@@Z
  ??4VorbisComment@Metadata@FLAC@@QAEAAV012@PBUFLAC__StreamMetadata@@@Z="C:\Windows\SysWOW64\MSFlacEncoder".??4VorbisComment@Metadata@FLAC@@QAEAAV012@PBUFLAC__StreamMetadata@@@Z
  ??8Application@Metadata@FLAC@@QBE_NABUFLAC__StreamMetadata@@@Z="C:\Windows\SysWOW64\MSFlacEncoder".??8Application@Metadata@FLAC@@QBE_NABUFLAC__StreamMetadata@@@Z
  ??8Application@Metadata@FLAC@@QBE_NABV012@@Z="C:\Windows\SysWOW64\MSFlacEncoder".??8Application@Metadata@FLAC@@QBE_NABV012@@Z
  ??8Application@Metadata@FLAC@@QBE_NPBUFLAC__StreamMetadata@@@Z="C:\Windows\SysWOW64\MSFlacEncoder".??8Application@Metadata@FLAC@@QBE_NPBUFLAC__StreamMetadata@@@Z
  ??8CueSheet@Metadata@FLAC@@QBE_NABUFLAC__StreamMetadata@@@Z="C:\Windows\SysWOW64\MSFlacEncoder".??8CueSheet@Metadata@FLAC@@QBE_NABUFLAC__StreamMetadata@@@Z
  ??8CueSheet@Metadata@FLAC@@QBE_NABV012@@Z="C:\Windows\SysWOW64\MSFlacEncoder".??8CueSheet@Metadata@FLAC@@QBE_NABV012@@Z
  ??8CueSheet@Metadata@FLAC@@QBE_NPBUFLAC__StreamMetadata@@@Z="C:\Windows\SysWOW64\MSFlacEncoder".??8CueSheet@Metadata@FLAC@@QBE_NPBUFLAC__StreamMetadata@@@Z
  ??8Padding@Metadata@FLAC@@QBE_NABUFLAC__StreamMetadata@@@Z="C:\Windows\SysWOW64\MSFlacEncoder".??8Padding@Metadata@FLAC@@QBE_NABUFLAC__StreamMetadata@@@Z
  ??8Padding@Metadata@FLAC@@QBE_NABV012@@Z="C:\Windows\SysWOW64\MSFlacEncoder".??8Padding@Metadata@FLAC@@QBE_NABV012@@Z
  ??8Padding@Metadata@FLAC@@QBE_NPBUFLAC__StreamMetadata@@@Z="C:\Windows\SysWOW64\MSFlacEncoder".??8Padding@Metadata@FLAC@@QBE_NPBUFLAC__StreamMetadata@@@Z
  ??8Picture@Metadata@FLAC@@QBE_NABUFLAC__StreamMetadata@@@Z="C:\Windows\SysWOW64\MSFlacEncoder".??8Picture@Metadata@FLAC@@QBE_NABUFLAC__StreamMetadata@@@Z
  ??8Picture@Metadata@FLAC@@QBE_NABV012@@Z="C:\Windows\SysWOW64\MSFlacEncoder".??8Picture@Metadata@FLAC@@QBE_NABV012@@Z
  ??8Picture@Metadata@FLAC@@QBE_NPBUFLAC__StreamMetadata@@@Z="C:\Windows\SysWOW64\MSFlacEncoder".??8Picture@Metadata@FLAC@@QBE_NPBUFLAC__StreamMetadata@@@Z
  ??8Prototype@Metadata@FLAC@@QBE_NABUFLAC__StreamMetadata@@@Z="C:\Windows\SysWOW64\MSFlacEncoder".??8Prototype@Metadata@FLAC@@QBE_NABUFLAC__StreamMetadata@@@Z
  ??8Prototype@Metadata@FLAC@@QBE_NABV012@@Z="C:\Windows\SysWOW64\MSFlacEncoder".??8Prototype@Metadata@FLAC@@QBE_NABV012@@Z
  ??8Prototype@Metadata@FLAC@@QBE_NPBUFLAC__StreamMetadata@@@Z="C:\Windows\SysWOW64\MSFlacEncoder".??8Prototype@Metadata@FLAC@@QBE_NPBUFLAC__StreamMetadata@@@Z
  ??8SeekTable@Metadata@FLAC@@QBE_NABUFLAC__StreamMetadata@@@Z="C:\Windows\SysWOW64\MSFlacEncoder".??8SeekTable@Metadata@FLAC@@QBE_NABUFLAC__StreamMetadata@@@Z
  ??8SeekTable@Metadata@FLAC@@QBE_NABV012@@Z="C:\Windows\SysWOW64\MSFlacEncoder".??8SeekTable@Metadata@FLAC@@QBE_NABV012@@Z
  ??8SeekTable@Metadata@FLAC@@QBE_NPBUFLAC__StreamMetadata@@@Z="C:\Windows\SysWOW64\MSFlacEncoder".??8SeekTable@Metadata@FLAC@@QBE_NPBUFLAC__StreamMetadata@@@Z
  ??8StreamInfo@Metadata@FLAC@@QBE_NABUFLAC__StreamMetadata@@@Z="C:\Windows\SysWOW64\MSFlacEncoder".??8StreamInfo@Metadata@FLAC@@QBE_NABUFLAC__StreamMetadata@@@Z
  ??8StreamInfo@Metadata@FLAC@@QBE_NABV012@@Z="C:\Windows\SysWOW64\MSFlacEncoder".??8StreamInfo@Metadata@FLAC@@QBE_NABV012@@Z
  ??8StreamInfo@Metadata@FLAC@@QBE_NPBUFLAC__StreamMetadata@@@Z="C:\Windows\SysWOW64\MSFlacEncoder".??8StreamInfo@Metadata@FLAC@@QBE_NPBUFLAC__StreamMetadata@@@Z
  ??8Unknown@Metadata@FLAC@@QBE_NABUFLAC__StreamMetadata@@@Z="C:\Windows\SysWOW64\MSFlacEncoder".??8Unknown@Metadata@FLAC@@QBE_NABUFLAC__StreamMetadata@@@Z
  ??8Unknown@Metadata@FLAC@@QBE_NABV012@@Z="C:\Windows\SysWOW64\MSFlacEncoder".??8Unknown@Metadata@FLAC@@QBE_NABV012@@Z
  ??8Unknown@Metadata@FLAC@@QBE_NPBUFLAC__StreamMetadata@@@Z="C:\Windows\SysWOW64\MSFlacEncoder".??8Unknown@Metadata@FLAC@@QBE_NPBUFLAC__StreamMetadata@@@Z
  ??8VorbisComment@Metadata@FLAC@@QBE_NABUFLAC__StreamMetadata@@@Z="C:\Windows\SysWOW64\MSFlacEncoder".??8VorbisComment@Metadata@FLAC@@QBE_NABUFLAC__StreamMetadata@@@Z
  ??8VorbisComment@Metadata@FLAC@@QBE_NABV012@@Z="C:\Windows\SysWOW64\MSFlacEncoder".??8VorbisComment@Metadata@FLAC@@QBE_NABV012@@Z
  ??8VorbisComment@Metadata@FLAC@@QBE_NPBUFLAC__StreamMetadata@@@Z="C:\Windows\SysWOW64\MSFlacEncoder".??8VorbisComment@Metadata@FLAC@@QBE_NPBUFLAC__StreamMetadata@@@Z
  ??9Application@Metadata@FLAC@@QBE_NABUFLAC__StreamMetadata@@@Z="C:\Windows\SysWOW64\MSFlacEncoder".??9Application@Metadata@FLAC@@QBE_NABUFLAC__StreamMetadata@@@Z
  ??9Application@Metadata@FLAC@@QBE_NABV012@@Z="C:\Windows\SysWOW64\MSFlacEncoder".??9Application@Metadata@FLAC@@QBE_NABV012@@Z
  ??9Application@Metadata@FLAC@@QBE_NPBUFLAC__StreamMetadata@@@Z="C:\Windows\SysWOW64\MSFlacEncoder".??9Application@Metadata@FLAC@@QBE_NPBUFLAC__StreamMetadata@@@Z
  ??9CueSheet@Metadata@FLAC@@QBE_NABUFLAC__StreamMetadata@@@Z="C:\Windows\SysWOW64\MSFlacEncoder".??9CueSheet@Metadata@FLAC@@QBE_NABUFLAC__StreamMetadata@@@Z
  ??9CueSheet@Metadata@FLAC@@QBE_NABV012@@Z="C:\Windows\SysWOW64\MSFlacEncoder".??9CueSheet@Metadata@FLAC@@QBE_NABV012@@Z
  ??9CueSheet@Metadata@FLAC@@QBE_NPBUFLAC__StreamMetadata@@@Z="C:\Windows\SysWOW64\MSFlacEncoder".??9CueSheet@Metadata@FLAC@@QBE_NPBUFLAC__StreamMetadata@@@Z
  ??9Padding@Metadata@FLAC@@QBE_NABUFLAC__StreamMetadata@@@Z="C:\Windows\SysWOW64\MSFlacEncoder".??9Padding@Metadata@FLAC@@QBE_NABUFLAC__StreamMetadata@@@Z
  ??9Padding@Metadata@FLAC@@QBE_NABV012@@Z="C:\Windows\SysWOW64\MSFlacEncoder".??9Padding@Metadata@FLAC@@QBE_NABV012@@Z
  ??9Padding@Metadata@FLAC@@QBE_NPBUFLAC__StreamMetadata@@@Z="C:\Windows\SysWOW64\MSFlacEncoder".??9Padding@Metadata@FLAC@@QBE_NPBUFLAC__StreamMetadata@@@Z
  ??9Picture@Metadata@FLAC@@QBE_NABUFLAC__StreamMetadata@@@Z="C:\Windows\SysWOW64\MSFlacEncoder".??9Picture@Metadata@FLAC@@QBE_NABUFLAC__StreamMetadata@@@Z
  ??9Picture@Metadata@FLAC@@QBE_NABV012@@Z="C:\Windows\SysWOW64\MSFlacEncoder".??9Picture@Metadata@FLAC@@QBE_NABV012@@Z
  ??9Picture@Metadata@FLAC@@QBE_NPBUFLAC__StreamMetadata@@@Z="C:\Windows\SysWOW64\MSFlacEncoder".??9Picture@Metadata@FLAC@@QBE_NPBUFLAC__StreamMetadata@@@Z
  ??9Prototype@Metadata@FLAC@@QBE_NABUFLAC__StreamMetadata@@@Z="C:\Windows\SysWOW64\MSFlacEncoder".??9Prototype@Metadata@FLAC@@QBE_NABUFLAC__StreamMetadata@@@Z
  ??9Prototype@Metadata@FLAC@@QBE_NABV012@@Z="C:\Windows\SysWOW64\MSFlacEncoder".??9Prototype@Metadata@FLAC@@QBE_NABV012@@Z
  ??9Prototype@Metadata@FLAC@@QBE_NPBUFLAC__StreamMetadata@@@Z="C:\Windows\SysWOW64\MSFlacEncoder".??9Prototype@Metadata@FLAC@@QBE_NPBUFLAC__StreamMetadata@@@Z
  ??9SeekTable@Metadata@FLAC@@QBE_NABUFLAC__StreamMetadata@@@Z="C:\Windows\SysWOW64\MSFlacEncoder".??9SeekTable@Metadata@FLAC@@QBE_NABUFLAC__StreamMetadata@@@Z
  ??9SeekTable@Metadata@FLAC@@QBE_NABV012@@Z="C:\Windows\SysWOW64\MSFlacEncoder".??9SeekTable@Metadata@FLAC@@QBE_NABV012@@Z
  ??9SeekTable@Metadata@FLAC@@QBE_NPBUFLAC__StreamMetadata@@@Z="C:\Windows\SysWOW64\MSFlacEncoder".??9SeekTable@Metadata@FLAC@@QBE_NPBUFLAC__StreamMetadata@@@Z
  ??9StreamInfo@Metadata@FLAC@@QBE_NABUFLAC__StreamMetadata@@@Z="C:\Windows\SysWOW64\MSFlacEncoder".??9StreamInfo@Metadata@FLAC@@QBE_NABUFLAC__StreamMetadata@@@Z
  ??9StreamInfo@Metadata@FLAC@@QBE_NABV012@@Z="C:\Windows\SysWOW64\MSFlacEncoder".??9StreamInfo@Metadata@FLAC@@QBE_NABV012@@Z
  ??9StreamInfo@Metadata@FLAC@@QBE_NPBUFLAC__StreamMetadata@@@Z="C:\Windows\SysWOW64\MSFlacEncoder".??9StreamInfo@Metadata@FLAC@@QBE_NPBUFLAC__StreamMetadata@@@Z
  ??9Unknown@Metadata@FLAC@@QBE_NABUFLAC__StreamMetadata@@@Z="C:\Windows\SysWOW64\MSFlacEncoder".??9Unknown@Metadata@FLAC@@QBE_NABUFLAC__StreamMetadata@@@Z
  ??9Unknown@Metadata@FLAC@@QBE_NABV012@@Z="C:\Windows\SysWOW64\MSFlacEncoder".??9Unknown@Metadata@FLAC@@QBE_NABV012@@Z
  ??9Unknown@Metadata@FLAC@@QBE_NPBUFLAC__StreamMetadata@@@Z="C:\Windows\SysWOW64\MSFlacEncoder".??9Unknown@Metadata@FLAC@@QBE_NPBUFLAC__StreamMetadata@@@Z
  ??9VorbisComment@Metadata@FLAC@@QBE_NABUFLAC__StreamMetadata@@@Z="C:\Windows\SysWOW64\MSFlacEncoder".??9VorbisComment@Metadata@FLAC@@QBE_NABUFLAC__StreamMetadata@@@Z
  ??9VorbisComment@Metadata@FLAC@@QBE_NABV012@@Z="C:\Windows\SysWOW64\MSFlacEncoder".??9VorbisComment@Metadata@FLAC@@QBE_NABV012@@Z
  ??9VorbisComment@Metadata@FLAC@@QBE_NPBUFLAC__StreamMetadata@@@Z="C:\Windows\SysWOW64\MSFlacEncoder".??9VorbisComment@Metadata@FLAC@@QBE_NPBUFLAC__StreamMetadata@@@Z
  ??BPrototype@Metadata@FLAC@@QBEPBUFLAC__StreamMetadata@@XZ="C:\Windows\SysWOW64\MSFlacEncoder".??BPrototype@Metadata@FLAC@@QBEPBUFLAC__StreamMetadata@@XZ
  ??BState@Stream@Decoder@FLAC@@QBE?AW4FLAC__StreamDecoderState@@XZ="C:\Windows\SysWOW64\MSFlacEncoder".??BState@Stream@Decoder@FLAC@@QBE?AW4FLAC__StreamDecoderState@@XZ
  ??BState@Stream@Encoder@FLAC@@QBE?AW4FLAC__StreamEncoderState@@XZ="C:\Windows\SysWOW64\MSFlacEncoder".??BState@Stream@Encoder@FLAC@@QBE?AW4FLAC__StreamEncoderState@@XZ
  ??BStatus@Chain@Metadata@FLAC@@QBE?AW4FLAC__Metadata_ChainStatus@@XZ="C:\Windows\SysWOW64\MSFlacEncoder".??BStatus@Chain@Metadata@FLAC@@QBE?AW4FLAC__Metadata_ChainStatus@@XZ
  ??BStatus@SimpleIterator@Metadata@FLAC@@QBE?AW4FLAC__Metadata_SimpleIteratorStatus@@XZ="C:\Windows\SysWOW64\MSFlacEncoder".??BStatus@SimpleIterator@Metadata@FLAC@@QBE?AW4FLAC__Metadata_SimpleIteratorStatus@@XZ
  ??BStream@Decoder@FLAC@@QBE_NXZ="C:\Windows\SysWOW64\MSFlacEncoder".??BStream@Decoder@FLAC@@QBE_NXZ
  ??BStream@Encoder@FLAC@@QBE_NXZ="C:\Windows\SysWOW64\MSFlacEncoder".??BStream@Encoder@FLAC@@QBE_NXZ
  ??_7Application@Metadata@FLAC@@6B@="C:\Windows\SysWOW64\MSFlacEncoder".??_7Application@Metadata@FLAC@@6B@
  ??_7Chain@Metadata@FLAC@@6B@="C:\Windows\SysWOW64\MSFlacEncoder".??_7Chain@Metadata@FLAC@@6B@
  ??_7CueSheet@Metadata@FLAC@@6B@="C:\Windows\SysWOW64\MSFlacEncoder".??_7CueSheet@Metadata@FLAC@@6B@
  ??_7Iterator@Metadata@FLAC@@6B@="C:\Windows\SysWOW64\MSFlacEncoder".??_7Iterator@Metadata@FLAC@@6B@
  ??_7Padding@Metadata@FLAC@@6B@="C:\Windows\SysWOW64\MSFlacEncoder".??_7Padding@Metadata@FLAC@@6B@
  ??_7Picture@Metadata@FLAC@@6B@="C:\Windows\SysWOW64\MSFlacEncoder".??_7Picture@Metadata@FLAC@@6B@
  ??_7SeekTable@Metadata@FLAC@@6B@="C:\Windows\SysWOW64\MSFlacEncoder".??_7SeekTable@Metadata@FLAC@@6B@
  ??_7SimpleIterator@Metadata@FLAC@@6B@="C:\Windows\SysWOW64\MSFlacEncoder".??_7SimpleIterator@Metadata@FLAC@@6B@
  ??_7StreamInfo@Metadata@FLAC@@6B@="C:\Windows\SysWOW64\MSFlacEncoder".??_7StreamInfo@Metadata@FLAC@@6B@
  ??_7Unknown@Metadata@FLAC@@6B@="C:\Windows\SysWOW64\MSFlacEncoder".??_7Unknown@Metadata@FLAC@@6B@
  ??_7VorbisComment@Metadata@FLAC@@6B@="C:\Windows\SysWOW64\MSFlacEncoder".??_7VorbisComment@Metadata@FLAC@@6B@
  ?as_cstring@State@Stream@Decoder@FLAC@@QBEPBDXZ="C:\Windows\SysWOW64\MSFlacEncoder".?as_cstring@State@Stream@Decoder@FLAC@@QBEPBDXZ
  ?as_cstring@State@Stream@Encoder@FLAC@@QBEPBDXZ="C:\Windows\SysWOW64\MSFlacEncoder".?as_cstring@State@Stream@Encoder@FLAC@@QBEPBDXZ
  ?as_cstring@Status@Chain@Metadata@FLAC@@QBEPBDXZ="C:\Windows\SysWOW64\MSFlacEncoder".?as_cstring@Status@Chain@Metadata@FLAC@@QBEPBDXZ
  ?as_cstring@Status@SimpleIterator@Metadata@FLAC@@QBEPBDXZ="C:\Windows\SysWOW64\MSFlacEncoder".?as_cstring@Status@SimpleIterator@Metadata@FLAC@@QBEPBDXZ
  ?assign@Application@Metadata@FLAC@@QAEAAV123@PAUFLAC__StreamMetadata@@_N@Z="C:\Windows\SysWOW64\MSFlacEncoder".?assign@Application@Metadata@FLAC@@QAEAAV123@PAUFLAC__StreamMetadata@@_N@Z
  ?assign@CueSheet@Metadata@FLAC@@QAEAAV123@PAUFLAC__StreamMetadata@@_N@Z="C:\Windows\SysWOW64\MSFlacEncoder".?assign@CueSheet@Metadata@FLAC@@QAEAAV123@PAUFLAC__StreamMetadata@@_N@Z
  ?assign@Padding@Metadata@FLAC@@QAEAAV123@PAUFLAC__StreamMetadata@@_N@Z="C:\Windows\SysWOW64\MSFlacEncoder".?assign@Padding@Metadata@FLAC@@QAEAAV123@PAUFLAC__StreamMetadata@@_N@Z
  ?assign@Picture@Metadata@FLAC@@QAEAAV123@PAUFLAC__StreamMetadata@@_N@Z="C:\Windows\SysWOW64\MSFlacEncoder".?assign@Picture@Metadata@FLAC@@QAEAAV123@PAUFLAC__StreamMetadata@@_N@Z
  ?assign@SeekTable@Metadata@FLAC@@QAEAAV123@PAUFLAC__StreamMetadata@@_N@Z="C:\Windows\SysWOW64\MSFlacEncoder".?assign@SeekTable@Metadata@FLAC@@QAEAAV123@PAUFLAC__StreamMetadata@@_N@Z
  ?assign@StreamInfo@Metadata@FLAC@@QAEAAV123@PAUFLAC__StreamMetadata@@_N@Z="C:\Windows\SysWOW64\MSFlacEncoder".?assign@StreamInfo@Metadata@FLAC@@QAEAAV123@PAUFLAC__StreamMetadata@@_N@Z
  ?assign@Unknown@Metadata@FLAC@@QAEAAV123@PAUFLAC__StreamMetadata@@_N@Z="C:\Windows\SysWOW64\MSFlacEncoder".?assign@Unknown@Metadata@FLAC@@QAEAAV123@PAUFLAC__StreamMetadata@@_N@Z
  ?assign@VorbisComment@Metadata@FLAC@@QAEAAV123@PAUFLAC__StreamMetadata@@_N@Z="C:\Windows\SysWOW64\MSFlacEncoder".?assign@VorbisComment@Metadata@FLAC@@QAEAAV123@PAUFLAC__StreamMetadata@@_N@Z
  ?get_isrc@Track@CueSheet@Metadata@FLAC@@QBEPBDXZ="C:\Windows\SysWOW64\MSFlacEncoder".?get_isrc@Track@CueSheet@Metadata@FLAC@@QBEPBDXZ
  ?get_num_indices@Track@CueSheet@Metadata@FLAC@@QBEEXZ="C:\Windows\SysWOW64\MSFlacEncoder".?get_num_indices@Track@CueSheet@Metadata@FLAC@@QBEEXZ
  ?get_number@Track@CueSheet@Metadata@FLAC@@QBEEXZ="C:\Windows\SysWOW64\MSFlacEncoder".?get_number@Track@CueSheet@Metadata@FLAC@@QBEEXZ
  ?get_offset@Track@CueSheet@Metadata@FLAC@@QBE_KXZ="C:\Windows\SysWOW64\MSFlacEncoder".?get_offset@Track@CueSheet@Metadata@FLAC@@QBE_KXZ
  ?get_pre_emphasis@Track@CueSheet@Metadata@FLAC@@QBE_NXZ="C:\Windows\SysWOW64\MSFlacEncoder".?get_pre_emphasis@Track@CueSheet@Metadata@FLAC@@QBE_NXZ
  ?get_track@Track@CueSheet@Metadata@FLAC@@QBEPBUFLAC__StreamMetadata_CueSheet_Track@@XZ="C:\Windows\SysWOW64\MSFlacEncoder".?get_track@Track@CueSheet@Metadata@FLAC@@QBEPBUFLAC__StreamMetadata_CueSheet_Track@@XZ
  ?get_type@Track@CueSheet@Metadata@FLAC@@QBEIXZ="C:\Windows\SysWOW64\MSFlacEncoder".?get_type@Track@CueSheet@Metadata@FLAC@@QBEIXZ
  ?is_valid@Prototype@Metadata@FLAC@@QBE_NXZ="C:\Windows\SysWOW64\MSFlacEncoder".?is_valid@Prototype@Metadata@FLAC@@QBE_NXZ
  ?resolved_as_cstring@State@Stream@Decoder@FLAC@@QBEPBDABV234@@Z="C:\Windows\SysWOW64\MSFlacEncoder".?resolved_as_cstring@State@Stream@Decoder@FLAC@@QBEPBDABV234@@Z
  ?resolved_as_cstring@State@Stream@Encoder@FLAC@@QBEPBDABV234@@Z="C:\Windows\SysWOW64\MSFlacEncoder".?resolved_as_cstring@State@Stream@Encoder@FLAC@@QBEPBDABV234@@Z
  ?set_number@Track@CueSheet@Metadata@FLAC@@QAEXE@Z="C:\Windows\SysWOW64\MSFlacEncoder".?set_number@Track@CueSheet@Metadata@FLAC@@QAEXE@Z
  ?set_offset@Track@CueSheet@Metadata@FLAC@@QAEX_K@Z="C:\Windows\SysWOW64\MSFlacEncoder".?set_offset@Track@CueSheet@Metadata@FLAC@@QAEX_K@Z
  ?set_pre_emphasis@Track@CueSheet@Metadata@FLAC@@QAEX_N@Z="C:\Windows\SysWOW64\MSFlacEncoder".?set_pre_emphasis@Track@CueSheet@Metadata@FLAC@@QAEX_N@Z
  ?set_reference@Prototype@Metadata@FLAC@@AAEX_N@Z="C:\Windows\SysWOW64\MSFlacEncoder".?set_reference@Prototype@Metadata@FLAC@@AAEX_N@Z
  DllCanUnloadNow="C:\Windows\SysWOW64\MSFlacEncoder".DllCanUnloadNow
  DllGetClassObject="C:\Windows\SysWOW64\MSFlacEncoder".DllGetClassObject
