EXPORTS
  ??$_Getvals@_W@?$time_get@DV?$istreambuf_iterator@DU?$char_traits@D@std@@@std@@@std@@IAEX_WABV_Locinfo@1@@Z="C:\Windows\SysWOW64\msvcp110_win".??$_Getvals@_W@?$time_get@DV?$istreambuf_iterator@DU?$char_traits@D@std@@@std@@@std@@IAEX_WABV_Locinfo@1@@Z
  ??$_Getvals@_W@?$time_get@GV?$istreambuf_iterator@GU?$char_traits@G@std@@@std@@@std@@IAEX_WABV_Locinfo@1@@Z="C:\Windows\SysWOW64\msvcp110_win".??$_Getvals@_W@?$time_get@GV?$istreambuf_iterator@GU?$char_traits@G@std@@@std@@@std@@IAEX_WABV_Locinfo@1@@Z
  ??$_Getvals@_W@?$time_get@_WV?$istreambuf_iterator@_WU?$char_traits@_W@std@@@std@@@std@@IAEX_WABV_Locinfo@1@@Z="C:\Windows\SysWOW64\msvcp110_win".??$_Getvals@_W@?$time_get@_WV?$istreambuf_iterator@_WU?$char_traits@_W@std@@@std@@@std@@IAEX_WABV_Locinfo@1@@Z
  ??0?$_Yarn@D@std@@QAE@ABV01@@Z="C:\Windows\SysWOW64\msvcp110_win".??0?$_Yarn@D@std@@QAE@ABV01@@Z
  ??0?$_Yarn@D@std@@QAE@PBD@Z="C:\Windows\SysWOW64\msvcp110_win".??0?$_Yarn@D@std@@QAE@PBD@Z
  ??0?$_Yarn@D@std@@QAE@XZ="C:\Windows\SysWOW64\msvcp110_win".??0?$_Yarn@D@std@@QAE@XZ
  ??0?$_Yarn@_W@std@@QAE@XZ="C:\Windows\SysWOW64\msvcp110_win".??0?$_Yarn@_W@std@@QAE@XZ
  ??0?$basic_ios@DU?$char_traits@D@std@@@std@@IAE@XZ="C:\Windows\SysWOW64\msvcp110_win".??0?$basic_ios@DU?$char_traits@D@std@@@std@@IAE@XZ
  ??0?$basic_ios@DU?$char_traits@D@std@@@std@@QAE@PAV?$basic_streambuf@DU?$char_traits@D@std@@@1@@Z="C:\Windows\SysWOW64\msvcp110_win".??0?$basic_ios@DU?$char_traits@D@std@@@std@@QAE@PAV?$basic_streambuf@DU?$char_traits@D@std@@@1@@Z
  ??0?$basic_ios@GU?$char_traits@G@std@@@std@@IAE@XZ="C:\Windows\SysWOW64\msvcp110_win".??0?$basic_ios@GU?$char_traits@G@std@@@std@@IAE@XZ
  ??0?$basic_ios@GU?$char_traits@G@std@@@std@@QAE@PAV?$basic_streambuf@GU?$char_traits@G@std@@@1@@Z="C:\Windows\SysWOW64\msvcp110_win".??0?$basic_ios@GU?$char_traits@G@std@@@std@@QAE@PAV?$basic_streambuf@GU?$char_traits@G@std@@@1@@Z
  ??0?$basic_ios@_WU?$char_traits@_W@std@@@std@@IAE@XZ="C:\Windows\SysWOW64\msvcp110_win".??0?$basic_ios@_WU?$char_traits@_W@std@@@std@@IAE@XZ
  ??0?$basic_ios@_WU?$char_traits@_W@std@@@std@@QAE@PAV?$basic_streambuf@_WU?$char_traits@_W@std@@@1@@Z="C:\Windows\SysWOW64\msvcp110_win".??0?$basic_ios@_WU?$char_traits@_W@std@@@std@@QAE@PAV?$basic_streambuf@_WU?$char_traits@_W@std@@@1@@Z
  ??0?$basic_iostream@DU?$char_traits@D@std@@@std@@IAE@$$QAV01@@Z="C:\Windows\SysWOW64\msvcp110_win".??0?$basic_iostream@DU?$char_traits@D@std@@@std@@IAE@$$QAV01@@Z
  ??0?$basic_iostream@DU?$char_traits@D@std@@@std@@QAE@PAV?$basic_streambuf@DU?$char_traits@D@std@@@1@@Z="C:\Windows\SysWOW64\msvcp110_win".??0?$basic_iostream@DU?$char_traits@D@std@@@std@@QAE@PAV?$basic_streambuf@DU?$char_traits@D@std@@@1@@Z
  ??0?$basic_iostream@GU?$char_traits@G@std@@@std@@IAE@$$QAV01@@Z="C:\Windows\SysWOW64\msvcp110_win".??0?$basic_iostream@GU?$char_traits@G@std@@@std@@IAE@$$QAV01@@Z
  ??0?$basic_iostream@GU?$char_traits@G@std@@@std@@QAE@PAV?$basic_streambuf@GU?$char_traits@G@std@@@1@@Z="C:\Windows\SysWOW64\msvcp110_win".??0?$basic_iostream@GU?$char_traits@G@std@@@std@@QAE@PAV?$basic_streambuf@GU?$char_traits@G@std@@@1@@Z
  ??0?$basic_iostream@_WU?$char_traits@_W@std@@@std@@IAE@$$QAV01@@Z="C:\Windows\SysWOW64\msvcp110_win".??0?$basic_iostream@_WU?$char_traits@_W@std@@@std@@IAE@$$QAV01@@Z
  ??0?$basic_iostream@_WU?$char_traits@_W@std@@@std@@QAE@PAV?$basic_streambuf@_WU?$char_traits@_W@std@@@1@@Z="C:\Windows\SysWOW64\msvcp110_win".??0?$basic_iostream@_WU?$char_traits@_W@std@@@std@@QAE@PAV?$basic_streambuf@_WU?$char_traits@_W@std@@@1@@Z
  ??0?$basic_istream@DU?$char_traits@D@std@@@std@@IAE@$$QAV01@@Z="C:\Windows\SysWOW64\msvcp110_win".??0?$basic_istream@DU?$char_traits@D@std@@@std@@IAE@$$QAV01@@Z
  ??0?$basic_istream@DU?$char_traits@D@std@@@std@@QAE@PAV?$basic_streambuf@DU?$char_traits@D@std@@@1@_N1@Z="C:\Windows\SysWOW64\msvcp110_win".??0?$basic_istream@DU?$char_traits@D@std@@@std@@QAE@PAV?$basic_streambuf@DU?$char_traits@D@std@@@1@_N1@Z
  ??0?$basic_istream@DU?$char_traits@D@std@@@std@@QAE@PAV?$basic_streambuf@DU?$char_traits@D@std@@@1@_N@Z="C:\Windows\SysWOW64\msvcp110_win".??0?$basic_istream@DU?$char_traits@D@std@@@std@@QAE@PAV?$basic_streambuf@DU?$char_traits@D@std@@@1@_N@Z
  ??0?$basic_istream@DU?$char_traits@D@std@@@std@@QAE@W4_Uninitialized@1@@Z="C:\Windows\SysWOW64\msvcp110_win".??0?$basic_istream@DU?$char_traits@D@std@@@std@@QAE@W4_Uninitialized@1@@Z
  ??0?$basic_istream@GU?$char_traits@G@std@@@std@@IAE@$$QAV01@@Z="C:\Windows\SysWOW64\msvcp110_win".??0?$basic_istream@GU?$char_traits@G@std@@@std@@IAE@$$QAV01@@Z
  ??0?$basic_istream@GU?$char_traits@G@std@@@std@@QAE@PAV?$basic_streambuf@GU?$char_traits@G@std@@@1@_N1@Z="C:\Windows\SysWOW64\msvcp110_win".??0?$basic_istream@GU?$char_traits@G@std@@@std@@QAE@PAV?$basic_streambuf@GU?$char_traits@G@std@@@1@_N1@Z
  ??0?$basic_istream@GU?$char_traits@G@std@@@std@@QAE@PAV?$basic_streambuf@GU?$char_traits@G@std@@@1@_N@Z="C:\Windows\SysWOW64\msvcp110_win".??0?$basic_istream@GU?$char_traits@G@std@@@std@@QAE@PAV?$basic_streambuf@GU?$char_traits@G@std@@@1@_N@Z
  ??0?$basic_istream@GU?$char_traits@G@std@@@std@@QAE@W4_Uninitialized@1@@Z="C:\Windows\SysWOW64\msvcp110_win".??0?$basic_istream@GU?$char_traits@G@std@@@std@@QAE@W4_Uninitialized@1@@Z
  ??0?$basic_istream@_WU?$char_traits@_W@std@@@std@@IAE@$$QAV01@@Z="C:\Windows\SysWOW64\msvcp110_win".??0?$basic_istream@_WU?$char_traits@_W@std@@@std@@IAE@$$QAV01@@Z
  ??0?$basic_istream@_WU?$char_traits@_W@std@@@std@@QAE@PAV?$basic_streambuf@_WU?$char_traits@_W@std@@@1@_N1@Z="C:\Windows\SysWOW64\msvcp110_win".??0?$basic_istream@_WU?$char_traits@_W@std@@@std@@QAE@PAV?$basic_streambuf@_WU?$char_traits@_W@std@@@1@_N1@Z
  ??0?$basic_istream@_WU?$char_traits@_W@std@@@std@@QAE@PAV?$basic_streambuf@_WU?$char_traits@_W@std@@@1@_N@Z="C:\Windows\SysWOW64\msvcp110_win".??0?$basic_istream@_WU?$char_traits@_W@std@@@std@@QAE@PAV?$basic_streambuf@_WU?$char_traits@_W@std@@@1@_N@Z
  ??0?$basic_istream@_WU?$char_traits@_W@std@@@std@@QAE@W4_Uninitialized@1@@Z="C:\Windows\SysWOW64\msvcp110_win".??0?$basic_istream@_WU?$char_traits@_W@std@@@std@@QAE@W4_Uninitialized@1@@Z
  ??0?$basic_ostream@DU?$char_traits@D@std@@@std@@IAE@$$QAV01@@Z="C:\Windows\SysWOW64\msvcp110_win".??0?$basic_ostream@DU?$char_traits@D@std@@@std@@IAE@$$QAV01@@Z
  ??0?$basic_ostream@DU?$char_traits@D@std@@@std@@QAE@PAV?$basic_streambuf@DU?$char_traits@D@std@@@1@_N@Z="C:\Windows\SysWOW64\msvcp110_win".??0?$basic_ostream@DU?$char_traits@D@std@@@std@@QAE@PAV?$basic_streambuf@DU?$char_traits@D@std@@@1@_N@Z
  ??0?$basic_ostream@DU?$char_traits@D@std@@@std@@QAE@W4_Uninitialized@1@_N@Z="C:\Windows\SysWOW64\msvcp110_win".??0?$basic_ostream@DU?$char_traits@D@std@@@std@@QAE@W4_Uninitialized@1@_N@Z
  ??0?$basic_ostream@GU?$char_traits@G@std@@@std@@IAE@$$QAV01@@Z="C:\Windows\SysWOW64\msvcp110_win".??0?$basic_ostream@GU?$char_traits@G@std@@@std@@IAE@$$QAV01@@Z
  ??0?$basic_ostream@GU?$char_traits@G@std@@@std@@QAE@PAV?$basic_streambuf@GU?$char_traits@G@std@@@1@_N@Z="C:\Windows\SysWOW64\msvcp110_win".??0?$basic_ostream@GU?$char_traits@G@std@@@std@@QAE@PAV?$basic_streambuf@GU?$char_traits@G@std@@@1@_N@Z
  ??0?$basic_ostream@GU?$char_traits@G@std@@@std@@QAE@W4_Uninitialized@1@_N@Z="C:\Windows\SysWOW64\msvcp110_win".??0?$basic_ostream@GU?$char_traits@G@std@@@std@@QAE@W4_Uninitialized@1@_N@Z
  ??0?$basic_ostream@_WU?$char_traits@_W@std@@@std@@IAE@$$QAV01@@Z="C:\Windows\SysWOW64\msvcp110_win".??0?$basic_ostream@_WU?$char_traits@_W@std@@@std@@IAE@$$QAV01@@Z
  ??0?$basic_ostream@_WU?$char_traits@_W@std@@@std@@QAE@PAV?$basic_streambuf@_WU?$char_traits@_W@std@@@1@_N@Z="C:\Windows\SysWOW64\msvcp110_win".??0?$basic_ostream@_WU?$char_traits@_W@std@@@std@@QAE@PAV?$basic_streambuf@_WU?$char_traits@_W@std@@@1@_N@Z
  ??0?$basic_ostream@_WU?$char_traits@_W@std@@@std@@QAE@W4_Uninitialized@1@_N@Z="C:\Windows\SysWOW64\msvcp110_win".??0?$basic_ostream@_WU?$char_traits@_W@std@@@std@@QAE@W4_Uninitialized@1@_N@Z
  ??0?$basic_streambuf@DU?$char_traits@D@std@@@std@@IAE@ABV01@@Z="C:\Windows\SysWOW64\msvcp110_win".??0?$basic_streambuf@DU?$char_traits@D@std@@@std@@IAE@ABV01@@Z
  ??0?$basic_streambuf@DU?$char_traits@D@std@@@std@@IAE@W4_Uninitialized@1@@Z="C:\Windows\SysWOW64\msvcp110_win".??0?$basic_streambuf@DU?$char_traits@D@std@@@std@@IAE@W4_Uninitialized@1@@Z
  ??0?$basic_streambuf@DU?$char_traits@D@std@@@std@@IAE@XZ="C:\Windows\SysWOW64\msvcp110_win".??0?$basic_streambuf@DU?$char_traits@D@std@@@std@@IAE@XZ
  ??0?$basic_streambuf@GU?$char_traits@G@std@@@std@@IAE@ABV01@@Z="C:\Windows\SysWOW64\msvcp110_win".??0?$basic_streambuf@GU?$char_traits@G@std@@@std@@IAE@ABV01@@Z
  ??0?$basic_streambuf@GU?$char_traits@G@std@@@std@@IAE@W4_Uninitialized@1@@Z="C:\Windows\SysWOW64\msvcp110_win".??0?$basic_streambuf@GU?$char_traits@G@std@@@std@@IAE@W4_Uninitialized@1@@Z
  ??0?$basic_streambuf@GU?$char_traits@G@std@@@std@@IAE@XZ="C:\Windows\SysWOW64\msvcp110_win".??0?$basic_streambuf@GU?$char_traits@G@std@@@std@@IAE@XZ
  ??0?$basic_streambuf@_WU?$char_traits@_W@std@@@std@@IAE@ABV01@@Z="C:\Windows\SysWOW64\msvcp110_win".??0?$basic_streambuf@_WU?$char_traits@_W@std@@@std@@IAE@ABV01@@Z
  ??0?$basic_streambuf@_WU?$char_traits@_W@std@@@std@@IAE@W4_Uninitialized@1@@Z="C:\Windows\SysWOW64\msvcp110_win".??0?$basic_streambuf@_WU?$char_traits@_W@std@@@std@@IAE@W4_Uninitialized@1@@Z
  ??0?$basic_streambuf@_WU?$char_traits@_W@std@@@std@@IAE@XZ="C:\Windows\SysWOW64\msvcp110_win".??0?$basic_streambuf@_WU?$char_traits@_W@std@@@std@@IAE@XZ
  ??0?$codecvt@DDH@std@@QAE@ABV_Locinfo@1@I@Z="C:\Windows\SysWOW64\msvcp110_win".??0?$codecvt@DDH@std@@QAE@ABV_Locinfo@1@I@Z
  ??0?$codecvt@DDH@std@@QAE@I@Z="C:\Windows\SysWOW64\msvcp110_win".??0?$codecvt@DDH@std@@QAE@I@Z
  ??0?$codecvt@GDH@std@@QAE@ABV_Locinfo@1@I@Z="C:\Windows\SysWOW64\msvcp110_win".??0?$codecvt@GDH@std@@QAE@ABV_Locinfo@1@I@Z
  ??0?$codecvt@GDH@std@@QAE@I@Z="C:\Windows\SysWOW64\msvcp110_win".??0?$codecvt@GDH@std@@QAE@I@Z
  ??0?$codecvt@_SDH@std@@QAE@ABV_Locinfo@1@I@Z="C:\Windows\SysWOW64\msvcp110_win".??0?$codecvt@_SDH@std@@QAE@ABV_Locinfo@1@I@Z
  ??0?$codecvt@_SDH@std@@QAE@ABV_Locinfo@1@KW4_Codecvt_mode@1@I@Z="C:\Windows\SysWOW64\msvcp110_win".??0?$codecvt@_SDH@std@@QAE@ABV_Locinfo@1@KW4_Codecvt_mode@1@I@Z
  ??0?$codecvt@_SDH@std@@QAE@I@Z="C:\Windows\SysWOW64\msvcp110_win".??0?$codecvt@_SDH@std@@QAE@I@Z
  ??0?$codecvt@_UDH@std@@QAE@ABV_Locinfo@1@I@Z="C:\Windows\SysWOW64\msvcp110_win".??0?$codecvt@_UDH@std@@QAE@ABV_Locinfo@1@I@Z
  ??0?$codecvt@_UDH@std@@QAE@ABV_Locinfo@1@KW4_Codecvt_mode@1@I@Z="C:\Windows\SysWOW64\msvcp110_win".??0?$codecvt@_UDH@std@@QAE@ABV_Locinfo@1@KW4_Codecvt_mode@1@I@Z
  ??0?$codecvt@_UDH@std@@QAE@I@Z="C:\Windows\SysWOW64\msvcp110_win".??0?$codecvt@_UDH@std@@QAE@I@Z
  ??0?$codecvt@_WDH@std@@QAE@ABV_Locinfo@1@I@Z="C:\Windows\SysWOW64\msvcp110_win".??0?$codecvt@_WDH@std@@QAE@ABV_Locinfo@1@I@Z
  ??0?$codecvt@_WDH@std@@QAE@I@Z="C:\Windows\SysWOW64\msvcp110_win".??0?$codecvt@_WDH@std@@QAE@I@Z
  ??0?$ctype@D@std@@QAE@ABV_Locinfo@1@I@Z="C:\Windows\SysWOW64\msvcp110_win".??0?$ctype@D@std@@QAE@ABV_Locinfo@1@I@Z
  ??0?$ctype@D@std@@QAE@PBF_NI@Z="C:\Windows\SysWOW64\msvcp110_win".??0?$ctype@D@std@@QAE@PBF_NI@Z
  ??0?$ctype@G@std@@QAE@ABV_Locinfo@1@I@Z="C:\Windows\SysWOW64\msvcp110_win".??0?$ctype@G@std@@QAE@ABV_Locinfo@1@I@Z
  ??0?$ctype@G@std@@QAE@I@Z="C:\Windows\SysWOW64\msvcp110_win".??0?$ctype@G@std@@QAE@I@Z
  ??0?$ctype@_W@std@@QAE@ABV_Locinfo@1@I@Z="C:\Windows\SysWOW64\msvcp110_win".??0?$ctype@_W@std@@QAE@ABV_Locinfo@1@I@Z
  ??0?$ctype@_W@std@@QAE@I@Z="C:\Windows\SysWOW64\msvcp110_win".??0?$ctype@_W@std@@QAE@I@Z
  ??0?$num_get@DV?$istreambuf_iterator@DU?$char_traits@D@std@@@std@@@std@@QAE@ABV_Locinfo@1@I@Z="C:\Windows\SysWOW64\msvcp110_win".??0?$num_get@DV?$istreambuf_iterator@DU?$char_traits@D@std@@@std@@@std@@QAE@ABV_Locinfo@1@I@Z
  ??0?$num_get@DV?$istreambuf_iterator@DU?$char_traits@D@std@@@std@@@std@@QAE@I@Z="C:\Windows\SysWOW64\msvcp110_win".??0?$num_get@DV?$istreambuf_iterator@DU?$char_traits@D@std@@@std@@@std@@QAE@I@Z
  ??0?$num_get@GV?$istreambuf_iterator@GU?$char_traits@G@std@@@std@@@std@@QAE@ABV_Locinfo@1@I@Z="C:\Windows\SysWOW64\msvcp110_win".??0?$num_get@GV?$istreambuf_iterator@GU?$char_traits@G@std@@@std@@@std@@QAE@ABV_Locinfo@1@I@Z
  ??0?$num_get@GV?$istreambuf_iterator@GU?$char_traits@G@std@@@std@@@std@@QAE@I@Z="C:\Windows\SysWOW64\msvcp110_win".??0?$num_get@GV?$istreambuf_iterator@GU?$char_traits@G@std@@@std@@@std@@QAE@I@Z
  ??0?$num_get@_WV?$istreambuf_iterator@_WU?$char_traits@_W@std@@@std@@@std@@QAE@ABV_Locinfo@1@I@Z="C:\Windows\SysWOW64\msvcp110_win".??0?$num_get@_WV?$istreambuf_iterator@_WU?$char_traits@_W@std@@@std@@@std@@QAE@ABV_Locinfo@1@I@Z
  ??0?$num_get@_WV?$istreambuf_iterator@_WU?$char_traits@_W@std@@@std@@@std@@QAE@I@Z="C:\Windows\SysWOW64\msvcp110_win".??0?$num_get@_WV?$istreambuf_iterator@_WU?$char_traits@_W@std@@@std@@@std@@QAE@I@Z
  ??0?$num_put@DV?$ostreambuf_iterator@DU?$char_traits@D@std@@@std@@@std@@QAE@ABV_Locinfo@1@I@Z="C:\Windows\SysWOW64\msvcp110_win".??0?$num_put@DV?$ostreambuf_iterator@DU?$char_traits@D@std@@@std@@@std@@QAE@ABV_Locinfo@1@I@Z
  ??0?$num_put@DV?$ostreambuf_iterator@DU?$char_traits@D@std@@@std@@@std@@QAE@I@Z="C:\Windows\SysWOW64\msvcp110_win".??0?$num_put@DV?$ostreambuf_iterator@DU?$char_traits@D@std@@@std@@@std@@QAE@I@Z
  ??0?$num_put@GV?$ostreambuf_iterator@GU?$char_traits@G@std@@@std@@@std@@QAE@ABV_Locinfo@1@I@Z="C:\Windows\SysWOW64\msvcp110_win".??0?$num_put@GV?$ostreambuf_iterator@GU?$char_traits@G@std@@@std@@@std@@QAE@ABV_Locinfo@1@I@Z
  ??0?$num_put@GV?$ostreambuf_iterator@GU?$char_traits@G@std@@@std@@@std@@QAE@I@Z="C:\Windows\SysWOW64\msvcp110_win".??0?$num_put@GV?$ostreambuf_iterator@GU?$char_traits@G@std@@@std@@@std@@QAE@I@Z
  ??0?$num_put@_WV?$ostreambuf_iterator@_WU?$char_traits@_W@std@@@std@@@std@@QAE@ABV_Locinfo@1@I@Z="C:\Windows\SysWOW64\msvcp110_win".??0?$num_put@_WV?$ostreambuf_iterator@_WU?$char_traits@_W@std@@@std@@@std@@QAE@ABV_Locinfo@1@I@Z
  ??0?$num_put@_WV?$ostreambuf_iterator@_WU?$char_traits@_W@std@@@std@@@std@@QAE@I@Z="C:\Windows\SysWOW64\msvcp110_win".??0?$num_put@_WV?$ostreambuf_iterator@_WU?$char_traits@_W@std@@@std@@@std@@QAE@I@Z
  ??0?$time_get@DV?$istreambuf_iterator@DU?$char_traits@D@std@@@std@@@std@@IAE@PBDI@Z="C:\Windows\SysWOW64\msvcp110_win".??0?$time_get@DV?$istreambuf_iterator@DU?$char_traits@D@std@@@std@@@std@@IAE@PBDI@Z
  ??0?$time_get@DV?$istreambuf_iterator@DU?$char_traits@D@std@@@std@@@std@@QAE@ABV_Locinfo@1@I@Z="C:\Windows\SysWOW64\msvcp110_win".??0?$time_get@DV?$istreambuf_iterator@DU?$char_traits@D@std@@@std@@@std@@QAE@ABV_Locinfo@1@I@Z
  ??0?$time_get@DV?$istreambuf_iterator@DU?$char_traits@D@std@@@std@@@std@@QAE@I@Z="C:\Windows\SysWOW64\msvcp110_win".??0?$time_get@DV?$istreambuf_iterator@DU?$char_traits@D@std@@@std@@@std@@QAE@I@Z
  ??0?$time_get@GV?$istreambuf_iterator@GU?$char_traits@G@std@@@std@@@std@@IAE@PBDI@Z="C:\Windows\SysWOW64\msvcp110_win".??0?$time_get@GV?$istreambuf_iterator@GU?$char_traits@G@std@@@std@@@std@@IAE@PBDI@Z
  ??0?$time_get@GV?$istreambuf_iterator@GU?$char_traits@G@std@@@std@@@std@@QAE@ABV_Locinfo@1@I@Z="C:\Windows\SysWOW64\msvcp110_win".??0?$time_get@GV?$istreambuf_iterator@GU?$char_traits@G@std@@@std@@@std@@QAE@ABV_Locinfo@1@I@Z
  ??0?$time_get@GV?$istreambuf_iterator@GU?$char_traits@G@std@@@std@@@std@@QAE@I@Z="C:\Windows\SysWOW64\msvcp110_win".??0?$time_get@GV?$istreambuf_iterator@GU?$char_traits@G@std@@@std@@@std@@QAE@I@Z
  ??0?$time_get@_WV?$istreambuf_iterator@_WU?$char_traits@_W@std@@@std@@@std@@IAE@PBDI@Z="C:\Windows\SysWOW64\msvcp110_win".??0?$time_get@_WV?$istreambuf_iterator@_WU?$char_traits@_W@std@@@std@@@std@@IAE@PBDI@Z
  ??0?$time_get@_WV?$istreambuf_iterator@_WU?$char_traits@_W@std@@@std@@@std@@QAE@ABV_Locinfo@1@I@Z="C:\Windows\SysWOW64\msvcp110_win".??0?$time_get@_WV?$istreambuf_iterator@_WU?$char_traits@_W@std@@@std@@@std@@QAE@ABV_Locinfo@1@I@Z
  ??0?$time_get@_WV?$istreambuf_iterator@_WU?$char_traits@_W@std@@@std@@@std@@QAE@I@Z="C:\Windows\SysWOW64\msvcp110_win".??0?$time_get@_WV?$istreambuf_iterator@_WU?$char_traits@_W@std@@@std@@@std@@QAE@I@Z
  ??0?$time_put@DV?$ostreambuf_iterator@DU?$char_traits@D@std@@@std@@@std@@QAE@ABV_Locinfo@1@I@Z="C:\Windows\SysWOW64\msvcp110_win".??0?$time_put@DV?$ostreambuf_iterator@DU?$char_traits@D@std@@@std@@@std@@QAE@ABV_Locinfo@1@I@Z
  ??0?$time_put@DV?$ostreambuf_iterator@DU?$char_traits@D@std@@@std@@@std@@QAE@I@Z="C:\Windows\SysWOW64\msvcp110_win".??0?$time_put@DV?$ostreambuf_iterator@DU?$char_traits@D@std@@@std@@@std@@QAE@I@Z
  ??0?$time_put@GV?$ostreambuf_iterator@GU?$char_traits@G@std@@@std@@@std@@IAE@PBDI@Z="C:\Windows\SysWOW64\msvcp110_win".??0?$time_put@GV?$ostreambuf_iterator@GU?$char_traits@G@std@@@std@@@std@@IAE@PBDI@Z
  ??0?$time_put@GV?$ostreambuf_iterator@GU?$char_traits@G@std@@@std@@@std@@QAE@ABV_Locinfo@1@I@Z="C:\Windows\SysWOW64\msvcp110_win".??0?$time_put@GV?$ostreambuf_iterator@GU?$char_traits@G@std@@@std@@@std@@QAE@ABV_Locinfo@1@I@Z
  ??0?$time_put@GV?$ostreambuf_iterator@GU?$char_traits@G@std@@@std@@@std@@QAE@I@Z="C:\Windows\SysWOW64\msvcp110_win".??0?$time_put@GV?$ostreambuf_iterator@GU?$char_traits@G@std@@@std@@@std@@QAE@I@Z
  ??0?$time_put@_WV?$ostreambuf_iterator@_WU?$char_traits@_W@std@@@std@@@std@@IAE@PBDI@Z="C:\Windows\SysWOW64\msvcp110_win".??0?$time_put@_WV?$ostreambuf_iterator@_WU?$char_traits@_W@std@@@std@@@std@@IAE@PBDI@Z
  ??0?$time_put@_WV?$ostreambuf_iterator@_WU?$char_traits@_W@std@@@std@@@std@@QAE@ABV_Locinfo@1@I@Z="C:\Windows\SysWOW64\msvcp110_win".??0?$time_put@_WV?$ostreambuf_iterator@_WU?$char_traits@_W@std@@@std@@@std@@QAE@ABV_Locinfo@1@I@Z
  ??0?$time_put@_WV?$ostreambuf_iterator@_WU?$char_traits@_W@std@@@std@@@std@@QAE@I@Z="C:\Windows\SysWOW64\msvcp110_win".??0?$time_put@_WV?$ostreambuf_iterator@_WU?$char_traits@_W@std@@@std@@@std@@QAE@I@Z
  ??0Init@ios_base@std@@QAE@XZ="C:\Windows\SysWOW64\msvcp110_win".??0Init@ios_base@std@@QAE@XZ
  ??0_Container_base12@std@@QAE@ABU01@@Z="C:\Windows\SysWOW64\msvcp110_win".??0_Container_base12@std@@QAE@ABU01@@Z
  ??0_Container_base12@std@@QAE@XZ="C:\Windows\SysWOW64\msvcp110_win".??0_Container_base12@std@@QAE@XZ
  ??0_Facet_base@std@@QAE@ABV01@@Z="C:\Windows\SysWOW64\msvcp110_win".??0_Facet_base@std@@QAE@ABV01@@Z
  ??0_Facet_base@std@@QAE@XZ="C:\Windows\SysWOW64\msvcp110_win".??0_Facet_base@std@@QAE@XZ
  ??0_Init_locks@std@@QAE@XZ="C:\Windows\SysWOW64\msvcp110_win".??0_Init_locks@std@@QAE@XZ
  ??0_Locimp@locale@std@@AAE@ABV012@@Z="C:\Windows\SysWOW64\msvcp110_win".??0_Locimp@locale@std@@AAE@ABV012@@Z
  ??0_Locimp@locale@std@@AAE@_N@Z="C:\Windows\SysWOW64\msvcp110_win".??0_Locimp@locale@std@@AAE@_N@Z
  ??0_Locinfo@std@@QAE@HPBD@Z="C:\Windows\SysWOW64\msvcp110_win".??0_Locinfo@std@@QAE@HPBD@Z
  ??0_Locinfo@std@@QAE@PBD@Z="C:\Windows\SysWOW64\msvcp110_win".??0_Locinfo@std@@QAE@PBD@Z
  ??0_Lockit@std@@QAE@H@Z="C:\Windows\SysWOW64\msvcp110_win".??0_Lockit@std@@QAE@H@Z
  ??0_Lockit@std@@QAE@XZ="C:\Windows\SysWOW64\msvcp110_win".??0_Lockit@std@@QAE@XZ
  ??0_Pad@std@@QAE@ABV01@@Z="C:\Windows\SysWOW64\msvcp110_win".??0_Pad@std@@QAE@ABV01@@Z
  ??0_Timevec@std@@QAE@ABV01@@Z="C:\Windows\SysWOW64\msvcp110_win".??0_Timevec@std@@QAE@ABV01@@Z
  ??0_Timevec@std@@QAE@PAX@Z="C:\Windows\SysWOW64\msvcp110_win".??0_Timevec@std@@QAE@PAX@Z
  ??0_UShinit@std@@QAE@XZ="C:\Windows\SysWOW64\msvcp110_win".??0_UShinit@std@@QAE@XZ
  ??0_Winit@std@@QAE@XZ="C:\Windows\SysWOW64\msvcp110_win".??0_Winit@std@@QAE@XZ
  ??0codecvt_base@std@@QAE@I@Z="C:\Windows\SysWOW64\msvcp110_win".??0codecvt_base@std@@QAE@I@Z
  ??0ctype_base@std@@QAE@I@Z="C:\Windows\SysWOW64\msvcp110_win".??0ctype_base@std@@QAE@I@Z
  ??0facet@locale@std@@IAE@I@Z="C:\Windows\SysWOW64\msvcp110_win".??0facet@locale@std@@IAE@I@Z
  ??0id@locale@std@@QAE@I@Z="C:\Windows\SysWOW64\msvcp110_win".??0id@locale@std@@QAE@I@Z
  ??0ios_base@std@@IAE@XZ="C:\Windows\SysWOW64\msvcp110_win".??0ios_base@std@@IAE@XZ
  ??0time_base@std@@QAE@I@Z="C:\Windows\SysWOW64\msvcp110_win".??0time_base@std@@QAE@I@Z
  ??1?$_Yarn@D@std@@QAE@XZ="C:\Windows\SysWOW64\msvcp110_win".??1?$_Yarn@D@std@@QAE@XZ
  ??1?$_Yarn@_W@std@@QAE@XZ="C:\Windows\SysWOW64\msvcp110_win".??1?$_Yarn@_W@std@@QAE@XZ
  ??1?$basic_ios@DU?$char_traits@D@std@@@std@@UAE@XZ="C:\Windows\SysWOW64\msvcp110_win".??1?$basic_ios@DU?$char_traits@D@std@@@std@@UAE@XZ
  ??1?$basic_ios@GU?$char_traits@G@std@@@std@@UAE@XZ="C:\Windows\SysWOW64\msvcp110_win".??1?$basic_ios@GU?$char_traits@G@std@@@std@@UAE@XZ
  ??1?$basic_ios@_WU?$char_traits@_W@std@@@std@@UAE@XZ="C:\Windows\SysWOW64\msvcp110_win".??1?$basic_ios@_WU?$char_traits@_W@std@@@std@@UAE@XZ
  ??1?$basic_iostream@DU?$char_traits@D@std@@@std@@UAE@XZ="C:\Windows\SysWOW64\msvcp110_win".??1?$basic_iostream@DU?$char_traits@D@std@@@std@@UAE@XZ
  ??1?$basic_iostream@GU?$char_traits@G@std@@@std@@UAE@XZ="C:\Windows\SysWOW64\msvcp110_win".??1?$basic_iostream@GU?$char_traits@G@std@@@std@@UAE@XZ
  ??1?$basic_iostream@_WU?$char_traits@_W@std@@@std@@UAE@XZ="C:\Windows\SysWOW64\msvcp110_win".??1?$basic_iostream@_WU?$char_traits@_W@std@@@std@@UAE@XZ
  ??1?$basic_istream@DU?$char_traits@D@std@@@std@@UAE@XZ="C:\Windows\SysWOW64\msvcp110_win".??1?$basic_istream@DU?$char_traits@D@std@@@std@@UAE@XZ
  ??1?$basic_istream@GU?$char_traits@G@std@@@std@@UAE@XZ="C:\Windows\SysWOW64\msvcp110_win".??1?$basic_istream@GU?$char_traits@G@std@@@std@@UAE@XZ
  ??1?$basic_istream@_WU?$char_traits@_W@std@@@std@@UAE@XZ="C:\Windows\SysWOW64\msvcp110_win".??1?$basic_istream@_WU?$char_traits@_W@std@@@std@@UAE@XZ
  ??1?$basic_ostream@DU?$char_traits@D@std@@@std@@UAE@XZ="C:\Windows\SysWOW64\msvcp110_win".??1?$basic_ostream@DU?$char_traits@D@std@@@std@@UAE@XZ
  ??1?$basic_ostream@GU?$char_traits@G@std@@@std@@UAE@XZ="C:\Windows\SysWOW64\msvcp110_win".??1?$basic_ostream@GU?$char_traits@G@std@@@std@@UAE@XZ
  ??1?$basic_ostream@_WU?$char_traits@_W@std@@@std@@UAE@XZ="C:\Windows\SysWOW64\msvcp110_win".??1?$basic_ostream@_WU?$char_traits@_W@std@@@std@@UAE@XZ
  ??1?$basic_streambuf@DU?$char_traits@D@std@@@std@@UAE@XZ="C:\Windows\SysWOW64\msvcp110_win".??1?$basic_streambuf@DU?$char_traits@D@std@@@std@@UAE@XZ
  ??1?$basic_streambuf@GU?$char_traits@G@std@@@std@@UAE@XZ="C:\Windows\SysWOW64\msvcp110_win".??1?$basic_streambuf@GU?$char_traits@G@std@@@std@@UAE@XZ
  ??1?$basic_streambuf@_WU?$char_traits@_W@std@@@std@@UAE@XZ="C:\Windows\SysWOW64\msvcp110_win".??1?$basic_streambuf@_WU?$char_traits@_W@std@@@std@@UAE@XZ
  ??1?$codecvt@DDH@std@@MAE@XZ="C:\Windows\SysWOW64\msvcp110_win".??1?$codecvt@DDH@std@@MAE@XZ
  ??1?$codecvt@GDH@std@@MAE@XZ="C:\Windows\SysWOW64\msvcp110_win".??1?$codecvt@GDH@std@@MAE@XZ
  ??1?$codecvt@_SDH@std@@MAE@XZ="C:\Windows\SysWOW64\msvcp110_win".??1?$codecvt@_SDH@std@@MAE@XZ
  ??1?$codecvt@_UDH@std@@MAE@XZ="C:\Windows\SysWOW64\msvcp110_win".??1?$codecvt@_UDH@std@@MAE@XZ
  ??1?$codecvt@_WDH@std@@MAE@XZ="C:\Windows\SysWOW64\msvcp110_win".??1?$codecvt@_WDH@std@@MAE@XZ
  ??1?$ctype@D@std@@MAE@XZ="C:\Windows\SysWOW64\msvcp110_win".??1?$ctype@D@std@@MAE@XZ
  ??1?$ctype@G@std@@MAE@XZ="C:\Windows\SysWOW64\msvcp110_win".??1?$ctype@G@std@@MAE@XZ
  ??1?$ctype@_W@std@@MAE@XZ="C:\Windows\SysWOW64\msvcp110_win".??1?$ctype@_W@std@@MAE@XZ
  ??1?$num_get@DV?$istreambuf_iterator@DU?$char_traits@D@std@@@std@@@std@@MAE@XZ="C:\Windows\SysWOW64\msvcp110_win".??1?$num_get@DV?$istreambuf_iterator@DU?$char_traits@D@std@@@std@@@std@@MAE@XZ
  ??1?$num_get@GV?$istreambuf_iterator@GU?$char_traits@G@std@@@std@@@std@@MAE@XZ="C:\Windows\SysWOW64\msvcp110_win".??1?$num_get@GV?$istreambuf_iterator@GU?$char_traits@G@std@@@std@@@std@@MAE@XZ
  ??1?$num_get@_WV?$istreambuf_iterator@_WU?$char_traits@_W@std@@@std@@@std@@MAE@XZ="C:\Windows\SysWOW64\msvcp110_win".??1?$num_get@_WV?$istreambuf_iterator@_WU?$char_traits@_W@std@@@std@@@std@@MAE@XZ
  ??1?$num_put@DV?$ostreambuf_iterator@DU?$char_traits@D@std@@@std@@@std@@MAE@XZ="C:\Windows\SysWOW64\msvcp110_win".??1?$num_put@DV?$ostreambuf_iterator@DU?$char_traits@D@std@@@std@@@std@@MAE@XZ
  ??1?$num_put@GV?$ostreambuf_iterator@GU?$char_traits@G@std@@@std@@@std@@MAE@XZ="C:\Windows\SysWOW64\msvcp110_win".??1?$num_put@GV?$ostreambuf_iterator@GU?$char_traits@G@std@@@std@@@std@@MAE@XZ
  ??1?$num_put@_WV?$ostreambuf_iterator@_WU?$char_traits@_W@std@@@std@@@std@@MAE@XZ="C:\Windows\SysWOW64\msvcp110_win".??1?$num_put@_WV?$ostreambuf_iterator@_WU?$char_traits@_W@std@@@std@@@std@@MAE@XZ
  ??1?$time_get@DV?$istreambuf_iterator@DU?$char_traits@D@std@@@std@@@std@@MAE@XZ="C:\Windows\SysWOW64\msvcp110_win".??1?$time_get@DV?$istreambuf_iterator@DU?$char_traits@D@std@@@std@@@std@@MAE@XZ
  ??1?$time_get@GV?$istreambuf_iterator@GU?$char_traits@G@std@@@std@@@std@@MAE@XZ="C:\Windows\SysWOW64\msvcp110_win".??1?$time_get@GV?$istreambuf_iterator@GU?$char_traits@G@std@@@std@@@std@@MAE@XZ
  ??1?$time_get@_WV?$istreambuf_iterator@_WU?$char_traits@_W@std@@@std@@@std@@MAE@XZ="C:\Windows\SysWOW64\msvcp110_win".??1?$time_get@_WV?$istreambuf_iterator@_WU?$char_traits@_W@std@@@std@@@std@@MAE@XZ
  ??1?$time_put@DV?$ostreambuf_iterator@DU?$char_traits@D@std@@@std@@@std@@MAE@XZ="C:\Windows\SysWOW64\msvcp110_win".??1?$time_put@DV?$ostreambuf_iterator@DU?$char_traits@D@std@@@std@@@std@@MAE@XZ
  ??1?$time_put@GV?$ostreambuf_iterator@GU?$char_traits@G@std@@@std@@@std@@MAE@XZ="C:\Windows\SysWOW64\msvcp110_win".??1?$time_put@GV?$ostreambuf_iterator@GU?$char_traits@G@std@@@std@@@std@@MAE@XZ
  ??1?$time_put@_WV?$ostreambuf_iterator@_WU?$char_traits@_W@std@@@std@@@std@@MAE@XZ="C:\Windows\SysWOW64\msvcp110_win".??1?$time_put@_WV?$ostreambuf_iterator@_WU?$char_traits@_W@std@@@std@@@std@@MAE@XZ
  ??1Init@ios_base@std@@QAE@XZ="C:\Windows\SysWOW64\msvcp110_win".??1Init@ios_base@std@@QAE@XZ
  ??1_Container_base12@std@@QAE@XZ="C:\Windows\SysWOW64\msvcp110_win".??1_Container_base12@std@@QAE@XZ
  ??1_Facet_base@std@@UAE@XZ="C:\Windows\SysWOW64\msvcp110_win".??1_Facet_base@std@@UAE@XZ
  ??1_Init_locks@std@@QAE@XZ="C:\Windows\SysWOW64\msvcp110_win".??1_Init_locks@std@@QAE@XZ
  ??1_Locimp@locale@std@@MAE@XZ="C:\Windows\SysWOW64\msvcp110_win".??1_Locimp@locale@std@@MAE@XZ
  ??1_Locinfo@std@@QAE@XZ="C:\Windows\SysWOW64\msvcp110_win".??1_Locinfo@std@@QAE@XZ
  ??1_Lockit@std@@QAE@XZ="C:\Windows\SysWOW64\msvcp110_win".??1_Lockit@std@@QAE@XZ
  ??1_Timevec@std@@QAE@XZ="C:\Windows\SysWOW64\msvcp110_win".??1_Timevec@std@@QAE@XZ
  ??1_UShinit@std@@QAE@XZ="C:\Windows\SysWOW64\msvcp110_win".??1_UShinit@std@@QAE@XZ
  ??1_Winit@std@@QAE@XZ="C:\Windows\SysWOW64\msvcp110_win".??1_Winit@std@@QAE@XZ
  ??1codecvt_base@std@@UAE@XZ="C:\Windows\SysWOW64\msvcp110_win".??1codecvt_base@std@@UAE@XZ
  ??1ctype_base@std@@UAE@XZ="C:\Windows\SysWOW64\msvcp110_win".??1ctype_base@std@@UAE@XZ
  ??1facet@locale@std@@MAE@XZ="C:\Windows\SysWOW64\msvcp110_win".??1facet@locale@std@@MAE@XZ
  ??1ios_base@std@@UAE@XZ="C:\Windows\SysWOW64\msvcp110_win".??1ios_base@std@@UAE@XZ
  ??1time_base@std@@UAE@XZ="C:\Windows\SysWOW64\msvcp110_win".??1time_base@std@@UAE@XZ
  ??4?$_Iosb@H@std@@QAEAAV01@$$QAV01@@Z="C:\Windows\SysWOW64\msvcp110_win".??4?$_Iosb@H@std@@QAEAAV01@$$QAV01@@Z
  ??4?$_Iosb@H@std@@QAEAAV01@ABV01@@Z="C:\Windows\SysWOW64\msvcp110_win".??4?$_Iosb@H@std@@QAEAAV01@ABV01@@Z
  ??4?$_Yarn@D@std@@QAEAAV01@ABV01@@Z="C:\Windows\SysWOW64\msvcp110_win".??4?$_Yarn@D@std@@QAEAAV01@ABV01@@Z
  ??4?$_Yarn@D@std@@QAEAAV01@PBD@Z="C:\Windows\SysWOW64\msvcp110_win".??4?$_Yarn@D@std@@QAEAAV01@PBD@Z
  ??4?$_Yarn@_W@std@@QAEAAV01@PB_W@Z="C:\Windows\SysWOW64\msvcp110_win".??4?$_Yarn@_W@std@@QAEAAV01@PB_W@Z
  ??4?$basic_iostream@DU?$char_traits@D@std@@@std@@IAEAAV01@$$QAV01@@Z="C:\Windows\SysWOW64\msvcp110_win".??4?$basic_iostream@DU?$char_traits@D@std@@@std@@IAEAAV01@$$QAV01@@Z
  ??4?$basic_iostream@GU?$char_traits@G@std@@@std@@IAEAAV01@$$QAV01@@Z="C:\Windows\SysWOW64\msvcp110_win".??4?$basic_iostream@GU?$char_traits@G@std@@@std@@IAEAAV01@$$QAV01@@Z
  ??4?$basic_iostream@_WU?$char_traits@_W@std@@@std@@IAEAAV01@$$QAV01@@Z="C:\Windows\SysWOW64\msvcp110_win".??4?$basic_iostream@_WU?$char_traits@_W@std@@@std@@IAEAAV01@$$QAV01@@Z
  ??4?$basic_istream@DU?$char_traits@D@std@@@std@@IAEAAV01@$$QAV01@@Z="C:\Windows\SysWOW64\msvcp110_win".??4?$basic_istream@DU?$char_traits@D@std@@@std@@IAEAAV01@$$QAV01@@Z
  ??4?$basic_istream@GU?$char_traits@G@std@@@std@@IAEAAV01@$$QAV01@@Z="C:\Windows\SysWOW64\msvcp110_win".??4?$basic_istream@GU?$char_traits@G@std@@@std@@IAEAAV01@$$QAV01@@Z
  ??4?$basic_istream@_WU?$char_traits@_W@std@@@std@@IAEAAV01@$$QAV01@@Z="C:\Windows\SysWOW64\msvcp110_win".??4?$basic_istream@_WU?$char_traits@_W@std@@@std@@IAEAAV01@$$QAV01@@Z
  ??4?$basic_ostream@DU?$char_traits@D@std@@@std@@IAEAAV01@$$QAV01@@Z="C:\Windows\SysWOW64\msvcp110_win".??4?$basic_ostream@DU?$char_traits@D@std@@@std@@IAEAAV01@$$QAV01@@Z
  ??4?$basic_ostream@GU?$char_traits@G@std@@@std@@IAEAAV01@$$QAV01@@Z="C:\Windows\SysWOW64\msvcp110_win".??4?$basic_ostream@GU?$char_traits@G@std@@@std@@IAEAAV01@$$QAV01@@Z
  ??4?$basic_ostream@_WU?$char_traits@_W@std@@@std@@IAEAAV01@$$QAV01@@Z="C:\Windows\SysWOW64\msvcp110_win".??4?$basic_ostream@_WU?$char_traits@_W@std@@@std@@IAEAAV01@$$QAV01@@Z
  ??4?$basic_streambuf@DU?$char_traits@D@std@@@std@@IAEAAV01@ABV01@@Z="C:\Windows\SysWOW64\msvcp110_win".??4?$basic_streambuf@DU?$char_traits@D@std@@@std@@IAEAAV01@ABV01@@Z
  ??4?$basic_streambuf@GU?$char_traits@G@std@@@std@@IAEAAV01@ABV01@@Z="C:\Windows\SysWOW64\msvcp110_win".??4?$basic_streambuf@GU?$char_traits@G@std@@@std@@IAEAAV01@ABV01@@Z
  ??4?$basic_streambuf@_WU?$char_traits@_W@std@@@std@@IAEAAV01@ABV01@@Z="C:\Windows\SysWOW64\msvcp110_win".??4?$basic_streambuf@_WU?$char_traits@_W@std@@@std@@IAEAAV01@ABV01@@Z
  ??4Init@ios_base@std@@QAEAAV012@ABV012@@Z="C:\Windows\SysWOW64\msvcp110_win".??4Init@ios_base@std@@QAEAAV012@ABV012@@Z
  ??4_Container_base0@std@@QAEAAU01@$$QAU01@@Z="C:\Windows\SysWOW64\msvcp110_win".??4_Container_base0@std@@QAEAAU01@$$QAU01@@Z
  ??4_Container_base0@std@@QAEAAU01@ABU01@@Z="C:\Windows\SysWOW64\msvcp110_win".??4_Container_base0@std@@QAEAAU01@ABU01@@Z
  ??4_Container_base12@std@@QAEAAU01@ABU01@@Z="C:\Windows\SysWOW64\msvcp110_win".??4_Container_base12@std@@QAEAAU01@ABU01@@Z
  ??4_Facet_base@std@@QAEAAV01@ABV01@@Z="C:\Windows\SysWOW64\msvcp110_win".??4_Facet_base@std@@QAEAAV01@ABV01@@Z
  ??4_Init_locks@std@@QAEAAV01@ABV01@@Z="C:\Windows\SysWOW64\msvcp110_win".??4_Init_locks@std@@QAEAAV01@ABV01@@Z
  ??4_Pad@std@@QAEAAV01@ABV01@@Z="C:\Windows\SysWOW64\msvcp110_win".??4_Pad@std@@QAEAAV01@ABV01@@Z
  ??4_Timevec@std@@QAEAAV01@ABV01@@Z="C:\Windows\SysWOW64\msvcp110_win".??4_Timevec@std@@QAEAAV01@ABV01@@Z
  ??4_UShinit@std@@QAEAAV01@ABV01@@Z="C:\Windows\SysWOW64\msvcp110_win".??4_UShinit@std@@QAEAAV01@ABV01@@Z
  ??4_Winit@std@@QAEAAV01@ABV01@@Z="C:\Windows\SysWOW64\msvcp110_win".??4_Winit@std@@QAEAAV01@ABV01@@Z
  ??5?$basic_istream@DU?$char_traits@D@std@@@std@@QAEAAV01@AAF@Z="C:\Windows\SysWOW64\msvcp110_win".??5?$basic_istream@DU?$char_traits@D@std@@@std@@QAEAAV01@AAF@Z
  ??5?$basic_istream@DU?$char_traits@D@std@@@std@@QAEAAV01@AAG@Z="C:\Windows\SysWOW64\msvcp110_win".??5?$basic_istream@DU?$char_traits@D@std@@@std@@QAEAAV01@AAG@Z
  ??5?$basic_istream@DU?$char_traits@D@std@@@std@@QAEAAV01@AAH@Z="C:\Windows\SysWOW64\msvcp110_win".??5?$basic_istream@DU?$char_traits@D@std@@@std@@QAEAAV01@AAH@Z
  ??5?$basic_istream@DU?$char_traits@D@std@@@std@@QAEAAV01@AAI@Z="C:\Windows\SysWOW64\msvcp110_win".??5?$basic_istream@DU?$char_traits@D@std@@@std@@QAEAAV01@AAI@Z
  ??5?$basic_istream@DU?$char_traits@D@std@@@std@@QAEAAV01@AAJ@Z="C:\Windows\SysWOW64\msvcp110_win".??5?$basic_istream@DU?$char_traits@D@std@@@std@@QAEAAV01@AAJ@Z
  ??5?$basic_istream@DU?$char_traits@D@std@@@std@@QAEAAV01@AAK@Z="C:\Windows\SysWOW64\msvcp110_win".??5?$basic_istream@DU?$char_traits@D@std@@@std@@QAEAAV01@AAK@Z
  ??5?$basic_istream@DU?$char_traits@D@std@@@std@@QAEAAV01@AAM@Z="C:\Windows\SysWOW64\msvcp110_win".??5?$basic_istream@DU?$char_traits@D@std@@@std@@QAEAAV01@AAM@Z
  ??5?$basic_istream@DU?$char_traits@D@std@@@std@@QAEAAV01@AAN@Z="C:\Windows\SysWOW64\msvcp110_win".??5?$basic_istream@DU?$char_traits@D@std@@@std@@QAEAAV01@AAN@Z
  ??5?$basic_istream@DU?$char_traits@D@std@@@std@@QAEAAV01@AAO@Z="C:\Windows\SysWOW64\msvcp110_win".??5?$basic_istream@DU?$char_traits@D@std@@@std@@QAEAAV01@AAO@Z
  ??5?$basic_istream@DU?$char_traits@D@std@@@std@@QAEAAV01@AAPAX@Z="C:\Windows\SysWOW64\msvcp110_win".??5?$basic_istream@DU?$char_traits@D@std@@@std@@QAEAAV01@AAPAX@Z
  ??5?$basic_istream@DU?$char_traits@D@std@@@std@@QAEAAV01@AA_J@Z="C:\Windows\SysWOW64\msvcp110_win".??5?$basic_istream@DU?$char_traits@D@std@@@std@@QAEAAV01@AA_J@Z
  ??5?$basic_istream@DU?$char_traits@D@std@@@std@@QAEAAV01@AA_K@Z="C:\Windows\SysWOW64\msvcp110_win".??5?$basic_istream@DU?$char_traits@D@std@@@std@@QAEAAV01@AA_K@Z
  ??5?$basic_istream@DU?$char_traits@D@std@@@std@@QAEAAV01@AA_N@Z="C:\Windows\SysWOW64\msvcp110_win".??5?$basic_istream@DU?$char_traits@D@std@@@std@@QAEAAV01@AA_N@Z
  ??5?$basic_istream@DU?$char_traits@D@std@@@std@@QAEAAV01@P6AAAV01@AAV01@@Z@Z="C:\Windows\SysWOW64\msvcp110_win".??5?$basic_istream@DU?$char_traits@D@std@@@std@@QAEAAV01@P6AAAV01@AAV01@@Z@Z
  ??5?$basic_istream@DU?$char_traits@D@std@@@std@@QAEAAV01@P6AAAV?$basic_ios@DU?$char_traits@D@std@@@1@AAV21@@Z@Z="C:\Windows\SysWOW64\msvcp110_win".??5?$basic_istream@DU?$char_traits@D@std@@@std@@QAEAAV01@P6AAAV?$basic_ios@DU?$char_traits@D@std@@@1@AAV21@@Z@Z
  ??5?$basic_istream@DU?$char_traits@D@std@@@std@@QAEAAV01@P6AAAVios_base@1@AAV21@@Z@Z="C:\Windows\SysWOW64\msvcp110_win".??5?$basic_istream@DU?$char_traits@D@std@@@std@@QAEAAV01@P6AAAVios_base@1@AAV21@@Z@Z
  ??5?$basic_istream@DU?$char_traits@D@std@@@std@@QAEAAV01@PAV?$basic_streambuf@DU?$char_traits@D@std@@@1@@Z="C:\Windows\SysWOW64\msvcp110_win".??5?$basic_istream@DU?$char_traits@D@std@@@std@@QAEAAV01@PAV?$basic_streambuf@DU?$char_traits@D@std@@@1@@Z
  ??5?$basic_istream@GU?$char_traits@G@std@@@std@@QAEAAV01@AAF@Z="C:\Windows\SysWOW64\msvcp110_win".??5?$basic_istream@GU?$char_traits@G@std@@@std@@QAEAAV01@AAF@Z
  ??5?$basic_istream@GU?$char_traits@G@std@@@std@@QAEAAV01@AAG@Z="C:\Windows\SysWOW64\msvcp110_win".??5?$basic_istream@GU?$char_traits@G@std@@@std@@QAEAAV01@AAG@Z
  ??5?$basic_istream@GU?$char_traits@G@std@@@std@@QAEAAV01@AAH@Z="C:\Windows\SysWOW64\msvcp110_win".??5?$basic_istream@GU?$char_traits@G@std@@@std@@QAEAAV01@AAH@Z
  ??5?$basic_istream@GU?$char_traits@G@std@@@std@@QAEAAV01@AAI@Z="C:\Windows\SysWOW64\msvcp110_win".??5?$basic_istream@GU?$char_traits@G@std@@@std@@QAEAAV01@AAI@Z
  ??5?$basic_istream@GU?$char_traits@G@std@@@std@@QAEAAV01@AAJ@Z="C:\Windows\SysWOW64\msvcp110_win".??5?$basic_istream@GU?$char_traits@G@std@@@std@@QAEAAV01@AAJ@Z
  ??5?$basic_istream@GU?$char_traits@G@std@@@std@@QAEAAV01@AAK@Z="C:\Windows\SysWOW64\msvcp110_win".??5?$basic_istream@GU?$char_traits@G@std@@@std@@QAEAAV01@AAK@Z
  ??5?$basic_istream@GU?$char_traits@G@std@@@std@@QAEAAV01@AAM@Z="C:\Windows\SysWOW64\msvcp110_win".??5?$basic_istream@GU?$char_traits@G@std@@@std@@QAEAAV01@AAM@Z
  ??5?$basic_istream@GU?$char_traits@G@std@@@std@@QAEAAV01@AAN@Z="C:\Windows\SysWOW64\msvcp110_win".??5?$basic_istream@GU?$char_traits@G@std@@@std@@QAEAAV01@AAN@Z
  ??5?$basic_istream@GU?$char_traits@G@std@@@std@@QAEAAV01@AAO@Z="C:\Windows\SysWOW64\msvcp110_win".??5?$basic_istream@GU?$char_traits@G@std@@@std@@QAEAAV01@AAO@Z
  ??5?$basic_istream@GU?$char_traits@G@std@@@std@@QAEAAV01@AAPAX@Z="C:\Windows\SysWOW64\msvcp110_win".??5?$basic_istream@GU?$char_traits@G@std@@@std@@QAEAAV01@AAPAX@Z
  ??5?$basic_istream@GU?$char_traits@G@std@@@std@@QAEAAV01@AA_J@Z="C:\Windows\SysWOW64\msvcp110_win".??5?$basic_istream@GU?$char_traits@G@std@@@std@@QAEAAV01@AA_J@Z
  ??5?$basic_istream@GU?$char_traits@G@std@@@std@@QAEAAV01@AA_K@Z="C:\Windows\SysWOW64\msvcp110_win".??5?$basic_istream@GU?$char_traits@G@std@@@std@@QAEAAV01@AA_K@Z
  ??5?$basic_istream@GU?$char_traits@G@std@@@std@@QAEAAV01@AA_N@Z="C:\Windows\SysWOW64\msvcp110_win".??5?$basic_istream@GU?$char_traits@G@std@@@std@@QAEAAV01@AA_N@Z
  ??5?$basic_istream@GU?$char_traits@G@std@@@std@@QAEAAV01@P6AAAV01@AAV01@@Z@Z="C:\Windows\SysWOW64\msvcp110_win".??5?$basic_istream@GU?$char_traits@G@std@@@std@@QAEAAV01@P6AAAV01@AAV01@@Z@Z
  ??5?$basic_istream@GU?$char_traits@G@std@@@std@@QAEAAV01@P6AAAV?$basic_ios@GU?$char_traits@G@std@@@1@AAV21@@Z@Z="C:\Windows\SysWOW64\msvcp110_win".??5?$basic_istream@GU?$char_traits@G@std@@@std@@QAEAAV01@P6AAAV?$basic_ios@GU?$char_traits@G@std@@@1@AAV21@@Z@Z
  ??5?$basic_istream@GU?$char_traits@G@std@@@std@@QAEAAV01@P6AAAVios_base@1@AAV21@@Z@Z="C:\Windows\SysWOW64\msvcp110_win".??5?$basic_istream@GU?$char_traits@G@std@@@std@@QAEAAV01@P6AAAVios_base@1@AAV21@@Z@Z
  ??5?$basic_istream@GU?$char_traits@G@std@@@std@@QAEAAV01@PAV?$basic_streambuf@GU?$char_traits@G@std@@@1@@Z="C:\Windows\SysWOW64\msvcp110_win".??5?$basic_istream@GU?$char_traits@G@std@@@std@@QAEAAV01@PAV?$basic_streambuf@GU?$char_traits@G@std@@@1@@Z
  ??5?$basic_istream@_WU?$char_traits@_W@std@@@std@@QAEAAV01@AAF@Z="C:\Windows\SysWOW64\msvcp110_win".??5?$basic_istream@_WU?$char_traits@_W@std@@@std@@QAEAAV01@AAF@Z
  ??5?$basic_istream@_WU?$char_traits@_W@std@@@std@@QAEAAV01@AAG@Z="C:\Windows\SysWOW64\msvcp110_win".??5?$basic_istream@_WU?$char_traits@_W@std@@@std@@QAEAAV01@AAG@Z
  ??5?$basic_istream@_WU?$char_traits@_W@std@@@std@@QAEAAV01@AAH@Z="C:\Windows\SysWOW64\msvcp110_win".??5?$basic_istream@_WU?$char_traits@_W@std@@@std@@QAEAAV01@AAH@Z
  ??5?$basic_istream@_WU?$char_traits@_W@std@@@std@@QAEAAV01@AAI@Z="C:\Windows\SysWOW64\msvcp110_win".??5?$basic_istream@_WU?$char_traits@_W@std@@@std@@QAEAAV01@AAI@Z
  ??5?$basic_istream@_WU?$char_traits@_W@std@@@std@@QAEAAV01@AAJ@Z="C:\Windows\SysWOW64\msvcp110_win".??5?$basic_istream@_WU?$char_traits@_W@std@@@std@@QAEAAV01@AAJ@Z
  ??5?$basic_istream@_WU?$char_traits@_W@std@@@std@@QAEAAV01@AAK@Z="C:\Windows\SysWOW64\msvcp110_win".??5?$basic_istream@_WU?$char_traits@_W@std@@@std@@QAEAAV01@AAK@Z
  ??5?$basic_istream@_WU?$char_traits@_W@std@@@std@@QAEAAV01@AAM@Z="C:\Windows\SysWOW64\msvcp110_win".??5?$basic_istream@_WU?$char_traits@_W@std@@@std@@QAEAAV01@AAM@Z
  ??5?$basic_istream@_WU?$char_traits@_W@std@@@std@@QAEAAV01@AAN@Z="C:\Windows\SysWOW64\msvcp110_win".??5?$basic_istream@_WU?$char_traits@_W@std@@@std@@QAEAAV01@AAN@Z
  ??5?$basic_istream@_WU?$char_traits@_W@std@@@std@@QAEAAV01@AAO@Z="C:\Windows\SysWOW64\msvcp110_win".??5?$basic_istream@_WU?$char_traits@_W@std@@@std@@QAEAAV01@AAO@Z
  ??5?$basic_istream@_WU?$char_traits@_W@std@@@std@@QAEAAV01@AAPAX@Z="C:\Windows\SysWOW64\msvcp110_win".??5?$basic_istream@_WU?$char_traits@_W@std@@@std@@QAEAAV01@AAPAX@Z
  ??5?$basic_istream@_WU?$char_traits@_W@std@@@std@@QAEAAV01@AA_J@Z="C:\Windows\SysWOW64\msvcp110_win".??5?$basic_istream@_WU?$char_traits@_W@std@@@std@@QAEAAV01@AA_J@Z
  ??5?$basic_istream@_WU?$char_traits@_W@std@@@std@@QAEAAV01@AA_K@Z="C:\Windows\SysWOW64\msvcp110_win".??5?$basic_istream@_WU?$char_traits@_W@std@@@std@@QAEAAV01@AA_K@Z
  ??5?$basic_istream@_WU?$char_traits@_W@std@@@std@@QAEAAV01@AA_N@Z="C:\Windows\SysWOW64\msvcp110_win".??5?$basic_istream@_WU?$char_traits@_W@std@@@std@@QAEAAV01@AA_N@Z
  ??5?$basic_istream@_WU?$char_traits@_W@std@@@std@@QAEAAV01@P6AAAV01@AAV01@@Z@Z="C:\Windows\SysWOW64\msvcp110_win".??5?$basic_istream@_WU?$char_traits@_W@std@@@std@@QAEAAV01@P6AAAV01@AAV01@@Z@Z
  ??5?$basic_istream@_WU?$char_traits@_W@std@@@std@@QAEAAV01@P6AAAV?$basic_ios@_WU?$char_traits@_W@std@@@1@AAV21@@Z@Z="C:\Windows\SysWOW64\msvcp110_win".??5?$basic_istream@_WU?$char_traits@_W@std@@@std@@QAEAAV01@P6AAAV?$basic_ios@_WU?$char_traits@_W@std@@@1@AAV21@@Z@Z
  ??5?$basic_istream@_WU?$char_traits@_W@std@@@std@@QAEAAV01@P6AAAVios_base@1@AAV21@@Z@Z="C:\Windows\SysWOW64\msvcp110_win".??5?$basic_istream@_WU?$char_traits@_W@std@@@std@@QAEAAV01@P6AAAVios_base@1@AAV21@@Z@Z
  ??5?$basic_istream@_WU?$char_traits@_W@std@@@std@@QAEAAV01@PAV?$basic_streambuf@_WU?$char_traits@_W@std@@@1@@Z="C:\Windows\SysWOW64\msvcp110_win".??5?$basic_istream@_WU?$char_traits@_W@std@@@std@@QAEAAV01@PAV?$basic_streambuf@_WU?$char_traits@_W@std@@@1@@Z
  ??6?$basic_ostream@DU?$char_traits@D@std@@@std@@QAEAAV01@F@Z="C:\Windows\SysWOW64\msvcp110_win".??6?$basic_ostream@DU?$char_traits@D@std@@@std@@QAEAAV01@F@Z
  ??6?$basic_ostream@DU?$char_traits@D@std@@@std@@QAEAAV01@G@Z="C:\Windows\SysWOW64\msvcp110_win".??6?$basic_ostream@DU?$char_traits@D@std@@@std@@QAEAAV01@G@Z
  ??6?$basic_ostream@DU?$char_traits@D@std@@@std@@QAEAAV01@H@Z="C:\Windows\SysWOW64\msvcp110_win".??6?$basic_ostream@DU?$char_traits@D@std@@@std@@QAEAAV01@H@Z
  ??6?$basic_ostream@DU?$char_traits@D@std@@@std@@QAEAAV01@I@Z="C:\Windows\SysWOW64\msvcp110_win".??6?$basic_ostream@DU?$char_traits@D@std@@@std@@QAEAAV01@I@Z
  ??6?$basic_ostream@DU?$char_traits@D@std@@@std@@QAEAAV01@J@Z="C:\Windows\SysWOW64\msvcp110_win".??6?$basic_ostream@DU?$char_traits@D@std@@@std@@QAEAAV01@J@Z
  ??6?$basic_ostream@DU?$char_traits@D@std@@@std@@QAEAAV01@K@Z="C:\Windows\SysWOW64\msvcp110_win".??6?$basic_ostream@DU?$char_traits@D@std@@@std@@QAEAAV01@K@Z
  ??6?$basic_ostream@DU?$char_traits@D@std@@@std@@QAEAAV01@M@Z="C:\Windows\SysWOW64\msvcp110_win".??6?$basic_ostream@DU?$char_traits@D@std@@@std@@QAEAAV01@M@Z
  ??6?$basic_ostream@DU?$char_traits@D@std@@@std@@QAEAAV01@N@Z="C:\Windows\SysWOW64\msvcp110_win".??6?$basic_ostream@DU?$char_traits@D@std@@@std@@QAEAAV01@N@Z
  ??6?$basic_ostream@DU?$char_traits@D@std@@@std@@QAEAAV01@O@Z="C:\Windows\SysWOW64\msvcp110_win".??6?$basic_ostream@DU?$char_traits@D@std@@@std@@QAEAAV01@O@Z
  ??6?$basic_ostream@DU?$char_traits@D@std@@@std@@QAEAAV01@P6AAAV01@AAV01@@Z@Z="C:\Windows\SysWOW64\msvcp110_win".??6?$basic_ostream@DU?$char_traits@D@std@@@std@@QAEAAV01@P6AAAV01@AAV01@@Z@Z
  ??6?$basic_ostream@DU?$char_traits@D@std@@@std@@QAEAAV01@P6AAAV?$basic_ios@DU?$char_traits@D@std@@@1@AAV21@@Z@Z="C:\Windows\SysWOW64\msvcp110_win".??6?$basic_ostream@DU?$char_traits@D@std@@@std@@QAEAAV01@P6AAAV?$basic_ios@DU?$char_traits@D@std@@@1@AAV21@@Z@Z
  ??6?$basic_ostream@DU?$char_traits@D@std@@@std@@QAEAAV01@P6AAAVios_base@1@AAV21@@Z@Z="C:\Windows\SysWOW64\msvcp110_win".??6?$basic_ostream@DU?$char_traits@D@std@@@std@@QAEAAV01@P6AAAVios_base@1@AAV21@@Z@Z
  ??6?$basic_ostream@DU?$char_traits@D@std@@@std@@QAEAAV01@PAV?$basic_streambuf@DU?$char_traits@D@std@@@1@@Z="C:\Windows\SysWOW64\msvcp110_win".??6?$basic_ostream@DU?$char_traits@D@std@@@std@@QAEAAV01@PAV?$basic_streambuf@DU?$char_traits@D@std@@@1@@Z
  ??6?$basic_ostream@DU?$char_traits@D@std@@@std@@QAEAAV01@PBX@Z="C:\Windows\SysWOW64\msvcp110_win".??6?$basic_ostream@DU?$char_traits@D@std@@@std@@QAEAAV01@PBX@Z
  ??6?$basic_ostream@DU?$char_traits@D@std@@@std@@QAEAAV01@_J@Z="C:\Windows\SysWOW64\msvcp110_win".??6?$basic_ostream@DU?$char_traits@D@std@@@std@@QAEAAV01@_J@Z
  ??6?$basic_ostream@DU?$char_traits@D@std@@@std@@QAEAAV01@_K@Z="C:\Windows\SysWOW64\msvcp110_win".??6?$basic_ostream@DU?$char_traits@D@std@@@std@@QAEAAV01@_K@Z
  ??6?$basic_ostream@DU?$char_traits@D@std@@@std@@QAEAAV01@_N@Z="C:\Windows\SysWOW64\msvcp110_win".??6?$basic_ostream@DU?$char_traits@D@std@@@std@@QAEAAV01@_N@Z
  ??6?$basic_ostream@GU?$char_traits@G@std@@@std@@QAEAAV01@F@Z="C:\Windows\SysWOW64\msvcp110_win".??6?$basic_ostream@GU?$char_traits@G@std@@@std@@QAEAAV01@F@Z
  ??6?$basic_ostream@GU?$char_traits@G@std@@@std@@QAEAAV01@G@Z="C:\Windows\SysWOW64\msvcp110_win".??6?$basic_ostream@GU?$char_traits@G@std@@@std@@QAEAAV01@G@Z
  ??6?$basic_ostream@GU?$char_traits@G@std@@@std@@QAEAAV01@H@Z="C:\Windows\SysWOW64\msvcp110_win".??6?$basic_ostream@GU?$char_traits@G@std@@@std@@QAEAAV01@H@Z
  ??6?$basic_ostream@GU?$char_traits@G@std@@@std@@QAEAAV01@I@Z="C:\Windows\SysWOW64\msvcp110_win".??6?$basic_ostream@GU?$char_traits@G@std@@@std@@QAEAAV01@I@Z
  ??6?$basic_ostream@GU?$char_traits@G@std@@@std@@QAEAAV01@J@Z="C:\Windows\SysWOW64\msvcp110_win".??6?$basic_ostream@GU?$char_traits@G@std@@@std@@QAEAAV01@J@Z
  ??6?$basic_ostream@GU?$char_traits@G@std@@@std@@QAEAAV01@K@Z="C:\Windows\SysWOW64\msvcp110_win".??6?$basic_ostream@GU?$char_traits@G@std@@@std@@QAEAAV01@K@Z
  ??6?$basic_ostream@GU?$char_traits@G@std@@@std@@QAEAAV01@M@Z="C:\Windows\SysWOW64\msvcp110_win".??6?$basic_ostream@GU?$char_traits@G@std@@@std@@QAEAAV01@M@Z
  ??6?$basic_ostream@GU?$char_traits@G@std@@@std@@QAEAAV01@N@Z="C:\Windows\SysWOW64\msvcp110_win".??6?$basic_ostream@GU?$char_traits@G@std@@@std@@QAEAAV01@N@Z
  ??6?$basic_ostream@GU?$char_traits@G@std@@@std@@QAEAAV01@O@Z="C:\Windows\SysWOW64\msvcp110_win".??6?$basic_ostream@GU?$char_traits@G@std@@@std@@QAEAAV01@O@Z
  ??6?$basic_ostream@GU?$char_traits@G@std@@@std@@QAEAAV01@P6AAAV01@AAV01@@Z@Z="C:\Windows\SysWOW64\msvcp110_win".??6?$basic_ostream@GU?$char_traits@G@std@@@std@@QAEAAV01@P6AAAV01@AAV01@@Z@Z
  ??6?$basic_ostream@GU?$char_traits@G@std@@@std@@QAEAAV01@P6AAAV?$basic_ios@GU?$char_traits@G@std@@@1@AAV21@@Z@Z="C:\Windows\SysWOW64\msvcp110_win".??6?$basic_ostream@GU?$char_traits@G@std@@@std@@QAEAAV01@P6AAAV?$basic_ios@GU?$char_traits@G@std@@@1@AAV21@@Z@Z
  ??6?$basic_ostream@GU?$char_traits@G@std@@@std@@QAEAAV01@P6AAAVios_base@1@AAV21@@Z@Z="C:\Windows\SysWOW64\msvcp110_win".??6?$basic_ostream@GU?$char_traits@G@std@@@std@@QAEAAV01@P6AAAVios_base@1@AAV21@@Z@Z
  ??6?$basic_ostream@GU?$char_traits@G@std@@@std@@QAEAAV01@PAV?$basic_streambuf@GU?$char_traits@G@std@@@1@@Z="C:\Windows\SysWOW64\msvcp110_win".??6?$basic_ostream@GU?$char_traits@G@std@@@std@@QAEAAV01@PAV?$basic_streambuf@GU?$char_traits@G@std@@@1@@Z
  ??6?$basic_ostream@GU?$char_traits@G@std@@@std@@QAEAAV01@PBX@Z="C:\Windows\SysWOW64\msvcp110_win".??6?$basic_ostream@GU?$char_traits@G@std@@@std@@QAEAAV01@PBX@Z
  ??6?$basic_ostream@GU?$char_traits@G@std@@@std@@QAEAAV01@_J@Z="C:\Windows\SysWOW64\msvcp110_win".??6?$basic_ostream@GU?$char_traits@G@std@@@std@@QAEAAV01@_J@Z
  ??6?$basic_ostream@GU?$char_traits@G@std@@@std@@QAEAAV01@_K@Z="C:\Windows\SysWOW64\msvcp110_win".??6?$basic_ostream@GU?$char_traits@G@std@@@std@@QAEAAV01@_K@Z
  ??6?$basic_ostream@GU?$char_traits@G@std@@@std@@QAEAAV01@_N@Z="C:\Windows\SysWOW64\msvcp110_win".??6?$basic_ostream@GU?$char_traits@G@std@@@std@@QAEAAV01@_N@Z
  ??6?$basic_ostream@_WU?$char_traits@_W@std@@@std@@QAEAAV01@F@Z="C:\Windows\SysWOW64\msvcp110_win".??6?$basic_ostream@_WU?$char_traits@_W@std@@@std@@QAEAAV01@F@Z
  ??6?$basic_ostream@_WU?$char_traits@_W@std@@@std@@QAEAAV01@G@Z="C:\Windows\SysWOW64\msvcp110_win".??6?$basic_ostream@_WU?$char_traits@_W@std@@@std@@QAEAAV01@G@Z
  ??6?$basic_ostream@_WU?$char_traits@_W@std@@@std@@QAEAAV01@H@Z="C:\Windows\SysWOW64\msvcp110_win".??6?$basic_ostream@_WU?$char_traits@_W@std@@@std@@QAEAAV01@H@Z
  ??6?$basic_ostream@_WU?$char_traits@_W@std@@@std@@QAEAAV01@I@Z="C:\Windows\SysWOW64\msvcp110_win".??6?$basic_ostream@_WU?$char_traits@_W@std@@@std@@QAEAAV01@I@Z
  ??6?$basic_ostream@_WU?$char_traits@_W@std@@@std@@QAEAAV01@J@Z="C:\Windows\SysWOW64\msvcp110_win".??6?$basic_ostream@_WU?$char_traits@_W@std@@@std@@QAEAAV01@J@Z
  ??6?$basic_ostream@_WU?$char_traits@_W@std@@@std@@QAEAAV01@K@Z="C:\Windows\SysWOW64\msvcp110_win".??6?$basic_ostream@_WU?$char_traits@_W@std@@@std@@QAEAAV01@K@Z
  ??6?$basic_ostream@_WU?$char_traits@_W@std@@@std@@QAEAAV01@M@Z="C:\Windows\SysWOW64\msvcp110_win".??6?$basic_ostream@_WU?$char_traits@_W@std@@@std@@QAEAAV01@M@Z
  ??6?$basic_ostream@_WU?$char_traits@_W@std@@@std@@QAEAAV01@N@Z="C:\Windows\SysWOW64\msvcp110_win".??6?$basic_ostream@_WU?$char_traits@_W@std@@@std@@QAEAAV01@N@Z
  ??6?$basic_ostream@_WU?$char_traits@_W@std@@@std@@QAEAAV01@O@Z="C:\Windows\SysWOW64\msvcp110_win".??6?$basic_ostream@_WU?$char_traits@_W@std@@@std@@QAEAAV01@O@Z
  ??6?$basic_ostream@_WU?$char_traits@_W@std@@@std@@QAEAAV01@P6AAAV01@AAV01@@Z@Z="C:\Windows\SysWOW64\msvcp110_win".??6?$basic_ostream@_WU?$char_traits@_W@std@@@std@@QAEAAV01@P6AAAV01@AAV01@@Z@Z
  ??6?$basic_ostream@_WU?$char_traits@_W@std@@@std@@QAEAAV01@P6AAAV?$basic_ios@_WU?$char_traits@_W@std@@@1@AAV21@@Z@Z="C:\Windows\SysWOW64\msvcp110_win".??6?$basic_ostream@_WU?$char_traits@_W@std@@@std@@QAEAAV01@P6AAAV?$basic_ios@_WU?$char_traits@_W@std@@@1@AAV21@@Z@Z
  ??6?$basic_ostream@_WU?$char_traits@_W@std@@@std@@QAEAAV01@P6AAAVios_base@1@AAV21@@Z@Z="C:\Windows\SysWOW64\msvcp110_win".??6?$basic_ostream@_WU?$char_traits@_W@std@@@std@@QAEAAV01@P6AAAVios_base@1@AAV21@@Z@Z
  ??6?$basic_ostream@_WU?$char_traits@_W@std@@@std@@QAEAAV01@PAV?$basic_streambuf@_WU?$char_traits@_W@std@@@1@@Z="C:\Windows\SysWOW64\msvcp110_win".??6?$basic_ostream@_WU?$char_traits@_W@std@@@std@@QAEAAV01@PAV?$basic_streambuf@_WU?$char_traits@_W@std@@@1@@Z
  ??6?$basic_ostream@_WU?$char_traits@_W@std@@@std@@QAEAAV01@PBX@Z="C:\Windows\SysWOW64\msvcp110_win".??6?$basic_ostream@_WU?$char_traits@_W@std@@@std@@QAEAAV01@PBX@Z
  ??6?$basic_ostream@_WU?$char_traits@_W@std@@@std@@QAEAAV01@_J@Z="C:\Windows\SysWOW64\msvcp110_win".??6?$basic_ostream@_WU?$char_traits@_W@std@@@std@@QAEAAV01@_J@Z
  ??6?$basic_ostream@_WU?$char_traits@_W@std@@@std@@QAEAAV01@_K@Z="C:\Windows\SysWOW64\msvcp110_win".??6?$basic_ostream@_WU?$char_traits@_W@std@@@std@@QAEAAV01@_K@Z
  ??6?$basic_ostream@_WU?$char_traits@_W@std@@@std@@QAEAAV01@_N@Z="C:\Windows\SysWOW64\msvcp110_win".??6?$basic_ostream@_WU?$char_traits@_W@std@@@std@@QAEAAV01@_N@Z
  ??7ios_base@std@@QBE_NXZ="C:\Windows\SysWOW64\msvcp110_win".??7ios_base@std@@QBE_NXZ
  ??Bid@locale@std@@QAEIXZ="C:\Windows\SysWOW64\msvcp110_win".??Bid@locale@std@@QAEIXZ
  ??Bios_base@std@@QBEPAXXZ="C:\Windows\SysWOW64\msvcp110_win".??Bios_base@std@@QBEPAXXZ
  ??_7?$basic_ios@DU?$char_traits@D@std@@@std@@6B@="C:\Windows\SysWOW64\msvcp110_win".??_7?$basic_ios@DU?$char_traits@D@std@@@std@@6B@
  ??_7?$basic_ios@GU?$char_traits@G@std@@@std@@6B@="C:\Windows\SysWOW64\msvcp110_win".??_7?$basic_ios@GU?$char_traits@G@std@@@std@@6B@
  ??_7?$basic_ios@_WU?$char_traits@_W@std@@@std@@6B@="C:\Windows\SysWOW64\msvcp110_win".??_7?$basic_ios@_WU?$char_traits@_W@std@@@std@@6B@
  ??_7?$basic_iostream@DU?$char_traits@D@std@@@std@@6B@="C:\Windows\SysWOW64\msvcp110_win".??_7?$basic_iostream@DU?$char_traits@D@std@@@std@@6B@
  ??_7?$basic_iostream@GU?$char_traits@G@std@@@std@@6B@="C:\Windows\SysWOW64\msvcp110_win".??_7?$basic_iostream@GU?$char_traits@G@std@@@std@@6B@
  ??_7?$basic_iostream@_WU?$char_traits@_W@std@@@std@@6B@="C:\Windows\SysWOW64\msvcp110_win".??_7?$basic_iostream@_WU?$char_traits@_W@std@@@std@@6B@
  ??_7?$basic_istream@DU?$char_traits@D@std@@@std@@6B@="C:\Windows\SysWOW64\msvcp110_win".??_7?$basic_istream@DU?$char_traits@D@std@@@std@@6B@
  ??_7?$basic_istream@GU?$char_traits@G@std@@@std@@6B@="C:\Windows\SysWOW64\msvcp110_win".??_7?$basic_istream@GU?$char_traits@G@std@@@std@@6B@
  ??_7?$basic_istream@_WU?$char_traits@_W@std@@@std@@6B@="C:\Windows\SysWOW64\msvcp110_win".??_7?$basic_istream@_WU?$char_traits@_W@std@@@std@@6B@
  ??_7?$basic_ostream@DU?$char_traits@D@std@@@std@@6B@="C:\Windows\SysWOW64\msvcp110_win".??_7?$basic_ostream@DU?$char_traits@D@std@@@std@@6B@
  ??_7?$basic_ostream@GU?$char_traits@G@std@@@std@@6B@="C:\Windows\SysWOW64\msvcp110_win".??_7?$basic_ostream@GU?$char_traits@G@std@@@std@@6B@
  ??_7?$basic_ostream@_WU?$char_traits@_W@std@@@std@@6B@="C:\Windows\SysWOW64\msvcp110_win".??_7?$basic_ostream@_WU?$char_traits@_W@std@@@std@@6B@
  ??_7?$basic_streambuf@DU?$char_traits@D@std@@@std@@6B@="C:\Windows\SysWOW64\msvcp110_win".??_7?$basic_streambuf@DU?$char_traits@D@std@@@std@@6B@
  ??_7?$basic_streambuf@GU?$char_traits@G@std@@@std@@6B@="C:\Windows\SysWOW64\msvcp110_win".??_7?$basic_streambuf@GU?$char_traits@G@std@@@std@@6B@
  ??_7?$basic_streambuf@_WU?$char_traits@_W@std@@@std@@6B@="C:\Windows\SysWOW64\msvcp110_win".??_7?$basic_streambuf@_WU?$char_traits@_W@std@@@std@@6B@
  ??_7?$codecvt@DDH@std@@6B@="C:\Windows\SysWOW64\msvcp110_win".??_7?$codecvt@DDH@std@@6B@
  ??_7?$codecvt@GDH@std@@6B@="C:\Windows\SysWOW64\msvcp110_win".??_7?$codecvt@GDH@std@@6B@
  ??_7?$codecvt@_SDH@std@@6B@="C:\Windows\SysWOW64\msvcp110_win".??_7?$codecvt@_SDH@std@@6B@
  ??_7?$codecvt@_UDH@std@@6B@="C:\Windows\SysWOW64\msvcp110_win".??_7?$codecvt@_UDH@std@@6B@
  ??_7?$codecvt@_WDH@std@@6B@="C:\Windows\SysWOW64\msvcp110_win".??_7?$codecvt@_WDH@std@@6B@
  ??_7?$ctype@D@std@@6B@="C:\Windows\SysWOW64\msvcp110_win".??_7?$ctype@D@std@@6B@
  ??_7?$ctype@G@std@@6B@="C:\Windows\SysWOW64\msvcp110_win".??_7?$ctype@G@std@@6B@
  ??_7?$ctype@_W@std@@6B@="C:\Windows\SysWOW64\msvcp110_win".??_7?$ctype@_W@std@@6B@
  ??_7?$num_get@DV?$istreambuf_iterator@DU?$char_traits@D@std@@@std@@@std@@6B@="C:\Windows\SysWOW64\msvcp110_win".??_7?$num_get@DV?$istreambuf_iterator@DU?$char_traits@D@std@@@std@@@std@@6B@
  ??_7?$num_get@GV?$istreambuf_iterator@GU?$char_traits@G@std@@@std@@@std@@6B@="C:\Windows\SysWOW64\msvcp110_win".??_7?$num_get@GV?$istreambuf_iterator@GU?$char_traits@G@std@@@std@@@std@@6B@
  ??_7?$num_get@_WV?$istreambuf_iterator@_WU?$char_traits@_W@std@@@std@@@std@@6B@="C:\Windows\SysWOW64\msvcp110_win".??_7?$num_get@_WV?$istreambuf_iterator@_WU?$char_traits@_W@std@@@std@@@std@@6B@
  ??_7?$num_put@DV?$ostreambuf_iterator@DU?$char_traits@D@std@@@std@@@std@@6B@="C:\Windows\SysWOW64\msvcp110_win".??_7?$num_put@DV?$ostreambuf_iterator@DU?$char_traits@D@std@@@std@@@std@@6B@
  ??_7?$num_put@GV?$ostreambuf_iterator@GU?$char_traits@G@std@@@std@@@std@@6B@="C:\Windows\SysWOW64\msvcp110_win".??_7?$num_put@GV?$ostreambuf_iterator@GU?$char_traits@G@std@@@std@@@std@@6B@
  ??_7?$num_put@_WV?$ostreambuf_iterator@_WU?$char_traits@_W@std@@@std@@@std@@6B@="C:\Windows\SysWOW64\msvcp110_win".??_7?$num_put@_WV?$ostreambuf_iterator@_WU?$char_traits@_W@std@@@std@@@std@@6B@
  ??_7?$time_get@DV?$istreambuf_iterator@DU?$char_traits@D@std@@@std@@@std@@6B@="C:\Windows\SysWOW64\msvcp110_win".??_7?$time_get@DV?$istreambuf_iterator@DU?$char_traits@D@std@@@std@@@std@@6B@
  ??_7?$time_get@GV?$istreambuf_iterator@GU?$char_traits@G@std@@@std@@@std@@6B@="C:\Windows\SysWOW64\msvcp110_win".??_7?$time_get@GV?$istreambuf_iterator@GU?$char_traits@G@std@@@std@@@std@@6B@
  ??_7?$time_get@_WV?$istreambuf_iterator@_WU?$char_traits@_W@std@@@std@@@std@@6B@="C:\Windows\SysWOW64\msvcp110_win".??_7?$time_get@_WV?$istreambuf_iterator@_WU?$char_traits@_W@std@@@std@@@std@@6B@
  ??_7?$time_put@DV?$ostreambuf_iterator@DU?$char_traits@D@std@@@std@@@std@@6B@="C:\Windows\SysWOW64\msvcp110_win".??_7?$time_put@DV?$ostreambuf_iterator@DU?$char_traits@D@std@@@std@@@std@@6B@
  ??_7?$time_put@GV?$ostreambuf_iterator@GU?$char_traits@G@std@@@std@@@std@@6B@="C:\Windows\SysWOW64\msvcp110_win".??_7?$time_put@GV?$ostreambuf_iterator@GU?$char_traits@G@std@@@std@@@std@@6B@
  ??_7?$time_put@_WV?$ostreambuf_iterator@_WU?$char_traits@_W@std@@@std@@@std@@6B@="C:\Windows\SysWOW64\msvcp110_win".??_7?$time_put@_WV?$ostreambuf_iterator@_WU?$char_traits@_W@std@@@std@@@std@@6B@
  ??_7_Facet_base@std@@6B@="C:\Windows\SysWOW64\msvcp110_win".??_7_Facet_base@std@@6B@
  ??_7_Locimp@locale@std@@6B@="C:\Windows\SysWOW64\msvcp110_win".??_7_Locimp@locale@std@@6B@
  ??_7_Pad@std@@6B@="C:\Windows\SysWOW64\msvcp110_win".??_7_Pad@std@@6B@
  ??_7codecvt_base@std@@6B@="C:\Windows\SysWOW64\msvcp110_win".??_7codecvt_base@std@@6B@
  ??_7ctype_base@std@@6B@="C:\Windows\SysWOW64\msvcp110_win".??_7ctype_base@std@@6B@
  ??_7facet@locale@std@@6B@="C:\Windows\SysWOW64\msvcp110_win".??_7facet@locale@std@@6B@
  ??_7ios_base@std@@6B@="C:\Windows\SysWOW64\msvcp110_win".??_7ios_base@std@@6B@
  ??_7time_base@std@@6B@="C:\Windows\SysWOW64\msvcp110_win".??_7time_base@std@@6B@
  ??_8?$basic_iostream@DU?$char_traits@D@std@@@std@@7B?$basic_istream@DU?$char_traits@D@std@@@1@@="C:\Windows\SysWOW64\msvcp110_win".??_8?$basic_iostream@DU?$char_traits@D@std@@@std@@7B?$basic_istream@DU?$char_traits@D@std@@@1@@
  ??_8?$basic_iostream@DU?$char_traits@D@std@@@std@@7B?$basic_ostream@DU?$char_traits@D@std@@@1@@="C:\Windows\SysWOW64\msvcp110_win".??_8?$basic_iostream@DU?$char_traits@D@std@@@std@@7B?$basic_ostream@DU?$char_traits@D@std@@@1@@
  ??_8?$basic_iostream@GU?$char_traits@G@std@@@std@@7B?$basic_istream@GU?$char_traits@G@std@@@1@@="C:\Windows\SysWOW64\msvcp110_win".??_8?$basic_iostream@GU?$char_traits@G@std@@@std@@7B?$basic_istream@GU?$char_traits@G@std@@@1@@
  ??_8?$basic_iostream@GU?$char_traits@G@std@@@std@@7B?$basic_ostream@GU?$char_traits@G@std@@@1@@="C:\Windows\SysWOW64\msvcp110_win".??_8?$basic_iostream@GU?$char_traits@G@std@@@std@@7B?$basic_ostream@GU?$char_traits@G@std@@@1@@
  ??_8?$basic_iostream@_WU?$char_traits@_W@std@@@std@@7B?$basic_istream@_WU?$char_traits@_W@std@@@1@@="C:\Windows\SysWOW64\msvcp110_win".??_8?$basic_iostream@_WU?$char_traits@_W@std@@@std@@7B?$basic_istream@_WU?$char_traits@_W@std@@@1@@
  ??_8?$basic_iostream@_WU?$char_traits@_W@std@@@std@@7B?$basic_ostream@_WU?$char_traits@_W@std@@@1@@="C:\Windows\SysWOW64\msvcp110_win".??_8?$basic_iostream@_WU?$char_traits@_W@std@@@std@@7B?$basic_ostream@_WU?$char_traits@_W@std@@@1@@
  ??_8?$basic_istream@DU?$char_traits@D@std@@@std@@7B@="C:\Windows\SysWOW64\msvcp110_win".??_8?$basic_istream@DU?$char_traits@D@std@@@std@@7B@
  ??_8?$basic_istream@GU?$char_traits@G@std@@@std@@7B@="C:\Windows\SysWOW64\msvcp110_win".??_8?$basic_istream@GU?$char_traits@G@std@@@std@@7B@
  ??_8?$basic_istream@_WU?$char_traits@_W@std@@@std@@7B@="C:\Windows\SysWOW64\msvcp110_win".??_8?$basic_istream@_WU?$char_traits@_W@std@@@std@@7B@
  ??_8?$basic_ostream@DU?$char_traits@D@std@@@std@@7B@="C:\Windows\SysWOW64\msvcp110_win".??_8?$basic_ostream@DU?$char_traits@D@std@@@std@@7B@
  ??_8?$basic_ostream@GU?$char_traits@G@std@@@std@@7B@="C:\Windows\SysWOW64\msvcp110_win".??_8?$basic_ostream@GU?$char_traits@G@std@@@std@@7B@
  ??_8?$basic_ostream@_WU?$char_traits@_W@std@@@std@@7B@="C:\Windows\SysWOW64\msvcp110_win".??_8?$basic_ostream@_WU?$char_traits@_W@std@@@std@@7B@
  ??_D?$basic_iostream@DU?$char_traits@D@std@@@std@@QAEXXZ="C:\Windows\SysWOW64\msvcp110_win".??_D?$basic_iostream@DU?$char_traits@D@std@@@std@@QAEXXZ
  ??_D?$basic_iostream@GU?$char_traits@G@std@@@std@@QAEXXZ="C:\Windows\SysWOW64\msvcp110_win".??_D?$basic_iostream@GU?$char_traits@G@std@@@std@@QAEXXZ
  ??_D?$basic_iostream@_WU?$char_traits@_W@std@@@std@@QAEXXZ="C:\Windows\SysWOW64\msvcp110_win".??_D?$basic_iostream@_WU?$char_traits@_W@std@@@std@@QAEXXZ
  ??_D?$basic_istream@DU?$char_traits@D@std@@@std@@QAEXXZ="C:\Windows\SysWOW64\msvcp110_win".??_D?$basic_istream@DU?$char_traits@D@std@@@std@@QAEXXZ
  ??_D?$basic_istream@GU?$char_traits@G@std@@@std@@QAEXXZ="C:\Windows\SysWOW64\msvcp110_win".??_D?$basic_istream@GU?$char_traits@G@std@@@std@@QAEXXZ
  ??_D?$basic_istream@_WU?$char_traits@_W@std@@@std@@QAEXXZ="C:\Windows\SysWOW64\msvcp110_win".??_D?$basic_istream@_WU?$char_traits@_W@std@@@std@@QAEXXZ
  ??_D?$basic_ostream@DU?$char_traits@D@std@@@std@@QAEXXZ="C:\Windows\SysWOW64\msvcp110_win".??_D?$basic_ostream@DU?$char_traits@D@std@@@std@@QAEXXZ
  ??_D?$basic_ostream@GU?$char_traits@G@std@@@std@@QAEXXZ="C:\Windows\SysWOW64\msvcp110_win".??_D?$basic_ostream@GU?$char_traits@G@std@@@std@@QAEXXZ
  ??_D?$basic_ostream@_WU?$char_traits@_W@std@@@std@@QAEXXZ="C:\Windows\SysWOW64\msvcp110_win".??_D?$basic_ostream@_WU?$char_traits@_W@std@@@std@@QAEXXZ
  ??_F?$codecvt@DDH@std@@QAEXXZ="C:\Windows\SysWOW64\msvcp110_win".??_F?$codecvt@DDH@std@@QAEXXZ
  ??_F?$codecvt@GDH@std@@QAEXXZ="C:\Windows\SysWOW64\msvcp110_win".??_F?$codecvt@GDH@std@@QAEXXZ
  ??_F?$codecvt@_SDH@std@@QAEXXZ="C:\Windows\SysWOW64\msvcp110_win".??_F?$codecvt@_SDH@std@@QAEXXZ
  ??_F?$codecvt@_UDH@std@@QAEXXZ="C:\Windows\SysWOW64\msvcp110_win".??_F?$codecvt@_UDH@std@@QAEXXZ
  ??_F?$codecvt@_WDH@std@@QAEXXZ="C:\Windows\SysWOW64\msvcp110_win".??_F?$codecvt@_WDH@std@@QAEXXZ
  ??_F?$ctype@D@std@@QAEXXZ="C:\Windows\SysWOW64\msvcp110_win".??_F?$ctype@D@std@@QAEXXZ
  ??_F?$ctype@G@std@@QAEXXZ="C:\Windows\SysWOW64\msvcp110_win".??_F?$ctype@G@std@@QAEXXZ
  ??_F?$ctype@_W@std@@QAEXXZ="C:\Windows\SysWOW64\msvcp110_win".??_F?$ctype@_W@std@@QAEXXZ
  ??_F?$num_get@DV?$istreambuf_iterator@DU?$char_traits@D@std@@@std@@@std@@QAEXXZ="C:\Windows\SysWOW64\msvcp110_win".??_F?$num_get@DV?$istreambuf_iterator@DU?$char_traits@D@std@@@std@@@std@@QAEXXZ
  ??_F?$num_get@GV?$istreambuf_iterator@GU?$char_traits@G@std@@@std@@@std@@QAEXXZ="C:\Windows\SysWOW64\msvcp110_win".??_F?$num_get@GV?$istreambuf_iterator@GU?$char_traits@G@std@@@std@@@std@@QAEXXZ
  ??_F?$num_get@_WV?$istreambuf_iterator@_WU?$char_traits@_W@std@@@std@@@std@@QAEXXZ="C:\Windows\SysWOW64\msvcp110_win".??_F?$num_get@_WV?$istreambuf_iterator@_WU?$char_traits@_W@std@@@std@@@std@@QAEXXZ
  ??_F?$num_put@DV?$ostreambuf_iterator@DU?$char_traits@D@std@@@std@@@std@@QAEXXZ="C:\Windows\SysWOW64\msvcp110_win".??_F?$num_put@DV?$ostreambuf_iterator@DU?$char_traits@D@std@@@std@@@std@@QAEXXZ
  ??_F?$num_put@GV?$ostreambuf_iterator@GU?$char_traits@G@std@@@std@@@std@@QAEXXZ="C:\Windows\SysWOW64\msvcp110_win".??_F?$num_put@GV?$ostreambuf_iterator@GU?$char_traits@G@std@@@std@@@std@@QAEXXZ
  ??_F?$num_put@_WV?$ostreambuf_iterator@_WU?$char_traits@_W@std@@@std@@@std@@QAEXXZ="C:\Windows\SysWOW64\msvcp110_win".??_F?$num_put@_WV?$ostreambuf_iterator@_WU?$char_traits@_W@std@@@std@@@std@@QAEXXZ
  ??_F?$time_get@DV?$istreambuf_iterator@DU?$char_traits@D@std@@@std@@@std@@QAEXXZ="C:\Windows\SysWOW64\msvcp110_win".??_F?$time_get@DV?$istreambuf_iterator@DU?$char_traits@D@std@@@std@@@std@@QAEXXZ
  ??_F?$time_get@GV?$istreambuf_iterator@GU?$char_traits@G@std@@@std@@@std@@QAEXXZ="C:\Windows\SysWOW64\msvcp110_win".??_F?$time_get@GV?$istreambuf_iterator@GU?$char_traits@G@std@@@std@@@std@@QAEXXZ
  ??_F?$time_get@_WV?$istreambuf_iterator@_WU?$char_traits@_W@std@@@std@@@std@@QAEXXZ="C:\Windows\SysWOW64\msvcp110_win".??_F?$time_get@_WV?$istreambuf_iterator@_WU?$char_traits@_W@std@@@std@@@std@@QAEXXZ
  ??_F?$time_put@DV?$ostreambuf_iterator@DU?$char_traits@D@std@@@std@@@std@@QAEXXZ="C:\Windows\SysWOW64\msvcp110_win".??_F?$time_put@DV?$ostreambuf_iterator@DU?$char_traits@D@std@@@std@@@std@@QAEXXZ
  ??_F?$time_put@GV?$ostreambuf_iterator@GU?$char_traits@G@std@@@std@@@std@@QAEXXZ="C:\Windows\SysWOW64\msvcp110_win".??_F?$time_put@GV?$ostreambuf_iterator@GU?$char_traits@G@std@@@std@@@std@@QAEXXZ
  ??_F?$time_put@_WV?$ostreambuf_iterator@_WU?$char_traits@_W@std@@@std@@@std@@QAEXXZ="C:\Windows\SysWOW64\msvcp110_win".??_F?$time_put@_WV?$ostreambuf_iterator@_WU?$char_traits@_W@std@@@std@@@std@@QAEXXZ
  ??_F_Locinfo@std@@QAEXXZ="C:\Windows\SysWOW64\msvcp110_win".??_F_Locinfo@std@@QAEXXZ
  ??_F_Timevec@std@@QAEXXZ="C:\Windows\SysWOW64\msvcp110_win".??_F_Timevec@std@@QAEXXZ
  ??_Fcodecvt_base@std@@QAEXXZ="C:\Windows\SysWOW64\msvcp110_win".??_Fcodecvt_base@std@@QAEXXZ
  ??_Fctype_base@std@@QAEXXZ="C:\Windows\SysWOW64\msvcp110_win".??_Fctype_base@std@@QAEXXZ
  ??_Ffacet@locale@std@@QAEXXZ="C:\Windows\SysWOW64\msvcp110_win".??_Ffacet@locale@std@@QAEXXZ
  ??_Fid@locale@std@@QAEXXZ="C:\Windows\SysWOW64\msvcp110_win".??_Fid@locale@std@@QAEXXZ
  ??_Ftime_base@std@@QAEXXZ="C:\Windows\SysWOW64\msvcp110_win".??_Ftime_base@std@@QAEXXZ
  ?_10@placeholders@std@@3V?$_Ph@$09@2@A="C:\Windows\SysWOW64\msvcp110_win".?_10@placeholders@std@@3V?$_Ph@$09@2@A
  ?_11@placeholders@std@@3V?$_Ph@$0L@@2@A="C:\Windows\SysWOW64\msvcp110_win".?_11@placeholders@std@@3V?$_Ph@$0L@@2@A
  ?_12@placeholders@std@@3V?$_Ph@$0M@@2@A="C:\Windows\SysWOW64\msvcp110_win".?_12@placeholders@std@@3V?$_Ph@$0M@@2@A
  ?_13@placeholders@std@@3V?$_Ph@$0N@@2@A="C:\Windows\SysWOW64\msvcp110_win".?_13@placeholders@std@@3V?$_Ph@$0N@@2@A
  ?_14@placeholders@std@@3V?$_Ph@$0O@@2@A="C:\Windows\SysWOW64\msvcp110_win".?_14@placeholders@std@@3V?$_Ph@$0O@@2@A
  ?_15@placeholders@std@@3V?$_Ph@$0P@@2@A="C:\Windows\SysWOW64\msvcp110_win".?_15@placeholders@std@@3V?$_Ph@$0P@@2@A
  ?_16@placeholders@std@@3V?$_Ph@$0BA@@2@A="C:\Windows\SysWOW64\msvcp110_win".?_16@placeholders@std@@3V?$_Ph@$0BA@@2@A
  ?_17@placeholders@std@@3V?$_Ph@$0BB@@2@A="C:\Windows\SysWOW64\msvcp110_win".?_17@placeholders@std@@3V?$_Ph@$0BB@@2@A
  ?_18@placeholders@std@@3V?$_Ph@$0BC@@2@A="C:\Windows\SysWOW64\msvcp110_win".?_18@placeholders@std@@3V?$_Ph@$0BC@@2@A
  ?_19@placeholders@std@@3V?$_Ph@$0BD@@2@A="C:\Windows\SysWOW64\msvcp110_win".?_19@placeholders@std@@3V?$_Ph@$0BD@@2@A
  ?_1@placeholders@std@@3V?$_Ph@$00@2@A="C:\Windows\SysWOW64\msvcp110_win".?_1@placeholders@std@@3V?$_Ph@$00@2@A
  ?_20@placeholders@std@@3V?$_Ph@$0BE@@2@A="C:\Windows\SysWOW64\msvcp110_win".?_20@placeholders@std@@3V?$_Ph@$0BE@@2@A
  ?_2@placeholders@std@@3V?$_Ph@$01@2@A="C:\Windows\SysWOW64\msvcp110_win".?_2@placeholders@std@@3V?$_Ph@$01@2@A
  ?_3@placeholders@std@@3V?$_Ph@$02@2@A="C:\Windows\SysWOW64\msvcp110_win".?_3@placeholders@std@@3V?$_Ph@$02@2@A
  ?_4@placeholders@std@@3V?$_Ph@$03@2@A="C:\Windows\SysWOW64\msvcp110_win".?_4@placeholders@std@@3V?$_Ph@$03@2@A
  ?_5@placeholders@std@@3V?$_Ph@$04@2@A="C:\Windows\SysWOW64\msvcp110_win".?_5@placeholders@std@@3V?$_Ph@$04@2@A
  ?_6@placeholders@std@@3V?$_Ph@$05@2@A="C:\Windows\SysWOW64\msvcp110_win".?_6@placeholders@std@@3V?$_Ph@$05@2@A
  ?_7@placeholders@std@@3V?$_Ph@$06@2@A="C:\Windows\SysWOW64\msvcp110_win".?_7@placeholders@std@@3V?$_Ph@$06@2@A
  ?_8@placeholders@std@@3V?$_Ph@$07@2@A="C:\Windows\SysWOW64\msvcp110_win".?_8@placeholders@std@@3V?$_Ph@$07@2@A
  ?_9@placeholders@std@@3V?$_Ph@$08@2@A="C:\Windows\SysWOW64\msvcp110_win".?_9@placeholders@std@@3V?$_Ph@$08@2@A
  ?_Add_vtordisp1@?$basic_ios@DU?$char_traits@D@std@@@std@@UAEXXZ="C:\Windows\SysWOW64\msvcp110_win".?_Add_vtordisp1@?$basic_ios@DU?$char_traits@D@std@@@std@@UAEXXZ
  ?_Add_vtordisp1@?$basic_ios@GU?$char_traits@G@std@@@std@@UAEXXZ="C:\Windows\SysWOW64\msvcp110_win".?_Add_vtordisp1@?$basic_ios@GU?$char_traits@G@std@@@std@@UAEXXZ
  ?_Add_vtordisp1@?$basic_ios@_WU?$char_traits@_W@std@@@std@@UAEXXZ="C:\Windows\SysWOW64\msvcp110_win".?_Add_vtordisp1@?$basic_ios@_WU?$char_traits@_W@std@@@std@@UAEXXZ
  ?_Add_vtordisp1@?$basic_istream@DU?$char_traits@D@std@@@std@@UAEXXZ="C:\Windows\SysWOW64\msvcp110_win".?_Add_vtordisp1@?$basic_istream@DU?$char_traits@D@std@@@std@@UAEXXZ
  ?_Add_vtordisp1@?$basic_istream@GU?$char_traits@G@std@@@std@@UAEXXZ="C:\Windows\SysWOW64\msvcp110_win".?_Add_vtordisp1@?$basic_istream@GU?$char_traits@G@std@@@std@@UAEXXZ
  ?_Add_vtordisp1@?$basic_istream@_WU?$char_traits@_W@std@@@std@@UAEXXZ="C:\Windows\SysWOW64\msvcp110_win".?_Add_vtordisp1@?$basic_istream@_WU?$char_traits@_W@std@@@std@@UAEXXZ
  ?_Add_vtordisp2@?$basic_ios@DU?$char_traits@D@std@@@std@@UAEXXZ="C:\Windows\SysWOW64\msvcp110_win".?_Add_vtordisp2@?$basic_ios@DU?$char_traits@D@std@@@std@@UAEXXZ
  ?_Add_vtordisp2@?$basic_ios@GU?$char_traits@G@std@@@std@@UAEXXZ="C:\Windows\SysWOW64\msvcp110_win".?_Add_vtordisp2@?$basic_ios@GU?$char_traits@G@std@@@std@@UAEXXZ
  ?_Add_vtordisp2@?$basic_ios@_WU?$char_traits@_W@std@@@std@@UAEXXZ="C:\Windows\SysWOW64\msvcp110_win".?_Add_vtordisp2@?$basic_ios@_WU?$char_traits@_W@std@@@std@@UAEXXZ
  ?_Add_vtordisp2@?$basic_ostream@DU?$char_traits@D@std@@@std@@UAEXXZ="C:\Windows\SysWOW64\msvcp110_win".?_Add_vtordisp2@?$basic_ostream@DU?$char_traits@D@std@@@std@@UAEXXZ
  ?_Add_vtordisp2@?$basic_ostream@GU?$char_traits@G@std@@@std@@UAEXXZ="C:\Windows\SysWOW64\msvcp110_win".?_Add_vtordisp2@?$basic_ostream@GU?$char_traits@G@std@@@std@@UAEXXZ
  ?_Add_vtordisp2@?$basic_ostream@_WU?$char_traits@_W@std@@@std@@UAEXXZ="C:\Windows\SysWOW64\msvcp110_win".?_Add_vtordisp2@?$basic_ostream@_WU?$char_traits@_W@std@@@std@@UAEXXZ
  ?_Addcats@_Locinfo@std@@QAEAAV12@HPBD@Z="C:\Windows\SysWOW64\msvcp110_win".?_Addcats@_Locinfo@std@@QAEAAV12@HPBD@Z
  ?_Addfac@_Locimp@locale@std@@AAEXPAVfacet@23@I@Z="C:\Windows\SysWOW64\msvcp110_win".?_Addfac@_Locimp@locale@std@@AAEXPAVfacet@23@I@Z
  ?_Addstd@ios_base@std@@SAXPAV12@@Z="C:\Windows\SysWOW64\msvcp110_win".?_Addstd@ios_base@std@@SAXPAV12@@Z
  ?_Atexit@@YAXP6AXXZ@Z="C:\Windows\SysWOW64\msvcp110_win".?_Atexit@@YAXP6AXXZ@Z
  ?_BADOFF@std@@3_JB="C:\Windows\SysWOW64\msvcp110_win".?_BADOFF@std@@3_JB
  ?_C_str@?$_Yarn@D@std@@QBEPBDXZ="C:\Windows\SysWOW64\msvcp110_win".?_C_str@?$_Yarn@D@std@@QBEPBDXZ
  ?_C_str@?$_Yarn@_W@std@@QBEPB_WXZ="C:\Windows\SysWOW64\msvcp110_win".?_C_str@?$_Yarn@_W@std@@QBEPB_WXZ
  ?_Callfns@ios_base@std@@AAEXW4event@12@@Z="C:\Windows\SysWOW64\msvcp110_win".?_Callfns@ios_base@std@@AAEXW4event@12@@Z
  ?_Clocptr@_Locimp@locale@std@@0PAV123@A="C:\Windows\SysWOW64\msvcp110_win".?_Clocptr@_Locimp@locale@std@@0PAV123@A
  ?_Decref@facet@locale@std@@UAEPAV_Facet_base@3@XZ="C:\Windows\SysWOW64\msvcp110_win".?_Decref@facet@locale@std@@UAEPAV_Facet_base@3@XZ
  ?_Donarrow@?$ctype@G@std@@IBEDGD@Z="C:\Windows\SysWOW64\msvcp110_win".?_Donarrow@?$ctype@G@std@@IBEDGD@Z
  ?_Donarrow@?$ctype@_W@std@@IBED_WD@Z="C:\Windows\SysWOW64\msvcp110_win".?_Donarrow@?$ctype@_W@std@@IBED_WD@Z
  ?_Dowiden@?$ctype@G@std@@IBEGD@Z="C:\Windows\SysWOW64\msvcp110_win".?_Dowiden@?$ctype@G@std@@IBEGD@Z
  ?_Dowiden@?$ctype@_W@std@@IBE_WD@Z="C:\Windows\SysWOW64\msvcp110_win".?_Dowiden@?$ctype@_W@std@@IBE_WD@Z
  ?_Empty@?$_Yarn@D@std@@QBE_NXZ="C:\Windows\SysWOW64\msvcp110_win".?_Empty@?$_Yarn@D@std@@QBE_NXZ
  ?_Empty@?$_Yarn@_W@std@@QBE_NXZ="C:\Windows\SysWOW64\msvcp110_win".?_Empty@?$_Yarn@_W@std@@QBE_NXZ
  ?_Ffmt@?$num_put@DV?$ostreambuf_iterator@DU?$char_traits@D@std@@@std@@@std@@ABAPADPADDH@Z="C:\Windows\SysWOW64\msvcp110_win".?_Ffmt@?$num_put@DV?$ostreambuf_iterator@DU?$char_traits@D@std@@@std@@@std@@ABAPADPADDH@Z
  ?_Ffmt@?$num_put@GV?$ostreambuf_iterator@GU?$char_traits@G@std@@@std@@@std@@ABAPADPADDH@Z="C:\Windows\SysWOW64\msvcp110_win".?_Ffmt@?$num_put@GV?$ostreambuf_iterator@GU?$char_traits@G@std@@@std@@@std@@ABAPADPADDH@Z
  ?_Ffmt@?$num_put@_WV?$ostreambuf_iterator@_WU?$char_traits@_W@std@@@std@@@std@@ABAPADPADDH@Z="C:\Windows\SysWOW64\msvcp110_win".?_Ffmt@?$num_put@_WV?$ostreambuf_iterator@_WU?$char_traits@_W@std@@@std@@@std@@ABAPADPADDH@Z
  ?_Findarr@ios_base@std@@AAEAAU_Iosarray@12@H@Z="C:\Windows\SysWOW64\msvcp110_win".?_Findarr@ios_base@std@@AAEAAU_Iosarray@12@H@Z
  ?_Fiopen@std@@YAPAU_iobuf@@PBDHH@Z="C:\Windows\SysWOW64\msvcp110_win".?_Fiopen@std@@YAPAU_iobuf@@PBDHH@Z
  ?_Fiopen@std@@YAPAU_iobuf@@PBGHH@Z="C:\Windows\SysWOW64\msvcp110_win".?_Fiopen@std@@YAPAU_iobuf@@PBGHH@Z
  ?_Fiopen@std@@YAPAU_iobuf@@PB_WHH@Z="C:\Windows\SysWOW64\msvcp110_win".?_Fiopen@std@@YAPAU_iobuf@@PB_WHH@Z
  ?_Fput@?$num_put@DV?$ostreambuf_iterator@DU?$char_traits@D@std@@@std@@@std@@ABA?AV?$ostreambuf_iterator@DU?$char_traits@D@std@@@2@V32@AAVios_base@2@DPBDIIII@Z="C:\Windows\SysWOW64\msvcp110_win".?_Fput@?$num_put@DV?$ostreambuf_iterator@DU?$char_traits@D@std@@@std@@@std@@ABA?AV?$ostreambuf_iterator@DU?$char_traits@D@std@@@2@V32@AAVios_base@2@DPBDIIII@Z
  ?_Fput@?$num_put@GV?$ostreambuf_iterator@GU?$char_traits@G@std@@@std@@@std@@ABA?AV?$ostreambuf_iterator@GU?$char_traits@G@std@@@2@V32@AAVios_base@2@GPBDIIII@Z="C:\Windows\SysWOW64\msvcp110_win".?_Fput@?$num_put@GV?$ostreambuf_iterator@GU?$char_traits@G@std@@@std@@@std@@ABA?AV?$ostreambuf_iterator@GU?$char_traits@G@std@@@2@V32@AAVios_base@2@GPBDIIII@Z
  ?_Fput@?$num_put@_WV?$ostreambuf_iterator@_WU?$char_traits@_W@std@@@std@@@std@@ABA?AV?$ostreambuf_iterator@_WU?$char_traits@_W@std@@@2@V32@AAVios_base@2@_WPBDIIII@Z="C:\Windows\SysWOW64\msvcp110_win".?_Fput@?$num_put@_WV?$ostreambuf_iterator@_WU?$char_traits@_W@std@@@std@@@std@@ABA?AV?$ostreambuf_iterator@_WU?$char_traits@_W@std@@@2@V32@AAVios_base@2@_WPBDIIII@Z
  ?_Getcat@?$codecvt@DDH@std@@SAIPAPBVfacet@locale@2@PBV42@@Z="C:\Windows\SysWOW64\msvcp110_win".?_Getcat@?$codecvt@DDH@std@@SAIPAPBVfacet@locale@2@PBV42@@Z
  ?_Getcat@?$codecvt@GDH@std@@SAIPAPBVfacet@locale@2@PBV42@@Z="C:\Windows\SysWOW64\msvcp110_win".?_Getcat@?$codecvt@GDH@std@@SAIPAPBVfacet@locale@2@PBV42@@Z
  ?_Getcat@?$codecvt@_SDH@std@@SAIPAPBVfacet@locale@2@PBV42@@Z="C:\Windows\SysWOW64\msvcp110_win".?_Getcat@?$codecvt@_SDH@std@@SAIPAPBVfacet@locale@2@PBV42@@Z
  ?_Getcat@?$codecvt@_UDH@std@@SAIPAPBVfacet@locale@2@PBV42@@Z="C:\Windows\SysWOW64\msvcp110_win".?_Getcat@?$codecvt@_UDH@std@@SAIPAPBVfacet@locale@2@PBV42@@Z
  ?_Getcat@?$codecvt@_WDH@std@@SAIPAPBVfacet@locale@2@PBV42@@Z="C:\Windows\SysWOW64\msvcp110_win".?_Getcat@?$codecvt@_WDH@std@@SAIPAPBVfacet@locale@2@PBV42@@Z
  ?_Getcat@?$ctype@D@std@@SAIPAPBVfacet@locale@2@PBV42@@Z="C:\Windows\SysWOW64\msvcp110_win".?_Getcat@?$ctype@D@std@@SAIPAPBVfacet@locale@2@PBV42@@Z
  ?_Getcat@?$ctype@G@std@@SAIPAPBVfacet@locale@2@PBV42@@Z="C:\Windows\SysWOW64\msvcp110_win".?_Getcat@?$ctype@G@std@@SAIPAPBVfacet@locale@2@PBV42@@Z
  ?_Getcat@?$ctype@_W@std@@SAIPAPBVfacet@locale@2@PBV42@@Z="C:\Windows\SysWOW64\msvcp110_win".?_Getcat@?$ctype@_W@std@@SAIPAPBVfacet@locale@2@PBV42@@Z
  ?_Getcat@?$num_get@DV?$istreambuf_iterator@DU?$char_traits@D@std@@@std@@@std@@SAIPAPBVfacet@locale@2@PBV42@@Z="C:\Windows\SysWOW64\msvcp110_win".?_Getcat@?$num_get@DV?$istreambuf_iterator@DU?$char_traits@D@std@@@std@@@std@@SAIPAPBVfacet@locale@2@PBV42@@Z
  ?_Getcat@?$num_get@GV?$istreambuf_iterator@GU?$char_traits@G@std@@@std@@@std@@SAIPAPBVfacet@locale@2@PBV42@@Z="C:\Windows\SysWOW64\msvcp110_win".?_Getcat@?$num_get@GV?$istreambuf_iterator@GU?$char_traits@G@std@@@std@@@std@@SAIPAPBVfacet@locale@2@PBV42@@Z
  ?_Getcat@?$num_get@_WV?$istreambuf_iterator@_WU?$char_traits@_W@std@@@std@@@std@@SAIPAPBVfacet@locale@2@PBV42@@Z="C:\Windows\SysWOW64\msvcp110_win".?_Getcat@?$num_get@_WV?$istreambuf_iterator@_WU?$char_traits@_W@std@@@std@@@std@@SAIPAPBVfacet@locale@2@PBV42@@Z
  ?_Getcat@?$num_put@DV?$ostreambuf_iterator@DU?$char_traits@D@std@@@std@@@std@@SAIPAPBVfacet@locale@2@PBV42@@Z="C:\Windows\SysWOW64\msvcp110_win".?_Getcat@?$num_put@DV?$ostreambuf_iterator@DU?$char_traits@D@std@@@std@@@std@@SAIPAPBVfacet@locale@2@PBV42@@Z
  ?_Getcat@?$num_put@GV?$ostreambuf_iterator@GU?$char_traits@G@std@@@std@@@std@@SAIPAPBVfacet@locale@2@PBV42@@Z="C:\Windows\SysWOW64\msvcp110_win".?_Getcat@?$num_put@GV?$ostreambuf_iterator@GU?$char_traits@G@std@@@std@@@std@@SAIPAPBVfacet@locale@2@PBV42@@Z
  ?_Getcat@?$num_put@_WV?$ostreambuf_iterator@_WU?$char_traits@_W@std@@@std@@@std@@SAIPAPBVfacet@locale@2@PBV42@@Z="C:\Windows\SysWOW64\msvcp110_win".?_Getcat@?$num_put@_WV?$ostreambuf_iterator@_WU?$char_traits@_W@std@@@std@@@std@@SAIPAPBVfacet@locale@2@PBV42@@Z
  ?_Getcat@?$time_get@DV?$istreambuf_iterator@DU?$char_traits@D@std@@@std@@@std@@SAIPAPBVfacet@locale@2@PBV42@@Z="C:\Windows\SysWOW64\msvcp110_win".?_Getcat@?$time_get@DV?$istreambuf_iterator@DU?$char_traits@D@std@@@std@@@std@@SAIPAPBVfacet@locale@2@PBV42@@Z
  ?_Getcat@?$time_get@GV?$istreambuf_iterator@GU?$char_traits@G@std@@@std@@@std@@SAIPAPBVfacet@locale@2@PBV42@@Z="C:\Windows\SysWOW64\msvcp110_win".?_Getcat@?$time_get@GV?$istreambuf_iterator@GU?$char_traits@G@std@@@std@@@std@@SAIPAPBVfacet@locale@2@PBV42@@Z
  ?_Getcat@?$time_get@_WV?$istreambuf_iterator@_WU?$char_traits@_W@std@@@std@@@std@@SAIPAPBVfacet@locale@2@PBV42@@Z="C:\Windows\SysWOW64\msvcp110_win".?_Getcat@?$time_get@_WV?$istreambuf_iterator@_WU?$char_traits@_W@std@@@std@@@std@@SAIPAPBVfacet@locale@2@PBV42@@Z
  ?_Getcat@?$time_put@DV?$ostreambuf_iterator@DU?$char_traits@D@std@@@std@@@std@@SAIPAPBVfacet@locale@2@PBV42@@Z="C:\Windows\SysWOW64\msvcp110_win".?_Getcat@?$time_put@DV?$ostreambuf_iterator@DU?$char_traits@D@std@@@std@@@std@@SAIPAPBVfacet@locale@2@PBV42@@Z
  ?_Getcat@?$time_put@GV?$ostreambuf_iterator@GU?$char_traits@G@std@@@std@@@std@@SAIPAPBVfacet@locale@2@PBV42@@Z="C:\Windows\SysWOW64\msvcp110_win".?_Getcat@?$time_put@GV?$ostreambuf_iterator@GU?$char_traits@G@std@@@std@@@std@@SAIPAPBVfacet@locale@2@PBV42@@Z
  ?_Getcat@?$time_put@_WV?$ostreambuf_iterator@_WU?$char_traits@_W@std@@@std@@@std@@SAIPAPBVfacet@locale@2@PBV42@@Z="C:\Windows\SysWOW64\msvcp110_win".?_Getcat@?$time_put@_WV?$ostreambuf_iterator@_WU?$char_traits@_W@std@@@std@@@std@@SAIPAPBVfacet@locale@2@PBV42@@Z
  ?_Getcat@facet@locale@std@@SAIPAPBV123@PBV23@@Z="C:\Windows\SysWOW64\msvcp110_win".?_Getcat@facet@locale@std@@SAIPAPBV123@PBV23@@Z
  ?_Getcoll@_Locinfo@std@@QBE?AU_Collvec@@XZ="C:\Windows\SysWOW64\msvcp110_win".?_Getcoll@_Locinfo@std@@QBE?AU_Collvec@@XZ
  ?_Getctype@_Locinfo@std@@QBE?AU_Ctypevec@@XZ="C:\Windows\SysWOW64\msvcp110_win".?_Getctype@_Locinfo@std@@QBE?AU_Ctypevec@@XZ
  ?_Getcvt@_Locinfo@std@@QBE?AU_Cvtvec@@XZ="C:\Windows\SysWOW64\msvcp110_win".?_Getcvt@_Locinfo@std@@QBE?AU_Cvtvec@@XZ
  ?_Getdateorder@_Locinfo@std@@QBEHXZ="C:\Windows\SysWOW64\msvcp110_win".?_Getdateorder@_Locinfo@std@@QBEHXZ
  ?_Getdays@_Locinfo@std@@QBEPBDXZ="C:\Windows\SysWOW64\msvcp110_win".?_Getdays@_Locinfo@std@@QBEPBDXZ
  ?_Getfalse@_Locinfo@std@@QBEPBDXZ="C:\Windows\SysWOW64\msvcp110_win".?_Getfalse@_Locinfo@std@@QBEPBDXZ
  ?_Getffld@?$num_get@DV?$istreambuf_iterator@DU?$char_traits@D@std@@@std@@@std@@ABAHPADAAV?$istreambuf_iterator@DU?$char_traits@D@std@@@2@1AAVios_base@2@PAH@Z="C:\Windows\SysWOW64\msvcp110_win".?_Getffld@?$num_get@DV?$istreambuf_iterator@DU?$char_traits@D@std@@@std@@@std@@ABAHPADAAV?$istreambuf_iterator@DU?$char_traits@D@std@@@2@1AAVios_base@2@PAH@Z
  ?_Getffld@?$num_get@GV?$istreambuf_iterator@GU?$char_traits@G@std@@@std@@@std@@ABAHPADAAV?$istreambuf_iterator@GU?$char_traits@G@std@@@2@1AAVios_base@2@PAH@Z="C:\Windows\SysWOW64\msvcp110_win".?_Getffld@?$num_get@GV?$istreambuf_iterator@GU?$char_traits@G@std@@@std@@@std@@ABAHPADAAV?$istreambuf_iterator@GU?$char_traits@G@std@@@2@1AAVios_base@2@PAH@Z
  ?_Getffld@?$num_get@_WV?$istreambuf_iterator@_WU?$char_traits@_W@std@@@std@@@std@@ABAHPADAAV?$istreambuf_iterator@_WU?$char_traits@_W@std@@@2@1AAVios_base@2@PAH@Z="C:\Windows\SysWOW64\msvcp110_win".?_Getffld@?$num_get@_WV?$istreambuf_iterator@_WU?$char_traits@_W@std@@@std@@@std@@ABAHPADAAV?$istreambuf_iterator@_WU?$char_traits@_W@std@@@2@1AAVios_base@2@PAH@Z
  ?_Getffldx@?$num_get@DV?$istreambuf_iterator@DU?$char_traits@D@std@@@std@@@std@@ABAHPADAAV?$istreambuf_iterator@DU?$char_traits@D@std@@@2@1AAVios_base@2@PAH@Z="C:\Windows\SysWOW64\msvcp110_win".?_Getffldx@?$num_get@DV?$istreambuf_iterator@DU?$char_traits@D@std@@@std@@@std@@ABAHPADAAV?$istreambuf_iterator@DU?$char_traits@D@std@@@2@1AAVios_base@2@PAH@Z
  ?_Getffldx@?$num_get@GV?$istreambuf_iterator@GU?$char_traits@G@std@@@std@@@std@@ABAHPADAAV?$istreambuf_iterator@GU?$char_traits@G@std@@@2@1AAVios_base@2@PAH@Z="C:\Windows\SysWOW64\msvcp110_win".?_Getffldx@?$num_get@GV?$istreambuf_iterator@GU?$char_traits@G@std@@@std@@@std@@ABAHPADAAV?$istreambuf_iterator@GU?$char_traits@G@std@@@2@1AAVios_base@2@PAH@Z
  ?_Getffldx@?$num_get@_WV?$istreambuf_iterator@_WU?$char_traits@_W@std@@@std@@@std@@ABAHPADAAV?$istreambuf_iterator@_WU?$char_traits@_W@std@@@2@1AAVios_base@2@PAH@Z="C:\Windows\SysWOW64\msvcp110_win".?_Getffldx@?$num_get@_WV?$istreambuf_iterator@_WU?$char_traits@_W@std@@@std@@@std@@ABAHPADAAV?$istreambuf_iterator@_WU?$char_traits@_W@std@@@2@1AAVios_base@2@PAH@Z
  ?_Getfmt@?$time_get@DV?$istreambuf_iterator@DU?$char_traits@D@std@@@std@@@std@@IBE?AV?$istreambuf_iterator@DU?$char_traits@D@std@@@2@V32@0AAVios_base@2@AAHPAUtm@@PBD@Z="C:\Windows\SysWOW64\msvcp110_win".?_Getfmt@?$time_get@DV?$istreambuf_iterator@DU?$char_traits@D@std@@@std@@@std@@IBE?AV?$istreambuf_iterator@DU?$char_traits@D@std@@@2@V32@0AAVios_base@2@AAHPAUtm@@PBD@Z
  ?_Getfmt@?$time_get@GV?$istreambuf_iterator@GU?$char_traits@G@std@@@std@@@std@@IBE?AV?$istreambuf_iterator@GU?$char_traits@G@std@@@2@V32@0AAVios_base@2@AAHPAUtm@@PBD@Z="C:\Windows\SysWOW64\msvcp110_win".?_Getfmt@?$time_get@GV?$istreambuf_iterator@GU?$char_traits@G@std@@@std@@@std@@IBE?AV?$istreambuf_iterator@GU?$char_traits@G@std@@@2@V32@0AAVios_base@2@AAHPAUtm@@PBD@Z
  ?_Getfmt@?$time_get@_WV?$istreambuf_iterator@_WU?$char_traits@_W@std@@@std@@@std@@IBE?AV?$istreambuf_iterator@_WU?$char_traits@_W@std@@@2@V32@0AAVios_base@2@AAHPAUtm@@PBD@Z="C:\Windows\SysWOW64\msvcp110_win".?_Getfmt@?$time_get@_WV?$istreambuf_iterator@_WU?$char_traits@_W@std@@@std@@@std@@IBE?AV?$istreambuf_iterator@_WU?$char_traits@_W@std@@@2@V32@0AAVios_base@2@AAHPAUtm@@PBD@Z
  ?_Getgloballocale@locale@std@@CAPAV_Locimp@12@XZ="C:\Windows\SysWOW64\msvcp110_win".?_Getgloballocale@locale@std@@CAPAV_Locimp@12@XZ
  ?_Getifld@?$num_get@DV?$istreambuf_iterator@DU?$char_traits@D@std@@@std@@@std@@ABAHPADAAV?$istreambuf_iterator@DU?$char_traits@D@std@@@2@1HABVlocale@2@@Z="C:\Windows\SysWOW64\msvcp110_win".?_Getifld@?$num_get@DV?$istreambuf_iterator@DU?$char_traits@D@std@@@std@@@std@@ABAHPADAAV?$istreambuf_iterator@DU?$char_traits@D@std@@@2@1HABVlocale@2@@Z
  ?_Getifld@?$num_get@GV?$istreambuf_iterator@GU?$char_traits@G@std@@@std@@@std@@ABAHPADAAV?$istreambuf_iterator@GU?$char_traits@G@std@@@2@1HABVlocale@2@@Z="C:\Windows\SysWOW64\msvcp110_win".?_Getifld@?$num_get@GV?$istreambuf_iterator@GU?$char_traits@G@std@@@std@@@std@@ABAHPADAAV?$istreambuf_iterator@GU?$char_traits@G@std@@@2@1HABVlocale@2@@Z
  ?_Getifld@?$num_get@_WV?$istreambuf_iterator@_WU?$char_traits@_W@std@@@std@@@std@@ABAHPADAAV?$istreambuf_iterator@_WU?$char_traits@_W@std@@@2@1HABVlocale@2@@Z="C:\Windows\SysWOW64\msvcp110_win".?_Getifld@?$num_get@_WV?$istreambuf_iterator@_WU?$char_traits@_W@std@@@std@@@std@@ABAHPADAAV?$istreambuf_iterator@_WU?$char_traits@_W@std@@@2@1HABVlocale@2@@Z
  ?_Getint@?$time_get@DV?$istreambuf_iterator@DU?$char_traits@D@std@@@std@@@std@@ABAHAAV?$istreambuf_iterator@DU?$char_traits@D@std@@@2@0HHAAHABV?$ctype@D@2@@Z="C:\Windows\SysWOW64\msvcp110_win".?_Getint@?$time_get@DV?$istreambuf_iterator@DU?$char_traits@D@std@@@std@@@std@@ABAHAAV?$istreambuf_iterator@DU?$char_traits@D@std@@@2@0HHAAHABV?$ctype@D@2@@Z
  ?_Getint@?$time_get@GV?$istreambuf_iterator@GU?$char_traits@G@std@@@std@@@std@@ABAHAAV?$istreambuf_iterator@GU?$char_traits@G@std@@@2@0HHAAHABV?$ctype@G@2@@Z="C:\Windows\SysWOW64\msvcp110_win".?_Getint@?$time_get@GV?$istreambuf_iterator@GU?$char_traits@G@std@@@std@@@std@@ABAHAAV?$istreambuf_iterator@GU?$char_traits@G@std@@@2@0HHAAHABV?$ctype@G@2@@Z
  ?_Getint@?$time_get@_WV?$istreambuf_iterator@_WU?$char_traits@_W@std@@@std@@@std@@ABAHAAV?$istreambuf_iterator@_WU?$char_traits@_W@std@@@2@0HHAAHABV?$ctype@_W@2@@Z="C:\Windows\SysWOW64\msvcp110_win".?_Getint@?$time_get@_WV?$istreambuf_iterator@_WU?$char_traits@_W@std@@@std@@@std@@ABAHAAV?$istreambuf_iterator@_WU?$char_traits@_W@std@@@2@0HHAAHABV?$ctype@_W@2@@Z
  ?_Getlconv@_Locinfo@std@@QBEPBUlconv@@XZ="C:\Windows\SysWOW64\msvcp110_win".?_Getlconv@_Locinfo@std@@QBEPBUlconv@@XZ
  ?_Getmonths@_Locinfo@std@@QBEPBDXZ="C:\Windows\SysWOW64\msvcp110_win".?_Getmonths@_Locinfo@std@@QBEPBDXZ
  ?_Getname@_Locinfo@std@@QBEPBDXZ="C:\Windows\SysWOW64\msvcp110_win".?_Getname@_Locinfo@std@@QBEPBDXZ
  ?_Getpfirst@_Container_base12@std@@QBEPAPAU_Iterator_base12@2@XZ="C:\Windows\SysWOW64\msvcp110_win".?_Getpfirst@_Container_base12@std@@QBEPAPAU_Iterator_base12@2@XZ
  ?_Getptr@_Timevec@std@@QBEPAXXZ="C:\Windows\SysWOW64\msvcp110_win".?_Getptr@_Timevec@std@@QBEPAXXZ
  ?_Gettnames@_Locinfo@std@@QBE?AV_Timevec@2@XZ="C:\Windows\SysWOW64\msvcp110_win".?_Gettnames@_Locinfo@std@@QBE?AV_Timevec@2@XZ
  ?_Gettrue@_Locinfo@std@@QBEPBDXZ="C:\Windows\SysWOW64\msvcp110_win".?_Gettrue@_Locinfo@std@@QBEPBDXZ
  ?_Gnavail@?$basic_streambuf@DU?$char_traits@D@std@@@std@@IBE_JXZ="C:\Windows\SysWOW64\msvcp110_win".?_Gnavail@?$basic_streambuf@DU?$char_traits@D@std@@@std@@IBE_JXZ
  ?_Gnavail@?$basic_streambuf@GU?$char_traits@G@std@@@std@@IBE_JXZ="C:\Windows\SysWOW64\msvcp110_win".?_Gnavail@?$basic_streambuf@GU?$char_traits@G@std@@@std@@IBE_JXZ
  ?_Gnavail@?$basic_streambuf@_WU?$char_traits@_W@std@@@std@@IBE_JXZ="C:\Windows\SysWOW64\msvcp110_win".?_Gnavail@?$basic_streambuf@_WU?$char_traits@_W@std@@@std@@IBE_JXZ
  ?_Gndec@?$basic_streambuf@DU?$char_traits@D@std@@@std@@IAEPADXZ="C:\Windows\SysWOW64\msvcp110_win".?_Gndec@?$basic_streambuf@DU?$char_traits@D@std@@@std@@IAEPADXZ
  ?_Gndec@?$basic_streambuf@GU?$char_traits@G@std@@@std@@IAEPAGXZ="C:\Windows\SysWOW64\msvcp110_win".?_Gndec@?$basic_streambuf@GU?$char_traits@G@std@@@std@@IAEPAGXZ
  ?_Gndec@?$basic_streambuf@_WU?$char_traits@_W@std@@@std@@IAEPA_WXZ="C:\Windows\SysWOW64\msvcp110_win".?_Gndec@?$basic_streambuf@_WU?$char_traits@_W@std@@@std@@IAEPA_WXZ
  ?_Gninc@?$basic_streambuf@DU?$char_traits@D@std@@@std@@IAEPADXZ="C:\Windows\SysWOW64\msvcp110_win".?_Gninc@?$basic_streambuf@DU?$char_traits@D@std@@@std@@IAEPADXZ
  ?_Gninc@?$basic_streambuf@GU?$char_traits@G@std@@@std@@IAEPAGXZ="C:\Windows\SysWOW64\msvcp110_win".?_Gninc@?$basic_streambuf@GU?$char_traits@G@std@@@std@@IAEPAGXZ
  ?_Gninc@?$basic_streambuf@_WU?$char_traits@_W@std@@@std@@IAEPA_WXZ="C:\Windows\SysWOW64\msvcp110_win".?_Gninc@?$basic_streambuf@_WU?$char_traits@_W@std@@@std@@IAEPA_WXZ
  ?_Gnpreinc@?$basic_streambuf@DU?$char_traits@D@std@@@std@@IAEPADXZ="C:\Windows\SysWOW64\msvcp110_win".?_Gnpreinc@?$basic_streambuf@DU?$char_traits@D@std@@@std@@IAEPADXZ
  ?_Gnpreinc@?$basic_streambuf@GU?$char_traits@G@std@@@std@@IAEPAGXZ="C:\Windows\SysWOW64\msvcp110_win".?_Gnpreinc@?$basic_streambuf@GU?$char_traits@G@std@@@std@@IAEPAGXZ
  ?_Gnpreinc@?$basic_streambuf@_WU?$char_traits@_W@std@@@std@@IAEPA_WXZ="C:\Windows\SysWOW64\msvcp110_win".?_Gnpreinc@?$basic_streambuf@_WU?$char_traits@_W@std@@@std@@IAEPA_WXZ
  ?_Id_cnt@id@locale@std@@0HA="C:\Windows\SysWOW64\msvcp110_win".?_Id_cnt@id@locale@std@@0HA
  ?_Ifmt@?$num_put@DV?$ostreambuf_iterator@DU?$char_traits@D@std@@@std@@@std@@ABAPADPADPBDH@Z="C:\Windows\SysWOW64\msvcp110_win".?_Ifmt@?$num_put@DV?$ostreambuf_iterator@DU?$char_traits@D@std@@@std@@@std@@ABAPADPADPBDH@Z
  ?_Ifmt@?$num_put@GV?$ostreambuf_iterator@GU?$char_traits@G@std@@@std@@@std@@ABAPADPADPBDH@Z="C:\Windows\SysWOW64\msvcp110_win".?_Ifmt@?$num_put@GV?$ostreambuf_iterator@GU?$char_traits@G@std@@@std@@@std@@ABAPADPADPBDH@Z
  ?_Ifmt@?$num_put@_WV?$ostreambuf_iterator@_WU?$char_traits@_W@std@@@std@@@std@@ABAPADPADPBDH@Z="C:\Windows\SysWOW64\msvcp110_win".?_Ifmt@?$num_put@_WV?$ostreambuf_iterator@_WU?$char_traits@_W@std@@@std@@@std@@ABAPADPADPBDH@Z
  ?_Incref@facet@locale@std@@UAEXXZ="C:\Windows\SysWOW64\msvcp110_win".?_Incref@facet@locale@std@@UAEXXZ
  ?_Index@ios_base@std@@0HA="C:\Windows\SysWOW64\msvcp110_win".?_Index@ios_base@std@@0HA
  ?_Init@?$basic_streambuf@DU?$char_traits@D@std@@@std@@IAEXPAPAD0PAH001@Z="C:\Windows\SysWOW64\msvcp110_win".?_Init@?$basic_streambuf@DU?$char_traits@D@std@@@std@@IAEXPAPAD0PAH001@Z
  ?_Init@?$basic_streambuf@DU?$char_traits@D@std@@@std@@IAEXXZ="C:\Windows\SysWOW64\msvcp110_win".?_Init@?$basic_streambuf@DU?$char_traits@D@std@@@std@@IAEXXZ
  ?_Init@?$basic_streambuf@GU?$char_traits@G@std@@@std@@IAEXPAPAG0PAH001@Z="C:\Windows\SysWOW64\msvcp110_win".?_Init@?$basic_streambuf@GU?$char_traits@G@std@@@std@@IAEXPAPAG0PAH001@Z
  ?_Init@?$basic_streambuf@GU?$char_traits@G@std@@@std@@IAEXXZ="C:\Windows\SysWOW64\msvcp110_win".?_Init@?$basic_streambuf@GU?$char_traits@G@std@@@std@@IAEXXZ
  ?_Init@?$basic_streambuf@_WU?$char_traits@_W@std@@@std@@IAEXPAPA_W0PAH001@Z="C:\Windows\SysWOW64\msvcp110_win".?_Init@?$basic_streambuf@_WU?$char_traits@_W@std@@@std@@IAEXPAPA_W0PAH001@Z
  ?_Init@?$basic_streambuf@_WU?$char_traits@_W@std@@@std@@IAEXXZ="C:\Windows\SysWOW64\msvcp110_win".?_Init@?$basic_streambuf@_WU?$char_traits@_W@std@@@std@@IAEXXZ
  ?_Init@?$codecvt@DDH@std@@IAEXABV_Locinfo@2@@Z="C:\Windows\SysWOW64\msvcp110_win".?_Init@?$codecvt@DDH@std@@IAEXABV_Locinfo@2@@Z
  ?_Init@?$codecvt@GDH@std@@IAEXABV_Locinfo@2@@Z="C:\Windows\SysWOW64\msvcp110_win".?_Init@?$codecvt@GDH@std@@IAEXABV_Locinfo@2@@Z
  ?_Init@?$codecvt@_SDH@std@@IAEXABV_Locinfo@2@@Z="C:\Windows\SysWOW64\msvcp110_win".?_Init@?$codecvt@_SDH@std@@IAEXABV_Locinfo@2@@Z
  ?_Init@?$codecvt@_UDH@std@@IAEXABV_Locinfo@2@@Z="C:\Windows\SysWOW64\msvcp110_win".?_Init@?$codecvt@_UDH@std@@IAEXABV_Locinfo@2@@Z
  ?_Init@?$codecvt@_WDH@std@@IAEXABV_Locinfo@2@@Z="C:\Windows\SysWOW64\msvcp110_win".?_Init@?$codecvt@_WDH@std@@IAEXABV_Locinfo@2@@Z
  ?_Init@?$ctype@D@std@@IAEXABV_Locinfo@2@@Z="C:\Windows\SysWOW64\msvcp110_win".?_Init@?$ctype@D@std@@IAEXABV_Locinfo@2@@Z
  ?_Init@?$ctype@G@std@@IAEXABV_Locinfo@2@@Z="C:\Windows\SysWOW64\msvcp110_win".?_Init@?$ctype@G@std@@IAEXABV_Locinfo@2@@Z
  ?_Init@?$ctype@_W@std@@IAEXABV_Locinfo@2@@Z="C:\Windows\SysWOW64\msvcp110_win".?_Init@?$ctype@_W@std@@IAEXABV_Locinfo@2@@Z
  ?_Init@?$num_get@DV?$istreambuf_iterator@DU?$char_traits@D@std@@@std@@@std@@IAEXABV_Locinfo@2@@Z="C:\Windows\SysWOW64\msvcp110_win".?_Init@?$num_get@DV?$istreambuf_iterator@DU?$char_traits@D@std@@@std@@@std@@IAEXABV_Locinfo@2@@Z
  ?_Init@?$num_get@GV?$istreambuf_iterator@GU?$char_traits@G@std@@@std@@@std@@IAEXABV_Locinfo@2@@Z="C:\Windows\SysWOW64\msvcp110_win".?_Init@?$num_get@GV?$istreambuf_iterator@GU?$char_traits@G@std@@@std@@@std@@IAEXABV_Locinfo@2@@Z
  ?_Init@?$num_get@_WV?$istreambuf_iterator@_WU?$char_traits@_W@std@@@std@@@std@@IAEXABV_Locinfo@2@@Z="C:\Windows\SysWOW64\msvcp110_win".?_Init@?$num_get@_WV?$istreambuf_iterator@_WU?$char_traits@_W@std@@@std@@@std@@IAEXABV_Locinfo@2@@Z
  ?_Init@?$num_put@DV?$ostreambuf_iterator@DU?$char_traits@D@std@@@std@@@std@@IAEXABV_Locinfo@2@@Z="C:\Windows\SysWOW64\msvcp110_win".?_Init@?$num_put@DV?$ostreambuf_iterator@DU?$char_traits@D@std@@@std@@@std@@IAEXABV_Locinfo@2@@Z
  ?_Init@?$num_put@GV?$ostreambuf_iterator@GU?$char_traits@G@std@@@std@@@std@@IAEXABV_Locinfo@2@@Z="C:\Windows\SysWOW64\msvcp110_win".?_Init@?$num_put@GV?$ostreambuf_iterator@GU?$char_traits@G@std@@@std@@@std@@IAEXABV_Locinfo@2@@Z
  ?_Init@?$num_put@_WV?$ostreambuf_iterator@_WU?$char_traits@_W@std@@@std@@@std@@IAEXABV_Locinfo@2@@Z="C:\Windows\SysWOW64\msvcp110_win".?_Init@?$num_put@_WV?$ostreambuf_iterator@_WU?$char_traits@_W@std@@@std@@@std@@IAEXABV_Locinfo@2@@Z
  ?_Init@?$time_get@DV?$istreambuf_iterator@DU?$char_traits@D@std@@@std@@@std@@IAEXABV_Locinfo@2@@Z="C:\Windows\SysWOW64\msvcp110_win".?_Init@?$time_get@DV?$istreambuf_iterator@DU?$char_traits@D@std@@@std@@@std@@IAEXABV_Locinfo@2@@Z
  ?_Init@?$time_get@GV?$istreambuf_iterator@GU?$char_traits@G@std@@@std@@@std@@IAEXABV_Locinfo@2@@Z="C:\Windows\SysWOW64\msvcp110_win".?_Init@?$time_get@GV?$istreambuf_iterator@GU?$char_traits@G@std@@@std@@@std@@IAEXABV_Locinfo@2@@Z
  ?_Init@?$time_get@_WV?$istreambuf_iterator@_WU?$char_traits@_W@std@@@std@@@std@@IAEXABV_Locinfo@2@@Z="C:\Windows\SysWOW64\msvcp110_win".?_Init@?$time_get@_WV?$istreambuf_iterator@_WU?$char_traits@_W@std@@@std@@@std@@IAEXABV_Locinfo@2@@Z
  ?_Init@?$time_put@DV?$ostreambuf_iterator@DU?$char_traits@D@std@@@std@@@std@@IAEXABV_Locinfo@2@@Z="C:\Windows\SysWOW64\msvcp110_win".?_Init@?$time_put@DV?$ostreambuf_iterator@DU?$char_traits@D@std@@@std@@@std@@IAEXABV_Locinfo@2@@Z
  ?_Init@?$time_put@GV?$ostreambuf_iterator@GU?$char_traits@G@std@@@std@@@std@@IAEXABV_Locinfo@2@@Z="C:\Windows\SysWOW64\msvcp110_win".?_Init@?$time_put@GV?$ostreambuf_iterator@GU?$char_traits@G@std@@@std@@@std@@IAEXABV_Locinfo@2@@Z
  ?_Init@?$time_put@_WV?$ostreambuf_iterator@_WU?$char_traits@_W@std@@@std@@@std@@IAEXABV_Locinfo@2@@Z="C:\Windows\SysWOW64\msvcp110_win".?_Init@?$time_put@_WV?$ostreambuf_iterator@_WU?$char_traits@_W@std@@@std@@@std@@IAEXABV_Locinfo@2@@Z
  ?_Init@ios_base@std@@IAEXXZ="C:\Windows\SysWOW64\msvcp110_win".?_Init@ios_base@std@@IAEXXZ
  ?_Init@locale@std@@CAPAV_Locimp@12@_N@Z="C:\Windows\SysWOW64\msvcp110_win".?_Init@locale@std@@CAPAV_Locimp@12@_N@Z
  ?_Init_cnt@Init@ios_base@std@@0HA="C:\Windows\SysWOW64\msvcp110_win".?_Init_cnt@Init@ios_base@std@@0HA
  ?_Init_cnt@_UShinit@std@@0HA="C:\Windows\SysWOW64\msvcp110_win".?_Init_cnt@_UShinit@std@@0HA
  ?_Init_cnt@_Winit@std@@0HA="C:\Windows\SysWOW64\msvcp110_win".?_Init_cnt@_Winit@std@@0HA
  ?_Init_cnt_func@Init@ios_base@std@@CAAAHXZ="C:\Windows\SysWOW64\msvcp110_win".?_Init_cnt_func@Init@ios_base@std@@CAAAHXZ
  ?_Init_ctor@Init@ios_base@std@@CAXPAV123@@Z="C:\Windows\SysWOW64\msvcp110_win".?_Init_ctor@Init@ios_base@std@@CAXPAV123@@Z
  ?_Init_dtor@Init@ios_base@std@@CAXPAV123@@Z="C:\Windows\SysWOW64\msvcp110_win".?_Init_dtor@Init@ios_base@std@@CAXPAV123@@Z
  ?_Init_locks_ctor@_Init_locks@std@@CAXPAV12@@Z="C:\Windows\SysWOW64\msvcp110_win".?_Init_locks_ctor@_Init_locks@std@@CAXPAV12@@Z
  ?_Init_locks_dtor@_Init_locks@std@@CAXPAV12@@Z="C:\Windows\SysWOW64\msvcp110_win".?_Init_locks_dtor@_Init_locks@std@@CAXPAV12@@Z
  ?_Ios_base_dtor@ios_base@std@@CAXPAV12@@Z="C:\Windows\SysWOW64\msvcp110_win".?_Ios_base_dtor@ios_base@std@@CAXPAV12@@Z
  ?_Ipfx@?$basic_istream@DU?$char_traits@D@std@@@std@@QAE_N_N@Z="C:\Windows\SysWOW64\msvcp110_win".?_Ipfx@?$basic_istream@DU?$char_traits@D@std@@@std@@QAE_N_N@Z
  ?_Ipfx@?$basic_istream@GU?$char_traits@G@std@@@std@@QAE_N_N@Z="C:\Windows\SysWOW64\msvcp110_win".?_Ipfx@?$basic_istream@GU?$char_traits@G@std@@@std@@QAE_N_N@Z
  ?_Ipfx@?$basic_istream@_WU?$char_traits@_W@std@@@std@@QAE_N_N@Z="C:\Windows\SysWOW64\msvcp110_win".?_Ipfx@?$basic_istream@_WU?$char_traits@_W@std@@@std@@QAE_N_N@Z
  ?_Iput@?$num_put@DV?$ostreambuf_iterator@DU?$char_traits@D@std@@@std@@@std@@ABA?AV?$ostreambuf_iterator@DU?$char_traits@D@std@@@2@V32@AAVios_base@2@DPADI@Z="C:\Windows\SysWOW64\msvcp110_win".?_Iput@?$num_put@DV?$ostreambuf_iterator@DU?$char_traits@D@std@@@std@@@std@@ABA?AV?$ostreambuf_iterator@DU?$char_traits@D@std@@@2@V32@AAVios_base@2@DPADI@Z
  ?_Iput@?$num_put@GV?$ostreambuf_iterator@GU?$char_traits@G@std@@@std@@@std@@ABA?AV?$ostreambuf_iterator@GU?$char_traits@G@std@@@2@V32@AAVios_base@2@GPADI@Z="C:\Windows\SysWOW64\msvcp110_win".?_Iput@?$num_put@GV?$ostreambuf_iterator@GU?$char_traits@G@std@@@std@@@std@@ABA?AV?$ostreambuf_iterator@GU?$char_traits@G@std@@@2@V32@AAVios_base@2@GPADI@Z
  ?_Iput@?$num_put@_WV?$ostreambuf_iterator@_WU?$char_traits@_W@std@@@std@@@std@@ABA?AV?$ostreambuf_iterator@_WU?$char_traits@_W@std@@@2@V32@AAVios_base@2@_WPADI@Z="C:\Windows\SysWOW64\msvcp110_win".?_Iput@?$num_put@_WV?$ostreambuf_iterator@_WU?$char_traits@_W@std@@@std@@@std@@ABA?AV?$ostreambuf_iterator@_WU?$char_traits@_W@std@@@2@V32@AAVios_base@2@_WPADI@Z
  ?_Locimp_Addfac@_Locimp@locale@std@@CAXPAV123@PAVfacet@23@I@Z="C:\Windows\SysWOW64\msvcp110_win".?_Locimp_Addfac@_Locimp@locale@std@@CAXPAV123@PAVfacet@23@I@Z
  ?_Locimp_ctor@_Locimp@locale@std@@CAXPAV123@ABV123@@Z="C:\Windows\SysWOW64\msvcp110_win".?_Locimp_ctor@_Locimp@locale@std@@CAXPAV123@ABV123@@Z
  ?_Locimp_dtor@_Locimp@locale@std@@CAXPAV123@@Z="C:\Windows\SysWOW64\msvcp110_win".?_Locimp_dtor@_Locimp@locale@std@@CAXPAV123@@Z
  ?_Locinfo_Addcats@_Locinfo@std@@SAAAV12@PAV12@HPBD@Z="C:\Windows\SysWOW64\msvcp110_win".?_Locinfo_Addcats@_Locinfo@std@@SAAAV12@PAV12@HPBD@Z
  ?_Locinfo_ctor@_Locinfo@std@@SAXPAV12@HPBD@Z="C:\Windows\SysWOW64\msvcp110_win".?_Locinfo_ctor@_Locinfo@std@@SAXPAV12@HPBD@Z
  ?_Locinfo_ctor@_Locinfo@std@@SAXPAV12@PBD@Z="C:\Windows\SysWOW64\msvcp110_win".?_Locinfo_ctor@_Locinfo@std@@SAXPAV12@PBD@Z
  ?_Locinfo_dtor@_Locinfo@std@@SAXPAV12@@Z="C:\Windows\SysWOW64\msvcp110_win".?_Locinfo_dtor@_Locinfo@std@@SAXPAV12@@Z
  ?_Lock@?$basic_streambuf@DU?$char_traits@D@std@@@std@@UAEXXZ="C:\Windows\SysWOW64\msvcp110_win".?_Lock@?$basic_streambuf@DU?$char_traits@D@std@@@std@@UAEXXZ
  ?_Lock@?$basic_streambuf@GU?$char_traits@G@std@@@std@@UAEXXZ="C:\Windows\SysWOW64\msvcp110_win".?_Lock@?$basic_streambuf@GU?$char_traits@G@std@@@std@@UAEXXZ
  ?_Lock@?$basic_streambuf@_WU?$char_traits@_W@std@@@std@@UAEXXZ="C:\Windows\SysWOW64\msvcp110_win".?_Lock@?$basic_streambuf@_WU?$char_traits@_W@std@@@std@@UAEXXZ
  ?_Lockit_ctor@_Lockit@std@@CAXPAV12@@Z="C:\Windows\SysWOW64\msvcp110_win".?_Lockit_ctor@_Lockit@std@@CAXPAV12@@Z
  ?_Lockit_ctor@_Lockit@std@@CAXPAV12@H@Z="C:\Windows\SysWOW64\msvcp110_win".?_Lockit_ctor@_Lockit@std@@CAXPAV12@H@Z
  ?_Lockit_ctor@_Lockit@std@@SAXH@Z="C:\Windows\SysWOW64\msvcp110_win".?_Lockit_ctor@_Lockit@std@@SAXH@Z
  ?_Lockit_dtor@_Lockit@std@@CAXPAV12@@Z="C:\Windows\SysWOW64\msvcp110_win".?_Lockit_dtor@_Lockit@std@@CAXPAV12@@Z
  ?_Lockit_dtor@_Lockit@std@@SAXH@Z="C:\Windows\SysWOW64\msvcp110_win".?_Lockit_dtor@_Lockit@std@@SAXH@Z
  ?_MP_Add@std@@YAXQA_K_K@Z="C:\Windows\SysWOW64\msvcp110_win".?_MP_Add@std@@YAXQA_K_K@Z
  ?_MP_Get@std@@YA_KQA_K@Z="C:\Windows\SysWOW64\msvcp110_win".?_MP_Get@std@@YA_KQA_K@Z
  ?_MP_Mul@std@@YAXQA_K_K1@Z="C:\Windows\SysWOW64\msvcp110_win".?_MP_Mul@std@@YAXQA_K_K1@Z
  ?_MP_Rem@std@@YAXQA_K_K@Z="C:\Windows\SysWOW64\msvcp110_win".?_MP_Rem@std@@YAXQA_K_K@Z
  ?_Makeloc@_Locimp@locale@std@@CAPAV123@ABV_Locinfo@3@HPAV123@PBV23@@Z="C:\Windows\SysWOW64\msvcp110_win".?_Makeloc@_Locimp@locale@std@@CAPAV123@ABV_Locinfo@3@HPAV123@PBV23@@Z
  ?_Makeushloc@_Locimp@locale@std@@CAXABV_Locinfo@3@HPAV123@PBV23@@Z="C:\Windows\SysWOW64\msvcp110_win".?_Makeushloc@_Locimp@locale@std@@CAXABV_Locinfo@3@HPAV123@PBV23@@Z
  ?_Makewloc@_Locimp@locale@std@@CAXABV_Locinfo@3@HPAV123@PBV23@@Z="C:\Windows\SysWOW64\msvcp110_win".?_Makewloc@_Locimp@locale@std@@CAXABV_Locinfo@3@HPAV123@PBV23@@Z
  ?_Makexloc@_Locimp@locale@std@@CAXABV_Locinfo@3@HPAV123@PBV23@@Z="C:\Windows\SysWOW64\msvcp110_win".?_Makexloc@_Locimp@locale@std@@CAXABV_Locinfo@3@HPAV123@PBV23@@Z
  ?_New_Locimp@_Locimp@locale@std@@CAPAV123@ABV123@@Z="C:\Windows\SysWOW64\msvcp110_win".?_New_Locimp@_Locimp@locale@std@@CAPAV123@ABV123@@Z
  ?_New_Locimp@_Locimp@locale@std@@CAPAV123@_N@Z="C:\Windows\SysWOW64\msvcp110_win".?_New_Locimp@_Locimp@locale@std@@CAPAV123@_N@Z
  ?_Orphan_all@_Container_base0@std@@QAEXXZ="C:\Windows\SysWOW64\msvcp110_win".?_Orphan_all@_Container_base0@std@@QAEXXZ
  ?_Orphan_all@_Container_base12@std@@QAEXXZ="C:\Windows\SysWOW64\msvcp110_win".?_Orphan_all@_Container_base12@std@@QAEXXZ
  ?_Osfx@?$basic_ostream@DU?$char_traits@D@std@@@std@@QAEXXZ="C:\Windows\SysWOW64\msvcp110_win".?_Osfx@?$basic_ostream@DU?$char_traits@D@std@@@std@@QAEXXZ
  ?_Osfx@?$basic_ostream@GU?$char_traits@G@std@@@std@@QAEXXZ="C:\Windows\SysWOW64\msvcp110_win".?_Osfx@?$basic_ostream@GU?$char_traits@G@std@@@std@@QAEXXZ
  ?_Osfx@?$basic_ostream@_WU?$char_traits@_W@std@@@std@@QAEXXZ="C:\Windows\SysWOW64\msvcp110_win".?_Osfx@?$basic_ostream@_WU?$char_traits@_W@std@@@std@@QAEXXZ
  ?_Pnavail@?$basic_streambuf@DU?$char_traits@D@std@@@std@@IBE_JXZ="C:\Windows\SysWOW64\msvcp110_win".?_Pnavail@?$basic_streambuf@DU?$char_traits@D@std@@@std@@IBE_JXZ
  ?_Pnavail@?$basic_streambuf@GU?$char_traits@G@std@@@std@@IBE_JXZ="C:\Windows\SysWOW64\msvcp110_win".?_Pnavail@?$basic_streambuf@GU?$char_traits@G@std@@@std@@IBE_JXZ
  ?_Pnavail@?$basic_streambuf@_WU?$char_traits@_W@std@@@std@@IBE_JXZ="C:\Windows\SysWOW64\msvcp110_win".?_Pnavail@?$basic_streambuf@_WU?$char_traits@_W@std@@@std@@IBE_JXZ
  ?_Pninc@?$basic_streambuf@DU?$char_traits@D@std@@@std@@IAEPADXZ="C:\Windows\SysWOW64\msvcp110_win".?_Pninc@?$basic_streambuf@DU?$char_traits@D@std@@@std@@IAEPADXZ
  ?_Pninc@?$basic_streambuf@GU?$char_traits@G@std@@@std@@IAEPAGXZ="C:\Windows\SysWOW64\msvcp110_win".?_Pninc@?$basic_streambuf@GU?$char_traits@G@std@@@std@@IAEPAGXZ
  ?_Pninc@?$basic_streambuf@_WU?$char_traits@_W@std@@@std@@IAEPA_WXZ="C:\Windows\SysWOW64\msvcp110_win".?_Pninc@?$basic_streambuf@_WU?$char_traits@_W@std@@@std@@IAEPA_WXZ
  ?_Ptr_cerr@std@@3PAV?$basic_ostream@DU?$char_traits@D@std@@@1@A="C:\Windows\SysWOW64\msvcp110_win".?_Ptr_cerr@std@@3PAV?$basic_ostream@DU?$char_traits@D@std@@@1@A
  ?_Ptr_cin@std@@3PAV?$basic_istream@DU?$char_traits@D@std@@@1@A="C:\Windows\SysWOW64\msvcp110_win".?_Ptr_cin@std@@3PAV?$basic_istream@DU?$char_traits@D@std@@@1@A
  ?_Ptr_clog@std@@3PAV?$basic_ostream@DU?$char_traits@D@std@@@1@A="C:\Windows\SysWOW64\msvcp110_win".?_Ptr_clog@std@@3PAV?$basic_ostream@DU?$char_traits@D@std@@@1@A
  ?_Ptr_cout@std@@3PAV?$basic_ostream@DU?$char_traits@D@std@@@1@A="C:\Windows\SysWOW64\msvcp110_win".?_Ptr_cout@std@@3PAV?$basic_ostream@DU?$char_traits@D@std@@@1@A
  ?_Ptr_wcerr@std@@3PAV?$basic_ostream@GU?$char_traits@G@std@@@1@A="C:\Windows\SysWOW64\msvcp110_win".?_Ptr_wcerr@std@@3PAV?$basic_ostream@GU?$char_traits@G@std@@@1@A
  ?_Ptr_wcerr@std@@3PAV?$basic_ostream@_WU?$char_traits@_W@std@@@1@A="C:\Windows\SysWOW64\msvcp110_win".?_Ptr_wcerr@std@@3PAV?$basic_ostream@_WU?$char_traits@_W@std@@@1@A
  ?_Ptr_wcin@std@@3PAV?$basic_istream@GU?$char_traits@G@std@@@1@A="C:\Windows\SysWOW64\msvcp110_win".?_Ptr_wcin@std@@3PAV?$basic_istream@GU?$char_traits@G@std@@@1@A
  ?_Ptr_wcin@std@@3PAV?$basic_istream@_WU?$char_traits@_W@std@@@1@A="C:\Windows\SysWOW64\msvcp110_win".?_Ptr_wcin@std@@3PAV?$basic_istream@_WU?$char_traits@_W@std@@@1@A
  ?_Ptr_wclog@std@@3PAV?$basic_ostream@GU?$char_traits@G@std@@@1@A="C:\Windows\SysWOW64\msvcp110_win".?_Ptr_wclog@std@@3PAV?$basic_ostream@GU?$char_traits@G@std@@@1@A
  ?_Ptr_wclog@std@@3PAV?$basic_ostream@_WU?$char_traits@_W@std@@@1@A="C:\Windows\SysWOW64\msvcp110_win".?_Ptr_wclog@std@@3PAV?$basic_ostream@_WU?$char_traits@_W@std@@@1@A
  ?_Ptr_wcout@std@@3PAV?$basic_ostream@GU?$char_traits@G@std@@@1@A="C:\Windows\SysWOW64\msvcp110_win".?_Ptr_wcout@std@@3PAV?$basic_ostream@GU?$char_traits@G@std@@@1@A
  ?_Ptr_wcout@std@@3PAV?$basic_ostream@_WU?$char_traits@_W@std@@@1@A="C:\Windows\SysWOW64\msvcp110_win".?_Ptr_wcout@std@@3PAV?$basic_ostream@_WU?$char_traits@_W@std@@@1@A
  ?_Put@?$num_put@DV?$ostreambuf_iterator@DU?$char_traits@D@std@@@std@@@std@@ABA?AV?$ostreambuf_iterator@DU?$char_traits@D@std@@@2@V32@PBDI@Z="C:\Windows\SysWOW64\msvcp110_win".?_Put@?$num_put@DV?$ostreambuf_iterator@DU?$char_traits@D@std@@@std@@@std@@ABA?AV?$ostreambuf_iterator@DU?$char_traits@D@std@@@2@V32@PBDI@Z
  ?_Put@?$num_put@GV?$ostreambuf_iterator@GU?$char_traits@G@std@@@std@@@std@@ABA?AV?$ostreambuf_iterator@GU?$char_traits@G@std@@@2@V32@PBGI@Z="C:\Windows\SysWOW64\msvcp110_win".?_Put@?$num_put@GV?$ostreambuf_iterator@GU?$char_traits@G@std@@@std@@@std@@ABA?AV?$ostreambuf_iterator@GU?$char_traits@G@std@@@2@V32@PBGI@Z
  ?_Put@?$num_put@_WV?$ostreambuf_iterator@_WU?$char_traits@_W@std@@@std@@@std@@ABA?AV?$ostreambuf_iterator@_WU?$char_traits@_W@std@@@2@V32@PB_WI@Z="C:\Windows\SysWOW64\msvcp110_win".?_Put@?$num_put@_WV?$ostreambuf_iterator@_WU?$char_traits@_W@std@@@std@@@std@@ABA?AV?$ostreambuf_iterator@_WU?$char_traits@_W@std@@@2@V32@PB_WI@Z
  ?_Raise_handler@std@@3P6AXABVexception@stdext@@@ZA="C:\Windows\SysWOW64\msvcp110_win".?_Raise_handler@std@@3P6AXABVexception@stdext@@@ZA
  ?_Random_device@std@@YAIXZ="C:\Windows\SysWOW64\msvcp110_win".?_Random_device@std@@YAIXZ
  ?_Rep@?$num_put@DV?$ostreambuf_iterator@DU?$char_traits@D@std@@@std@@@std@@ABA?AV?$ostreambuf_iterator@DU?$char_traits@D@std@@@2@V32@DI@Z="C:\Windows\SysWOW64\msvcp110_win".?_Rep@?$num_put@DV?$ostreambuf_iterator@DU?$char_traits@D@std@@@std@@@std@@ABA?AV?$ostreambuf_iterator@DU?$char_traits@D@std@@@2@V32@DI@Z
  ?_Rep@?$num_put@GV?$ostreambuf_iterator@GU?$char_traits@G@std@@@std@@@std@@ABA?AV?$ostreambuf_iterator@GU?$char_traits@G@std@@@2@V32@GI@Z="C:\Windows\SysWOW64\msvcp110_win".?_Rep@?$num_put@GV?$ostreambuf_iterator@GU?$char_traits@G@std@@@std@@@std@@ABA?AV?$ostreambuf_iterator@GU?$char_traits@G@std@@@2@V32@GI@Z
  ?_Rep@?$num_put@_WV?$ostreambuf_iterator@_WU?$char_traits@_W@std@@@std@@@std@@ABA?AV?$ostreambuf_iterator@_WU?$char_traits@_W@std@@@2@V32@_WI@Z="C:\Windows\SysWOW64\msvcp110_win".?_Rep@?$num_put@_WV?$ostreambuf_iterator@_WU?$char_traits@_W@std@@@std@@@std@@ABA?AV?$ostreambuf_iterator@_WU?$char_traits@_W@std@@@2@V32@_WI@Z
  ?_Rng_abort@std@@YAXPBD@Z="C:\Windows\SysWOW64\msvcp110_win".?_Rng_abort@std@@YAXPBD@Z
  ?_Setgloballocale@locale@std@@CAXPAX@Z="C:\Windows\SysWOW64\msvcp110_win".?_Setgloballocale@locale@std@@CAXPAX@Z
  ?_Src@?1??_Getffld@?$num_get@DV?$istreambuf_iterator@DU?$char_traits@D@std@@@std@@@std@@ABAHPADAAV?$istreambuf_iterator@DU?$char_traits@D@std@@@3@1AAVios_base@3@PAH@Z@4QBDB="C:\Windows\SysWOW64\msvcp110_win".?_Src@?1??_Getffld@?$num_get@DV?$istreambuf_iterator@DU?$char_traits@D@std@@@std@@@std@@ABAHPADAAV?$istreambuf_iterator@DU?$char_traits@D@std@@@3@1AAVios_base@3@PAH@Z@4QBDB
  ?_Src@?1??_Getffld@?$num_get@GV?$istreambuf_iterator@GU?$char_traits@G@std@@@std@@@std@@ABAHPADAAV?$istreambuf_iterator@GU?$char_traits@G@std@@@3@1AAVios_base@3@PAH@Z@4QBDB="C:\Windows\SysWOW64\msvcp110_win".?_Src@?1??_Getffld@?$num_get@GV?$istreambuf_iterator@GU?$char_traits@G@std@@@std@@@std@@ABAHPADAAV?$istreambuf_iterator@GU?$char_traits@G@std@@@3@1AAVios_base@3@PAH@Z@4QBDB
  ?_Src@?1??_Getffld@?$num_get@_WV?$istreambuf_iterator@_WU?$char_traits@_W@std@@@std@@@std@@ABAHPADAAV?$istreambuf_iterator@_WU?$char_traits@_W@std@@@3@1AAVios_base@3@PAH@Z@4QBDB="C:\Windows\SysWOW64\msvcp110_win".?_Src@?1??_Getffld@?$num_get@_WV?$istreambuf_iterator@_WU?$char_traits@_W@std@@@std@@@std@@ABAHPADAAV?$istreambuf_iterator@_WU?$char_traits@_W@std@@@3@1AAVios_base@3@PAH@Z@4QBDB
  ?_Src@?1??_Getffldx@?$num_get@DV?$istreambuf_iterator@DU?$char_traits@D@std@@@std@@@std@@ABAHPADAAV?$istreambuf_iterator@DU?$char_traits@D@std@@@3@1AAVios_base@3@PAH@Z@4QBDB="C:\Windows\SysWOW64\msvcp110_win".?_Src@?1??_Getffldx@?$num_get@DV?$istreambuf_iterator@DU?$char_traits@D@std@@@std@@@std@@ABAHPADAAV?$istreambuf_iterator@DU?$char_traits@D@std@@@3@1AAVios_base@3@PAH@Z@4QBDB
  ?_Src@?1??_Getffldx@?$num_get@GV?$istreambuf_iterator@GU?$char_traits@G@std@@@std@@@std@@ABAHPADAAV?$istreambuf_iterator@GU?$char_traits@G@std@@@3@1AAVios_base@3@PAH@Z@4QBDB="C:\Windows\SysWOW64\msvcp110_win".?_Src@?1??_Getffldx@?$num_get@GV?$istreambuf_iterator@GU?$char_traits@G@std@@@std@@@std@@ABAHPADAAV?$istreambuf_iterator@GU?$char_traits@G@std@@@3@1AAVios_base@3@PAH@Z@4QBDB
  ?_Src@?1??_Getffldx@?$num_get@_WV?$istreambuf_iterator@_WU?$char_traits@_W@std@@@std@@@std@@ABAHPADAAV?$istreambuf_iterator@_WU?$char_traits@_W@std@@@3@1AAVios_base@3@PAH@Z@4QBDB="C:\Windows\SysWOW64\msvcp110_win".?_Src@?1??_Getffldx@?$num_get@_WV?$istreambuf_iterator@_WU?$char_traits@_W@std@@@std@@@std@@ABAHPADAAV?$istreambuf_iterator@_WU?$char_traits@_W@std@@@3@1AAVios_base@3@PAH@Z@4QBDB
  ?_Src@?1??_Getifld@?$num_get@DV?$istreambuf_iterator@DU?$char_traits@D@std@@@std@@@std@@ABAHPADAAV?$istreambuf_iterator@DU?$char_traits@D@std@@@3@1HABVlocale@3@@Z@4QBDB="C:\Windows\SysWOW64\msvcp110_win".?_Src@?1??_Getifld@?$num_get@DV?$istreambuf_iterator@DU?$char_traits@D@std@@@std@@@std@@ABAHPADAAV?$istreambuf_iterator@DU?$char_traits@D@std@@@3@1HABVlocale@3@@Z@4QBDB
  ?_Src@?1??_Getifld@?$num_get@GV?$istreambuf_iterator@GU?$char_traits@G@std@@@std@@@std@@ABAHPADAAV?$istreambuf_iterator@GU?$char_traits@G@std@@@3@1HABVlocale@3@@Z@4QBDB="C:\Windows\SysWOW64\msvcp110_win".?_Src@?1??_Getifld@?$num_get@GV?$istreambuf_iterator@GU?$char_traits@G@std@@@std@@@std@@ABAHPADAAV?$istreambuf_iterator@GU?$char_traits@G@std@@@3@1HABVlocale@3@@Z@4QBDB
  ?_Src@?1??_Getifld@?$num_get@_WV?$istreambuf_iterator@_WU?$char_traits@_W@std@@@std@@@std@@ABAHPADAAV?$istreambuf_iterator@_WU?$char_traits@_W@std@@@3@1HABVlocale@3@@Z@4QBDB="C:\Windows\SysWOW64\msvcp110_win".?_Src@?1??_Getifld@?$num_get@_WV?$istreambuf_iterator@_WU?$char_traits@_W@std@@@std@@@std@@ABAHPADAAV?$istreambuf_iterator@_WU?$char_traits@_W@std@@@3@1HABVlocale@3@@Z@4QBDB
  ?_Swap_all@_Container_base0@std@@QAEXAAU12@@Z="C:\Windows\SysWOW64\msvcp110_win".?_Swap_all@_Container_base0@std@@QAEXAAU12@@Z
  ?_Swap_all@_Container_base12@std@@QAEXAAU12@@Z="C:\Windows\SysWOW64\msvcp110_win".?_Swap_all@_Container_base12@std@@QAEXAAU12@@Z
  ?_Sync@ios_base@std@@0_NA="C:\Windows\SysWOW64\msvcp110_win".?_Sync@ios_base@std@@0_NA
  ?_Syserror_map@std@@YAPBDH@Z="C:\Windows\SysWOW64\msvcp110_win".?_Syserror_map@std@@YAPBDH@Z
  ?_Throw_C_error@std@@YAXH@Z="C:\Windows\SysWOW64\msvcp110_win".?_Throw_C_error@std@@YAXH@Z
  ?_Throw_Cpp_error@std@@YAXH@Z="C:\Windows\SysWOW64\msvcp110_win".?_Throw_Cpp_error@std@@YAXH@Z
  ?_Tidy@?$_Yarn@D@std@@AAEXXZ="C:\Windows\SysWOW64\msvcp110_win".?_Tidy@?$_Yarn@D@std@@AAEXXZ
  ?_Tidy@?$_Yarn@_W@std@@AAEXXZ="C:\Windows\SysWOW64\msvcp110_win".?_Tidy@?$_Yarn@_W@std@@AAEXXZ
  ?_Tidy@?$ctype@D@std@@IAEXXZ="C:\Windows\SysWOW64\msvcp110_win".?_Tidy@?$ctype@D@std@@IAEXXZ
  ?_Tidy@?$time_get@DV?$istreambuf_iterator@DU?$char_traits@D@std@@@std@@@std@@AAEXXZ="C:\Windows\SysWOW64\msvcp110_win".?_Tidy@?$time_get@DV?$istreambuf_iterator@DU?$char_traits@D@std@@@std@@@std@@AAEXXZ
  ?_Tidy@?$time_get@GV?$istreambuf_iterator@GU?$char_traits@G@std@@@std@@@std@@AAEXXZ="C:\Windows\SysWOW64\msvcp110_win".?_Tidy@?$time_get@GV?$istreambuf_iterator@GU?$char_traits@G@std@@@std@@@std@@AAEXXZ
  ?_Tidy@?$time_get@_WV?$istreambuf_iterator@_WU?$char_traits@_W@std@@@std@@@std@@AAEXXZ="C:\Windows\SysWOW64\msvcp110_win".?_Tidy@?$time_get@_WV?$istreambuf_iterator@_WU?$char_traits@_W@std@@@std@@@std@@AAEXXZ
  ?_Tidy@ios_base@std@@AAEXXZ="C:\Windows\SysWOW64\msvcp110_win".?_Tidy@ios_base@std@@AAEXXZ
  ?_Unlock@?$basic_streambuf@DU?$char_traits@D@std@@@std@@UAEXXZ="C:\Windows\SysWOW64\msvcp110_win".?_Unlock@?$basic_streambuf@DU?$char_traits@D@std@@@std@@UAEXXZ
  ?_Unlock@?$basic_streambuf@GU?$char_traits@G@std@@@std@@UAEXXZ="C:\Windows\SysWOW64\msvcp110_win".?_Unlock@?$basic_streambuf@GU?$char_traits@G@std@@@std@@UAEXXZ
  ?_Unlock@?$basic_streambuf@_WU?$char_traits@_W@std@@@std@@UAEXXZ="C:\Windows\SysWOW64\msvcp110_win".?_Unlock@?$basic_streambuf@_WU?$char_traits@_W@std@@@std@@UAEXXZ
  ?_W_Getdays@_Locinfo@std@@QBEPBGXZ="C:\Windows\SysWOW64\msvcp110_win".?_W_Getdays@_Locinfo@std@@QBEPBGXZ
  ?_W_Getmonths@_Locinfo@std@@QBEPBGXZ="C:\Windows\SysWOW64\msvcp110_win".?_W_Getmonths@_Locinfo@std@@QBEPBGXZ
  ?_W_Gettnames@_Locinfo@std@@QBE?AV_Timevec@2@XZ="C:\Windows\SysWOW64\msvcp110_win".?_W_Gettnames@_Locinfo@std@@QBE?AV_Timevec@2@XZ
  ?_Winerror_map@std@@YAPBDH@Z="C:\Windows\SysWOW64\msvcp110_win".?_Winerror_map@std@@YAPBDH@Z
  ?_XLgamma@std@@YAMM@Z="C:\Windows\SysWOW64\msvcp110_win".?_XLgamma@std@@YAMM@Z
  ?_XLgamma@std@@YANN@Z="C:\Windows\SysWOW64\msvcp110_win".?_XLgamma@std@@YANN@Z
  ?_XLgamma@std@@YAOO@Z="C:\Windows\SysWOW64\msvcp110_win".?_XLgamma@std@@YAOO@Z
  ?_Xbad_alloc@std@@YAXXZ="C:\Windows\SysWOW64\msvcp110_win".?_Xbad_alloc@std@@YAXXZ
  ?_Xbad_function_call@std@@YAXXZ="C:\Windows\SysWOW64\msvcp110_win".?_Xbad_function_call@std@@YAXXZ
  ?_Xinvalid_argument@std@@YAXPBD@Z="C:\Windows\SysWOW64\msvcp110_win".?_Xinvalid_argument@std@@YAXPBD@Z
  ?_Xlength_error@std@@YAXPBD@Z="C:\Windows\SysWOW64\msvcp110_win".?_Xlength_error@std@@YAXPBD@Z
  ?_Xout_of_range@std@@YAXPBD@Z="C:\Windows\SysWOW64\msvcp110_win".?_Xout_of_range@std@@YAXPBD@Z
  ?_Xoverflow_error@std@@YAXPBD@Z="C:\Windows\SysWOW64\msvcp110_win".?_Xoverflow_error@std@@YAXPBD@Z
  ?_Xregex_error@std@@YAXW4error_type@regex_constants@1@@Z="C:\Windows\SysWOW64\msvcp110_win".?_Xregex_error@std@@YAXW4error_type@regex_constants@1@@Z
  ?_Xruntime_error@std@@YAXPBD@Z="C:\Windows\SysWOW64\msvcp110_win".?_Xruntime_error@std@@YAXPBD@Z
  ?adopt_lock@std@@3Uadopt_lock_t@1@B="C:\Windows\SysWOW64\msvcp110_win".?adopt_lock@std@@3Uadopt_lock_t@1@B
  ?always_noconv@codecvt_base@std@@QBE_NXZ="C:\Windows\SysWOW64\msvcp110_win".?always_noconv@codecvt_base@std@@QBE_NXZ
  ?bad@ios_base@std@@QBE_NXZ="C:\Windows\SysWOW64\msvcp110_win".?bad@ios_base@std@@QBE_NXZ
  ?c_str@?$_Yarn@D@std@@QBEPBDXZ="C:\Windows\SysWOW64\msvcp110_win".?c_str@?$_Yarn@D@std@@QBEPBDXZ
  ?cerr@std@@3V?$basic_ostream@DU?$char_traits@D@std@@@1@A="C:\Windows\SysWOW64\msvcp110_win".?cerr@std@@3V?$basic_ostream@DU?$char_traits@D@std@@@1@A
  ?cin@std@@3V?$basic_istream@DU?$char_traits@D@std@@@1@A="C:\Windows\SysWOW64\msvcp110_win".?cin@std@@3V?$basic_istream@DU?$char_traits@D@std@@@1@A
  ?classic@locale@std@@SAABV12@XZ="C:\Windows\SysWOW64\msvcp110_win".?classic@locale@std@@SAABV12@XZ
  ?classic_table@?$ctype@D@std@@SAPBFXZ="C:\Windows\SysWOW64\msvcp110_win".?classic_table@?$ctype@D@std@@SAPBFXZ
  ?clear@?$basic_ios@DU?$char_traits@D@std@@@std@@QAEXH_N@Z="C:\Windows\SysWOW64\msvcp110_win".?clear@?$basic_ios@DU?$char_traits@D@std@@@std@@QAEXH_N@Z
  ?clear@?$basic_ios@DU?$char_traits@D@std@@@std@@QAEXI@Z="C:\Windows\SysWOW64\msvcp110_win".?clear@?$basic_ios@DU?$char_traits@D@std@@@std@@QAEXI@Z
  ?clear@?$basic_ios@GU?$char_traits@G@std@@@std@@QAEXH_N@Z="C:\Windows\SysWOW64\msvcp110_win".?clear@?$basic_ios@GU?$char_traits@G@std@@@std@@QAEXH_N@Z
  ?clear@?$basic_ios@GU?$char_traits@G@std@@@std@@QAEXI@Z="C:\Windows\SysWOW64\msvcp110_win".?clear@?$basic_ios@GU?$char_traits@G@std@@@std@@QAEXI@Z
  ?clear@?$basic_ios@_WU?$char_traits@_W@std@@@std@@QAEXH_N@Z="C:\Windows\SysWOW64\msvcp110_win".?clear@?$basic_ios@_WU?$char_traits@_W@std@@@std@@QAEXH_N@Z
  ?clear@?$basic_ios@_WU?$char_traits@_W@std@@@std@@QAEXI@Z="C:\Windows\SysWOW64\msvcp110_win".?clear@?$basic_ios@_WU?$char_traits@_W@std@@@std@@QAEXI@Z
  ?clear@ios_base@std@@QAEXH@Z="C:\Windows\SysWOW64\msvcp110_win".?clear@ios_base@std@@QAEXH@Z
  ?clear@ios_base@std@@QAEXH_N@Z="C:\Windows\SysWOW64\msvcp110_win".?clear@ios_base@std@@QAEXH_N@Z
  ?clear@ios_base@std@@QAEXI@Z="C:\Windows\SysWOW64\msvcp110_win".?clear@ios_base@std@@QAEXI@Z
  ?clog@std@@3V?$basic_ostream@DU?$char_traits@D@std@@@1@A="C:\Windows\SysWOW64\msvcp110_win".?clog@std@@3V?$basic_ostream@DU?$char_traits@D@std@@@1@A
  ?copyfmt@?$basic_ios@DU?$char_traits@D@std@@@std@@QAEAAV12@ABV12@@Z="C:\Windows\SysWOW64\msvcp110_win".?copyfmt@?$basic_ios@DU?$char_traits@D@std@@@std@@QAEAAV12@ABV12@@Z
  ?copyfmt@?$basic_ios@GU?$char_traits@G@std@@@std@@QAEAAV12@ABV12@@Z="C:\Windows\SysWOW64\msvcp110_win".?copyfmt@?$basic_ios@GU?$char_traits@G@std@@@std@@QAEAAV12@ABV12@@Z
  ?copyfmt@?$basic_ios@_WU?$char_traits@_W@std@@@std@@QAEAAV12@ABV12@@Z="C:\Windows\SysWOW64\msvcp110_win".?copyfmt@?$basic_ios@_WU?$char_traits@_W@std@@@std@@QAEAAV12@ABV12@@Z
  ?copyfmt@ios_base@std@@QAEAAV12@ABV12@@Z="C:\Windows\SysWOW64\msvcp110_win".?copyfmt@ios_base@std@@QAEAAV12@ABV12@@Z
  ?cout@std@@3V?$basic_ostream@DU?$char_traits@D@std@@@1@A="C:\Windows\SysWOW64\msvcp110_win".?cout@std@@3V?$basic_ostream@DU?$char_traits@D@std@@@1@A
  ?date_order@?$time_get@DV?$istreambuf_iterator@DU?$char_traits@D@std@@@std@@@std@@QBE?AW4dateorder@time_base@2@XZ="C:\Windows\SysWOW64\msvcp110_win".?date_order@?$time_get@DV?$istreambuf_iterator@DU?$char_traits@D@std@@@std@@@std@@QBE?AW4dateorder@time_base@2@XZ
  ?date_order@?$time_get@GV?$istreambuf_iterator@GU?$char_traits@G@std@@@std@@@std@@QBE?AW4dateorder@time_base@2@XZ="C:\Windows\SysWOW64\msvcp110_win".?date_order@?$time_get@GV?$istreambuf_iterator@GU?$char_traits@G@std@@@std@@@std@@QBE?AW4dateorder@time_base@2@XZ
  ?date_order@?$time_get@_WV?$istreambuf_iterator@_WU?$char_traits@_W@std@@@std@@@std@@QBE?AW4dateorder@time_base@2@XZ="C:\Windows\SysWOW64\msvcp110_win".?date_order@?$time_get@_WV?$istreambuf_iterator@_WU?$char_traits@_W@std@@@std@@@std@@QBE?AW4dateorder@time_base@2@XZ
  ?defer_lock@std@@3Udefer_lock_t@1@B="C:\Windows\SysWOW64\msvcp110_win".?defer_lock@std@@3Udefer_lock_t@1@B
  ?do_always_noconv@?$codecvt@DDH@std@@MBE_NXZ="C:\Windows\SysWOW64\msvcp110_win".?do_always_noconv@?$codecvt@DDH@std@@MBE_NXZ
  ?do_always_noconv@?$codecvt@GDH@std@@MBE_NXZ="C:\Windows\SysWOW64\msvcp110_win".?do_always_noconv@?$codecvt@GDH@std@@MBE_NXZ
  ?do_always_noconv@?$codecvt@_SDH@std@@MBE_NXZ="C:\Windows\SysWOW64\msvcp110_win".?do_always_noconv@?$codecvt@_SDH@std@@MBE_NXZ
  ?do_always_noconv@?$codecvt@_UDH@std@@MBE_NXZ="C:\Windows\SysWOW64\msvcp110_win".?do_always_noconv@?$codecvt@_UDH@std@@MBE_NXZ
  ?do_always_noconv@?$codecvt@_WDH@std@@MBE_NXZ="C:\Windows\SysWOW64\msvcp110_win".?do_always_noconv@?$codecvt@_WDH@std@@MBE_NXZ
  ?do_always_noconv@codecvt_base@std@@MBE_NXZ="C:\Windows\SysWOW64\msvcp110_win".?do_always_noconv@codecvt_base@std@@MBE_NXZ
  ?do_date_order@?$time_get@DV?$istreambuf_iterator@DU?$char_traits@D@std@@@std@@@std@@MBE?AW4dateorder@time_base@2@XZ="C:\Windows\SysWOW64\msvcp110_win".?do_date_order@?$time_get@DV?$istreambuf_iterator@DU?$char_traits@D@std@@@std@@@std@@MBE?AW4dateorder@time_base@2@XZ
  ?do_date_order@?$time_get@GV?$istreambuf_iterator@GU?$char_traits@G@std@@@std@@@std@@MBE?AW4dateorder@time_base@2@XZ="C:\Windows\SysWOW64\msvcp110_win".?do_date_order@?$time_get@GV?$istreambuf_iterator@GU?$char_traits@G@std@@@std@@@std@@MBE?AW4dateorder@time_base@2@XZ
  ?do_date_order@?$time_get@_WV?$istreambuf_iterator@_WU?$char_traits@_W@std@@@std@@@std@@MBE?AW4dateorder@time_base@2@XZ="C:\Windows\SysWOW64\msvcp110_win".?do_date_order@?$time_get@_WV?$istreambuf_iterator@_WU?$char_traits@_W@std@@@std@@@std@@MBE?AW4dateorder@time_base@2@XZ
  ?do_encoding@?$codecvt@GDH@std@@MBEHXZ="C:\Windows\SysWOW64\msvcp110_win".?do_encoding@?$codecvt@GDH@std@@MBEHXZ
  ?do_encoding@?$codecvt@_SDH@std@@MBEHXZ="C:\Windows\SysWOW64\msvcp110_win".?do_encoding@?$codecvt@_SDH@std@@MBEHXZ
  ?do_encoding@?$codecvt@_UDH@std@@MBEHXZ="C:\Windows\SysWOW64\msvcp110_win".?do_encoding@?$codecvt@_UDH@std@@MBEHXZ
  ?do_encoding@?$codecvt@_WDH@std@@MBEHXZ="C:\Windows\SysWOW64\msvcp110_win".?do_encoding@?$codecvt@_WDH@std@@MBEHXZ
  ?do_encoding@codecvt_base@std@@MBEHXZ="C:\Windows\SysWOW64\msvcp110_win".?do_encoding@codecvt_base@std@@MBEHXZ
  ?do_get@?$num_get@DV?$istreambuf_iterator@DU?$char_traits@D@std@@@std@@@std@@MBE?AV?$istreambuf_iterator@DU?$char_traits@D@std@@@2@V32@0AAVios_base@2@AAHAAG@Z="C:\Windows\SysWOW64\msvcp110_win".?do_get@?$num_get@DV?$istreambuf_iterator@DU?$char_traits@D@std@@@std@@@std@@MBE?AV?$istreambuf_iterator@DU?$char_traits@D@std@@@2@V32@0AAVios_base@2@AAHAAG@Z
  ?do_get@?$num_get@DV?$istreambuf_iterator@DU?$char_traits@D@std@@@std@@@std@@MBE?AV?$istreambuf_iterator@DU?$char_traits@D@std@@@2@V32@0AAVios_base@2@AAHAAI@Z="C:\Windows\SysWOW64\msvcp110_win".?do_get@?$num_get@DV?$istreambuf_iterator@DU?$char_traits@D@std@@@std@@@std@@MBE?AV?$istreambuf_iterator@DU?$char_traits@D@std@@@2@V32@0AAVios_base@2@AAHAAI@Z
  ?do_get@?$num_get@DV?$istreambuf_iterator@DU?$char_traits@D@std@@@std@@@std@@MBE?AV?$istreambuf_iterator@DU?$char_traits@D@std@@@2@V32@0AAVios_base@2@AAHAAJ@Z="C:\Windows\SysWOW64\msvcp110_win".?do_get@?$num_get@DV?$istreambuf_iterator@DU?$char_traits@D@std@@@std@@@std@@MBE?AV?$istreambuf_iterator@DU?$char_traits@D@std@@@2@V32@0AAVios_base@2@AAHAAJ@Z
  ?do_get@?$num_get@DV?$istreambuf_iterator@DU?$char_traits@D@std@@@std@@@std@@MBE?AV?$istreambuf_iterator@DU?$char_traits@D@std@@@2@V32@0AAVios_base@2@AAHAAK@Z="C:\Windows\SysWOW64\msvcp110_win".?do_get@?$num_get@DV?$istreambuf_iterator@DU?$char_traits@D@std@@@std@@@std@@MBE?AV?$istreambuf_iterator@DU?$char_traits@D@std@@@2@V32@0AAVios_base@2@AAHAAK@Z
  ?do_get@?$num_get@DV?$istreambuf_iterator@DU?$char_traits@D@std@@@std@@@std@@MBE?AV?$istreambuf_iterator@DU?$char_traits@D@std@@@2@V32@0AAVios_base@2@AAHAAM@Z="C:\Windows\SysWOW64\msvcp110_win".?do_get@?$num_get@DV?$istreambuf_iterator@DU?$char_traits@D@std@@@std@@@std@@MBE?AV?$istreambuf_iterator@DU?$char_traits@D@std@@@2@V32@0AAVios_base@2@AAHAAM@Z
  ?do_get@?$num_get@DV?$istreambuf_iterator@DU?$char_traits@D@std@@@std@@@std@@MBE?AV?$istreambuf_iterator@DU?$char_traits@D@std@@@2@V32@0AAVios_base@2@AAHAAN@Z="C:\Windows\SysWOW64\msvcp110_win".?do_get@?$num_get@DV?$istreambuf_iterator@DU?$char_traits@D@std@@@std@@@std@@MBE?AV?$istreambuf_iterator@DU?$char_traits@D@std@@@2@V32@0AAVios_base@2@AAHAAN@Z
  ?do_get@?$num_get@DV?$istreambuf_iterator@DU?$char_traits@D@std@@@std@@@std@@MBE?AV?$istreambuf_iterator@DU?$char_traits@D@std@@@2@V32@0AAVios_base@2@AAHAAO@Z="C:\Windows\SysWOW64\msvcp110_win".?do_get@?$num_get@DV?$istreambuf_iterator@DU?$char_traits@D@std@@@std@@@std@@MBE?AV?$istreambuf_iterator@DU?$char_traits@D@std@@@2@V32@0AAVios_base@2@AAHAAO@Z
  ?do_get@?$num_get@DV?$istreambuf_iterator@DU?$char_traits@D@std@@@std@@@std@@MBE?AV?$istreambuf_iterator@DU?$char_traits@D@std@@@2@V32@0AAVios_base@2@AAHAAPAX@Z="C:\Windows\SysWOW64\msvcp110_win".?do_get@?$num_get@DV?$istreambuf_iterator@DU?$char_traits@D@std@@@std@@@std@@MBE?AV?$istreambuf_iterator@DU?$char_traits@D@std@@@2@V32@0AAVios_base@2@AAHAAPAX@Z
  ?do_get@?$num_get@DV?$istreambuf_iterator@DU?$char_traits@D@std@@@std@@@std@@MBE?AV?$istreambuf_iterator@DU?$char_traits@D@std@@@2@V32@0AAVios_base@2@AAHAA_J@Z="C:\Windows\SysWOW64\msvcp110_win".?do_get@?$num_get@DV?$istreambuf_iterator@DU?$char_traits@D@std@@@std@@@std@@MBE?AV?$istreambuf_iterator@DU?$char_traits@D@std@@@2@V32@0AAVios_base@2@AAHAA_J@Z
  ?do_get@?$num_get@DV?$istreambuf_iterator@DU?$char_traits@D@std@@@std@@@std@@MBE?AV?$istreambuf_iterator@DU?$char_traits@D@std@@@2@V32@0AAVios_base@2@AAHAA_K@Z="C:\Windows\SysWOW64\msvcp110_win".?do_get@?$num_get@DV?$istreambuf_iterator@DU?$char_traits@D@std@@@std@@@std@@MBE?AV?$istreambuf_iterator@DU?$char_traits@D@std@@@2@V32@0AAVios_base@2@AAHAA_K@Z
  ?do_get@?$num_get@DV?$istreambuf_iterator@DU?$char_traits@D@std@@@std@@@std@@MBE?AV?$istreambuf_iterator@DU?$char_traits@D@std@@@2@V32@0AAVios_base@2@AAHAA_N@Z="C:\Windows\SysWOW64\msvcp110_win".?do_get@?$num_get@DV?$istreambuf_iterator@DU?$char_traits@D@std@@@std@@@std@@MBE?AV?$istreambuf_iterator@DU?$char_traits@D@std@@@2@V32@0AAVios_base@2@AAHAA_N@Z
  ?do_get@?$num_get@GV?$istreambuf_iterator@GU?$char_traits@G@std@@@std@@@std@@MBE?AV?$istreambuf_iterator@GU?$char_traits@G@std@@@2@V32@0AAVios_base@2@AAHAAG@Z="C:\Windows\SysWOW64\msvcp110_win".?do_get@?$num_get@GV?$istreambuf_iterator@GU?$char_traits@G@std@@@std@@@std@@MBE?AV?$istreambuf_iterator@GU?$char_traits@G@std@@@2@V32@0AAVios_base@2@AAHAAG@Z
  ?do_get@?$num_get@GV?$istreambuf_iterator@GU?$char_traits@G@std@@@std@@@std@@MBE?AV?$istreambuf_iterator@GU?$char_traits@G@std@@@2@V32@0AAVios_base@2@AAHAAI@Z="C:\Windows\SysWOW64\msvcp110_win".?do_get@?$num_get@GV?$istreambuf_iterator@GU?$char_traits@G@std@@@std@@@std@@MBE?AV?$istreambuf_iterator@GU?$char_traits@G@std@@@2@V32@0AAVios_base@2@AAHAAI@Z
  ?do_get@?$num_get@GV?$istreambuf_iterator@GU?$char_traits@G@std@@@std@@@std@@MBE?AV?$istreambuf_iterator@GU?$char_traits@G@std@@@2@V32@0AAVios_base@2@AAHAAJ@Z="C:\Windows\SysWOW64\msvcp110_win".?do_get@?$num_get@GV?$istreambuf_iterator@GU?$char_traits@G@std@@@std@@@std@@MBE?AV?$istreambuf_iterator@GU?$char_traits@G@std@@@2@V32@0AAVios_base@2@AAHAAJ@Z
  ?do_get@?$num_get@GV?$istreambuf_iterator@GU?$char_traits@G@std@@@std@@@std@@MBE?AV?$istreambuf_iterator@GU?$char_traits@G@std@@@2@V32@0AAVios_base@2@AAHAAK@Z="C:\Windows\SysWOW64\msvcp110_win".?do_get@?$num_get@GV?$istreambuf_iterator@GU?$char_traits@G@std@@@std@@@std@@MBE?AV?$istreambuf_iterator@GU?$char_traits@G@std@@@2@V32@0AAVios_base@2@AAHAAK@Z
  ?do_get@?$num_get@GV?$istreambuf_iterator@GU?$char_traits@G@std@@@std@@@std@@MBE?AV?$istreambuf_iterator@GU?$char_traits@G@std@@@2@V32@0AAVios_base@2@AAHAAM@Z="C:\Windows\SysWOW64\msvcp110_win".?do_get@?$num_get@GV?$istreambuf_iterator@GU?$char_traits@G@std@@@std@@@std@@MBE?AV?$istreambuf_iterator@GU?$char_traits@G@std@@@2@V32@0AAVios_base@2@AAHAAM@Z
  ?do_get@?$num_get@GV?$istreambuf_iterator@GU?$char_traits@G@std@@@std@@@std@@MBE?AV?$istreambuf_iterator@GU?$char_traits@G@std@@@2@V32@0AAVios_base@2@AAHAAN@Z="C:\Windows\SysWOW64\msvcp110_win".?do_get@?$num_get@GV?$istreambuf_iterator@GU?$char_traits@G@std@@@std@@@std@@MBE?AV?$istreambuf_iterator@GU?$char_traits@G@std@@@2@V32@0AAVios_base@2@AAHAAN@Z
  ?do_get@?$num_get@GV?$istreambuf_iterator@GU?$char_traits@G@std@@@std@@@std@@MBE?AV?$istreambuf_iterator@GU?$char_traits@G@std@@@2@V32@0AAVios_base@2@AAHAAO@Z="C:\Windows\SysWOW64\msvcp110_win".?do_get@?$num_get@GV?$istreambuf_iterator@GU?$char_traits@G@std@@@std@@@std@@MBE?AV?$istreambuf_iterator@GU?$char_traits@G@std@@@2@V32@0AAVios_base@2@AAHAAO@Z
  ?do_get@?$num_get@GV?$istreambuf_iterator@GU?$char_traits@G@std@@@std@@@std@@MBE?AV?$istreambuf_iterator@GU?$char_traits@G@std@@@2@V32@0AAVios_base@2@AAHAAPAX@Z="C:\Windows\SysWOW64\msvcp110_win".?do_get@?$num_get@GV?$istreambuf_iterator@GU?$char_traits@G@std@@@std@@@std@@MBE?AV?$istreambuf_iterator@GU?$char_traits@G@std@@@2@V32@0AAVios_base@2@AAHAAPAX@Z
  ?do_get@?$num_get@GV?$istreambuf_iterator@GU?$char_traits@G@std@@@std@@@std@@MBE?AV?$istreambuf_iterator@GU?$char_traits@G@std@@@2@V32@0AAVios_base@2@AAHAA_J@Z="C:\Windows\SysWOW64\msvcp110_win".?do_get@?$num_get@GV?$istreambuf_iterator@GU?$char_traits@G@std@@@std@@@std@@MBE?AV?$istreambuf_iterator@GU?$char_traits@G@std@@@2@V32@0AAVios_base@2@AAHAA_J@Z
  ?do_get@?$num_get@GV?$istreambuf_iterator@GU?$char_traits@G@std@@@std@@@std@@MBE?AV?$istreambuf_iterator@GU?$char_traits@G@std@@@2@V32@0AAVios_base@2@AAHAA_K@Z="C:\Windows\SysWOW64\msvcp110_win".?do_get@?$num_get@GV?$istreambuf_iterator@GU?$char_traits@G@std@@@std@@@std@@MBE?AV?$istreambuf_iterator@GU?$char_traits@G@std@@@2@V32@0AAVios_base@2@AAHAA_K@Z
  ?do_get@?$num_get@GV?$istreambuf_iterator@GU?$char_traits@G@std@@@std@@@std@@MBE?AV?$istreambuf_iterator@GU?$char_traits@G@std@@@2@V32@0AAVios_base@2@AAHAA_N@Z="C:\Windows\SysWOW64\msvcp110_win".?do_get@?$num_get@GV?$istreambuf_iterator@GU?$char_traits@G@std@@@std@@@std@@MBE?AV?$istreambuf_iterator@GU?$char_traits@G@std@@@2@V32@0AAVios_base@2@AAHAA_N@Z
  ?do_get@?$num_get@_WV?$istreambuf_iterator@_WU?$char_traits@_W@std@@@std@@@std@@MBE?AV?$istreambuf_iterator@_WU?$char_traits@_W@std@@@2@V32@0AAVios_base@2@AAHAAG@Z="C:\Windows\SysWOW64\msvcp110_win".?do_get@?$num_get@_WV?$istreambuf_iterator@_WU?$char_traits@_W@std@@@std@@@std@@MBE?AV?$istreambuf_iterator@_WU?$char_traits@_W@std@@@2@V32@0AAVios_base@2@AAHAAG@Z
  ?do_get@?$num_get@_WV?$istreambuf_iterator@_WU?$char_traits@_W@std@@@std@@@std@@MBE?AV?$istreambuf_iterator@_WU?$char_traits@_W@std@@@2@V32@0AAVios_base@2@AAHAAI@Z="C:\Windows\SysWOW64\msvcp110_win".?do_get@?$num_get@_WV?$istreambuf_iterator@_WU?$char_traits@_W@std@@@std@@@std@@MBE?AV?$istreambuf_iterator@_WU?$char_traits@_W@std@@@2@V32@0AAVios_base@2@AAHAAI@Z
  ?do_get@?$num_get@_WV?$istreambuf_iterator@_WU?$char_traits@_W@std@@@std@@@std@@MBE?AV?$istreambuf_iterator@_WU?$char_traits@_W@std@@@2@V32@0AAVios_base@2@AAHAAJ@Z="C:\Windows\SysWOW64\msvcp110_win".?do_get@?$num_get@_WV?$istreambuf_iterator@_WU?$char_traits@_W@std@@@std@@@std@@MBE?AV?$istreambuf_iterator@_WU?$char_traits@_W@std@@@2@V32@0AAVios_base@2@AAHAAJ@Z
  ?do_get@?$num_get@_WV?$istreambuf_iterator@_WU?$char_traits@_W@std@@@std@@@std@@MBE?AV?$istreambuf_iterator@_WU?$char_traits@_W@std@@@2@V32@0AAVios_base@2@AAHAAK@Z="C:\Windows\SysWOW64\msvcp110_win".?do_get@?$num_get@_WV?$istreambuf_iterator@_WU?$char_traits@_W@std@@@std@@@std@@MBE?AV?$istreambuf_iterator@_WU?$char_traits@_W@std@@@2@V32@0AAVios_base@2@AAHAAK@Z
  ?do_get@?$num_get@_WV?$istreambuf_iterator@_WU?$char_traits@_W@std@@@std@@@std@@MBE?AV?$istreambuf_iterator@_WU?$char_traits@_W@std@@@2@V32@0AAVios_base@2@AAHAAM@Z="C:\Windows\SysWOW64\msvcp110_win".?do_get@?$num_get@_WV?$istreambuf_iterator@_WU?$char_traits@_W@std@@@std@@@std@@MBE?AV?$istreambuf_iterator@_WU?$char_traits@_W@std@@@2@V32@0AAVios_base@2@AAHAAM@Z
  ?do_get@?$num_get@_WV?$istreambuf_iterator@_WU?$char_traits@_W@std@@@std@@@std@@MBE?AV?$istreambuf_iterator@_WU?$char_traits@_W@std@@@2@V32@0AAVios_base@2@AAHAAN@Z="C:\Windows\SysWOW64\msvcp110_win".?do_get@?$num_get@_WV?$istreambuf_iterator@_WU?$char_traits@_W@std@@@std@@@std@@MBE?AV?$istreambuf_iterator@_WU?$char_traits@_W@std@@@2@V32@0AAVios_base@2@AAHAAN@Z
  ?do_get@?$num_get@_WV?$istreambuf_iterator@_WU?$char_traits@_W@std@@@std@@@std@@MBE?AV?$istreambuf_iterator@_WU?$char_traits@_W@std@@@2@V32@0AAVios_base@2@AAHAAO@Z="C:\Windows\SysWOW64\msvcp110_win".?do_get@?$num_get@_WV?$istreambuf_iterator@_WU?$char_traits@_W@std@@@std@@@std@@MBE?AV?$istreambuf_iterator@_WU?$char_traits@_W@std@@@2@V32@0AAVios_base@2@AAHAAO@Z
  ?do_get@?$num_get@_WV?$istreambuf_iterator@_WU?$char_traits@_W@std@@@std@@@std@@MBE?AV?$istreambuf_iterator@_WU?$char_traits@_W@std@@@2@V32@0AAVios_base@2@AAHAAPAX@Z="C:\Windows\SysWOW64\msvcp110_win".?do_get@?$num_get@_WV?$istreambuf_iterator@_WU?$char_traits@_W@std@@@std@@@std@@MBE?AV?$istreambuf_iterator@_WU?$char_traits@_W@std@@@2@V32@0AAVios_base@2@AAHAAPAX@Z
  ?do_get@?$num_get@_WV?$istreambuf_iterator@_WU?$char_traits@_W@std@@@std@@@std@@MBE?AV?$istreambuf_iterator@_WU?$char_traits@_W@std@@@2@V32@0AAVios_base@2@AAHAA_J@Z="C:\Windows\SysWOW64\msvcp110_win".?do_get@?$num_get@_WV?$istreambuf_iterator@_WU?$char_traits@_W@std@@@std@@@std@@MBE?AV?$istreambuf_iterator@_WU?$char_traits@_W@std@@@2@V32@0AAVios_base@2@AAHAA_J@Z
  ?do_get@?$num_get@_WV?$istreambuf_iterator@_WU?$char_traits@_W@std@@@std@@@std@@MBE?AV?$istreambuf_iterator@_WU?$char_traits@_W@std@@@2@V32@0AAVios_base@2@AAHAA_K@Z="C:\Windows\SysWOW64\msvcp110_win".?do_get@?$num_get@_WV?$istreambuf_iterator@_WU?$char_traits@_W@std@@@std@@@std@@MBE?AV?$istreambuf_iterator@_WU?$char_traits@_W@std@@@2@V32@0AAVios_base@2@AAHAA_K@Z
  ?do_get@?$num_get@_WV?$istreambuf_iterator@_WU?$char_traits@_W@std@@@std@@@std@@MBE?AV?$istreambuf_iterator@_WU?$char_traits@_W@std@@@2@V32@0AAVios_base@2@AAHAA_N@Z="C:\Windows\SysWOW64\msvcp110_win".?do_get@?$num_get@_WV?$istreambuf_iterator@_WU?$char_traits@_W@std@@@std@@@std@@MBE?AV?$istreambuf_iterator@_WU?$char_traits@_W@std@@@2@V32@0AAVios_base@2@AAHAA_N@Z
  ?do_get@?$time_get@DV?$istreambuf_iterator@DU?$char_traits@D@std@@@std@@@std@@MBE?AV?$istreambuf_iterator@DU?$char_traits@D@std@@@2@V32@0AAVios_base@2@AAHPAUtm@@DD@Z="C:\Windows\SysWOW64\msvcp110_win".?do_get@?$time_get@DV?$istreambuf_iterator@DU?$char_traits@D@std@@@std@@@std@@MBE?AV?$istreambuf_iterator@DU?$char_traits@D@std@@@2@V32@0AAVios_base@2@AAHPAUtm@@DD@Z
  ?do_get@?$time_get@GV?$istreambuf_iterator@GU?$char_traits@G@std@@@std@@@std@@MBE?AV?$istreambuf_iterator@GU?$char_traits@G@std@@@2@V32@0AAVios_base@2@AAHPAUtm@@DD@Z="C:\Windows\SysWOW64\msvcp110_win".?do_get@?$time_get@GV?$istreambuf_iterator@GU?$char_traits@G@std@@@std@@@std@@MBE?AV?$istreambuf_iterator@GU?$char_traits@G@std@@@2@V32@0AAVios_base@2@AAHPAUtm@@DD@Z
  ?do_get@?$time_get@_WV?$istreambuf_iterator@_WU?$char_traits@_W@std@@@std@@@std@@MBE?AV?$istreambuf_iterator@_WU?$char_traits@_W@std@@@2@V32@0AAVios_base@2@AAHPAUtm@@DD@Z="C:\Windows\SysWOW64\msvcp110_win".?do_get@?$time_get@_WV?$istreambuf_iterator@_WU?$char_traits@_W@std@@@std@@@std@@MBE?AV?$istreambuf_iterator@_WU?$char_traits@_W@std@@@2@V32@0AAVios_base@2@AAHPAUtm@@DD@Z
  ?do_get_date@?$time_get@DV?$istreambuf_iterator@DU?$char_traits@D@std@@@std@@@std@@MBE?AV?$istreambuf_iterator@DU?$char_traits@D@std@@@2@V32@0AAVios_base@2@AAHPAUtm@@@Z="C:\Windows\SysWOW64\msvcp110_win".?do_get_date@?$time_get@DV?$istreambuf_iterator@DU?$char_traits@D@std@@@std@@@std@@MBE?AV?$istreambuf_iterator@DU?$char_traits@D@std@@@2@V32@0AAVios_base@2@AAHPAUtm@@@Z
  ?do_get_date@?$time_get@GV?$istreambuf_iterator@GU?$char_traits@G@std@@@std@@@std@@MBE?AV?$istreambuf_iterator@GU?$char_traits@G@std@@@2@V32@0AAVios_base@2@AAHPAUtm@@@Z="C:\Windows\SysWOW64\msvcp110_win".?do_get_date@?$time_get@GV?$istreambuf_iterator@GU?$char_traits@G@std@@@std@@@std@@MBE?AV?$istreambuf_iterator@GU?$char_traits@G@std@@@2@V32@0AAVios_base@2@AAHPAUtm@@@Z
  ?do_get_date@?$time_get@_WV?$istreambuf_iterator@_WU?$char_traits@_W@std@@@std@@@std@@MBE?AV?$istreambuf_iterator@_WU?$char_traits@_W@std@@@2@V32@0AAVios_base@2@AAHPAUtm@@@Z="C:\Windows\SysWOW64\msvcp110_win".?do_get_date@?$time_get@_WV?$istreambuf_iterator@_WU?$char_traits@_W@std@@@std@@@std@@MBE?AV?$istreambuf_iterator@_WU?$char_traits@_W@std@@@2@V32@0AAVios_base@2@AAHPAUtm@@@Z
  ?do_get_monthname@?$time_get@DV?$istreambuf_iterator@DU?$char_traits@D@std@@@std@@@std@@MBE?AV?$istreambuf_iterator@DU?$char_traits@D@std@@@2@V32@0AAVios_base@2@AAHPAUtm@@@Z="C:\Windows\SysWOW64\msvcp110_win".?do_get_monthname@?$time_get@DV?$istreambuf_iterator@DU?$char_traits@D@std@@@std@@@std@@MBE?AV?$istreambuf_iterator@DU?$char_traits@D@std@@@2@V32@0AAVios_base@2@AAHPAUtm@@@Z
  ?do_get_monthname@?$time_get@GV?$istreambuf_iterator@GU?$char_traits@G@std@@@std@@@std@@MBE?AV?$istreambuf_iterator@GU?$char_traits@G@std@@@2@V32@0AAVios_base@2@AAHPAUtm@@@Z="C:\Windows\SysWOW64\msvcp110_win".?do_get_monthname@?$time_get@GV?$istreambuf_iterator@GU?$char_traits@G@std@@@std@@@std@@MBE?AV?$istreambuf_iterator@GU?$char_traits@G@std@@@2@V32@0AAVios_base@2@AAHPAUtm@@@Z
  ?do_get_monthname@?$time_get@_WV?$istreambuf_iterator@_WU?$char_traits@_W@std@@@std@@@std@@MBE?AV?$istreambuf_iterator@_WU?$char_traits@_W@std@@@2@V32@0AAVios_base@2@AAHPAUtm@@@Z="C:\Windows\SysWOW64\msvcp110_win".?do_get_monthname@?$time_get@_WV?$istreambuf_iterator@_WU?$char_traits@_W@std@@@std@@@std@@MBE?AV?$istreambuf_iterator@_WU?$char_traits@_W@std@@@2@V32@0AAVios_base@2@AAHPAUtm@@@Z
  ?do_get_time@?$time_get@DV?$istreambuf_iterator@DU?$char_traits@D@std@@@std@@@std@@MBE?AV?$istreambuf_iterator@DU?$char_traits@D@std@@@2@V32@0AAVios_base@2@AAHPAUtm@@@Z="C:\Windows\SysWOW64\msvcp110_win".?do_get_time@?$time_get@DV?$istreambuf_iterator@DU?$char_traits@D@std@@@std@@@std@@MBE?AV?$istreambuf_iterator@DU?$char_traits@D@std@@@2@V32@0AAVios_base@2@AAHPAUtm@@@Z
  ?do_get_time@?$time_get@GV?$istreambuf_iterator@GU?$char_traits@G@std@@@std@@@std@@MBE?AV?$istreambuf_iterator@GU?$char_traits@G@std@@@2@V32@0AAVios_base@2@AAHPAUtm@@@Z="C:\Windows\SysWOW64\msvcp110_win".?do_get_time@?$time_get@GV?$istreambuf_iterator@GU?$char_traits@G@std@@@std@@@std@@MBE?AV?$istreambuf_iterator@GU?$char_traits@G@std@@@2@V32@0AAVios_base@2@AAHPAUtm@@@Z
  ?do_get_time@?$time_get@_WV?$istreambuf_iterator@_WU?$char_traits@_W@std@@@std@@@std@@MBE?AV?$istreambuf_iterator@_WU?$char_traits@_W@std@@@2@V32@0AAVios_base@2@AAHPAUtm@@@Z="C:\Windows\SysWOW64\msvcp110_win".?do_get_time@?$time_get@_WV?$istreambuf_iterator@_WU?$char_traits@_W@std@@@std@@@std@@MBE?AV?$istreambuf_iterator@_WU?$char_traits@_W@std@@@2@V32@0AAVios_base@2@AAHPAUtm@@@Z
  ?do_get_weekday@?$time_get@DV?$istreambuf_iterator@DU?$char_traits@D@std@@@std@@@std@@MBE?AV?$istreambuf_iterator@DU?$char_traits@D@std@@@2@V32@0AAVios_base@2@AAHPAUtm@@@Z="C:\Windows\SysWOW64\msvcp110_win".?do_get_weekday@?$time_get@DV?$istreambuf_iterator@DU?$char_traits@D@std@@@std@@@std@@MBE?AV?$istreambuf_iterator@DU?$char_traits@D@std@@@2@V32@0AAVios_base@2@AAHPAUtm@@@Z
  ?do_get_weekday@?$time_get@GV?$istreambuf_iterator@GU?$char_traits@G@std@@@std@@@std@@MBE?AV?$istreambuf_iterator@GU?$char_traits@G@std@@@2@V32@0AAVios_base@2@AAHPAUtm@@@Z="C:\Windows\SysWOW64\msvcp110_win".?do_get_weekday@?$time_get@GV?$istreambuf_iterator@GU?$char_traits@G@std@@@std@@@std@@MBE?AV?$istreambuf_iterator@GU?$char_traits@G@std@@@2@V32@0AAVios_base@2@AAHPAUtm@@@Z
  ?do_get_weekday@?$time_get@_WV?$istreambuf_iterator@_WU?$char_traits@_W@std@@@std@@@std@@MBE?AV?$istreambuf_iterator@_WU?$char_traits@_W@std@@@2@V32@0AAVios_base@2@AAHPAUtm@@@Z="C:\Windows\SysWOW64\msvcp110_win".?do_get_weekday@?$time_get@_WV?$istreambuf_iterator@_WU?$char_traits@_W@std@@@std@@@std@@MBE?AV?$istreambuf_iterator@_WU?$char_traits@_W@std@@@2@V32@0AAVios_base@2@AAHPAUtm@@@Z
  ?do_get_year@?$time_get@DV?$istreambuf_iterator@DU?$char_traits@D@std@@@std@@@std@@MBE?AV?$istreambuf_iterator@DU?$char_traits@D@std@@@2@V32@0AAVios_base@2@AAHPAUtm@@@Z="C:\Windows\SysWOW64\msvcp110_win".?do_get_year@?$time_get@DV?$istreambuf_iterator@DU?$char_traits@D@std@@@std@@@std@@MBE?AV?$istreambuf_iterator@DU?$char_traits@D@std@@@2@V32@0AAVios_base@2@AAHPAUtm@@@Z
  ?do_get_year@?$time_get@GV?$istreambuf_iterator@GU?$char_traits@G@std@@@std@@@std@@MBE?AV?$istreambuf_iterator@GU?$char_traits@G@std@@@2@V32@0AAVios_base@2@AAHPAUtm@@@Z="C:\Windows\SysWOW64\msvcp110_win".?do_get_year@?$time_get@GV?$istreambuf_iterator@GU?$char_traits@G@std@@@std@@@std@@MBE?AV?$istreambuf_iterator@GU?$char_traits@G@std@@@2@V32@0AAVios_base@2@AAHPAUtm@@@Z
  ?do_get_year@?$time_get@_WV?$istreambuf_iterator@_WU?$char_traits@_W@std@@@std@@@std@@MBE?AV?$istreambuf_iterator@_WU?$char_traits@_W@std@@@2@V32@0AAVios_base@2@AAHPAUtm@@@Z="C:\Windows\SysWOW64\msvcp110_win".?do_get_year@?$time_get@_WV?$istreambuf_iterator@_WU?$char_traits@_W@std@@@std@@@std@@MBE?AV?$istreambuf_iterator@_WU?$char_traits@_W@std@@@2@V32@0AAVios_base@2@AAHPAUtm@@@Z
  ?do_in@?$codecvt@DDH@std@@MBEHAAHPBD1AAPBDPAD3AAPAD@Z="C:\Windows\SysWOW64\msvcp110_win".?do_in@?$codecvt@DDH@std@@MBEHAAHPBD1AAPBDPAD3AAPAD@Z
  ?do_in@?$codecvt@GDH@std@@MBEHAAHPBD1AAPBDPAG3AAPAG@Z="C:\Windows\SysWOW64\msvcp110_win".?do_in@?$codecvt@GDH@std@@MBEHAAHPBD1AAPBDPAG3AAPAG@Z
  ?do_in@?$codecvt@_SDH@std@@MBEHAAHPBD1AAPBDPA_S3AAPA_S@Z="C:\Windows\SysWOW64\msvcp110_win".?do_in@?$codecvt@_SDH@std@@MBEHAAHPBD1AAPBDPA_S3AAPA_S@Z
  ?do_in@?$codecvt@_UDH@std@@MBEHAAHPBD1AAPBDPA_U3AAPA_U@Z="C:\Windows\SysWOW64\msvcp110_win".?do_in@?$codecvt@_UDH@std@@MBEHAAHPBD1AAPBDPA_U3AAPA_U@Z
  ?do_in@?$codecvt@_WDH@std@@MBEHAAHPBD1AAPBDPA_W3AAPA_W@Z="C:\Windows\SysWOW64\msvcp110_win".?do_in@?$codecvt@_WDH@std@@MBEHAAHPBD1AAPBDPA_W3AAPA_W@Z
  ?do_is@?$ctype@G@std@@MBEPBGPBG0PAF@Z="C:\Windows\SysWOW64\msvcp110_win".?do_is@?$ctype@G@std@@MBEPBGPBG0PAF@Z
  ?do_is@?$ctype@G@std@@MBE_NFG@Z="C:\Windows\SysWOW64\msvcp110_win".?do_is@?$ctype@G@std@@MBE_NFG@Z
  ?do_is@?$ctype@_W@std@@MBEPB_WPB_W0PAF@Z="C:\Windows\SysWOW64\msvcp110_win".?do_is@?$ctype@_W@std@@MBEPB_WPB_W0PAF@Z
  ?do_is@?$ctype@_W@std@@MBE_NF_W@Z="C:\Windows\SysWOW64\msvcp110_win".?do_is@?$ctype@_W@std@@MBE_NF_W@Z
  ?do_length@?$codecvt@DDH@std@@MBEHAAHPBD1I@Z="C:\Windows\SysWOW64\msvcp110_win".?do_length@?$codecvt@DDH@std@@MBEHAAHPBD1I@Z
  ?do_length@?$codecvt@GDH@std@@MBEHAAHPBD1I@Z="C:\Windows\SysWOW64\msvcp110_win".?do_length@?$codecvt@GDH@std@@MBEHAAHPBD1I@Z
  ?do_length@?$codecvt@_SDH@std@@MBEHAAHPBD1I@Z="C:\Windows\SysWOW64\msvcp110_win".?do_length@?$codecvt@_SDH@std@@MBEHAAHPBD1I@Z
  ?do_length@?$codecvt@_UDH@std@@MBEHAAHPBD1I@Z="C:\Windows\SysWOW64\msvcp110_win".?do_length@?$codecvt@_UDH@std@@MBEHAAHPBD1I@Z
  ?do_length@?$codecvt@_WDH@std@@MBEHAAHPBD1I@Z="C:\Windows\SysWOW64\msvcp110_win".?do_length@?$codecvt@_WDH@std@@MBEHAAHPBD1I@Z
  ?do_max_length@?$codecvt@GDH@std@@MBEHXZ="C:\Windows\SysWOW64\msvcp110_win".?do_max_length@?$codecvt@GDH@std@@MBEHXZ
  ?do_max_length@?$codecvt@_SDH@std@@MBEHXZ="C:\Windows\SysWOW64\msvcp110_win".?do_max_length@?$codecvt@_SDH@std@@MBEHXZ
  ?do_max_length@?$codecvt@_UDH@std@@MBEHXZ="C:\Windows\SysWOW64\msvcp110_win".?do_max_length@?$codecvt@_UDH@std@@MBEHXZ
  ?do_max_length@?$codecvt@_WDH@std@@MBEHXZ="C:\Windows\SysWOW64\msvcp110_win".?do_max_length@?$codecvt@_WDH@std@@MBEHXZ
  ?do_max_length@codecvt_base@std@@MBEHXZ="C:\Windows\SysWOW64\msvcp110_win".?do_max_length@codecvt_base@std@@MBEHXZ
  ?do_narrow@?$ctype@D@std@@MBEDDD@Z="C:\Windows\SysWOW64\msvcp110_win".?do_narrow@?$ctype@D@std@@MBEDDD@Z
  ?do_narrow@?$ctype@D@std@@MBEPBDPBD0DPAD@Z="C:\Windows\SysWOW64\msvcp110_win".?do_narrow@?$ctype@D@std@@MBEPBDPBD0DPAD@Z
  ?do_narrow@?$ctype@G@std@@MBEDGD@Z="C:\Windows\SysWOW64\msvcp110_win".?do_narrow@?$ctype@G@std@@MBEDGD@Z
  ?do_narrow@?$ctype@G@std@@MBEPBGPBG0DPAD@Z="C:\Windows\SysWOW64\msvcp110_win".?do_narrow@?$ctype@G@std@@MBEPBGPBG0DPAD@Z
  ?do_narrow@?$ctype@_W@std@@MBED_WD@Z="C:\Windows\SysWOW64\msvcp110_win".?do_narrow@?$ctype@_W@std@@MBED_WD@Z
  ?do_narrow@?$ctype@_W@std@@MBEPB_WPB_W0DPAD@Z="C:\Windows\SysWOW64\msvcp110_win".?do_narrow@?$ctype@_W@std@@MBEPB_WPB_W0DPAD@Z
  ?do_out@?$codecvt@DDH@std@@MBEHAAHPBD1AAPBDPAD3AAPAD@Z="C:\Windows\SysWOW64\msvcp110_win".?do_out@?$codecvt@DDH@std@@MBEHAAHPBD1AAPBDPAD3AAPAD@Z
  ?do_out@?$codecvt@GDH@std@@MBEHAAHPBG1AAPBGPAD3AAPAD@Z="C:\Windows\SysWOW64\msvcp110_win".?do_out@?$codecvt@GDH@std@@MBEHAAHPBG1AAPBGPAD3AAPAD@Z
  ?do_out@?$codecvt@_SDH@std@@MBEHAAHPB_S1AAPB_SPAD3AAPAD@Z="C:\Windows\SysWOW64\msvcp110_win".?do_out@?$codecvt@_SDH@std@@MBEHAAHPB_S1AAPB_SPAD3AAPAD@Z
  ?do_out@?$codecvt@_UDH@std@@MBEHAAHPB_U1AAPB_UPAD3AAPAD@Z="C:\Windows\SysWOW64\msvcp110_win".?do_out@?$codecvt@_UDH@std@@MBEHAAHPB_U1AAPB_UPAD3AAPAD@Z
  ?do_out@?$codecvt@_WDH@std@@MBEHAAHPB_W1AAPB_WPAD3AAPAD@Z="C:\Windows\SysWOW64\msvcp110_win".?do_out@?$codecvt@_WDH@std@@MBEHAAHPB_W1AAPB_WPAD3AAPAD@Z
  ?do_put@?$num_put@DV?$ostreambuf_iterator@DU?$char_traits@D@std@@@std@@@std@@MBE?AV?$ostreambuf_iterator@DU?$char_traits@D@std@@@2@V32@AAVios_base@2@DJ@Z="C:\Windows\SysWOW64\msvcp110_win".?do_put@?$num_put@DV?$ostreambuf_iterator@DU?$char_traits@D@std@@@std@@@std@@MBE?AV?$ostreambuf_iterator@DU?$char_traits@D@std@@@2@V32@AAVios_base@2@DJ@Z
  ?do_put@?$num_put@DV?$ostreambuf_iterator@DU?$char_traits@D@std@@@std@@@std@@MBE?AV?$ostreambuf_iterator@DU?$char_traits@D@std@@@2@V32@AAVios_base@2@DK@Z="C:\Windows\SysWOW64\msvcp110_win".?do_put@?$num_put@DV?$ostreambuf_iterator@DU?$char_traits@D@std@@@std@@@std@@MBE?AV?$ostreambuf_iterator@DU?$char_traits@D@std@@@2@V32@AAVios_base@2@DK@Z
  ?do_put@?$num_put@DV?$ostreambuf_iterator@DU?$char_traits@D@std@@@std@@@std@@MBE?AV?$ostreambuf_iterator@DU?$char_traits@D@std@@@2@V32@AAVios_base@2@DN@Z="C:\Windows\SysWOW64\msvcp110_win".?do_put@?$num_put@DV?$ostreambuf_iterator@DU?$char_traits@D@std@@@std@@@std@@MBE?AV?$ostreambuf_iterator@DU?$char_traits@D@std@@@2@V32@AAVios_base@2@DN@Z
  ?do_put@?$num_put@DV?$ostreambuf_iterator@DU?$char_traits@D@std@@@std@@@std@@MBE?AV?$ostreambuf_iterator@DU?$char_traits@D@std@@@2@V32@AAVios_base@2@DO@Z="C:\Windows\SysWOW64\msvcp110_win".?do_put@?$num_put@DV?$ostreambuf_iterator@DU?$char_traits@D@std@@@std@@@std@@MBE?AV?$ostreambuf_iterator@DU?$char_traits@D@std@@@2@V32@AAVios_base@2@DO@Z
  ?do_put@?$num_put@DV?$ostreambuf_iterator@DU?$char_traits@D@std@@@std@@@std@@MBE?AV?$ostreambuf_iterator@DU?$char_traits@D@std@@@2@V32@AAVios_base@2@DPBX@Z="C:\Windows\SysWOW64\msvcp110_win".?do_put@?$num_put@DV?$ostreambuf_iterator@DU?$char_traits@D@std@@@std@@@std@@MBE?AV?$ostreambuf_iterator@DU?$char_traits@D@std@@@2@V32@AAVios_base@2@DPBX@Z
  ?do_put@?$num_put@DV?$ostreambuf_iterator@DU?$char_traits@D@std@@@std@@@std@@MBE?AV?$ostreambuf_iterator@DU?$char_traits@D@std@@@2@V32@AAVios_base@2@D_J@Z="C:\Windows\SysWOW64\msvcp110_win".?do_put@?$num_put@DV?$ostreambuf_iterator@DU?$char_traits@D@std@@@std@@@std@@MBE?AV?$ostreambuf_iterator@DU?$char_traits@D@std@@@2@V32@AAVios_base@2@D_J@Z
  ?do_put@?$num_put@DV?$ostreambuf_iterator@DU?$char_traits@D@std@@@std@@@std@@MBE?AV?$ostreambuf_iterator@DU?$char_traits@D@std@@@2@V32@AAVios_base@2@D_K@Z="C:\Windows\SysWOW64\msvcp110_win".?do_put@?$num_put@DV?$ostreambuf_iterator@DU?$char_traits@D@std@@@std@@@std@@MBE?AV?$ostreambuf_iterator@DU?$char_traits@D@std@@@2@V32@AAVios_base@2@D_K@Z
  ?do_put@?$num_put@DV?$ostreambuf_iterator@DU?$char_traits@D@std@@@std@@@std@@MBE?AV?$ostreambuf_iterator@DU?$char_traits@D@std@@@2@V32@AAVios_base@2@D_N@Z="C:\Windows\SysWOW64\msvcp110_win".?do_put@?$num_put@DV?$ostreambuf_iterator@DU?$char_traits@D@std@@@std@@@std@@MBE?AV?$ostreambuf_iterator@DU?$char_traits@D@std@@@2@V32@AAVios_base@2@D_N@Z
  ?do_put@?$num_put@GV?$ostreambuf_iterator@GU?$char_traits@G@std@@@std@@@std@@MBE?AV?$ostreambuf_iterator@GU?$char_traits@G@std@@@2@V32@AAVios_base@2@GJ@Z="C:\Windows\SysWOW64\msvcp110_win".?do_put@?$num_put@GV?$ostreambuf_iterator@GU?$char_traits@G@std@@@std@@@std@@MBE?AV?$ostreambuf_iterator@GU?$char_traits@G@std@@@2@V32@AAVios_base@2@GJ@Z
  ?do_put@?$num_put@GV?$ostreambuf_iterator@GU?$char_traits@G@std@@@std@@@std@@MBE?AV?$ostreambuf_iterator@GU?$char_traits@G@std@@@2@V32@AAVios_base@2@GK@Z="C:\Windows\SysWOW64\msvcp110_win".?do_put@?$num_put@GV?$ostreambuf_iterator@GU?$char_traits@G@std@@@std@@@std@@MBE?AV?$ostreambuf_iterator@GU?$char_traits@G@std@@@2@V32@AAVios_base@2@GK@Z
  ?do_put@?$num_put@GV?$ostreambuf_iterator@GU?$char_traits@G@std@@@std@@@std@@MBE?AV?$ostreambuf_iterator@GU?$char_traits@G@std@@@2@V32@AAVios_base@2@GN@Z="C:\Windows\SysWOW64\msvcp110_win".?do_put@?$num_put@GV?$ostreambuf_iterator@GU?$char_traits@G@std@@@std@@@std@@MBE?AV?$ostreambuf_iterator@GU?$char_traits@G@std@@@2@V32@AAVios_base@2@GN@Z
  ?do_put@?$num_put@GV?$ostreambuf_iterator@GU?$char_traits@G@std@@@std@@@std@@MBE?AV?$ostreambuf_iterator@GU?$char_traits@G@std@@@2@V32@AAVios_base@2@GO@Z="C:\Windows\SysWOW64\msvcp110_win".?do_put@?$num_put@GV?$ostreambuf_iterator@GU?$char_traits@G@std@@@std@@@std@@MBE?AV?$ostreambuf_iterator@GU?$char_traits@G@std@@@2@V32@AAVios_base@2@GO@Z
  ?do_put@?$num_put@GV?$ostreambuf_iterator@GU?$char_traits@G@std@@@std@@@std@@MBE?AV?$ostreambuf_iterator@GU?$char_traits@G@std@@@2@V32@AAVios_base@2@GPBX@Z="C:\Windows\SysWOW64\msvcp110_win".?do_put@?$num_put@GV?$ostreambuf_iterator@GU?$char_traits@G@std@@@std@@@std@@MBE?AV?$ostreambuf_iterator@GU?$char_traits@G@std@@@2@V32@AAVios_base@2@GPBX@Z
  ?do_put@?$num_put@GV?$ostreambuf_iterator@GU?$char_traits@G@std@@@std@@@std@@MBE?AV?$ostreambuf_iterator@GU?$char_traits@G@std@@@2@V32@AAVios_base@2@G_J@Z="C:\Windows\SysWOW64\msvcp110_win".?do_put@?$num_put@GV?$ostreambuf_iterator@GU?$char_traits@G@std@@@std@@@std@@MBE?AV?$ostreambuf_iterator@GU?$char_traits@G@std@@@2@V32@AAVios_base@2@G_J@Z
  ?do_put@?$num_put@GV?$ostreambuf_iterator@GU?$char_traits@G@std@@@std@@@std@@MBE?AV?$ostreambuf_iterator@GU?$char_traits@G@std@@@2@V32@AAVios_base@2@G_K@Z="C:\Windows\SysWOW64\msvcp110_win".?do_put@?$num_put@GV?$ostreambuf_iterator@GU?$char_traits@G@std@@@std@@@std@@MBE?AV?$ostreambuf_iterator@GU?$char_traits@G@std@@@2@V32@AAVios_base@2@G_K@Z
  ?do_put@?$num_put@GV?$ostreambuf_iterator@GU?$char_traits@G@std@@@std@@@std@@MBE?AV?$ostreambuf_iterator@GU?$char_traits@G@std@@@2@V32@AAVios_base@2@G_N@Z="C:\Windows\SysWOW64\msvcp110_win".?do_put@?$num_put@GV?$ostreambuf_iterator@GU?$char_traits@G@std@@@std@@@std@@MBE?AV?$ostreambuf_iterator@GU?$char_traits@G@std@@@2@V32@AAVios_base@2@G_N@Z
  ?do_put@?$num_put@_WV?$ostreambuf_iterator@_WU?$char_traits@_W@std@@@std@@@std@@MBE?AV?$ostreambuf_iterator@_WU?$char_traits@_W@std@@@2@V32@AAVios_base@2@_WJ@Z="C:\Windows\SysWOW64\msvcp110_win".?do_put@?$num_put@_WV?$ostreambuf_iterator@_WU?$char_traits@_W@std@@@std@@@std@@MBE?AV?$ostreambuf_iterator@_WU?$char_traits@_W@std@@@2@V32@AAVios_base@2@_WJ@Z
  ?do_put@?$num_put@_WV?$ostreambuf_iterator@_WU?$char_traits@_W@std@@@std@@@std@@MBE?AV?$ostreambuf_iterator@_WU?$char_traits@_W@std@@@2@V32@AAVios_base@2@_WK@Z="C:\Windows\SysWOW64\msvcp110_win".?do_put@?$num_put@_WV?$ostreambuf_iterator@_WU?$char_traits@_W@std@@@std@@@std@@MBE?AV?$ostreambuf_iterator@_WU?$char_traits@_W@std@@@2@V32@AAVios_base@2@_WK@Z
  ?do_put@?$num_put@_WV?$ostreambuf_iterator@_WU?$char_traits@_W@std@@@std@@@std@@MBE?AV?$ostreambuf_iterator@_WU?$char_traits@_W@std@@@2@V32@AAVios_base@2@_WN@Z="C:\Windows\SysWOW64\msvcp110_win".?do_put@?$num_put@_WV?$ostreambuf_iterator@_WU?$char_traits@_W@std@@@std@@@std@@MBE?AV?$ostreambuf_iterator@_WU?$char_traits@_W@std@@@2@V32@AAVios_base@2@_WN@Z
  ?do_put@?$num_put@_WV?$ostreambuf_iterator@_WU?$char_traits@_W@std@@@std@@@std@@MBE?AV?$ostreambuf_iterator@_WU?$char_traits@_W@std@@@2@V32@AAVios_base@2@_WO@Z="C:\Windows\SysWOW64\msvcp110_win".?do_put@?$num_put@_WV?$ostreambuf_iterator@_WU?$char_traits@_W@std@@@std@@@std@@MBE?AV?$ostreambuf_iterator@_WU?$char_traits@_W@std@@@2@V32@AAVios_base@2@_WO@Z
  ?do_put@?$num_put@_WV?$ostreambuf_iterator@_WU?$char_traits@_W@std@@@std@@@std@@MBE?AV?$ostreambuf_iterator@_WU?$char_traits@_W@std@@@2@V32@AAVios_base@2@_WPBX@Z="C:\Windows\SysWOW64\msvcp110_win".?do_put@?$num_put@_WV?$ostreambuf_iterator@_WU?$char_traits@_W@std@@@std@@@std@@MBE?AV?$ostreambuf_iterator@_WU?$char_traits@_W@std@@@2@V32@AAVios_base@2@_WPBX@Z
  ?do_put@?$num_put@_WV?$ostreambuf_iterator@_WU?$char_traits@_W@std@@@std@@@std@@MBE?AV?$ostreambuf_iterator@_WU?$char_traits@_W@std@@@2@V32@AAVios_base@2@_W_J@Z="C:\Windows\SysWOW64\msvcp110_win".?do_put@?$num_put@_WV?$ostreambuf_iterator@_WU?$char_traits@_W@std@@@std@@@std@@MBE?AV?$ostreambuf_iterator@_WU?$char_traits@_W@std@@@2@V32@AAVios_base@2@_W_J@Z
  ?do_put@?$num_put@_WV?$ostreambuf_iterator@_WU?$char_traits@_W@std@@@std@@@std@@MBE?AV?$ostreambuf_iterator@_WU?$char_traits@_W@std@@@2@V32@AAVios_base@2@_W_K@Z="C:\Windows\SysWOW64\msvcp110_win".?do_put@?$num_put@_WV?$ostreambuf_iterator@_WU?$char_traits@_W@std@@@std@@@std@@MBE?AV?$ostreambuf_iterator@_WU?$char_traits@_W@std@@@2@V32@AAVios_base@2@_W_K@Z
  ?do_put@?$num_put@_WV?$ostreambuf_iterator@_WU?$char_traits@_W@std@@@std@@@std@@MBE?AV?$ostreambuf_iterator@_WU?$char_traits@_W@std@@@2@V32@AAVios_base@2@_W_N@Z="C:\Windows\SysWOW64\msvcp110_win".?do_put@?$num_put@_WV?$ostreambuf_iterator@_WU?$char_traits@_W@std@@@std@@@std@@MBE?AV?$ostreambuf_iterator@_WU?$char_traits@_W@std@@@2@V32@AAVios_base@2@_W_N@Z
  ?do_put@?$time_put@DV?$ostreambuf_iterator@DU?$char_traits@D@std@@@std@@@std@@MBE?AV?$ostreambuf_iterator@DU?$char_traits@D@std@@@2@V32@AAVios_base@2@DPBUtm@@DD@Z="C:\Windows\SysWOW64\msvcp110_win".?do_put@?$time_put@DV?$ostreambuf_iterator@DU?$char_traits@D@std@@@std@@@std@@MBE?AV?$ostreambuf_iterator@DU?$char_traits@D@std@@@2@V32@AAVios_base@2@DPBUtm@@DD@Z
  ?do_put@?$time_put@GV?$ostreambuf_iterator@GU?$char_traits@G@std@@@std@@@std@@MBE?AV?$ostreambuf_iterator@GU?$char_traits@G@std@@@2@V32@AAVios_base@2@GPBUtm@@DD@Z="C:\Windows\SysWOW64\msvcp110_win".?do_put@?$time_put@GV?$ostreambuf_iterator@GU?$char_traits@G@std@@@std@@@std@@MBE?AV?$ostreambuf_iterator@GU?$char_traits@G@std@@@2@V32@AAVios_base@2@GPBUtm@@DD@Z
  ?do_put@?$time_put@_WV?$ostreambuf_iterator@_WU?$char_traits@_W@std@@@std@@@std@@MBE?AV?$ostreambuf_iterator@_WU?$char_traits@_W@std@@@2@V32@AAVios_base@2@_WPBUtm@@DD@Z="C:\Windows\SysWOW64\msvcp110_win".?do_put@?$time_put@_WV?$ostreambuf_iterator@_WU?$char_traits@_W@std@@@std@@@std@@MBE?AV?$ostreambuf_iterator@_WU?$char_traits@_W@std@@@2@V32@AAVios_base@2@_WPBUtm@@DD@Z
  ?do_scan_is@?$ctype@G@std@@MBEPBGFPBG0@Z="C:\Windows\SysWOW64\msvcp110_win".?do_scan_is@?$ctype@G@std@@MBEPBGFPBG0@Z
  ?do_scan_is@?$ctype@_W@std@@MBEPB_WFPB_W0@Z="C:\Windows\SysWOW64\msvcp110_win".?do_scan_is@?$ctype@_W@std@@MBEPB_WFPB_W0@Z
  ?do_scan_not@?$ctype@G@std@@MBEPBGFPBG0@Z="C:\Windows\SysWOW64\msvcp110_win".?do_scan_not@?$ctype@G@std@@MBEPBGFPBG0@Z
  ?do_scan_not@?$ctype@_W@std@@MBEPB_WFPB_W0@Z="C:\Windows\SysWOW64\msvcp110_win".?do_scan_not@?$ctype@_W@std@@MBEPB_WFPB_W0@Z
  ?do_tolower@?$ctype@D@std@@MBEDD@Z="C:\Windows\SysWOW64\msvcp110_win".?do_tolower@?$ctype@D@std@@MBEDD@Z
  ?do_tolower@?$ctype@D@std@@MBEPBDPADPBD@Z="C:\Windows\SysWOW64\msvcp110_win".?do_tolower@?$ctype@D@std@@MBEPBDPADPBD@Z
  ?do_tolower@?$ctype@G@std@@MBEGG@Z="C:\Windows\SysWOW64\msvcp110_win".?do_tolower@?$ctype@G@std@@MBEGG@Z
  ?do_tolower@?$ctype@G@std@@MBEPBGPAGPBG@Z="C:\Windows\SysWOW64\msvcp110_win".?do_tolower@?$ctype@G@std@@MBEPBGPAGPBG@Z
  ?do_tolower@?$ctype@_W@std@@MBEPB_WPA_WPB_W@Z="C:\Windows\SysWOW64\msvcp110_win".?do_tolower@?$ctype@_W@std@@MBEPB_WPA_WPB_W@Z
  ?do_tolower@?$ctype@_W@std@@MBE_W_W@Z="C:\Windows\SysWOW64\msvcp110_win".?do_tolower@?$ctype@_W@std@@MBE_W_W@Z
  ?do_toupper@?$ctype@D@std@@MBEDD@Z="C:\Windows\SysWOW64\msvcp110_win".?do_toupper@?$ctype@D@std@@MBEDD@Z
  ?do_toupper@?$ctype@D@std@@MBEPBDPADPBD@Z="C:\Windows\SysWOW64\msvcp110_win".?do_toupper@?$ctype@D@std@@MBEPBDPADPBD@Z
  ?do_toupper@?$ctype@G@std@@MBEGG@Z="C:\Windows\SysWOW64\msvcp110_win".?do_toupper@?$ctype@G@std@@MBEGG@Z
  ?do_toupper@?$ctype@G@std@@MBEPBGPAGPBG@Z="C:\Windows\SysWOW64\msvcp110_win".?do_toupper@?$ctype@G@std@@MBEPBGPAGPBG@Z
  ?do_toupper@?$ctype@_W@std@@MBEPB_WPA_WPB_W@Z="C:\Windows\SysWOW64\msvcp110_win".?do_toupper@?$ctype@_W@std@@MBEPB_WPA_WPB_W@Z
  ?do_toupper@?$ctype@_W@std@@MBE_W_W@Z="C:\Windows\SysWOW64\msvcp110_win".?do_toupper@?$ctype@_W@std@@MBE_W_W@Z
  ?do_unshift@?$codecvt@DDH@std@@MBEHAAHPAD1AAPAD@Z="C:\Windows\SysWOW64\msvcp110_win".?do_unshift@?$codecvt@DDH@std@@MBEHAAHPAD1AAPAD@Z
  ?do_unshift@?$codecvt@GDH@std@@MBEHAAHPAD1AAPAD@Z="C:\Windows\SysWOW64\msvcp110_win".?do_unshift@?$codecvt@GDH@std@@MBEHAAHPAD1AAPAD@Z
  ?do_unshift@?$codecvt@_SDH@std@@MBEHAAHPAD1AAPAD@Z="C:\Windows\SysWOW64\msvcp110_win".?do_unshift@?$codecvt@_SDH@std@@MBEHAAHPAD1AAPAD@Z
  ?do_unshift@?$codecvt@_UDH@std@@MBEHAAHPAD1AAPAD@Z="C:\Windows\SysWOW64\msvcp110_win".?do_unshift@?$codecvt@_UDH@std@@MBEHAAHPAD1AAPAD@Z
  ?do_unshift@?$codecvt@_WDH@std@@MBEHAAHPAD1AAPAD@Z="C:\Windows\SysWOW64\msvcp110_win".?do_unshift@?$codecvt@_WDH@std@@MBEHAAHPAD1AAPAD@Z
  ?do_widen@?$ctype@D@std@@MBEDD@Z="C:\Windows\SysWOW64\msvcp110_win".?do_widen@?$ctype@D@std@@MBEDD@Z
  ?do_widen@?$ctype@D@std@@MBEPBDPBD0PAD@Z="C:\Windows\SysWOW64\msvcp110_win".?do_widen@?$ctype@D@std@@MBEPBDPBD0PAD@Z
  ?do_widen@?$ctype@G@std@@MBEGD@Z="C:\Windows\SysWOW64\msvcp110_win".?do_widen@?$ctype@G@std@@MBEGD@Z
  ?do_widen@?$ctype@G@std@@MBEPBDPBD0PAG@Z="C:\Windows\SysWOW64\msvcp110_win".?do_widen@?$ctype@G@std@@MBEPBDPBD0PAG@Z
  ?do_widen@?$ctype@_W@std@@MBEPBDPBD0PA_W@Z="C:\Windows\SysWOW64\msvcp110_win".?do_widen@?$ctype@_W@std@@MBEPBDPBD0PA_W@Z
  ?do_widen@?$ctype@_W@std@@MBE_WD@Z="C:\Windows\SysWOW64\msvcp110_win".?do_widen@?$ctype@_W@std@@MBE_WD@Z
  ?eback@?$basic_streambuf@DU?$char_traits@D@std@@@std@@IBEPADXZ="C:\Windows\SysWOW64\msvcp110_win".?eback@?$basic_streambuf@DU?$char_traits@D@std@@@std@@IBEPADXZ
  ?eback@?$basic_streambuf@GU?$char_traits@G@std@@@std@@IBEPAGXZ="C:\Windows\SysWOW64\msvcp110_win".?eback@?$basic_streambuf@GU?$char_traits@G@std@@@std@@IBEPAGXZ
  ?eback@?$basic_streambuf@_WU?$char_traits@_W@std@@@std@@IBEPA_WXZ="C:\Windows\SysWOW64\msvcp110_win".?eback@?$basic_streambuf@_WU?$char_traits@_W@std@@@std@@IBEPA_WXZ
  ?egptr@?$basic_streambuf@DU?$char_traits@D@std@@@std@@IBEPADXZ="C:\Windows\SysWOW64\msvcp110_win".?egptr@?$basic_streambuf@DU?$char_traits@D@std@@@std@@IBEPADXZ
  ?egptr@?$basic_streambuf@GU?$char_traits@G@std@@@std@@IBEPAGXZ="C:\Windows\SysWOW64\msvcp110_win".?egptr@?$basic_streambuf@GU?$char_traits@G@std@@@std@@IBEPAGXZ
  ?egptr@?$basic_streambuf@_WU?$char_traits@_W@std@@@std@@IBEPA_WXZ="C:\Windows\SysWOW64\msvcp110_win".?egptr@?$basic_streambuf@_WU?$char_traits@_W@std@@@std@@IBEPA_WXZ
  ?empty@?$_Yarn@D@std@@QBE_NXZ="C:\Windows\SysWOW64\msvcp110_win".?empty@?$_Yarn@D@std@@QBE_NXZ
  ?empty@locale@std@@SA?AV12@XZ="C:\Windows\SysWOW64\msvcp110_win".?empty@locale@std@@SA?AV12@XZ
  ?encoding@codecvt_base@std@@QBEHXZ="C:\Windows\SysWOW64\msvcp110_win".?encoding@codecvt_base@std@@QBEHXZ
  ?endl@std@@YAAAV?$basic_ostream@DU?$char_traits@D@std@@@1@AAV21@@Z="C:\Windows\SysWOW64\msvcp110_win".?endl@std@@YAAAV?$basic_ostream@DU?$char_traits@D@std@@@1@AAV21@@Z
  ?endl@std@@YAAAV?$basic_ostream@GU?$char_traits@G@std@@@1@AAV21@@Z="C:\Windows\SysWOW64\msvcp110_win".?endl@std@@YAAAV?$basic_ostream@GU?$char_traits@G@std@@@1@AAV21@@Z
  ?endl@std@@YAAAV?$basic_ostream@_WU?$char_traits@_W@std@@@1@AAV21@@Z="C:\Windows\SysWOW64\msvcp110_win".?endl@std@@YAAAV?$basic_ostream@_WU?$char_traits@_W@std@@@1@AAV21@@Z
  ?ends@std@@YAAAV?$basic_ostream@DU?$char_traits@D@std@@@1@AAV21@@Z="C:\Windows\SysWOW64\msvcp110_win".?ends@std@@YAAAV?$basic_ostream@DU?$char_traits@D@std@@@1@AAV21@@Z
  ?ends@std@@YAAAV?$basic_ostream@GU?$char_traits@G@std@@@1@AAV21@@Z="C:\Windows\SysWOW64\msvcp110_win".?ends@std@@YAAAV?$basic_ostream@GU?$char_traits@G@std@@@1@AAV21@@Z
  ?ends@std@@YAAAV?$basic_ostream@_WU?$char_traits@_W@std@@@1@AAV21@@Z="C:\Windows\SysWOW64\msvcp110_win".?ends@std@@YAAAV?$basic_ostream@_WU?$char_traits@_W@std@@@1@AAV21@@Z
  ?eof@ios_base@std@@QBE_NXZ="C:\Windows\SysWOW64\msvcp110_win".?eof@ios_base@std@@QBE_NXZ
  ?epptr@?$basic_streambuf@DU?$char_traits@D@std@@@std@@IBEPADXZ="C:\Windows\SysWOW64\msvcp110_win".?epptr@?$basic_streambuf@DU?$char_traits@D@std@@@std@@IBEPADXZ
  ?epptr@?$basic_streambuf@GU?$char_traits@G@std@@@std@@IBEPAGXZ="C:\Windows\SysWOW64\msvcp110_win".?epptr@?$basic_streambuf@GU?$char_traits@G@std@@@std@@IBEPAGXZ
  ?epptr@?$basic_streambuf@_WU?$char_traits@_W@std@@@std@@IBEPA_WXZ="C:\Windows\SysWOW64\msvcp110_win".?epptr@?$basic_streambuf@_WU?$char_traits@_W@std@@@std@@IBEPA_WXZ
  ?exceptions@ios_base@std@@QAEXH@Z="C:\Windows\SysWOW64\msvcp110_win".?exceptions@ios_base@std@@QAEXH@Z
  ?exceptions@ios_base@std@@QAEXI@Z="C:\Windows\SysWOW64\msvcp110_win".?exceptions@ios_base@std@@QAEXI@Z
  ?exceptions@ios_base@std@@QBEHXZ="C:\Windows\SysWOW64\msvcp110_win".?exceptions@ios_base@std@@QBEHXZ
  ?fail@ios_base@std@@QBE_NXZ="C:\Windows\SysWOW64\msvcp110_win".?fail@ios_base@std@@QBE_NXZ
  ?fill@?$basic_ios@DU?$char_traits@D@std@@@std@@QAEDD@Z="C:\Windows\SysWOW64\msvcp110_win".?fill@?$basic_ios@DU?$char_traits@D@std@@@std@@QAEDD@Z
  ?fill@?$basic_ios@DU?$char_traits@D@std@@@std@@QBEDXZ="C:\Windows\SysWOW64\msvcp110_win".?fill@?$basic_ios@DU?$char_traits@D@std@@@std@@QBEDXZ
  ?fill@?$basic_ios@GU?$char_traits@G@std@@@std@@QAEGG@Z="C:\Windows\SysWOW64\msvcp110_win".?fill@?$basic_ios@GU?$char_traits@G@std@@@std@@QAEGG@Z
  ?fill@?$basic_ios@GU?$char_traits@G@std@@@std@@QBEGXZ="C:\Windows\SysWOW64\msvcp110_win".?fill@?$basic_ios@GU?$char_traits@G@std@@@std@@QBEGXZ
  ?fill@?$basic_ios@_WU?$char_traits@_W@std@@@std@@QAE_W_W@Z="C:\Windows\SysWOW64\msvcp110_win".?fill@?$basic_ios@_WU?$char_traits@_W@std@@@std@@QAE_W_W@Z
  ?fill@?$basic_ios@_WU?$char_traits@_W@std@@@std@@QBE_WXZ="C:\Windows\SysWOW64\msvcp110_win".?fill@?$basic_ios@_WU?$char_traits@_W@std@@@std@@QBE_WXZ
  ?flags@ios_base@std@@QAEHH@Z="C:\Windows\SysWOW64\msvcp110_win".?flags@ios_base@std@@QAEHH@Z
  ?flags@ios_base@std@@QBEHXZ="C:\Windows\SysWOW64\msvcp110_win".?flags@ios_base@std@@QBEHXZ
  ?flush@?$basic_ostream@DU?$char_traits@D@std@@@std@@QAEAAV12@XZ="C:\Windows\SysWOW64\msvcp110_win".?flush@?$basic_ostream@DU?$char_traits@D@std@@@std@@QAEAAV12@XZ
  ?flush@?$basic_ostream@GU?$char_traits@G@std@@@std@@QAEAAV12@XZ="C:\Windows\SysWOW64\msvcp110_win".?flush@?$basic_ostream@GU?$char_traits@G@std@@@std@@QAEAAV12@XZ
  ?flush@?$basic_ostream@_WU?$char_traits@_W@std@@@std@@QAEAAV12@XZ="C:\Windows\SysWOW64\msvcp110_win".?flush@?$basic_ostream@_WU?$char_traits@_W@std@@@std@@QAEAAV12@XZ
  ?flush@std@@YAAAV?$basic_ostream@DU?$char_traits@D@std@@@1@AAV21@@Z="C:\Windows\SysWOW64\msvcp110_win".?flush@std@@YAAAV?$basic_ostream@DU?$char_traits@D@std@@@1@AAV21@@Z
  ?flush@std@@YAAAV?$basic_ostream@GU?$char_traits@G@std@@@1@AAV21@@Z="C:\Windows\SysWOW64\msvcp110_win".?flush@std@@YAAAV?$basic_ostream@GU?$char_traits@G@std@@@1@AAV21@@Z
  ?flush@std@@YAAAV?$basic_ostream@_WU?$char_traits@_W@std@@@1@AAV21@@Z="C:\Windows\SysWOW64\msvcp110_win".?flush@std@@YAAAV?$basic_ostream@_WU?$char_traits@_W@std@@@1@AAV21@@Z
  ?gbump@?$basic_streambuf@DU?$char_traits@D@std@@@std@@IAEXH@Z="C:\Windows\SysWOW64\msvcp110_win".?gbump@?$basic_streambuf@DU?$char_traits@D@std@@@std@@IAEXH@Z
  ?gbump@?$basic_streambuf@GU?$char_traits@G@std@@@std@@IAEXH@Z="C:\Windows\SysWOW64\msvcp110_win".?gbump@?$basic_streambuf@GU?$char_traits@G@std@@@std@@IAEXH@Z
  ?gbump@?$basic_streambuf@_WU?$char_traits@_W@std@@@std@@IAEXH@Z="C:\Windows\SysWOW64\msvcp110_win".?gbump@?$basic_streambuf@_WU?$char_traits@_W@std@@@std@@IAEXH@Z
  ?gcount@?$basic_istream@DU?$char_traits@D@std@@@std@@QBE_JXZ="C:\Windows\SysWOW64\msvcp110_win".?gcount@?$basic_istream@DU?$char_traits@D@std@@@std@@QBE_JXZ
  ?gcount@?$basic_istream@GU?$char_traits@G@std@@@std@@QBE_JXZ="C:\Windows\SysWOW64\msvcp110_win".?gcount@?$basic_istream@GU?$char_traits@G@std@@@std@@QBE_JXZ
  ?gcount@?$basic_istream@_WU?$char_traits@_W@std@@@std@@QBE_JXZ="C:\Windows\SysWOW64\msvcp110_win".?gcount@?$basic_istream@_WU?$char_traits@_W@std@@@std@@QBE_JXZ
  ?get@?$basic_istream@DU?$char_traits@D@std@@@std@@QAEAAV12@AAD@Z="C:\Windows\SysWOW64\msvcp110_win".?get@?$basic_istream@DU?$char_traits@D@std@@@std@@QAEAAV12@AAD@Z
  ?get@?$basic_istream@DU?$char_traits@D@std@@@std@@QAEAAV12@AAV?$basic_streambuf@DU?$char_traits@D@std@@@2@@Z="C:\Windows\SysWOW64\msvcp110_win".?get@?$basic_istream@DU?$char_traits@D@std@@@std@@QAEAAV12@AAV?$basic_streambuf@DU?$char_traits@D@std@@@2@@Z
  ?get@?$basic_istream@DU?$char_traits@D@std@@@std@@QAEAAV12@AAV?$basic_streambuf@DU?$char_traits@D@std@@@2@D@Z="C:\Windows\SysWOW64\msvcp110_win".?get@?$basic_istream@DU?$char_traits@D@std@@@std@@QAEAAV12@AAV?$basic_streambuf@DU?$char_traits@D@std@@@2@D@Z
  ?get@?$basic_istream@DU?$char_traits@D@std@@@std@@QAEAAV12@PAD_J@Z="C:\Windows\SysWOW64\msvcp110_win".?get@?$basic_istream@DU?$char_traits@D@std@@@std@@QAEAAV12@PAD_J@Z
  ?get@?$basic_istream@DU?$char_traits@D@std@@@std@@QAEAAV12@PAD_JD@Z="C:\Windows\SysWOW64\msvcp110_win".?get@?$basic_istream@DU?$char_traits@D@std@@@std@@QAEAAV12@PAD_JD@Z
  ?get@?$basic_istream@DU?$char_traits@D@std@@@std@@QAEHXZ="C:\Windows\SysWOW64\msvcp110_win".?get@?$basic_istream@DU?$char_traits@D@std@@@std@@QAEHXZ
  ?get@?$basic_istream@GU?$char_traits@G@std@@@std@@QAEAAV12@AAG@Z="C:\Windows\SysWOW64\msvcp110_win".?get@?$basic_istream@GU?$char_traits@G@std@@@std@@QAEAAV12@AAG@Z
  ?get@?$basic_istream@GU?$char_traits@G@std@@@std@@QAEAAV12@AAV?$basic_streambuf@GU?$char_traits@G@std@@@2@@Z="C:\Windows\SysWOW64\msvcp110_win".?get@?$basic_istream@GU?$char_traits@G@std@@@std@@QAEAAV12@AAV?$basic_streambuf@GU?$char_traits@G@std@@@2@@Z
  ?get@?$basic_istream@GU?$char_traits@G@std@@@std@@QAEAAV12@AAV?$basic_streambuf@GU?$char_traits@G@std@@@2@G@Z="C:\Windows\SysWOW64\msvcp110_win".?get@?$basic_istream@GU?$char_traits@G@std@@@std@@QAEAAV12@AAV?$basic_streambuf@GU?$char_traits@G@std@@@2@G@Z
  ?get@?$basic_istream@GU?$char_traits@G@std@@@std@@QAEAAV12@PAG_J@Z="C:\Windows\SysWOW64\msvcp110_win".?get@?$basic_istream@GU?$char_traits@G@std@@@std@@QAEAAV12@PAG_J@Z
  ?get@?$basic_istream@GU?$char_traits@G@std@@@std@@QAEAAV12@PAG_JG@Z="C:\Windows\SysWOW64\msvcp110_win".?get@?$basic_istream@GU?$char_traits@G@std@@@std@@QAEAAV12@PAG_JG@Z
  ?get@?$basic_istream@GU?$char_traits@G@std@@@std@@QAEGXZ="C:\Windows\SysWOW64\msvcp110_win".?get@?$basic_istream@GU?$char_traits@G@std@@@std@@QAEGXZ
  ?get@?$basic_istream@_WU?$char_traits@_W@std@@@std@@QAEAAV12@AAV?$basic_streambuf@_WU?$char_traits@_W@std@@@2@@Z="C:\Windows\SysWOW64\msvcp110_win".?get@?$basic_istream@_WU?$char_traits@_W@std@@@std@@QAEAAV12@AAV?$basic_streambuf@_WU?$char_traits@_W@std@@@2@@Z
  ?get@?$basic_istream@_WU?$char_traits@_W@std@@@std@@QAEAAV12@AAV?$basic_streambuf@_WU?$char_traits@_W@std@@@2@_W@Z="C:\Windows\SysWOW64\msvcp110_win".?get@?$basic_istream@_WU?$char_traits@_W@std@@@std@@QAEAAV12@AAV?$basic_streambuf@_WU?$char_traits@_W@std@@@2@_W@Z
  ?get@?$basic_istream@_WU?$char_traits@_W@std@@@std@@QAEAAV12@AA_W@Z="C:\Windows\SysWOW64\msvcp110_win".?get@?$basic_istream@_WU?$char_traits@_W@std@@@std@@QAEAAV12@AA_W@Z
  ?get@?$basic_istream@_WU?$char_traits@_W@std@@@std@@QAEAAV12@PA_W_J@Z="C:\Windows\SysWOW64\msvcp110_win".?get@?$basic_istream@_WU?$char_traits@_W@std@@@std@@QAEAAV12@PA_W_J@Z
  ?get@?$basic_istream@_WU?$char_traits@_W@std@@@std@@QAEAAV12@PA_W_J_W@Z="C:\Windows\SysWOW64\msvcp110_win".?get@?$basic_istream@_WU?$char_traits@_W@std@@@std@@QAEAAV12@PA_W_J_W@Z
  ?get@?$basic_istream@_WU?$char_traits@_W@std@@@std@@QAEGXZ="C:\Windows\SysWOW64\msvcp110_win".?get@?$basic_istream@_WU?$char_traits@_W@std@@@std@@QAEGXZ
  ?get@?$num_get@DV?$istreambuf_iterator@DU?$char_traits@D@std@@@std@@@std@@QBE?AV?$istreambuf_iterator@DU?$char_traits@D@std@@@2@V32@0AAVios_base@2@AAHAAG@Z="C:\Windows\SysWOW64\msvcp110_win".?get@?$num_get@DV?$istreambuf_iterator@DU?$char_traits@D@std@@@std@@@std@@QBE?AV?$istreambuf_iterator@DU?$char_traits@D@std@@@2@V32@0AAVios_base@2@AAHAAG@Z
  ?get@?$num_get@DV?$istreambuf_iterator@DU?$char_traits@D@std@@@std@@@std@@QBE?AV?$istreambuf_iterator@DU?$char_traits@D@std@@@2@V32@0AAVios_base@2@AAHAAI@Z="C:\Windows\SysWOW64\msvcp110_win".?get@?$num_get@DV?$istreambuf_iterator@DU?$char_traits@D@std@@@std@@@std@@QBE?AV?$istreambuf_iterator@DU?$char_traits@D@std@@@2@V32@0AAVios_base@2@AAHAAI@Z
  ?get@?$num_get@DV?$istreambuf_iterator@DU?$char_traits@D@std@@@std@@@std@@QBE?AV?$istreambuf_iterator@DU?$char_traits@D@std@@@2@V32@0AAVios_base@2@AAHAAJ@Z="C:\Windows\SysWOW64\msvcp110_win".?get@?$num_get@DV?$istreambuf_iterator@DU?$char_traits@D@std@@@std@@@std@@QBE?AV?$istreambuf_iterator@DU?$char_traits@D@std@@@2@V32@0AAVios_base@2@AAHAAJ@Z
  ?get@?$num_get@DV?$istreambuf_iterator@DU?$char_traits@D@std@@@std@@@std@@QBE?AV?$istreambuf_iterator@DU?$char_traits@D@std@@@2@V32@0AAVios_base@2@AAHAAK@Z="C:\Windows\SysWOW64\msvcp110_win".?get@?$num_get@DV?$istreambuf_iterator@DU?$char_traits@D@std@@@std@@@std@@QBE?AV?$istreambuf_iterator@DU?$char_traits@D@std@@@2@V32@0AAVios_base@2@AAHAAK@Z
  ?get@?$num_get@DV?$istreambuf_iterator@DU?$char_traits@D@std@@@std@@@std@@QBE?AV?$istreambuf_iterator@DU?$char_traits@D@std@@@2@V32@0AAVios_base@2@AAHAAM@Z="C:\Windows\SysWOW64\msvcp110_win".?get@?$num_get@DV?$istreambuf_iterator@DU?$char_traits@D@std@@@std@@@std@@QBE?AV?$istreambuf_iterator@DU?$char_traits@D@std@@@2@V32@0AAVios_base@2@AAHAAM@Z
  ?get@?$num_get@DV?$istreambuf_iterator@DU?$char_traits@D@std@@@std@@@std@@QBE?AV?$istreambuf_iterator@DU?$char_traits@D@std@@@2@V32@0AAVios_base@2@AAHAAN@Z="C:\Windows\SysWOW64\msvcp110_win".?get@?$num_get@DV?$istreambuf_iterator@DU?$char_traits@D@std@@@std@@@std@@QBE?AV?$istreambuf_iterator@DU?$char_traits@D@std@@@2@V32@0AAVios_base@2@AAHAAN@Z
  ?get@?$num_get@DV?$istreambuf_iterator@DU?$char_traits@D@std@@@std@@@std@@QBE?AV?$istreambuf_iterator@DU?$char_traits@D@std@@@2@V32@0AAVios_base@2@AAHAAO@Z="C:\Windows\SysWOW64\msvcp110_win".?get@?$num_get@DV?$istreambuf_iterator@DU?$char_traits@D@std@@@std@@@std@@QBE?AV?$istreambuf_iterator@DU?$char_traits@D@std@@@2@V32@0AAVios_base@2@AAHAAO@Z
  ?get@?$num_get@DV?$istreambuf_iterator@DU?$char_traits@D@std@@@std@@@std@@QBE?AV?$istreambuf_iterator@DU?$char_traits@D@std@@@2@V32@0AAVios_base@2@AAHAAPAX@Z="C:\Windows\SysWOW64\msvcp110_win".?get@?$num_get@DV?$istreambuf_iterator@DU?$char_traits@D@std@@@std@@@std@@QBE?AV?$istreambuf_iterator@DU?$char_traits@D@std@@@2@V32@0AAVios_base@2@AAHAAPAX@Z
  ?get@?$num_get@DV?$istreambuf_iterator@DU?$char_traits@D@std@@@std@@@std@@QBE?AV?$istreambuf_iterator@DU?$char_traits@D@std@@@2@V32@0AAVios_base@2@AAHAA_J@Z="C:\Windows\SysWOW64\msvcp110_win".?get@?$num_get@DV?$istreambuf_iterator@DU?$char_traits@D@std@@@std@@@std@@QBE?AV?$istreambuf_iterator@DU?$char_traits@D@std@@@2@V32@0AAVios_base@2@AAHAA_J@Z
  ?get@?$num_get@DV?$istreambuf_iterator@DU?$char_traits@D@std@@@std@@@std@@QBE?AV?$istreambuf_iterator@DU?$char_traits@D@std@@@2@V32@0AAVios_base@2@AAHAA_K@Z="C:\Windows\SysWOW64\msvcp110_win".?get@?$num_get@DV?$istreambuf_iterator@DU?$char_traits@D@std@@@std@@@std@@QBE?AV?$istreambuf_iterator@DU?$char_traits@D@std@@@2@V32@0AAVios_base@2@AAHAA_K@Z
  ?get@?$num_get@DV?$istreambuf_iterator@DU?$char_traits@D@std@@@std@@@std@@QBE?AV?$istreambuf_iterator@DU?$char_traits@D@std@@@2@V32@0AAVios_base@2@AAHAA_N@Z="C:\Windows\SysWOW64\msvcp110_win".?get@?$num_get@DV?$istreambuf_iterator@DU?$char_traits@D@std@@@std@@@std@@QBE?AV?$istreambuf_iterator@DU?$char_traits@D@std@@@2@V32@0AAVios_base@2@AAHAA_N@Z
  ?get@?$num_get@GV?$istreambuf_iterator@GU?$char_traits@G@std@@@std@@@std@@QBE?AV?$istreambuf_iterator@GU?$char_traits@G@std@@@2@V32@0AAVios_base@2@AAHAAG@Z="C:\Windows\SysWOW64\msvcp110_win".?get@?$num_get@GV?$istreambuf_iterator@GU?$char_traits@G@std@@@std@@@std@@QBE?AV?$istreambuf_iterator@GU?$char_traits@G@std@@@2@V32@0AAVios_base@2@AAHAAG@Z
  ?get@?$num_get@GV?$istreambuf_iterator@GU?$char_traits@G@std@@@std@@@std@@QBE?AV?$istreambuf_iterator@GU?$char_traits@G@std@@@2@V32@0AAVios_base@2@AAHAAI@Z="C:\Windows\SysWOW64\msvcp110_win".?get@?$num_get@GV?$istreambuf_iterator@GU?$char_traits@G@std@@@std@@@std@@QBE?AV?$istreambuf_iterator@GU?$char_traits@G@std@@@2@V32@0AAVios_base@2@AAHAAI@Z
  ?get@?$num_get@GV?$istreambuf_iterator@GU?$char_traits@G@std@@@std@@@std@@QBE?AV?$istreambuf_iterator@GU?$char_traits@G@std@@@2@V32@0AAVios_base@2@AAHAAJ@Z="C:\Windows\SysWOW64\msvcp110_win".?get@?$num_get@GV?$istreambuf_iterator@GU?$char_traits@G@std@@@std@@@std@@QBE?AV?$istreambuf_iterator@GU?$char_traits@G@std@@@2@V32@0AAVios_base@2@AAHAAJ@Z
  ?get@?$num_get@GV?$istreambuf_iterator@GU?$char_traits@G@std@@@std@@@std@@QBE?AV?$istreambuf_iterator@GU?$char_traits@G@std@@@2@V32@0AAVios_base@2@AAHAAK@Z="C:\Windows\SysWOW64\msvcp110_win".?get@?$num_get@GV?$istreambuf_iterator@GU?$char_traits@G@std@@@std@@@std@@QBE?AV?$istreambuf_iterator@GU?$char_traits@G@std@@@2@V32@0AAVios_base@2@AAHAAK@Z
  ?get@?$num_get@GV?$istreambuf_iterator@GU?$char_traits@G@std@@@std@@@std@@QBE?AV?$istreambuf_iterator@GU?$char_traits@G@std@@@2@V32@0AAVios_base@2@AAHAAM@Z="C:\Windows\SysWOW64\msvcp110_win".?get@?$num_get@GV?$istreambuf_iterator@GU?$char_traits@G@std@@@std@@@std@@QBE?AV?$istreambuf_iterator@GU?$char_traits@G@std@@@2@V32@0AAVios_base@2@AAHAAM@Z
  ?get@?$num_get@GV?$istreambuf_iterator@GU?$char_traits@G@std@@@std@@@std@@QBE?AV?$istreambuf_iterator@GU?$char_traits@G@std@@@2@V32@0AAVios_base@2@AAHAAN@Z="C:\Windows\SysWOW64\msvcp110_win".?get@?$num_get@GV?$istreambuf_iterator@GU?$char_traits@G@std@@@std@@@std@@QBE?AV?$istreambuf_iterator@GU?$char_traits@G@std@@@2@V32@0AAVios_base@2@AAHAAN@Z
  ?get@?$num_get@GV?$istreambuf_iterator@GU?$char_traits@G@std@@@std@@@std@@QBE?AV?$istreambuf_iterator@GU?$char_traits@G@std@@@2@V32@0AAVios_base@2@AAHAAO@Z="C:\Windows\SysWOW64\msvcp110_win".?get@?$num_get@GV?$istreambuf_iterator@GU?$char_traits@G@std@@@std@@@std@@QBE?AV?$istreambuf_iterator@GU?$char_traits@G@std@@@2@V32@0AAVios_base@2@AAHAAO@Z
  ?get@?$num_get@GV?$istreambuf_iterator@GU?$char_traits@G@std@@@std@@@std@@QBE?AV?$istreambuf_iterator@GU?$char_traits@G@std@@@2@V32@0AAVios_base@2@AAHAAPAX@Z="C:\Windows\SysWOW64\msvcp110_win".?get@?$num_get@GV?$istreambuf_iterator@GU?$char_traits@G@std@@@std@@@std@@QBE?AV?$istreambuf_iterator@GU?$char_traits@G@std@@@2@V32@0AAVios_base@2@AAHAAPAX@Z
  ?get@?$num_get@GV?$istreambuf_iterator@GU?$char_traits@G@std@@@std@@@std@@QBE?AV?$istreambuf_iterator@GU?$char_traits@G@std@@@2@V32@0AAVios_base@2@AAHAA_J@Z="C:\Windows\SysWOW64\msvcp110_win".?get@?$num_get@GV?$istreambuf_iterator@GU?$char_traits@G@std@@@std@@@std@@QBE?AV?$istreambuf_iterator@GU?$char_traits@G@std@@@2@V32@0AAVios_base@2@AAHAA_J@Z
  ?get@?$num_get@GV?$istreambuf_iterator@GU?$char_traits@G@std@@@std@@@std@@QBE?AV?$istreambuf_iterator@GU?$char_traits@G@std@@@2@V32@0AAVios_base@2@AAHAA_K@Z="C:\Windows\SysWOW64\msvcp110_win".?get@?$num_get@GV?$istreambuf_iterator@GU?$char_traits@G@std@@@std@@@std@@QBE?AV?$istreambuf_iterator@GU?$char_traits@G@std@@@2@V32@0AAVios_base@2@AAHAA_K@Z
  ?get@?$num_get@GV?$istreambuf_iterator@GU?$char_traits@G@std@@@std@@@std@@QBE?AV?$istreambuf_iterator@GU?$char_traits@G@std@@@2@V32@0AAVios_base@2@AAHAA_N@Z="C:\Windows\SysWOW64\msvcp110_win".?get@?$num_get@GV?$istreambuf_iterator@GU?$char_traits@G@std@@@std@@@std@@QBE?AV?$istreambuf_iterator@GU?$char_traits@G@std@@@2@V32@0AAVios_base@2@AAHAA_N@Z
  ?get@?$num_get@_WV?$istreambuf_iterator@_WU?$char_traits@_W@std@@@std@@@std@@QBE?AV?$istreambuf_iterator@_WU?$char_traits@_W@std@@@2@V32@0AAVios_base@2@AAHAAG@Z="C:\Windows\SysWOW64\msvcp110_win".?get@?$num_get@_WV?$istreambuf_iterator@_WU?$char_traits@_W@std@@@std@@@std@@QBE?AV?$istreambuf_iterator@_WU?$char_traits@_W@std@@@2@V32@0AAVios_base@2@AAHAAG@Z
  ?get@?$num_get@_WV?$istreambuf_iterator@_WU?$char_traits@_W@std@@@std@@@std@@QBE?AV?$istreambuf_iterator@_WU?$char_traits@_W@std@@@2@V32@0AAVios_base@2@AAHAAI@Z="C:\Windows\SysWOW64\msvcp110_win".?get@?$num_get@_WV?$istreambuf_iterator@_WU?$char_traits@_W@std@@@std@@@std@@QBE?AV?$istreambuf_iterator@_WU?$char_traits@_W@std@@@2@V32@0AAVios_base@2@AAHAAI@Z
  ?get@?$num_get@_WV?$istreambuf_iterator@_WU?$char_traits@_W@std@@@std@@@std@@QBE?AV?$istreambuf_iterator@_WU?$char_traits@_W@std@@@2@V32@0AAVios_base@2@AAHAAJ@Z="C:\Windows\SysWOW64\msvcp110_win".?get@?$num_get@_WV?$istreambuf_iterator@_WU?$char_traits@_W@std@@@std@@@std@@QBE?AV?$istreambuf_iterator@_WU?$char_traits@_W@std@@@2@V32@0AAVios_base@2@AAHAAJ@Z
  ?get@?$num_get@_WV?$istreambuf_iterator@_WU?$char_traits@_W@std@@@std@@@std@@QBE?AV?$istreambuf_iterator@_WU?$char_traits@_W@std@@@2@V32@0AAVios_base@2@AAHAAK@Z="C:\Windows\SysWOW64\msvcp110_win".?get@?$num_get@_WV?$istreambuf_iterator@_WU?$char_traits@_W@std@@@std@@@std@@QBE?AV?$istreambuf_iterator@_WU?$char_traits@_W@std@@@2@V32@0AAVios_base@2@AAHAAK@Z
  ?get@?$num_get@_WV?$istreambuf_iterator@_WU?$char_traits@_W@std@@@std@@@std@@QBE?AV?$istreambuf_iterator@_WU?$char_traits@_W@std@@@2@V32@0AAVios_base@2@AAHAAM@Z="C:\Windows\SysWOW64\msvcp110_win".?get@?$num_get@_WV?$istreambuf_iterator@_WU?$char_traits@_W@std@@@std@@@std@@QBE?AV?$istreambuf_iterator@_WU?$char_traits@_W@std@@@2@V32@0AAVios_base@2@AAHAAM@Z
  ?get@?$num_get@_WV?$istreambuf_iterator@_WU?$char_traits@_W@std@@@std@@@std@@QBE?AV?$istreambuf_iterator@_WU?$char_traits@_W@std@@@2@V32@0AAVios_base@2@AAHAAN@Z="C:\Windows\SysWOW64\msvcp110_win".?get@?$num_get@_WV?$istreambuf_iterator@_WU?$char_traits@_W@std@@@std@@@std@@QBE?AV?$istreambuf_iterator@_WU?$char_traits@_W@std@@@2@V32@0AAVios_base@2@AAHAAN@Z
  ?get@?$num_get@_WV?$istreambuf_iterator@_WU?$char_traits@_W@std@@@std@@@std@@QBE?AV?$istreambuf_iterator@_WU?$char_traits@_W@std@@@2@V32@0AAVios_base@2@AAHAAO@Z="C:\Windows\SysWOW64\msvcp110_win".?get@?$num_get@_WV?$istreambuf_iterator@_WU?$char_traits@_W@std@@@std@@@std@@QBE?AV?$istreambuf_iterator@_WU?$char_traits@_W@std@@@2@V32@0AAVios_base@2@AAHAAO@Z
  ?get@?$num_get@_WV?$istreambuf_iterator@_WU?$char_traits@_W@std@@@std@@@std@@QBE?AV?$istreambuf_iterator@_WU?$char_traits@_W@std@@@2@V32@0AAVios_base@2@AAHAAPAX@Z="C:\Windows\SysWOW64\msvcp110_win".?get@?$num_get@_WV?$istreambuf_iterator@_WU?$char_traits@_W@std@@@std@@@std@@QBE?AV?$istreambuf_iterator@_WU?$char_traits@_W@std@@@2@V32@0AAVios_base@2@AAHAAPAX@Z
  ?get@?$num_get@_WV?$istreambuf_iterator@_WU?$char_traits@_W@std@@@std@@@std@@QBE?AV?$istreambuf_iterator@_WU?$char_traits@_W@std@@@2@V32@0AAVios_base@2@AAHAA_J@Z="C:\Windows\SysWOW64\msvcp110_win".?get@?$num_get@_WV?$istreambuf_iterator@_WU?$char_traits@_W@std@@@std@@@std@@QBE?AV?$istreambuf_iterator@_WU?$char_traits@_W@std@@@2@V32@0AAVios_base@2@AAHAA_J@Z
  ?get@?$num_get@_WV?$istreambuf_iterator@_WU?$char_traits@_W@std@@@std@@@std@@QBE?AV?$istreambuf_iterator@_WU?$char_traits@_W@std@@@2@V32@0AAVios_base@2@AAHAA_K@Z="C:\Windows\SysWOW64\msvcp110_win".?get@?$num_get@_WV?$istreambuf_iterator@_WU?$char_traits@_W@std@@@std@@@std@@QBE?AV?$istreambuf_iterator@_WU?$char_traits@_W@std@@@2@V32@0AAVios_base@2@AAHAA_K@Z
  ?get@?$num_get@_WV?$istreambuf_iterator@_WU?$char_traits@_W@std@@@std@@@std@@QBE?AV?$istreambuf_iterator@_WU?$char_traits@_W@std@@@2@V32@0AAVios_base@2@AAHAA_N@Z="C:\Windows\SysWOW64\msvcp110_win".?get@?$num_get@_WV?$istreambuf_iterator@_WU?$char_traits@_W@std@@@std@@@std@@QBE?AV?$istreambuf_iterator@_WU?$char_traits@_W@std@@@2@V32@0AAVios_base@2@AAHAA_N@Z
  ?get@?$time_get@DV?$istreambuf_iterator@DU?$char_traits@D@std@@@std@@@std@@QBE?AV?$istreambuf_iterator@DU?$char_traits@D@std@@@2@V32@0AAVios_base@2@AAHPAUtm@@DD@Z="C:\Windows\SysWOW64\msvcp110_win".?get@?$time_get@DV?$istreambuf_iterator@DU?$char_traits@D@std@@@std@@@std@@QBE?AV?$istreambuf_iterator@DU?$char_traits@D@std@@@2@V32@0AAVios_base@2@AAHPAUtm@@DD@Z
  ?get@?$time_get@DV?$istreambuf_iterator@DU?$char_traits@D@std@@@std@@@std@@QBE?AV?$istreambuf_iterator@DU?$char_traits@D@std@@@2@V32@0AAVios_base@2@AAHPAUtm@@PBD4@Z="C:\Windows\SysWOW64\msvcp110_win".?get@?$time_get@DV?$istreambuf_iterator@DU?$char_traits@D@std@@@std@@@std@@QBE?AV?$istreambuf_iterator@DU?$char_traits@D@std@@@2@V32@0AAVios_base@2@AAHPAUtm@@PBD4@Z
  ?get@?$time_get@GV?$istreambuf_iterator@GU?$char_traits@G@std@@@std@@@std@@QBE?AV?$istreambuf_iterator@GU?$char_traits@G@std@@@2@V32@0AAVios_base@2@AAHPAUtm@@DD@Z="C:\Windows\SysWOW64\msvcp110_win".?get@?$time_get@GV?$istreambuf_iterator@GU?$char_traits@G@std@@@std@@@std@@QBE?AV?$istreambuf_iterator@GU?$char_traits@G@std@@@2@V32@0AAVios_base@2@AAHPAUtm@@DD@Z
  ?get@?$time_get@GV?$istreambuf_iterator@GU?$char_traits@G@std@@@std@@@std@@QBE?AV?$istreambuf_iterator@GU?$char_traits@G@std@@@2@V32@0AAVios_base@2@AAHPAUtm@@PBG4@Z="C:\Windows\SysWOW64\msvcp110_win".?get@?$time_get@GV?$istreambuf_iterator@GU?$char_traits@G@std@@@std@@@std@@QBE?AV?$istreambuf_iterator@GU?$char_traits@G@std@@@2@V32@0AAVios_base@2@AAHPAUtm@@PBG4@Z
  ?get@?$time_get@_WV?$istreambuf_iterator@_WU?$char_traits@_W@std@@@std@@@std@@QBE?AV?$istreambuf_iterator@_WU?$char_traits@_W@std@@@2@V32@0AAVios_base@2@AAHPAUtm@@DD@Z="C:\Windows\SysWOW64\msvcp110_win".?get@?$time_get@_WV?$istreambuf_iterator@_WU?$char_traits@_W@std@@@std@@@std@@QBE?AV?$istreambuf_iterator@_WU?$char_traits@_W@std@@@2@V32@0AAVios_base@2@AAHPAUtm@@DD@Z
  ?get@?$time_get@_WV?$istreambuf_iterator@_WU?$char_traits@_W@std@@@std@@@std@@QBE?AV?$istreambuf_iterator@_WU?$char_traits@_W@std@@@2@V32@0AAVios_base@2@AAHPAUtm@@PB_W4@Z="C:\Windows\SysWOW64\msvcp110_win".?get@?$time_get@_WV?$istreambuf_iterator@_WU?$char_traits@_W@std@@@std@@@std@@QBE?AV?$istreambuf_iterator@_WU?$char_traits@_W@std@@@2@V32@0AAVios_base@2@AAHPAUtm@@PB_W4@Z
  ?get_date@?$time_get@DV?$istreambuf_iterator@DU?$char_traits@D@std@@@std@@@std@@QBE?AV?$istreambuf_iterator@DU?$char_traits@D@std@@@2@V32@0AAVios_base@2@AAHPAUtm@@@Z="C:\Windows\SysWOW64\msvcp110_win".?get_date@?$time_get@DV?$istreambuf_iterator@DU?$char_traits@D@std@@@std@@@std@@QBE?AV?$istreambuf_iterator@DU?$char_traits@D@std@@@2@V32@0AAVios_base@2@AAHPAUtm@@@Z
  ?get_date@?$time_get@GV?$istreambuf_iterator@GU?$char_traits@G@std@@@std@@@std@@QBE?AV?$istreambuf_iterator@GU?$char_traits@G@std@@@2@V32@0AAVios_base@2@AAHPAUtm@@@Z="C:\Windows\SysWOW64\msvcp110_win".?get_date@?$time_get@GV?$istreambuf_iterator@GU?$char_traits@G@std@@@std@@@std@@QBE?AV?$istreambuf_iterator@GU?$char_traits@G@std@@@2@V32@0AAVios_base@2@AAHPAUtm@@@Z
  ?get_date@?$time_get@_WV?$istreambuf_iterator@_WU?$char_traits@_W@std@@@std@@@std@@QBE?AV?$istreambuf_iterator@_WU?$char_traits@_W@std@@@2@V32@0AAVios_base@2@AAHPAUtm@@@Z="C:\Windows\SysWOW64\msvcp110_win".?get_date@?$time_get@_WV?$istreambuf_iterator@_WU?$char_traits@_W@std@@@std@@@std@@QBE?AV?$istreambuf_iterator@_WU?$char_traits@_W@std@@@2@V32@0AAVios_base@2@AAHPAUtm@@@Z
  ?get_monthname@?$time_get@DV?$istreambuf_iterator@DU?$char_traits@D@std@@@std@@@std@@QBE?AV?$istreambuf_iterator@DU?$char_traits@D@std@@@2@V32@0AAVios_base@2@AAHPAUtm@@@Z="C:\Windows\SysWOW64\msvcp110_win".?get_monthname@?$time_get@DV?$istreambuf_iterator@DU?$char_traits@D@std@@@std@@@std@@QBE?AV?$istreambuf_iterator@DU?$char_traits@D@std@@@2@V32@0AAVios_base@2@AAHPAUtm@@@Z
  ?get_monthname@?$time_get@GV?$istreambuf_iterator@GU?$char_traits@G@std@@@std@@@std@@QBE?AV?$istreambuf_iterator@GU?$char_traits@G@std@@@2@V32@0AAVios_base@2@AAHPAUtm@@@Z="C:\Windows\SysWOW64\msvcp110_win".?get_monthname@?$time_get@GV?$istreambuf_iterator@GU?$char_traits@G@std@@@std@@@std@@QBE?AV?$istreambuf_iterator@GU?$char_traits@G@std@@@2@V32@0AAVios_base@2@AAHPAUtm@@@Z
  ?get_monthname@?$time_get@_WV?$istreambuf_iterator@_WU?$char_traits@_W@std@@@std@@@std@@QBE?AV?$istreambuf_iterator@_WU?$char_traits@_W@std@@@2@V32@0AAVios_base@2@AAHPAUtm@@@Z="C:\Windows\SysWOW64\msvcp110_win".?get_monthname@?$time_get@_WV?$istreambuf_iterator@_WU?$char_traits@_W@std@@@std@@@std@@QBE?AV?$istreambuf_iterator@_WU?$char_traits@_W@std@@@2@V32@0AAVios_base@2@AAHPAUtm@@@Z
  ?get_new_handler@std@@YAP6AXXZXZ="C:\Windows\SysWOW64\msvcp110_win".?get_new_handler@std@@YAP6AXXZXZ
  ?get_time@?$time_get@DV?$istreambuf_iterator@DU?$char_traits@D@std@@@std@@@std@@QBE?AV?$istreambuf_iterator@DU?$char_traits@D@std@@@2@V32@0AAVios_base@2@AAHPAUtm@@@Z="C:\Windows\SysWOW64\msvcp110_win".?get_time@?$time_get@DV?$istreambuf_iterator@DU?$char_traits@D@std@@@std@@@std@@QBE?AV?$istreambuf_iterator@DU?$char_traits@D@std@@@2@V32@0AAVios_base@2@AAHPAUtm@@@Z
  ?get_time@?$time_get@GV?$istreambuf_iterator@GU?$char_traits@G@std@@@std@@@std@@QBE?AV?$istreambuf_iterator@GU?$char_traits@G@std@@@2@V32@0AAVios_base@2@AAHPAUtm@@@Z="C:\Windows\SysWOW64\msvcp110_win".?get_time@?$time_get@GV?$istreambuf_iterator@GU?$char_traits@G@std@@@std@@@std@@QBE?AV?$istreambuf_iterator@GU?$char_traits@G@std@@@2@V32@0AAVios_base@2@AAHPAUtm@@@Z
  ?get_time@?$time_get@_WV?$istreambuf_iterator@_WU?$char_traits@_W@std@@@std@@@std@@QBE?AV?$istreambuf_iterator@_WU?$char_traits@_W@std@@@2@V32@0AAVios_base@2@AAHPAUtm@@@Z="C:\Windows\SysWOW64\msvcp110_win".?get_time@?$time_get@_WV?$istreambuf_iterator@_WU?$char_traits@_W@std@@@std@@@std@@QBE?AV?$istreambuf_iterator@_WU?$char_traits@_W@std@@@2@V32@0AAVios_base@2@AAHPAUtm@@@Z
  ?get_weekday@?$time_get@DV?$istreambuf_iterator@DU?$char_traits@D@std@@@std@@@std@@QBE?AV?$istreambuf_iterator@DU?$char_traits@D@std@@@2@V32@0AAVios_base@2@AAHPAUtm@@@Z="C:\Windows\SysWOW64\msvcp110_win".?get_weekday@?$time_get@DV?$istreambuf_iterator@DU?$char_traits@D@std@@@std@@@std@@QBE?AV?$istreambuf_iterator@DU?$char_traits@D@std@@@2@V32@0AAVios_base@2@AAHPAUtm@@@Z
  ?get_weekday@?$time_get@GV?$istreambuf_iterator@GU?$char_traits@G@std@@@std@@@std@@QBE?AV?$istreambuf_iterator@GU?$char_traits@G@std@@@2@V32@0AAVios_base@2@AAHPAUtm@@@Z="C:\Windows\SysWOW64\msvcp110_win".?get_weekday@?$time_get@GV?$istreambuf_iterator@GU?$char_traits@G@std@@@std@@@std@@QBE?AV?$istreambuf_iterator@GU?$char_traits@G@std@@@2@V32@0AAVios_base@2@AAHPAUtm@@@Z
  ?get_weekday@?$time_get@_WV?$istreambuf_iterator@_WU?$char_traits@_W@std@@@std@@@std@@QBE?AV?$istreambuf_iterator@_WU?$char_traits@_W@std@@@2@V32@0AAVios_base@2@AAHPAUtm@@@Z="C:\Windows\SysWOW64\msvcp110_win".?get_weekday@?$time_get@_WV?$istreambuf_iterator@_WU?$char_traits@_W@std@@@std@@@std@@QBE?AV?$istreambuf_iterator@_WU?$char_traits@_W@std@@@2@V32@0AAVios_base@2@AAHPAUtm@@@Z
  ?get_year@?$time_get@DV?$istreambuf_iterator@DU?$char_traits@D@std@@@std@@@std@@QBE?AV?$istreambuf_iterator@DU?$char_traits@D@std@@@2@V32@0AAVios_base@2@AAHPAUtm@@@Z="C:\Windows\SysWOW64\msvcp110_win".?get_year@?$time_get@DV?$istreambuf_iterator@DU?$char_traits@D@std@@@std@@@std@@QBE?AV?$istreambuf_iterator@DU?$char_traits@D@std@@@2@V32@0AAVios_base@2@AAHPAUtm@@@Z
  ?get_year@?$time_get@GV?$istreambuf_iterator@GU?$char_traits@G@std@@@std@@@std@@QBE?AV?$istreambuf_iterator@GU?$char_traits@G@std@@@2@V32@0AAVios_base@2@AAHPAUtm@@@Z="C:\Windows\SysWOW64\msvcp110_win".?get_year@?$time_get@GV?$istreambuf_iterator@GU?$char_traits@G@std@@@std@@@std@@QBE?AV?$istreambuf_iterator@GU?$char_traits@G@std@@@2@V32@0AAVios_base@2@AAHPAUtm@@@Z
  ?get_year@?$time_get@_WV?$istreambuf_iterator@_WU?$char_traits@_W@std@@@std@@@std@@QBE?AV?$istreambuf_iterator@_WU?$char_traits@_W@std@@@2@V32@0AAVios_base@2@AAHPAUtm@@@Z="C:\Windows\SysWOW64\msvcp110_win".?get_year@?$time_get@_WV?$istreambuf_iterator@_WU?$char_traits@_W@std@@@std@@@std@@QBE?AV?$istreambuf_iterator@_WU?$char_traits@_W@std@@@2@V32@0AAVios_base@2@AAHPAUtm@@@Z
  ?getline@?$basic_istream@DU?$char_traits@D@std@@@std@@QAEAAV12@PAD_J@Z="C:\Windows\SysWOW64\msvcp110_win".?getline@?$basic_istream@DU?$char_traits@D@std@@@std@@QAEAAV12@PAD_J@Z
  ?getline@?$basic_istream@DU?$char_traits@D@std@@@std@@QAEAAV12@PAD_JD@Z="C:\Windows\SysWOW64\msvcp110_win".?getline@?$basic_istream@DU?$char_traits@D@std@@@std@@QAEAAV12@PAD_JD@Z
  ?getline@?$basic_istream@GU?$char_traits@G@std@@@std@@QAEAAV12@PAG_J@Z="C:\Windows\SysWOW64\msvcp110_win".?getline@?$basic_istream@GU?$char_traits@G@std@@@std@@QAEAAV12@PAG_J@Z
  ?getline@?$basic_istream@GU?$char_traits@G@std@@@std@@QAEAAV12@PAG_JG@Z="C:\Windows\SysWOW64\msvcp110_win".?getline@?$basic_istream@GU?$char_traits@G@std@@@std@@QAEAAV12@PAG_JG@Z
  ?getline@?$basic_istream@_WU?$char_traits@_W@std@@@std@@QAEAAV12@PA_W_J@Z="C:\Windows\SysWOW64\msvcp110_win".?getline@?$basic_istream@_WU?$char_traits@_W@std@@@std@@QAEAAV12@PA_W_J@Z
  ?getline@?$basic_istream@_WU?$char_traits@_W@std@@@std@@QAEAAV12@PA_W_J_W@Z="C:\Windows\SysWOW64\msvcp110_win".?getline@?$basic_istream@_WU?$char_traits@_W@std@@@std@@QAEAAV12@PA_W_J_W@Z
  ?getloc@?$basic_streambuf@DU?$char_traits@D@std@@@std@@QBE?AVlocale@2@XZ="C:\Windows\SysWOW64\msvcp110_win".?getloc@?$basic_streambuf@DU?$char_traits@D@std@@@std@@QBE?AVlocale@2@XZ
  ?getloc@?$basic_streambuf@GU?$char_traits@G@std@@@std@@QBE?AVlocale@2@XZ="C:\Windows\SysWOW64\msvcp110_win".?getloc@?$basic_streambuf@GU?$char_traits@G@std@@@std@@QBE?AVlocale@2@XZ
  ?getloc@?$basic_streambuf@_WU?$char_traits@_W@std@@@std@@QBE?AVlocale@2@XZ="C:\Windows\SysWOW64\msvcp110_win".?getloc@?$basic_streambuf@_WU?$char_traits@_W@std@@@std@@QBE?AVlocale@2@XZ
  ?getloc@ios_base@std@@QBE?AVlocale@2@XZ="C:\Windows\SysWOW64\msvcp110_win".?getloc@ios_base@std@@QBE?AVlocale@2@XZ
  ?global@locale@std@@SA?AV12@ABV12@@Z="C:\Windows\SysWOW64\msvcp110_win".?global@locale@std@@SA?AV12@ABV12@@Z
  ?good@ios_base@std@@QBE_NXZ="C:\Windows\SysWOW64\msvcp110_win".?good@ios_base@std@@QBE_NXZ
  ?gptr@?$basic_streambuf@DU?$char_traits@D@std@@@std@@IBEPADXZ="C:\Windows\SysWOW64\msvcp110_win".?gptr@?$basic_streambuf@DU?$char_traits@D@std@@@std@@IBEPADXZ
  ?gptr@?$basic_streambuf@GU?$char_traits@G@std@@@std@@IBEPAGXZ="C:\Windows\SysWOW64\msvcp110_win".?gptr@?$basic_streambuf@GU?$char_traits@G@std@@@std@@IBEPAGXZ
  ?gptr@?$basic_streambuf@_WU?$char_traits@_W@std@@@std@@IBEPA_WXZ="C:\Windows\SysWOW64\msvcp110_win".?gptr@?$basic_streambuf@_WU?$char_traits@_W@std@@@std@@IBEPA_WXZ
  ?id@?$codecvt@DDH@std@@2V0locale@2@A="C:\Windows\SysWOW64\msvcp110_win".?id@?$codecvt@DDH@std@@2V0locale@2@A
  ?id@?$codecvt@GDH@std@@2V0locale@2@A="C:\Windows\SysWOW64\msvcp110_win".?id@?$codecvt@GDH@std@@2V0locale@2@A
  ?id@?$codecvt@_WDH@std@@2V0locale@2@A="C:\Windows\SysWOW64\msvcp110_win".?id@?$codecvt@_WDH@std@@2V0locale@2@A
  ?id@?$collate@D@std@@2V0locale@2@A="C:\Windows\SysWOW64\msvcp110_win".?id@?$collate@D@std@@2V0locale@2@A
  ?id@?$collate@G@std@@2V0locale@2@A="C:\Windows\SysWOW64\msvcp110_win".?id@?$collate@G@std@@2V0locale@2@A
  ?id@?$collate@_W@std@@2V0locale@2@A="C:\Windows\SysWOW64\msvcp110_win".?id@?$collate@_W@std@@2V0locale@2@A
  ?id@?$ctype@D@std@@2V0locale@2@A="C:\Windows\SysWOW64\msvcp110_win".?id@?$ctype@D@std@@2V0locale@2@A
  ?id@?$ctype@G@std@@2V0locale@2@A="C:\Windows\SysWOW64\msvcp110_win".?id@?$ctype@G@std@@2V0locale@2@A
  ?id@?$ctype@_W@std@@2V0locale@2@A="C:\Windows\SysWOW64\msvcp110_win".?id@?$ctype@_W@std@@2V0locale@2@A
  ?id@?$messages@D@std@@2V0locale@2@A="C:\Windows\SysWOW64\msvcp110_win".?id@?$messages@D@std@@2V0locale@2@A
  ?id@?$messages@G@std@@2V0locale@2@A="C:\Windows\SysWOW64\msvcp110_win".?id@?$messages@G@std@@2V0locale@2@A
  ?id@?$messages@_W@std@@2V0locale@2@A="C:\Windows\SysWOW64\msvcp110_win".?id@?$messages@_W@std@@2V0locale@2@A
  ?id@?$money_get@DV?$istreambuf_iterator@DU?$char_traits@D@std@@@std@@@std@@2V0locale@2@A="C:\Windows\SysWOW64\msvcp110_win".?id@?$money_get@DV?$istreambuf_iterator@DU?$char_traits@D@std@@@std@@@std@@2V0locale@2@A
  ?id@?$money_get@GV?$istreambuf_iterator@GU?$char_traits@G@std@@@std@@@std@@2V0locale@2@A="C:\Windows\SysWOW64\msvcp110_win".?id@?$money_get@GV?$istreambuf_iterator@GU?$char_traits@G@std@@@std@@@std@@2V0locale@2@A
  ?id@?$money_get@_WV?$istreambuf_iterator@_WU?$char_traits@_W@std@@@std@@@std@@2V0locale@2@A="C:\Windows\SysWOW64\msvcp110_win".?id@?$money_get@_WV?$istreambuf_iterator@_WU?$char_traits@_W@std@@@std@@@std@@2V0locale@2@A
  ?id@?$money_put@DV?$ostreambuf_iterator@DU?$char_traits@D@std@@@std@@@std@@2V0locale@2@A="C:\Windows\SysWOW64\msvcp110_win".?id@?$money_put@DV?$ostreambuf_iterator@DU?$char_traits@D@std@@@std@@@std@@2V0locale@2@A
  ?id@?$money_put@GV?$ostreambuf_iterator@GU?$char_traits@G@std@@@std@@@std@@2V0locale@2@A="C:\Windows\SysWOW64\msvcp110_win".?id@?$money_put@GV?$ostreambuf_iterator@GU?$char_traits@G@std@@@std@@@std@@2V0locale@2@A
  ?id@?$money_put@_WV?$ostreambuf_iterator@_WU?$char_traits@_W@std@@@std@@@std@@2V0locale@2@A="C:\Windows\SysWOW64\msvcp110_win".?id@?$money_put@_WV?$ostreambuf_iterator@_WU?$char_traits@_W@std@@@std@@@std@@2V0locale@2@A
  ?id@?$moneypunct@D$00@std@@2V0locale@2@A="C:\Windows\SysWOW64\msvcp110_win".?id@?$moneypunct@D$00@std@@2V0locale@2@A
  ?id@?$moneypunct@D$0A@@std@@2V0locale@2@A="C:\Windows\SysWOW64\msvcp110_win".?id@?$moneypunct@D$0A@@std@@2V0locale@2@A
  ?id@?$moneypunct@G$00@std@@2V0locale@2@A="C:\Windows\SysWOW64\msvcp110_win".?id@?$moneypunct@G$00@std@@2V0locale@2@A
  ?id@?$moneypunct@G$0A@@std@@2V0locale@2@A="C:\Windows\SysWOW64\msvcp110_win".?id@?$moneypunct@G$0A@@std@@2V0locale@2@A
  ?id@?$moneypunct@_W$00@std@@2V0locale@2@A="C:\Windows\SysWOW64\msvcp110_win".?id@?$moneypunct@_W$00@std@@2V0locale@2@A
  ?id@?$moneypunct@_W$0A@@std@@2V0locale@2@A="C:\Windows\SysWOW64\msvcp110_win".?id@?$moneypunct@_W$0A@@std@@2V0locale@2@A
  ?id@?$num_get@DV?$istreambuf_iterator@DU?$char_traits@D@std@@@std@@@std@@2V0locale@2@A="C:\Windows\SysWOW64\msvcp110_win".?id@?$num_get@DV?$istreambuf_iterator@DU?$char_traits@D@std@@@std@@@std@@2V0locale@2@A
  ?id@?$num_get@GV?$istreambuf_iterator@GU?$char_traits@G@std@@@std@@@std@@2V0locale@2@A="C:\Windows\SysWOW64\msvcp110_win".?id@?$num_get@GV?$istreambuf_iterator@GU?$char_traits@G@std@@@std@@@std@@2V0locale@2@A
  ?id@?$num_get@_WV?$istreambuf_iterator@_WU?$char_traits@_W@std@@@std@@@std@@2V0locale@2@A="C:\Windows\SysWOW64\msvcp110_win".?id@?$num_get@_WV?$istreambuf_iterator@_WU?$char_traits@_W@std@@@std@@@std@@2V0locale@2@A
  ?id@?$num_put@DV?$ostreambuf_iterator@DU?$char_traits@D@std@@@std@@@std@@2V0locale@2@A="C:\Windows\SysWOW64\msvcp110_win".?id@?$num_put@DV?$ostreambuf_iterator@DU?$char_traits@D@std@@@std@@@std@@2V0locale@2@A
  ?id@?$num_put@GV?$ostreambuf_iterator@GU?$char_traits@G@std@@@std@@@std@@2V0locale@2@A="C:\Windows\SysWOW64\msvcp110_win".?id@?$num_put@GV?$ostreambuf_iterator@GU?$char_traits@G@std@@@std@@@std@@2V0locale@2@A
  ?id@?$num_put@_WV?$ostreambuf_iterator@_WU?$char_traits@_W@std@@@std@@@std@@2V0locale@2@A="C:\Windows\SysWOW64\msvcp110_win".?id@?$num_put@_WV?$ostreambuf_iterator@_WU?$char_traits@_W@std@@@std@@@std@@2V0locale@2@A
  ?id@?$numpunct@D@std@@2V0locale@2@A="C:\Windows\SysWOW64\msvcp110_win".?id@?$numpunct@D@std@@2V0locale@2@A
  ?id@?$numpunct@G@std@@2V0locale@2@A="C:\Windows\SysWOW64\msvcp110_win".?id@?$numpunct@G@std@@2V0locale@2@A
  ?id@?$numpunct@_W@std@@2V0locale@2@A="C:\Windows\SysWOW64\msvcp110_win".?id@?$numpunct@_W@std@@2V0locale@2@A
  ?id@?$time_get@DV?$istreambuf_iterator@DU?$char_traits@D@std@@@std@@@std@@2V0locale@2@A="C:\Windows\SysWOW64\msvcp110_win".?id@?$time_get@DV?$istreambuf_iterator@DU?$char_traits@D@std@@@std@@@std@@2V0locale@2@A
  ?id@?$time_get@GV?$istreambuf_iterator@GU?$char_traits@G@std@@@std@@@std@@2V0locale@2@A="C:\Windows\SysWOW64\msvcp110_win".?id@?$time_get@GV?$istreambuf_iterator@GU?$char_traits@G@std@@@std@@@std@@2V0locale@2@A
  ?id@?$time_get@_WV?$istreambuf_iterator@_WU?$char_traits@_W@std@@@std@@@std@@2V0locale@2@A="C:\Windows\SysWOW64\msvcp110_win".?id@?$time_get@_WV?$istreambuf_iterator@_WU?$char_traits@_W@std@@@std@@@std@@2V0locale@2@A
  ?id@?$time_put@DV?$ostreambuf_iterator@DU?$char_traits@D@std@@@std@@@std@@2V0locale@2@A="C:\Windows\SysWOW64\msvcp110_win".?id@?$time_put@DV?$ostreambuf_iterator@DU?$char_traits@D@std@@@std@@@std@@2V0locale@2@A
  ?id@?$time_put@GV?$ostreambuf_iterator@GU?$char_traits@G@std@@@std@@@std@@2V0locale@2@A="C:\Windows\SysWOW64\msvcp110_win".?id@?$time_put@GV?$ostreambuf_iterator@GU?$char_traits@G@std@@@std@@@std@@2V0locale@2@A
  ?id@?$time_put@_WV?$ostreambuf_iterator@_WU?$char_traits@_W@std@@@std@@@std@@2V0locale@2@A="C:\Windows\SysWOW64\msvcp110_win".?id@?$time_put@_WV?$ostreambuf_iterator@_WU?$char_traits@_W@std@@@std@@@std@@2V0locale@2@A
  ?ignore@?$basic_istream@DU?$char_traits@D@std@@@std@@QAEAAV12@_JH@Z="C:\Windows\SysWOW64\msvcp110_win".?ignore@?$basic_istream@DU?$char_traits@D@std@@@std@@QAEAAV12@_JH@Z
  ?ignore@?$basic_istream@GU?$char_traits@G@std@@@std@@QAEAAV12@_JG@Z="C:\Windows\SysWOW64\msvcp110_win".?ignore@?$basic_istream@GU?$char_traits@G@std@@@std@@QAEAAV12@_JG@Z
  ?ignore@?$basic_istream@_WU?$char_traits@_W@std@@@std@@QAEAAV12@_JG@Z="C:\Windows\SysWOW64\msvcp110_win".?ignore@?$basic_istream@_WU?$char_traits@_W@std@@@std@@QAEAAV12@_JG@Z
  ?imbue@?$basic_ios@DU?$char_traits@D@std@@@std@@QAE?AVlocale@2@ABV32@@Z="C:\Windows\SysWOW64\msvcp110_win".?imbue@?$basic_ios@DU?$char_traits@D@std@@@std@@QAE?AVlocale@2@ABV32@@Z
  ?imbue@?$basic_ios@GU?$char_traits@G@std@@@std@@QAE?AVlocale@2@ABV32@@Z="C:\Windows\SysWOW64\msvcp110_win".?imbue@?$basic_ios@GU?$char_traits@G@std@@@std@@QAE?AVlocale@2@ABV32@@Z
  ?imbue@?$basic_ios@_WU?$char_traits@_W@std@@@std@@QAE?AVlocale@2@ABV32@@Z="C:\Windows\SysWOW64\msvcp110_win".?imbue@?$basic_ios@_WU?$char_traits@_W@std@@@std@@QAE?AVlocale@2@ABV32@@Z
  ?imbue@?$basic_streambuf@DU?$char_traits@D@std@@@std@@MAEXABVlocale@2@@Z="C:\Windows\SysWOW64\msvcp110_win".?imbue@?$basic_streambuf@DU?$char_traits@D@std@@@std@@MAEXABVlocale@2@@Z
  ?imbue@?$basic_streambuf@GU?$char_traits@G@std@@@std@@MAEXABVlocale@2@@Z="C:\Windows\SysWOW64\msvcp110_win".?imbue@?$basic_streambuf@GU?$char_traits@G@std@@@std@@MAEXABVlocale@2@@Z
  ?imbue@?$basic_streambuf@_WU?$char_traits@_W@std@@@std@@MAEXABVlocale@2@@Z="C:\Windows\SysWOW64\msvcp110_win".?imbue@?$basic_streambuf@_WU?$char_traits@_W@std@@@std@@MAEXABVlocale@2@@Z
  ?imbue@ios_base@std@@QAE?AVlocale@2@ABV32@@Z="C:\Windows\SysWOW64\msvcp110_win".?imbue@ios_base@std@@QAE?AVlocale@2@ABV32@@Z
  ?in@?$codecvt@DDH@std@@QBEHAAHPBD1AAPBDPAD3AAPAD@Z="C:\Windows\SysWOW64\msvcp110_win".?in@?$codecvt@DDH@std@@QBEHAAHPBD1AAPBDPAD3AAPAD@Z
  ?in@?$codecvt@GDH@std@@QBEHAAHPBD1AAPBDPAG3AAPAG@Z="C:\Windows\SysWOW64\msvcp110_win".?in@?$codecvt@GDH@std@@QBEHAAHPBD1AAPBDPAG3AAPAG@Z
  ?in@?$codecvt@_SDH@std@@QBEHAAHPBD1AAPBDPA_S3AAPA_S@Z="C:\Windows\SysWOW64\msvcp110_win".?in@?$codecvt@_SDH@std@@QBEHAAHPBD1AAPBDPA_S3AAPA_S@Z
  ?in@?$codecvt@_UDH@std@@QBEHAAHPBD1AAPBDPA_U3AAPA_U@Z="C:\Windows\SysWOW64\msvcp110_win".?in@?$codecvt@_UDH@std@@QBEHAAHPBD1AAPBDPA_U3AAPA_U@Z
  ?in@?$codecvt@_WDH@std@@QBEHAAHPBD1AAPBDPA_W3AAPA_W@Z="C:\Windows\SysWOW64\msvcp110_win".?in@?$codecvt@_WDH@std@@QBEHAAHPBD1AAPBDPA_W3AAPA_W@Z
  ?in_avail@?$basic_streambuf@DU?$char_traits@D@std@@@std@@QAE_JXZ="C:\Windows\SysWOW64\msvcp110_win".?in_avail@?$basic_streambuf@DU?$char_traits@D@std@@@std@@QAE_JXZ
  ?in_avail@?$basic_streambuf@GU?$char_traits@G@std@@@std@@QAE_JXZ="C:\Windows\SysWOW64\msvcp110_win".?in_avail@?$basic_streambuf@GU?$char_traits@G@std@@@std@@QAE_JXZ
  ?in_avail@?$basic_streambuf@_WU?$char_traits@_W@std@@@std@@QAE_JXZ="C:\Windows\SysWOW64\msvcp110_win".?in_avail@?$basic_streambuf@_WU?$char_traits@_W@std@@@std@@QAE_JXZ
  ?init@?$basic_ios@DU?$char_traits@D@std@@@std@@IAEXPAV?$basic_streambuf@DU?$char_traits@D@std@@@2@_N@Z="C:\Windows\SysWOW64\msvcp110_win".?init@?$basic_ios@DU?$char_traits@D@std@@@std@@IAEXPAV?$basic_streambuf@DU?$char_traits@D@std@@@2@_N@Z
  ?init@?$basic_ios@GU?$char_traits@G@std@@@std@@IAEXPAV?$basic_streambuf@GU?$char_traits@G@std@@@2@_N@Z="C:\Windows\SysWOW64\msvcp110_win".?init@?$basic_ios@GU?$char_traits@G@std@@@std@@IAEXPAV?$basic_streambuf@GU?$char_traits@G@std@@@2@_N@Z
  ?init@?$basic_ios@_WU?$char_traits@_W@std@@@std@@IAEXPAV?$basic_streambuf@_WU?$char_traits@_W@std@@@2@_N@Z="C:\Windows\SysWOW64\msvcp110_win".?init@?$basic_ios@_WU?$char_traits@_W@std@@@std@@IAEXPAV?$basic_streambuf@_WU?$char_traits@_W@std@@@2@_N@Z
  ?intl@?$moneypunct@D$00@std@@2_NB="C:\Windows\SysWOW64\msvcp110_win".?intl@?$moneypunct@D$00@std@@2_NB
  ?intl@?$moneypunct@D$0A@@std@@2_NB="C:\Windows\SysWOW64\msvcp110_win".?intl@?$moneypunct@D$0A@@std@@2_NB
  ?intl@?$moneypunct@G$00@std@@2_NB="C:\Windows\SysWOW64\msvcp110_win".?intl@?$moneypunct@G$00@std@@2_NB
  ?intl@?$moneypunct@G$0A@@std@@2_NB="C:\Windows\SysWOW64\msvcp110_win".?intl@?$moneypunct@G$0A@@std@@2_NB
  ?intl@?$moneypunct@_W$00@std@@2_NB="C:\Windows\SysWOW64\msvcp110_win".?intl@?$moneypunct@_W$00@std@@2_NB
  ?intl@?$moneypunct@_W$0A@@std@@2_NB="C:\Windows\SysWOW64\msvcp110_win".?intl@?$moneypunct@_W$0A@@std@@2_NB
  ?ipfx@?$basic_istream@DU?$char_traits@D@std@@@std@@QAE_N_N@Z="C:\Windows\SysWOW64\msvcp110_win".?ipfx@?$basic_istream@DU?$char_traits@D@std@@@std@@QAE_N_N@Z
  ?ipfx@?$basic_istream@GU?$char_traits@G@std@@@std@@QAE_N_N@Z="C:\Windows\SysWOW64\msvcp110_win".?ipfx@?$basic_istream@GU?$char_traits@G@std@@@std@@QAE_N_N@Z
  ?ipfx@?$basic_istream@_WU?$char_traits@_W@std@@@std@@QAE_N_N@Z="C:\Windows\SysWOW64\msvcp110_win".?ipfx@?$basic_istream@_WU?$char_traits@_W@std@@@std@@QAE_N_N@Z
  ?is@?$ctype@D@std@@QBEPBDPBD0PAF@Z="C:\Windows\SysWOW64\msvcp110_win".?is@?$ctype@D@std@@QBEPBDPBD0PAF@Z
  ?is@?$ctype@D@std@@QBE_NFD@Z="C:\Windows\SysWOW64\msvcp110_win".?is@?$ctype@D@std@@QBE_NFD@Z
  ?is@?$ctype@G@std@@QBEPBGPBG0PAF@Z="C:\Windows\SysWOW64\msvcp110_win".?is@?$ctype@G@std@@QBEPBGPBG0PAF@Z
  ?is@?$ctype@G@std@@QBE_NFG@Z="C:\Windows\SysWOW64\msvcp110_win".?is@?$ctype@G@std@@QBE_NFG@Z
  ?is@?$ctype@_W@std@@QBEPB_WPB_W0PAF@Z="C:\Windows\SysWOW64\msvcp110_win".?is@?$ctype@_W@std@@QBEPB_WPB_W0PAF@Z
  ?is@?$ctype@_W@std@@QBE_NF_W@Z="C:\Windows\SysWOW64\msvcp110_win".?is@?$ctype@_W@std@@QBE_NF_W@Z
  ?isfx@?$basic_istream@DU?$char_traits@D@std@@@std@@QAEXXZ="C:\Windows\SysWOW64\msvcp110_win".?isfx@?$basic_istream@DU?$char_traits@D@std@@@std@@QAEXXZ
  ?isfx@?$basic_istream@GU?$char_traits@G@std@@@std@@QAEXXZ="C:\Windows\SysWOW64\msvcp110_win".?isfx@?$basic_istream@GU?$char_traits@G@std@@@std@@QAEXXZ
  ?isfx@?$basic_istream@_WU?$char_traits@_W@std@@@std@@QAEXXZ="C:\Windows\SysWOW64\msvcp110_win".?isfx@?$basic_istream@_WU?$char_traits@_W@std@@@std@@QAEXXZ
  ?iword@ios_base@std@@QAEAAJH@Z="C:\Windows\SysWOW64\msvcp110_win".?iword@ios_base@std@@QAEAAJH@Z
  ?length@?$codecvt@DDH@std@@QBEHAAHPBD1I@Z="C:\Windows\SysWOW64\msvcp110_win".?length@?$codecvt@DDH@std@@QBEHAAHPBD1I@Z
  ?length@?$codecvt@GDH@std@@QBEHAAHPBD1I@Z="C:\Windows\SysWOW64\msvcp110_win".?length@?$codecvt@GDH@std@@QBEHAAHPBD1I@Z
  ?length@?$codecvt@_SDH@std@@QBEHAAHPBD1I@Z="C:\Windows\SysWOW64\msvcp110_win".?length@?$codecvt@_SDH@std@@QBEHAAHPBD1I@Z
  ?length@?$codecvt@_UDH@std@@QBEHAAHPBD1I@Z="C:\Windows\SysWOW64\msvcp110_win".?length@?$codecvt@_UDH@std@@QBEHAAHPBD1I@Z
  ?length@?$codecvt@_WDH@std@@QBEHAAHPBD1I@Z="C:\Windows\SysWOW64\msvcp110_win".?length@?$codecvt@_WDH@std@@QBEHAAHPBD1I@Z
  ?max_length@codecvt_base@std@@QBEHXZ="C:\Windows\SysWOW64\msvcp110_win".?max_length@codecvt_base@std@@QBEHXZ
  ?move@?$basic_ios@DU?$char_traits@D@std@@@std@@QAEX$$QAV12@@Z="C:\Windows\SysWOW64\msvcp110_win".?move@?$basic_ios@DU?$char_traits@D@std@@@std@@QAEX$$QAV12@@Z
  ?move@?$basic_ios@DU?$char_traits@D@std@@@std@@QAEXAAV12@@Z="C:\Windows\SysWOW64\msvcp110_win".?move@?$basic_ios@DU?$char_traits@D@std@@@std@@QAEXAAV12@@Z
  ?move@?$basic_ios@GU?$char_traits@G@std@@@std@@QAEX$$QAV12@@Z="C:\Windows\SysWOW64\msvcp110_win".?move@?$basic_ios@GU?$char_traits@G@std@@@std@@QAEX$$QAV12@@Z
  ?move@?$basic_ios@GU?$char_traits@G@std@@@std@@QAEXAAV12@@Z="C:\Windows\SysWOW64\msvcp110_win".?move@?$basic_ios@GU?$char_traits@G@std@@@std@@QAEXAAV12@@Z
  ?move@?$basic_ios@_WU?$char_traits@_W@std@@@std@@QAEX$$QAV12@@Z="C:\Windows\SysWOW64\msvcp110_win".?move@?$basic_ios@_WU?$char_traits@_W@std@@@std@@QAEX$$QAV12@@Z
  ?move@?$basic_ios@_WU?$char_traits@_W@std@@@std@@QAEXAAV12@@Z="C:\Windows\SysWOW64\msvcp110_win".?move@?$basic_ios@_WU?$char_traits@_W@std@@@std@@QAEXAAV12@@Z
  ?narrow@?$basic_ios@DU?$char_traits@D@std@@@std@@QBEDDD@Z="C:\Windows\SysWOW64\msvcp110_win".?narrow@?$basic_ios@DU?$char_traits@D@std@@@std@@QBEDDD@Z
  ?narrow@?$basic_ios@GU?$char_traits@G@std@@@std@@QBEDGD@Z="C:\Windows\SysWOW64\msvcp110_win".?narrow@?$basic_ios@GU?$char_traits@G@std@@@std@@QBEDGD@Z
  ?narrow@?$basic_ios@_WU?$char_traits@_W@std@@@std@@QBED_WD@Z="C:\Windows\SysWOW64\msvcp110_win".?narrow@?$basic_ios@_WU?$char_traits@_W@std@@@std@@QBED_WD@Z
  ?narrow@?$ctype@D@std@@QBEDDD@Z="C:\Windows\SysWOW64\msvcp110_win".?narrow@?$ctype@D@std@@QBEDDD@Z
  ?narrow@?$ctype@D@std@@QBEPBDPBD0DPAD@Z="C:\Windows\SysWOW64\msvcp110_win".?narrow@?$ctype@D@std@@QBEPBDPBD0DPAD@Z
  ?narrow@?$ctype@G@std@@QBEDGD@Z="C:\Windows\SysWOW64\msvcp110_win".?narrow@?$ctype@G@std@@QBEDGD@Z
  ?narrow@?$ctype@G@std@@QBEPBGPBG0DPAD@Z="C:\Windows\SysWOW64\msvcp110_win".?narrow@?$ctype@G@std@@QBEPBGPBG0DPAD@Z
  ?narrow@?$ctype@_W@std@@QBED_WD@Z="C:\Windows\SysWOW64\msvcp110_win".?narrow@?$ctype@_W@std@@QBED_WD@Z
  ?narrow@?$ctype@_W@std@@QBEPB_WPB_W0DPAD@Z="C:\Windows\SysWOW64\msvcp110_win".?narrow@?$ctype@_W@std@@QBEPB_WPB_W0DPAD@Z
  ?opfx@?$basic_ostream@DU?$char_traits@D@std@@@std@@QAE_NXZ="C:\Windows\SysWOW64\msvcp110_win".?opfx@?$basic_ostream@DU?$char_traits@D@std@@@std@@QAE_NXZ
  ?opfx@?$basic_ostream@GU?$char_traits@G@std@@@std@@QAE_NXZ="C:\Windows\SysWOW64\msvcp110_win".?opfx@?$basic_ostream@GU?$char_traits@G@std@@@std@@QAE_NXZ
  ?opfx@?$basic_ostream@_WU?$char_traits@_W@std@@@std@@QAE_NXZ="C:\Windows\SysWOW64\msvcp110_win".?opfx@?$basic_ostream@_WU?$char_traits@_W@std@@@std@@QAE_NXZ
  ?osfx@?$basic_ostream@DU?$char_traits@D@std@@@std@@QAEXXZ="C:\Windows\SysWOW64\msvcp110_win".?osfx@?$basic_ostream@DU?$char_traits@D@std@@@std@@QAEXXZ
  ?osfx@?$basic_ostream@GU?$char_traits@G@std@@@std@@QAEXXZ="C:\Windows\SysWOW64\msvcp110_win".?osfx@?$basic_ostream@GU?$char_traits@G@std@@@std@@QAEXXZ
  ?osfx@?$basic_ostream@_WU?$char_traits@_W@std@@@std@@QAEXXZ="C:\Windows\SysWOW64\msvcp110_win".?osfx@?$basic_ostream@_WU?$char_traits@_W@std@@@std@@QAEXXZ
  ?out@?$codecvt@DDH@std@@QBEHAAHPBD1AAPBDPAD3AAPAD@Z="C:\Windows\SysWOW64\msvcp110_win".?out@?$codecvt@DDH@std@@QBEHAAHPBD1AAPBDPAD3AAPAD@Z
  ?out@?$codecvt@GDH@std@@QBEHAAHPBG1AAPBGPAD3AAPAD@Z="C:\Windows\SysWOW64\msvcp110_win".?out@?$codecvt@GDH@std@@QBEHAAHPBG1AAPBGPAD3AAPAD@Z
  ?out@?$codecvt@_SDH@std@@QBEHAAHPB_S1AAPB_SPAD3AAPAD@Z="C:\Windows\SysWOW64\msvcp110_win".?out@?$codecvt@_SDH@std@@QBEHAAHPB_S1AAPB_SPAD3AAPAD@Z
  ?out@?$codecvt@_UDH@std@@QBEHAAHPB_U1AAPB_UPAD3AAPAD@Z="C:\Windows\SysWOW64\msvcp110_win".?out@?$codecvt@_UDH@std@@QBEHAAHPB_U1AAPB_UPAD3AAPAD@Z
  ?out@?$codecvt@_WDH@std@@QBEHAAHPB_W1AAPB_WPAD3AAPAD@Z="C:\Windows\SysWOW64\msvcp110_win".?out@?$codecvt@_WDH@std@@QBEHAAHPB_W1AAPB_WPAD3AAPAD@Z
  ?overflow@?$basic_streambuf@DU?$char_traits@D@std@@@std@@MAEHH@Z="C:\Windows\SysWOW64\msvcp110_win".?overflow@?$basic_streambuf@DU?$char_traits@D@std@@@std@@MAEHH@Z
  ?overflow@?$basic_streambuf@GU?$char_traits@G@std@@@std@@MAEGG@Z="C:\Windows\SysWOW64\msvcp110_win".?overflow@?$basic_streambuf@GU?$char_traits@G@std@@@std@@MAEGG@Z
  ?overflow@?$basic_streambuf@_WU?$char_traits@_W@std@@@std@@MAEGG@Z="C:\Windows\SysWOW64\msvcp110_win".?overflow@?$basic_streambuf@_WU?$char_traits@_W@std@@@std@@MAEGG@Z
  ?pbackfail@?$basic_streambuf@DU?$char_traits@D@std@@@std@@MAEHH@Z="C:\Windows\SysWOW64\msvcp110_win".?pbackfail@?$basic_streambuf@DU?$char_traits@D@std@@@std@@MAEHH@Z
  ?pbackfail@?$basic_streambuf@GU?$char_traits@G@std@@@std@@MAEGG@Z="C:\Windows\SysWOW64\msvcp110_win".?pbackfail@?$basic_streambuf@GU?$char_traits@G@std@@@std@@MAEGG@Z
  ?pbackfail@?$basic_streambuf@_WU?$char_traits@_W@std@@@std@@MAEGG@Z="C:\Windows\SysWOW64\msvcp110_win".?pbackfail@?$basic_streambuf@_WU?$char_traits@_W@std@@@std@@MAEGG@Z
  ?pbase@?$basic_streambuf@DU?$char_traits@D@std@@@std@@IBEPADXZ="C:\Windows\SysWOW64\msvcp110_win".?pbase@?$basic_streambuf@DU?$char_traits@D@std@@@std@@IBEPADXZ
  ?pbase@?$basic_streambuf@GU?$char_traits@G@std@@@std@@IBEPAGXZ="C:\Windows\SysWOW64\msvcp110_win".?pbase@?$basic_streambuf@GU?$char_traits@G@std@@@std@@IBEPAGXZ
  ?pbase@?$basic_streambuf@_WU?$char_traits@_W@std@@@std@@IBEPA_WXZ="C:\Windows\SysWOW64\msvcp110_win".?pbase@?$basic_streambuf@_WU?$char_traits@_W@std@@@std@@IBEPA_WXZ
  ?pbump@?$basic_streambuf@DU?$char_traits@D@std@@@std@@IAEXH@Z="C:\Windows\SysWOW64\msvcp110_win".?pbump@?$basic_streambuf@DU?$char_traits@D@std@@@std@@IAEXH@Z
  ?pbump@?$basic_streambuf@GU?$char_traits@G@std@@@std@@IAEXH@Z="C:\Windows\SysWOW64\msvcp110_win".?pbump@?$basic_streambuf@GU?$char_traits@G@std@@@std@@IAEXH@Z
  ?pbump@?$basic_streambuf@_WU?$char_traits@_W@std@@@std@@IAEXH@Z="C:\Windows\SysWOW64\msvcp110_win".?pbump@?$basic_streambuf@_WU?$char_traits@_W@std@@@std@@IAEXH@Z
  ?peek@?$basic_istream@DU?$char_traits@D@std@@@std@@QAEHXZ="C:\Windows\SysWOW64\msvcp110_win".?peek@?$basic_istream@DU?$char_traits@D@std@@@std@@QAEHXZ
  ?peek@?$basic_istream@GU?$char_traits@G@std@@@std@@QAEGXZ="C:\Windows\SysWOW64\msvcp110_win".?peek@?$basic_istream@GU?$char_traits@G@std@@@std@@QAEGXZ
  ?peek@?$basic_istream@_WU?$char_traits@_W@std@@@std@@QAEGXZ="C:\Windows\SysWOW64\msvcp110_win".?peek@?$basic_istream@_WU?$char_traits@_W@std@@@std@@QAEGXZ
  ?pptr@?$basic_streambuf@DU?$char_traits@D@std@@@std@@IBEPADXZ="C:\Windows\SysWOW64\msvcp110_win".?pptr@?$basic_streambuf@DU?$char_traits@D@std@@@std@@IBEPADXZ
  ?pptr@?$basic_streambuf@GU?$char_traits@G@std@@@std@@IBEPAGXZ="C:\Windows\SysWOW64\msvcp110_win".?pptr@?$basic_streambuf@GU?$char_traits@G@std@@@std@@IBEPAGXZ
  ?pptr@?$basic_streambuf@_WU?$char_traits@_W@std@@@std@@IBEPA_WXZ="C:\Windows\SysWOW64\msvcp110_win".?pptr@?$basic_streambuf@_WU?$char_traits@_W@std@@@std@@IBEPA_WXZ
  ?precision@ios_base@std@@QAE_J_J@Z="C:\Windows\SysWOW64\msvcp110_win".?precision@ios_base@std@@QAE_J_J@Z
  ?precision@ios_base@std@@QBE_JXZ="C:\Windows\SysWOW64\msvcp110_win".?precision@ios_base@std@@QBE_JXZ
  ?pubimbue@?$basic_streambuf@DU?$char_traits@D@std@@@std@@QAE?AVlocale@2@ABV32@@Z="C:\Windows\SysWOW64\msvcp110_win".?pubimbue@?$basic_streambuf@DU?$char_traits@D@std@@@std@@QAE?AVlocale@2@ABV32@@Z
  ?pubimbue@?$basic_streambuf@GU?$char_traits@G@std@@@std@@QAE?AVlocale@2@ABV32@@Z="C:\Windows\SysWOW64\msvcp110_win".?pubimbue@?$basic_streambuf@GU?$char_traits@G@std@@@std@@QAE?AVlocale@2@ABV32@@Z
  ?pubimbue@?$basic_streambuf@_WU?$char_traits@_W@std@@@std@@QAE?AVlocale@2@ABV32@@Z="C:\Windows\SysWOW64\msvcp110_win".?pubimbue@?$basic_streambuf@_WU?$char_traits@_W@std@@@std@@QAE?AVlocale@2@ABV32@@Z
  ?pubseekoff@?$basic_streambuf@DU?$char_traits@D@std@@@std@@QAE?AV?$fpos@H@2@_JHH@Z="C:\Windows\SysWOW64\msvcp110_win".?pubseekoff@?$basic_streambuf@DU?$char_traits@D@std@@@std@@QAE?AV?$fpos@H@2@_JHH@Z
  ?pubseekoff@?$basic_streambuf@DU?$char_traits@D@std@@@std@@QAE?AV?$fpos@H@2@_JII@Z="C:\Windows\SysWOW64\msvcp110_win".?pubseekoff@?$basic_streambuf@DU?$char_traits@D@std@@@std@@QAE?AV?$fpos@H@2@_JII@Z
  ?pubseekoff@?$basic_streambuf@GU?$char_traits@G@std@@@std@@QAE?AV?$fpos@H@2@_JHH@Z="C:\Windows\SysWOW64\msvcp110_win".?pubseekoff@?$basic_streambuf@GU?$char_traits@G@std@@@std@@QAE?AV?$fpos@H@2@_JHH@Z
  ?pubseekoff@?$basic_streambuf@GU?$char_traits@G@std@@@std@@QAE?AV?$fpos@H@2@_JII@Z="C:\Windows\SysWOW64\msvcp110_win".?pubseekoff@?$basic_streambuf@GU?$char_traits@G@std@@@std@@QAE?AV?$fpos@H@2@_JII@Z
  ?pubseekoff@?$basic_streambuf@_WU?$char_traits@_W@std@@@std@@QAE?AV?$fpos@H@2@_JHH@Z="C:\Windows\SysWOW64\msvcp110_win".?pubseekoff@?$basic_streambuf@_WU?$char_traits@_W@std@@@std@@QAE?AV?$fpos@H@2@_JHH@Z
  ?pubseekoff@?$basic_streambuf@_WU?$char_traits@_W@std@@@std@@QAE?AV?$fpos@H@2@_JII@Z="C:\Windows\SysWOW64\msvcp110_win".?pubseekoff@?$basic_streambuf@_WU?$char_traits@_W@std@@@std@@QAE?AV?$fpos@H@2@_JII@Z
  ?pubseekpos@?$basic_streambuf@DU?$char_traits@D@std@@@std@@QAE?AV?$fpos@H@2@V32@H@Z="C:\Windows\SysWOW64\msvcp110_win".?pubseekpos@?$basic_streambuf@DU?$char_traits@D@std@@@std@@QAE?AV?$fpos@H@2@V32@H@Z
  ?pubseekpos@?$basic_streambuf@DU?$char_traits@D@std@@@std@@QAE?AV?$fpos@H@2@V32@I@Z="C:\Windows\SysWOW64\msvcp110_win".?pubseekpos@?$basic_streambuf@DU?$char_traits@D@std@@@std@@QAE?AV?$fpos@H@2@V32@I@Z
  ?pubseekpos@?$basic_streambuf@GU?$char_traits@G@std@@@std@@QAE?AV?$fpos@H@2@V32@H@Z="C:\Windows\SysWOW64\msvcp110_win".?pubseekpos@?$basic_streambuf@GU?$char_traits@G@std@@@std@@QAE?AV?$fpos@H@2@V32@H@Z
  ?pubseekpos@?$basic_streambuf@GU?$char_traits@G@std@@@std@@QAE?AV?$fpos@H@2@V32@I@Z="C:\Windows\SysWOW64\msvcp110_win".?pubseekpos@?$basic_streambuf@GU?$char_traits@G@std@@@std@@QAE?AV?$fpos@H@2@V32@I@Z
  ?pubseekpos@?$basic_streambuf@_WU?$char_traits@_W@std@@@std@@QAE?AV?$fpos@H@2@V32@H@Z="C:\Windows\SysWOW64\msvcp110_win".?pubseekpos@?$basic_streambuf@_WU?$char_traits@_W@std@@@std@@QAE?AV?$fpos@H@2@V32@H@Z
  ?pubseekpos@?$basic_streambuf@_WU?$char_traits@_W@std@@@std@@QAE?AV?$fpos@H@2@V32@I@Z="C:\Windows\SysWOW64\msvcp110_win".?pubseekpos@?$basic_streambuf@_WU?$char_traits@_W@std@@@std@@QAE?AV?$fpos@H@2@V32@I@Z
  ?pubsetbuf@?$basic_streambuf@DU?$char_traits@D@std@@@std@@QAEPAV12@PAD_J@Z="C:\Windows\SysWOW64\msvcp110_win".?pubsetbuf@?$basic_streambuf@DU?$char_traits@D@std@@@std@@QAEPAV12@PAD_J@Z
  ?pubsetbuf@?$basic_streambuf@GU?$char_traits@G@std@@@std@@QAEPAV12@PAG_J@Z="C:\Windows\SysWOW64\msvcp110_win".?pubsetbuf@?$basic_streambuf@GU?$char_traits@G@std@@@std@@QAEPAV12@PAG_J@Z
  ?pubsetbuf@?$basic_streambuf@_WU?$char_traits@_W@std@@@std@@QAEPAV12@PA_W_J@Z="C:\Windows\SysWOW64\msvcp110_win".?pubsetbuf@?$basic_streambuf@_WU?$char_traits@_W@std@@@std@@QAEPAV12@PA_W_J@Z
  ?pubsync@?$basic_streambuf@DU?$char_traits@D@std@@@std@@QAEHXZ="C:\Windows\SysWOW64\msvcp110_win".?pubsync@?$basic_streambuf@DU?$char_traits@D@std@@@std@@QAEHXZ
  ?pubsync@?$basic_streambuf@GU?$char_traits@G@std@@@std@@QAEHXZ="C:\Windows\SysWOW64\msvcp110_win".?pubsync@?$basic_streambuf@GU?$char_traits@G@std@@@std@@QAEHXZ
  ?pubsync@?$basic_streambuf@_WU?$char_traits@_W@std@@@std@@QAEHXZ="C:\Windows\SysWOW64\msvcp110_win".?pubsync@?$basic_streambuf@_WU?$char_traits@_W@std@@@std@@QAEHXZ
  ?put@?$basic_ostream@DU?$char_traits@D@std@@@std@@QAEAAV12@D@Z="C:\Windows\SysWOW64\msvcp110_win".?put@?$basic_ostream@DU?$char_traits@D@std@@@std@@QAEAAV12@D@Z
  ?put@?$basic_ostream@GU?$char_traits@G@std@@@std@@QAEAAV12@G@Z="C:\Windows\SysWOW64\msvcp110_win".?put@?$basic_ostream@GU?$char_traits@G@std@@@std@@QAEAAV12@G@Z
  ?put@?$basic_ostream@_WU?$char_traits@_W@std@@@std@@QAEAAV12@_W@Z="C:\Windows\SysWOW64\msvcp110_win".?put@?$basic_ostream@_WU?$char_traits@_W@std@@@std@@QAEAAV12@_W@Z
  ?put@?$num_put@DV?$ostreambuf_iterator@DU?$char_traits@D@std@@@std@@@std@@QBE?AV?$ostreambuf_iterator@DU?$char_traits@D@std@@@2@V32@AAVios_base@2@DJ@Z="C:\Windows\SysWOW64\msvcp110_win".?put@?$num_put@DV?$ostreambuf_iterator@DU?$char_traits@D@std@@@std@@@std@@QBE?AV?$ostreambuf_iterator@DU?$char_traits@D@std@@@2@V32@AAVios_base@2@DJ@Z
  ?put@?$num_put@DV?$ostreambuf_iterator@DU?$char_traits@D@std@@@std@@@std@@QBE?AV?$ostreambuf_iterator@DU?$char_traits@D@std@@@2@V32@AAVios_base@2@DK@Z="C:\Windows\SysWOW64\msvcp110_win".?put@?$num_put@DV?$ostreambuf_iterator@DU?$char_traits@D@std@@@std@@@std@@QBE?AV?$ostreambuf_iterator@DU?$char_traits@D@std@@@2@V32@AAVios_base@2@DK@Z
  ?put@?$num_put@DV?$ostreambuf_iterator@DU?$char_traits@D@std@@@std@@@std@@QBE?AV?$ostreambuf_iterator@DU?$char_traits@D@std@@@2@V32@AAVios_base@2@DN@Z="C:\Windows\SysWOW64\msvcp110_win".?put@?$num_put@DV?$ostreambuf_iterator@DU?$char_traits@D@std@@@std@@@std@@QBE?AV?$ostreambuf_iterator@DU?$char_traits@D@std@@@2@V32@AAVios_base@2@DN@Z
  ?put@?$num_put@DV?$ostreambuf_iterator@DU?$char_traits@D@std@@@std@@@std@@QBE?AV?$ostreambuf_iterator@DU?$char_traits@D@std@@@2@V32@AAVios_base@2@DO@Z="C:\Windows\SysWOW64\msvcp110_win".?put@?$num_put@DV?$ostreambuf_iterator@DU?$char_traits@D@std@@@std@@@std@@QBE?AV?$ostreambuf_iterator@DU?$char_traits@D@std@@@2@V32@AAVios_base@2@DO@Z
  ?put@?$num_put@DV?$ostreambuf_iterator@DU?$char_traits@D@std@@@std@@@std@@QBE?AV?$ostreambuf_iterator@DU?$char_traits@D@std@@@2@V32@AAVios_base@2@DPBX@Z="C:\Windows\SysWOW64\msvcp110_win".?put@?$num_put@DV?$ostreambuf_iterator@DU?$char_traits@D@std@@@std@@@std@@QBE?AV?$ostreambuf_iterator@DU?$char_traits@D@std@@@2@V32@AAVios_base@2@DPBX@Z
  ?put@?$num_put@DV?$ostreambuf_iterator@DU?$char_traits@D@std@@@std@@@std@@QBE?AV?$ostreambuf_iterator@DU?$char_traits@D@std@@@2@V32@AAVios_base@2@D_J@Z="C:\Windows\SysWOW64\msvcp110_win".?put@?$num_put@DV?$ostreambuf_iterator@DU?$char_traits@D@std@@@std@@@std@@QBE?AV?$ostreambuf_iterator@DU?$char_traits@D@std@@@2@V32@AAVios_base@2@D_J@Z
  ?put@?$num_put@DV?$ostreambuf_iterator@DU?$char_traits@D@std@@@std@@@std@@QBE?AV?$ostreambuf_iterator@DU?$char_traits@D@std@@@2@V32@AAVios_base@2@D_K@Z="C:\Windows\SysWOW64\msvcp110_win".?put@?$num_put@DV?$ostreambuf_iterator@DU?$char_traits@D@std@@@std@@@std@@QBE?AV?$ostreambuf_iterator@DU?$char_traits@D@std@@@2@V32@AAVios_base@2@D_K@Z
  ?put@?$num_put@DV?$ostreambuf_iterator@DU?$char_traits@D@std@@@std@@@std@@QBE?AV?$ostreambuf_iterator@DU?$char_traits@D@std@@@2@V32@AAVios_base@2@D_N@Z="C:\Windows\SysWOW64\msvcp110_win".?put@?$num_put@DV?$ostreambuf_iterator@DU?$char_traits@D@std@@@std@@@std@@QBE?AV?$ostreambuf_iterator@DU?$char_traits@D@std@@@2@V32@AAVios_base@2@D_N@Z
  ?put@?$num_put@GV?$ostreambuf_iterator@GU?$char_traits@G@std@@@std@@@std@@QBE?AV?$ostreambuf_iterator@GU?$char_traits@G@std@@@2@V32@AAVios_base@2@GJ@Z="C:\Windows\SysWOW64\msvcp110_win".?put@?$num_put@GV?$ostreambuf_iterator@GU?$char_traits@G@std@@@std@@@std@@QBE?AV?$ostreambuf_iterator@GU?$char_traits@G@std@@@2@V32@AAVios_base@2@GJ@Z
  ?put@?$num_put@GV?$ostreambuf_iterator@GU?$char_traits@G@std@@@std@@@std@@QBE?AV?$ostreambuf_iterator@GU?$char_traits@G@std@@@2@V32@AAVios_base@2@GK@Z="C:\Windows\SysWOW64\msvcp110_win".?put@?$num_put@GV?$ostreambuf_iterator@GU?$char_traits@G@std@@@std@@@std@@QBE?AV?$ostreambuf_iterator@GU?$char_traits@G@std@@@2@V32@AAVios_base@2@GK@Z
  ?put@?$num_put@GV?$ostreambuf_iterator@GU?$char_traits@G@std@@@std@@@std@@QBE?AV?$ostreambuf_iterator@GU?$char_traits@G@std@@@2@V32@AAVios_base@2@GN@Z="C:\Windows\SysWOW64\msvcp110_win".?put@?$num_put@GV?$ostreambuf_iterator@GU?$char_traits@G@std@@@std@@@std@@QBE?AV?$ostreambuf_iterator@GU?$char_traits@G@std@@@2@V32@AAVios_base@2@GN@Z
  ?put@?$num_put@GV?$ostreambuf_iterator@GU?$char_traits@G@std@@@std@@@std@@QBE?AV?$ostreambuf_iterator@GU?$char_traits@G@std@@@2@V32@AAVios_base@2@GO@Z="C:\Windows\SysWOW64\msvcp110_win".?put@?$num_put@GV?$ostreambuf_iterator@GU?$char_traits@G@std@@@std@@@std@@QBE?AV?$ostreambuf_iterator@GU?$char_traits@G@std@@@2@V32@AAVios_base@2@GO@Z
  ?put@?$num_put@GV?$ostreambuf_iterator@GU?$char_traits@G@std@@@std@@@std@@QBE?AV?$ostreambuf_iterator@GU?$char_traits@G@std@@@2@V32@AAVios_base@2@GPBX@Z="C:\Windows\SysWOW64\msvcp110_win".?put@?$num_put@GV?$ostreambuf_iterator@GU?$char_traits@G@std@@@std@@@std@@QBE?AV?$ostreambuf_iterator@GU?$char_traits@G@std@@@2@V32@AAVios_base@2@GPBX@Z
  ?put@?$num_put@GV?$ostreambuf_iterator@GU?$char_traits@G@std@@@std@@@std@@QBE?AV?$ostreambuf_iterator@GU?$char_traits@G@std@@@2@V32@AAVios_base@2@G_J@Z="C:\Windows\SysWOW64\msvcp110_win".?put@?$num_put@GV?$ostreambuf_iterator@GU?$char_traits@G@std@@@std@@@std@@QBE?AV?$ostreambuf_iterator@GU?$char_traits@G@std@@@2@V32@AAVios_base@2@G_J@Z
  ?put@?$num_put@GV?$ostreambuf_iterator@GU?$char_traits@G@std@@@std@@@std@@QBE?AV?$ostreambuf_iterator@GU?$char_traits@G@std@@@2@V32@AAVios_base@2@G_K@Z="C:\Windows\SysWOW64\msvcp110_win".?put@?$num_put@GV?$ostreambuf_iterator@GU?$char_traits@G@std@@@std@@@std@@QBE?AV?$ostreambuf_iterator@GU?$char_traits@G@std@@@2@V32@AAVios_base@2@G_K@Z
  ?put@?$num_put@GV?$ostreambuf_iterator@GU?$char_traits@G@std@@@std@@@std@@QBE?AV?$ostreambuf_iterator@GU?$char_traits@G@std@@@2@V32@AAVios_base@2@G_N@Z="C:\Windows\SysWOW64\msvcp110_win".?put@?$num_put@GV?$ostreambuf_iterator@GU?$char_traits@G@std@@@std@@@std@@QBE?AV?$ostreambuf_iterator@GU?$char_traits@G@std@@@2@V32@AAVios_base@2@G_N@Z
  ?put@?$num_put@_WV?$ostreambuf_iterator@_WU?$char_traits@_W@std@@@std@@@std@@QBE?AV?$ostreambuf_iterator@_WU?$char_traits@_W@std@@@2@V32@AAVios_base@2@_WJ@Z="C:\Windows\SysWOW64\msvcp110_win".?put@?$num_put@_WV?$ostreambuf_iterator@_WU?$char_traits@_W@std@@@std@@@std@@QBE?AV?$ostreambuf_iterator@_WU?$char_traits@_W@std@@@2@V32@AAVios_base@2@_WJ@Z
  ?put@?$num_put@_WV?$ostreambuf_iterator@_WU?$char_traits@_W@std@@@std@@@std@@QBE?AV?$ostreambuf_iterator@_WU?$char_traits@_W@std@@@2@V32@AAVios_base@2@_WK@Z="C:\Windows\SysWOW64\msvcp110_win".?put@?$num_put@_WV?$ostreambuf_iterator@_WU?$char_traits@_W@std@@@std@@@std@@QBE?AV?$ostreambuf_iterator@_WU?$char_traits@_W@std@@@2@V32@AAVios_base@2@_WK@Z
  ?put@?$num_put@_WV?$ostreambuf_iterator@_WU?$char_traits@_W@std@@@std@@@std@@QBE?AV?$ostreambuf_iterator@_WU?$char_traits@_W@std@@@2@V32@AAVios_base@2@_WN@Z="C:\Windows\SysWOW64\msvcp110_win".?put@?$num_put@_WV?$ostreambuf_iterator@_WU?$char_traits@_W@std@@@std@@@std@@QBE?AV?$ostreambuf_iterator@_WU?$char_traits@_W@std@@@2@V32@AAVios_base@2@_WN@Z
  ?put@?$num_put@_WV?$ostreambuf_iterator@_WU?$char_traits@_W@std@@@std@@@std@@QBE?AV?$ostreambuf_iterator@_WU?$char_traits@_W@std@@@2@V32@AAVios_base@2@_WO@Z="C:\Windows\SysWOW64\msvcp110_win".?put@?$num_put@_WV?$ostreambuf_iterator@_WU?$char_traits@_W@std@@@std@@@std@@QBE?AV?$ostreambuf_iterator@_WU?$char_traits@_W@std@@@2@V32@AAVios_base@2@_WO@Z
  ?put@?$num_put@_WV?$ostreambuf_iterator@_WU?$char_traits@_W@std@@@std@@@std@@QBE?AV?$ostreambuf_iterator@_WU?$char_traits@_W@std@@@2@V32@AAVios_base@2@_WPBX@Z="C:\Windows\SysWOW64\msvcp110_win".?put@?$num_put@_WV?$ostreambuf_iterator@_WU?$char_traits@_W@std@@@std@@@std@@QBE?AV?$ostreambuf_iterator@_WU?$char_traits@_W@std@@@2@V32@AAVios_base@2@_WPBX@Z
  ?put@?$num_put@_WV?$ostreambuf_iterator@_WU?$char_traits@_W@std@@@std@@@std@@QBE?AV?$ostreambuf_iterator@_WU?$char_traits@_W@std@@@2@V32@AAVios_base@2@_W_J@Z="C:\Windows\SysWOW64\msvcp110_win".?put@?$num_put@_WV?$ostreambuf_iterator@_WU?$char_traits@_W@std@@@std@@@std@@QBE?AV?$ostreambuf_iterator@_WU?$char_traits@_W@std@@@2@V32@AAVios_base@2@_W_J@Z
  ?put@?$num_put@_WV?$ostreambuf_iterator@_WU?$char_traits@_W@std@@@std@@@std@@QBE?AV?$ostreambuf_iterator@_WU?$char_traits@_W@std@@@2@V32@AAVios_base@2@_W_K@Z="C:\Windows\SysWOW64\msvcp110_win".?put@?$num_put@_WV?$ostreambuf_iterator@_WU?$char_traits@_W@std@@@std@@@std@@QBE?AV?$ostreambuf_iterator@_WU?$char_traits@_W@std@@@2@V32@AAVios_base@2@_W_K@Z
  ?put@?$num_put@_WV?$ostreambuf_iterator@_WU?$char_traits@_W@std@@@std@@@std@@QBE?AV?$ostreambuf_iterator@_WU?$char_traits@_W@std@@@2@V32@AAVios_base@2@_W_N@Z="C:\Windows\SysWOW64\msvcp110_win".?put@?$num_put@_WV?$ostreambuf_iterator@_WU?$char_traits@_W@std@@@std@@@std@@QBE?AV?$ostreambuf_iterator@_WU?$char_traits@_W@std@@@2@V32@AAVios_base@2@_W_N@Z
  ?put@?$time_put@DV?$ostreambuf_iterator@DU?$char_traits@D@std@@@std@@@std@@QBE?AV?$ostreambuf_iterator@DU?$char_traits@D@std@@@2@V32@AAVios_base@2@DPBUtm@@DD@Z="C:\Windows\SysWOW64\msvcp110_win".?put@?$time_put@DV?$ostreambuf_iterator@DU?$char_traits@D@std@@@std@@@std@@QBE?AV?$ostreambuf_iterator@DU?$char_traits@D@std@@@2@V32@AAVios_base@2@DPBUtm@@DD@Z
  ?put@?$time_put@DV?$ostreambuf_iterator@DU?$char_traits@D@std@@@std@@@std@@QBE?AV?$ostreambuf_iterator@DU?$char_traits@D@std@@@2@V32@AAVios_base@2@DPBUtm@@PBD3@Z="C:\Windows\SysWOW64\msvcp110_win".?put@?$time_put@DV?$ostreambuf_iterator@DU?$char_traits@D@std@@@std@@@std@@QBE?AV?$ostreambuf_iterator@DU?$char_traits@D@std@@@2@V32@AAVios_base@2@DPBUtm@@PBD3@Z
  ?put@?$time_put@GV?$ostreambuf_iterator@GU?$char_traits@G@std@@@std@@@std@@QBE?AV?$ostreambuf_iterator@GU?$char_traits@G@std@@@2@V32@AAVios_base@2@GPBUtm@@DD@Z="C:\Windows\SysWOW64\msvcp110_win".?put@?$time_put@GV?$ostreambuf_iterator@GU?$char_traits@G@std@@@std@@@std@@QBE?AV?$ostreambuf_iterator@GU?$char_traits@G@std@@@2@V32@AAVios_base@2@GPBUtm@@DD@Z
  ?put@?$time_put@GV?$ostreambuf_iterator@GU?$char_traits@G@std@@@std@@@std@@QBE?AV?$ostreambuf_iterator@GU?$char_traits@G@std@@@2@V32@AAVios_base@2@GPBUtm@@PBG3@Z="C:\Windows\SysWOW64\msvcp110_win".?put@?$time_put@GV?$ostreambuf_iterator@GU?$char_traits@G@std@@@std@@@std@@QBE?AV?$ostreambuf_iterator@GU?$char_traits@G@std@@@2@V32@AAVios_base@2@GPBUtm@@PBG3@Z
  ?put@?$time_put@_WV?$ostreambuf_iterator@_WU?$char_traits@_W@std@@@std@@@std@@QBE?AV?$ostreambuf_iterator@_WU?$char_traits@_W@std@@@2@V32@AAVios_base@2@_WPBUtm@@DD@Z="C:\Windows\SysWOW64\msvcp110_win".?put@?$time_put@_WV?$ostreambuf_iterator@_WU?$char_traits@_W@std@@@std@@@std@@QBE?AV?$ostreambuf_iterator@_WU?$char_traits@_W@std@@@2@V32@AAVios_base@2@_WPBUtm@@DD@Z
  ?put@?$time_put@_WV?$ostreambuf_iterator@_WU?$char_traits@_W@std@@@std@@@std@@QBE?AV?$ostreambuf_iterator@_WU?$char_traits@_W@std@@@2@V32@AAVios_base@2@_WPBUtm@@PB_W4@Z="C:\Windows\SysWOW64\msvcp110_win".?put@?$time_put@_WV?$ostreambuf_iterator@_WU?$char_traits@_W@std@@@std@@@std@@QBE?AV?$ostreambuf_iterator@_WU?$char_traits@_W@std@@@2@V32@AAVios_base@2@_WPBUtm@@PB_W4@Z
  ?putback@?$basic_istream@DU?$char_traits@D@std@@@std@@QAEAAV12@D@Z="C:\Windows\SysWOW64\msvcp110_win".?putback@?$basic_istream@DU?$char_traits@D@std@@@std@@QAEAAV12@D@Z
  ?putback@?$basic_istream@GU?$char_traits@G@std@@@std@@QAEAAV12@G@Z="C:\Windows\SysWOW64\msvcp110_win".?putback@?$basic_istream@GU?$char_traits@G@std@@@std@@QAEAAV12@G@Z
  ?putback@?$basic_istream@_WU?$char_traits@_W@std@@@std@@QAEAAV12@_W@Z="C:\Windows\SysWOW64\msvcp110_win".?putback@?$basic_istream@_WU?$char_traits@_W@std@@@std@@QAEAAV12@_W@Z
  ?pword@ios_base@std@@QAEAAPAXH@Z="C:\Windows\SysWOW64\msvcp110_win".?pword@ios_base@std@@QAEAAPAXH@Z
  ?rdbuf@?$basic_ios@DU?$char_traits@D@std@@@std@@QAEPAV?$basic_streambuf@DU?$char_traits@D@std@@@2@PAV32@@Z="C:\Windows\SysWOW64\msvcp110_win".?rdbuf@?$basic_ios@DU?$char_traits@D@std@@@std@@QAEPAV?$basic_streambuf@DU?$char_traits@D@std@@@2@PAV32@@Z
  ?rdbuf@?$basic_ios@DU?$char_traits@D@std@@@std@@QBEPAV?$basic_streambuf@DU?$char_traits@D@std@@@2@XZ="C:\Windows\SysWOW64\msvcp110_win".?rdbuf@?$basic_ios@DU?$char_traits@D@std@@@std@@QBEPAV?$basic_streambuf@DU?$char_traits@D@std@@@2@XZ
  ?rdbuf@?$basic_ios@GU?$char_traits@G@std@@@std@@QAEPAV?$basic_streambuf@GU?$char_traits@G@std@@@2@PAV32@@Z="C:\Windows\SysWOW64\msvcp110_win".?rdbuf@?$basic_ios@GU?$char_traits@G@std@@@std@@QAEPAV?$basic_streambuf@GU?$char_traits@G@std@@@2@PAV32@@Z
  ?rdbuf@?$basic_ios@GU?$char_traits@G@std@@@std@@QBEPAV?$basic_streambuf@GU?$char_traits@G@std@@@2@XZ="C:\Windows\SysWOW64\msvcp110_win".?rdbuf@?$basic_ios@GU?$char_traits@G@std@@@std@@QBEPAV?$basic_streambuf@GU?$char_traits@G@std@@@2@XZ
  ?rdbuf@?$basic_ios@_WU?$char_traits@_W@std@@@std@@QAEPAV?$basic_streambuf@_WU?$char_traits@_W@std@@@2@PAV32@@Z="C:\Windows\SysWOW64\msvcp110_win".?rdbuf@?$basic_ios@_WU?$char_traits@_W@std@@@std@@QAEPAV?$basic_streambuf@_WU?$char_traits@_W@std@@@2@PAV32@@Z
  ?rdbuf@?$basic_ios@_WU?$char_traits@_W@std@@@std@@QBEPAV?$basic_streambuf@_WU?$char_traits@_W@std@@@2@XZ="C:\Windows\SysWOW64\msvcp110_win".?rdbuf@?$basic_ios@_WU?$char_traits@_W@std@@@std@@QBEPAV?$basic_streambuf@_WU?$char_traits@_W@std@@@2@XZ
  ?rdstate@ios_base@std@@QBEHXZ="C:\Windows\SysWOW64\msvcp110_win".?rdstate@ios_base@std@@QBEHXZ
  ?read@?$basic_istream@DU?$char_traits@D@std@@@std@@QAEAAV12@PAD_J@Z="C:\Windows\SysWOW64\msvcp110_win".?read@?$basic_istream@DU?$char_traits@D@std@@@std@@QAEAAV12@PAD_J@Z
  ?read@?$basic_istream@GU?$char_traits@G@std@@@std@@QAEAAV12@PAG_J@Z="C:\Windows\SysWOW64\msvcp110_win".?read@?$basic_istream@GU?$char_traits@G@std@@@std@@QAEAAV12@PAG_J@Z
  ?read@?$basic_istream@_WU?$char_traits@_W@std@@@std@@QAEAAV12@PA_W_J@Z="C:\Windows\SysWOW64\msvcp110_win".?read@?$basic_istream@_WU?$char_traits@_W@std@@@std@@QAEAAV12@PA_W_J@Z
  ?readsome@?$basic_istream@DU?$char_traits@D@std@@@std@@QAE_JPAD_J@Z="C:\Windows\SysWOW64\msvcp110_win".?readsome@?$basic_istream@DU?$char_traits@D@std@@@std@@QAE_JPAD_J@Z
  ?readsome@?$basic_istream@GU?$char_traits@G@std@@@std@@QAE_JPAG_J@Z="C:\Windows\SysWOW64\msvcp110_win".?readsome@?$basic_istream@GU?$char_traits@G@std@@@std@@QAE_JPAG_J@Z
  ?readsome@?$basic_istream@_WU?$char_traits@_W@std@@@std@@QAE_JPA_W_J@Z="C:\Windows\SysWOW64\msvcp110_win".?readsome@?$basic_istream@_WU?$char_traits@_W@std@@@std@@QAE_JPA_W_J@Z
  ?register_callback@ios_base@std@@QAEXP6AXW4event@12@AAV12@H@ZH@Z="C:\Windows\SysWOW64\msvcp110_win".?register_callback@ios_base@std@@QAEXP6AXW4event@12@AAV12@H@ZH@Z
  ?resetiosflags@std@@YA?AU?$_Smanip@H@1@H@Z="C:\Windows\SysWOW64\msvcp110_win".?resetiosflags@std@@YA?AU?$_Smanip@H@1@H@Z
  ?sbumpc@?$basic_streambuf@DU?$char_traits@D@std@@@std@@QAEHXZ="C:\Windows\SysWOW64\msvcp110_win".?sbumpc@?$basic_streambuf@DU?$char_traits@D@std@@@std@@QAEHXZ
  ?sbumpc@?$basic_streambuf@GU?$char_traits@G@std@@@std@@QAEGXZ="C:\Windows\SysWOW64\msvcp110_win".?sbumpc@?$basic_streambuf@GU?$char_traits@G@std@@@std@@QAEGXZ
  ?sbumpc@?$basic_streambuf@_WU?$char_traits@_W@std@@@std@@QAEGXZ="C:\Windows\SysWOW64\msvcp110_win".?sbumpc@?$basic_streambuf@_WU?$char_traits@_W@std@@@std@@QAEGXZ
  ?scan_is@?$ctype@D@std@@QBEPBDFPBD0@Z="C:\Windows\SysWOW64\msvcp110_win".?scan_is@?$ctype@D@std@@QBEPBDFPBD0@Z
  ?scan_is@?$ctype@G@std@@QBEPBGFPBG0@Z="C:\Windows\SysWOW64\msvcp110_win".?scan_is@?$ctype@G@std@@QBEPBGFPBG0@Z
  ?scan_is@?$ctype@_W@std@@QBEPB_WFPB_W0@Z="C:\Windows\SysWOW64\msvcp110_win".?scan_is@?$ctype@_W@std@@QBEPB_WFPB_W0@Z
  ?scan_not@?$ctype@D@std@@QBEPBDFPBD0@Z="C:\Windows\SysWOW64\msvcp110_win".?scan_not@?$ctype@D@std@@QBEPBDFPBD0@Z
  ?scan_not@?$ctype@G@std@@QBEPBGFPBG0@Z="C:\Windows\SysWOW64\msvcp110_win".?scan_not@?$ctype@G@std@@QBEPBGFPBG0@Z
  ?scan_not@?$ctype@_W@std@@QBEPB_WFPB_W0@Z="C:\Windows\SysWOW64\msvcp110_win".?scan_not@?$ctype@_W@std@@QBEPB_WFPB_W0@Z
  ?seekg@?$basic_istream@DU?$char_traits@D@std@@@std@@QAEAAV12@V?$fpos@H@2@@Z="C:\Windows\SysWOW64\msvcp110_win".?seekg@?$basic_istream@DU?$char_traits@D@std@@@std@@QAEAAV12@V?$fpos@H@2@@Z
  ?seekg@?$basic_istream@DU?$char_traits@D@std@@@std@@QAEAAV12@_JH@Z="C:\Windows\SysWOW64\msvcp110_win".?seekg@?$basic_istream@DU?$char_traits@D@std@@@std@@QAEAAV12@_JH@Z
  ?seekg@?$basic_istream@GU?$char_traits@G@std@@@std@@QAEAAV12@V?$fpos@H@2@@Z="C:\Windows\SysWOW64\msvcp110_win".?seekg@?$basic_istream@GU?$char_traits@G@std@@@std@@QAEAAV12@V?$fpos@H@2@@Z
  ?seekg@?$basic_istream@GU?$char_traits@G@std@@@std@@QAEAAV12@_JH@Z="C:\Windows\SysWOW64\msvcp110_win".?seekg@?$basic_istream@GU?$char_traits@G@std@@@std@@QAEAAV12@_JH@Z
  ?seekg@?$basic_istream@_WU?$char_traits@_W@std@@@std@@QAEAAV12@V?$fpos@H@2@@Z="C:\Windows\SysWOW64\msvcp110_win".?seekg@?$basic_istream@_WU?$char_traits@_W@std@@@std@@QAEAAV12@V?$fpos@H@2@@Z
  ?seekg@?$basic_istream@_WU?$char_traits@_W@std@@@std@@QAEAAV12@_JH@Z="C:\Windows\SysWOW64\msvcp110_win".?seekg@?$basic_istream@_WU?$char_traits@_W@std@@@std@@QAEAAV12@_JH@Z
  ?seekoff@?$basic_streambuf@DU?$char_traits@D@std@@@std@@MAE?AV?$fpos@H@2@_JHH@Z="C:\Windows\SysWOW64\msvcp110_win".?seekoff@?$basic_streambuf@DU?$char_traits@D@std@@@std@@MAE?AV?$fpos@H@2@_JHH@Z
  ?seekoff@?$basic_streambuf@GU?$char_traits@G@std@@@std@@MAE?AV?$fpos@H@2@_JHH@Z="C:\Windows\SysWOW64\msvcp110_win".?seekoff@?$basic_streambuf@GU?$char_traits@G@std@@@std@@MAE?AV?$fpos@H@2@_JHH@Z
  ?seekoff@?$basic_streambuf@_WU?$char_traits@_W@std@@@std@@MAE?AV?$fpos@H@2@_JHH@Z="C:\Windows\SysWOW64\msvcp110_win".?seekoff@?$basic_streambuf@_WU?$char_traits@_W@std@@@std@@MAE?AV?$fpos@H@2@_JHH@Z
  ?seekp@?$basic_ostream@DU?$char_traits@D@std@@@std@@QAEAAV12@V?$fpos@H@2@@Z="C:\Windows\SysWOW64\msvcp110_win".?seekp@?$basic_ostream@DU?$char_traits@D@std@@@std@@QAEAAV12@V?$fpos@H@2@@Z
  ?seekp@?$basic_ostream@DU?$char_traits@D@std@@@std@@QAEAAV12@_JH@Z="C:\Windows\SysWOW64\msvcp110_win".?seekp@?$basic_ostream@DU?$char_traits@D@std@@@std@@QAEAAV12@_JH@Z
  ?seekp@?$basic_ostream@GU?$char_traits@G@std@@@std@@QAEAAV12@V?$fpos@H@2@@Z="C:\Windows\SysWOW64\msvcp110_win".?seekp@?$basic_ostream@GU?$char_traits@G@std@@@std@@QAEAAV12@V?$fpos@H@2@@Z
  ?seekp@?$basic_ostream@GU?$char_traits@G@std@@@std@@QAEAAV12@_JH@Z="C:\Windows\SysWOW64\msvcp110_win".?seekp@?$basic_ostream@GU?$char_traits@G@std@@@std@@QAEAAV12@_JH@Z
  ?seekp@?$basic_ostream@_WU?$char_traits@_W@std@@@std@@QAEAAV12@V?$fpos@H@2@@Z="C:\Windows\SysWOW64\msvcp110_win".?seekp@?$basic_ostream@_WU?$char_traits@_W@std@@@std@@QAEAAV12@V?$fpos@H@2@@Z
  ?seekp@?$basic_ostream@_WU?$char_traits@_W@std@@@std@@QAEAAV12@_JH@Z="C:\Windows\SysWOW64\msvcp110_win".?seekp@?$basic_ostream@_WU?$char_traits@_W@std@@@std@@QAEAAV12@_JH@Z
  ?seekpos@?$basic_streambuf@DU?$char_traits@D@std@@@std@@MAE?AV?$fpos@H@2@V32@H@Z="C:\Windows\SysWOW64\msvcp110_win".?seekpos@?$basic_streambuf@DU?$char_traits@D@std@@@std@@MAE?AV?$fpos@H@2@V32@H@Z
  ?seekpos@?$basic_streambuf@GU?$char_traits@G@std@@@std@@MAE?AV?$fpos@H@2@V32@H@Z="C:\Windows\SysWOW64\msvcp110_win".?seekpos@?$basic_streambuf@GU?$char_traits@G@std@@@std@@MAE?AV?$fpos@H@2@V32@H@Z
  ?seekpos@?$basic_streambuf@_WU?$char_traits@_W@std@@@std@@MAE?AV?$fpos@H@2@V32@H@Z="C:\Windows\SysWOW64\msvcp110_win".?seekpos@?$basic_streambuf@_WU?$char_traits@_W@std@@@std@@MAE?AV?$fpos@H@2@V32@H@Z
  ?set_new_handler@std@@YAP6AXXZP6AXXZ@Z="C:\Windows\SysWOW64\msvcp110_win".?set_new_handler@std@@YAP6AXXZP6AXXZ@Z
  ?set_rdbuf@?$basic_ios@DU?$char_traits@D@std@@@std@@QAEXPAV?$basic_streambuf@DU?$char_traits@D@std@@@2@@Z="C:\Windows\SysWOW64\msvcp110_win".?set_rdbuf@?$basic_ios@DU?$char_traits@D@std@@@std@@QAEXPAV?$basic_streambuf@DU?$char_traits@D@std@@@2@@Z
  ?set_rdbuf@?$basic_ios@GU?$char_traits@G@std@@@std@@QAEXPAV?$basic_streambuf@GU?$char_traits@G@std@@@2@@Z="C:\Windows\SysWOW64\msvcp110_win".?set_rdbuf@?$basic_ios@GU?$char_traits@G@std@@@std@@QAEXPAV?$basic_streambuf@GU?$char_traits@G@std@@@2@@Z
  ?set_rdbuf@?$basic_ios@_WU?$char_traits@_W@std@@@std@@QAEXPAV?$basic_streambuf@_WU?$char_traits@_W@std@@@2@@Z="C:\Windows\SysWOW64\msvcp110_win".?set_rdbuf@?$basic_ios@_WU?$char_traits@_W@std@@@std@@QAEXPAV?$basic_streambuf@_WU?$char_traits@_W@std@@@2@@Z
  ?setbase@std@@YA?AU?$_Smanip@H@1@H@Z="C:\Windows\SysWOW64\msvcp110_win".?setbase@std@@YA?AU?$_Smanip@H@1@H@Z
  ?setbuf@?$basic_streambuf@DU?$char_traits@D@std@@@std@@MAEPAV12@PAD_J@Z="C:\Windows\SysWOW64\msvcp110_win".?setbuf@?$basic_streambuf@DU?$char_traits@D@std@@@std@@MAEPAV12@PAD_J@Z
  ?setbuf@?$basic_streambuf@GU?$char_traits@G@std@@@std@@MAEPAV12@PAG_J@Z="C:\Windows\SysWOW64\msvcp110_win".?setbuf@?$basic_streambuf@GU?$char_traits@G@std@@@std@@MAEPAV12@PAG_J@Z
  ?setbuf@?$basic_streambuf@_WU?$char_traits@_W@std@@@std@@MAEPAV12@PA_W_J@Z="C:\Windows\SysWOW64\msvcp110_win".?setbuf@?$basic_streambuf@_WU?$char_traits@_W@std@@@std@@MAEPAV12@PA_W_J@Z
  ?setf@ios_base@std@@QAEHH@Z="C:\Windows\SysWOW64\msvcp110_win".?setf@ios_base@std@@QAEHH@Z
  ?setf@ios_base@std@@QAEHHH@Z="C:\Windows\SysWOW64\msvcp110_win".?setf@ios_base@std@@QAEHHH@Z
  ?setg@?$basic_streambuf@DU?$char_traits@D@std@@@std@@IAEXPAD00@Z="C:\Windows\SysWOW64\msvcp110_win".?setg@?$basic_streambuf@DU?$char_traits@D@std@@@std@@IAEXPAD00@Z
  ?setg@?$basic_streambuf@GU?$char_traits@G@std@@@std@@IAEXPAG00@Z="C:\Windows\SysWOW64\msvcp110_win".?setg@?$basic_streambuf@GU?$char_traits@G@std@@@std@@IAEXPAG00@Z
  ?setg@?$basic_streambuf@_WU?$char_traits@_W@std@@@std@@IAEXPA_W00@Z="C:\Windows\SysWOW64\msvcp110_win".?setg@?$basic_streambuf@_WU?$char_traits@_W@std@@@std@@IAEXPA_W00@Z
  ?setiosflags@std@@YA?AU?$_Smanip@H@1@H@Z="C:\Windows\SysWOW64\msvcp110_win".?setiosflags@std@@YA?AU?$_Smanip@H@1@H@Z
  ?setp@?$basic_streambuf@DU?$char_traits@D@std@@@std@@IAEXPAD00@Z="C:\Windows\SysWOW64\msvcp110_win".?setp@?$basic_streambuf@DU?$char_traits@D@std@@@std@@IAEXPAD00@Z
  ?setp@?$basic_streambuf@DU?$char_traits@D@std@@@std@@IAEXPAD0@Z="C:\Windows\SysWOW64\msvcp110_win".?setp@?$basic_streambuf@DU?$char_traits@D@std@@@std@@IAEXPAD0@Z
  ?setp@?$basic_streambuf@GU?$char_traits@G@std@@@std@@IAEXPAG00@Z="C:\Windows\SysWOW64\msvcp110_win".?setp@?$basic_streambuf@GU?$char_traits@G@std@@@std@@IAEXPAG00@Z
  ?setp@?$basic_streambuf@GU?$char_traits@G@std@@@std@@IAEXPAG0@Z="C:\Windows\SysWOW64\msvcp110_win".?setp@?$basic_streambuf@GU?$char_traits@G@std@@@std@@IAEXPAG0@Z
  ?setp@?$basic_streambuf@_WU?$char_traits@_W@std@@@std@@IAEXPA_W00@Z="C:\Windows\SysWOW64\msvcp110_win".?setp@?$basic_streambuf@_WU?$char_traits@_W@std@@@std@@IAEXPA_W00@Z
  ?setp@?$basic_streambuf@_WU?$char_traits@_W@std@@@std@@IAEXPA_W0@Z="C:\Windows\SysWOW64\msvcp110_win".?setp@?$basic_streambuf@_WU?$char_traits@_W@std@@@std@@IAEXPA_W0@Z
  ?setprecision@std@@YA?AU?$_Smanip@_J@1@_J@Z="C:\Windows\SysWOW64\msvcp110_win".?setprecision@std@@YA?AU?$_Smanip@_J@1@_J@Z
  ?setstate@?$basic_ios@DU?$char_traits@D@std@@@std@@QAEXH_N@Z="C:\Windows\SysWOW64\msvcp110_win".?setstate@?$basic_ios@DU?$char_traits@D@std@@@std@@QAEXH_N@Z
  ?setstate@?$basic_ios@DU?$char_traits@D@std@@@std@@QAEXI@Z="C:\Windows\SysWOW64\msvcp110_win".?setstate@?$basic_ios@DU?$char_traits@D@std@@@std@@QAEXI@Z
  ?setstate@?$basic_ios@GU?$char_traits@G@std@@@std@@QAEXH_N@Z="C:\Windows\SysWOW64\msvcp110_win".?setstate@?$basic_ios@GU?$char_traits@G@std@@@std@@QAEXH_N@Z
  ?setstate@?$basic_ios@GU?$char_traits@G@std@@@std@@QAEXI@Z="C:\Windows\SysWOW64\msvcp110_win".?setstate@?$basic_ios@GU?$char_traits@G@std@@@std@@QAEXI@Z
  ?setstate@?$basic_ios@_WU?$char_traits@_W@std@@@std@@QAEXH_N@Z="C:\Windows\SysWOW64\msvcp110_win".?setstate@?$basic_ios@_WU?$char_traits@_W@std@@@std@@QAEXH_N@Z
  ?setstate@?$basic_ios@_WU?$char_traits@_W@std@@@std@@QAEXI@Z="C:\Windows\SysWOW64\msvcp110_win".?setstate@?$basic_ios@_WU?$char_traits@_W@std@@@std@@QAEXI@Z
  ?setstate@ios_base@std@@QAEXH@Z="C:\Windows\SysWOW64\msvcp110_win".?setstate@ios_base@std@@QAEXH@Z
  ?setstate@ios_base@std@@QAEXH_N@Z="C:\Windows\SysWOW64\msvcp110_win".?setstate@ios_base@std@@QAEXH_N@Z
  ?setstate@ios_base@std@@QAEXI@Z="C:\Windows\SysWOW64\msvcp110_win".?setstate@ios_base@std@@QAEXI@Z
  ?setw@std@@YA?AU?$_Smanip@_J@1@_J@Z="C:\Windows\SysWOW64\msvcp110_win".?setw@std@@YA?AU?$_Smanip@_J@1@_J@Z
  ?sgetc@?$basic_streambuf@DU?$char_traits@D@std@@@std@@QAEHXZ="C:\Windows\SysWOW64\msvcp110_win".?sgetc@?$basic_streambuf@DU?$char_traits@D@std@@@std@@QAEHXZ
  ?sgetc@?$basic_streambuf@GU?$char_traits@G@std@@@std@@QAEGXZ="C:\Windows\SysWOW64\msvcp110_win".?sgetc@?$basic_streambuf@GU?$char_traits@G@std@@@std@@QAEGXZ
  ?sgetc@?$basic_streambuf@_WU?$char_traits@_W@std@@@std@@QAEGXZ="C:\Windows\SysWOW64\msvcp110_win".?sgetc@?$basic_streambuf@_WU?$char_traits@_W@std@@@std@@QAEGXZ
  ?sgetn@?$basic_streambuf@DU?$char_traits@D@std@@@std@@QAE_JPAD_J@Z="C:\Windows\SysWOW64\msvcp110_win".?sgetn@?$basic_streambuf@DU?$char_traits@D@std@@@std@@QAE_JPAD_J@Z
  ?sgetn@?$basic_streambuf@GU?$char_traits@G@std@@@std@@QAE_JPAG_J@Z="C:\Windows\SysWOW64\msvcp110_win".?sgetn@?$basic_streambuf@GU?$char_traits@G@std@@@std@@QAE_JPAG_J@Z
  ?sgetn@?$basic_streambuf@_WU?$char_traits@_W@std@@@std@@QAE_JPA_W_J@Z="C:\Windows\SysWOW64\msvcp110_win".?sgetn@?$basic_streambuf@_WU?$char_traits@_W@std@@@std@@QAE_JPA_W_J@Z
  ?showmanyc@?$basic_streambuf@DU?$char_traits@D@std@@@std@@MAE_JXZ="C:\Windows\SysWOW64\msvcp110_win".?showmanyc@?$basic_streambuf@DU?$char_traits@D@std@@@std@@MAE_JXZ
  ?showmanyc@?$basic_streambuf@GU?$char_traits@G@std@@@std@@MAE_JXZ="C:\Windows\SysWOW64\msvcp110_win".?showmanyc@?$basic_streambuf@GU?$char_traits@G@std@@@std@@MAE_JXZ
  ?showmanyc@?$basic_streambuf@_WU?$char_traits@_W@std@@@std@@MAE_JXZ="C:\Windows\SysWOW64\msvcp110_win".?showmanyc@?$basic_streambuf@_WU?$char_traits@_W@std@@@std@@MAE_JXZ
  ?snextc@?$basic_streambuf@DU?$char_traits@D@std@@@std@@QAEHXZ="C:\Windows\SysWOW64\msvcp110_win".?snextc@?$basic_streambuf@DU?$char_traits@D@std@@@std@@QAEHXZ
  ?snextc@?$basic_streambuf@GU?$char_traits@G@std@@@std@@QAEGXZ="C:\Windows\SysWOW64\msvcp110_win".?snextc@?$basic_streambuf@GU?$char_traits@G@std@@@std@@QAEGXZ
  ?snextc@?$basic_streambuf@_WU?$char_traits@_W@std@@@std@@QAEGXZ="C:\Windows\SysWOW64\msvcp110_win".?snextc@?$basic_streambuf@_WU?$char_traits@_W@std@@@std@@QAEGXZ
  ?sputbackc@?$basic_streambuf@DU?$char_traits@D@std@@@std@@QAEHD@Z="C:\Windows\SysWOW64\msvcp110_win".?sputbackc@?$basic_streambuf@DU?$char_traits@D@std@@@std@@QAEHD@Z
  ?sputbackc@?$basic_streambuf@GU?$char_traits@G@std@@@std@@QAEGG@Z="C:\Windows\SysWOW64\msvcp110_win".?sputbackc@?$basic_streambuf@GU?$char_traits@G@std@@@std@@QAEGG@Z
  ?sputbackc@?$basic_streambuf@_WU?$char_traits@_W@std@@@std@@QAEG_W@Z="C:\Windows\SysWOW64\msvcp110_win".?sputbackc@?$basic_streambuf@_WU?$char_traits@_W@std@@@std@@QAEG_W@Z
  ?sputc@?$basic_streambuf@DU?$char_traits@D@std@@@std@@QAEHD@Z="C:\Windows\SysWOW64\msvcp110_win".?sputc@?$basic_streambuf@DU?$char_traits@D@std@@@std@@QAEHD@Z
  ?sputc@?$basic_streambuf@GU?$char_traits@G@std@@@std@@QAEGG@Z="C:\Windows\SysWOW64\msvcp110_win".?sputc@?$basic_streambuf@GU?$char_traits@G@std@@@std@@QAEGG@Z
  ?sputc@?$basic_streambuf@_WU?$char_traits@_W@std@@@std@@QAEG_W@Z="C:\Windows\SysWOW64\msvcp110_win".?sputc@?$basic_streambuf@_WU?$char_traits@_W@std@@@std@@QAEG_W@Z
  ?sputn@?$basic_streambuf@DU?$char_traits@D@std@@@std@@QAE_JPBD_J@Z="C:\Windows\SysWOW64\msvcp110_win".?sputn@?$basic_streambuf@DU?$char_traits@D@std@@@std@@QAE_JPBD_J@Z
  ?sputn@?$basic_streambuf@GU?$char_traits@G@std@@@std@@QAE_JPBG_J@Z="C:\Windows\SysWOW64\msvcp110_win".?sputn@?$basic_streambuf@GU?$char_traits@G@std@@@std@@QAE_JPBG_J@Z
  ?sputn@?$basic_streambuf@_WU?$char_traits@_W@std@@@std@@QAE_JPB_W_J@Z="C:\Windows\SysWOW64\msvcp110_win".?sputn@?$basic_streambuf@_WU?$char_traits@_W@std@@@std@@QAE_JPB_W_J@Z
  ?stossc@?$basic_streambuf@DU?$char_traits@D@std@@@std@@QAEXXZ="C:\Windows\SysWOW64\msvcp110_win".?stossc@?$basic_streambuf@DU?$char_traits@D@std@@@std@@QAEXXZ
  ?stossc@?$basic_streambuf@GU?$char_traits@G@std@@@std@@QAEXXZ="C:\Windows\SysWOW64\msvcp110_win".?stossc@?$basic_streambuf@GU?$char_traits@G@std@@@std@@QAEXXZ
  ?stossc@?$basic_streambuf@_WU?$char_traits@_W@std@@@std@@QAEXXZ="C:\Windows\SysWOW64\msvcp110_win".?stossc@?$basic_streambuf@_WU?$char_traits@_W@std@@@std@@QAEXXZ
  ?sungetc@?$basic_streambuf@DU?$char_traits@D@std@@@std@@QAEHXZ="C:\Windows\SysWOW64\msvcp110_win".?sungetc@?$basic_streambuf@DU?$char_traits@D@std@@@std@@QAEHXZ
  ?sungetc@?$basic_streambuf@GU?$char_traits@G@std@@@std@@QAEGXZ="C:\Windows\SysWOW64\msvcp110_win".?sungetc@?$basic_streambuf@GU?$char_traits@G@std@@@std@@QAEGXZ
  ?sungetc@?$basic_streambuf@_WU?$char_traits@_W@std@@@std@@QAEGXZ="C:\Windows\SysWOW64\msvcp110_win".?sungetc@?$basic_streambuf@_WU?$char_traits@_W@std@@@std@@QAEGXZ
  ?swap@?$basic_ios@DU?$char_traits@D@std@@@std@@QAEXAAV12@@Z="C:\Windows\SysWOW64\msvcp110_win".?swap@?$basic_ios@DU?$char_traits@D@std@@@std@@QAEXAAV12@@Z
  ?swap@?$basic_ios@GU?$char_traits@G@std@@@std@@QAEXAAV12@@Z="C:\Windows\SysWOW64\msvcp110_win".?swap@?$basic_ios@GU?$char_traits@G@std@@@std@@QAEXAAV12@@Z
  ?swap@?$basic_ios@_WU?$char_traits@_W@std@@@std@@QAEXAAV12@@Z="C:\Windows\SysWOW64\msvcp110_win".?swap@?$basic_ios@_WU?$char_traits@_W@std@@@std@@QAEXAAV12@@Z
  ?swap@?$basic_iostream@DU?$char_traits@D@std@@@std@@IAEXAAV12@@Z="C:\Windows\SysWOW64\msvcp110_win".?swap@?$basic_iostream@DU?$char_traits@D@std@@@std@@IAEXAAV12@@Z
  ?swap@?$basic_iostream@GU?$char_traits@G@std@@@std@@IAEXAAV12@@Z="C:\Windows\SysWOW64\msvcp110_win".?swap@?$basic_iostream@GU?$char_traits@G@std@@@std@@IAEXAAV12@@Z
  ?swap@?$basic_iostream@_WU?$char_traits@_W@std@@@std@@IAEXAAV12@@Z="C:\Windows\SysWOW64\msvcp110_win".?swap@?$basic_iostream@_WU?$char_traits@_W@std@@@std@@IAEXAAV12@@Z
  ?swap@?$basic_istream@DU?$char_traits@D@std@@@std@@IAEXAAV12@@Z="C:\Windows\SysWOW64\msvcp110_win".?swap@?$basic_istream@DU?$char_traits@D@std@@@std@@IAEXAAV12@@Z
  ?swap@?$basic_istream@GU?$char_traits@G@std@@@std@@IAEXAAV12@@Z="C:\Windows\SysWOW64\msvcp110_win".?swap@?$basic_istream@GU?$char_traits@G@std@@@std@@IAEXAAV12@@Z
  ?swap@?$basic_istream@_WU?$char_traits@_W@std@@@std@@IAEXAAV12@@Z="C:\Windows\SysWOW64\msvcp110_win".?swap@?$basic_istream@_WU?$char_traits@_W@std@@@std@@IAEXAAV12@@Z
  ?swap@?$basic_ostream@DU?$char_traits@D@std@@@std@@IAEXAAV12@@Z="C:\Windows\SysWOW64\msvcp110_win".?swap@?$basic_ostream@DU?$char_traits@D@std@@@std@@IAEXAAV12@@Z
  ?swap@?$basic_ostream@GU?$char_traits@G@std@@@std@@IAEXAAV12@@Z="C:\Windows\SysWOW64\msvcp110_win".?swap@?$basic_ostream@GU?$char_traits@G@std@@@std@@IAEXAAV12@@Z
  ?swap@?$basic_ostream@_WU?$char_traits@_W@std@@@std@@IAEXAAV12@@Z="C:\Windows\SysWOW64\msvcp110_win".?swap@?$basic_ostream@_WU?$char_traits@_W@std@@@std@@IAEXAAV12@@Z
  ?swap@?$basic_streambuf@DU?$char_traits@D@std@@@std@@IAEXAAV12@@Z="C:\Windows\SysWOW64\msvcp110_win".?swap@?$basic_streambuf@DU?$char_traits@D@std@@@std@@IAEXAAV12@@Z
  ?swap@?$basic_streambuf@GU?$char_traits@G@std@@@std@@IAEXAAV12@@Z="C:\Windows\SysWOW64\msvcp110_win".?swap@?$basic_streambuf@GU?$char_traits@G@std@@@std@@IAEXAAV12@@Z
  ?swap@?$basic_streambuf@_WU?$char_traits@_W@std@@@std@@IAEXAAV12@@Z="C:\Windows\SysWOW64\msvcp110_win".?swap@?$basic_streambuf@_WU?$char_traits@_W@std@@@std@@IAEXAAV12@@Z
  ?swap@ios_base@std@@QAEXAAV12@@Z="C:\Windows\SysWOW64\msvcp110_win".?swap@ios_base@std@@QAEXAAV12@@Z
  ?sync@?$basic_istream@DU?$char_traits@D@std@@@std@@QAEHXZ="C:\Windows\SysWOW64\msvcp110_win".?sync@?$basic_istream@DU?$char_traits@D@std@@@std@@QAEHXZ
  ?sync@?$basic_istream@GU?$char_traits@G@std@@@std@@QAEHXZ="C:\Windows\SysWOW64\msvcp110_win".?sync@?$basic_istream@GU?$char_traits@G@std@@@std@@QAEHXZ
  ?sync@?$basic_istream@_WU?$char_traits@_W@std@@@std@@QAEHXZ="C:\Windows\SysWOW64\msvcp110_win".?sync@?$basic_istream@_WU?$char_traits@_W@std@@@std@@QAEHXZ
  ?sync@?$basic_streambuf@DU?$char_traits@D@std@@@std@@MAEHXZ="C:\Windows\SysWOW64\msvcp110_win".?sync@?$basic_streambuf@DU?$char_traits@D@std@@@std@@MAEHXZ
  ?sync@?$basic_streambuf@GU?$char_traits@G@std@@@std@@MAEHXZ="C:\Windows\SysWOW64\msvcp110_win".?sync@?$basic_streambuf@GU?$char_traits@G@std@@@std@@MAEHXZ
  ?sync@?$basic_streambuf@_WU?$char_traits@_W@std@@@std@@MAEHXZ="C:\Windows\SysWOW64\msvcp110_win".?sync@?$basic_streambuf@_WU?$char_traits@_W@std@@@std@@MAEHXZ
  ?sync_with_stdio@ios_base@std@@SA_N_N@Z="C:\Windows\SysWOW64\msvcp110_win".?sync_with_stdio@ios_base@std@@SA_N_N@Z
  ?table@?$ctype@D@std@@QBEPBFXZ="C:\Windows\SysWOW64\msvcp110_win".?table@?$ctype@D@std@@QBEPBFXZ
  ?table_size@?$ctype@D@std@@2IB="C:\Windows\SysWOW64\msvcp110_win".?table_size@?$ctype@D@std@@2IB
  ?tellg@?$basic_istream@DU?$char_traits@D@std@@@std@@QAE?AV?$fpos@H@2@XZ="C:\Windows\SysWOW64\msvcp110_win".?tellg@?$basic_istream@DU?$char_traits@D@std@@@std@@QAE?AV?$fpos@H@2@XZ
  ?tellg@?$basic_istream@GU?$char_traits@G@std@@@std@@QAE?AV?$fpos@H@2@XZ="C:\Windows\SysWOW64\msvcp110_win".?tellg@?$basic_istream@GU?$char_traits@G@std@@@std@@QAE?AV?$fpos@H@2@XZ
  ?tellg@?$basic_istream@_WU?$char_traits@_W@std@@@std@@QAE?AV?$fpos@H@2@XZ="C:\Windows\SysWOW64\msvcp110_win".?tellg@?$basic_istream@_WU?$char_traits@_W@std@@@std@@QAE?AV?$fpos@H@2@XZ
  ?tellp@?$basic_ostream@DU?$char_traits@D@std@@@std@@QAE?AV?$fpos@H@2@XZ="C:\Windows\SysWOW64\msvcp110_win".?tellp@?$basic_ostream@DU?$char_traits@D@std@@@std@@QAE?AV?$fpos@H@2@XZ
  ?tellp@?$basic_ostream@GU?$char_traits@G@std@@@std@@QAE?AV?$fpos@H@2@XZ="C:\Windows\SysWOW64\msvcp110_win".?tellp@?$basic_ostream@GU?$char_traits@G@std@@@std@@QAE?AV?$fpos@H@2@XZ
  ?tellp@?$basic_ostream@_WU?$char_traits@_W@std@@@std@@QAE?AV?$fpos@H@2@XZ="C:\Windows\SysWOW64\msvcp110_win".?tellp@?$basic_ostream@_WU?$char_traits@_W@std@@@std@@QAE?AV?$fpos@H@2@XZ
  ?tie@?$basic_ios@DU?$char_traits@D@std@@@std@@QAEPAV?$basic_ostream@DU?$char_traits@D@std@@@2@PAV32@@Z="C:\Windows\SysWOW64\msvcp110_win".?tie@?$basic_ios@DU?$char_traits@D@std@@@std@@QAEPAV?$basic_ostream@DU?$char_traits@D@std@@@2@PAV32@@Z
  ?tie@?$basic_ios@DU?$char_traits@D@std@@@std@@QBEPAV?$basic_ostream@DU?$char_traits@D@std@@@2@XZ="C:\Windows\SysWOW64\msvcp110_win".?tie@?$basic_ios@DU?$char_traits@D@std@@@std@@QBEPAV?$basic_ostream@DU?$char_traits@D@std@@@2@XZ
  ?tie@?$basic_ios@GU?$char_traits@G@std@@@std@@QAEPAV?$basic_ostream@GU?$char_traits@G@std@@@2@PAV32@@Z="C:\Windows\SysWOW64\msvcp110_win".?tie@?$basic_ios@GU?$char_traits@G@std@@@std@@QAEPAV?$basic_ostream@GU?$char_traits@G@std@@@2@PAV32@@Z
  ?tie@?$basic_ios@GU?$char_traits@G@std@@@std@@QBEPAV?$basic_ostream@GU?$char_traits@G@std@@@2@XZ="C:\Windows\SysWOW64\msvcp110_win".?tie@?$basic_ios@GU?$char_traits@G@std@@@std@@QBEPAV?$basic_ostream@GU?$char_traits@G@std@@@2@XZ
  ?tie@?$basic_ios@_WU?$char_traits@_W@std@@@std@@QAEPAV?$basic_ostream@_WU?$char_traits@_W@std@@@2@PAV32@@Z="C:\Windows\SysWOW64\msvcp110_win".?tie@?$basic_ios@_WU?$char_traits@_W@std@@@std@@QAEPAV?$basic_ostream@_WU?$char_traits@_W@std@@@2@PAV32@@Z
  ?tie@?$basic_ios@_WU?$char_traits@_W@std@@@std@@QBEPAV?$basic_ostream@_WU?$char_traits@_W@std@@@2@XZ="C:\Windows\SysWOW64\msvcp110_win".?tie@?$basic_ios@_WU?$char_traits@_W@std@@@std@@QBEPAV?$basic_ostream@_WU?$char_traits@_W@std@@@2@XZ
  ?tolower@?$ctype@D@std@@QBEDD@Z="C:\Windows\SysWOW64\msvcp110_win".?tolower@?$ctype@D@std@@QBEDD@Z
  ?tolower@?$ctype@D@std@@QBEPBDPADPBD@Z="C:\Windows\SysWOW64\msvcp110_win".?tolower@?$ctype@D@std@@QBEPBDPADPBD@Z
  ?tolower@?$ctype@G@std@@QBEGG@Z="C:\Windows\SysWOW64\msvcp110_win".?tolower@?$ctype@G@std@@QBEGG@Z
  ?tolower@?$ctype@G@std@@QBEPBGPAGPBG@Z="C:\Windows\SysWOW64\msvcp110_win".?tolower@?$ctype@G@std@@QBEPBGPAGPBG@Z
  ?tolower@?$ctype@_W@std@@QBEPB_WPA_WPB_W@Z="C:\Windows\SysWOW64\msvcp110_win".?tolower@?$ctype@_W@std@@QBEPB_WPA_WPB_W@Z
  ?tolower@?$ctype@_W@std@@QBE_W_W@Z="C:\Windows\SysWOW64\msvcp110_win".?tolower@?$ctype@_W@std@@QBE_W_W@Z
  ?toupper@?$ctype@D@std@@QBEDD@Z="C:\Windows\SysWOW64\msvcp110_win".?toupper@?$ctype@D@std@@QBEDD@Z
  ?toupper@?$ctype@D@std@@QBEPBDPADPBD@Z="C:\Windows\SysWOW64\msvcp110_win".?toupper@?$ctype@D@std@@QBEPBDPADPBD@Z
  ?toupper@?$ctype@G@std@@QBEGG@Z="C:\Windows\SysWOW64\msvcp110_win".?toupper@?$ctype@G@std@@QBEGG@Z
  ?toupper@?$ctype@G@std@@QBEPBGPAGPBG@Z="C:\Windows\SysWOW64\msvcp110_win".?toupper@?$ctype@G@std@@QBEPBGPAGPBG@Z
  ?toupper@?$ctype@_W@std@@QBEPB_WPA_WPB_W@Z="C:\Windows\SysWOW64\msvcp110_win".?toupper@?$ctype@_W@std@@QBEPB_WPA_WPB_W@Z
  ?toupper@?$ctype@_W@std@@QBE_W_W@Z="C:\Windows\SysWOW64\msvcp110_win".?toupper@?$ctype@_W@std@@QBE_W_W@Z
  ?try_to_lock@std@@3Utry_to_lock_t@1@B="C:\Windows\SysWOW64\msvcp110_win".?try_to_lock@std@@3Utry_to_lock_t@1@B
  ?uflow@?$basic_streambuf@DU?$char_traits@D@std@@@std@@MAEHXZ="C:\Windows\SysWOW64\msvcp110_win".?uflow@?$basic_streambuf@DU?$char_traits@D@std@@@std@@MAEHXZ
  ?uflow@?$basic_streambuf@GU?$char_traits@G@std@@@std@@MAEGXZ="C:\Windows\SysWOW64\msvcp110_win".?uflow@?$basic_streambuf@GU?$char_traits@G@std@@@std@@MAEGXZ
  ?uflow@?$basic_streambuf@_WU?$char_traits@_W@std@@@std@@MAEGXZ="C:\Windows\SysWOW64\msvcp110_win".?uflow@?$basic_streambuf@_WU?$char_traits@_W@std@@@std@@MAEGXZ
  ?uncaught_exception@std@@YA_NXZ="C:\Windows\SysWOW64\msvcp110_win".?uncaught_exception@std@@YA_NXZ
  ?underflow@?$basic_streambuf@DU?$char_traits@D@std@@@std@@MAEHXZ="C:\Windows\SysWOW64\msvcp110_win".?underflow@?$basic_streambuf@DU?$char_traits@D@std@@@std@@MAEHXZ
  ?underflow@?$basic_streambuf@GU?$char_traits@G@std@@@std@@MAEGXZ="C:\Windows\SysWOW64\msvcp110_win".?underflow@?$basic_streambuf@GU?$char_traits@G@std@@@std@@MAEGXZ
  ?underflow@?$basic_streambuf@_WU?$char_traits@_W@std@@@std@@MAEGXZ="C:\Windows\SysWOW64\msvcp110_win".?underflow@?$basic_streambuf@_WU?$char_traits@_W@std@@@std@@MAEGXZ
  ?unget@?$basic_istream@DU?$char_traits@D@std@@@std@@QAEAAV12@XZ="C:\Windows\SysWOW64\msvcp110_win".?unget@?$basic_istream@DU?$char_traits@D@std@@@std@@QAEAAV12@XZ
  ?unget@?$basic_istream@GU?$char_traits@G@std@@@std@@QAEAAV12@XZ="C:\Windows\SysWOW64\msvcp110_win".?unget@?$basic_istream@GU?$char_traits@G@std@@@std@@QAEAAV12@XZ
  ?unget@?$basic_istream@_WU?$char_traits@_W@std@@@std@@QAEAAV12@XZ="C:\Windows\SysWOW64\msvcp110_win".?unget@?$basic_istream@_WU?$char_traits@_W@std@@@std@@QAEAAV12@XZ
  ?unsetf@ios_base@std@@QAEXH@Z="C:\Windows\SysWOW64\msvcp110_win".?unsetf@ios_base@std@@QAEXH@Z
  ?unshift@?$codecvt@DDH@std@@QBEHAAHPAD1AAPAD@Z="C:\Windows\SysWOW64\msvcp110_win".?unshift@?$codecvt@DDH@std@@QBEHAAHPAD1AAPAD@Z
  ?unshift@?$codecvt@GDH@std@@QBEHAAHPAD1AAPAD@Z="C:\Windows\SysWOW64\msvcp110_win".?unshift@?$codecvt@GDH@std@@QBEHAAHPAD1AAPAD@Z
  ?unshift@?$codecvt@_SDH@std@@QBEHAAHPAD1AAPAD@Z="C:\Windows\SysWOW64\msvcp110_win".?unshift@?$codecvt@_SDH@std@@QBEHAAHPAD1AAPAD@Z
  ?unshift@?$codecvt@_UDH@std@@QBEHAAHPAD1AAPAD@Z="C:\Windows\SysWOW64\msvcp110_win".?unshift@?$codecvt@_UDH@std@@QBEHAAHPAD1AAPAD@Z
  ?unshift@?$codecvt@_WDH@std@@QBEHAAHPAD1AAPAD@Z="C:\Windows\SysWOW64\msvcp110_win".?unshift@?$codecvt@_WDH@std@@QBEHAAHPAD1AAPAD@Z
  ?wcerr@std@@3V?$basic_ostream@GU?$char_traits@G@std@@@1@A="C:\Windows\SysWOW64\msvcp110_win".?wcerr@std@@3V?$basic_ostream@GU?$char_traits@G@std@@@1@A
  ?wcerr@std@@3V?$basic_ostream@_WU?$char_traits@_W@std@@@1@A="C:\Windows\SysWOW64\msvcp110_win".?wcerr@std@@3V?$basic_ostream@_WU?$char_traits@_W@std@@@1@A
  ?wcin@std@@3V?$basic_istream@GU?$char_traits@G@std@@@1@A="C:\Windows\SysWOW64\msvcp110_win".?wcin@std@@3V?$basic_istream@GU?$char_traits@G@std@@@1@A
  ?wcin@std@@3V?$basic_istream@_WU?$char_traits@_W@std@@@1@A="C:\Windows\SysWOW64\msvcp110_win".?wcin@std@@3V?$basic_istream@_WU?$char_traits@_W@std@@@1@A
  ?wclog@std@@3V?$basic_ostream@GU?$char_traits@G@std@@@1@A="C:\Windows\SysWOW64\msvcp110_win".?wclog@std@@3V?$basic_ostream@GU?$char_traits@G@std@@@1@A
  ?wclog@std@@3V?$basic_ostream@_WU?$char_traits@_W@std@@@1@A="C:\Windows\SysWOW64\msvcp110_win".?wclog@std@@3V?$basic_ostream@_WU?$char_traits@_W@std@@@1@A
  ?wcout@std@@3V?$basic_ostream@GU?$char_traits@G@std@@@1@A="C:\Windows\SysWOW64\msvcp110_win".?wcout@std@@3V?$basic_ostream@GU?$char_traits@G@std@@@1@A
  ?wcout@std@@3V?$basic_ostream@_WU?$char_traits@_W@std@@@1@A="C:\Windows\SysWOW64\msvcp110_win".?wcout@std@@3V?$basic_ostream@_WU?$char_traits@_W@std@@@1@A
  ?widen@?$basic_ios@DU?$char_traits@D@std@@@std@@QBEDD@Z="C:\Windows\SysWOW64\msvcp110_win".?widen@?$basic_ios@DU?$char_traits@D@std@@@std@@QBEDD@Z
  ?widen@?$basic_ios@GU?$char_traits@G@std@@@std@@QBEGD@Z="C:\Windows\SysWOW64\msvcp110_win".?widen@?$basic_ios@GU?$char_traits@G@std@@@std@@QBEGD@Z
  ?widen@?$basic_ios@_WU?$char_traits@_W@std@@@std@@QBE_WD@Z="C:\Windows\SysWOW64\msvcp110_win".?widen@?$basic_ios@_WU?$char_traits@_W@std@@@std@@QBE_WD@Z
  ?widen@?$ctype@D@std@@QBEDD@Z="C:\Windows\SysWOW64\msvcp110_win".?widen@?$ctype@D@std@@QBEDD@Z
  ?widen@?$ctype@D@std@@QBEPBDPBD0PAD@Z="C:\Windows\SysWOW64\msvcp110_win".?widen@?$ctype@D@std@@QBEPBDPBD0PAD@Z
  ?widen@?$ctype@G@std@@QBEGD@Z="C:\Windows\SysWOW64\msvcp110_win".?widen@?$ctype@G@std@@QBEGD@Z
  ?widen@?$ctype@G@std@@QBEPBDPBD0PAG@Z="C:\Windows\SysWOW64\msvcp110_win".?widen@?$ctype@G@std@@QBEPBDPBD0PAG@Z
  ?widen@?$ctype@_W@std@@QBEPBDPBD0PA_W@Z="C:\Windows\SysWOW64\msvcp110_win".?widen@?$ctype@_W@std@@QBEPBDPBD0PA_W@Z
  ?widen@?$ctype@_W@std@@QBE_WD@Z="C:\Windows\SysWOW64\msvcp110_win".?widen@?$ctype@_W@std@@QBE_WD@Z
  ?width@ios_base@std@@QAE_J_J@Z="C:\Windows\SysWOW64\msvcp110_win".?width@ios_base@std@@QAE_J_J@Z
  ?width@ios_base@std@@QBE_JXZ="C:\Windows\SysWOW64\msvcp110_win".?width@ios_base@std@@QBE_JXZ
  ?write@?$basic_ostream@DU?$char_traits@D@std@@@std@@QAEAAV12@PBD_J@Z="C:\Windows\SysWOW64\msvcp110_win".?write@?$basic_ostream@DU?$char_traits@D@std@@@std@@QAEAAV12@PBD_J@Z
  ?write@?$basic_ostream@GU?$char_traits@G@std@@@std@@QAEAAV12@PBG_J@Z="C:\Windows\SysWOW64\msvcp110_win".?write@?$basic_ostream@GU?$char_traits@G@std@@@std@@QAEAAV12@PBG_J@Z
  ?write@?$basic_ostream@_WU?$char_traits@_W@std@@@std@@QAEAAV12@PB_W_J@Z="C:\Windows\SysWOW64\msvcp110_win".?write@?$basic_ostream@_WU?$char_traits@_W@std@@@std@@QAEAAV12@PB_W_J@Z
  ?ws@std@@YAAAV?$basic_istream@DU?$char_traits@D@std@@@1@AAV21@@Z="C:\Windows\SysWOW64\msvcp110_win".?ws@std@@YAAAV?$basic_istream@DU?$char_traits@D@std@@@1@AAV21@@Z
  ?ws@std@@YAAAV?$basic_istream@GU?$char_traits@G@std@@@1@AAV21@@Z="C:\Windows\SysWOW64\msvcp110_win".?ws@std@@YAAAV?$basic_istream@GU?$char_traits@G@std@@@1@AAV21@@Z
  ?ws@std@@YAAAV?$basic_istream@_WU?$char_traits@_W@std@@@1@AAV21@@Z="C:\Windows\SysWOW64\msvcp110_win".?ws@std@@YAAAV?$basic_istream@_WU?$char_traits@_W@std@@@1@AAV21@@Z
  ?xalloc@ios_base@std@@SAHXZ="C:\Windows\SysWOW64\msvcp110_win".?xalloc@ios_base@std@@SAHXZ
  ?xsgetn@?$basic_streambuf@DU?$char_traits@D@std@@@std@@MAE_JPAD_J@Z="C:\Windows\SysWOW64\msvcp110_win".?xsgetn@?$basic_streambuf@DU?$char_traits@D@std@@@std@@MAE_JPAD_J@Z
  ?xsgetn@?$basic_streambuf@GU?$char_traits@G@std@@@std@@MAE_JPAG_J@Z="C:\Windows\SysWOW64\msvcp110_win".?xsgetn@?$basic_streambuf@GU?$char_traits@G@std@@@std@@MAE_JPAG_J@Z
  ?xsgetn@?$basic_streambuf@_WU?$char_traits@_W@std@@@std@@MAE_JPA_W_J@Z="C:\Windows\SysWOW64\msvcp110_win".?xsgetn@?$basic_streambuf@_WU?$char_traits@_W@std@@@std@@MAE_JPA_W_J@Z
  ?xsputn@?$basic_streambuf@DU?$char_traits@D@std@@@std@@MAE_JPBD_J@Z="C:\Windows\SysWOW64\msvcp110_win".?xsputn@?$basic_streambuf@DU?$char_traits@D@std@@@std@@MAE_JPBD_J@Z
  ?xsputn@?$basic_streambuf@GU?$char_traits@G@std@@@std@@MAE_JPBG_J@Z="C:\Windows\SysWOW64\msvcp110_win".?xsputn@?$basic_streambuf@GU?$char_traits@G@std@@@std@@MAE_JPBG_J@Z
  ?xsputn@?$basic_streambuf@_WU?$char_traits@_W@std@@@std@@MAE_JPB_W_J@Z="C:\Windows\SysWOW64\msvcp110_win".?xsputn@?$basic_streambuf@_WU?$char_traits@_W@std@@@std@@MAE_JPB_W_J@Z
  _Cosh="C:\Windows\SysWOW64\msvcp110_win"._Cosh
  _Denorm="C:\Windows\SysWOW64\msvcp110_win"._Denorm
  _Dint="C:\Windows\SysWOW64\msvcp110_win"._Dint
  _Dnorm="C:\Windows\SysWOW64\msvcp110_win"._Dnorm
  _Do_call="C:\Windows\SysWOW64\msvcp110_win"._Do_call
  _Dscale="C:\Windows\SysWOW64\msvcp110_win"._Dscale
  _Dtento="C:\Windows\SysWOW64\msvcp110_win"._Dtento
  _Dtest="C:\Windows\SysWOW64\msvcp110_win"._Dtest
  _Dunscale="C:\Windows\SysWOW64\msvcp110_win"._Dunscale
  _Eps="C:\Windows\SysWOW64\msvcp110_win"._Eps
  _Exp="C:\Windows\SysWOW64\msvcp110_win"._Exp
  _FCosh="C:\Windows\SysWOW64\msvcp110_win"._FCosh
  _FDenorm="C:\Windows\SysWOW64\msvcp110_win"._FDenorm
  _FDint="C:\Windows\SysWOW64\msvcp110_win"._FDint
  _FDnorm="C:\Windows\SysWOW64\msvcp110_win"._FDnorm
  _FDscale="C:\Windows\SysWOW64\msvcp110_win"._FDscale
  _FDtento="C:\Windows\SysWOW64\msvcp110_win"._FDtento
  _FDtest="C:\Windows\SysWOW64\msvcp110_win"._FDtest
  _FDunscale="C:\Windows\SysWOW64\msvcp110_win"._FDunscale
  _FEps="C:\Windows\SysWOW64\msvcp110_win"._FEps
  _FExp="C:\Windows\SysWOW64\msvcp110_win"._FExp
  _FInf="C:\Windows\SysWOW64\msvcp110_win"._FInf
  _FNan="C:\Windows\SysWOW64\msvcp110_win"._FNan
  _FRteps="C:\Windows\SysWOW64\msvcp110_win"._FRteps
  _FSinh="C:\Windows\SysWOW64\msvcp110_win"._FSinh
  _FSnan="C:\Windows\SysWOW64\msvcp110_win"._FSnan
  _FXbig="C:\Windows\SysWOW64\msvcp110_win"._FXbig
  _FXp_addh="C:\Windows\SysWOW64\msvcp110_win"._FXp_addh
  _FXp_addx="C:\Windows\SysWOW64\msvcp110_win"._FXp_addx
  _FXp_getw="C:\Windows\SysWOW64\msvcp110_win"._FXp_getw
  _FXp_invx="C:\Windows\SysWOW64\msvcp110_win"._FXp_invx
  _FXp_ldexpx="C:\Windows\SysWOW64\msvcp110_win"._FXp_ldexpx
  _FXp_movx="C:\Windows\SysWOW64\msvcp110_win"._FXp_movx
  _FXp_mulh="C:\Windows\SysWOW64\msvcp110_win"._FXp_mulh
  _FXp_mulx="C:\Windows\SysWOW64\msvcp110_win"._FXp_mulx
  _FXp_setn="C:\Windows\SysWOW64\msvcp110_win"._FXp_setn
  _FXp_setw="C:\Windows\SysWOW64\msvcp110_win"._FXp_setw
  _FXp_sqrtx="C:\Windows\SysWOW64\msvcp110_win"._FXp_sqrtx
  _FXp_subx="C:\Windows\SysWOW64\msvcp110_win"._FXp_subx
  _FZero="C:\Windows\SysWOW64\msvcp110_win"._FZero
  _Getcoll="C:\Windows\SysWOW64\msvcp110_win"._Getcoll
  _Getctype="C:\Windows\SysWOW64\msvcp110_win"._Getctype
  _Getcvt="C:\Windows\SysWOW64\msvcp110_win"._Getcvt
  _Getdateorder="C:\Windows\SysWOW64\msvcp110_win"._Getdateorder
  _Getwctype="C:\Windows\SysWOW64\msvcp110_win"._Getwctype
  _Getwctypes="C:\Windows\SysWOW64\msvcp110_win"._Getwctypes
  _Hugeval="C:\Windows\SysWOW64\msvcp110_win"._Hugeval
  _Inf="C:\Windows\SysWOW64\msvcp110_win"._Inf
  _LCosh="C:\Windows\SysWOW64\msvcp110_win"._LCosh
  _LDenorm="C:\Windows\SysWOW64\msvcp110_win"._LDenorm
  _LDint="C:\Windows\SysWOW64\msvcp110_win"._LDint
  _LDscale="C:\Windows\SysWOW64\msvcp110_win"._LDscale
  _LDtento="C:\Windows\SysWOW64\msvcp110_win"._LDtento
  _LDtest="C:\Windows\SysWOW64\msvcp110_win"._LDtest
  _LDunscale="C:\Windows\SysWOW64\msvcp110_win"._LDunscale
  _LEps="C:\Windows\SysWOW64\msvcp110_win"._LEps
  _LExp="C:\Windows\SysWOW64\msvcp110_win"._LExp
  _LInf="C:\Windows\SysWOW64\msvcp110_win"._LInf
  _LNan="C:\Windows\SysWOW64\msvcp110_win"._LNan
  _LPoly="C:\Windows\SysWOW64\msvcp110_win"._LPoly
  _LRteps="C:\Windows\SysWOW64\msvcp110_win"._LRteps
  _LSinh="C:\Windows\SysWOW64\msvcp110_win"._LSinh
  _LSnan="C:\Windows\SysWOW64\msvcp110_win"._LSnan
  _LXbig="C:\Windows\SysWOW64\msvcp110_win"._LXbig
  _LXp_addh="C:\Windows\SysWOW64\msvcp110_win"._LXp_addh
  _LXp_addx="C:\Windows\SysWOW64\msvcp110_win"._LXp_addx
  _LXp_getw="C:\Windows\SysWOW64\msvcp110_win"._LXp_getw
  _LXp_invx="C:\Windows\SysWOW64\msvcp110_win"._LXp_invx
  _LXp_ldexpx="C:\Windows\SysWOW64\msvcp110_win"._LXp_ldexpx
  _LXp_movx="C:\Windows\SysWOW64\msvcp110_win"._LXp_movx
  _LXp_mulh="C:\Windows\SysWOW64\msvcp110_win"._LXp_mulh
  _LXp_mulx="C:\Windows\SysWOW64\msvcp110_win"._LXp_mulx
  _LXp_setn="C:\Windows\SysWOW64\msvcp110_win"._LXp_setn
  _LXp_setw="C:\Windows\SysWOW64\msvcp110_win"._LXp_setw
  _LXp_sqrtx="C:\Windows\SysWOW64\msvcp110_win"._LXp_sqrtx
  _LXp_subx="C:\Windows\SysWOW64\msvcp110_win"._LXp_subx
  _LZero="C:\Windows\SysWOW64\msvcp110_win"._LZero
  _Lock_shared_ptr_spin_lock="C:\Windows\SysWOW64\msvcp110_win"._Lock_shared_ptr_spin_lock
  _Mbrtowc="C:\Windows\SysWOW64\msvcp110_win"._Mbrtowc
  _Mtxdst="C:\Windows\SysWOW64\msvcp110_win"._Mtxdst
  _Mtxinit="C:\Windows\SysWOW64\msvcp110_win"._Mtxinit
  _Mtxlock="C:\Windows\SysWOW64\msvcp110_win"._Mtxlock
  _Mtxunlock="C:\Windows\SysWOW64\msvcp110_win"._Mtxunlock
  _Nan="C:\Windows\SysWOW64\msvcp110_win"._Nan
  _Once="C:\Windows\SysWOW64\msvcp110_win"._Once
  _Poly="C:\Windows\SysWOW64\msvcp110_win"._Poly
  _Rteps="C:\Windows\SysWOW64\msvcp110_win"._Rteps
  _Sinh="C:\Windows\SysWOW64\msvcp110_win"._Sinh
  _Snan="C:\Windows\SysWOW64\msvcp110_win"._Snan
  _Stod="C:\Windows\SysWOW64\msvcp110_win"._Stod
  _Stodx="C:\Windows\SysWOW64\msvcp110_win"._Stodx
  _Stof="C:\Windows\SysWOW64\msvcp110_win"._Stof
  _Stoflt="C:\Windows\SysWOW64\msvcp110_win"._Stoflt
  _Stofx="C:\Windows\SysWOW64\msvcp110_win"._Stofx
  _Stold="C:\Windows\SysWOW64\msvcp110_win"._Stold
  _Stoldx="C:\Windows\SysWOW64\msvcp110_win"._Stoldx
  _Stoll="C:\Windows\SysWOW64\msvcp110_win"._Stoll
  _Stollx="C:\Windows\SysWOW64\msvcp110_win"._Stollx
  _Stolx="C:\Windows\SysWOW64\msvcp110_win"._Stolx
  _Stopfx="C:\Windows\SysWOW64\msvcp110_win"._Stopfx
  _Stoul="C:\Windows\SysWOW64\msvcp110_win"._Stoul
  _Stoull="C:\Windows\SysWOW64\msvcp110_win"._Stoull
  _Stoullx="C:\Windows\SysWOW64\msvcp110_win"._Stoullx
  _Stoulx="C:\Windows\SysWOW64\msvcp110_win"._Stoulx
  _Stoxflt="C:\Windows\SysWOW64\msvcp110_win"._Stoxflt
  _Strcoll="C:\Windows\SysWOW64\msvcp110_win"._Strcoll
  _Strxfrm="C:\Windows\SysWOW64\msvcp110_win"._Strxfrm
  _Tolower="C:\Windows\SysWOW64\msvcp110_win"._Tolower
  _Toupper="C:\Windows\SysWOW64\msvcp110_win"._Toupper
  _Towlower="C:\Windows\SysWOW64\msvcp110_win"._Towlower
  _Towupper="C:\Windows\SysWOW64\msvcp110_win"._Towupper
  _Unlock_shared_ptr_spin_lock="C:\Windows\SysWOW64\msvcp110_win"._Unlock_shared_ptr_spin_lock
  _WStod="C:\Windows\SysWOW64\msvcp110_win"._WStod
  _WStodx="C:\Windows\SysWOW64\msvcp110_win"._WStodx
  _WStof="C:\Windows\SysWOW64\msvcp110_win"._WStof
  _WStoflt="C:\Windows\SysWOW64\msvcp110_win"._WStoflt
  _WStofx="C:\Windows\SysWOW64\msvcp110_win"._WStofx
  _WStold="C:\Windows\SysWOW64\msvcp110_win"._WStold
  _WStoldx="C:\Windows\SysWOW64\msvcp110_win"._WStoldx
  _WStopfx="C:\Windows\SysWOW64\msvcp110_win"._WStopfx
  _WStoxflt="C:\Windows\SysWOW64\msvcp110_win"._WStoxflt
  _Wcrtomb="C:\Windows\SysWOW64\msvcp110_win"._Wcrtomb
  _Wcscoll="C:\Windows\SysWOW64\msvcp110_win"._Wcscoll
  _Wcsxfrm="C:\Windows\SysWOW64\msvcp110_win"._Wcsxfrm
  _Xbig="C:\Windows\SysWOW64\msvcp110_win"._Xbig
  _Xp_addh="C:\Windows\SysWOW64\msvcp110_win"._Xp_addh
  _Xp_addx="C:\Windows\SysWOW64\msvcp110_win"._Xp_addx
  _Xp_getw="C:\Windows\SysWOW64\msvcp110_win"._Xp_getw
  _Xp_invx="C:\Windows\SysWOW64\msvcp110_win"._Xp_invx
  _Xp_ldexpx="C:\Windows\SysWOW64\msvcp110_win"._Xp_ldexpx
  _Xp_movx="C:\Windows\SysWOW64\msvcp110_win"._Xp_movx
  _Xp_mulh="C:\Windows\SysWOW64\msvcp110_win"._Xp_mulh
  _Xp_mulx="C:\Windows\SysWOW64\msvcp110_win"._Xp_mulx
  _Xp_setn="C:\Windows\SysWOW64\msvcp110_win"._Xp_setn
  _Xp_setw="C:\Windows\SysWOW64\msvcp110_win"._Xp_setw
  _Xp_sqrtx="C:\Windows\SysWOW64\msvcp110_win"._Xp_sqrtx
  _Xp_subx="C:\Windows\SysWOW64\msvcp110_win"._Xp_subx
  _Zero="C:\Windows\SysWOW64\msvcp110_win"._Zero
  __Wcrtomb_lk="C:\Windows\SysWOW64\msvcp110_win".__Wcrtomb_lk
  towctrans="C:\Windows\SysWOW64\msvcp110_win".towctrans
  wctrans="C:\Windows\SysWOW64\msvcp110_win".wctrans
  wctype="C:\Windows\SysWOW64\msvcp110_win".wctype
