EXPORTS
  ??0PrimProcessor@@QAE@XZ="C:\Windows\SysWOW64\rgb9rast".??0PrimProcessor@@QAE@XZ
  ??1PrimProcessor@@QAE@XZ="C:\Windows\SysWOW64\rgb9rast".??1PrimProcessor@@QAE@XZ
  ??4PrimProcessor@@QAEAAV0@ABV0@@Z="C:\Windows\SysWOW64\rgb9rast".??4PrimProcessor@@QAEAAV0@ABV0@@Z
  ?AllocSpans@PrimProcessor@@QAEJPAIPAPAUtagD3DI_RASTSPAN@@@Z="C:\Windows\SysWOW64\rgb9rast".?AllocSpans@PrimProcessor@@QAEJPAIPAPAUtagD3DI_RASTSPAN@@@Z
  ?AppendPrim@PrimProcessor@@AAEJXZ="C:\Windows\SysWOW64\rgb9rast".?AppendPrim@PrimProcessor@@AAEJXZ
  ?Begin@PrimProcessor@@QAEXXZ="C:\Windows\SysWOW64\rgb9rast".?Begin@PrimProcessor@@QAEXXZ
  ?BeginPrimSet@PrimProcessor@@QAEXW4_D3DPRIMITIVETYPE@@W4_RAST_VERTEX_TYPE@@@Z="C:\Windows\SysWOW64\rgb9rast".?BeginPrimSet@PrimProcessor@@QAEXW4_D3DPRIMITIVETYPE@@W4_RAST_VERTEX_TYPE@@@Z
  ?ClrFlags@PrimProcessor@@QAEXI@Z="C:\Windows\SysWOW64\rgb9rast".?ClrFlags@PrimProcessor@@QAEXI@Z
  ?End@PrimProcessor@@QAEJXZ="C:\Windows\SysWOW64\rgb9rast".?End@PrimProcessor@@QAEJXZ
  ?FillPointSpan@PrimProcessor@@AAEXPAU_D3DTLVERTEX@@PAUtagD3DI_RASTSPAN@@@Z="C:\Windows\SysWOW64\rgb9rast".?FillPointSpan@PrimProcessor@@AAEXPAU_D3DTLVERTEX@@PAUtagD3DI_RASTSPAN@@@Z
  ?Flush@PrimProcessor@@AAEJXZ="C:\Windows\SysWOW64\rgb9rast".?Flush@PrimProcessor@@AAEJXZ
  ?FlushPartial@PrimProcessor@@AAEJXZ="C:\Windows\SysWOW64\rgb9rast".?FlushPartial@PrimProcessor@@AAEJXZ
  ?FreeSpans@PrimProcessor@@QAEXI@Z="C:\Windows\SysWOW64\rgb9rast".?FreeSpans@PrimProcessor@@QAEXI@Z
  ?GetFlags@PrimProcessor@@QAEIXZ="C:\Windows\SysWOW64\rgb9rast".?GetFlags@PrimProcessor@@QAEIXZ
  ?Initialize@PrimProcessor@@QAEJXZ="C:\Windows\SysWOW64\rgb9rast".?Initialize@PrimProcessor@@QAEJXZ
  ?Line@PrimProcessor@@QAEJPAU_D3DTLVERTEX@@00@Z="C:\Windows\SysWOW64\rgb9rast".?Line@PrimProcessor@@QAEJPAU_D3DTLVERTEX@@00@Z
  ?LineSetup@PrimProcessor@@AAEHPAU_D3DTLVERTEX@@0@Z="C:\Windows\SysWOW64\rgb9rast".?LineSetup@PrimProcessor@@AAEHPAU_D3DTLVERTEX@@0@Z
  ?NormalizeLineRHW@PrimProcessor@@AAEXPAU_D3DTLVERTEX@@0@Z="C:\Windows\SysWOW64\rgb9rast".?NormalizeLineRHW@PrimProcessor@@AAEXPAU_D3DTLVERTEX@@0@Z
  ?NormalizePointRHW@PrimProcessor@@AAEXPAU_D3DTLVERTEX@@@Z="C:\Windows\SysWOW64\rgb9rast".?NormalizePointRHW@PrimProcessor@@AAEXPAU_D3DTLVERTEX@@@Z
  ?NormalizeTriRHW@PrimProcessor@@AAEXPAU_D3DTLVERTEX@@00@Z="C:\Windows\SysWOW64\rgb9rast".?NormalizeTriRHW@PrimProcessor@@AAEXPAU_D3DTLVERTEX@@00@Z
  ?Point@PrimProcessor@@QAEJPAU_D3DTLVERTEX@@0@Z="C:\Windows\SysWOW64\rgb9rast".?Point@PrimProcessor@@QAEJPAU_D3DTLVERTEX@@0@Z
  ?PointDiamondCheck@PrimProcessor@@AAEHHHHH@Z="C:\Windows\SysWOW64\rgb9rast".?PointDiamondCheck@PrimProcessor@@AAEHHHHH@Z
  ?ResetBuffer@PrimProcessor@@AAEXXZ="C:\Windows\SysWOW64\rgb9rast".?ResetBuffer@PrimProcessor@@AAEXXZ
  ?SetCtx@PrimProcessor@@QAEXPAUtagD3DI_RASTCTX@@@Z="C:\Windows\SysWOW64\rgb9rast".?SetCtx@PrimProcessor@@QAEXPAUtagD3DI_RASTCTX@@@Z
  ?SetFlags@PrimProcessor@@QAEXI@Z="C:\Windows\SysWOW64\rgb9rast".?SetFlags@PrimProcessor@@QAEXI@Z
  ?SetTriFunctions@PrimProcessor@@AAEXXZ="C:\Windows\SysWOW64\rgb9rast".?SetTriFunctions@PrimProcessor@@AAEXXZ
  ?StateChanged@PrimProcessor@@QAEXXZ="C:\Windows\SysWOW64\rgb9rast".?StateChanged@PrimProcessor@@QAEXXZ
  ?Tri@PrimProcessor@@QAEJPAU_D3DTLVERTEX@@00@Z="C:\Windows\SysWOW64\rgb9rast".?Tri@PrimProcessor@@QAEJPAU_D3DTLVERTEX@@00@Z
  ?TriSetup@PrimProcessor@@AAEHPAU_D3DTLVERTEX@@00@Z="C:\Windows\SysWOW64\rgb9rast".?TriSetup@PrimProcessor@@AAEHPAU_D3DTLVERTEX@@00@Z
  D3D9GetSWInfo="C:\Windows\SysWOW64\rgb9rast".D3D9GetSWInfo
