EXPORTS
  ??0CheckedMutex@auf@@QAE@PBD_N@Z="C:\Windows\SysWOW64\rtmpal".??0CheckedMutex@auf@@QAE@PBD_N@Z
  ??0Event@auf@@QAE@XZ="C:\Windows\SysWOW64\rtmpal".??0Event@auf@@QAE@XZ
  ??0Flag@auf@@QAE@XZ="C:\Windows\SysWOW64\rtmpal".??0Flag@auf@@QAE@XZ
  ??0IPv4@rtnet@@QAE@XZ="C:\Windows\SysWOW64\rtmpal".??0IPv4@rtnet@@QAE@XZ
  ??0IPv6@rtnet@@QAE@XZ="C:\Windows\SysWOW64\rtmpal".??0IPv6@rtnet@@QAE@XZ
  ??0LockfreeQueue@auf@@QAE@AAVLockfreeStackPool@1@@Z="C:\Windows\SysWOW64\rtmpal".??0LockfreeQueue@auf@@QAE@AAVLockfreeStackPool@1@@Z
  ??0LockfreeStackPool@auf@@QAE@I@Z="C:\Windows\SysWOW64\rtmpal".??0LockfreeStackPool@auf@@QAE@I@Z
  ??0Path@spl@@QAE@XZ="C:\Windows\SysWOW64\rtmpal".??0Path@spl@@QAE@XZ
  ??0PortSpecification@rtnet@@QAE@ABU?$pair@HH@std@@@Z="C:\Windows\SysWOW64\rtmpal".??0PortSpecification@rtnet@@QAE@ABU?$pair@HH@std@@@Z
  ??0RefCounter@auf@@QAE@XZ="C:\Windows\SysWOW64\rtmpal".??0RefCounter@auf@@QAE@XZ
  ??0SocketConnectOptions@rtnet@@QAE@XZ="C:\Windows\SysWOW64\rtmpal".??0SocketConnectOptions@rtnet@@QAE@XZ
  ??0SocketOptions@rtnet@@IAE@XZ="C:\Windows\SysWOW64\rtmpal".??0SocketOptions@rtnet@@IAE@XZ
  ??0ThreadRef@auf@@QAE@PBDII@Z="C:\Windows\SysWOW64\rtmpal".??0ThreadRef@auf@@QAE@PBDII@Z
  ??0UncheckedMutex@auf@@QAE@PBD_N@Z="C:\Windows\SysWOW64\rtmpal".??0UncheckedMutex@auf@@QAE@PBD_N@Z
  ??0XorshiftRNG@auf@@QAE@I@Z="C:\Windows\SysWOW64\rtmpal".??0XorshiftRNG@auf@@QAE@I@Z
  ??1CheckedMutex@auf@@QAE@XZ="C:\Windows\SysWOW64\rtmpal".??1CheckedMutex@auf@@QAE@XZ
  ??1Event@auf@@QAE@XZ="C:\Windows\SysWOW64\rtmpal".??1Event@auf@@QAE@XZ
  ??1Flag@auf@@QAE@XZ="C:\Windows\SysWOW64\rtmpal".??1Flag@auf@@QAE@XZ
  ??1IPv4@rtnet@@QAE@XZ="C:\Windows\SysWOW64\rtmpal".??1IPv4@rtnet@@QAE@XZ
  ??1IPv6@rtnet@@QAE@XZ="C:\Windows\SysWOW64\rtmpal".??1IPv6@rtnet@@QAE@XZ
  ??1LockfreeQueue@auf@@QAE@XZ="C:\Windows\SysWOW64\rtmpal".??1LockfreeQueue@auf@@QAE@XZ
  ??1LockfreeStackPool@auf@@QAE@XZ="C:\Windows\SysWOW64\rtmpal".??1LockfreeStackPool@auf@@QAE@XZ
  ??1Path@spl@@QAE@XZ="C:\Windows\SysWOW64\rtmpal".??1Path@spl@@QAE@XZ
  ??1PortSpecification@rtnet@@QAE@XZ="C:\Windows\SysWOW64\rtmpal".??1PortSpecification@rtnet@@QAE@XZ
  ??1RefCounter@auf@@QAE@XZ="C:\Windows\SysWOW64\rtmpal".??1RefCounter@auf@@QAE@XZ
  ??1ThreadRef@auf@@QAE@XZ="C:\Windows\SysWOW64\rtmpal".??1ThreadRef@auf@@QAE@XZ
  ??1UncheckedMutex@auf@@QAE@XZ="C:\Windows\SysWOW64\rtmpal".??1UncheckedMutex@auf@@QAE@XZ
  ??1XorshiftRNG@auf@@QAE@XZ="C:\Windows\SysWOW64\rtmpal".??1XorshiftRNG@auf@@QAE@XZ
  ??AIPv4@rtnet@@QAEAAEI@Z="C:\Windows\SysWOW64\rtmpal".??AIPv4@rtnet@@QAEAAEI@Z
  ??AIPv6@rtnet@@QAEAAEI@Z="C:\Windows\SysWOW64\rtmpal".??AIPv6@rtnet@@QAEAAEI@Z
  ?address@InterfaceAddress@rtnet@@QBE?AV?$IntrusivePtr@VAddress@rtnet@@@auf@@XZ="C:\Windows\SysWOW64\rtmpal".?address@InterfaceAddress@rtnet@@QBE?AV?$IntrusivePtr@VAddress@rtnet@@@auf@@XZ
  ?advance@SimpleBuffer@rtnet@@QAEXI@Z="C:\Windows\SysWOW64\rtmpal".?advance@SimpleBuffer@rtnet@@QAEXI@Z
  ?allocMem@LockfreePacker@auf@@SAPAXI@Z="C:\Windows\SysWOW64\rtmpal".?allocMem@LockfreePacker@auf@@SAPAXI@Z
  ?allocate@LockfreeStackPool@auf@@QAEPAXI@Z="C:\Windows\SysWOW64\rtmpal".?allocate@LockfreeStackPool@auf@@QAEPAXI@Z
  ?asIPv4@Address@rtnet@@QBE_NAAVIPv4@2@@Z="C:\Windows\SysWOW64\rtmpal".?asIPv4@Address@rtnet@@QBE_NAAVIPv4@2@@Z
  ?asIPv6@Address@rtnet@@QBE_NAAVIPv6@2@@Z="C:\Windows\SysWOW64\rtmpal".?asIPv6@Address@rtnet@@QBE_NAAVIPv6@2@@Z
  ?atomicAddI@spl@@YAHPCHH@Z="C:\Windows\SysWOW64\rtmpal".?atomicAddI@spl@@YAHPCHH@Z
  ?atomicAddL@spl@@YAJPCJJ@Z="C:\Windows\SysWOW64\rtmpal".?atomicAddL@spl@@YAJPCJJ@Z
  ?callOperatorDelete@spl@@YAXPAX@Z="C:\Windows\SysWOW64\rtmpal".?callOperatorDelete@spl@@YAXPAX@Z
  ?callOperatorNew@spl@@YAPAXI@Z="C:\Windows\SysWOW64\rtmpal".?callOperatorNew@spl@@YAPAXI@Z
  ?clearDelegate@StreamSocket@rtnet@@QAEXXZ="C:\Windows\SysWOW64\rtmpal".?clearDelegate@StreamSocket@rtnet@@QAEXXZ
  ?compareExchangeI@spl@@YA_NPCHHH@Z="C:\Windows\SysWOW64\rtmpal".?compareExchangeI@spl@@YA_NPCHHH@Z
  ?compareExchangeL@spl@@YA_NPCJJJ@Z="C:\Windows\SysWOW64\rtmpal".?compareExchangeL@spl@@YA_NPCJJJ@Z
  ?compareExchangePI@spl@@YA_NPCHHH@Z="C:\Windows\SysWOW64\rtmpal".?compareExchangePI@spl@@YA_NPCHHH@Z
  ?compareExchangeValI@spl@@YAHPCHHH@Z="C:\Windows\SysWOW64\rtmpal".?compareExchangeValI@spl@@YAHPCHHH@Z
  ?complete@SimpleBuffer@rtnet@@QAEXXZ="C:\Windows\SysWOW64\rtmpal".?complete@SimpleBuffer@rtnet@@QAEXXZ
  ?connectTCPHostAsync@rtnet@@YA?AV?$IntrusivePtr@VAsyncOperation@auf@@@auf@@PBDHABV?$IntrusivePtr@VThreadPoolTransport@auf@@@3@ABV?$IntrusivePtr@VIStreamSocketDelegate@rtnet@@@3@PAUAsyncTag@3@ABV?$IntrusivePtr@VStreamSocketOptions@rtnet@@@3@ABV?$IntrusivePtr@VStreamSocketConnectOptions@rtnet@@@3@I@Z="C:\Windows\SysWOW64\rtmpal".?connectTCPHostAsync@rtnet@@YA?AV?$IntrusivePtr@VAsyncOperation@auf@@@auf@@PBDHABV?$IntrusivePtr@VThreadPoolTransport@auf@@@3@ABV?$IntrusivePtr@VIStreamSocketDelegate@rtnet@@@3@PAUAsyncTag@3@ABV?$IntrusivePtr@VStreamSocketOptions@rtnet@@@3@ABV?$IntrusivePtr@VStreamSocketConnectOptions@rtnet@@@3@I@Z
  ?connectedCore@IStreamSocketDelegate@rtnet@@AAEXABV?$IntrusivePtr@VStreamSocket@rtnet@@@auf@@PAUAsyncTag@4@@Z="C:\Windows\SysWOW64\rtmpal".?connectedCore@IStreamSocketDelegate@rtnet@@AAEXABV?$IntrusivePtr@VStreamSocket@rtnet@@@auf@@PAUAsyncTag@4@@Z
  ?create@PortSpecificationImpl@internal@rtnet@@SAPAV123@ABU?$pair@HH@std@@@Z="C:\Windows\SysWOW64\rtmpal".?create@PortSpecificationImpl@internal@rtnet@@SAPAV123@ABU?$pair@HH@std@@@Z
  ?create@PortSpecificationImpl@internal@rtnet@@SAPAV123@ABV123@@Z="C:\Windows\SysWOW64\rtmpal".?create@PortSpecificationImpl@internal@rtnet@@SAPAV123@ABV123@@Z
  ?create@PortSpecificationImpl@internal@rtnet@@SAPAV123@H@Z="C:\Windows\SysWOW64\rtmpal".?create@PortSpecificationImpl@internal@rtnet@@SAPAV123@H@Z
  ?create@PortSpecificationImpl@internal@rtnet@@SAPAV123@HH@Z="C:\Windows\SysWOW64\rtmpal".?create@PortSpecificationImpl@internal@rtnet@@SAPAV123@HH@Z
  ?create@SocketConnectOptionsImpl@internal@rtnet@@SAPAV123@ABV123@@Z="C:\Windows\SysWOW64\rtmpal".?create@SocketConnectOptionsImpl@internal@rtnet@@SAPAV123@ABV123@@Z
  ?create@SocketConnectOptionsImpl@internal@rtnet@@SAPAV123@XZ="C:\Windows\SysWOW64\rtmpal".?create@SocketConnectOptionsImpl@internal@rtnet@@SAPAV123@XZ
  ?create@SocketOptionsImpl@internal@rtnet@@SAPAV123@ABV123@@Z="C:\Windows\SysWOW64\rtmpal".?create@SocketOptionsImpl@internal@rtnet@@SAPAV123@ABV123@@Z
  ?create@SocketOptionsImpl@internal@rtnet@@SAPAV123@XZ="C:\Windows\SysWOW64\rtmpal".?create@SocketOptionsImpl@internal@rtnet@@SAPAV123@XZ
  ?createStrand@auf@@YA?AV?$IntrusivePtr@VThreadPoolTransport@auf@@@1@W4ThreadPoolPriority@spl@@@Z="C:\Windows\SysWOW64\rtmpal".?createStrand@auf@@YA?AV?$IntrusivePtr@VThreadPoolTransport@auf@@@1@W4ThreadPoolPriority@spl@@@Z
  ?createStrandWithTransport@auf@@YA?AV?$IntrusivePtr@VThreadPoolTransport@auf@@@1@ABV21@@Z="C:\Windows\SysWOW64\rtmpal".?createStrandWithTransport@auf@@YA?AV?$IntrusivePtr@VThreadPoolTransport@auf@@@1@ABV21@@Z
  ?createTimerWithTransport@auf@@YA?AV?$IntrusivePtr@VTimer@auf@@@1@ABV?$IntrusivePtr@VThreadPoolTransport@auf@@@1@V?$duration@_JU?$ratio@$00$0PECEA@@std@@@chrono@std@@1PAUCall@1@@Z="C:\Windows\SysWOW64\rtmpal".?createTimerWithTransport@auf@@YA?AV?$IntrusivePtr@VTimer@auf@@@1@ABV?$IntrusivePtr@VThreadPoolTransport@auf@@@1@V?$duration@_JU?$ratio@$00$0PECEA@@std@@@chrono@std@@1PAUCall@1@@Z
  ?createWithSize@SimpleBuffer@rtnet@@SA?AV?$IntrusivePtr@VSimpleBuffer@rtnet@@@auf@@I@Z="C:\Windows\SysWOW64\rtmpal".?createWithSize@SimpleBuffer@rtnet@@SA?AV?$IntrusivePtr@VSimpleBuffer@rtnet@@@auf@@I@Z
  ?data@SimpleBuffer@rtnet@@QAEPAXXZ="C:\Windows\SysWOW64\rtmpal".?data@SimpleBuffer@rtnet@@QAEPAXXZ
  ?dataBarrier@spl@@YAXXZ="C:\Windows\SysWOW64\rtmpal".?dataBarrier@spl@@YAXXZ
  ?dec@RefCounter@auf@@QAEKXZ="C:\Windows\SysWOW64\rtmpal".?dec@RefCounter@auf@@QAEKXZ
  ?decodeToUtf16@spl@@YA?AV?$basic_string@_SU?$char_traits@_S@std@@V?$allocator@_S@2@@std@@PBDI@Z="C:\Windows\SysWOW64\rtmpal".?decodeToUtf16@spl@@YA?AV?$basic_string@_SU?$char_traits@_S@std@@V?$allocator@_S@2@@std@@PBDI@Z
  ?decodeUtf8@spl@@YAIPAXIPBDII@Z="C:\Windows\SysWOW64\rtmpal".?decodeUtf8@spl@@YAIPAXIPBDII@Z
  ?decryptWithTempKey@spl@@YA?AV?$vector@DU?$secure_allocator@D@internal@spl@@@std@@PBDI@Z="C:\Windows\SysWOW64\rtmpal".?decryptWithTempKey@spl@@YA?AV?$vector@DU?$secure_allocator@D@internal@spl@@@std@@PBDI@Z
  ?dequeue@LockfreeQueue@auf@@QAEPAXPA_N@Z="C:\Windows\SysWOW64\rtmpal".?dequeue@LockfreeQueue@auf@@QAEPAXPA_N@Z
  ?destroyCert@rtnet@@YAXPAUX509Cert@1@@Z="C:\Windows\SysWOW64\rtmpal".?destroyCert@rtnet@@YAXPAUX509Cert@1@@Z
  ?directoryCreateRecursive@spl@@YA?AW4FileError@1@ABVPath@1@H@Z="C:\Windows\SysWOW64\rtmpal".?directoryCreateRecursive@spl@@YA?AW4FileError@1@ABVPath@1@H@Z
  ?disconnect@StreamSocket@rtnet@@QAEXXZ="C:\Windows\SysWOW64\rtmpal".?disconnect@StreamSocket@rtnet@@QAEXXZ
  ?done@ThreadRef@auf@@QBE_NXZ="C:\Windows\SysWOW64\rtmpal".?done@ThreadRef@auf@@QBE_NXZ
  ?dtlsAccept@rtnet@@YAHPAUTlsSession@1@PAUTlsBuf@1@1PAX@Z="C:\Windows\SysWOW64\rtmpal".?dtlsAccept@rtnet@@YAHPAUTlsSession@1@PAUTlsBuf@1@1PAX@Z
  ?dtlsConnect@rtnet@@YAHPAUTlsSession@1@PAUTlsBuf@1@1@Z="C:\Windows\SysWOW64\rtmpal".?dtlsConnect@rtnet@@YAHPAUTlsSession@1@PAUTlsBuf@1@1@Z
  ?dtlsCreate@rtnet@@YAPAUTlsSession@1@_NPBUX509Cert@1@@Z="C:\Windows\SysWOW64\rtmpal".?dtlsCreate@rtnet@@YAPAUTlsSession@1@_NPBUX509Cert@1@@Z
  ?dtlsDestroy@rtnet@@YAXPAUTlsSession@1@@Z="C:\Windows\SysWOW64\rtmpal".?dtlsDestroy@rtnet@@YAXPAUTlsSession@1@@Z
  ?dtlsSrtpParametersFreeMkiBuffer@rtnet@@YAXPAUDtlsSrtpParameters@1@@Z="C:\Windows\SysWOW64\rtmpal".?dtlsSrtpParametersFreeMkiBuffer@rtnet@@YAXPAUDtlsSrtpParameters@1@@Z
  ?dtorCore@SocketConnectOptions@rtnet@@AAEXXZ="C:\Windows\SysWOW64\rtmpal".?dtorCore@SocketConnectOptions@rtnet@@AAEXXZ
  ?dtorCore@SocketOptions@rtnet@@AAEXXZ="C:\Windows\SysWOW64\rtmpal".?dtorCore@SocketOptions@rtnet@@AAEXXZ
  ?embedIPv4@IPv6@rtnet@@QAE_NABVIPv4@2@I@Z="C:\Windows\SysWOW64\rtmpal".?embedIPv4@IPv6@rtnet@@QAE_NABVIPv4@2@I@Z
  ?empty@LockfreeQueue@auf@@QAE_NXZ="C:\Windows\SysWOW64\rtmpal".?empty@LockfreeQueue@auf@@QAE_NXZ
  ?encode@BASE64@spl@@SAXPADPBXI@Z="C:\Windows\SysWOW64\rtmpal".?encode@BASE64@spl@@SAXPADPBXI@Z
  ?encodeUtf8@spl@@YA?AV?$basic_string@DU?$char_traits@D@std@@V?$allocator@D@2@@std@@PBXII@Z="C:\Windows\SysWOW64\rtmpal".?encodeUtf8@spl@@YA?AV?$basic_string@DU?$char_traits@D@std@@V?$allocator@D@2@@std@@PBXII@Z
  ?encodeUtf8@spl@@YAIPADIPBXII@Z="C:\Windows\SysWOW64\rtmpal".?encodeUtf8@spl@@YAIPADIPBXII@Z
  ?encodedLength@BASE64@spl@@SAII@Z="C:\Windows\SysWOW64\rtmpal".?encodedLength@BASE64@spl@@SAII@Z
  ?encryptWithTempKey@spl@@YA?AV?$vector@DU?$secure_allocator@D@internal@spl@@@std@@PBXI@Z="C:\Windows\SysWOW64\rtmpal".?encryptWithTempKey@spl@@YA?AV?$vector@DU?$secure_allocator@D@internal@spl@@@std@@PBXI@Z
  ?enqueue@LockfreeQueue@auf@@QAE_NPAX@Z="C:\Windows\SysWOW64\rtmpal".?enqueue@LockfreeQueue@auf@@QAE_NPAX@Z
  ?exchangeI@spl@@YAHPCHH@Z="C:\Windows\SysWOW64\rtmpal".?exchangeI@spl@@YAHPCHH@Z
  ?exchangeL@spl@@YAJPCJJ@Z="C:\Windows\SysWOW64\rtmpal".?exchangeL@spl@@YAJPCJJ@Z
  ?exchangePI@spl@@YAHPCHH@Z="C:\Windows\SysWOW64\rtmpal".?exchangePI@spl@@YAHPCHH@Z
  ?fileClose@spl@@YAXPAX@Z="C:\Windows\SysWOW64\rtmpal".?fileClose@spl@@YAXPAX@Z
  ?fileFlush@spl@@YA_NPAX@Z="C:\Windows\SysWOW64\rtmpal".?fileFlush@spl@@YA_NPAX@Z
  ?fileOpen@spl@@YAPAXABVPath@1@W4FileSemantics@1@HAAW4FileError@1@@Z="C:\Windows\SysWOW64\rtmpal".?fileOpen@spl@@YAPAXABVPath@1@W4FileSemantics@1@HAAW4FileError@1@@Z
  ?fileRead@spl@@YAHPAX0I@Z="C:\Windows\SysWOW64\rtmpal".?fileRead@spl@@YAHPAX0I@Z
  ?fileSeekNewReturned@spl@@YA_JPAX_JW4SeekType@1@@Z="C:\Windows\SysWOW64\rtmpal".?fileSeekNewReturned@spl@@YA_JPAX_JW4SeekType@1@@Z
  ?fileSize@spl@@YA_JPAX@Z="C:\Windows\SysWOW64\rtmpal".?fileSize@spl@@YA_JPAX@Z
  ?fileTell@spl@@YA_JPAX@Z="C:\Windows\SysWOW64\rtmpal".?fileTell@spl@@YA_JPAX@Z
  ?fileWrite@spl@@YAHPAXPBXI@Z="C:\Windows\SysWOW64\rtmpal".?fileWrite@spl@@YAHPAXPBXI@Z
  ?freeMem@LockfreePacker@auf@@SAXPAX@Z="C:\Windows\SysWOW64\rtmpal".?freeMem@LockfreePacker@auf@@SAXPAX@Z
  ?fromBytes@IPv4@rtnet@@QAE_NPBE@Z="C:\Windows\SysWOW64\rtmpal".?fromBytes@IPv4@rtnet@@QAE_NPBE@Z
  ?g_CPUTopology@spl@@3UCPUTopology@1@A="C:\Windows\SysWOW64\rtmpal".?g_CPUTopology@spl@@3UCPUTopology@1@A
  ?g_aufUp@auf@@3HA="C:\Windows\SysWOW64\rtmpal".?g_aufUp@auf@@3HA
  ?g_configGlobalLockfreeStackPoolSizeL2@auf@@3IA="C:\Windows\SysWOW64\rtmpal".?g_configGlobalLockfreeStackPoolSizeL2@auf@@3IA
  ?g_configMaxObjectWaitUs@auf@@3IA="C:\Windows\SysWOW64\rtmpal".?g_configMaxObjectWaitUs@auf@@3IA
  ?g_configTraceFifoSizeL2@auf@@3IA="C:\Windows\SysWOW64\rtmpal".?g_configTraceFifoSizeL2@auf@@3IA
  ?g_logObjectCountChanges@auf@@3DA="C:\Windows\SysWOW64\rtmpal".?g_logObjectCountChanges@auf@@3DA
  ?g_logObjectIds@auf@@3DA="C:\Windows\SysWOW64\rtmpal".?g_logObjectIds@auf@@3DA
  ?g_logObjectIds@internal@auf@@3DA="C:\Windows\SysWOW64\rtmpal".?g_logObjectIds@internal@auf@@3DA
  ?g_logObjectLeaks@auf@@3DA="C:\Windows\SysWOW64\rtmpal".?g_logObjectLeaks@auf@@3DA
  ?g_logObjectLeaks@internal@auf@@3DA="C:\Windows\SysWOW64\rtmpal".?g_logObjectLeaks@internal@auf@@3DA
  ?g_nextCallId@auf@@3IC="C:\Windows\SysWOW64\rtmpal".?g_nextCallId@auf@@3IC
  ?g_nextObjectId@auf@@3IC="C:\Windows\SysWOW64\rtmpal".?g_nextObjectId@auf@@3IC
  ?g_objectCheckDisabled@auf@@3DA="C:\Windows\SysWOW64\rtmpal".?g_objectCheckDisabled@auf@@3DA
  ?g_sysInfo@spl@@3USysinfo@1@A="C:\Windows\SysWOW64\rtmpal".?g_sysInfo@spl@@3USysinfo@1@A
  ?getCertHash@rtnet@@YA_NPAUX509Cert@1@W4HashAlgorithm@spl@@PAUCertHash@1@@Z="C:\Windows\SysWOW64\rtmpal".?getCertHash@rtnet@@YA_NPAUX509Cert@1@W4HashAlgorithm@spl@@PAUCertHash@1@@Z
  ?getDtlsSrtpParameters@rtnet@@YA_NPAUTlsSession@1@PAUDtlsSrtpParameters@1@@Z="C:\Windows\SysWOW64\rtmpal".?getDtlsSrtpParameters@rtnet@@YA_NPAUTlsSession@1@PAUDtlsSrtpParameters@1@@Z
  ?getImp@ThreadRef@auf@@ABEPAUSplOpaqueUpperLayerThread@@XZ="C:\Windows\SysWOW64\rtmpal".?getImp@ThreadRef@auf@@ABEPAUSplOpaqueUpperLayerThread@@XZ
  ?getNat64Prefixes@rtnet@@YA_NV?$duration@_JU?$ratio@$00$0PECEA@@std@@@chrono@std@@AAV?$vector@V?$IntrusivePtr@VInterfaceAddress@rtnet@@@auf@@V?$allocator@V?$IntrusivePtr@VInterfaceAddress@rtnet@@@auf@@@std@@@4@@Z="C:\Windows\SysWOW64\rtmpal".?getNat64Prefixes@rtnet@@YA_NV?$duration@_JU?$ratio@$00$0PECEA@@std@@@chrono@std@@AAV?$vector@V?$IntrusivePtr@VInterfaceAddress@rtnet@@@auf@@V?$allocator@V?$IntrusivePtr@VInterfaceAddress@rtnet@@@auf@@@std@@@4@@Z
  ?getSelfSignedCert@rtnet@@YAPAUX509Cert@1@PBUX509CertName@1@HHW4HashAlgorithm@spl@@PAX@Z="C:\Windows\SysWOW64\rtmpal".?getSelfSignedCert@rtnet@@YAPAUX509Cert@1@PBUX509CertName@1@HHW4HashAlgorithm@spl@@PAX@Z
  ?globalThreadPoolTransport2@auf@@YA?AV?$IntrusivePtr@VThreadPoolTransport@auf@@@1@W4ThreadPoolPriority@spl@@@Z="C:\Windows\SysWOW64\rtmpal".?globalThreadPoolTransport2@auf@@YA?AV?$IntrusivePtr@VThreadPoolTransport@auf@@@1@W4ThreadPoolPriority@spl@@@Z
  ?highPrecisionTimestamp@spl@@YA_KXZ="C:\Windows\SysWOW64\rtmpal".?highPrecisionTimestamp@spl@@YA_KXZ
  ?inc@RefCounter@auf@@QAEKXZ="C:\Windows\SysWOW64\rtmpal".?inc@RefCounter@auf@@QAEKXZ
  ?initInternal@auf@@YA_NPAUAufInitTag@1@PBDII@Z="C:\Windows\SysWOW64\rtmpal".?initInternal@auf@@YA_NPAUAufInitTag@1@PBDII@Z
  ?instantiateLogComponent@internal@auf@@YAPAVLogComponent@2@PBD@Z="C:\Windows\SysWOW64\rtmpal".?instantiateLogComponent@internal@auf@@YAPAVLogComponent@2@PBD@Z
  ?intrusive_ptr_add_ref@auf@@YAXPBVIReferenceCountable@1@@Z="C:\Windows\SysWOW64\rtmpal".?intrusive_ptr_add_ref@auf@@YAXPBVIReferenceCountable@1@@Z
  ?intrusive_ptr_release@auf@@YAXPBVIReferenceCountable@1@@Z="C:\Windows\SysWOW64\rtmpal".?intrusive_ptr_release@auf@@YAXPBVIReferenceCountable@1@@Z
  ?io@StreamSocket@rtnet@@QAE?AV?$IntrusivePtr@VISocketIO@rtnet@@@auf@@XZ="C:\Windows\SysWOW64\rtmpal".?io@StreamSocket@rtnet@@QAE?AV?$IntrusivePtr@VISocketIO@rtnet@@@auf@@XZ
  ?isGood@Event@auf@@QBE_NXZ="C:\Windows\SysWOW64\rtmpal".?isGood@Event@auf@@QBE_NXZ
  ?isGood@LockfreeQueue@auf@@QBE_NXZ="C:\Windows\SysWOW64\rtmpal".?isGood@LockfreeQueue@auf@@QBE_NXZ
  ?isGood@LockfreeStackPool@auf@@QBE_NXZ="C:\Windows\SysWOW64\rtmpal".?isGood@LockfreeStackPool@auf@@QBE_NXZ
  ?isGood@MutexCore@internal@auf@@QBE_NXZ="C:\Windows\SysWOW64\rtmpal".?isGood@MutexCore@internal@auf@@QBE_NXZ
  ?isGood@ThreadRef@auf@@QBE_NXZ="C:\Windows\SysWOW64\rtmpal".?isGood@ThreadRef@auf@@QBE_NXZ
  ?localAddress@StreamSocket@rtnet@@QAE?AV?$IntrusivePtr@VAddress@rtnet@@@auf@@XZ="C:\Windows\SysWOW64\rtmpal".?localAddress@StreamSocket@rtnet@@QAE?AV?$IntrusivePtr@VAddress@rtnet@@@auf@@XZ
  ?localTime@spl@@YAHABUHidingSystemTime@1@PAUtm@@@Z="C:\Windows\SysWOW64\rtmpal".?localTime@spl@@YAHABUHidingSystemTime@1@PAUtm@@@Z
  ?localTimestamp@spl@@YA?AUHidingSystemTime@1@XZ="C:\Windows\SysWOW64\rtmpal".?localTimestamp@spl@@YA?AUHidingSystemTime@1@XZ
  ?lock@MutexCore@internal@auf@@QAEXXZ="C:\Windows\SysWOW64\rtmpal".?lock@MutexCore@internal@auf@@QAEXXZ
  ?lockedByCurrentThread@MutexCore@internal@auf@@QBE_NXZ="C:\Windows\SysWOW64\rtmpal".?lockedByCurrentThread@MutexCore@internal@auf@@QBE_NXZ
  ?lockfreeStackPoolDeallocate@auf@@YAXPAX@Z="C:\Windows\SysWOW64\rtmpal".?lockfreeStackPoolDeallocate@auf@@YAXPAX@Z
  ?log@LogComponent@auf@@QAEXPBXIIABVLogArgs@2@@Z="C:\Windows\SysWOW64\rtmpal".?log@LogComponent@auf@@QAEXPBXIIABVLogArgs@2@@Z
  ?log@LogComponent@auf@@QAEXPBXIIPBDABVLogArgs@2@@Z="C:\Windows\SysWOW64\rtmpal".?log@LogComponent@auf@@QAEXPBXIIPBDABVLogArgs@2@@Z
  ?logBackTraceInfo@spl@@YAXXZ="C:\Windows\SysWOW64\rtmpal".?logBackTraceInfo@spl@@YAXXZ
  ?logFlush@auf@@YAXXZ="C:\Windows\SysWOW64\rtmpal".?logFlush@auf@@YAXXZ
  ?logvln@auf@@YAX_NPBDPAD@Z="C:\Windows\SysWOW64\rtmpal".?logvln@auf@@YAX_NPBDPAD@Z
  ?make@ProxyInfo@rtnet@@SA?AV?$IntrusivePtr@VProxyInfo@rtnet@@@auf@@W4ProxyProtocol@2@PBDI11@Z="C:\Windows\SysWOW64\rtmpal".?make@ProxyInfo@rtnet@@SA?AV?$IntrusivePtr@VProxyInfo@rtnet@@@auf@@W4ProxyProtocol@2@PBDI11@Z
  ?memFree@spl@@YAXPAX@Z="C:\Windows\SysWOW64\rtmpal".?memFree@spl@@YAXPAX@Z
  ?memMalloc@spl@@YAPAXI@Z="C:\Windows\SysWOW64\rtmpal".?memMalloc@spl@@YAPAXI@Z
  ?memcpy_s@spl@@YAHPAXIPBXI@Z="C:\Windows\SysWOW64\rtmpal".?memcpy_s@spl@@YAHPAXIPBXI@Z
  ?memmove_s@spl@@YAHPAXIPBXI@Z="C:\Windows\SysWOW64\rtmpal".?memmove_s@spl@@YAHPAXIPBXI@Z
  ?memset_s@spl@@YAHPCXIHI@Z="C:\Windows\SysWOW64\rtmpal".?memset_s@spl@@YAHPCXIHI@Z
  ?msFromHp@spl@@YAI_J@Z="C:\Windows\SysWOW64\rtmpal".?msFromHp@spl@@YAI_J@Z
  ?options@StreamSocket@rtnet@@QBE?AV?$IntrusivePtr@VStreamSocketOptions@rtnet@@@auf@@XZ="C:\Windows\SysWOW64\rtmpal".?options@StreamSocket@rtnet@@QBE?AV?$IntrusivePtr@VStreamSocketOptions@rtnet@@@auf@@XZ
  ?pathAppendComponent@spl@@YA_NAAVPath@1@PBD1@Z="C:\Windows\SysWOW64\rtmpal".?pathAppendComponent@spl@@YA_NAAVPath@1@PBD1@Z
  ?pathFromFilename@spl@@YA_NAAVPath@1@PBD@Z="C:\Windows\SysWOW64\rtmpal".?pathFromFilename@spl@@YA_NAAVPath@1@PBD@Z
  ?pathInitFromLocation@spl@@YA?AW4FileError@1@AAVPath@1@ABUPathLocation@1@@Z="C:\Windows\SysWOW64\rtmpal".?pathInitFromLocation@spl@@YA?AW4FileError@1@AAVPath@1@ABUPathLocation@1@@Z
  ?pathStringValue@spl@@YAPBDABVPath@1@@Z="C:\Windows\SysWOW64\rtmpal".?pathStringValue@spl@@YAPBDABVPath@1@@Z
  ?peerAddress@StreamSocket@rtnet@@QAE?AV?$IntrusivePtr@VAddress@rtnet@@@auf@@XZ="C:\Windows\SysWOW64\rtmpal".?peerAddress@StreamSocket@rtnet@@QAE?AV?$IntrusivePtr@VAddress@rtnet@@@auf@@XZ
  ?port@Address@rtnet@@QBEHXZ="C:\Windows\SysWOW64\rtmpal".?port@Address@rtnet@@QBEHXZ
  ?post@Event@auf@@QAEXXZ="C:\Windows\SysWOW64\rtmpal".?post@Event@auf@@QAEXXZ
  ?prefixLength@InterfaceAddress@rtnet@@QBEIXZ="C:\Windows\SysWOW64\rtmpal".?prefixLength@InterfaceAddress@rtnet@@QBEIXZ
  ?raise@Flag@auf@@QAE_NXZ="C:\Windows\SysWOW64\rtmpal".?raise@Flag@auf@@QAE_NXZ
  ?randomBytes@auf@@YA_NPAXI@Z="C:\Windows\SysWOW64\rtmpal".?randomBytes@auf@@YA_NPAXI@Z
  ?randomUInt@XorshiftRNG@auf@@QAEIXZ="C:\Windows\SysWOW64\rtmpal".?randomUInt@XorshiftRNG@auf@@QAEIXZ
  ?release@Flag@auf@@QAEXXZ="C:\Windows\SysWOW64\rtmpal".?release@Flag@auf@@QAEXXZ
  ?setDone@ThreadRef@auf@@QAEX_N@Z="C:\Windows\SysWOW64\rtmpal".?setDone@ThreadRef@auf@@QAEX_N@Z
  ?setLogComponentDescription@internal@auf@@YAPBDPBD0@Z="C:\Windows\SysWOW64\rtmpal".?setLogComponentDescription@internal@auf@@YAPBDPBD0@Z
  ?setLogComponentSafe@internal@auf@@YA_NPBD_N@Z="C:\Windows\SysWOW64\rtmpal".?setLogComponentSafe@internal@auf@@YA_NPBD_N@Z
  ?setNoDelayEnabled@StreamSocketOptions@rtnet@@QAEX_N@Z="C:\Windows\SysWOW64\rtmpal".?setNoDelayEnabled@StreamSocketOptions@rtnet@@QAEX_N@Z
  ?setOptions@StreamSocket@rtnet@@QAE_NABV?$IntrusivePtr@VStreamSocketOptions@rtnet@@@auf@@@Z="C:\Windows\SysWOW64\rtmpal".?setOptions@StreamSocket@rtnet@@QAE_NABV?$IntrusivePtr@VStreamSocketOptions@rtnet@@@auf@@@Z
  ?setPortSpecification@SocketConnectOptions@rtnet@@QAEXABV?$shared_ptr@VPortSpecification@rtnet@@@std@@@Z="C:\Windows\SysWOW64\rtmpal".?setPortSpecification@SocketConnectOptions@rtnet@@QAEXABV?$shared_ptr@VPortSpecification@rtnet@@@std@@@Z
  ?setProxy@SocketConnectOptions@rtnet@@QAEXW4ProxyPolicy@2@ABV?$IntrusivePtr@VProxyInfo@rtnet@@@auf@@@Z="C:\Windows\SysWOW64\rtmpal".?setProxy@SocketConnectOptions@rtnet@@QAEXW4ProxyPolicy@2@ABV?$IntrusivePtr@VProxyInfo@rtnet@@@auf@@@Z
  ?setQualityOfServiceDSCP@SocketOptions@rtnet@@QAEXI@Z="C:\Windows\SysWOW64\rtmpal".?setQualityOfServiceDSCP@SocketOptions@rtnet@@QAEXI@Z
  ?setTlsCertificateVerification@SocketOptions@rtnet@@QAEX_N@Z="C:\Windows\SysWOW64\rtmpal".?setTlsCertificateVerification@SocketOptions@rtnet@@QAEX_N@Z
  ?size@SimpleBuffer@rtnet@@QBEIXZ="C:\Windows\SysWOW64\rtmpal".?size@SimpleBuffer@rtnet@@QBEIXZ
  ?sleep@spl@@YAXI@Z="C:\Windows\SysWOW64\rtmpal".?sleep@spl@@YAXI@Z
  ?snprintf_s@spl@@YAHPADIPBDZZ="C:\Windows\SysWOW64\rtmpal".?snprintf_s@spl@@YAHPADIPBDZZ
  ?startImp@auf@@YAXPAUSplOpaqueUpperLayerThread@@PAUVarBase@spl@@@Z="C:\Windows\SysWOW64\rtmpal".?startImp@auf@@YAXPAUSplOpaqueUpperLayerThread@@PAUVarBase@spl@@@Z
  ?startTlsAsync@StreamSocket@rtnet@@QAEXPBDPAUAsyncTag@auf@@@Z="C:\Windows\SysWOW64\rtmpal".?startTlsAsync@StreamSocket@rtnet@@QAEXPBDPAUAsyncTag@auf@@@Z
  ?stop@ThreadRef@auf@@QAE_NV?$duration@_JU?$ratio@$00$0PECEA@@std@@@chrono@std@@PAH@Z="C:\Windows\SysWOW64\rtmpal".?stop@ThreadRef@auf@@QAE_NV?$duration@_JU?$ratio@$00$0PECEA@@std@@@chrono@std@@PAH@Z
  ?stopInternal@auf@@YAXPAUAufInitTag@1@PBD@Z="C:\Windows\SysWOW64\rtmpal".?stopInternal@auf@@YAXPAUAufInitTag@1@PBD@Z
  ?strandId@ThreadPoolTransport@auf@@QBEIXZ="C:\Windows\SysWOW64\rtmpal".?strandId@ThreadPoolTransport@auf@@QBEIXZ
  ?strcat_s@spl@@YAHPADIPBD@Z="C:\Windows\SysWOW64\rtmpal".?strcat_s@spl@@YAHPADIPBD@Z
  ?strcpy_s@spl@@YAHPADIPBD@Z="C:\Windows\SysWOW64\rtmpal".?strcpy_s@spl@@YAHPADIPBD@Z
  ?strlcpy@spl@@YAIPADPBDI@Z="C:\Windows\SysWOW64\rtmpal".?strlcpy@spl@@YAIPADPBDI@Z
  ?strnlen_s@spl@@YAIPBDI@Z="C:\Windows\SysWOW64\rtmpal".?strnlen_s@spl@@YAIPBDI@Z
  ?symbolFromAddress@priv@spl@@YA_NPBXPADI@Z="C:\Windows\SysWOW64\rtmpal".?symbolFromAddress@priv@spl@@YA_NPBXPADI@Z
  ?sysInfoCPUInfo@spl@@YAXIAAUCPUInfo@1@@Z="C:\Windows\SysWOW64\rtmpal".?sysInfoCPUInfo@spl@@YAXIAAUCPUInfo@1@@Z
  ?thread@pal@msrtc@@YA?AV0std@@$$QAV?$function@$$A6AXXZ@3@@Z="C:\Windows\SysWOW64\rtmpal".?thread@pal@msrtc@@YA?AV0std@@$$QAV?$function@$$A6AXXZ@3@@Z
  ?tlsBufAlloc@rtnet@@YA_NPAUTlsBuf@1@K@Z="C:\Windows\SysWOW64\rtmpal".?tlsBufAlloc@rtnet@@YA_NPAUTlsBuf@1@K@Z
  ?tlsBufFree@rtnet@@YAXPAUTlsBuf@1@@Z="C:\Windows\SysWOW64\rtmpal".?tlsBufFree@rtnet@@YAXPAUTlsBuf@1@@Z
  ?tlsBufInit@rtnet@@YAXPAUTlsBuf@1@@Z="C:\Windows\SysWOW64\rtmpal".?tlsBufInit@rtnet@@YAXPAUTlsBuf@1@@Z
  ?tlsGetPeerCert@rtnet@@YAPAUX509Cert@1@PAUTlsSession@1@@Z="C:\Windows\SysWOW64\rtmpal".?tlsGetPeerCert@rtnet@@YAPAUX509Cert@1@PAUTlsSession@1@@Z
  ?unlock@MutexCore@internal@auf@@QAEXXZ="C:\Windows\SysWOW64\rtmpal".?unlock@MutexCore@internal@auf@@QAEXXZ
  ?utcHpTimestamp@spl@@YA_KXZ="C:\Windows\SysWOW64\rtmpal".?utcHpTimestamp@spl@@YA_KXZ
  ?utcTimestamp@spl@@YAHXZ="C:\Windows\SysWOW64\rtmpal".?utcTimestamp@spl@@YAHXZ
  ?vsnprintf_s@spl@@YAHPADIPBD0@Z="C:\Windows\SysWOW64\rtmpal".?vsnprintf_s@spl@@YAHPADIPBD0@Z
  ?wait@Event@auf@@QAE_NI@Z="C:\Windows\SysWOW64\rtmpal".?wait@Event@auf@@QAE_NI@Z
  ?wait@Event@auf@@QAE_NV?$duration@_JU?$ratio@$00$0PECEA@@std@@@chrono@std@@@Z="C:\Windows\SysWOW64\rtmpal".?wait@Event@auf@@QAE_NV?$duration@_JU?$ratio@$00$0PECEA@@std@@@chrono@std@@@Z
  ?wait@Flag@auf@@QAE_NV?$duration@_JU?$ratio@$00$0PECEA@@std@@@chrono@std@@@Z="C:\Windows\SysWOW64\rtmpal".?wait@Flag@auf@@QAE_NV?$duration@_JU?$ratio@$00$0PECEA@@std@@@chrono@std@@@Z
  ?weak_intrusive_ptr_add_ref@auf@@YAXPAVWeakAuxiliary@1@@Z="C:\Windows\SysWOW64\rtmpal".?weak_intrusive_ptr_add_ref@auf@@YAXPAVWeakAuxiliary@1@@Z
  ?weak_intrusive_ptr_create@auf@@YAPAVWeakAuxiliary@1@PBVIReferenceCountable@1@@Z="C:\Windows\SysWOW64\rtmpal".?weak_intrusive_ptr_create@auf@@YAPAVWeakAuxiliary@1@PBVIReferenceCountable@1@@Z
  ?weak_intrusive_ptr_release@auf@@YAXPAVWeakAuxiliary@1@@Z="C:\Windows\SysWOW64\rtmpal".?weak_intrusive_ptr_release@auf@@YAXPAVWeakAuxiliary@1@@Z
  ?x509NameDestroy@rtnet@@YAXPAUX509CertName@1@@Z="C:\Windows\SysWOW64\rtmpal".?x509NameDestroy@rtnet@@YAXPAUX509CertName@1@@Z
  ?x509NameEncode@rtnet@@YAPAUX509CertName@1@PBD@Z="C:\Windows\SysWOW64\rtmpal".?x509NameEncode@rtnet@@YAPAUX509CertName@1@PBD@Z
  AcquireCredentialsHandleW="C:\Windows\SysWOW64\rtmpal".AcquireCredentialsHandleW
  AcquireSRWLockExclusive="C:\Windows\SysWOW64\rtmpal".AcquireSRWLockExclusive
  CreateFileA="C:\Windows\SysWOW64\rtmpal".CreateFileA
  CreateFileW="C:\Windows\SysWOW64\rtmpal".CreateFileW
  DecodePointer="C:\Windows\SysWOW64\rtmpal".DecodePointer
  DeleteSecurityContext="C:\Windows\SysWOW64\rtmpal".DeleteSecurityContext
  DisableThreadLibraryCalls="C:\Windows\SysWOW64\rtmpal".DisableThreadLibraryCalls
  EnableTrace="C:\Windows\SysWOW64\rtmpal".EnableTrace
  EncodePointer="C:\Windows\SysWOW64\rtmpal".EncodePointer
  EnumerateSecurityPackagesW="C:\Windows\SysWOW64\rtmpal".EnumerateSecurityPackagesW
  EventRegister="C:\Windows\SysWOW64\rtmpal".EventRegister
  EventUnregister="C:\Windows\SysWOW64\rtmpal".EventUnregister
  EventWrite="C:\Windows\SysWOW64\rtmpal".EventWrite
  FreeAddrInfoW="C:\Windows\SysWOW64\rtmpal".FreeAddrInfoW
  FreeContextBuffer="C:\Windows\SysWOW64\rtmpal".FreeContextBuffer
  FreeCredentialsHandle="C:\Windows\SysWOW64\rtmpal".FreeCredentialsHandle
  GetAddrInfoW="C:\Windows\SysWOW64\rtmpal".GetAddrInfoW
  GetLastError="C:\Windows\SysWOW64\rtmpal".GetLastError
  GetSystemInfo="C:\Windows\SysWOW64\rtmpal".GetSystemInfo
  GetTempPathW="C:\Windows\SysWOW64\rtmpal".GetTempPathW
  GetTraceEnableFlags="C:\Windows\SysWOW64\rtmpal".GetTraceEnableFlags
  GetTraceEnableLevel="C:\Windows\SysWOW64\rtmpal".GetTraceEnableLevel
  GetTraceLoggerHandle="C:\Windows\SysWOW64\rtmpal".GetTraceLoggerHandle
  GetVersionExW="C:\Windows\SysWOW64\rtmpal".GetVersionExW
  InitializeSListHead="C:\Windows\SysWOW64\rtmpal".InitializeSListHead
  InitializeSecurityContextW="C:\Windows\SysWOW64\rtmpal".InitializeSecurityContextW
  InterlockedCompareExchange="C:\Windows\SysWOW64\rtmpal".InterlockedCompareExchange
  InterlockedDecrement="C:\Windows\SysWOW64\rtmpal".InterlockedDecrement
  InterlockedExchange="C:\Windows\SysWOW64\rtmpal".InterlockedExchange
  InterlockedExchangeAdd="C:\Windows\SysWOW64\rtmpal".InterlockedExchangeAdd
  InterlockedIncrement="C:\Windows\SysWOW64\rtmpal".InterlockedIncrement
  InterlockedPopEntrySList="C:\Windows\SysWOW64\rtmpal".InterlockedPopEntrySList
  InterlockedPushEntrySList="C:\Windows\SysWOW64\rtmpal".InterlockedPushEntrySList
  IsDebuggerPresent="C:\Windows\SysWOW64\rtmpal".IsDebuggerPresent
  MultiByteToWideChar="C:\Windows\SysWOW64\rtmpal".MultiByteToWideChar
  OutputDebugStringA="C:\Windows\SysWOW64\rtmpal".OutputDebugStringA
  OutputDebugStringW="C:\Windows\SysWOW64\rtmpal".OutputDebugStringW
  QueryPerformanceCounter="C:\Windows\SysWOW64\rtmpal".QueryPerformanceCounter
  QueryPerformanceFrequency="C:\Windows\SysWOW64\rtmpal".QueryPerformanceFrequency
  RaiseException="C:\Windows\SysWOW64\rtmpal".RaiseException
  RegCloseKey="C:\Windows\SysWOW64\rtmpal".RegCloseKey
  RegCreateKeyExA="C:\Windows\SysWOW64\rtmpal".RegCreateKeyExA
  RegCreateKeyExW="C:\Windows\SysWOW64\rtmpal".RegCreateKeyExW
  RegDeleteKeyW="C:\Windows\SysWOW64\rtmpal".RegDeleteKeyW
  RegEnumKeyExW="C:\Windows\SysWOW64\rtmpal".RegEnumKeyExW
  RegOpenKeyExA="C:\Windows\SysWOW64\rtmpal".RegOpenKeyExA
  RegOpenKeyExW="C:\Windows\SysWOW64\rtmpal".RegOpenKeyExW
  RegQueryValueExA="C:\Windows\SysWOW64\rtmpal".RegQueryValueExA
  RegQueryValueExW="C:\Windows\SysWOW64\rtmpal".RegQueryValueExW
  RegSetValueExA="C:\Windows\SysWOW64\rtmpal".RegSetValueExA
  RegSetValueExW="C:\Windows\SysWOW64\rtmpal".RegSetValueExW
  RegisterTraceGuidsW="C:\Windows\SysWOW64\rtmpal".RegisterTraceGuidsW
  ReleaseSRWLockExclusive="C:\Windows\SysWOW64\rtmpal".ReleaseSRWLockExclusive
  RtcPalAccept="C:\Windows\SysWOW64\rtmpal".RtcPalAccept
  RtcPalAcquireSlimLock="C:\Windows\SysWOW64\rtmpal".RtcPalAcquireSlimLock
  RtcPalAesEncrypt="C:\Windows\SysWOW64\rtmpal".RtcPalAesEncrypt
  RtcPalAllocAlignedMemoryWithTag="C:\Windows\SysWOW64\rtmpal".RtcPalAllocAlignedMemoryWithTag
  RtcPalAllocMemoryWithTag="C:\Windows\SysWOW64\rtmpal".RtcPalAllocMemoryWithTag
  RtcPalAllocateWorkItem="C:\Windows\SysWOW64\rtmpal".RtcPalAllocateWorkItem
  RtcPalBaseCleanup="C:\Windows\SysWOW64\rtmpal".RtcPalBaseCleanup
  RtcPalBaseStartup="C:\Windows\SysWOW64\rtmpal".RtcPalBaseStartup
  RtcPalBind="C:\Windows\SysWOW64\rtmpal".RtcPalBind
  RtcPalCleanup="C:\Windows\SysWOW64\rtmpal".RtcPalCleanup
  RtcPalClearAssertRecords="C:\Windows\SysWOW64\rtmpal".RtcPalClearAssertRecords
  RtcPalCloseSocket="C:\Windows\SysWOW64\rtmpal".RtcPalCloseSocket
  RtcPalCloseSocketIOCP="C:\Windows\SysWOW64\rtmpal".RtcPalCloseSocketIOCP
  RtcPalCloseWaitableHandle="C:\Windows\SysWOW64\rtmpal".RtcPalCloseWaitableHandle
  RtcPalCoWaitForAnyObject="C:\Windows\SysWOW64\rtmpal".RtcPalCoWaitForAnyObject
  RtcPalConnect="C:\Windows\SysWOW64\rtmpal".RtcPalConnect
  RtcPalConnectToHostname="C:\Windows\SysWOW64\rtmpal".RtcPalConnectToHostname
  RtcPalCreateCallContext="C:\Windows\SysWOW64\rtmpal".RtcPalCreateCallContext
  RtcPalCreateEvent="C:\Windows\SysWOW64\rtmpal".RtcPalCreateEvent
  RtcPalCreateSemaphore="C:\Windows\SysWOW64\rtmpal".RtcPalCreateSemaphore
  RtcPalCreateSocket="C:\Windows\SysWOW64\rtmpal".RtcPalCreateSocket
  RtcPalCreateSocketIOCP="C:\Windows\SysWOW64\rtmpal".RtcPalCreateSocketIOCP
  RtcPalCreateThread="C:\Windows\SysWOW64\rtmpal".RtcPalCreateThread
  RtcPalCryptCleanup="C:\Windows\SysWOW64\rtmpal".RtcPalCryptCleanup
  RtcPalCryptGenRandom="C:\Windows\SysWOW64\rtmpal".RtcPalCryptGenRandom
  RtcPalCryptHMACSHA1Create="C:\Windows\SysWOW64\rtmpal".RtcPalCryptHMACSHA1Create
  RtcPalCryptHMACSHA1CreateKey="C:\Windows\SysWOW64\rtmpal".RtcPalCryptHMACSHA1CreateKey
  RtcPalCryptHMACSHA1Destroy="C:\Windows\SysWOW64\rtmpal".RtcPalCryptHMACSHA1Destroy
  RtcPalCryptHMACSHA1DestroyKey="C:\Windows\SysWOW64\rtmpal".RtcPalCryptHMACSHA1DestroyKey
  RtcPalCryptHMACSHA1DupeContext="C:\Windows\SysWOW64\rtmpal".RtcPalCryptHMACSHA1DupeContext
  RtcPalCryptHMACSHA1Final="C:\Windows\SysWOW64\rtmpal".RtcPalCryptHMACSHA1Final
  RtcPalCryptHMACSHA1Update="C:\Windows\SysWOW64\rtmpal".RtcPalCryptHMACSHA1Update
  RtcPalCryptHMACSHA256Create="C:\Windows\SysWOW64\rtmpal".RtcPalCryptHMACSHA256Create
  RtcPalCryptHMACSHA256CreateKey="C:\Windows\SysWOW64\rtmpal".RtcPalCryptHMACSHA256CreateKey
  RtcPalCryptHMACSHA256Destroy="C:\Windows\SysWOW64\rtmpal".RtcPalCryptHMACSHA256Destroy
  RtcPalCryptHMACSHA256DestroyKey="C:\Windows\SysWOW64\rtmpal".RtcPalCryptHMACSHA256DestroyKey
  RtcPalCryptHMACSHA256DupeContext="C:\Windows\SysWOW64\rtmpal".RtcPalCryptHMACSHA256DupeContext
  RtcPalCryptHMACSHA256Final="C:\Windows\SysWOW64\rtmpal".RtcPalCryptHMACSHA256Final
  RtcPalCryptHMACSHA256Update="C:\Windows\SysWOW64\rtmpal".RtcPalCryptHMACSHA256Update
  RtcPalCryptMD5Create="C:\Windows\SysWOW64\rtmpal".RtcPalCryptMD5Create
  RtcPalCryptMD5Destroy="C:\Windows\SysWOW64\rtmpal".RtcPalCryptMD5Destroy
  RtcPalCryptMD5Final="C:\Windows\SysWOW64\rtmpal".RtcPalCryptMD5Final
  RtcPalCryptMD5Update="C:\Windows\SysWOW64\rtmpal".RtcPalCryptMD5Update
  RtcPalCryptStartup="C:\Windows\SysWOW64\rtmpal".RtcPalCryptStartup
  RtcPalDeinitTracing="C:\Windows\SysWOW64\rtmpal".RtcPalDeinitTracing
  RtcPalDeleteSlimLock="C:\Windows\SysWOW64\rtmpal".RtcPalDeleteSlimLock
  RtcPalDestroyAesKey="C:\Windows\SysWOW64\rtmpal".RtcPalDestroyAesKey
  RtcPalDeviceAudioGetGlitchInfo="C:\Windows\SysWOW64\rtmpal".RtcPalDeviceAudioGetGlitchInfo
  RtcPalDeviceAudioGetMetrics="C:\Windows\SysWOW64\rtmpal".RtcPalDeviceAudioGetMetrics
  RtcPalDeviceAudioGetProcessingFeatures="C:\Windows\SysWOW64\rtmpal".RtcPalDeviceAudioGetProcessingFeatures
  RtcPalDeviceAudioGetQueuedBytes="C:\Windows\SysWOW64\rtmpal".RtcPalDeviceAudioGetQueuedBytes
  RtcPalDeviceAudioGetSupportedProcessingCapacity="C:\Windows\SysWOW64\rtmpal".RtcPalDeviceAudioGetSupportedProcessingCapacity
  RtcPalDeviceAudioLockBuffer="C:\Windows\SysWOW64\rtmpal".RtcPalDeviceAudioLockBuffer
  RtcPalDeviceAudioReset="C:\Windows\SysWOW64\rtmpal".RtcPalDeviceAudioReset
  RtcPalDeviceAudioSetActiveEndpoint="C:\Windows\SysWOW64\rtmpal".RtcPalDeviceAudioSetActiveEndpoint
  RtcPalDeviceAudioSetProcessingFeatures="C:\Windows\SysWOW64\rtmpal".RtcPalDeviceAudioSetProcessingFeatures
  RtcPalDeviceAudioStart="C:\Windows\SysWOW64\rtmpal".RtcPalDeviceAudioStart
  RtcPalDeviceAudioStop="C:\Windows\SysWOW64\rtmpal".RtcPalDeviceAudioStop
  RtcPalDeviceAudioUnlockBuffer="C:\Windows\SysWOW64\rtmpal".RtcPalDeviceAudioUnlockBuffer
  RtcPalDeviceErrorCodeFromHResult="C:\Windows\SysWOW64\rtmpal".RtcPalDeviceErrorCodeFromHResult
  RtcPalDeviceIsErrorCodeRecoverable="C:\Windows\SysWOW64\rtmpal".RtcPalDeviceIsErrorCodeRecoverable
  RtcPalDevicePlatformClose="C:\Windows\SysWOW64\rtmpal".RtcPalDevicePlatformClose
  RtcPalDevicePlatformCloseDevice="C:\Windows\SysWOW64\rtmpal".RtcPalDevicePlatformCloseDevice
  RtcPalDevicePlatformCloseHIDContext="C:\Windows\SysWOW64\rtmpal".RtcPalDevicePlatformCloseHIDContext
  RtcPalDevicePlatformCompareDeviceId="C:\Windows\SysWOW64\rtmpal".RtcPalDevicePlatformCompareDeviceId
  RtcPalDevicePlatformCreateDeviceId="C:\Windows\SysWOW64\rtmpal".RtcPalDevicePlatformCreateDeviceId
  RtcPalDevicePlatformDeviceRegisterNotification="C:\Windows\SysWOW64\rtmpal".RtcPalDevicePlatformDeviceRegisterNotification
  RtcPalDevicePlatformDisposeDeviceId="C:\Windows\SysWOW64\rtmpal".RtcPalDevicePlatformDisposeDeviceId
  RtcPalDevicePlatformDuplicateDeviceId="C:\Windows\SysWOW64\rtmpal".RtcPalDevicePlatformDuplicateDeviceId
  RtcPalDevicePlatformEnableAudio="C:\Windows\SysWOW64\rtmpal".RtcPalDevicePlatformEnableAudio
  RtcPalDevicePlatformEnumDevices="C:\Windows\SysWOW64\rtmpal".RtcPalDevicePlatformEnumDevices
  RtcPalDevicePlatformGetAudioCertifiedListId="C:\Windows\SysWOW64\rtmpal".RtcPalDevicePlatformGetAudioCertifiedListId
  RtcPalDevicePlatformGetAutoBoostControlEnabled="C:\Windows\SysWOW64\rtmpal".RtcPalDevicePlatformGetAutoBoostControlEnabled
  RtcPalDevicePlatformGetDeviceList="C:\Windows\SysWOW64\rtmpal".RtcPalDevicePlatformGetDeviceList
  RtcPalDevicePlatformGetHIDInformation="C:\Windows\SysWOW64\rtmpal".RtcPalDevicePlatformGetHIDInformation
  RtcPalDevicePlatformGetMediaExtension="C:\Windows\SysWOW64\rtmpal".RtcPalDevicePlatformGetMediaExtension
  RtcPalDevicePlatformGetVolumeInfo="C:\Windows\SysWOW64\rtmpal".RtcPalDevicePlatformGetVolumeInfo
  RtcPalDevicePlatformGetVolumeInfoByDeviceHandle="C:\Windows\SysWOW64\rtmpal".RtcPalDevicePlatformGetVolumeInfoByDeviceHandle
  RtcPalDevicePlatformIsSamePhysicalDevice="C:\Windows\SysWOW64\rtmpal".RtcPalDevicePlatformIsSamePhysicalDevice
  RtcPalDevicePlatformOpen="C:\Windows\SysWOW64\rtmpal".RtcPalDevicePlatformOpen
  RtcPalDevicePlatformOpenAudioDevice="C:\Windows\SysWOW64\rtmpal".RtcPalDevicePlatformOpenAudioDevice
  RtcPalDevicePlatformOpenAudioLoopbackDevice="C:\Windows\SysWOW64\rtmpal".RtcPalDevicePlatformOpenAudioLoopbackDevice
  RtcPalDevicePlatformOpenHIDContext="C:\Windows\SysWOW64\rtmpal".RtcPalDevicePlatformOpenHIDContext
  RtcPalDevicePlatformRegisterNotification="C:\Windows\SysWOW64\rtmpal".RtcPalDevicePlatformRegisterNotification
  RtcPalDevicePlatformSetAutoBoostControlEnabled="C:\Windows\SysWOW64\rtmpal".RtcPalDevicePlatformSetAutoBoostControlEnabled
  RtcPalDevicePlatformSetHIDInformation="C:\Windows\SysWOW64\rtmpal".RtcPalDevicePlatformSetHIDInformation
  RtcPalDevicePlatformSetState="C:\Windows\SysWOW64\rtmpal".RtcPalDevicePlatformSetState
  RtcPalDevicePlatformSetVolumeInfo="C:\Windows\SysWOW64\rtmpal".RtcPalDevicePlatformSetVolumeInfo
  RtcPalDevicePlatformUnregisterNotification="C:\Windows\SysWOW64\rtmpal".RtcPalDevicePlatformUnregisterNotification
  RtcPalEnableCallContextTracingControl="C:\Windows\SysWOW64\rtmpal".RtcPalEnableCallContextTracingControl
  RtcPalEnableEtwTracing="C:\Windows\SysWOW64\rtmpal".RtcPalEnableEtwTracing
  RtcPalEnableRDTSCTime="C:\Windows\SysWOW64\rtmpal".RtcPalEnableRDTSCTime
  RtcPalEnableTracing="C:\Windows\SysWOW64\rtmpal".RtcPalEnableTracing
  RtcPalFlushTracing="C:\Windows\SysWOW64\rtmpal".RtcPalFlushTracing
  RtcPalFreeIfAddrs="C:\Windows\SysWOW64\rtmpal".RtcPalFreeIfAddrs
  RtcPalFreeMemoryWithTag="C:\Windows\SysWOW64\rtmpal".RtcPalFreeMemoryWithTag
  RtcPalFreeWorkItem="C:\Windows\SysWOW64\rtmpal".RtcPalFreeWorkItem
  RtcPalGetADSPConfig="C:\Windows\SysWOW64\rtmpal".RtcPalGetADSPConfig
  RtcPalGetADSPLogFolder="C:\Windows\SysWOW64\rtmpal".RtcPalGetADSPLogFolder
  RtcPalGetAllEcsSettings="C:\Windows\SysWOW64\rtmpal".RtcPalGetAllEcsSettings
  RtcPalGetAssertRecords="C:\Windows\SysWOW64\rtmpal".RtcPalGetAssertRecords
  RtcPalGetBestSourceAddress="C:\Windows\SysWOW64\rtmpal".RtcPalGetBestSourceAddress
  RtcPalGetComputerNameW="C:\Windows\SysWOW64\rtmpal".RtcPalGetComputerNameW
  RtcPalGetDataConvSignature="C:\Windows\SysWOW64\rtmpal".RtcPalGetDataConvSignature
  RtcPalGetEcsSetting="C:\Windows\SysWOW64\rtmpal".RtcPalGetEcsSetting
  RtcPalGetExitCodeThread="C:\Windows\SysWOW64\rtmpal".RtcPalGetExitCodeThread
  RtcPalGetFipsComplianceMode="C:\Windows\SysWOW64\rtmpal".RtcPalGetFipsComplianceMode
  RtcPalGetHostCName="C:\Windows\SysWOW64\rtmpal".RtcPalGetHostCName
  RtcPalGetIfAddrs="C:\Windows\SysWOW64\rtmpal".RtcPalGetIfAddrs
  RtcPalGetLastError="C:\Windows\SysWOW64\rtmpal".RtcPalGetLastError
  RtcPalGetLocalStateFolderW="C:\Windows\SysWOW64\rtmpal".RtcPalGetLocalStateFolderW
  RtcPalGetMachineInfo="C:\Windows\SysWOW64\rtmpal".RtcPalGetMachineInfo
  RtcPalGetOSName="C:\Windows\SysWOW64\rtmpal".RtcPalGetOSName
  RtcPalGetPeerName="C:\Windows\SysWOW64\rtmpal".RtcPalGetPeerName
  RtcPalGetPlatformProfile="C:\Windows\SysWOW64\rtmpal".RtcPalGetPlatformProfile
  RtcPalGetPrivateMemoryUsageInMB="C:\Windows\SysWOW64\rtmpal".RtcPalGetPrivateMemoryUsageInMB
  RtcPalGetSockName="C:\Windows\SysWOW64\rtmpal".RtcPalGetSockName
  RtcPalGetSocketIOCPQueuedCompletionStatus="C:\Windows\SysWOW64\rtmpal".RtcPalGetSocketIOCPQueuedCompletionStatus
  RtcPalGetSystemConfigurationInfo="C:\Windows\SysWOW64\rtmpal".RtcPalGetSystemConfigurationInfo
  RtcPalGetSystemMetricsTemplate="C:\Windows\SysWOW64\rtmpal".RtcPalGetSystemMetricsTemplate
  RtcPalGetTimeDouble="C:\Windows\SysWOW64\rtmpal".RtcPalGetTimeDouble
  RtcPalGetTimeLongIn100ns="C:\Windows\SysWOW64\rtmpal".RtcPalGetTimeLongIn100ns
  RtcPalGetTimeLongIn100nsFast="C:\Windows\SysWOW64\rtmpal".RtcPalGetTimeLongIn100nsFast
  RtcPalGetTracingPath="C:\Windows\SysWOW64\rtmpal".RtcPalGetTracingPath
  RtcPalGetUserName="C:\Windows\SysWOW64\rtmpal".RtcPalGetUserName
  RtcPalGetWinSATVideoEncodeScore="C:\Windows\SysWOW64\rtmpal".RtcPalGetWinSATVideoEncodeScore
  RtcPalInitCollectSystemMetrics="C:\Windows\SysWOW64\rtmpal".RtcPalInitCollectSystemMetrics
  RtcPalInitThreadAttr="C:\Windows\SysWOW64\rtmpal".RtcPalInitThreadAttr
  RtcPalInitTracing="C:\Windows\SysWOW64\rtmpal".RtcPalInitTracing
  RtcPalInitializeCriticalSection="C:\Windows\SysWOW64\rtmpal".RtcPalInitializeCriticalSection
  RtcPalInitializeCriticalSectionAndSpinCount="C:\Windows\SysWOW64\rtmpal".RtcPalInitializeCriticalSectionAndSpinCount
  RtcPalInitializeSlimLock="C:\Windows\SysWOW64\rtmpal".RtcPalInitializeSlimLock
  RtcPalIsAssertTraceEnabled="C:\Windows\SysWOW64\rtmpal".RtcPalIsAssertTraceEnabled
  RtcPalIsAutomaticProxyTraversalSupported="C:\Windows\SysWOW64\rtmpal".RtcPalIsAutomaticProxyTraversalSupported
  RtcPalIsCallContextTracingControlEnabled="C:\Windows\SysWOW64\rtmpal".RtcPalIsCallContextTracingControlEnabled
  RtcPalIsEtwTracingEnabled="C:\Windows\SysWOW64\rtmpal".RtcPalIsEtwTracingEnabled
  RtcPalIsLaptop="C:\Windows\SysWOW64\rtmpal".RtcPalIsLaptop
  RtcPalIsTracingEnabled="C:\Windows\SysWOW64\rtmpal".RtcPalIsTracingEnabled
  RtcPalListen="C:\Windows\SysWOW64\rtmpal".RtcPalListen
  RtcPalLoadLibrary="C:\Windows\SysWOW64\rtmpal".RtcPalLoadLibrary
  RtcPalLoadSystem32Library="C:\Windows\SysWOW64\rtmpal".RtcPalLoadSystem32Library
  RtcPalMFHasDXGI="C:\Windows\SysWOW64\rtmpal".RtcPalMFHasDXGI
  RtcPalMFHasSourceReader="C:\Windows\SysWOW64\rtmpal".RtcPalMFHasSourceReader
  RtcPalNetAddressToStringA="C:\Windows\SysWOW64\rtmpal".RtcPalNetAddressToStringA
  RtcPalNetAddressToStringW="C:\Windows\SysWOW64\rtmpal".RtcPalNetAddressToStringW
  RtcPalNetCleanup="C:\Windows\SysWOW64\rtmpal".RtcPalNetCleanup
  RtcPalNetStartup="C:\Windows\SysWOW64\rtmpal".RtcPalNetStartup
  RtcPalNetStringToIPAddressA="C:\Windows\SysWOW64\rtmpal".RtcPalNetStringToIPAddressA
  RtcPalNetStringToIPAddressW="C:\Windows\SysWOW64\rtmpal".RtcPalNetStringToIPAddressW
  RtcPalNetStringToIPv4AddressA="C:\Windows\SysWOW64\rtmpal".RtcPalNetStringToIPv4AddressA
  RtcPalNetStringToIPv4AddressW="C:\Windows\SysWOW64\rtmpal".RtcPalNetStringToIPv4AddressW
  RtcPalNetStringToIPv6AddressA="C:\Windows\SysWOW64\rtmpal".RtcPalNetStringToIPv6AddressA
  RtcPalNetStringToIPv6AddressW="C:\Windows\SysWOW64\rtmpal".RtcPalNetStringToIPv6AddressW
  RtcPalPerfCounterToNanoseconds="C:\Windows\SysWOW64\rtmpal".RtcPalPerfCounterToNanoseconds
  RtcPalPerfCounterToSeconds="C:\Windows\SysWOW64\rtmpal".RtcPalPerfCounterToSeconds
  RtcPalPopulateNetworkInterfaceIdForTraceLoggingEvent="C:\Windows\SysWOW64\rtmpal".RtcPalPopulateNetworkInterfaceIdForTraceLoggingEvent
  RtcPalPostSocketIOCPQueuedCompletionStatus="C:\Windows\SysWOW64\rtmpal".RtcPalPostSocketIOCPQueuedCompletionStatus
  RtcPalQueryPerformanceCounter="C:\Windows\SysWOW64\rtmpal".RtcPalQueryPerformanceCounter
  RtcPalQueueWorkItem="C:\Windows\SysWOW64\rtmpal".RtcPalQueueWorkItem
  RtcPalRecv="C:\Windows\SysWOW64\rtmpal".RtcPalRecv
  RtcPalRecvFrom="C:\Windows\SysWOW64\rtmpal".RtcPalRecvFrom
  RtcPalRefreshMemoryTrackerCallStack="C:\Windows\SysWOW64\rtmpal".RtcPalRefreshMemoryTrackerCallStack
  RtcPalRegCloseKey="C:\Windows\SysWOW64\rtmpal".RtcPalRegCloseKey
  RtcPalRegCreateKeyExA="C:\Windows\SysWOW64\rtmpal".RtcPalRegCreateKeyExA
  RtcPalRegCreateKeyExW="C:\Windows\SysWOW64\rtmpal".RtcPalRegCreateKeyExW
  RtcPalRegDeleteKeyW="C:\Windows\SysWOW64\rtmpal".RtcPalRegDeleteKeyW
  RtcPalRegOpenKeyExA="C:\Windows\SysWOW64\rtmpal".RtcPalRegOpenKeyExA
  RtcPalRegOpenKeyExW="C:\Windows\SysWOW64\rtmpal".RtcPalRegOpenKeyExW
  RtcPalRegQueryValueExA="C:\Windows\SysWOW64\rtmpal".RtcPalRegQueryValueExA
  RtcPalRegQueryValueExW="C:\Windows\SysWOW64\rtmpal".RtcPalRegQueryValueExW
  RtcPalRegSetValueExA="C:\Windows\SysWOW64\rtmpal".RtcPalRegSetValueExA
  RtcPalRegSetValueExW="C:\Windows\SysWOW64\rtmpal".RtcPalRegSetValueExW
  RtcPalRegisterSocket="C:\Windows\SysWOW64\rtmpal".RtcPalRegisterSocket
  RtcPalRegisterTraceGuids="C:\Windows\SysWOW64\rtmpal".RtcPalRegisterTraceGuids
  RtcPalReleaseSemaphore="C:\Windows\SysWOW64\rtmpal".RtcPalReleaseSemaphore
  RtcPalReleaseSlimLock="C:\Windows\SysWOW64\rtmpal".RtcPalReleaseSlimLock
  RtcPalReportAssert="C:\Windows\SysWOW64\rtmpal".RtcPalReportAssert
  RtcPalResetAllEcsSettings="C:\Windows\SysWOW64\rtmpal".RtcPalResetAllEcsSettings
  RtcPalResetEvent="C:\Windows\SysWOW64\rtmpal".RtcPalResetEvent
  RtcPalSecureZeroMemory="C:\Windows\SysWOW64\rtmpal".RtcPalSecureZeroMemory
  RtcPalSend="C:\Windows\SysWOW64\rtmpal".RtcPalSend
  RtcPalSendTo="C:\Windows\SysWOW64\rtmpal".RtcPalSendTo
  RtcPalSetAesKey="C:\Windows\SysWOW64\rtmpal".RtcPalSetAesKey
  RtcPalSetEcsSetting="C:\Windows\SysWOW64\rtmpal".RtcPalSetEcsSetting
  RtcPalSetEcsSettingById="C:\Windows\SysWOW64\rtmpal".RtcPalSetEcsSettingById
  RtcPalSetEvent="C:\Windows\SysWOW64\rtmpal".RtcPalSetEvent
  RtcPalSetLastError="C:\Windows\SysWOW64\rtmpal".RtcPalSetLastError
  RtcPalSetLogPath="C:\Windows\SysWOW64\rtmpal".RtcPalSetLogPath
  RtcPalSetPlatformProfile="C:\Windows\SysWOW64\rtmpal".RtcPalSetPlatformProfile
  RtcPalSetSchedulerPolicy="C:\Windows\SysWOW64\rtmpal".RtcPalSetSchedulerPolicy
  RtcPalSocketEnableLowLatency="C:\Windows\SysWOW64\rtmpal".RtcPalSocketEnableLowLatency
  RtcPalSocketSetBroadcast="C:\Windows\SysWOW64\rtmpal".RtcPalSocketSetBroadcast
  RtcPalSocketSetLinger="C:\Windows\SysWOW64\rtmpal".RtcPalSocketSetLinger
  RtcPalSocketSetNonBlockingMode="C:\Windows\SysWOW64\rtmpal".RtcPalSocketSetNonBlockingMode
  RtcPalSocketSetQoSDSCP="C:\Windows\SysWOW64\rtmpal".RtcPalSocketSetQoSDSCP
  RtcPalSocketSetRecvBufSize="C:\Windows\SysWOW64\rtmpal".RtcPalSocketSetRecvBufSize
  RtcPalSocketSetSendBufSize="C:\Windows\SysWOW64\rtmpal".RtcPalSocketSetSendBufSize
  RtcPalSocketSetTcpNoDelay="C:\Windows\SysWOW64\rtmpal".RtcPalSocketSetTcpNoDelay
  RtcPalStartCollectSystemMetrics="C:\Windows\SysWOW64\rtmpal".RtcPalStartCollectSystemMetrics
  RtcPalStartup="C:\Windows\SysWOW64\rtmpal".RtcPalStartup
  RtcPalStopCollectSystemMetrics="C:\Windows\SysWOW64\rtmpal".RtcPalStopCollectSystemMetrics
  RtcPalTaskQueueCreate="C:\Windows\SysWOW64\rtmpal".RtcPalTaskQueueCreate
  RtcPalTaskQueueDequeue="C:\Windows\SysWOW64\rtmpal".RtcPalTaskQueueDequeue
  RtcPalTaskQueueDestroy="C:\Windows\SysWOW64\rtmpal".RtcPalTaskQueueDestroy
  RtcPalTaskQueueEnqueue="C:\Windows\SysWOW64\rtmpal".RtcPalTaskQueueEnqueue
  RtcPalTraceCondIfTrue="C:\Windows\SysWOW64\rtmpal".RtcPalTraceCondIfTrue
  RtcPalTraceLoggingWrite="C:\Windows\SysWOW64\rtmpal".RtcPalTraceLoggingWrite
  RtcPalTraceRt="C:\Windows\SysWOW64\rtmpal".RtcPalTraceRt
  RtcPalTryAcquireSlimLock="C:\Windows\SysWOW64\rtmpal".RtcPalTryAcquireSlimLock
  RtcPalUninitCollectSystemMetrics="C:\Windows\SysWOW64\rtmpal".RtcPalUninitCollectSystemMetrics
  RtcPalWaitAndCancelPendingCallback="C:\Windows\SysWOW64\rtmpal".RtcPalWaitAndCancelPendingCallback
  RtcPalWaitForAllThreads="C:\Windows\SysWOW64\rtmpal".RtcPalWaitForAllThreads
  RtcPalWaitForAnyObject="C:\Windows\SysWOW64\rtmpal".RtcPalWaitForAnyObject
  RtcPalWaitForSingleObject="C:\Windows\SysWOW64\rtmpal".RtcPalWaitForSingleObject
  RtcPalWlanEnterMediaStreamingMode="C:\Windows\SysWOW64\rtmpal".RtcPalWlanEnterMediaStreamingMode
  RtcPalWlanLeaveMediaStreamingMode="C:\Windows\SysWOW64\rtmpal".RtcPalWlanLeaveMediaStreamingMode
  SetLastError="C:\Windows\SysWOW64\rtmpal".SetLastError
  TraceMessage="C:\Windows\SysWOW64\rtmpal".TraceMessage
  UnregisterTraceGuids="C:\Windows\SysWOW64\rtmpal".UnregisterTraceGuids
  WideCharToMultiByte="C:\Windows\SysWOW64\rtmpal".WideCharToMultiByte
  __imp_?PL_TEMP_DIR@spl@@3UPathLocation@1@A="C:\Windows\SysWOW64\rtmpal".__imp_?PL_TEMP_DIR@spl@@3UPathLocation@1@A
  aufLogHookInstall="C:\Windows\SysWOW64\rtmpal".aufLogHookInstall
  aufLogHookRemove="C:\Windows\SysWOW64\rtmpal".aufLogHookRemove
  auf_internal_log="C:\Windows\SysWOW64\rtmpal".auf_internal_log
  auf_internal_log_obfuscated="C:\Windows\SysWOW64\rtmpal".auf_internal_log_obfuscated
  auf_logcomponent_isenabled="C:\Windows\SysWOW64\rtmpal".auf_logcomponent_isenabled
  g_aufLogChannel="C:\Windows\SysWOW64\rtmpal".g_aufLogChannel
  g_aufLogNumHooks="C:\Windows\SysWOW64\rtmpal".g_aufLogNumHooks
  lstrcmpW="C:\Windows\SysWOW64\rtmpal".lstrcmpW
  lstrcmpiW="C:\Windows\SysWOW64\rtmpal".lstrcmpiW
  lstrlenA="C:\Windows\SysWOW64\rtmpal".lstrlenA
  lstrlenW="C:\Windows\SysWOW64\rtmpal".lstrlenW
  rtcpal_freeaddrinfo="C:\Windows\SysWOW64\rtmpal".rtcpal_freeaddrinfo
  rtcpal_getaddrinfo="C:\Windows\SysWOW64\rtmpal".rtcpal_getaddrinfo
  rtcpal_inet_addr="C:\Windows\SysWOW64\rtmpal".rtcpal_inet_addr
  rtcpal_inet_ntoa="C:\Windows\SysWOW64\rtmpal".rtcpal_inet_ntoa
  rtcpal_recv="C:\Windows\SysWOW64\rtmpal".rtcpal_recv
  rtcpal_recvfrom="C:\Windows\SysWOW64\rtmpal".rtcpal_recvfrom
  rtcpal_send="C:\Windows\SysWOW64\rtmpal".rtcpal_send
  rtcpal_sendto="C:\Windows\SysWOW64\rtmpal".rtcpal_sendto
  spl_pii_OmitS="C:\Windows\SysWOW64\rtmpal".spl_pii_OmitS
  spl_pii_OmitW="C:\Windows\SysWOW64\rtmpal".spl_pii_OmitW
  spl_pii_UserIdW="C:\Windows\SysWOW64\rtmpal".spl_pii_UserIdW
  threadCurrentId="C:\Windows\SysWOW64\rtmpal".threadCurrentId
  threadYield="C:\Windows\SysWOW64\rtmpal".threadYield
