EXPORTS
  ??0?$CSimpleArray@PAGV?$CSimpleArrayEqualHelper@PAG@ATL@@@ATL@@QAE@ABV01@@Z="C:\Windows\SysWOW64\spwizeng".??0?$CSimpleArray@PAGV?$CSimpleArrayEqualHelper@PAG@ATL@@@ATL@@QAE@ABV01@@Z
  ??0?$CSimpleArray@PAGV?$CSimpleArrayEqualHelper@PAG@ATL@@@ATL@@QAE@XZ="C:\Windows\SysWOW64\spwizeng".??0?$CSimpleArray@PAGV?$CSimpleArrayEqualHelper@PAG@ATL@@@ATL@@QAE@XZ
  ??0?$CSimpleArray@PAUIResourceModuleEvent@@V?$CSimpleArrayEqualHelper@PAUIResourceModuleEvent@@@ATL@@@ATL@@QAE@ABV01@@Z="C:\Windows\SysWOW64\spwizeng".??0?$CSimpleArray@PAUIResourceModuleEvent@@V?$CSimpleArrayEqualHelper@PAUIResourceModuleEvent@@@ATL@@@ATL@@QAE@ABV01@@Z
  ??0?$CSimpleArray@PAUIResourceModuleEvent@@V?$CSimpleArrayEqualHelper@PAUIResourceModuleEvent@@@ATL@@@ATL@@QAE@XZ="C:\Windows\SysWOW64\spwizeng".??0?$CSimpleArray@PAUIResourceModuleEvent@@V?$CSimpleArrayEqualHelper@PAUIResourceModuleEvent@@@ATL@@@ATL@@QAE@XZ
  ??0?$CSimpleArray@PAUKEYBOARD@@V?$CSimpleArrayEqualHelper@PAUKEYBOARD@@@ATL@@@ATL@@QAE@ABV01@@Z="C:\Windows\SysWOW64\spwizeng".??0?$CSimpleArray@PAUKEYBOARD@@V?$CSimpleArrayEqualHelper@PAUKEYBOARD@@@ATL@@@ATL@@QAE@ABV01@@Z
  ??0?$CSimpleArray@PAUKEYBOARD@@V?$CSimpleArrayEqualHelper@PAUKEYBOARD@@@ATL@@@ATL@@QAE@XZ="C:\Windows\SysWOW64\spwizeng".??0?$CSimpleArray@PAUKEYBOARD@@V?$CSimpleArrayEqualHelper@PAUKEYBOARD@@@ATL@@@ATL@@QAE@XZ
  ??0?$CSimpleArray@PAULANGUAGE@@V?$CSimpleArrayEqualHelper@PAULANGUAGE@@@ATL@@@ATL@@QAE@ABV01@@Z="C:\Windows\SysWOW64\spwizeng".??0?$CSimpleArray@PAULANGUAGE@@V?$CSimpleArrayEqualHelper@PAULANGUAGE@@@ATL@@@ATL@@QAE@ABV01@@Z
  ??0?$CSimpleArray@PAULANGUAGE@@V?$CSimpleArrayEqualHelper@PAULANGUAGE@@@ATL@@@ATL@@QAE@XZ="C:\Windows\SysWOW64\spwizeng".??0?$CSimpleArray@PAULANGUAGE@@V?$CSimpleArrayEqualHelper@PAULANGUAGE@@@ATL@@@ATL@@QAE@XZ
  ??0?$CSimpleArray@PAULOCALE@@V?$CSimpleArrayEqualHelper@PAULOCALE@@@ATL@@@ATL@@QAE@ABV01@@Z="C:\Windows\SysWOW64\spwizeng".??0?$CSimpleArray@PAULOCALE@@V?$CSimpleArrayEqualHelper@PAULOCALE@@@ATL@@@ATL@@QAE@ABV01@@Z
  ??0?$CSimpleArray@PAULOCALE@@V?$CSimpleArrayEqualHelper@PAULOCALE@@@ATL@@@ATL@@QAE@XZ="C:\Windows\SysWOW64\spwizeng".??0?$CSimpleArray@PAULOCALE@@V?$CSimpleArrayEqualHelper@PAULOCALE@@@ATL@@@ATL@@QAE@XZ
  ??0?$CSimpleStringT@G$0A@@ATL@@QAE@ABV01@@Z="C:\Windows\SysWOW64\spwizeng".??0?$CSimpleStringT@G$0A@@ATL@@QAE@ABV01@@Z
  ??0?$CSimpleStringT@G$0A@@ATL@@QAE@ABV?$CSimpleStringT@G$00@1@@Z="C:\Windows\SysWOW64\spwizeng".??0?$CSimpleStringT@G$0A@@ATL@@QAE@ABV?$CSimpleStringT@G$00@1@@Z
  ??0?$CSimpleStringT@G$0A@@ATL@@QAE@PAUIAtlStringMgr@1@@Z="C:\Windows\SysWOW64\spwizeng".??0?$CSimpleStringT@G$0A@@ATL@@QAE@PAUIAtlStringMgr@1@@Z
  ??0?$CSimpleStringT@G$0A@@ATL@@QAE@PBGHPAUIAtlStringMgr@1@@Z="C:\Windows\SysWOW64\spwizeng".??0?$CSimpleStringT@G$0A@@ATL@@QAE@PBGHPAUIAtlStringMgr@1@@Z
  ??0?$CSimpleStringT@G$0A@@ATL@@QAE@PBGPAUIAtlStringMgr@1@@Z="C:\Windows\SysWOW64\spwizeng".??0?$CSimpleStringT@G$0A@@ATL@@QAE@PBGPAUIAtlStringMgr@1@@Z
  ??0?$CStringT@GV?$StrTraitATL@GV?$ChTraitsCRT@G@ATL@@@ATL@@@ATL@@QAE@ABUtagVARIANT@@@Z="C:\Windows\SysWOW64\spwizeng".??0?$CStringT@GV?$StrTraitATL@GV?$ChTraitsCRT@G@ATL@@@ATL@@@ATL@@QAE@ABUtagVARIANT@@@Z
  ??0?$CStringT@GV?$StrTraitATL@GV?$ChTraitsCRT@G@ATL@@@ATL@@@ATL@@QAE@ABUtagVARIANT@@PAUIAtlStringMgr@1@@Z="C:\Windows\SysWOW64\spwizeng".??0?$CStringT@GV?$StrTraitATL@GV?$ChTraitsCRT@G@ATL@@@ATL@@@ATL@@QAE@ABUtagVARIANT@@PAUIAtlStringMgr@1@@Z
  ??0?$CStringT@GV?$StrTraitATL@GV?$ChTraitsCRT@G@ATL@@@ATL@@@ATL@@QAE@ABV01@@Z="C:\Windows\SysWOW64\spwizeng".??0?$CStringT@GV?$StrTraitATL@GV?$ChTraitsCRT@G@ATL@@@ATL@@@ATL@@QAE@ABV01@@Z
  ??0?$CStringT@GV?$StrTraitATL@GV?$ChTraitsCRT@G@ATL@@@ATL@@@ATL@@QAE@DH@Z="C:\Windows\SysWOW64\spwizeng".??0?$CStringT@GV?$StrTraitATL@GV?$ChTraitsCRT@G@ATL@@@ATL@@@ATL@@QAE@DH@Z
  ??0?$CStringT@GV?$StrTraitATL@GV?$ChTraitsCRT@G@ATL@@@ATL@@@ATL@@QAE@GH@Z="C:\Windows\SysWOW64\spwizeng".??0?$CStringT@GV?$StrTraitATL@GV?$ChTraitsCRT@G@ATL@@@ATL@@@ATL@@QAE@GH@Z
  ??0?$CStringT@GV?$StrTraitATL@GV?$ChTraitsCRT@G@ATL@@@ATL@@@ATL@@QAE@PAUIAtlStringMgr@1@@Z="C:\Windows\SysWOW64\spwizeng".??0?$CStringT@GV?$StrTraitATL@GV?$ChTraitsCRT@G@ATL@@@ATL@@@ATL@@QAE@PAUIAtlStringMgr@1@@Z
  ??0?$CStringT@GV?$StrTraitATL@GV?$ChTraitsCRT@G@ATL@@@ATL@@@ATL@@QAE@PBD@Z="C:\Windows\SysWOW64\spwizeng".??0?$CStringT@GV?$StrTraitATL@GV?$ChTraitsCRT@G@ATL@@@ATL@@@ATL@@QAE@PBD@Z
  ??0?$CStringT@GV?$StrTraitATL@GV?$ChTraitsCRT@G@ATL@@@ATL@@@ATL@@QAE@PBDH@Z="C:\Windows\SysWOW64\spwizeng".??0?$CStringT@GV?$StrTraitATL@GV?$ChTraitsCRT@G@ATL@@@ATL@@@ATL@@QAE@PBDH@Z
  ??0?$CStringT@GV?$StrTraitATL@GV?$ChTraitsCRT@G@ATL@@@ATL@@@ATL@@QAE@PBDHPAUIAtlStringMgr@1@@Z="C:\Windows\SysWOW64\spwizeng".??0?$CStringT@GV?$StrTraitATL@GV?$ChTraitsCRT@G@ATL@@@ATL@@@ATL@@QAE@PBDHPAUIAtlStringMgr@1@@Z
  ??0?$CStringT@GV?$StrTraitATL@GV?$ChTraitsCRT@G@ATL@@@ATL@@@ATL@@QAE@PBDPAUIAtlStringMgr@1@@Z="C:\Windows\SysWOW64\spwizeng".??0?$CStringT@GV?$StrTraitATL@GV?$ChTraitsCRT@G@ATL@@@ATL@@@ATL@@QAE@PBDPAUIAtlStringMgr@1@@Z
  ??0?$CStringT@GV?$StrTraitATL@GV?$ChTraitsCRT@G@ATL@@@ATL@@@ATL@@QAE@PBE@Z="C:\Windows\SysWOW64\spwizeng".??0?$CStringT@GV?$StrTraitATL@GV?$ChTraitsCRT@G@ATL@@@ATL@@@ATL@@QAE@PBE@Z
  ??0?$CStringT@GV?$StrTraitATL@GV?$ChTraitsCRT@G@ATL@@@ATL@@@ATL@@QAE@PBEPAUIAtlStringMgr@1@@Z="C:\Windows\SysWOW64\spwizeng".??0?$CStringT@GV?$StrTraitATL@GV?$ChTraitsCRT@G@ATL@@@ATL@@@ATL@@QAE@PBEPAUIAtlStringMgr@1@@Z
  ??0?$CStringT@GV?$StrTraitATL@GV?$ChTraitsCRT@G@ATL@@@ATL@@@ATL@@QAE@PBG@Z="C:\Windows\SysWOW64\spwizeng".??0?$CStringT@GV?$StrTraitATL@GV?$ChTraitsCRT@G@ATL@@@ATL@@@ATL@@QAE@PBG@Z
  ??0?$CStringT@GV?$StrTraitATL@GV?$ChTraitsCRT@G@ATL@@@ATL@@@ATL@@QAE@PBGH@Z="C:\Windows\SysWOW64\spwizeng".??0?$CStringT@GV?$StrTraitATL@GV?$ChTraitsCRT@G@ATL@@@ATL@@@ATL@@QAE@PBGH@Z
  ??0?$CStringT@GV?$StrTraitATL@GV?$ChTraitsCRT@G@ATL@@@ATL@@@ATL@@QAE@PBGHPAUIAtlStringMgr@1@@Z="C:\Windows\SysWOW64\spwizeng".??0?$CStringT@GV?$StrTraitATL@GV?$ChTraitsCRT@G@ATL@@@ATL@@@ATL@@QAE@PBGHPAUIAtlStringMgr@1@@Z
  ??0?$CStringT@GV?$StrTraitATL@GV?$ChTraitsCRT@G@ATL@@@ATL@@@ATL@@QAE@PBGPAUIAtlStringMgr@1@@Z="C:\Windows\SysWOW64\spwizeng".??0?$CStringT@GV?$StrTraitATL@GV?$ChTraitsCRT@G@ATL@@@ATL@@@ATL@@QAE@PBGPAUIAtlStringMgr@1@@Z
  ??0?$CStringT@GV?$StrTraitATL@GV?$ChTraitsCRT@G@ATL@@@ATL@@@ATL@@QAE@XZ="C:\Windows\SysWOW64\spwizeng".??0?$CStringT@GV?$StrTraitATL@GV?$ChTraitsCRT@G@ATL@@@ATL@@@ATL@@QAE@XZ
  ??0AppWindow@@QAE@ABV0@@Z="C:\Windows\SysWOW64\spwizeng".??0AppWindow@@QAE@ABV0@@Z
  ??0AppWindow@@QAE@PAVWizardUI@@I@Z="C:\Windows\SysWOW64\spwizeng".??0AppWindow@@QAE@PAVWizardUI@@I@Z
  ??0BranchWizStrategy@@QAE@$$QAV0@@Z="C:\Windows\SysWOW64\spwizeng".??0BranchWizStrategy@@QAE@$$QAV0@@Z
  ??0BranchWizStrategy@@QAE@ABV0@@Z="C:\Windows\SysWOW64\spwizeng".??0BranchWizStrategy@@QAE@ABV0@@Z
  ??0BranchWizStrategy@@QAE@PAVWizardEx@@@Z="C:\Windows\SysWOW64\spwizeng".??0BranchWizStrategy@@QAE@PAVWizardEx@@@Z
  ??0CAnimation@@QAE@ABV0@@Z="C:\Windows\SysWOW64\spwizeng".??0CAnimation@@QAE@ABV0@@Z
  ??0CAnimation@@QAE@XZ="C:\Windows\SysWOW64\spwizeng".??0CAnimation@@QAE@XZ
  ??0CAnimationControl@@QAE@ABV0@@Z="C:\Windows\SysWOW64\spwizeng".??0CAnimationControl@@QAE@ABV0@@Z
  ??0CAnimationControl@@QAE@XZ="C:\Windows\SysWOW64\spwizeng".??0CAnimationControl@@QAE@XZ
  ??0CAttachDataDlg@@QAE@ABV0@@Z="C:\Windows\SysWOW64\spwizeng".??0CAttachDataDlg@@QAE@ABV0@@Z
  ??0CAttachDataDlg@@QAE@PAUHINSTANCE__@@0@Z="C:\Windows\SysWOW64\spwizeng".??0CAttachDataDlg@@QAE@PAUHINSTANCE__@@0@Z
  ??0CCritSec@@QAE@ABV0@@Z="C:\Windows\SysWOW64\spwizeng".??0CCritSec@@QAE@ABV0@@Z
  ??0CCritSec@@QAE@XZ="C:\Windows\SysWOW64\spwizeng".??0CCritSec@@QAE@XZ
  ??0CCtlText@@QAE@ABV0@@Z="C:\Windows\SysWOW64\spwizeng".??0CCtlText@@QAE@ABV0@@Z
  ??0CCtlText@@QAE@XZ="C:\Windows\SysWOW64\spwizeng".??0CCtlText@@QAE@XZ
  ??0CCursor@@AAE@XZ="C:\Windows\SysWOW64\spwizeng".??0CCursor@@AAE@XZ
  ??0CCursor@@QAE@ABV0@@Z="C:\Windows\SysWOW64\spwizeng".??0CCursor@@QAE@ABV0@@Z
  ??0CCustomButtonEx@@AAE@XZ="C:\Windows\SysWOW64\spwizeng".??0CCustomButtonEx@@AAE@XZ
  ??0CCustomButtonEx@@QAE@ABV0@@Z="C:\Windows\SysWOW64\spwizeng".??0CCustomButtonEx@@QAE@ABV0@@Z
  ??0CCustomGraphicEx@@QAE@ABV0@@Z="C:\Windows\SysWOW64\spwizeng".??0CCustomGraphicEx@@QAE@ABV0@@Z
  ??0CCustomGraphicEx@@QAE@XZ="C:\Windows\SysWOW64\spwizeng".??0CCustomGraphicEx@@QAE@XZ
  ??0CDIB@@QAE@XZ="C:\Windows\SysWOW64\spwizeng".??0CDIB@@QAE@XZ
  ??0CDrawBackground@@QAE@ABV0@@Z="C:\Windows\SysWOW64\spwizeng".??0CDrawBackground@@QAE@ABV0@@Z
  ??0CDrawBackground@@QAE@XZ="C:\Windows\SysWOW64\spwizeng".??0CDrawBackground@@QAE@XZ
  ??0CDrawItem@@QAE@ABV0@@Z="C:\Windows\SysWOW64\spwizeng".??0CDrawItem@@QAE@ABV0@@Z
  ??0CDrawItem@@QAE@XZ="C:\Windows\SysWOW64\spwizeng".??0CDrawItem@@QAE@XZ
  ??0CDrawItemComposite@@QAE@ABV0@@Z="C:\Windows\SysWOW64\spwizeng".??0CDrawItemComposite@@QAE@ABV0@@Z
  ??0CDrawItemComposite@@QAE@XZ="C:\Windows\SysWOW64\spwizeng".??0CDrawItemComposite@@QAE@XZ
  ??0CGenericNavWindow@@QAE@ABV0@@Z="C:\Windows\SysWOW64\spwizeng".??0CGenericNavWindow@@QAE@ABV0@@Z
  ??0CGenericNavWindow@@QAE@PAVAppWindow@@@Z="C:\Windows\SysWOW64\spwizeng".??0CGenericNavWindow@@QAE@PAVAppWindow@@@Z
  ??0CHighContrast@@AAE@XZ="C:\Windows\SysWOW64\spwizeng".??0CHighContrast@@AAE@XZ
  ??0CHighContrast@@QAE@ABV0@@Z="C:\Windows\SysWOW64\spwizeng".??0CHighContrast@@QAE@ABV0@@Z
  ??0CResourceModule@@QAE@ABV0@@Z="C:\Windows\SysWOW64\spwizeng".??0CResourceModule@@QAE@ABV0@@Z
  ??0CResourceModule@@QAE@PAUHINSTANCE__@@@Z="C:\Windows\SysWOW64\spwizeng".??0CResourceModule@@QAE@PAUHINSTANCE__@@@Z
  ??0CResourceModule@@QAE@PAUHINSTANCE__@@PBG@Z="C:\Windows\SysWOW64\spwizeng".??0CResourceModule@@QAE@PAUHINSTANCE__@@PBG@Z
  ??0CResourceModule@@QAE@PBG@Z="C:\Windows\SysWOW64\spwizeng".??0CResourceModule@@QAE@PBG@Z
  ??0CRichEditControl@@QAE@XZ="C:\Windows\SysWOW64\spwizeng".??0CRichEditControl@@QAE@XZ
  ??0CScreenDIB@@QAE@$$QAV0@@Z="C:\Windows\SysWOW64\spwizeng".??0CScreenDIB@@QAE@$$QAV0@@Z
  ??0CScreenDIB@@QAE@ABV0@@Z="C:\Windows\SysWOW64\spwizeng".??0CScreenDIB@@QAE@ABV0@@Z
  ??0CScreenDIB@@QAE@XZ="C:\Windows\SysWOW64\spwizeng".??0CScreenDIB@@QAE@XZ
  ??0CScreenText@@QAE@ABV0@@Z="C:\Windows\SysWOW64\spwizeng".??0CScreenText@@QAE@ABV0@@Z
  ??0CScreenText@@QAE@XZ="C:\Windows\SysWOW64\spwizeng".??0CScreenText@@QAE@XZ
  ??0CWndObj@@QAE@ABV0@@Z="C:\Windows\SysWOW64\spwizeng".??0CWndObj@@QAE@ABV0@@Z
  ??0CWndObj@@QAE@XZ="C:\Windows\SysWOW64\spwizeng".??0CWndObj@@QAE@XZ
  ??0ChoiceWizStrategy@@QAE@$$QAV0@@Z="C:\Windows\SysWOW64\spwizeng".??0ChoiceWizStrategy@@QAE@$$QAV0@@Z
  ??0ChoiceWizStrategy@@QAE@ABV0@@Z="C:\Windows\SysWOW64\spwizeng".??0ChoiceWizStrategy@@QAE@ABV0@@Z
  ??0ChoiceWizStrategy@@QAE@PAVWizardEx@@@Z="C:\Windows\SysWOW64\spwizeng".??0ChoiceWizStrategy@@QAE@PAVWizardEx@@@Z
  ??0ICreateNavbarWnd@@QAE@ABV0@@Z="C:\Windows\SysWOW64\spwizeng".??0ICreateNavbarWnd@@QAE@ABV0@@Z
  ??0ICreateNavbarWnd@@QAE@XZ="C:\Windows\SysWOW64\spwizeng".??0ICreateNavbarWnd@@QAE@XZ
  ??0ICreateProgressWnd@@QAE@ABV0@@Z="C:\Windows\SysWOW64\spwizeng".??0ICreateProgressWnd@@QAE@ABV0@@Z
  ??0ICreateProgressWnd@@QAE@XZ="C:\Windows\SysWOW64\spwizeng".??0ICreateProgressWnd@@QAE@XZ
  ??0IResourceModuleEvent@@QAE@$$QAU0@@Z="C:\Windows\SysWOW64\spwizeng".??0IResourceModuleEvent@@QAE@$$QAU0@@Z
  ??0IResourceModuleEvent@@QAE@ABU0@@Z="C:\Windows\SysWOW64\spwizeng".??0IResourceModuleEvent@@QAE@ABU0@@Z
  ??0IResourceModuleEvent@@QAE@XZ="C:\Windows\SysWOW64\spwizeng".??0IResourceModuleEvent@@QAE@XZ
  ??0LanguageNeutralSelectionDialogBase@@QAE@ABV0@@Z="C:\Windows\SysWOW64\spwizeng".??0LanguageNeutralSelectionDialogBase@@QAE@ABV0@@Z
  ??0LanguageNeutralSelectionDialogBase@@QAE@XZ="C:\Windows\SysWOW64\spwizeng".??0LanguageNeutralSelectionDialogBase@@QAE@XZ
  ??0LanguageSelectionDialogBase@@QAE@ABV0@@Z="C:\Windows\SysWOW64\spwizeng".??0LanguageSelectionDialogBase@@QAE@ABV0@@Z
  ??0LanguageSelectionDialogBase@@QAE@XZ="C:\Windows\SysWOW64\spwizeng".??0LanguageSelectionDialogBase@@QAE@XZ
  ??0MyString@@QAE@XZ="C:\Windows\SysWOW64\spwizeng".??0MyString@@QAE@XZ
  ??0NavWindow@@QAE@ABV0@@Z="C:\Windows\SysWOW64\spwizeng".??0NavWindow@@QAE@ABV0@@Z
  ??0NavWindow@@QAE@PAVAppWindow@@@Z="C:\Windows\SysWOW64\spwizeng".??0NavWindow@@QAE@PAVAppWindow@@@Z
  ??0NavigationStack@@QAE@ABV0@@Z="C:\Windows\SysWOW64\spwizeng".??0NavigationStack@@QAE@ABV0@@Z
  ??0NavigationStack@@QAE@XZ="C:\Windows\SysWOW64\spwizeng".??0NavigationStack@@QAE@XZ
  ??0Navigator@@AAE@XZ="C:\Windows\SysWOW64\spwizeng".??0Navigator@@AAE@XZ
  ??0Navigator@@QAE@ABV0@@Z="C:\Windows\SysWOW64\spwizeng".??0Navigator@@QAE@ABV0@@Z
  ??0PIDStringView@@QAE@ABV0@@Z="C:\Windows\SysWOW64\spwizeng".??0PIDStringView@@QAE@ABV0@@Z
  ??0PIDStringView@@QAE@XZ="C:\Windows\SysWOW64\spwizeng".??0PIDStringView@@QAE@XZ
  ??0PageContainer@@QAE@ABV0@@Z="C:\Windows\SysWOW64\spwizeng".??0PageContainer@@QAE@ABV0@@Z
  ??0PageContainer@@QAE@XZ="C:\Windows\SysWOW64\spwizeng".??0PageContainer@@QAE@XZ
  ??0ProtoPageDimensions@@QAE@USimpleRect@@USimpleSize@@HH11MM@Z="C:\Windows\SysWOW64\spwizeng".??0ProtoPageDimensions@@QAE@USimpleRect@@USimpleSize@@HH11MM@Z
  ??0ProtoPageDimensions@@QAE@XZ="C:\Windows\SysWOW64\spwizeng".??0ProtoPageDimensions@@QAE@XZ
  ??0ProtoPageList@@QAE@ABV0@@Z="C:\Windows\SysWOW64\spwizeng".??0ProtoPageList@@QAE@ABV0@@Z
  ??0ProtoPageList@@QAE@PAVWizardDesciption@@KKKHPAVICreateProgressWnd@@HPAUtagSIZE@@PAVICreateNavbarWnd@@UProtoPageDimensions@@KKH@Z="C:\Windows\SysWOW64\spwizeng".??0ProtoPageList@@QAE@PAVWizardDesciption@@KKKHPAVICreateProgressWnd@@HPAUtagSIZE@@PAVICreateNavbarWnd@@UProtoPageDimensions@@KKH@Z
  ??0ProtoPageList@@QAE@XZ="C:\Windows\SysWOW64\spwizeng".??0ProtoPageList@@QAE@XZ
  ??0ScrWindow@@QAE@ABV0@@Z="C:\Windows\SysWOW64\spwizeng".??0ScrWindow@@QAE@ABV0@@Z
  ??0ScrWindow@@QAE@PAVWizardUI@@I@Z="C:\Windows\SysWOW64\spwizeng".??0ScrWindow@@QAE@PAVWizardUI@@I@Z
  ??0SimpleDialogBase@@QAE@$$QAV0@@Z="C:\Windows\SysWOW64\spwizeng".??0SimpleDialogBase@@QAE@$$QAV0@@Z
  ??0SimpleDialogBase@@QAE@ABV0@@Z="C:\Windows\SysWOW64\spwizeng".??0SimpleDialogBase@@QAE@ABV0@@Z
  ??0SimpleDialogBase@@QAE@XZ="C:\Windows\SysWOW64\spwizeng".??0SimpleDialogBase@@QAE@XZ
  ??0SimpleRect@@QAE@HHHH@Z="C:\Windows\SysWOW64\spwizeng".??0SimpleRect@@QAE@HHHH@Z
  ??0SimpleRect@@QAE@XZ="C:\Windows\SysWOW64\spwizeng".??0SimpleRect@@QAE@XZ
  ??0SimpleSize@@QAE@HH@Z="C:\Windows\SysWOW64\spwizeng".??0SimpleSize@@QAE@HH@Z
  ??0SimpleSize@@QAE@XZ="C:\Windows\SysWOW64\spwizeng".??0SimpleSize@@QAE@XZ
  ??0SimpleWizStrategy@@QAE@$$QAV0@@Z="C:\Windows\SysWOW64\spwizeng".??0SimpleWizStrategy@@QAE@$$QAV0@@Z
  ??0SimpleWizStrategy@@QAE@ABV0@@Z="C:\Windows\SysWOW64\spwizeng".??0SimpleWizStrategy@@QAE@ABV0@@Z
  ??0SimpleWizStrategy@@QAE@PAVWizardEx@@@Z="C:\Windows\SysWOW64\spwizeng".??0SimpleWizStrategy@@QAE@PAVWizardEx@@@Z
  ??0SummaryWizStrategy@@QAE@$$QAV0@@Z="C:\Windows\SysWOW64\spwizeng".??0SummaryWizStrategy@@QAE@$$QAV0@@Z
  ??0SummaryWizStrategy@@QAE@ABV0@@Z="C:\Windows\SysWOW64\spwizeng".??0SummaryWizStrategy@@QAE@ABV0@@Z
  ??0SummaryWizStrategy@@QAE@PAVWizardEx@@@Z="C:\Windows\SysWOW64\spwizeng".??0SummaryWizStrategy@@QAE@PAVWizardEx@@@Z
  ??0VariationWizStrategy@@QAE@$$QAV0@@Z="C:\Windows\SysWOW64\spwizeng".??0VariationWizStrategy@@QAE@$$QAV0@@Z
  ??0VariationWizStrategy@@QAE@ABV0@@Z="C:\Windows\SysWOW64\spwizeng".??0VariationWizStrategy@@QAE@ABV0@@Z
  ??0VariationWizStrategy@@QAE@PAVWizardEx@@ABV?$CSimpleMap@HHV?$CSimpleMapEqualHelper@HH@ATL@@@ATL@@H@Z="C:\Windows\SysWOW64\spwizeng".??0VariationWizStrategy@@QAE@PAVWizardEx@@ABV?$CSimpleMap@HHV?$CSimpleMapEqualHelper@HH@ATL@@@ATL@@H@Z
  ??0Win32Navigator@@AAE@XZ="C:\Windows\SysWOW64\spwizeng".??0Win32Navigator@@AAE@XZ
  ??0Win32Navigator@@QAE@ABV0@@Z="C:\Windows\SysWOW64\spwizeng".??0Win32Navigator@@QAE@ABV0@@Z
  ??0Wiz_Node@@QAE@ABV0@@Z="C:\Windows\SysWOW64\spwizeng".??0Wiz_Node@@QAE@ABV0@@Z
  ??0Wiz_Node@@QAE@I@Z="C:\Windows\SysWOW64\spwizeng".??0Wiz_Node@@QAE@I@Z
  ??0WizardBranch@@QAE@$$QAV0@@Z="C:\Windows\SysWOW64\spwizeng".??0WizardBranch@@QAE@$$QAV0@@Z
  ??0WizardBranch@@QAE@ABV0@@Z="C:\Windows\SysWOW64\spwizeng".??0WizardBranch@@QAE@ABV0@@Z
  ??0WizardBranch@@QAE@IPAPAVWiz_Node@@@Z="C:\Windows\SysWOW64\spwizeng".??0WizardBranch@@QAE@IPAPAVWiz_Node@@@Z
  ??0WizardCollection@@QAE@$$QAV0@@Z="C:\Windows\SysWOW64\spwizeng".??0WizardCollection@@QAE@$$QAV0@@Z
  ??0WizardCollection@@QAE@ABV0@@Z="C:\Windows\SysWOW64\spwizeng".??0WizardCollection@@QAE@ABV0@@Z
  ??0WizardCollection@@QAE@IIPAPAVWiz_Node@@@Z="C:\Windows\SysWOW64\spwizeng".??0WizardCollection@@QAE@IIPAPAVWiz_Node@@@Z
  ??0WizardDesciption@@QAE@$$QAV0@@Z="C:\Windows\SysWOW64\spwizeng".??0WizardDesciption@@QAE@$$QAV0@@Z
  ??0WizardDesciption@@QAE@ABV0@@Z="C:\Windows\SysWOW64\spwizeng".??0WizardDesciption@@QAE@ABV0@@Z
  ??0WizardDesciption@@QAE@IPAPAVWiz_Node@@@Z="C:\Windows\SysWOW64\spwizeng".??0WizardDesciption@@QAE@IPAPAVWiz_Node@@@Z
  ??0WizardDialogPost@@QAE@$$QAV0@@Z="C:\Windows\SysWOW64\spwizeng".??0WizardDialogPost@@QAE@$$QAV0@@Z
  ??0WizardDialogPost@@QAE@ABV0@@Z="C:\Windows\SysWOW64\spwizeng".??0WizardDialogPost@@QAE@ABV0@@Z
  ??0WizardDialogPost@@QAE@XZ="C:\Windows\SysWOW64\spwizeng".??0WizardDialogPost@@QAE@XZ
  ??0WizardDialogPre@@QAE@$$QAV0@@Z="C:\Windows\SysWOW64\spwizeng".??0WizardDialogPre@@QAE@$$QAV0@@Z
  ??0WizardDialogPre@@QAE@ABV0@@Z="C:\Windows\SysWOW64\spwizeng".??0WizardDialogPre@@QAE@ABV0@@Z
  ??0WizardDialogPre@@QAE@XZ="C:\Windows\SysWOW64\spwizeng".??0WizardDialogPre@@QAE@XZ
  ??0WizardEx@@QAE@ABV0@@Z="C:\Windows\SysWOW64\spwizeng".??0WizardEx@@QAE@ABV0@@Z
  ??0WizardEx@@QAE@XZ="C:\Windows\SysWOW64\spwizeng".??0WizardEx@@QAE@XZ
  ??0WizardHandler@@QAE@$$QAV0@@Z="C:\Windows\SysWOW64\spwizeng".??0WizardHandler@@QAE@$$QAV0@@Z
  ??0WizardHandler@@QAE@ABV0@@Z="C:\Windows\SysWOW64\spwizeng".??0WizardHandler@@QAE@ABV0@@Z
  ??0WizardHandler@@QAE@XZ="C:\Windows\SysWOW64\spwizeng".??0WizardHandler@@QAE@XZ
  ??0WizardNode@@QAE@ABV0@@Z="C:\Windows\SysWOW64\spwizeng".??0WizardNode@@QAE@ABV0@@Z
  ??0WizardNode@@QAE@IIPAVWizardEx@@PAVWizardUI@@@Z="C:\Windows\SysWOW64\spwizeng".??0WizardNode@@QAE@IIPAVWizardEx@@PAVWizardUI@@@Z
  ??0WizardNode@@QAE@XZ="C:\Windows\SysWOW64\spwizeng".??0WizardNode@@QAE@XZ
  ??0WizardPage@@QAE@ABV0@@Z="C:\Windows\SysWOW64\spwizeng".??0WizardPage@@QAE@ABV0@@Z
  ??0WizardPage@@QAE@IIPAVWizardEx@@PAVWizardUI@@@Z="C:\Windows\SysWOW64\spwizeng".??0WizardPage@@QAE@IIPAVWizardEx@@PAVWizardUI@@@Z
  ??0WizardRoot@@QAE@ABV0@@Z="C:\Windows\SysWOW64\spwizeng".??0WizardRoot@@QAE@ABV0@@Z
  ??0WizardRoot@@QAE@XZ="C:\Windows\SysWOW64\spwizeng".??0WizardRoot@@QAE@XZ
  ??0WizardStrategy@@QAE@ABV0@@Z="C:\Windows\SysWOW64\spwizeng".??0WizardStrategy@@QAE@ABV0@@Z
  ??0WizardStrategy@@QAE@PAVWizardEx@@@Z="C:\Windows\SysWOW64\spwizeng".??0WizardStrategy@@QAE@PAVWizardEx@@@Z
  ??0WizardSummary@@QAE@$$QAV0@@Z="C:\Windows\SysWOW64\spwizeng".??0WizardSummary@@QAE@$$QAV0@@Z
  ??0WizardSummary@@QAE@ABV0@@Z="C:\Windows\SysWOW64\spwizeng".??0WizardSummary@@QAE@ABV0@@Z
  ??0WizardSummary@@QAE@IPAPAVWiz_Node@@@Z="C:\Windows\SysWOW64\spwizeng".??0WizardSummary@@QAE@IPAPAVWiz_Node@@@Z
  ??0WizardUI@@QAE@XZ="C:\Windows\SysWOW64\spwizeng".??0WizardUI@@QAE@XZ
  ??0WizardVariation@@QAE@ABV0@@Z="C:\Windows\SysWOW64\spwizeng".??0WizardVariation@@QAE@ABV0@@Z
  ??0WizardVariation@@QAE@IPAPAVWiz_Node@@ABV?$CSimpleMap@HHV?$CSimpleMapEqualHelper@HH@ATL@@@ATL@@PBG@Z="C:\Windows\SysWOW64\spwizeng".??0WizardVariation@@QAE@IPAPAVWiz_Node@@ABV?$CSimpleMap@HHV?$CSimpleMapEqualHelper@HH@ATL@@@ATL@@PBG@Z
  ??0Wizard_PageDesciption@@QAE@ABV0@@Z="C:\Windows\SysWOW64\spwizeng".??0Wizard_PageDesciption@@QAE@ABV0@@Z
  ??0Wizard_PageDesciption@@QAE@KPBG0KP6GPAVWizardRoot@@PAVWizardPage@@@ZK@Z="C:\Windows\SysWOW64\spwizeng".??0Wizard_PageDesciption@@QAE@KPBG0KP6GPAVWizardRoot@@PAVWizardPage@@@ZK@Z
  ??1?$CSimpleArray@PAGV?$CSimpleArrayEqualHelper@PAG@ATL@@@ATL@@QAE@XZ="C:\Windows\SysWOW64\spwizeng".??1?$CSimpleArray@PAGV?$CSimpleArrayEqualHelper@PAG@ATL@@@ATL@@QAE@XZ
  ??1?$CSimpleArray@PAUIResourceModuleEvent@@V?$CSimpleArrayEqualHelper@PAUIResourceModuleEvent@@@ATL@@@ATL@@QAE@XZ="C:\Windows\SysWOW64\spwizeng".??1?$CSimpleArray@PAUIResourceModuleEvent@@V?$CSimpleArrayEqualHelper@PAUIResourceModuleEvent@@@ATL@@@ATL@@QAE@XZ
  ??1?$CSimpleArray@PAUKEYBOARD@@V?$CSimpleArrayEqualHelper@PAUKEYBOARD@@@ATL@@@ATL@@QAE@XZ="C:\Windows\SysWOW64\spwizeng".??1?$CSimpleArray@PAUKEYBOARD@@V?$CSimpleArrayEqualHelper@PAUKEYBOARD@@@ATL@@@ATL@@QAE@XZ
  ??1?$CSimpleArray@PAULANGUAGE@@V?$CSimpleArrayEqualHelper@PAULANGUAGE@@@ATL@@@ATL@@QAE@XZ="C:\Windows\SysWOW64\spwizeng".??1?$CSimpleArray@PAULANGUAGE@@V?$CSimpleArrayEqualHelper@PAULANGUAGE@@@ATL@@@ATL@@QAE@XZ
  ??1?$CSimpleArray@PAULOCALE@@V?$CSimpleArrayEqualHelper@PAULOCALE@@@ATL@@@ATL@@QAE@XZ="C:\Windows\SysWOW64\spwizeng".??1?$CSimpleArray@PAULOCALE@@V?$CSimpleArrayEqualHelper@PAULOCALE@@@ATL@@@ATL@@QAE@XZ
  ??1?$CSimpleStringT@G$0A@@ATL@@QAE@XZ="C:\Windows\SysWOW64\spwizeng".??1?$CSimpleStringT@G$0A@@ATL@@QAE@XZ
  ??1?$CStringT@GV?$StrTraitATL@GV?$ChTraitsCRT@G@ATL@@@ATL@@@ATL@@QAE@XZ="C:\Windows\SysWOW64\spwizeng".??1?$CStringT@GV?$StrTraitATL@GV?$ChTraitsCRT@G@ATL@@@ATL@@@ATL@@QAE@XZ
  ??1AppWindow@@UAE@XZ="C:\Windows\SysWOW64\spwizeng".??1AppWindow@@UAE@XZ
  ??1BranchWizStrategy@@UAE@XZ="C:\Windows\SysWOW64\spwizeng".??1BranchWizStrategy@@UAE@XZ
  ??1CAnimation@@UAE@XZ="C:\Windows\SysWOW64\spwizeng".??1CAnimation@@UAE@XZ
  ??1CAnimationControl@@UAE@XZ="C:\Windows\SysWOW64\spwizeng".??1CAnimationControl@@UAE@XZ
  ??1CAttachDataDlg@@QAE@XZ="C:\Windows\SysWOW64\spwizeng".??1CAttachDataDlg@@QAE@XZ
  ??1CCritSec@@UAE@XZ="C:\Windows\SysWOW64\spwizeng".??1CCritSec@@UAE@XZ
  ??1CCtlText@@UAE@XZ="C:\Windows\SysWOW64\spwizeng".??1CCtlText@@UAE@XZ
  ??1CCursor@@EAE@XZ="C:\Windows\SysWOW64\spwizeng".??1CCursor@@EAE@XZ
  ??1CCustomButtonEx@@EAE@XZ="C:\Windows\SysWOW64\spwizeng".??1CCustomButtonEx@@EAE@XZ
  ??1CCustomGraphicEx@@UAE@XZ="C:\Windows\SysWOW64\spwizeng".??1CCustomGraphicEx@@UAE@XZ
  ??1CDIB@@QAE@XZ="C:\Windows\SysWOW64\spwizeng".??1CDIB@@QAE@XZ
  ??1CDrawBackground@@UAE@XZ="C:\Windows\SysWOW64\spwizeng".??1CDrawBackground@@UAE@XZ
  ??1CDrawItem@@UAE@XZ="C:\Windows\SysWOW64\spwizeng".??1CDrawItem@@UAE@XZ
  ??1CDrawItemComposite@@UAE@XZ="C:\Windows\SysWOW64\spwizeng".??1CDrawItemComposite@@UAE@XZ
  ??1CGenericNavWindow@@UAE@XZ="C:\Windows\SysWOW64\spwizeng".??1CGenericNavWindow@@UAE@XZ
  ??1CHighContrast@@EAE@XZ="C:\Windows\SysWOW64\spwizeng".??1CHighContrast@@EAE@XZ
  ??1CResourceModule@@QAE@XZ="C:\Windows\SysWOW64\spwizeng".??1CResourceModule@@QAE@XZ
  ??1CScreenDIB@@UAE@XZ="C:\Windows\SysWOW64\spwizeng".??1CScreenDIB@@UAE@XZ
  ??1CScreenText@@UAE@XZ="C:\Windows\SysWOW64\spwizeng".??1CScreenText@@UAE@XZ
  ??1CWndObj@@UAE@XZ="C:\Windows\SysWOW64\spwizeng".??1CWndObj@@UAE@XZ
  ??1ChoiceWizStrategy@@UAE@XZ="C:\Windows\SysWOW64\spwizeng".??1ChoiceWizStrategy@@UAE@XZ
  ??1ICreateNavbarWnd@@UAE@XZ="C:\Windows\SysWOW64\spwizeng".??1ICreateNavbarWnd@@UAE@XZ
  ??1ICreateProgressWnd@@UAE@XZ="C:\Windows\SysWOW64\spwizeng".??1ICreateProgressWnd@@UAE@XZ
  ??1LanguageNeutralSelectionDialogBase@@QAE@XZ="C:\Windows\SysWOW64\spwizeng".??1LanguageNeutralSelectionDialogBase@@QAE@XZ
  ??1LanguageSelectionDialogBase@@QAE@XZ="C:\Windows\SysWOW64\spwizeng".??1LanguageSelectionDialogBase@@QAE@XZ
  ??1NavWindow@@UAE@XZ="C:\Windows\SysWOW64\spwizeng".??1NavWindow@@UAE@XZ
  ??1NavigationStack@@UAE@XZ="C:\Windows\SysWOW64\spwizeng".??1NavigationStack@@UAE@XZ
  ??1Navigator@@EAE@XZ="C:\Windows\SysWOW64\spwizeng".??1Navigator@@EAE@XZ
  ??1PIDStringView@@UAE@XZ="C:\Windows\SysWOW64\spwizeng".??1PIDStringView@@UAE@XZ
  ??1PageContainer@@UAE@XZ="C:\Windows\SysWOW64\spwizeng".??1PageContainer@@UAE@XZ
  ??1ScrWindow@@UAE@XZ="C:\Windows\SysWOW64\spwizeng".??1ScrWindow@@UAE@XZ
  ??1SimpleWizStrategy@@UAE@XZ="C:\Windows\SysWOW64\spwizeng".??1SimpleWizStrategy@@UAE@XZ
  ??1SummaryWizStrategy@@UAE@XZ="C:\Windows\SysWOW64\spwizeng".??1SummaryWizStrategy@@UAE@XZ
  ??1VariationWizStrategy@@UAE@XZ="C:\Windows\SysWOW64\spwizeng".??1VariationWizStrategy@@UAE@XZ
  ??1Win32Navigator@@EAE@XZ="C:\Windows\SysWOW64\spwizeng".??1Win32Navigator@@EAE@XZ
  ??1Wiz_Node@@UAE@XZ="C:\Windows\SysWOW64\spwizeng".??1Wiz_Node@@UAE@XZ
  ??1WizardBranch@@UAE@XZ="C:\Windows\SysWOW64\spwizeng".??1WizardBranch@@UAE@XZ
  ??1WizardCollection@@UAE@XZ="C:\Windows\SysWOW64\spwizeng".??1WizardCollection@@UAE@XZ
  ??1WizardDesciption@@UAE@XZ="C:\Windows\SysWOW64\spwizeng".??1WizardDesciption@@UAE@XZ
  ??1WizardEx@@UAE@XZ="C:\Windows\SysWOW64\spwizeng".??1WizardEx@@UAE@XZ
  ??1WizardNode@@UAE@XZ="C:\Windows\SysWOW64\spwizeng".??1WizardNode@@UAE@XZ
  ??1WizardPage@@UAE@XZ="C:\Windows\SysWOW64\spwizeng".??1WizardPage@@UAE@XZ
  ??1WizardRoot@@UAE@XZ="C:\Windows\SysWOW64\spwizeng".??1WizardRoot@@UAE@XZ
  ??1WizardStrategy@@UAE@XZ="C:\Windows\SysWOW64\spwizeng".??1WizardStrategy@@UAE@XZ
  ??1WizardSummary@@UAE@XZ="C:\Windows\SysWOW64\spwizeng".??1WizardSummary@@UAE@XZ
  ??1WizardUI@@QAE@XZ="C:\Windows\SysWOW64\spwizeng".??1WizardUI@@QAE@XZ
  ??1WizardVariation@@UAE@XZ="C:\Windows\SysWOW64\spwizeng".??1WizardVariation@@UAE@XZ
  ??1Wizard_PageDesciption@@UAE@XZ="C:\Windows\SysWOW64\spwizeng".??1Wizard_PageDesciption@@UAE@XZ
  ??4?$CSimpleArray@PAGV?$CSimpleArrayEqualHelper@PAG@ATL@@@ATL@@QAEAAV01@ABV01@@Z="C:\Windows\SysWOW64\spwizeng".??4?$CSimpleArray@PAGV?$CSimpleArrayEqualHelper@PAG@ATL@@@ATL@@QAEAAV01@ABV01@@Z
  ??4?$CSimpleArray@PAUIResourceModuleEvent@@V?$CSimpleArrayEqualHelper@PAUIResourceModuleEvent@@@ATL@@@ATL@@QAEAAV01@ABV01@@Z="C:\Windows\SysWOW64\spwizeng".??4?$CSimpleArray@PAUIResourceModuleEvent@@V?$CSimpleArrayEqualHelper@PAUIResourceModuleEvent@@@ATL@@@ATL@@QAEAAV01@ABV01@@Z
  ??4?$CSimpleArray@PAUKEYBOARD@@V?$CSimpleArrayEqualHelper@PAUKEYBOARD@@@ATL@@@ATL@@QAEAAV01@ABV01@@Z="C:\Windows\SysWOW64\spwizeng".??4?$CSimpleArray@PAUKEYBOARD@@V?$CSimpleArrayEqualHelper@PAUKEYBOARD@@@ATL@@@ATL@@QAEAAV01@ABV01@@Z
  ??4?$CSimpleArray@PAULANGUAGE@@V?$CSimpleArrayEqualHelper@PAULANGUAGE@@@ATL@@@ATL@@QAEAAV01@ABV01@@Z="C:\Windows\SysWOW64\spwizeng".??4?$CSimpleArray@PAULANGUAGE@@V?$CSimpleArrayEqualHelper@PAULANGUAGE@@@ATL@@@ATL@@QAEAAV01@ABV01@@Z
  ??4?$CSimpleArray@PAULOCALE@@V?$CSimpleArrayEqualHelper@PAULOCALE@@@ATL@@@ATL@@QAEAAV01@ABV01@@Z="C:\Windows\SysWOW64\spwizeng".??4?$CSimpleArray@PAULOCALE@@V?$CSimpleArrayEqualHelper@PAULOCALE@@@ATL@@@ATL@@QAEAAV01@ABV01@@Z
  ??4?$CSimpleStringT@G$0A@@ATL@@QAEAAV01@ABV01@@Z="C:\Windows\SysWOW64\spwizeng".??4?$CSimpleStringT@G$0A@@ATL@@QAEAAV01@ABV01@@Z
  ??4?$CSimpleStringT@G$0A@@ATL@@QAEAAV01@ABV?$CSimpleStringT@G$00@1@@Z="C:\Windows\SysWOW64\spwizeng".??4?$CSimpleStringT@G$0A@@ATL@@QAEAAV01@ABV?$CSimpleStringT@G$00@1@@Z
  ??4?$CSimpleStringT@G$0A@@ATL@@QAEAAV01@PBG@Z="C:\Windows\SysWOW64\spwizeng".??4?$CSimpleStringT@G$0A@@ATL@@QAEAAV01@PBG@Z
  ??4?$CStringT@GV?$StrTraitATL@GV?$ChTraitsCRT@G@ATL@@@ATL@@@ATL@@QAEAAV01@ABUtagVARIANT@@@Z="C:\Windows\SysWOW64\spwizeng".??4?$CStringT@GV?$StrTraitATL@GV?$ChTraitsCRT@G@ATL@@@ATL@@@ATL@@QAEAAV01@ABUtagVARIANT@@@Z
  ??4?$CStringT@GV?$StrTraitATL@GV?$ChTraitsCRT@G@ATL@@@ATL@@@ATL@@QAEAAV01@ABV01@@Z="C:\Windows\SysWOW64\spwizeng".??4?$CStringT@GV?$StrTraitATL@GV?$ChTraitsCRT@G@ATL@@@ATL@@@ATL@@QAEAAV01@ABV01@@Z
  ??4?$CStringT@GV?$StrTraitATL@GV?$ChTraitsCRT@G@ATL@@@ATL@@@ATL@@QAEAAV01@D@Z="C:\Windows\SysWOW64\spwizeng".??4?$CStringT@GV?$StrTraitATL@GV?$ChTraitsCRT@G@ATL@@@ATL@@@ATL@@QAEAAV01@D@Z
  ??4?$CStringT@GV?$StrTraitATL@GV?$ChTraitsCRT@G@ATL@@@ATL@@@ATL@@QAEAAV01@G@Z="C:\Windows\SysWOW64\spwizeng".??4?$CStringT@GV?$StrTraitATL@GV?$ChTraitsCRT@G@ATL@@@ATL@@@ATL@@QAEAAV01@G@Z
  ??4?$CStringT@GV?$StrTraitATL@GV?$ChTraitsCRT@G@ATL@@@ATL@@@ATL@@QAEAAV01@PBD@Z="C:\Windows\SysWOW64\spwizeng".??4?$CStringT@GV?$StrTraitATL@GV?$ChTraitsCRT@G@ATL@@@ATL@@@ATL@@QAEAAV01@PBD@Z
  ??4?$CStringT@GV?$StrTraitATL@GV?$ChTraitsCRT@G@ATL@@@ATL@@@ATL@@QAEAAV01@PBE@Z="C:\Windows\SysWOW64\spwizeng".??4?$CStringT@GV?$StrTraitATL@GV?$ChTraitsCRT@G@ATL@@@ATL@@@ATL@@QAEAAV01@PBE@Z
  ??4?$CStringT@GV?$StrTraitATL@GV?$ChTraitsCRT@G@ATL@@@ATL@@@ATL@@QAEAAV01@PBG@Z="C:\Windows\SysWOW64\spwizeng".??4?$CStringT@GV?$StrTraitATL@GV?$ChTraitsCRT@G@ATL@@@ATL@@@ATL@@QAEAAV01@PBG@Z
  ??4AppWindow@@QAEAAV0@ABV0@@Z="C:\Windows\SysWOW64\spwizeng".??4AppWindow@@QAEAAV0@ABV0@@Z
  ??4BranchWizStrategy@@QAEAAV0@$$QAV0@@Z="C:\Windows\SysWOW64\spwizeng".??4BranchWizStrategy@@QAEAAV0@$$QAV0@@Z
  ??4BranchWizStrategy@@QAEAAV0@ABV0@@Z="C:\Windows\SysWOW64\spwizeng".??4BranchWizStrategy@@QAEAAV0@ABV0@@Z
  ??4CAnimation@@QAEAAV0@ABV0@@Z="C:\Windows\SysWOW64\spwizeng".??4CAnimation@@QAEAAV0@ABV0@@Z
  ??4CAnimationControl@@QAEAAV0@ABV0@@Z="C:\Windows\SysWOW64\spwizeng".??4CAnimationControl@@QAEAAV0@ABV0@@Z
  ??4CAttachDataDlg@@QAEAAV0@ABV0@@Z="C:\Windows\SysWOW64\spwizeng".??4CAttachDataDlg@@QAEAAV0@ABV0@@Z
  ??4CCritSec@@QAEAAV0@ABV0@@Z="C:\Windows\SysWOW64\spwizeng".??4CCritSec@@QAEAAV0@ABV0@@Z
  ??4CCtlText@@QAEAAV0@ABV0@@Z="C:\Windows\SysWOW64\spwizeng".??4CCtlText@@QAEAAV0@ABV0@@Z
  ??4CCursor@@QAEAAV0@ABV0@@Z="C:\Windows\SysWOW64\spwizeng".??4CCursor@@QAEAAV0@ABV0@@Z
  ??4CCustomButtonEx@@QAEAAV0@ABV0@@Z="C:\Windows\SysWOW64\spwizeng".??4CCustomButtonEx@@QAEAAV0@ABV0@@Z
  ??4CCustomGraphicEx@@QAEAAV0@ABV0@@Z="C:\Windows\SysWOW64\spwizeng".??4CCustomGraphicEx@@QAEAAV0@ABV0@@Z
  ??4CDIB@@QAEAAV0@ABV0@@Z="C:\Windows\SysWOW64\spwizeng".??4CDIB@@QAEAAV0@ABV0@@Z
  ??4CDrawBackground@@QAEAAV0@ABV0@@Z="C:\Windows\SysWOW64\spwizeng".??4CDrawBackground@@QAEAAV0@ABV0@@Z
  ??4CDrawItem@@QAEAAV0@ABV0@@Z="C:\Windows\SysWOW64\spwizeng".??4CDrawItem@@QAEAAV0@ABV0@@Z
  ??4CDrawItemComposite@@QAEAAV0@ABV0@@Z="C:\Windows\SysWOW64\spwizeng".??4CDrawItemComposite@@QAEAAV0@ABV0@@Z
  ??4CGenericNavWindow@@QAEAAV0@ABV0@@Z="C:\Windows\SysWOW64\spwizeng".??4CGenericNavWindow@@QAEAAV0@ABV0@@Z
  ??4CHighContrast@@QAEAAV0@ABV0@@Z="C:\Windows\SysWOW64\spwizeng".??4CHighContrast@@QAEAAV0@ABV0@@Z
  ??4CResourceModule@@QAEAAV0@ABV0@@Z="C:\Windows\SysWOW64\spwizeng".??4CResourceModule@@QAEAAV0@ABV0@@Z
  ??4CResourceModuleFactory@@QAEAAV0@$$QAV0@@Z="C:\Windows\SysWOW64\spwizeng".??4CResourceModuleFactory@@QAEAAV0@$$QAV0@@Z
  ??4CResourceModuleFactory@@QAEAAV0@ABV0@@Z="C:\Windows\SysWOW64\spwizeng".??4CResourceModuleFactory@@QAEAAV0@ABV0@@Z
  ??4CRichEditControl@@QAEAAV0@$$QAV0@@Z="C:\Windows\SysWOW64\spwizeng".??4CRichEditControl@@QAEAAV0@$$QAV0@@Z
  ??4CRichEditControl@@QAEAAV0@ABV0@@Z="C:\Windows\SysWOW64\spwizeng".??4CRichEditControl@@QAEAAV0@ABV0@@Z
  ??4CScreenDIB@@QAEAAV0@$$QAV0@@Z="C:\Windows\SysWOW64\spwizeng".??4CScreenDIB@@QAEAAV0@$$QAV0@@Z
  ??4CScreenDIB@@QAEAAV0@ABV0@@Z="C:\Windows\SysWOW64\spwizeng".??4CScreenDIB@@QAEAAV0@ABV0@@Z
  ??4CScreenText@@QAEAAV0@ABV0@@Z="C:\Windows\SysWOW64\spwizeng".??4CScreenText@@QAEAAV0@ABV0@@Z
  ??4CWndObj@@QAEAAV0@ABV0@@Z="C:\Windows\SysWOW64\spwizeng".??4CWndObj@@QAEAAV0@ABV0@@Z
  ??4ChoiceWizStrategy@@QAEAAV0@$$QAV0@@Z="C:\Windows\SysWOW64\spwizeng".??4ChoiceWizStrategy@@QAEAAV0@$$QAV0@@Z
  ??4ChoiceWizStrategy@@QAEAAV0@ABV0@@Z="C:\Windows\SysWOW64\spwizeng".??4ChoiceWizStrategy@@QAEAAV0@ABV0@@Z
  ??4ICreateNavbarWnd@@QAEAAV0@ABV0@@Z="C:\Windows\SysWOW64\spwizeng".??4ICreateNavbarWnd@@QAEAAV0@ABV0@@Z
  ??4ICreateProgressWnd@@QAEAAV0@ABV0@@Z="C:\Windows\SysWOW64\spwizeng".??4ICreateProgressWnd@@QAEAAV0@ABV0@@Z
  ??4IResourceModuleEvent@@QAEAAU0@$$QAU0@@Z="C:\Windows\SysWOW64\spwizeng".??4IResourceModuleEvent@@QAEAAU0@$$QAU0@@Z
  ??4IResourceModuleEvent@@QAEAAU0@ABU0@@Z="C:\Windows\SysWOW64\spwizeng".??4IResourceModuleEvent@@QAEAAU0@ABU0@@Z
  ??4LanguageNeutralSelectionDialogBase@@QAEAAV0@ABV0@@Z="C:\Windows\SysWOW64\spwizeng".??4LanguageNeutralSelectionDialogBase@@QAEAAV0@ABV0@@Z
  ??4LanguageSelectionDialogBase@@QAEAAV0@ABV0@@Z="C:\Windows\SysWOW64\spwizeng".??4LanguageSelectionDialogBase@@QAEAAV0@ABV0@@Z
  ??4MyString@@QAEAAV0@$$QAV0@@Z="C:\Windows\SysWOW64\spwizeng".??4MyString@@QAEAAV0@$$QAV0@@Z
  ??4MyString@@QAEAAV0@ABV0@@Z="C:\Windows\SysWOW64\spwizeng".??4MyString@@QAEAAV0@ABV0@@Z
  ??4NavWindow@@QAEAAV0@ABV0@@Z="C:\Windows\SysWOW64\spwizeng".??4NavWindow@@QAEAAV0@ABV0@@Z
  ??4NavigationStack@@QAEAAV0@ABV0@@Z="C:\Windows\SysWOW64\spwizeng".??4NavigationStack@@QAEAAV0@ABV0@@Z
  ??4Navigator@@QAEAAV0@ABV0@@Z="C:\Windows\SysWOW64\spwizeng".??4Navigator@@QAEAAV0@ABV0@@Z
  ??4PIDStringView@@QAEAAV0@ABV0@@Z="C:\Windows\SysWOW64\spwizeng".??4PIDStringView@@QAEAAV0@ABV0@@Z
  ??4PageContainer@@QAEAAV0@ABV0@@Z="C:\Windows\SysWOW64\spwizeng".??4PageContainer@@QAEAAV0@ABV0@@Z
  ??4PageDef@@QAEAAU0@$$QAU0@@Z="C:\Windows\SysWOW64\spwizeng".??4PageDef@@QAEAAU0@$$QAU0@@Z
  ??4PageDef@@QAEAAU0@ABU0@@Z="C:\Windows\SysWOW64\spwizeng".??4PageDef@@QAEAAU0@ABU0@@Z
  ??4ProgressCreateStruct@@QAEAAU0@$$QAU0@@Z="C:\Windows\SysWOW64\spwizeng".??4ProgressCreateStruct@@QAEAAU0@$$QAU0@@Z
  ??4ProgressCreateStruct@@QAEAAU0@ABU0@@Z="C:\Windows\SysWOW64\spwizeng".??4ProgressCreateStruct@@QAEAAU0@ABU0@@Z
  ??4ProtoPageDimensions@@QAEAAU0@$$QAU0@@Z="C:\Windows\SysWOW64\spwizeng".??4ProtoPageDimensions@@QAEAAU0@$$QAU0@@Z
  ??4ProtoPageDimensions@@QAEAAU0@ABU0@@Z="C:\Windows\SysWOW64\spwizeng".??4ProtoPageDimensions@@QAEAAU0@ABU0@@Z
  ??4ProtoPageList@@QAEAAV0@ABV0@@Z="C:\Windows\SysWOW64\spwizeng".??4ProtoPageList@@QAEAAV0@ABV0@@Z
  ??4ScrWindow@@QAEAAV0@ABV0@@Z="C:\Windows\SysWOW64\spwizeng".??4ScrWindow@@QAEAAV0@ABV0@@Z
  ??4SimpleDialogBase@@QAEAAV0@$$QAV0@@Z="C:\Windows\SysWOW64\spwizeng".??4SimpleDialogBase@@QAEAAV0@$$QAV0@@Z
  ??4SimpleDialogBase@@QAEAAV0@ABV0@@Z="C:\Windows\SysWOW64\spwizeng".??4SimpleDialogBase@@QAEAAV0@ABV0@@Z
  ??4SimpleRect@@QAEAAU0@$$QAU0@@Z="C:\Windows\SysWOW64\spwizeng".??4SimpleRect@@QAEAAU0@$$QAU0@@Z
  ??4SimpleRect@@QAEAAU0@ABU0@@Z="C:\Windows\SysWOW64\spwizeng".??4SimpleRect@@QAEAAU0@ABU0@@Z
  ??4SimpleSize@@QAEAAU0@$$QAU0@@Z="C:\Windows\SysWOW64\spwizeng".??4SimpleSize@@QAEAAU0@$$QAU0@@Z
  ??4SimpleSize@@QAEAAU0@ABU0@@Z="C:\Windows\SysWOW64\spwizeng".??4SimpleSize@@QAEAAU0@ABU0@@Z
  ??4SimpleWizStrategy@@QAEAAV0@$$QAV0@@Z="C:\Windows\SysWOW64\spwizeng".??4SimpleWizStrategy@@QAEAAV0@$$QAV0@@Z
  ??4SimpleWizStrategy@@QAEAAV0@ABV0@@Z="C:\Windows\SysWOW64\spwizeng".??4SimpleWizStrategy@@QAEAAV0@ABV0@@Z
  ??4SummaryWizStrategy@@QAEAAV0@$$QAV0@@Z="C:\Windows\SysWOW64\spwizeng".??4SummaryWizStrategy@@QAEAAV0@$$QAV0@@Z
  ??4SummaryWizStrategy@@QAEAAV0@ABV0@@Z="C:\Windows\SysWOW64\spwizeng".??4SummaryWizStrategy@@QAEAAV0@ABV0@@Z
  ??4Win32Navigator@@QAEAAV0@ABV0@@Z="C:\Windows\SysWOW64\spwizeng".??4Win32Navigator@@QAEAAV0@ABV0@@Z
  ??4Wiz_Node@@QAEAAV0@ABV0@@Z="C:\Windows\SysWOW64\spwizeng".??4Wiz_Node@@QAEAAV0@ABV0@@Z
  ??4WizardBranch@@QAEAAV0@$$QAV0@@Z="C:\Windows\SysWOW64\spwizeng".??4WizardBranch@@QAEAAV0@$$QAV0@@Z
  ??4WizardBranch@@QAEAAV0@ABV0@@Z="C:\Windows\SysWOW64\spwizeng".??4WizardBranch@@QAEAAV0@ABV0@@Z
  ??4WizardCollection@@QAEAAV0@$$QAV0@@Z="C:\Windows\SysWOW64\spwizeng".??4WizardCollection@@QAEAAV0@$$QAV0@@Z
  ??4WizardCollection@@QAEAAV0@ABV0@@Z="C:\Windows\SysWOW64\spwizeng".??4WizardCollection@@QAEAAV0@ABV0@@Z
  ??4WizardDesciption@@QAEAAV0@$$QAV0@@Z="C:\Windows\SysWOW64\spwizeng".??4WizardDesciption@@QAEAAV0@$$QAV0@@Z
  ??4WizardDesciption@@QAEAAV0@ABV0@@Z="C:\Windows\SysWOW64\spwizeng".??4WizardDesciption@@QAEAAV0@ABV0@@Z
  ??4WizardDialogPost@@QAEAAV0@$$QAV0@@Z="C:\Windows\SysWOW64\spwizeng".??4WizardDialogPost@@QAEAAV0@$$QAV0@@Z
  ??4WizardDialogPost@@QAEAAV0@ABV0@@Z="C:\Windows\SysWOW64\spwizeng".??4WizardDialogPost@@QAEAAV0@ABV0@@Z
  ??4WizardDialogPre@@QAEAAV0@$$QAV0@@Z="C:\Windows\SysWOW64\spwizeng".??4WizardDialogPre@@QAEAAV0@$$QAV0@@Z
  ??4WizardDialogPre@@QAEAAV0@ABV0@@Z="C:\Windows\SysWOW64\spwizeng".??4WizardDialogPre@@QAEAAV0@ABV0@@Z
  ??4WizardEx@@QAEAAV0@ABV0@@Z="C:\Windows\SysWOW64\spwizeng".??4WizardEx@@QAEAAV0@ABV0@@Z
  ??4WizardHandler@@QAEAAV0@$$QAV0@@Z="C:\Windows\SysWOW64\spwizeng".??4WizardHandler@@QAEAAV0@$$QAV0@@Z
  ??4WizardHandler@@QAEAAV0@ABV0@@Z="C:\Windows\SysWOW64\spwizeng".??4WizardHandler@@QAEAAV0@ABV0@@Z
  ??4WizardNode@@QAEAAV0@ABV0@@Z="C:\Windows\SysWOW64\spwizeng".??4WizardNode@@QAEAAV0@ABV0@@Z
  ??4WizardPage@@QAEAAV0@ABV0@@Z="C:\Windows\SysWOW64\spwizeng".??4WizardPage@@QAEAAV0@ABV0@@Z
  ??4WizardRoot@@QAEAAV0@ABV0@@Z="C:\Windows\SysWOW64\spwizeng".??4WizardRoot@@QAEAAV0@ABV0@@Z
  ??4WizardStrategy@@QAEAAV0@ABV0@@Z="C:\Windows\SysWOW64\spwizeng".??4WizardStrategy@@QAEAAV0@ABV0@@Z
  ??4WizardSummary@@QAEAAV0@$$QAV0@@Z="C:\Windows\SysWOW64\spwizeng".??4WizardSummary@@QAEAAV0@$$QAV0@@Z
  ??4WizardSummary@@QAEAAV0@ABV0@@Z="C:\Windows\SysWOW64\spwizeng".??4WizardSummary@@QAEAAV0@ABV0@@Z
  ??4WizardUI@@QAEAAV0@ABV0@@Z="C:\Windows\SysWOW64\spwizeng".??4WizardUI@@QAEAAV0@ABV0@@Z
  ??4Wizard_PageDesciption@@QAEAAV0@ABV0@@Z="C:\Windows\SysWOW64\spwizeng".??4Wizard_PageDesciption@@QAEAAV0@ABV0@@Z
  ??A?$CSimpleArray@PAGV?$CSimpleArrayEqualHelper@PAG@ATL@@@ATL@@QAEAAPAGH@Z="C:\Windows\SysWOW64\spwizeng".??A?$CSimpleArray@PAGV?$CSimpleArrayEqualHelper@PAG@ATL@@@ATL@@QAEAAPAGH@Z
  ??A?$CSimpleArray@PAGV?$CSimpleArrayEqualHelper@PAG@ATL@@@ATL@@QBEABQAGH@Z="C:\Windows\SysWOW64\spwizeng".??A?$CSimpleArray@PAGV?$CSimpleArrayEqualHelper@PAG@ATL@@@ATL@@QBEABQAGH@Z
  ??A?$CSimpleArray@PAUIResourceModuleEvent@@V?$CSimpleArrayEqualHelper@PAUIResourceModuleEvent@@@ATL@@@ATL@@QAEAAPAUIResourceModuleEvent@@H@Z="C:\Windows\SysWOW64\spwizeng".??A?$CSimpleArray@PAUIResourceModuleEvent@@V?$CSimpleArrayEqualHelper@PAUIResourceModuleEvent@@@ATL@@@ATL@@QAEAAPAUIResourceModuleEvent@@H@Z
  ??A?$CSimpleArray@PAUIResourceModuleEvent@@V?$CSimpleArrayEqualHelper@PAUIResourceModuleEvent@@@ATL@@@ATL@@QBEABQAUIResourceModuleEvent@@H@Z="C:\Windows\SysWOW64\spwizeng".??A?$CSimpleArray@PAUIResourceModuleEvent@@V?$CSimpleArrayEqualHelper@PAUIResourceModuleEvent@@@ATL@@@ATL@@QBEABQAUIResourceModuleEvent@@H@Z
  ??A?$CSimpleArray@PAUKEYBOARD@@V?$CSimpleArrayEqualHelper@PAUKEYBOARD@@@ATL@@@ATL@@QAEAAPAUKEYBOARD@@H@Z="C:\Windows\SysWOW64\spwizeng".??A?$CSimpleArray@PAUKEYBOARD@@V?$CSimpleArrayEqualHelper@PAUKEYBOARD@@@ATL@@@ATL@@QAEAAPAUKEYBOARD@@H@Z
  ??A?$CSimpleArray@PAUKEYBOARD@@V?$CSimpleArrayEqualHelper@PAUKEYBOARD@@@ATL@@@ATL@@QBEABQAUKEYBOARD@@H@Z="C:\Windows\SysWOW64\spwizeng".??A?$CSimpleArray@PAUKEYBOARD@@V?$CSimpleArrayEqualHelper@PAUKEYBOARD@@@ATL@@@ATL@@QBEABQAUKEYBOARD@@H@Z
  ??A?$CSimpleArray@PAULANGUAGE@@V?$CSimpleArrayEqualHelper@PAULANGUAGE@@@ATL@@@ATL@@QAEAAPAULANGUAGE@@H@Z="C:\Windows\SysWOW64\spwizeng".??A?$CSimpleArray@PAULANGUAGE@@V?$CSimpleArrayEqualHelper@PAULANGUAGE@@@ATL@@@ATL@@QAEAAPAULANGUAGE@@H@Z
  ??A?$CSimpleArray@PAULANGUAGE@@V?$CSimpleArrayEqualHelper@PAULANGUAGE@@@ATL@@@ATL@@QBEABQAULANGUAGE@@H@Z="C:\Windows\SysWOW64\spwizeng".??A?$CSimpleArray@PAULANGUAGE@@V?$CSimpleArrayEqualHelper@PAULANGUAGE@@@ATL@@@ATL@@QBEABQAULANGUAGE@@H@Z
  ??A?$CSimpleArray@PAULOCALE@@V?$CSimpleArrayEqualHelper@PAULOCALE@@@ATL@@@ATL@@QAEAAPAULOCALE@@H@Z="C:\Windows\SysWOW64\spwizeng".??A?$CSimpleArray@PAULOCALE@@V?$CSimpleArrayEqualHelper@PAULOCALE@@@ATL@@@ATL@@QAEAAPAULOCALE@@H@Z
  ??A?$CSimpleArray@PAULOCALE@@V?$CSimpleArrayEqualHelper@PAULOCALE@@@ATL@@@ATL@@QBEABQAULOCALE@@H@Z="C:\Windows\SysWOW64\spwizeng".??A?$CSimpleArray@PAULOCALE@@V?$CSimpleArrayEqualHelper@PAULOCALE@@@ATL@@@ATL@@QBEABQAULOCALE@@H@Z
  ??A?$CSimpleStringT@G$0A@@ATL@@QBEGH@Z="C:\Windows\SysWOW64\spwizeng".??A?$CSimpleStringT@G$0A@@ATL@@QBEGH@Z
  ??B?$CSimpleStringT@G$0A@@ATL@@QAEAAV?$CSimpleStringT@G$00@1@XZ="C:\Windows\SysWOW64\spwizeng".??B?$CSimpleStringT@G$0A@@ATL@@QAEAAV?$CSimpleStringT@G$00@1@XZ
  ??B?$CSimpleStringT@G$0A@@ATL@@QBEPBGXZ="C:\Windows\SysWOW64\spwizeng".??B?$CSimpleStringT@G$0A@@ATL@@QBEPBGXZ
  ??B?$CStringT@GV?$StrTraitATL@GV?$ChTraitsCRT@G@ATL@@@ATL@@@ATL@@QAEAAV?$CSimpleStringT@G$00@1@XZ="C:\Windows\SysWOW64\spwizeng".??B?$CStringT@GV?$StrTraitATL@GV?$ChTraitsCRT@G@ATL@@@ATL@@@ATL@@QAEAAV?$CSimpleStringT@G$00@1@XZ
  ??Y?$CSimpleStringT@G$0A@@ATL@@QAEAAV01@ABV01@@Z="C:\Windows\SysWOW64\spwizeng".??Y?$CSimpleStringT@G$0A@@ATL@@QAEAAV01@ABV01@@Z
  ??Y?$CSimpleStringT@G$0A@@ATL@@QAEAAV01@D@Z="C:\Windows\SysWOW64\spwizeng".??Y?$CSimpleStringT@G$0A@@ATL@@QAEAAV01@D@Z
  ??Y?$CSimpleStringT@G$0A@@ATL@@QAEAAV01@E@Z="C:\Windows\SysWOW64\spwizeng".??Y?$CSimpleStringT@G$0A@@ATL@@QAEAAV01@E@Z
  ??Y?$CSimpleStringT@G$0A@@ATL@@QAEAAV01@G@Z="C:\Windows\SysWOW64\spwizeng".??Y?$CSimpleStringT@G$0A@@ATL@@QAEAAV01@G@Z
  ??Y?$CSimpleStringT@G$0A@@ATL@@QAEAAV01@PBG@Z="C:\Windows\SysWOW64\spwizeng".??Y?$CSimpleStringT@G$0A@@ATL@@QAEAAV01@PBG@Z
  ??Y?$CStringT@GV?$StrTraitATL@GV?$ChTraitsCRT@G@ATL@@@ATL@@@ATL@@QAEAAV01@ABUtagVARIANT@@@Z="C:\Windows\SysWOW64\spwizeng".??Y?$CStringT@GV?$StrTraitATL@GV?$ChTraitsCRT@G@ATL@@@ATL@@@ATL@@QAEAAV01@ABUtagVARIANT@@@Z
  ??Y?$CStringT@GV?$StrTraitATL@GV?$ChTraitsCRT@G@ATL@@@ATL@@@ATL@@QAEAAV01@ABV?$CSimpleStringT@G$0A@@1@@Z="C:\Windows\SysWOW64\spwizeng".??Y?$CStringT@GV?$StrTraitATL@GV?$ChTraitsCRT@G@ATL@@@ATL@@@ATL@@QAEAAV01@ABV?$CSimpleStringT@G$0A@@1@@Z
  ??Y?$CStringT@GV?$StrTraitATL@GV?$ChTraitsCRT@G@ATL@@@ATL@@@ATL@@QAEAAV01@D@Z="C:\Windows\SysWOW64\spwizeng".??Y?$CStringT@GV?$StrTraitATL@GV?$ChTraitsCRT@G@ATL@@@ATL@@@ATL@@QAEAAV01@D@Z
  ??Y?$CStringT@GV?$StrTraitATL@GV?$ChTraitsCRT@G@ATL@@@ATL@@@ATL@@QAEAAV01@E@Z="C:\Windows\SysWOW64\spwizeng".??Y?$CStringT@GV?$StrTraitATL@GV?$ChTraitsCRT@G@ATL@@@ATL@@@ATL@@QAEAAV01@E@Z
  ??Y?$CStringT@GV?$StrTraitATL@GV?$ChTraitsCRT@G@ATL@@@ATL@@@ATL@@QAEAAV01@G@Z="C:\Windows\SysWOW64\spwizeng".??Y?$CStringT@GV?$StrTraitATL@GV?$ChTraitsCRT@G@ATL@@@ATL@@@ATL@@QAEAAV01@G@Z
  ??Y?$CStringT@GV?$StrTraitATL@GV?$ChTraitsCRT@G@ATL@@@ATL@@@ATL@@QAEAAV01@PBD@Z="C:\Windows\SysWOW64\spwizeng".??Y?$CStringT@GV?$StrTraitATL@GV?$ChTraitsCRT@G@ATL@@@ATL@@@ATL@@QAEAAV01@PBD@Z
  ??Y?$CStringT@GV?$StrTraitATL@GV?$ChTraitsCRT@G@ATL@@@ATL@@@ATL@@QAEAAV01@PBG@Z="C:\Windows\SysWOW64\spwizeng".??Y?$CStringT@GV?$StrTraitATL@GV?$ChTraitsCRT@G@ATL@@@ATL@@@ATL@@QAEAAV01@PBG@Z
  ??_7AppWindow@@6BIWndObj@@@="C:\Windows\SysWOW64\spwizeng".??_7AppWindow@@6BIWndObj@@@
  ??_7AppWindow@@6BIWndProp@@@="C:\Windows\SysWOW64\spwizeng".??_7AppWindow@@6BIWndProp@@@
  ??_7BranchWizStrategy@@6B@="C:\Windows\SysWOW64\spwizeng".??_7BranchWizStrategy@@6B@
  ??_7CAnimation@@6B@="C:\Windows\SysWOW64\spwizeng".??_7CAnimation@@6B@
  ??_7CAnimationControl@@6B@="C:\Windows\SysWOW64\spwizeng".??_7CAnimationControl@@6B@
  ??_7CAttachDataDlg@@6B@="C:\Windows\SysWOW64\spwizeng".??_7CAttachDataDlg@@6B@
  ??_7CCritSec@@6B@="C:\Windows\SysWOW64\spwizeng".??_7CCritSec@@6B@
  ??_7CCtlText@@6B@="C:\Windows\SysWOW64\spwizeng".??_7CCtlText@@6B@
  ??_7CCursor@@6B@="C:\Windows\SysWOW64\spwizeng".??_7CCursor@@6B@
  ??_7CCustomButtonEx@@6B@="C:\Windows\SysWOW64\spwizeng".??_7CCustomButtonEx@@6B@
  ??_7CCustomGraphicEx@@6B@="C:\Windows\SysWOW64\spwizeng".??_7CCustomGraphicEx@@6B@
  ??_7CDrawBackground@@6B@="C:\Windows\SysWOW64\spwizeng".??_7CDrawBackground@@6B@
  ??_7CDrawItem@@6B@="C:\Windows\SysWOW64\spwizeng".??_7CDrawItem@@6B@
  ??_7CDrawItemComposite@@6B@="C:\Windows\SysWOW64\spwizeng".??_7CDrawItemComposite@@6B@
  ??_7CGenericNavWindow@@6B@="C:\Windows\SysWOW64\spwizeng".??_7CGenericNavWindow@@6B@
  ??_7CHighContrast@@6B@="C:\Windows\SysWOW64\spwizeng".??_7CHighContrast@@6B@
  ??_7CScreenDIB@@6B@="C:\Windows\SysWOW64\spwizeng".??_7CScreenDIB@@6B@
  ??_7CScreenText@@6B@="C:\Windows\SysWOW64\spwizeng".??_7CScreenText@@6B@
  ??_7CWndObj@@6BIWndObj@@@="C:\Windows\SysWOW64\spwizeng".??_7CWndObj@@6BIWndObj@@@
  ??_7CWndObj@@6BIWndProp@@@="C:\Windows\SysWOW64\spwizeng".??_7CWndObj@@6BIWndProp@@@
  ??_7ChoiceWizStrategy@@6B@="C:\Windows\SysWOW64\spwizeng".??_7ChoiceWizStrategy@@6B@
  ??_7ICreateNavbarWnd@@6B@="C:\Windows\SysWOW64\spwizeng".??_7ICreateNavbarWnd@@6B@
  ??_7ICreateProgressWnd@@6B@="C:\Windows\SysWOW64\spwizeng".??_7ICreateProgressWnd@@6B@
  ??_7IResourceModuleEvent@@6B@="C:\Windows\SysWOW64\spwizeng".??_7IResourceModuleEvent@@6B@
  ??_7LanguageNeutralSelectionDialogBase@@6B@="C:\Windows\SysWOW64\spwizeng".??_7LanguageNeutralSelectionDialogBase@@6B@
  ??_7LanguageSelectionDialogBase@@6B@="C:\Windows\SysWOW64\spwizeng".??_7LanguageSelectionDialogBase@@6B@
  ??_7NavWindow@@6B@="C:\Windows\SysWOW64\spwizeng".??_7NavWindow@@6B@
  ??_7NavigationStack@@6B@="C:\Windows\SysWOW64\spwizeng".??_7NavigationStack@@6B@
  ??_7Navigator@@6B@="C:\Windows\SysWOW64\spwizeng".??_7Navigator@@6B@
  ??_7PIDStringView@@6B@="C:\Windows\SysWOW64\spwizeng".??_7PIDStringView@@6B@
  ??_7PageContainer@@6B@="C:\Windows\SysWOW64\spwizeng".??_7PageContainer@@6B@
  ??_7ScrWindow@@6BIWndObj@@@="C:\Windows\SysWOW64\spwizeng".??_7ScrWindow@@6BIWndObj@@@
  ??_7ScrWindow@@6BIWndProp@@@="C:\Windows\SysWOW64\spwizeng".??_7ScrWindow@@6BIWndProp@@@
  ??_7SimpleDialogBase@@6B@="C:\Windows\SysWOW64\spwizeng".??_7SimpleDialogBase@@6B@
  ??_7SimpleWizStrategy@@6B@="C:\Windows\SysWOW64\spwizeng".??_7SimpleWizStrategy@@6B@
  ??_7SummaryWizStrategy@@6B@="C:\Windows\SysWOW64\spwizeng".??_7SummaryWizStrategy@@6B@
  ??_7VariationWizStrategy@@6B@="C:\Windows\SysWOW64\spwizeng".??_7VariationWizStrategy@@6B@
  ??_7Win32Navigator@@6B@="C:\Windows\SysWOW64\spwizeng".??_7Win32Navigator@@6B@
  ??_7Wiz_Node@@6B@="C:\Windows\SysWOW64\spwizeng".??_7Wiz_Node@@6B@
  ??_7WizardBranch@@6B@="C:\Windows\SysWOW64\spwizeng".??_7WizardBranch@@6B@
  ??_7WizardCollection@@6B@="C:\Windows\SysWOW64\spwizeng".??_7WizardCollection@@6B@
  ??_7WizardDesciption@@6B@="C:\Windows\SysWOW64\spwizeng".??_7WizardDesciption@@6B@
  ??_7WizardDialogPost@@6B@="C:\Windows\SysWOW64\spwizeng".??_7WizardDialogPost@@6B@
  ??_7WizardDialogPre@@6B@="C:\Windows\SysWOW64\spwizeng".??_7WizardDialogPre@@6B@
  ??_7WizardEx@@6BINavigationNode@@@="C:\Windows\SysWOW64\spwizeng".??_7WizardEx@@6BINavigationNode@@@
  ??_7WizardEx@@6BWizardNode@@@="C:\Windows\SysWOW64\spwizeng".??_7WizardEx@@6BWizardNode@@@
  ??_7WizardHandler@@6B@="C:\Windows\SysWOW64\spwizeng".??_7WizardHandler@@6B@
  ??_7WizardNode@@6B@="C:\Windows\SysWOW64\spwizeng".??_7WizardNode@@6B@
  ??_7WizardPage@@6B@="C:\Windows\SysWOW64\spwizeng".??_7WizardPage@@6B@
  ??_7WizardRoot@@6B@="C:\Windows\SysWOW64\spwizeng".??_7WizardRoot@@6B@
  ??_7WizardStrategy@@6B@="C:\Windows\SysWOW64\spwizeng".??_7WizardStrategy@@6B@
  ??_7WizardSummary@@6B@="C:\Windows\SysWOW64\spwizeng".??_7WizardSummary@@6B@
  ??_7WizardVariation@@6B@="C:\Windows\SysWOW64\spwizeng".??_7WizardVariation@@6B@
  ??_7Wizard_PageDesciption@@6B@="C:\Windows\SysWOW64\spwizeng".??_7Wizard_PageDesciption@@6B@
  ?Add@?$CSimpleArray@PAGV?$CSimpleArrayEqualHelper@PAG@ATL@@@ATL@@QAEHABQAG@Z="C:\Windows\SysWOW64\spwizeng".?Add@?$CSimpleArray@PAGV?$CSimpleArrayEqualHelper@PAG@ATL@@@ATL@@QAEHABQAG@Z
  ?Add@?$CSimpleArray@PAUIResourceModuleEvent@@V?$CSimpleArrayEqualHelper@PAUIResourceModuleEvent@@@ATL@@@ATL@@QAEHABQAUIResourceModuleEvent@@@Z="C:\Windows\SysWOW64\spwizeng".?Add@?$CSimpleArray@PAUIResourceModuleEvent@@V?$CSimpleArrayEqualHelper@PAUIResourceModuleEvent@@@ATL@@@ATL@@QAEHABQAUIResourceModuleEvent@@@Z
  ?Add@?$CSimpleArray@PAUKEYBOARD@@V?$CSimpleArrayEqualHelper@PAUKEYBOARD@@@ATL@@@ATL@@QAEHABQAUKEYBOARD@@@Z="C:\Windows\SysWOW64\spwizeng".?Add@?$CSimpleArray@PAUKEYBOARD@@V?$CSimpleArrayEqualHelper@PAUKEYBOARD@@@ATL@@@ATL@@QAEHABQAUKEYBOARD@@@Z
  ?Add@?$CSimpleArray@PAULANGUAGE@@V?$CSimpleArrayEqualHelper@PAULANGUAGE@@@ATL@@@ATL@@QAEHABQAULANGUAGE@@@Z="C:\Windows\SysWOW64\spwizeng".?Add@?$CSimpleArray@PAULANGUAGE@@V?$CSimpleArrayEqualHelper@PAULANGUAGE@@@ATL@@@ATL@@QAEHABQAULANGUAGE@@@Z
  ?Add@?$CSimpleArray@PAULOCALE@@V?$CSimpleArrayEqualHelper@PAULOCALE@@@ATL@@@ATL@@QAEHABQAULOCALE@@@Z="C:\Windows\SysWOW64\spwizeng".?Add@?$CSimpleArray@PAULOCALE@@V?$CSimpleArrayEqualHelper@PAULOCALE@@@ATL@@@ATL@@QAEHABQAULOCALE@@@Z
  ?AddItem@CDrawItemComposite@@QAEXPAVCDrawItem@@@Z="C:\Windows\SysWOW64\spwizeng".?AddItem@CDrawItemComposite@@QAEXPAVCDrawItem@@@Z
  ?AddPage@PageContainer@@QAGXPAVWizardPage@@@Z="C:\Windows\SysWOW64\spwizeng".?AddPage@PageContainer@@QAGXPAVWizardPage@@@Z
  ?AddPage@WizardUI@@QAEHPAVWizardPage@@@Z="C:\Windows\SysWOW64\spwizeng".?AddPage@WizardUI@@QAEHPAVWizardPage@@@Z
  ?AddRef@CWndObj@@UAGKXZ="C:\Windows\SysWOW64\spwizeng".?AddRef@CWndObj@@UAGKXZ
  ?AllocSysString@?$CStringT@GV?$StrTraitATL@GV?$ChTraitsCRT@G@ATL@@@ATL@@@ATL@@QBEPAGXZ="C:\Windows\SysWOW64\spwizeng".?AllocSysString@?$CStringT@GV?$StrTraitATL@GV?$ChTraitsCRT@G@ATL@@@ATL@@@ATL@@QBEPAGXZ
  ?Append@?$CSimpleStringT@G$0A@@ATL@@QAEXABV12@@Z="C:\Windows\SysWOW64\spwizeng".?Append@?$CSimpleStringT@G$0A@@ATL@@QAEXABV12@@Z
  ?Append@?$CSimpleStringT@G$0A@@ATL@@QAEXPBG@Z="C:\Windows\SysWOW64\spwizeng".?Append@?$CSimpleStringT@G$0A@@ATL@@QAEXPBG@Z
  ?Append@?$CSimpleStringT@G$0A@@ATL@@QAEXPBGH@Z="C:\Windows\SysWOW64\spwizeng".?Append@?$CSimpleStringT@G$0A@@ATL@@QAEXPBGH@Z
  ?AppendChar@?$CSimpleStringT@G$0A@@ATL@@QAEXG@Z="C:\Windows\SysWOW64\spwizeng".?AppendChar@?$CSimpleStringT@G$0A@@ATL@@QAEXG@Z
  ?AppendFormat@?$CStringT@GV?$StrTraitATL@GV?$ChTraitsCRT@G@ATL@@@ATL@@@ATL@@QAAXIZZ="C:\Windows\SysWOW64\spwizeng".?AppendFormat@?$CStringT@GV?$StrTraitATL@GV?$ChTraitsCRT@G@ATL@@@ATL@@@ATL@@QAAXIZZ
  ?AppendFormat@?$CStringT@GV?$StrTraitATL@GV?$ChTraitsCRT@G@ATL@@@ATL@@@ATL@@QAAXPBGZZ="C:\Windows\SysWOW64\spwizeng".?AppendFormat@?$CStringT@GV?$StrTraitATL@GV?$ChTraitsCRT@G@ATL@@@ATL@@@ATL@@QAAXPBGZZ
  ?AppendFormatV@?$CStringT@GV?$StrTraitATL@GV?$ChTraitsCRT@G@ATL@@@ATL@@@ATL@@QAEXPBGPAD@Z="C:\Windows\SysWOW64\spwizeng".?AppendFormatV@?$CStringT@GV?$StrTraitATL@GV?$ChTraitsCRT@G@ATL@@@ATL@@@ATL@@QAEXPBGPAD@Z
  ?Attach@?$CSimpleStringT@G$0A@@ATL@@AAEXPAUCStringData@2@@Z="C:\Windows\SysWOW64\spwizeng".?Attach@?$CSimpleStringT@G$0A@@ATL@@AAEXPAUCStringData@2@@Z
  ?Back@Navigator@@UAGPAVWizardPage@@PAVWizardNode@@@Z="C:\Windows\SysWOW64\spwizeng".?Back@Navigator@@UAGPAVWizardPage@@PAVWizardNode@@@Z
  ?Back@WizardEx@@UAGPAVWizardPage@@PAVWizardNode@@@Z="C:\Windows\SysWOW64\spwizeng".?Back@WizardEx@@UAGPAVWizardPage@@PAVWizardNode@@@Z
  ?BlendNormal32@CDIB@@CGXPAV1@0@Z="C:\Windows\SysWOW64\spwizeng".?BlendNormal32@CDIB@@CGXPAV1@0@Z
  ?ButtonContinue@WizardHandler@@QAEPAVCCustomButtonEx@@XZ="C:\Windows\SysWOW64\spwizeng".?ButtonContinue@WizardHandler@@QAEPAVCCustomButtonEx@@XZ
  ?ButtonContinue@WizardRoot@@QAEAAPAVCCustomButtonEx@@XZ="C:\Windows\SysWOW64\spwizeng".?ButtonContinue@WizardRoot@@QAEAAPAVCCustomButtonEx@@XZ
  ?ButtonFinish@WizardHandler@@QAEPAVCCustomButtonEx@@XZ="C:\Windows\SysWOW64\spwizeng".?ButtonFinish@WizardHandler@@QAEPAVCCustomButtonEx@@XZ
  ?ButtonFinish@WizardRoot@@QAEAAPAVCCustomButtonEx@@XZ="C:\Windows\SysWOW64\spwizeng".?ButtonFinish@WizardRoot@@QAEAAPAVCCustomButtonEx@@XZ
  ?CStringExpandEnvironmentStrings@@YG?AV?$CStringT@GV?$StrTraitATL@GV?$ChTraitsCRT@G@ATL@@@ATL@@@ATL@@V12@@Z="C:\Windows\SysWOW64\spwizeng".?CStringExpandEnvironmentStrings@@YG?AV?$CStringT@GV?$StrTraitATL@GV?$ChTraitsCRT@G@ATL@@@ATL@@@ATL@@V12@@Z
  ?CStringGetModuleFileName@@YG?AV?$CStringT@GV?$StrTraitATL@GV?$ChTraitsCRT@G@ATL@@@ATL@@@ATL@@PAUHINSTANCE__@@@Z="C:\Windows\SysWOW64\spwizeng".?CStringGetModuleFileName@@YG?AV?$CStringT@GV?$StrTraitATL@GV?$ChTraitsCRT@G@ATL@@@ATL@@@ATL@@PAUHINSTANCE__@@@Z
  ?CStringGetPrivateProfileString@@YG?AV?$CStringT@GV?$StrTraitATL@GV?$ChTraitsCRT@G@ATL@@@ATL@@@ATL@@PBG000@Z="C:\Windows\SysWOW64\spwizeng".?CStringGetPrivateProfileString@@YG?AV?$CStringT@GV?$StrTraitATL@GV?$ChTraitsCRT@G@ATL@@@ATL@@@ATL@@PBG000@Z
  ?CStringGetWindowText@@YG?AV?$CStringT@GV?$StrTraitATL@GV?$ChTraitsCRT@G@ATL@@@ATL@@@ATL@@PAUHWND__@@@Z="C:\Windows\SysWOW64\spwizeng".?CStringGetWindowText@@YG?AV?$CStringT@GV?$StrTraitATL@GV?$ChTraitsCRT@G@ATL@@@ATL@@@ATL@@PAUHWND__@@@Z
  ?CStringGetWindowsDirectory@@YG?AV?$CStringT@GV?$StrTraitATL@GV?$ChTraitsCRT@G@ATL@@@ATL@@@ATL@@XZ="C:\Windows\SysWOW64\spwizeng".?CStringGetWindowsDirectory@@YG?AV?$CStringT@GV?$StrTraitATL@GV?$ChTraitsCRT@G@ATL@@@ATL@@@ATL@@XZ
  ?CalcAppSize@WizardUI@@AAEXXZ="C:\Windows\SysWOW64\spwizeng".?CalcAppSize@WizardUI@@AAEXXZ
  ?CanPageBeActivated@LanguageNeutralSelectionDialogBase@@UAEHW4Direction@@PAH@Z="C:\Windows\SysWOW64\spwizeng".?CanPageBeActivated@LanguageNeutralSelectionDialogBase@@UAEHW4Direction@@PAH@Z
  ?CanPageBeActivated@LanguageSelectionDialogBase@@UAEHW4Direction@@PAH@Z="C:\Windows\SysWOW64\spwizeng".?CanPageBeActivated@LanguageSelectionDialogBase@@UAEHW4Direction@@PAH@Z
  ?CanPageBeActivated@WizardHandler@@EAEHW4Direction@@PAH@Z="C:\Windows\SysWOW64\spwizeng".?CanPageBeActivated@WizardHandler@@EAEHW4Direction@@PAH@Z
  ?CanPageBeActivated@WizardRoot@@UAEHW4Direction@@PAH@Z="C:\Windows\SysWOW64\spwizeng".?CanPageBeActivated@WizardRoot@@UAEHW4Direction@@PAH@Z
  ?CanPageBeActivatedWrapper@WizardHandler@@QAEHW4Direction@@PAH@Z="C:\Windows\SysWOW64\spwizeng".?CanPageBeActivatedWrapper@WizardHandler@@QAEHW4Direction@@PAH@Z
  ?Cancel@Navigator@@UAGPAVWizardPage@@XZ="C:\Windows\SysWOW64\spwizeng".?Cancel@Navigator@@UAGPAVWizardPage@@XZ
  ?CenterApp@WizardUI@@AAEXPAUHWND__@@UtagRECT@@@Z="C:\Windows\SysWOW64\spwizeng".?CenterApp@WizardUI@@AAEXPAUHWND__@@UtagRECT@@@Z
  ?ChangeUiLanguage@CResourceModule@@SGHPBG@Z="C:\Windows\SysWOW64\spwizeng".?ChangeUiLanguage@CResourceModule@@SGHPBG@Z
  ?CharToOemA@?$CStringT@GV?$StrTraitATL@GV?$ChTraitsCRT@G@ATL@@@ATL@@@ATL@@QAEXXZ="C:\Windows\SysWOW64\spwizeng".?CharToOemA@?$CStringT@GV?$StrTraitATL@GV?$ChTraitsCRT@G@ATL@@@ATL@@@ATL@@QAEXXZ
  ?CheckImplicitLoad@?$CStringT@GV?$StrTraitATL@GV?$ChTraitsCRT@G@ATL@@@ATL@@@ATL@@AAE_NPBX@Z="C:\Windows\SysWOW64\spwizeng".?CheckImplicitLoad@?$CStringT@GV?$StrTraitATL@GV?$ChTraitsCRT@G@ATL@@@ATL@@@ATL@@AAE_NPBX@Z
  ?ClearCursorWait@CCursor@@QAEXXZ="C:\Windows\SysWOW64\spwizeng".?ClearCursorWait@CCursor@@QAEXXZ
  ?ClearString@MyString@@QAEXXZ="C:\Windows\SysWOW64\spwizeng".?ClearString@MyString@@QAEXXZ
  ?ClearString@PIDStringView@@QAEXXZ="C:\Windows\SysWOW64\spwizeng".?ClearString@PIDStringView@@QAEXXZ
  ?CloneData@?$CSimpleStringT@G$0A@@ATL@@CAPAUCStringData@2@PAU32@@Z="C:\Windows\SysWOW64\spwizeng".?CloneData@?$CSimpleStringT@G$0A@@ATL@@CAPAUCStringData@2@PAU32@@Z
  ?Collate@?$CStringT@GV?$StrTraitATL@GV?$ChTraitsCRT@G@ATL@@@ATL@@@ATL@@QBEHPBG@Z="C:\Windows\SysWOW64\spwizeng".?Collate@?$CStringT@GV?$StrTraitATL@GV?$ChTraitsCRT@G@ATL@@@ATL@@@ATL@@QBEHPBG@Z
  ?CollateNoCase@?$CStringT@GV?$StrTraitATL@GV?$ChTraitsCRT@G@ATL@@@ATL@@@ATL@@QBEHPBG@Z="C:\Windows\SysWOW64\spwizeng".?CollateNoCase@?$CStringT@GV?$StrTraitATL@GV?$ChTraitsCRT@G@ATL@@@ATL@@@ATL@@QBEHPBG@Z
  ?CommandHandled@WizardRoot@@QAEAAHXZ="C:\Windows\SysWOW64\spwizeng".?CommandHandled@WizardRoot@@QAEAAHXZ
  ?Compare@?$CStringT@GV?$StrTraitATL@GV?$ChTraitsCRT@G@ATL@@@ATL@@@ATL@@QBEHPBG@Z="C:\Windows\SysWOW64\spwizeng".?Compare@?$CStringT@GV?$StrTraitATL@GV?$ChTraitsCRT@G@ATL@@@ATL@@@ATL@@QBEHPBG@Z
  ?CompareNoCase@?$CStringT@GV?$StrTraitATL@GV?$ChTraitsCRT@G@ATL@@@ATL@@@ATL@@QBEHPBG@Z="C:\Windows\SysWOW64\spwizeng".?CompareNoCase@?$CStringT@GV?$StrTraitATL@GV?$ChTraitsCRT@G@ATL@@@ATL@@@ATL@@QBEHPBG@Z
  ?ComposeOffscreen@CDrawItem@@UAEXPAUHWND__@@@Z="C:\Windows\SysWOW64\spwizeng".?ComposeOffscreen@CDrawItem@@UAEXPAUHWND__@@@Z
  ?ComposeOffscreen@CDrawItemComposite@@UAEXPAUHWND__@@@Z="C:\Windows\SysWOW64\spwizeng".?ComposeOffscreen@CDrawItemComposite@@UAEXPAUHWND__@@@Z
  ?ComposeOffscreen@CScreenText@@UAEXPAUHWND__@@@Z="C:\Windows\SysWOW64\spwizeng".?ComposeOffscreen@CScreenText@@UAEXPAUHWND__@@@Z
  ?Concatenate@?$CSimpleStringT@G$0A@@ATL@@KAXAAV12@PBGH1H@Z="C:\Windows\SysWOW64\spwizeng".?Concatenate@?$CSimpleStringT@G$0A@@ATL@@KAXAAV12@PBGH1H@Z
  ?Construct@?$CStringT@GV?$StrTraitATL@GV?$ChTraitsCRT@G@ATL@@@ATL@@@ATL@@SAXPAV12@@Z="C:\Windows\SysWOW64\spwizeng".?Construct@?$CStringT@GV?$StrTraitATL@GV?$ChTraitsCRT@G@ATL@@@ATL@@@ATL@@SAXPAV12@@Z
  ?ConvertColorKeyToAlpha@CDIB@@QAEXXZ="C:\Windows\SysWOW64\spwizeng".?ConvertColorKeyToAlpha@CDIB@@QAEXXZ
  ?CopyChars@?$CSimpleStringT@G$0A@@ATL@@SAXPAGIPBGH@Z="C:\Windows\SysWOW64\spwizeng".?CopyChars@?$CSimpleStringT@G$0A@@ATL@@SAXPAGIPBGH@Z
  ?CopyChars@?$CSimpleStringT@G$0A@@ATL@@SAXPAGPBGH@Z="C:\Windows\SysWOW64\spwizeng".?CopyChars@?$CSimpleStringT@G$0A@@ATL@@SAXPAGPBGH@Z
  ?CopyCharsOverlapped@?$CSimpleStringT@G$0A@@ATL@@SAXPAGIPBGH@Z="C:\Windows\SysWOW64\spwizeng".?CopyCharsOverlapped@?$CSimpleStringT@G$0A@@ATL@@SAXPAGIPBGH@Z
  ?CopyCharsOverlapped@?$CSimpleStringT@G$0A@@ATL@@SAXPAGPBGH@Z="C:\Windows\SysWOW64\spwizeng".?CopyCharsOverlapped@?$CSimpleStringT@G$0A@@ATL@@SAXPAGPBGH@Z
  ?Create@CCustomButtonEx@@SGPAV1@PAUHINSTANCE__@@0PAUHWND__@@@Z="C:\Windows\SysWOW64\spwizeng".?Create@CCustomButtonEx@@SGPAV1@PAUHINSTANCE__@@0PAUHWND__@@@Z
  ?Create@CCustomButtonEx@@SGPAV1@PAUHINSTANCE__@@0PAUHWND__@@I@Z="C:\Windows\SysWOW64\spwizeng".?Create@CCustomButtonEx@@SGPAV1@PAUHINSTANCE__@@0PAUHWND__@@I@Z
  ?Create@CCustomButtonEx@@SGPAV1@PAUHINSTANCE__@@0PAUHWND__@@IPAUHDC__@@1@Z="C:\Windows\SysWOW64\spwizeng".?Create@CCustomButtonEx@@SGPAV1@PAUHINSTANCE__@@0PAUHWND__@@IPAUHDC__@@1@Z
  ?Create@CCustomButtonEx@@SGPAV1@PAUHINSTANCE__@@0PAUHWND__@@PAUHDC__@@1@Z="C:\Windows\SysWOW64\spwizeng".?Create@CCustomButtonEx@@SGPAV1@PAUHINSTANCE__@@0PAUHWND__@@PAUHDC__@@1@Z
  ?CreateAppWindow@WizardUI@@AAEXXZ="C:\Windows\SysWOW64\spwizeng".?CreateAppWindow@WizardUI@@AAEXXZ
  ?CreateEx@CCustomButtonEx@@SGPAV1@PAUHINSTANCE__@@0PAUHWND__@@IQAU_Button_Data@@PAUHDC__@@1@Z="C:\Windows\SysWOW64\spwizeng".?CreateEx@CCustomButtonEx@@SGPAV1@PAUHINSTANCE__@@0PAUHWND__@@IQAU_Button_Data@@PAUHDC__@@1@Z
  ?CreateEx@CCustomButtonEx@@SGPAV1@PAUHINSTANCE__@@0PAUHWND__@@QAU_Button_Data@@PAUHDC__@@1@Z="C:\Windows\SysWOW64\spwizeng".?CreateEx@CCustomButtonEx@@SGPAV1@PAUHINSTANCE__@@0PAUHWND__@@QAU_Button_Data@@PAUHDC__@@1@Z
  ?CreateFromHwnd@CDIB@@QAEHPAUHWND__@@@Z="C:\Windows\SysWOW64\spwizeng".?CreateFromHwnd@CDIB@@QAEHPAUHWND__@@@Z
  ?CreateIndirect@CCustomButtonEx@@SGPAV1@PAUHINSTANCE__@@0PAUHWND__@@IQAU_Button_Data@@@Z="C:\Windows\SysWOW64\spwizeng".?CreateIndirect@CCustomButtonEx@@SGPAV1@PAUHINSTANCE__@@0PAUHWND__@@IQAU_Button_Data@@@Z
  ?CreateIndirect@CCustomButtonEx@@SGPAV1@PAUHINSTANCE__@@0PAUHWND__@@QAU_Button_Data@@@Z="C:\Windows\SysWOW64\spwizeng".?CreateIndirect@CCustomButtonEx@@SGPAV1@PAUHINSTANCE__@@0PAUHWND__@@QAU_Button_Data@@@Z
  ?CreateNavWindow@WizardUI@@AAEHXZ="C:\Windows\SysWOW64\spwizeng".?CreateNavWindow@WizardUI@@AAEHXZ
  ?CreateNode@WizardBranch@@UAEPAVWizardNode@@IPAVWizardEx@@PAVWizardUI@@@Z="C:\Windows\SysWOW64\spwizeng".?CreateNode@WizardBranch@@UAEPAVWizardNode@@IPAVWizardEx@@PAVWizardUI@@@Z
  ?CreateNode@WizardDesciption@@UAEPAVWizardNode@@IPAVWizardEx@@PAVWizardUI@@@Z="C:\Windows\SysWOW64\spwizeng".?CreateNode@WizardDesciption@@UAEPAVWizardNode@@IPAVWizardEx@@PAVWizardUI@@@Z
  ?CreateNode@WizardSummary@@UAEPAVWizardNode@@IPAVWizardEx@@PAVWizardUI@@@Z="C:\Windows\SysWOW64\spwizeng".?CreateNode@WizardSummary@@UAEPAVWizardNode@@IPAVWizardEx@@PAVWizardUI@@@Z
  ?CreateNode@WizardVariation@@UAEPAVWizardNode@@IPAVWizardEx@@PAVWizardUI@@@Z="C:\Windows\SysWOW64\spwizeng".?CreateNode@WizardVariation@@UAEPAVWizardNode@@IPAVWizardEx@@PAVWizardUI@@@Z
  ?CreateNode@Wizard_PageDesciption@@UAEPAVWizardNode@@IPAVWizardEx@@PAVWizardUI@@@Z="C:\Windows\SysWOW64\spwizeng".?CreateNode@Wizard_PageDesciption@@UAEPAVWizardNode@@IPAVWizardEx@@PAVWizardUI@@@Z
  ?CreateNodeHelper@WizardCollection@@QAEPAVWizardEx@@IPAV2@PAVWizardUI@@@Z="C:\Windows\SysWOW64\spwizeng".?CreateNodeHelper@WizardCollection@@QAEPAVWizardEx@@IPAV2@PAVWizardUI@@@Z
  ?CreateProgressWindow@WizardUI@@AAEHXZ="C:\Windows\SysWOW64\spwizeng".?CreateProgressWindow@WizardUI@@AAEHXZ
  ?CreatePropertySheet@WizardUI@@AAEXXZ="C:\Windows\SysWOW64\spwizeng".?CreatePropertySheet@WizardUI@@AAEXXZ
  ?CreateScrWindow@WizardUI@@AAEXXZ="C:\Windows\SysWOW64\spwizeng".?CreateScrWindow@WizardUI@@AAEXXZ
  ?CreateWindows@WizardUI@@AAEXXZ="C:\Windows\SysWOW64\spwizeng".?CreateWindows@WizardUI@@AAEXXZ
  ?Delete@?$CStringT@GV?$StrTraitATL@GV?$ChTraitsCRT@G@ATL@@@ATL@@@ATL@@QAEHHH@Z="C:\Windows\SysWOW64\spwizeng".?Delete@?$CStringT@GV?$StrTraitATL@GV?$ChTraitsCRT@G@ATL@@@ATL@@@ATL@@QAEHHH@Z
  ?DeleteBackground@WizardUI@@CGXXZ="C:\Windows\SysWOW64\spwizeng".?DeleteBackground@WizardUI@@CGXXZ
  ?Destroy@CCustomButtonEx@@SGXPAV1@@Z="C:\Windows\SysWOW64\spwizeng".?Destroy@CCustomButtonEx@@SGXPAV1@@Z
  ?DestroyAllStandardButtons@WizardRoot@@QAGXXZ="C:\Windows\SysWOW64\spwizeng".?DestroyAllStandardButtons@WizardRoot@@QAGXXZ
  ?DestroyAppWindow@WizardUI@@AAEXXZ="C:\Windows\SysWOW64\spwizeng".?DestroyAppWindow@WizardUI@@AAEXXZ
  ?DestroyDialog@CAttachDataDlg@@QAEXIIJ@Z="C:\Windows\SysWOW64\spwizeng".?DestroyDialog@CAttachDataDlg@@QAEXIIJ@Z
  ?DestroyDialog@CGenericNavWindow@@AAEXXZ="C:\Windows\SysWOW64\spwizeng".?DestroyDialog@CGenericNavWindow@@AAEXXZ
  ?DestroyNavWindow@WizardUI@@AAEXXZ="C:\Windows\SysWOW64\spwizeng".?DestroyNavWindow@WizardUI@@AAEXXZ
  ?DestroyProgressWindow@WizardUI@@AAEXXZ="C:\Windows\SysWOW64\spwizeng".?DestroyProgressWindow@WizardUI@@AAEXXZ
  ?DestroyPropertySheet@WizardUI@@AAEXXZ="C:\Windows\SysWOW64\spwizeng".?DestroyPropertySheet@WizardUI@@AAEXXZ
  ?DestroyScrWindow@WizardUI@@AAEXXZ="C:\Windows\SysWOW64\spwizeng".?DestroyScrWindow@WizardUI@@AAEXXZ
  ?DestroyStandardButton@WizardRoot@@QAGXPAVCCustomButtonEx@@@Z="C:\Windows\SysWOW64\spwizeng".?DestroyStandardButton@WizardRoot@@QAGXPAVCCustomButtonEx@@@Z
  ?DestroyWindows@WizardUI@@AAEXXZ="C:\Windows\SysWOW64\spwizeng".?DestroyWindows@WizardUI@@AAEXXZ
  ?DibHeight@CDIB@@QBEJXZ="C:\Windows\SysWOW64\spwizeng".?DibHeight@CDIB@@QBEJXZ
  ?DibWidth@CDIB@@QBEJXZ="C:\Windows\SysWOW64\spwizeng".?DibWidth@CDIB@@QBEJXZ
  ?DoCancel@Win32Navigator@@UAGXXZ="C:\Windows\SysWOW64\spwizeng".?DoCancel@Win32Navigator@@UAGXXZ
  ?DoGoToPageIndex@Win32Navigator@@UAGXH@Z="C:\Windows\SysWOW64\spwizeng".?DoGoToPageIndex@Win32Navigator@@UAGXH@Z
  ?Draw@CAnimation@@UAEHPAUHDC__@@@Z="C:\Windows\SysWOW64\spwizeng".?Draw@CAnimation@@UAEHPAUHDC__@@@Z
  ?Draw@CDIB@@QAEHPAUHDC__@@HH@Z="C:\Windows\SysWOW64\spwizeng".?Draw@CDIB@@QAEHPAUHDC__@@HH@Z
  ?Draw@CDIB@@QAEHPAUHDC__@@HHUtagRECT@@@Z="C:\Windows\SysWOW64\spwizeng".?Draw@CDIB@@QAEHPAUHDC__@@HHUtagRECT@@@Z
  ?Draw@CDrawBackground@@UAEHPAUHDC__@@@Z="C:\Windows\SysWOW64\spwizeng".?Draw@CDrawBackground@@UAEHPAUHDC__@@@Z
  ?Draw@CDrawItem@@QAEHPAUHWND__@@@Z="C:\Windows\SysWOW64\spwizeng".?Draw@CDrawItem@@QAEHPAUHWND__@@@Z
  ?Draw@CDrawItem@@QAEHXZ="C:\Windows\SysWOW64\spwizeng".?Draw@CDrawItem@@QAEHXZ
  ?Draw@CDrawItemComposite@@UAEHPAUHDC__@@@Z="C:\Windows\SysWOW64\spwizeng".?Draw@CDrawItemComposite@@UAEHPAUHDC__@@@Z
  ?Draw@CScreenDIB@@UAEHPAUHDC__@@@Z="C:\Windows\SysWOW64\spwizeng".?Draw@CScreenDIB@@UAEHPAUHDC__@@@Z
  ?Draw@CScreenText@@UAEHPAUHDC__@@@Z="C:\Windows\SysWOW64\spwizeng".?Draw@CScreenText@@UAEHPAUHDC__@@@Z
  ?DrawAlphaBlended@CDIB@@AAEHPAUHDC__@@HHUtagRECT@@@Z="C:\Windows\SysWOW64\spwizeng".?DrawAlphaBlended@CDIB@@AAEHPAUHDC__@@HHUtagRECT@@@Z
  ?DrawColorKey@CDIB@@AAEHPAUHDC__@@HHUtagRECT@@@Z="C:\Windows\SysWOW64\spwizeng".?DrawColorKey@CDIB@@AAEHPAUHDC__@@HHUtagRECT@@@Z
  ?DrawCore@CDIB@@AAEHPAUHDC__@@HHUtagRECT@@H@Z="C:\Windows\SysWOW64\spwizeng".?DrawCore@CDIB@@AAEHPAUHDC__@@HHUtagRECT@@H@Z
  ?DrawLVItem@LanguageNeutralSelectionDialogBase@@AAEJPAUtagNMLVCUSTOMDRAW@@@Z="C:\Windows\SysWOW64\spwizeng".?DrawLVItem@LanguageNeutralSelectionDialogBase@@AAEJPAUtagNMLVCUSTOMDRAW@@@Z
  ?DrawOpaque@CDIB@@QAEHPAUHDC__@@HH@Z="C:\Windows\SysWOW64\spwizeng".?DrawOpaque@CDIB@@QAEHPAUHDC__@@HH@Z
  ?DrawOpaque@CDIB@@QAEHPAUHDC__@@HHUtagRECT@@@Z="C:\Windows\SysWOW64\spwizeng".?DrawOpaque@CDIB@@QAEHPAUHDC__@@HHUtagRECT@@@Z
  ?DumpToFile@CDIB@@QAEHPBG@Z="C:\Windows\SysWOW64\spwizeng".?DumpToFile@CDIB@@QAEHPBG@Z
  ?EditStreamCallbackAnsi@CRichEditControl@@CGKKPAEJPAJ@Z="C:\Windows\SysWOW64\spwizeng".?EditStreamCallbackAnsi@CRichEditControl@@CGKKPAEJPAJ@Z
  ?EditStreamCallbackUnicode@CRichEditControl@@CGKKPAEJPAJ@Z="C:\Windows\SysWOW64\spwizeng".?EditStreamCallbackUnicode@CRichEditControl@@CGKKPAEJPAJ@Z
  ?Empty@?$CSimpleStringT@G$0A@@ATL@@QAEXXZ="C:\Windows\SysWOW64\spwizeng".?Empty@?$CSimpleStringT@G$0A@@ATL@@QAEXXZ
  ?EnableInput@WizardUI@@QAEXH@Z="C:\Windows\SysWOW64\spwizeng".?EnableInput@WizardUI@@QAEXH@Z
  ?EndUI@WizardUI@@QAEHXZ="C:\Windows\SysWOW64\spwizeng".?EndUI@WizardUI@@QAEHXZ
  ?Enter@CCritSec@@UAEXXZ="C:\Windows\SysWOW64\spwizeng".?Enter@CCritSec@@UAEXXZ
  ?EnteringTrackedWnd@CCursor@@QAEHPAUHWND__@@@Z="C:\Windows\SysWOW64\spwizeng".?EnteringTrackedWnd@CCursor@@QAEHPAUHWND__@@@Z
  ?Find@?$CSimpleArray@PAGV?$CSimpleArrayEqualHelper@PAG@ATL@@@ATL@@QBEHABQAG@Z="C:\Windows\SysWOW64\spwizeng".?Find@?$CSimpleArray@PAGV?$CSimpleArrayEqualHelper@PAG@ATL@@@ATL@@QBEHABQAG@Z
  ?Find@?$CSimpleArray@PAUIResourceModuleEvent@@V?$CSimpleArrayEqualHelper@PAUIResourceModuleEvent@@@ATL@@@ATL@@QBEHABQAUIResourceModuleEvent@@@Z="C:\Windows\SysWOW64\spwizeng".?Find@?$CSimpleArray@PAUIResourceModuleEvent@@V?$CSimpleArrayEqualHelper@PAUIResourceModuleEvent@@@ATL@@@ATL@@QBEHABQAUIResourceModuleEvent@@@Z
  ?Find@?$CSimpleArray@PAUKEYBOARD@@V?$CSimpleArrayEqualHelper@PAUKEYBOARD@@@ATL@@@ATL@@QBEHABQAUKEYBOARD@@@Z="C:\Windows\SysWOW64\spwizeng".?Find@?$CSimpleArray@PAUKEYBOARD@@V?$CSimpleArrayEqualHelper@PAUKEYBOARD@@@ATL@@@ATL@@QBEHABQAUKEYBOARD@@@Z
  ?Find@?$CSimpleArray@PAULANGUAGE@@V?$CSimpleArrayEqualHelper@PAULANGUAGE@@@ATL@@@ATL@@QBEHABQAULANGUAGE@@@Z="C:\Windows\SysWOW64\spwizeng".?Find@?$CSimpleArray@PAULANGUAGE@@V?$CSimpleArrayEqualHelper@PAULANGUAGE@@@ATL@@@ATL@@QBEHABQAULANGUAGE@@@Z
  ?Find@?$CSimpleArray@PAULOCALE@@V?$CSimpleArrayEqualHelper@PAULOCALE@@@ATL@@@ATL@@QBEHABQAULOCALE@@@Z="C:\Windows\SysWOW64\spwizeng".?Find@?$CSimpleArray@PAULOCALE@@V?$CSimpleArrayEqualHelper@PAULOCALE@@@ATL@@@ATL@@QBEHABQAULOCALE@@@Z
  ?Find@?$CStringT@GV?$StrTraitATL@GV?$ChTraitsCRT@G@ATL@@@ATL@@@ATL@@QBEHGH@Z="C:\Windows\SysWOW64\spwizeng".?Find@?$CStringT@GV?$StrTraitATL@GV?$ChTraitsCRT@G@ATL@@@ATL@@@ATL@@QBEHGH@Z
  ?Find@?$CStringT@GV?$StrTraitATL@GV?$ChTraitsCRT@G@ATL@@@ATL@@@ATL@@QBEHPBGH@Z="C:\Windows\SysWOW64\spwizeng".?Find@?$CStringT@GV?$StrTraitATL@GV?$ChTraitsCRT@G@ATL@@@ATL@@@ATL@@QBEHPBGH@Z
  ?FindOneOf@?$CStringT@GV?$StrTraitATL@GV?$ChTraitsCRT@G@ATL@@@ATL@@@ATL@@QBEHPBG@Z="C:\Windows\SysWOW64\spwizeng".?FindOneOf@?$CStringT@GV?$StrTraitATL@GV?$ChTraitsCRT@G@ATL@@@ATL@@@ATL@@QBEHPBG@Z
  ?FirstVisit@WizardHandler@@EAEXXZ="C:\Windows\SysWOW64\spwizeng".?FirstVisit@WizardHandler@@EAEXXZ
  ?Fork@?$CSimpleStringT@G$0A@@ATL@@AAEXH@Z="C:\Windows\SysWOW64\spwizeng".?Fork@?$CSimpleStringT@G$0A@@ATL@@AAEXH@Z
  ?Format@?$CStringT@GV?$StrTraitATL@GV?$ChTraitsCRT@G@ATL@@@ATL@@@ATL@@QAAXIZZ="C:\Windows\SysWOW64\spwizeng".?Format@?$CStringT@GV?$StrTraitATL@GV?$ChTraitsCRT@G@ATL@@@ATL@@@ATL@@QAAXIZZ
  ?Format@?$CStringT@GV?$StrTraitATL@GV?$ChTraitsCRT@G@ATL@@@ATL@@@ATL@@QAAXPBGZZ="C:\Windows\SysWOW64\spwizeng".?Format@?$CStringT@GV?$StrTraitATL@GV?$ChTraitsCRT@G@ATL@@@ATL@@@ATL@@QAAXPBGZZ
  ?FormatMessageV@?$CStringT@GV?$StrTraitATL@GV?$ChTraitsCRT@G@ATL@@@ATL@@@ATL@@QAEXPBGPAPAD@Z="C:\Windows\SysWOW64\spwizeng".?FormatMessageV@?$CStringT@GV?$StrTraitATL@GV?$ChTraitsCRT@G@ATL@@@ATL@@@ATL@@QAEXPBGPAPAD@Z
  ?FormatMessageW@?$CStringT@GV?$StrTraitATL@GV?$ChTraitsCRT@G@ATL@@@ATL@@@ATL@@QAAXIZZ="C:\Windows\SysWOW64\spwizeng".?FormatMessageW@?$CStringT@GV?$StrTraitATL@GV?$ChTraitsCRT@G@ATL@@@ATL@@@ATL@@QAAXIZZ
  ?FormatMessageW@?$CStringT@GV?$StrTraitATL@GV?$ChTraitsCRT@G@ATL@@@ATL@@@ATL@@QAAXPBGZZ="C:\Windows\SysWOW64\spwizeng".?FormatMessageW@?$CStringT@GV?$StrTraitATL@GV?$ChTraitsCRT@G@ATL@@@ATL@@@ATL@@QAAXPBGZZ
  ?FormatV@?$CStringT@GV?$StrTraitATL@GV?$ChTraitsCRT@G@ATL@@@ATL@@@ATL@@QAEXPBGPAD@Z="C:\Windows\SysWOW64\spwizeng".?FormatV@?$CStringT@GV?$StrTraitATL@GV?$ChTraitsCRT@G@ATL@@@ATL@@@ATL@@QAEXPBGPAD@Z
  ?FreeExtra@?$CSimpleStringT@G$0A@@ATL@@QAEXXZ="C:\Windows\SysWOW64\spwizeng".?FreeExtra@?$CSimpleStringT@G$0A@@ATL@@QAEXXZ
  ?FreeInstance@CCursor@@SGXXZ="C:\Windows\SysWOW64\spwizeng".?FreeInstance@CCursor@@SGXXZ
  ?FreeInstance@CHighContrast@@SGXXZ="C:\Windows\SysWOW64\spwizeng".?FreeInstance@CHighContrast@@SGXXZ
  ?FreeInstance@Navigator@@SGXXZ="C:\Windows\SysWOW64\spwizeng".?FreeInstance@Navigator@@SGXXZ
  ?FreeInstance@Win32Navigator@@SGXXZ="C:\Windows\SysWOW64\spwizeng".?FreeInstance@Win32Navigator@@SGXXZ
  ?GetAllocLength@?$CSimpleStringT@G$0A@@ATL@@QBEHXZ="C:\Windows\SysWOW64\spwizeng".?GetAllocLength@?$CSimpleStringT@G$0A@@ATL@@QBEHXZ
  ?GetAllowMirror@CDIB@@QAEHXZ="C:\Windows\SysWOW64\spwizeng".?GetAllowMirror@CDIB@@QAEHXZ
  ?GetAppBitmap@WizardUI@@SGGXZ="C:\Windows\SysWOW64\spwizeng".?GetAppBitmap@WizardUI@@SGGXZ
  ?GetAppDib@AppWindow@@QAGPAVCDIB@@XZ="C:\Windows\SysWOW64\spwizeng".?GetAppDib@AppWindow@@QAGPAVCDIB@@XZ
  ?GetAppDimensions@WizardUI@@SGPAUProtoPageDimensions@@XZ="C:\Windows\SysWOW64\spwizeng".?GetAppDimensions@WizardUI@@SGPAUProtoPageDimensions@@XZ
  ?GetAppHWnd@WizardUI@@QAEPAUHWND__@@XZ="C:\Windows\SysWOW64\spwizeng".?GetAppHWnd@WizardUI@@QAEPAUHWND__@@XZ
  ?GetAppImage@AppWindow@@QAGPAUHDC__@@XZ="C:\Windows\SysWOW64\spwizeng".?GetAppImage@AppWindow@@QAGPAUHDC__@@XZ
  ?GetAppRect@AppWindow@@QAGXPAUtagRECT@@@Z="C:\Windows\SysWOW64\spwizeng".?GetAppRect@AppWindow@@QAGXPAUtagRECT@@@Z
  ?GetAppWindow@WizardUI@@QAEPAVAppWindow@@XZ="C:\Windows\SysWOW64\spwizeng".?GetAppWindow@WizardUI@@QAEPAVAppWindow@@XZ
  ?GetAppWindowInBackgroundBitmap@ProtoPageDimensions@@QAE?AUSimpleRect@@XZ="C:\Windows\SysWOW64\spwizeng".?GetAppWindowInBackgroundBitmap@ProtoPageDimensions@@QAE?AUSimpleRect@@XZ
  ?GetAppWindowOffset@ProtoPageDimensions@@QAE?AUSimpleSize@@XZ="C:\Windows\SysWOW64\spwizeng".?GetAppWindowOffset@ProtoPageDimensions@@QAE?AUSimpleSize@@XZ
  ?GetAppWindowSize@ProtoPageDimensions@@QAE?AUSimpleSize@@XZ="C:\Windows\SysWOW64\spwizeng".?GetAppWindowSize@ProtoPageDimensions@@QAE?AUSimpleSize@@XZ
  ?GetAt@?$CSimpleStringT@G$0A@@ATL@@QBEGH@Z="C:\Windows\SysWOW64\spwizeng".?GetAt@?$CSimpleStringT@G$0A@@ATL@@QBEGH@Z
  ?GetBitsPerPixel@CDIB@@QAEIXZ="C:\Windows\SysWOW64\spwizeng".?GetBitsPerPixel@CDIB@@QAEIXZ
  ?GetBkBrush@CHighContrast@@QAGPAUHBRUSH__@@PAU2@@Z="C:\Windows\SysWOW64\spwizeng".?GetBkBrush@CHighContrast@@QAGPAUHBRUSH__@@PAU2@@Z
  ?GetBkColor@CHighContrast@@QAGKK@Z="C:\Windows\SysWOW64\spwizeng".?GetBkColor@CHighContrast@@QAGKK@Z
  ?GetBottomMargin@ProtoPageDimensions@@QAEHXZ="C:\Windows\SysWOW64\spwizeng".?GetBottomMargin@ProtoPageDimensions@@QAEHXZ
  ?GetBuffer@?$CSimpleStringT@G$0A@@ATL@@QAEPAGH@Z="C:\Windows\SysWOW64\spwizeng".?GetBuffer@?$CSimpleStringT@G$0A@@ATL@@QAEPAGH@Z
  ?GetBuffer@?$CSimpleStringT@G$0A@@ATL@@QAEPAGXZ="C:\Windows\SysWOW64\spwizeng".?GetBuffer@?$CSimpleStringT@G$0A@@ATL@@QAEPAGXZ
  ?GetBufferSetLength@?$CSimpleStringT@G$0A@@ATL@@QAEPAGH@Z="C:\Windows\SysWOW64\spwizeng".?GetBufferSetLength@?$CSimpleStringT@G$0A@@ATL@@QAEPAGH@Z
  ?GetButtons@WizardPage@@QAGKXZ="C:\Windows\SysWOW64\spwizeng".?GetButtons@WizardPage@@QAGKXZ
  ?GetButtons@Wizard_PageDesciption@@QAGKXZ="C:\Windows\SysWOW64\spwizeng".?GetButtons@Wizard_PageDesciption@@QAGKXZ
  ?GetCancelNoShow@WizardUI@@QAEHXZ="C:\Windows\SysWOW64\spwizeng".?GetCancelNoShow@WizardUI@@QAEHXZ
  ?GetCancelPage@WizardUI@@QAEPAVWizardPage@@XZ="C:\Windows\SysWOW64\spwizeng".?GetCancelPage@WizardUI@@QAEPAVWizardPage@@XZ
  ?GetCanceled@WizardUI@@QAEHXZ="C:\Windows\SysWOW64\spwizeng".?GetCanceled@WizardUI@@QAEHXZ
  ?GetContainerHwnd@PageContainer@@QAGPAUHWND__@@XZ="C:\Windows\SysWOW64\spwizeng".?GetContainerHwnd@PageContainer@@QAGPAUHWND__@@XZ
  ?GetCreateWizardDialog@Wizard_PageDesciption@@QAGQ6GPAVWizardRoot@@PAVWizardPage@@@ZXZ="C:\Windows\SysWOW64\spwizeng".?GetCreateWizardDialog@Wizard_PageDesciption@@QAGQ6GPAVWizardRoot@@PAVWizardPage@@@ZXZ
  ?GetCurrentPage@WizardUI@@QAEPAVWizardPage@@XZ="C:\Windows\SysWOW64\spwizeng".?GetCurrentPage@WizardUI@@QAEPAVWizardPage@@XZ
  ?GetCurrentPageHwnd@PageContainer@@QAGPAUHWND__@@XZ="C:\Windows\SysWOW64\spwizeng".?GetCurrentPageHwnd@PageContainer@@QAGPAUHWND__@@XZ
  ?GetCurrentPageIndex@PageContainer@@QAGHXZ="C:\Windows\SysWOW64\spwizeng".?GetCurrentPageIndex@PageContainer@@QAGHXZ
  ?GetCurrentVariation@WizardVariation@@MAEXXZ="C:\Windows\SysWOW64\spwizeng".?GetCurrentVariation@WizardVariation@@MAEXXZ
  ?GetData@?$CSimpleArray@PAGV?$CSimpleArrayEqualHelper@PAG@ATL@@@ATL@@QBEPAPAGXZ="C:\Windows\SysWOW64\spwizeng".?GetData@?$CSimpleArray@PAGV?$CSimpleArrayEqualHelper@PAG@ATL@@@ATL@@QBEPAPAGXZ
  ?GetData@?$CSimpleArray@PAUIResourceModuleEvent@@V?$CSimpleArrayEqualHelper@PAUIResourceModuleEvent@@@ATL@@@ATL@@QBEPAPAUIResourceModuleEvent@@XZ="C:\Windows\SysWOW64\spwizeng".?GetData@?$CSimpleArray@PAUIResourceModuleEvent@@V?$CSimpleArrayEqualHelper@PAUIResourceModuleEvent@@@ATL@@@ATL@@QBEPAPAUIResourceModuleEvent@@XZ
  ?GetData@?$CSimpleArray@PAUKEYBOARD@@V?$CSimpleArrayEqualHelper@PAUKEYBOARD@@@ATL@@@ATL@@QBEPAPAUKEYBOARD@@XZ="C:\Windows\SysWOW64\spwizeng".?GetData@?$CSimpleArray@PAUKEYBOARD@@V?$CSimpleArrayEqualHelper@PAUKEYBOARD@@@ATL@@@ATL@@QBEPAPAUKEYBOARD@@XZ
  ?GetData@?$CSimpleArray@PAULANGUAGE@@V?$CSimpleArrayEqualHelper@PAULANGUAGE@@@ATL@@@ATL@@QBEPAPAULANGUAGE@@XZ="C:\Windows\SysWOW64\spwizeng".?GetData@?$CSimpleArray@PAULANGUAGE@@V?$CSimpleArrayEqualHelper@PAULANGUAGE@@@ATL@@@ATL@@QBEPAPAULANGUAGE@@XZ
  ?GetData@?$CSimpleArray@PAULOCALE@@V?$CSimpleArrayEqualHelper@PAULOCALE@@@ATL@@@ATL@@QBEPAPAULOCALE@@XZ="C:\Windows\SysWOW64\spwizeng".?GetData@?$CSimpleArray@PAULOCALE@@V?$CSimpleArrayEqualHelper@PAULOCALE@@@ATL@@@ATL@@QBEPAPAULOCALE@@XZ
  ?GetData@?$CSimpleStringT@G$0A@@ATL@@ABEPAUCStringData@2@XZ="C:\Windows\SysWOW64\spwizeng".?GetData@?$CSimpleStringT@G$0A@@ATL@@ABEPAUCStringData@2@XZ
  ?GetData@WizardPage@@QAGPAXXZ="C:\Windows\SysWOW64\spwizeng".?GetData@WizardPage@@QAGPAXXZ
  ?GetDialog@WizardPage@@QAGPAVWizardRoot@@XZ="C:\Windows\SysWOW64\spwizeng".?GetDialog@WizardPage@@QAGPAVWizardRoot@@XZ
  ?GetDib@CScreenDIB@@QAEABVCDIB@@XZ="C:\Windows\SysWOW64\spwizeng".?GetDib@CScreenDIB@@QAEABVCDIB@@XZ
  ?GetElement@NavigationStack@@QAGPAVWizardNode@@H@Z="C:\Windows\SysWOW64\spwizeng".?GetElement@NavigationStack@@QAGPAVWizardNode@@H@Z
  ?GetEnvironmentVariableW@?$CStringT@GV?$StrTraitATL@GV?$ChTraitsCRT@G@ATL@@@ATL@@@ATL@@QAEHPBG@Z="C:\Windows\SysWOW64\spwizeng".?GetEnvironmentVariableW@?$CStringT@GV?$StrTraitATL@GV?$ChTraitsCRT@G@ATL@@@ATL@@@ATL@@QAEHPBG@Z
  ?GetFirstPage@WizardEx@@QAGPAVWizardPage@@XZ="C:\Windows\SysWOW64\spwizeng".?GetFirstPage@WizardEx@@QAGPAVWizardPage@@XZ
  ?GetFontCharSet@WizardUI@@QAEKXZ="C:\Windows\SysWOW64\spwizeng".?GetFontCharSet@WizardUI@@QAEKXZ
  ?GetFontName@WizardUI@@QAEPBGXZ="C:\Windows\SysWOW64\spwizeng".?GetFontName@WizardUI@@QAEPBGXZ
  ?GetFontSize@WizardUI@@QAEIXZ="C:\Windows\SysWOW64\spwizeng".?GetFontSize@WizardUI@@QAEIXZ
  ?GetHWnd@WizardPage@@QAGPAUHWND__@@XZ="C:\Windows\SysWOW64\spwizeng".?GetHWnd@WizardPage@@QAGPAUHWND__@@XZ
  ?GetHdc@CDIB@@QBEPAUHDC__@@XZ="C:\Windows\SysWOW64\spwizeng".?GetHdc@CDIB@@QBEPAUHDC__@@XZ
  ?GetIndex@WizardNode@@QAGIXZ="C:\Windows\SysWOW64\spwizeng".?GetIndex@WizardNode@@QAGIXZ
  ?GetInstance@CCursor@@SGPAV1@XZ="C:\Windows\SysWOW64\spwizeng".?GetInstance@CCursor@@SGPAV1@XZ
  ?GetInstance@CHighContrast@@SGPAV1@XZ="C:\Windows\SysWOW64\spwizeng".?GetInstance@CHighContrast@@SGPAV1@XZ
  ?GetLength@?$CSimpleStringT@G$0A@@ATL@@QBEHXZ="C:\Windows\SysWOW64\spwizeng".?GetLength@?$CSimpleStringT@G$0A@@ATL@@QBEHXZ
  ?GetManager@?$CSimpleStringT@G$0A@@ATL@@QBEPAUIAtlStringMgr@2@XZ="C:\Windows\SysWOW64\spwizeng".?GetManager@?$CSimpleStringT@G$0A@@ATL@@QBEPAUIAtlStringMgr@2@XZ
  ?GetManager@?$CStringT@GV?$StrTraitATL@GV?$ChTraitsCRT@G@ATL@@@ATL@@@ATL@@QBEPAUIAtlStringMgr@2@XZ="C:\Windows\SysWOW64\spwizeng".?GetManager@?$CStringT@GV?$StrTraitATL@GV?$ChTraitsCRT@G@ATL@@@ATL@@@ATL@@QBEPAUIAtlStringMgr@2@XZ
  ?GetMaxCount@WizardEx@@QAGIXZ="C:\Windows\SysWOW64\spwizeng".?GetMaxCount@WizardEx@@QAGIXZ
  ?GetMaxPageIndex@PageContainer@@QAGHXZ="C:\Windows\SysWOW64\spwizeng".?GetMaxPageIndex@PageContainer@@QAGHXZ
  ?GetNavBarHeight@ProtoPageDimensions@@QAEHXZ="C:\Windows\SysWOW64\spwizeng".?GetNavBarHeight@ProtoPageDimensions@@QAEHXZ
  ?GetNavHWnd@WizardUI@@QAEPAUHWND__@@XZ="C:\Windows\SysWOW64\spwizeng".?GetNavHWnd@WizardUI@@QAEPAUHWND__@@XZ
  ?GetNavRect@AppWindow@@QAGXPAUtagRECT@@@Z="C:\Windows\SysWOW64\spwizeng".?GetNavRect@AppWindow@@QAGXPAUtagRECT@@@Z
  ?GetPage@WizardEx@@UAGPAVWizardPage@@XZ="C:\Windows\SysWOW64\spwizeng".?GetPage@WizardEx@@UAGPAVWizardPage@@XZ
  ?GetPage@WizardPage@@UAGPAV1@XZ="C:\Windows\SysWOW64\spwizeng".?GetPage@WizardPage@@UAGPAV1@XZ
  ?GetPageContainer@WizardUI@@QAEPAVPageContainer@@XZ="C:\Windows\SysWOW64\spwizeng".?GetPageContainer@WizardUI@@QAEPAVPageContainer@@XZ
  ?GetPageHandler@WizardRoot@@UAEPAVWizardHandler@@XZ="C:\Windows\SysWOW64\spwizeng".?GetPageHandler@WizardRoot@@UAEPAVWizardHandler@@XZ
  ?GetPageHwndFromPageIndex@PageContainer@@QAGPAUHWND__@@H@Z="C:\Windows\SysWOW64\spwizeng".?GetPageHwndFromPageIndex@PageContainer@@QAGPAUHWND__@@H@Z
  ?GetPageIndex@WizardEx@@QAGIXZ="C:\Windows\SysWOW64\spwizeng".?GetPageIndex@WizardEx@@QAGIXZ
  ?GetPageIndex@WizardNode@@QAGIXZ="C:\Windows\SysWOW64\spwizeng".?GetPageIndex@WizardNode@@QAGIXZ
  ?GetPageList@WizardEx@@QAGPAPAVWizardNode@@XZ="C:\Windows\SysWOW64\spwizeng".?GetPageList@WizardEx@@QAGPAPAVWizardNode@@XZ
  ?GetPageListItem@WizardEx@@QAGPAVWizardNode@@H@Z="C:\Windows\SysWOW64\spwizeng".?GetPageListItem@WizardEx@@QAGPAVWizardNode@@H@Z
  ?GetPageName@WizardRoot@@QAG?AV?$CStringT@GV?$StrTraitATL@GV?$ChTraitsCRT@G@ATL@@@ATL@@@ATL@@XZ="C:\Windows\SysWOW64\spwizeng".?GetPageName@WizardRoot@@QAG?AV?$CStringT@GV?$StrTraitATL@GV?$ChTraitsCRT@G@ATL@@@ATL@@@ATL@@XZ
  ?GetParent@WizardNode@@QAGPAVWizardEx@@XZ="C:\Windows\SysWOW64\spwizeng".?GetParent@WizardNode@@QAGPAVWizardEx@@XZ
  ?GetPidStr@PIDStringView@@QAEPBGXZ="C:\Windows\SysWOW64\spwizeng".?GetPidStr@PIDStringView@@QAEPBGXZ
  ?GetResourceInstance@CResourceModule@@QAEPAUHINSTANCE__@@XZ="C:\Windows\SysWOW64\spwizeng".?GetResourceInstance@CResourceModule@@QAEPAUHINSTANCE__@@XZ
  ?GetResourceInstance@CResourceModuleFactory@@QAEPAUHINSTANCE__@@XZ="C:\Windows\SysWOW64\spwizeng".?GetResourceInstance@CResourceModuleFactory@@QAEPAUHINSTANCE__@@XZ
  ?GetResourceInstanceLoc@WizardPage@@QAGPAUHINSTANCE__@@XZ="C:\Windows\SysWOW64\spwizeng".?GetResourceInstanceLoc@WizardPage@@QAGPAUHINSTANCE__@@XZ
  ?GetResourceInstanceLoc@WizardUI@@QAEPAUHINSTANCE__@@XZ="C:\Windows\SysWOW64\spwizeng".?GetResourceInstanceLoc@WizardUI@@QAEPAUHINSTANCE__@@XZ
  ?GetResourceInstanceNonLoc@WizardPage@@QAGPAUHINSTANCE__@@XZ="C:\Windows\SysWOW64\spwizeng".?GetResourceInstanceNonLoc@WizardPage@@QAGPAUHINSTANCE__@@XZ
  ?GetResourceInstanceNonLoc@WizardUI@@QAEPAUHINSTANCE__@@XZ="C:\Windows\SysWOW64\spwizeng".?GetResourceInstanceNonLoc@WizardUI@@QAEPAUHINSTANCE__@@XZ
  ?GetResourceLocName@Wizard_PageDesciption@@QAGPBGXZ="C:\Windows\SysWOW64\spwizeng".?GetResourceLocName@Wizard_PageDesciption@@QAGPBGXZ
  ?GetResourceModule@CResourceModuleFactory@@QAEPAVCResourceModule@@XZ="C:\Windows\SysWOW64\spwizeng".?GetResourceModule@CResourceModuleFactory@@QAEPAVCResourceModule@@XZ
  ?GetResourceNonLocName@Wizard_PageDesciption@@QAGPBGXZ="C:\Windows\SysWOW64\spwizeng".?GetResourceNonLocName@Wizard_PageDesciption@@QAGPBGXZ
  ?GetResourceStringLoc@WizardPage@@QAGPBGXZ="C:\Windows\SysWOW64\spwizeng".?GetResourceStringLoc@WizardPage@@QAGPBGXZ
  ?GetRoot@WizardHandler@@QAEPAVWizardRoot@@XZ="C:\Windows\SysWOW64\spwizeng".?GetRoot@WizardHandler@@QAEPAVWizardRoot@@XZ
  ?GetScaledBackgroundBitmapSize@ProtoPageDimensions@@QAE?AUSimpleSize@@XZ="C:\Windows\SysWOW64\spwizeng".?GetScaledBackgroundBitmapSize@ProtoPageDimensions@@QAE?AUSimpleSize@@XZ
  ?GetScalingFactor@ProtoPageDimensions@@QAEXAAM@Z="C:\Windows\SysWOW64\spwizeng".?GetScalingFactor@ProtoPageDimensions@@QAEXAAM@Z
  ?GetScrHWnd@WizardUI@@QAEPAUHWND__@@XZ="C:\Windows\SysWOW64\spwizeng".?GetScrHWnd@WizardUI@@QAEPAUHWND__@@XZ
  ?GetScrImage@ScrWindow@@QAGPAUHDC__@@XZ="C:\Windows\SysWOW64\spwizeng".?GetScrImage@ScrWindow@@QAGPAUHDC__@@XZ
  ?GetScrRect@ScrWindow@@QAGXPAUtagRECT@@@Z="C:\Windows\SysWOW64\spwizeng".?GetScrRect@ScrWindow@@QAGXPAUtagRECT@@@Z
  ?GetScrWindow@WizardUI@@QAEPAVScrWindow@@XZ="C:\Windows\SysWOW64\spwizeng".?GetScrWindow@WizardUI@@QAEPAVScrWindow@@XZ
  ?GetScreenBitmap@WizardUI@@SGGXZ="C:\Windows\SysWOW64\spwizeng".?GetScreenBitmap@WizardUI@@SGGXZ
  ?GetScreenBitmapSize@ProtoPageDimensions@@QAE?AUSimpleSize@@XZ="C:\Windows\SysWOW64\spwizeng".?GetScreenBitmapSize@ProtoPageDimensions@@QAE?AUSimpleSize@@XZ
  ?GetSelectedLanguage@LanguageSelectionDialogBase@@AAE?AV?$CStringT@GV?$StrTraitATL@GV?$ChTraitsCRT@G@ATL@@@ATL@@@ATL@@XZ="C:\Windows\SysWOW64\spwizeng".?GetSelectedLanguage@LanguageSelectionDialogBase@@AAE?AV?$CStringT@GV?$StrTraitATL@GV?$ChTraitsCRT@G@ATL@@@ATL@@@ATL@@XZ
  ?GetSelectedLocale@LanguageSelectionDialogBase@@AAE?AV?$CStringT@GV?$StrTraitATL@GV?$ChTraitsCRT@G@ATL@@@ATL@@@ATL@@XZ="C:\Windows\SysWOW64\spwizeng".?GetSelectedLocale@LanguageSelectionDialogBase@@AAE?AV?$CStringT@GV?$StrTraitATL@GV?$ChTraitsCRT@G@ATL@@@ATL@@@ATL@@XZ
  ?GetShowScreenWindow@WizardUI@@QAEHXZ="C:\Windows\SysWOW64\spwizeng".?GetShowScreenWindow@WizardUI@@QAEHXZ
  ?GetSize@?$CSimpleArray@PAGV?$CSimpleArrayEqualHelper@PAG@ATL@@@ATL@@QBEHXZ="C:\Windows\SysWOW64\spwizeng".?GetSize@?$CSimpleArray@PAGV?$CSimpleArrayEqualHelper@PAG@ATL@@@ATL@@QBEHXZ
  ?GetSize@?$CSimpleArray@PAUIResourceModuleEvent@@V?$CSimpleArrayEqualHelper@PAUIResourceModuleEvent@@@ATL@@@ATL@@QBEHXZ="C:\Windows\SysWOW64\spwizeng".?GetSize@?$CSimpleArray@PAUIResourceModuleEvent@@V?$CSimpleArrayEqualHelper@PAUIResourceModuleEvent@@@ATL@@@ATL@@QBEHXZ
  ?GetSize@?$CSimpleArray@PAUKEYBOARD@@V?$CSimpleArrayEqualHelper@PAUKEYBOARD@@@ATL@@@ATL@@QBEHXZ="C:\Windows\SysWOW64\spwizeng".?GetSize@?$CSimpleArray@PAUKEYBOARD@@V?$CSimpleArrayEqualHelper@PAUKEYBOARD@@@ATL@@@ATL@@QBEHXZ
  ?GetSize@?$CSimpleArray@PAULANGUAGE@@V?$CSimpleArrayEqualHelper@PAULANGUAGE@@@ATL@@@ATL@@QBEHXZ="C:\Windows\SysWOW64\spwizeng".?GetSize@?$CSimpleArray@PAULANGUAGE@@V?$CSimpleArrayEqualHelper@PAULANGUAGE@@@ATL@@@ATL@@QBEHXZ
  ?GetSize@?$CSimpleArray@PAULOCALE@@V?$CSimpleArrayEqualHelper@PAULOCALE@@@ATL@@@ATL@@QBEHXZ="C:\Windows\SysWOW64\spwizeng".?GetSize@?$CSimpleArray@PAULOCALE@@V?$CSimpleArrayEqualHelper@PAULOCALE@@@ATL@@@ATL@@QBEHXZ
  ?GetSize@NavigationStack@@QAGHXZ="C:\Windows\SysWOW64\spwizeng".?GetSize@NavigationStack@@QAGHXZ
  ?GetStrategy@WizardEx@@QAGPAVWizardStrategy@@XZ="C:\Windows\SysWOW64\spwizeng".?GetStrategy@WizardEx@@QAGPAVWizardStrategy@@XZ
  ?GetString@?$CSimpleStringT@G$0A@@ATL@@QBEPBGXZ="C:\Windows\SysWOW64\spwizeng".?GetString@?$CSimpleStringT@G$0A@@ATL@@QBEPBGXZ
  ?GetString@MyString@@QAEPBGXZ="C:\Windows\SysWOW64\spwizeng".?GetString@MyString@@QAEPBGXZ
  ?GetTemplate@WizardPage@@QAGKXZ="C:\Windows\SysWOW64\spwizeng".?GetTemplate@WizardPage@@QAGKXZ
  ?GetTemplate@Wizard_PageDesciption@@QAGKXZ="C:\Windows\SysWOW64\spwizeng".?GetTemplate@Wizard_PageDesciption@@QAGKXZ
  ?GetTextColor@CHighContrast@@QAGKK@Z="C:\Windows\SysWOW64\spwizeng".?GetTextColor@CHighContrast@@QAGKK@Z
  ?GetTitle@WizardPage@@QAGKXZ="C:\Windows\SysWOW64\spwizeng".?GetTitle@WizardPage@@QAGKXZ
  ?GetTitle@Wizard_PageDesciption@@QAGKXZ="C:\Windows\SysWOW64\spwizeng".?GetTitle@Wizard_PageDesciption@@QAGKXZ
  ?GetTop@NavigationStack@@QAGPAVWizardNode@@XZ="C:\Windows\SysWOW64\spwizeng".?GetTop@NavigationStack@@QAGPAVWizardNode@@XZ
  ?GetTransparentColor@CDIB@@QAEKXZ="C:\Windows\SysWOW64\spwizeng".?GetTransparentColor@CDIB@@QAEKXZ
  ?GetType@WizardNode@@QAGIXZ="C:\Windows\SysWOW64\spwizeng".?GetType@WizardNode@@QAGIXZ
  ?GetUiMutex@WizardUI@@QAEPAXXZ="C:\Windows\SysWOW64\spwizeng".?GetUiMutex@WizardUI@@QAEPAXXZ
  ?GetUserSelectedHideOOBELang@WizardUI@@QAEPAGXZ="C:\Windows\SysWOW64\spwizeng".?GetUserSelectedHideOOBELang@WizardUI@@QAEPAGXZ
  ?GetUserSelectedKeyboardType@WizardUI@@QAEPAGXZ="C:\Windows\SysWOW64\spwizeng".?GetUserSelectedKeyboardType@WizardUI@@QAEPAGXZ
  ?GetUserSelectedLDId@WizardUI@@QAEPAGXZ="C:\Windows\SysWOW64\spwizeng".?GetUserSelectedLDId@WizardUI@@QAEPAGXZ
  ?GetUserSelectedLocale@WizardUI@@QAEPAGXZ="C:\Windows\SysWOW64\spwizeng".?GetUserSelectedLocale@WizardUI@@QAEPAGXZ
  ?GetUserSelectedTargetLanguage@WizardUI@@QAEPAGXZ="C:\Windows\SysWOW64\spwizeng".?GetUserSelectedTargetLanguage@WizardUI@@QAEPAGXZ
  ?GetUserSelectedUILanguage@WizardUI@@QAEPAGXZ="C:\Windows\SysWOW64\spwizeng".?GetUserSelectedUILanguage@WizardUI@@QAEPAGXZ
  ?GetWindowProc@WizardPage@@QAGP6GHPAUHWND__@@IIJ@ZXZ="C:\Windows\SysWOW64\spwizeng".?GetWindowProc@WizardPage@@QAGP6GHPAUHWND__@@IIJ@ZXZ
  ?GetWindowProc@WizardRoot@@UAEP6GHPAUHWND__@@IIJ@ZXZ="C:\Windows\SysWOW64\spwizeng".?GetWindowProc@WizardRoot@@UAEP6GHPAUHWND__@@IIJ@ZXZ
  ?GetWizNodeType@Wiz_Node@@QAEIXZ="C:\Windows\SysWOW64\spwizeng".?GetWizNodeType@Wiz_Node@@QAEIXZ
  ?GetWizUI@WizardNode@@QAGPAVWizardUI@@XZ="C:\Windows\SysWOW64\spwizeng".?GetWizUI@WizardNode@@QAGPAVWizardUI@@XZ
  ?GetWizUI@WizardUI@@SGPAV1@XZ="C:\Windows\SysWOW64\spwizeng".?GetWizUI@WizardUI@@SGPAV1@XZ
  ?GetWizardPageWithIndex@PageContainer@@QAGPAVWizardPage@@H@Z="C:\Windows\SysWOW64\spwizeng".?GetWizardPageWithIndex@PageContainer@@QAGPAVWizardPage@@H@Z
  ?GetWizardPageWithPageIndex@WizardUI@@QAEPAVWizardPage@@H@Z="C:\Windows\SysWOW64\spwizeng".?GetWizardPageWithPageIndex@WizardUI@@QAEPAVWizardPage@@H@Z
  ?GetWizardRect@AppWindow@@QAGXPAUtagRECT@@@Z="C:\Windows\SysWOW64\spwizeng".?GetWizardRect@AppWindow@@QAGXPAUtagRECT@@@Z
  ?HdcBackground@WizardUI@@SGPAUHDC__@@XZ="C:\Windows\SysWOW64\spwizeng".?HdcBackground@WizardUI@@SGPAUHDC__@@XZ
  ?Hdlg@CAttachDataDlg@@QAEPAUHWND__@@XZ="C:\Windows\SysWOW64\spwizeng".?Hdlg@CAttachDataDlg@@QAEPAUHWND__@@XZ
  ?Hdlg@CGenericNavWindow@@QAEAAPAUHWND__@@XZ="C:\Windows\SysWOW64\spwizeng".?Hdlg@CGenericNavWindow@@QAEAAPAUHWND__@@XZ
  ?Hdlg@WizardHandler@@QAEPAUHWND__@@XZ="C:\Windows\SysWOW64\spwizeng".?Hdlg@WizardHandler@@QAEPAUHWND__@@XZ
  ?Hdlg@WizardRoot@@QAEAAPAUHWND__@@XZ="C:\Windows\SysWOW64\spwizeng".?Hdlg@WizardRoot@@QAEAAPAUHWND__@@XZ
  ?Hide@CWndObj@@UAGXXZ="C:\Windows\SysWOW64\spwizeng".?Hide@CWndObj@@UAGXXZ
  ?HideSplashScreen@WizardUI@@AAEXXZ="C:\Windows\SysWOW64\spwizeng".?HideSplashScreen@WizardUI@@AAEXXZ
  ?HwndBackground@WizardUI@@SGPAUHWND__@@XZ="C:\Windows\SysWOW64\spwizeng".?HwndBackground@WizardUI@@SGPAUHWND__@@XZ
  ?HwndProgress@WizardUI@@SGPAUHWND__@@XZ="C:\Windows\SysWOW64\spwizeng".?HwndProgress@WizardUI@@SGPAUHWND__@@XZ
  ?Init@AppWindow@@QAGHIII@Z="C:\Windows\SysWOW64\spwizeng".?Init@AppWindow@@QAGHIII@Z
  ?Init@CAnimationControl@@QAGHPAUHWND__@@IPAUHINSTANCE__@@IKHH@Z="C:\Windows\SysWOW64\spwizeng".?Init@CAnimationControl@@QAGHPAUHWND__@@IPAUHINSTANCE__@@IKHH@Z
  ?Init@CCtlText@@QAGHPAUHWND__@@I@Z="C:\Windows\SysWOW64\spwizeng".?Init@CCtlText@@QAGHPAUHWND__@@I@Z
  ?Init@CCustomGraphicEx@@QAGHPAUHWND__@@I@Z="C:\Windows\SysWOW64\spwizeng".?Init@CCustomGraphicEx@@QAGHPAUHWND__@@I@Z
  ?Init@CResourceModuleFactory@@QAEXPAUHINSTANCE__@@@Z="C:\Windows\SysWOW64\spwizeng".?Init@CResourceModuleFactory@@QAEXPAUHINSTANCE__@@@Z
  ?Init@CResourceModuleFactory@@QAEXPAUHINSTANCE__@@PBG@Z="C:\Windows\SysWOW64\spwizeng".?Init@CResourceModuleFactory@@QAEXPAUHINSTANCE__@@PBG@Z
  ?Init@CScreenText@@QAEHXZ="C:\Windows\SysWOW64\spwizeng".?Init@CScreenText@@QAEHXZ
  ?Init@CWndObj@@UAGHPAUIWndObj@@@Z="C:\Windows\SysWOW64\spwizeng".?Init@CWndObj@@UAGHPAUIWndObj@@@Z
  ?Init@ProtoPageDimensions@@QAEHXZ="C:\Windows\SysWOW64\spwizeng".?Init@ProtoPageDimensions@@QAEHXZ
  ?Init@ScrWindow@@QAGHI@Z="C:\Windows\SysWOW64\spwizeng".?Init@ScrWindow@@QAGHI@Z
  ?Init@WizardHandler@@QAEXPAVWizardRoot@@@Z="C:\Windows\SysWOW64\spwizeng".?Init@WizardHandler@@QAEXPAVWizardRoot@@@Z
  ?InitAllStandardButtons@WizardRoot@@QAGXXZ="C:\Windows\SysWOW64\spwizeng".?InitAllStandardButtons@WizardRoot@@QAGXXZ
  ?InitButtons@CGenericNavWindow@@MAEXXZ="C:\Windows\SysWOW64\spwizeng".?InitButtons@CGenericNavWindow@@MAEXXZ
  ?InitDialog@CAttachDataDlg@@SGXPAUHWND__@@IIJ@Z="C:\Windows\SysWOW64\spwizeng".?InitDialog@CAttachDataDlg@@SGXPAUHWND__@@IIJ@Z
  ?InitDialog@CGenericNavWindow@@AAEXPAUHWND__@@@Z="C:\Windows\SysWOW64\spwizeng".?InitDialog@CGenericNavWindow@@AAEXPAUHWND__@@@Z
  ?InitFonts@WizardUI@@AAEHPAUHINSTANCE__@@@Z="C:\Windows\SysWOW64\spwizeng".?InitFonts@WizardUI@@AAEHPAUHINSTANCE__@@@Z
  ?InitLangNeutralLV@LanguageNeutralSelectionDialogBase@@AAEXXZ="C:\Windows\SysWOW64\spwizeng".?InitLangNeutralLV@LanguageNeutralSelectionDialogBase@@AAEXXZ
  ?InitPage@WizardHandler@@UAEXXZ="C:\Windows\SysWOW64\spwizeng".?InitPage@WizardHandler@@UAEXXZ
  ?InitStandardButton@WizardRoot@@QAGPAVCCustomButtonEx@@I@Z="C:\Windows\SysWOW64\spwizeng".?InitStandardButton@WizardRoot@@QAGPAVCCustomButtonEx@@I@Z
  ?InitSurface@CGenericNavWindow@@AAEXXZ="C:\Windows\SysWOW64\spwizeng".?InitSurface@CGenericNavWindow@@AAEXXZ
  ?Initialize@CHighContrast@@QAGHXZ="C:\Windows\SysWOW64\spwizeng".?Initialize@CHighContrast@@QAGHXZ
  ?Initialize@CRichEditControl@@QAGXPAUHWND__@@PBG@Z="C:\Windows\SysWOW64\spwizeng".?Initialize@CRichEditControl@@QAGXPAUHWND__@@PBG@Z
  ?Initialize@WizardPage@@QAGXKKKPAVWizardRoot@@PBG1@Z="C:\Windows\SysWOW64\spwizeng".?Initialize@WizardPage@@QAGXKKKPAVWizardRoot@@PBG1@Z
  ?Initialize@WizardUI@@QAEHPAVCResourceModule@@0@Z="C:\Windows\SysWOW64\spwizeng".?Initialize@WizardUI@@QAEHPAVCResourceModule@@0@Z
  ?InitializeWithMsftEdit@CRichEditControl@@QAGXPAUHWND__@@@Z="C:\Windows\SysWOW64\spwizeng".?InitializeWithMsftEdit@CRichEditControl@@QAGXPAUHWND__@@@Z
  ?Insert@?$CStringT@GV?$StrTraitATL@GV?$ChTraitsCRT@G@ATL@@@ATL@@@ATL@@QAEHHG@Z="C:\Windows\SysWOW64\spwizeng".?Insert@?$CStringT@GV?$StrTraitATL@GV?$ChTraitsCRT@G@ATL@@@ATL@@@ATL@@QAEHHG@Z
  ?Insert@?$CStringT@GV?$StrTraitATL@GV?$ChTraitsCRT@G@ATL@@@ATL@@@ATL@@QAEHHPBG@Z="C:\Windows\SysWOW64\spwizeng".?Insert@?$CStringT@GV?$StrTraitATL@GV?$ChTraitsCRT@G@ATL@@@ATL@@@ATL@@QAEHHPBG@Z
  ?InsertChar@MyString@@QAEHHG@Z="C:\Windows\SysWOW64\spwizeng".?InsertChar@MyString@@QAEHHG@Z
  ?InsertString@MyString@@QAEHHPBG@Z="C:\Windows\SysWOW64\spwizeng".?InsertString@MyString@@QAEHHPBG@Z
  ?InsertString@PIDStringView@@QAEHHPBG@Z="C:\Windows\SysWOW64\spwizeng".?InsertString@PIDStringView@@QAEHHPBG@Z
  ?InstallFont@WizardUI@@AAEHPAUHINSTANCE__@@@Z="C:\Windows\SysWOW64\spwizeng".?InstallFont@WizardUI@@AAEHPAUHINSTANCE__@@@Z
  ?InternalSetAtIndex@?$CSimpleArray@PAGV?$CSimpleArrayEqualHelper@PAG@ATL@@@ATL@@QAEXHABQAG@Z="C:\Windows\SysWOW64\spwizeng".?InternalSetAtIndex@?$CSimpleArray@PAGV?$CSimpleArrayEqualHelper@PAG@ATL@@@ATL@@QAEXHABQAG@Z
  ?InternalSetAtIndex@?$CSimpleArray@PAUIResourceModuleEvent@@V?$CSimpleArrayEqualHelper@PAUIResourceModuleEvent@@@ATL@@@ATL@@QAEXHABQAUIResourceModuleEvent@@@Z="C:\Windows\SysWOW64\spwizeng".?InternalSetAtIndex@?$CSimpleArray@PAUIResourceModuleEvent@@V?$CSimpleArrayEqualHelper@PAUIResourceModuleEvent@@@ATL@@@ATL@@QAEXHABQAUIResourceModuleEvent@@@Z
  ?InternalSetAtIndex@?$CSimpleArray@PAUKEYBOARD@@V?$CSimpleArrayEqualHelper@PAUKEYBOARD@@@ATL@@@ATL@@QAEXHABQAUKEYBOARD@@@Z="C:\Windows\SysWOW64\spwizeng".?InternalSetAtIndex@?$CSimpleArray@PAUKEYBOARD@@V?$CSimpleArrayEqualHelper@PAUKEYBOARD@@@ATL@@@ATL@@QAEXHABQAUKEYBOARD@@@Z
  ?InternalSetAtIndex@?$CSimpleArray@PAULANGUAGE@@V?$CSimpleArrayEqualHelper@PAULANGUAGE@@@ATL@@@ATL@@QAEXHABQAULANGUAGE@@@Z="C:\Windows\SysWOW64\spwizeng".?InternalSetAtIndex@?$CSimpleArray@PAULANGUAGE@@V?$CSimpleArrayEqualHelper@PAULANGUAGE@@@ATL@@@ATL@@QAEXHABQAULANGUAGE@@@Z
  ?InternalSetAtIndex@?$CSimpleArray@PAULOCALE@@V?$CSimpleArrayEqualHelper@PAULOCALE@@@ATL@@@ATL@@QAEXHABQAULOCALE@@@Z="C:\Windows\SysWOW64\spwizeng".?InternalSetAtIndex@?$CSimpleArray@PAULOCALE@@V?$CSimpleArrayEqualHelper@PAULOCALE@@@ATL@@@ATL@@QAEXHABQAULOCALE@@@Z
  ?IsAppMirrored@AppWindow@@QAGHXZ="C:\Windows\SysWOW64\spwizeng".?IsAppMirrored@AppWindow@@QAGHXZ
  ?IsCancelRequest@WizardUI@@AAEHPAUtagMSG@@@Z="C:\Windows\SysWOW64\spwizeng".?IsCancelRequest@WizardUI@@AAEHPAUtagMSG@@@Z
  ?IsControlKeys@WizardUI@@AAEHPAUHWND__@@PAUtagMSG@@@Z="C:\Windows\SysWOW64\spwizeng".?IsControlKeys@WizardUI@@AAEHPAUHWND__@@PAUtagMSG@@@Z
  ?IsDPIScalingRequired@@YGHXZ="C:\Windows\SysWOW64\spwizeng".?IsDPIScalingRequired@@YGHXZ
  ?IsDialogMessageW@PageContainer@@QAGHPAUtagMSG@@@Z="C:\Windows\SysWOW64\spwizeng".?IsDialogMessageW@PageContainer@@QAGHPAUtagMSG@@@Z
  ?IsDlgMsg@CWndObj@@UAGHPAUtagMSG@@@Z="C:\Windows\SysWOW64\spwizeng".?IsDlgMsg@CWndObj@@UAGHPAUtagMSG@@@Z
  ?IsEmpty@?$CSimpleStringT@G$0A@@ATL@@QBE_NXZ="C:\Windows\SysWOW64\spwizeng".?IsEmpty@?$CSimpleStringT@G$0A@@ATL@@QBE_NXZ
  ?IsFunctionKeys@WizardUI@@AAEHPAUHWND__@@PAUtagMSG@@@Z="C:\Windows\SysWOW64\spwizeng".?IsFunctionKeys@WizardUI@@AAEHPAUHWND__@@PAUtagMSG@@@Z
  ?IsHighContrast@CHighContrast@@QAGHXZ="C:\Windows\SysWOW64\spwizeng".?IsHighContrast@CHighContrast@@QAGHXZ
  ?IsInitialized@CDIB@@QAEHXZ="C:\Windows\SysWOW64\spwizeng".?IsInitialized@CDIB@@QAEHXZ
  ?IsInitialized@ProtoPageDimensions@@QAEHXZ="C:\Windows\SysWOW64\spwizeng".?IsInitialized@ProtoPageDimensions@@QAEHXZ
  ?IsLanguageSelectionUiShown@LanguageSelectionDialogBase@@SGHXZ="C:\Windows\SysWOW64\spwizeng".?IsLanguageSelectionUiShown@LanguageSelectionDialogBase@@SGHXZ
  ?IsMinimizeRequest@WizardUI@@AAEHPAUtagMSG@@@Z="C:\Windows\SysWOW64\spwizeng".?IsMinimizeRequest@WizardUI@@AAEHPAUtagMSG@@@Z
  ?IsStandardSizing@ProtoPageDimensions@@QAEHXZ="C:\Windows\SysWOW64\spwizeng".?IsStandardSizing@ProtoPageDimensions@@QAEHXZ
  ?IsWDS@LanguageNeutralSelectionDialogBase@@UAEHXZ="C:\Windows\SysWOW64\spwizeng".?IsWDS@LanguageNeutralSelectionDialogBase@@UAEHXZ
  ?IsWDS@LanguageSelectionDialogBase@@UAEHXZ="C:\Windows\SysWOW64\spwizeng".?IsWDS@LanguageSelectionDialogBase@@UAEHXZ
  ?KillActive@WizardHandler@@UAEXAAH@Z="C:\Windows\SysWOW64\spwizeng".?KillActive@WizardHandler@@UAEXAAH@Z
  ?KillActive@WizardRoot@@UAEXXZ="C:\Windows\SysWOW64\spwizeng".?KillActive@WizardRoot@@UAEXXZ
  ?LangNeutralLVSubProc@LanguageNeutralSelectionDialogBase@@CGJPAUHWND__@@IIJ@Z="C:\Windows\SysWOW64\spwizeng".?LangNeutralLVSubProc@LanguageNeutralSelectionDialogBase@@CGJPAUHWND__@@IIJ@Z
  ?Leave@CCritSec@@UAEXXZ="C:\Windows\SysWOW64\spwizeng".?Leave@CCritSec@@UAEXXZ
  ?LeavingTrackedWnd@CCursor@@QAEHPAUHWND__@@@Z="C:\Windows\SysWOW64\spwizeng".?LeavingTrackedWnd@CCursor@@QAEHPAUHWND__@@@Z
  ?Left@?$CStringT@GV?$StrTraitATL@GV?$ChTraitsCRT@G@ATL@@@ATL@@@ATL@@QBE?AV12@H@Z="C:\Windows\SysWOW64\spwizeng".?Left@?$CStringT@GV?$StrTraitATL@GV?$ChTraitsCRT@G@ATL@@@ATL@@@ATL@@QBE?AV12@H@Z
  ?Load32FromOther@CDIB@@AAEHPAV1@@Z="C:\Windows\SysWOW64\spwizeng".?Load32FromOther@CDIB@@AAEHPAV1@@Z
  ?Load@CAnimation@@QAEHPAUHINSTANCE__@@IKHJJ@Z="C:\Windows\SysWOW64\spwizeng".?Load@CAnimation@@QAEHPAUHINSTANCE__@@IKHJJ@Z
  ?Load@CDIB@@QAEHPAUHINSTANCE__@@IKH@Z="C:\Windows\SysWOW64\spwizeng".?Load@CDIB@@QAEHPAUHINSTANCE__@@IKH@Z
  ?Load@CDrawBackground@@QAEHPAUHWND__@@PAUHDC__@@0@Z="C:\Windows\SysWOW64\spwizeng".?Load@CDrawBackground@@QAEHPAUHWND__@@PAUHDC__@@0@Z
  ?Load@CScreenDIB@@QAEHPAUHINSTANCE__@@IK@Z="C:\Windows\SysWOW64\spwizeng".?Load@CScreenDIB@@QAEHPAUHINSTANCE__@@IK@Z
  ?LoadBackground@AppWindow@@QAGXXZ="C:\Windows\SysWOW64\spwizeng".?LoadBackground@AppWindow@@QAGXXZ
  ?LoadBitmapW@CHighContrast@@QAGPAUHBITMAP__@@PAUHINSTANCE__@@IHHI@Z="C:\Windows\SysWOW64\spwizeng".?LoadBitmapW@CHighContrast@@QAGPAUHBITMAP__@@PAUHINSTANCE__@@IHHI@Z
  ?LoadFontInfo@WizardUI@@AAEXXZ="C:\Windows\SysWOW64\spwizeng".?LoadFontInfo@WizardUI@@AAEXXZ
  ?LoadLibraryW@CResourceModule@@AAEXXZ="C:\Windows\SysWOW64\spwizeng".?LoadLibraryW@CResourceModule@@AAEXXZ
  ?LoadScaled@CDIB@@QAEHPAUHINSTANCE__@@IJJKH@Z="C:\Windows\SysWOW64\spwizeng".?LoadScaled@CDIB@@QAEHPAUHINSTANCE__@@IJJKH@Z
  ?LoadScaledByDPI@CDIB@@QAEHPAUHINSTANCE__@@IKH@Z="C:\Windows\SysWOW64\spwizeng".?LoadScaledByDPI@CDIB@@QAEHPAUHINSTANCE__@@IKH@Z
  ?LoadScaledFromOther@CDIB@@QAEHPAV1@JJH@Z="C:\Windows\SysWOW64\spwizeng".?LoadScaledFromOther@CDIB@@QAEHPAV1@JJH@Z
  ?LoadStringResources@LanguageSelectionDialogBase@@QAEXXZ="C:\Windows\SysWOW64\spwizeng".?LoadStringResources@LanguageSelectionDialogBase@@QAEXXZ
  ?LoadStringW@?$CStringT@GV?$StrTraitATL@GV?$ChTraitsCRT@G@ATL@@@ATL@@@ATL@@QAEHI@Z="C:\Windows\SysWOW64\spwizeng".?LoadStringW@?$CStringT@GV?$StrTraitATL@GV?$ChTraitsCRT@G@ATL@@@ATL@@@ATL@@QAEHI@Z
  ?LoadStringW@?$CStringT@GV?$StrTraitATL@GV?$ChTraitsCRT@G@ATL@@@ATL@@@ATL@@QAEHPAUHINSTANCE__@@I@Z="C:\Windows\SysWOW64\spwizeng".?LoadStringW@?$CStringT@GV?$StrTraitATL@GV?$ChTraitsCRT@G@ATL@@@ATL@@@ATL@@QAEHPAUHINSTANCE__@@I@Z
  ?LoadStringW@?$CStringT@GV?$StrTraitATL@GV?$ChTraitsCRT@G@ATL@@@ATL@@@ATL@@QAEHPAUHINSTANCE__@@IG@Z="C:\Windows\SysWOW64\spwizeng".?LoadStringW@?$CStringT@GV?$StrTraitATL@GV?$ChTraitsCRT@G@ATL@@@ATL@@@ATL@@QAEHPAUHINSTANCE__@@IG@Z
  ?LockBuffer@?$CSimpleStringT@G$0A@@ATL@@QAEPAGXZ="C:\Windows\SysWOW64\spwizeng".?LockBuffer@?$CSimpleStringT@G$0A@@ATL@@QAEPAGXZ
  ?MakeFullyOpaque@CDIB@@AAEXXZ="C:\Windows\SysWOW64\spwizeng".?MakeFullyOpaque@CDIB@@AAEXXZ
  ?MakeLower@?$CStringT@GV?$StrTraitATL@GV?$ChTraitsCRT@G@ATL@@@ATL@@@ATL@@QAEAAV12@XZ="C:\Windows\SysWOW64\spwizeng".?MakeLower@?$CStringT@GV?$StrTraitATL@GV?$ChTraitsCRT@G@ATL@@@ATL@@@ATL@@QAEAAV12@XZ
  ?MakeReverse@?$CStringT@GV?$StrTraitATL@GV?$ChTraitsCRT@G@ATL@@@ATL@@@ATL@@QAEAAV12@XZ="C:\Windows\SysWOW64\spwizeng".?MakeReverse@?$CStringT@GV?$StrTraitATL@GV?$ChTraitsCRT@G@ATL@@@ATL@@@ATL@@QAEAAV12@XZ
  ?MakeUpper@?$CStringT@GV?$StrTraitATL@GV?$ChTraitsCRT@G@ATL@@@ATL@@@ATL@@QAEAAV12@XZ="C:\Windows\SysWOW64\spwizeng".?MakeUpper@?$CStringT@GV?$StrTraitATL@GV?$ChTraitsCRT@G@ATL@@@ATL@@@ATL@@QAEAAV12@XZ
  ?MessageBoxFromMessage@@YGHPAUHINSTANCE__@@PAUHWND__@@III@Z="C:\Windows\SysWOW64\spwizeng".?MessageBoxFromMessage@@YGHPAUHINSTANCE__@@PAUHWND__@@III@Z
  ?MessageBoxFromMessage@@YGHPAUHINSTANCE__@@PAUHWND__@@PBGII@Z="C:\Windows\SysWOW64\spwizeng".?MessageBoxFromMessage@@YGHPAUHINSTANCE__@@PAUHWND__@@PBGII@Z
  ?MessageBoxFromMessageWithTimeout@@YGHPAUHINSTANCE__@@PAUHWND__@@IIIIH@Z="C:\Windows\SysWOW64\spwizeng".?MessageBoxFromMessageWithTimeout@@YGHPAUHINSTANCE__@@PAUHWND__@@IIIIH@Z
  ?MessageBoxFromMessageWithTimeout@@YGHPAUHINSTANCE__@@PAUHWND__@@PBGIIIH@Z="C:\Windows\SysWOW64\spwizeng".?MessageBoxFromMessageWithTimeout@@YGHPAUHINSTANCE__@@PAUHWND__@@PBGIIIH@Z
  ?MessagePump@WizardUI@@AAEXXZ="C:\Windows\SysWOW64\spwizeng".?MessagePump@WizardUI@@AAEXXZ
  ?Mid@?$CStringT@GV?$StrTraitATL@GV?$ChTraitsCRT@G@ATL@@@ATL@@@ATL@@QBE?AV12@H@Z="C:\Windows\SysWOW64\spwizeng".?Mid@?$CStringT@GV?$StrTraitATL@GV?$ChTraitsCRT@G@ATL@@@ATL@@@ATL@@QBE?AV12@H@Z
  ?Mid@?$CStringT@GV?$StrTraitATL@GV?$ChTraitsCRT@G@ATL@@@ATL@@@ATL@@QBE?AV12@HH@Z="C:\Windows\SysWOW64\spwizeng".?Mid@?$CStringT@GV?$StrTraitATL@GV?$ChTraitsCRT@G@ATL@@@ATL@@@ATL@@QBE?AV12@HH@Z
  ?MirrorImage@CDIB@@QAEXXZ="C:\Windows\SysWOW64\spwizeng".?MirrorImage@CDIB@@QAEXXZ
  ?Move@CWndObj@@UAGXPAUtagPOINT@@@Z="C:\Windows\SysWOW64\spwizeng".?Move@CWndObj@@UAGXPAUtagPOINT@@@Z
  ?MyPropSheet_GetWizButtons@WizardRoot@@QAGKXZ="C:\Windows\SysWOW64\spwizeng".?MyPropSheet_GetWizButtons@WizardRoot@@QAGKXZ
  ?MyPropSheet_SetWizButtons@WizardRoot@@QAGXK@Z="C:\Windows\SysWOW64\spwizeng".?MyPropSheet_SetWizButtons@WizardRoot@@QAGXK@Z
  ?NeedToRedrawNavWindow@WizardUI@@AAEHXZ="C:\Windows\SysWOW64\spwizeng".?NeedToRedrawNavWindow@WizardUI@@AAEHXZ
  ?Next@Navigator@@UAGPAVWizardPage@@HPAVWizardNode@@@Z="C:\Windows\SysWOW64\spwizeng".?Next@Navigator@@UAGPAVWizardPage@@HPAVWizardNode@@@Z
  ?Next@Navigator@@UAGPAVWizardPage@@PAVWizardNode@@@Z="C:\Windows\SysWOW64\spwizeng".?Next@Navigator@@UAGPAVWizardPage@@PAVWizardNode@@@Z
  ?Next@WizardEx@@UAGPAVWizardPage@@HPAVWizardNode@@@Z="C:\Windows\SysWOW64\spwizeng".?Next@WizardEx@@UAGPAVWizardPage@@HPAVWizardNode@@@Z
  ?Next@WizardEx@@UAGPAVWizardPage@@PAVWizardNode@@@Z="C:\Windows\SysWOW64\spwizeng".?Next@WizardEx@@UAGPAVWizardPage@@PAVWizardNode@@@Z
  ?NextPage@BranchWizStrategy@@UAEPAVWizardPage@@HPAVWizardNode@@@Z="C:\Windows\SysWOW64\spwizeng".?NextPage@BranchWizStrategy@@UAEPAVWizardPage@@HPAVWizardNode@@@Z
  ?NextPage@SimpleWizStrategy@@UAEPAVWizardPage@@HPAVWizardNode@@@Z="C:\Windows\SysWOW64\spwizeng".?NextPage@SimpleWizStrategy@@UAEPAVWizardPage@@HPAVWizardNode@@@Z
  ?NextPage@SummaryWizStrategy@@UAEPAVWizardPage@@HPAVWizardNode@@@Z="C:\Windows\SysWOW64\spwizeng".?NextPage@SummaryWizStrategy@@UAEPAVWizardPage@@HPAVWizardNode@@@Z
  ?NextPage@VariationWizStrategy@@UAEPAVWizardPage@@HPAVWizardNode@@@Z="C:\Windows\SysWOW64\spwizeng".?NextPage@VariationWizStrategy@@UAEPAVWizardPage@@HPAVWizardNode@@@Z
  ?NextPageHelper@ChoiceWizStrategy@@IAEPAVWizardPage@@HPAVWizardNode@@@Z="C:\Windows\SysWOW64\spwizeng".?NextPageHelper@ChoiceWizStrategy@@IAEPAVWizardPage@@HPAVWizardNode@@@Z
  ?NotifyWizBack@WizardHandler@@UAEHAAH@Z="C:\Windows\SysWOW64\spwizeng".?NotifyWizBack@WizardHandler@@UAEHAAH@Z
  ?NotifyWizBack@WizardRoot@@UAEHXZ="C:\Windows\SysWOW64\spwizeng".?NotifyWizBack@WizardRoot@@UAEHXZ
  ?NotifyWizCancel@WizardHandler@@UAEHAAH@Z="C:\Windows\SysWOW64\spwizeng".?NotifyWizCancel@WizardHandler@@UAEHAAH@Z
  ?NotifyWizCancel@WizardRoot@@UAEHXZ="C:\Windows\SysWOW64\spwizeng".?NotifyWizCancel@WizardRoot@@UAEHXZ
  ?NotifyWizFinish@WizardHandler@@UAEHAAH@Z="C:\Windows\SysWOW64\spwizeng".?NotifyWizFinish@WizardHandler@@UAEHAAH@Z
  ?NotifyWizFinish@WizardRoot@@UAEHXZ="C:\Windows\SysWOW64\spwizeng".?NotifyWizFinish@WizardRoot@@UAEHXZ
  ?NotifyWizNext@WizardHandler@@UAEHAAH@Z="C:\Windows\SysWOW64\spwizeng".?NotifyWizNext@WizardHandler@@UAEHAAH@Z
  ?NotifyWizNext@WizardRoot@@UAEHXZ="C:\Windows\SysWOW64\spwizeng".?NotifyWizNext@WizardRoot@@UAEHXZ
  ?OemToCharA@?$CStringT@GV?$StrTraitATL@GV?$ChTraitsCRT@G@ATL@@@ATL@@@ATL@@QAEXXZ="C:\Windows\SysWOW64\spwizeng".?OemToCharA@?$CStringT@GV?$StrTraitATL@GV?$ChTraitsCRT@G@ATL@@@ATL@@@ATL@@QAEXXZ
  ?OnActivate@AppWindow@@MAGJIJ@Z="C:\Windows\SysWOW64\spwizeng".?OnActivate@AppWindow@@MAGJIJ@Z
  ?OnActivate@CWndObj@@MAGJIJ@Z="C:\Windows\SysWOW64\spwizeng".?OnActivate@CWndObj@@MAGJIJ@Z
  ?OnActivate@ScrWindow@@MAGJIJ@Z="C:\Windows\SysWOW64\spwizeng".?OnActivate@ScrWindow@@MAGJIJ@Z
  ?OnActivateApp@CWndObj@@MAGJIJ@Z="C:\Windows\SysWOW64\spwizeng".?OnActivateApp@CWndObj@@MAGJIJ@Z
  ?OnApp@CWndObj@@MAGJIIJ@Z="C:\Windows\SysWOW64\spwizeng".?OnApp@CWndObj@@MAGJIIJ@Z
  ?OnAskCBFormatName@CWndObj@@MAGJIJ@Z="C:\Windows\SysWOW64\spwizeng".?OnAskCBFormatName@CWndObj@@MAGJIJ@Z
  ?OnBack@AppWindow@@MAGJIIJ@Z="C:\Windows\SysWOW64\spwizeng".?OnBack@AppWindow@@MAGJIIJ@Z
  ?OnBack@CGenericNavWindow@@QAEJGGPAUHWND__@@AAH@Z="C:\Windows\SysWOW64\spwizeng".?OnBack@CGenericNavWindow@@QAEJGGPAUHWND__@@AAH@Z
  ?OnCancel@AppWindow@@MAGJIIJ@Z="C:\Windows\SysWOW64\spwizeng".?OnCancel@AppWindow@@MAGJIIJ@Z
  ?OnCancel@CGenericNavWindow@@QAEJGGPAUHWND__@@AAH@Z="C:\Windows\SysWOW64\spwizeng".?OnCancel@CGenericNavWindow@@QAEJGGPAUHWND__@@AAH@Z
  ?OnCancelJournal@CWndObj@@MAGJIJ@Z="C:\Windows\SysWOW64\spwizeng".?OnCancelJournal@CWndObj@@MAGJIJ@Z
  ?OnCancelMode@CWndObj@@MAGJIJ@Z="C:\Windows\SysWOW64\spwizeng".?OnCancelMode@CWndObj@@MAGJIJ@Z
  ?OnCaptureChanged@CWndObj@@MAGJIJ@Z="C:\Windows\SysWOW64\spwizeng".?OnCaptureChanged@CWndObj@@MAGJIJ@Z
  ?OnChangeCBChain@CWndObj@@MAGJIJ@Z="C:\Windows\SysWOW64\spwizeng".?OnChangeCBChain@CWndObj@@MAGJIJ@Z
  ?OnChar@CWndObj@@MAGJIJ@Z="C:\Windows\SysWOW64\spwizeng".?OnChar@CWndObj@@MAGJIJ@Z
  ?OnCharToItem@CWndObj@@MAGJIJ@Z="C:\Windows\SysWOW64\spwizeng".?OnCharToItem@CWndObj@@MAGJIJ@Z
  ?OnChildActivate@CWndObj@@MAGJIJ@Z="C:\Windows\SysWOW64\spwizeng".?OnChildActivate@CWndObj@@MAGJIJ@Z
  ?OnClose@AppWindow@@MAGJIJ@Z="C:\Windows\SysWOW64\spwizeng".?OnClose@AppWindow@@MAGJIJ@Z
  ?OnClose@CWndObj@@MAGJIJ@Z="C:\Windows\SysWOW64\spwizeng".?OnClose@CWndObj@@MAGJIJ@Z
  ?OnClose@ScrWindow@@MAGJIJ@Z="C:\Windows\SysWOW64\spwizeng".?OnClose@ScrWindow@@MAGJIJ@Z
  ?OnCommand@AppWindow@@MAGJIJ@Z="C:\Windows\SysWOW64\spwizeng".?OnCommand@AppWindow@@MAGJIJ@Z
  ?OnCommand@CWndObj@@MAGJIJ@Z="C:\Windows\SysWOW64\spwizeng".?OnCommand@CWndObj@@MAGJIJ@Z
  ?OnCommand@ScrWindow@@MAGJIJ@Z="C:\Windows\SysWOW64\spwizeng".?OnCommand@ScrWindow@@MAGJIJ@Z
  ?OnCommandBack@WizardDialogPost@@QAEJGGPAUHWND__@@AAH@Z="C:\Windows\SysWOW64\spwizeng".?OnCommandBack@WizardDialogPost@@QAEJGGPAUHWND__@@AAH@Z
  ?OnCommandCancel@WizardDialogPost@@QAEJGGPAUHWND__@@AAH@Z="C:\Windows\SysWOW64\spwizeng".?OnCommandCancel@WizardDialogPost@@QAEJGGPAUHWND__@@AAH@Z
  ?OnCommandContinue@LanguageSelectionDialogBase@@QAEJGGPAUHWND__@@AAH@Z="C:\Windows\SysWOW64\spwizeng".?OnCommandContinue@LanguageSelectionDialogBase@@QAEJGGPAUHWND__@@AAH@Z
  ?OnCommandContinue@WizardDialogPost@@QAEJGGPAUHWND__@@AAH@Z="C:\Windows\SysWOW64\spwizeng".?OnCommandContinue@WizardDialogPost@@QAEJGGPAUHWND__@@AAH@Z
  ?OnCommandFinish@WizardDialogPost@@QAEJGGPAUHWND__@@AAH@Z="C:\Windows\SysWOW64\spwizeng".?OnCommandFinish@WizardDialogPost@@QAEJGGPAUHWND__@@AAH@Z
  ?OnCompacting@CWndObj@@MAGJIJ@Z="C:\Windows\SysWOW64\spwizeng".?OnCompacting@CWndObj@@MAGJIJ@Z
  ?OnCompareItem@CWndObj@@MAGJIJ@Z="C:\Windows\SysWOW64\spwizeng".?OnCompareItem@CWndObj@@MAGJIJ@Z
  ?OnContextMenu@CWndObj@@MAGJIJ@Z="C:\Windows\SysWOW64\spwizeng".?OnContextMenu@CWndObj@@MAGJIJ@Z
  ?OnCopyData@CWndObj@@MAGJIJ@Z="C:\Windows\SysWOW64\spwizeng".?OnCopyData@CWndObj@@MAGJIJ@Z
  ?OnCreate@AppWindow@@MAGJIJ@Z="C:\Windows\SysWOW64\spwizeng".?OnCreate@AppWindow@@MAGJIJ@Z
  ?OnCreate@CWndObj@@MAGJIJ@Z="C:\Windows\SysWOW64\spwizeng".?OnCreate@CWndObj@@MAGJIJ@Z
  ?OnCreate@ScrWindow@@MAGJIJ@Z="C:\Windows\SysWOW64\spwizeng".?OnCreate@ScrWindow@@MAGJIJ@Z
  ?OnCtlColor@CGenericNavWindow@@QAEJIIJAAH@Z="C:\Windows\SysWOW64\spwizeng".?OnCtlColor@CGenericNavWindow@@QAEJIIJAAH@Z
  ?OnCtlColorBtn@CWndObj@@MAGJIJ@Z="C:\Windows\SysWOW64\spwizeng".?OnCtlColorBtn@CWndObj@@MAGJIJ@Z
  ?OnCtlColorDlg@CWndObj@@MAGJIJ@Z="C:\Windows\SysWOW64\spwizeng".?OnCtlColorDlg@CWndObj@@MAGJIJ@Z
  ?OnCtlColorEdit@CWndObj@@MAGJIJ@Z="C:\Windows\SysWOW64\spwizeng".?OnCtlColorEdit@CWndObj@@MAGJIJ@Z
  ?OnCtlColorListbox@CWndObj@@MAGJIJ@Z="C:\Windows\SysWOW64\spwizeng".?OnCtlColorListbox@CWndObj@@MAGJIJ@Z
  ?OnCtlColorMsgbox@CWndObj@@MAGJIJ@Z="C:\Windows\SysWOW64\spwizeng".?OnCtlColorMsgbox@CWndObj@@MAGJIJ@Z
  ?OnCtlColorScrollbar@CWndObj@@MAGJIJ@Z="C:\Windows\SysWOW64\spwizeng".?OnCtlColorScrollbar@CWndObj@@MAGJIJ@Z
  ?OnCtlColorStatic@CWndObj@@MAGJIJ@Z="C:\Windows\SysWOW64\spwizeng".?OnCtlColorStatic@CWndObj@@MAGJIJ@Z
  ?OnCtlColorStatic@SimpleDialogBase@@QAEJIIJAAH@Z="C:\Windows\SysWOW64\spwizeng".?OnCtlColorStatic@SimpleDialogBase@@QAEJIIJAAH@Z
  ?OnCtlColorStatic@WizardDialogPost@@QAEJIIJAAH@Z="C:\Windows\SysWOW64\spwizeng".?OnCtlColorStatic@WizardDialogPost@@QAEJIIJAAH@Z
  ?OnCustomDraw@LanguageNeutralSelectionDialogBase@@QAEJHPAUtagNMHDR@@AAH@Z="C:\Windows\SysWOW64\spwizeng".?OnCustomDraw@LanguageNeutralSelectionDialogBase@@QAEJHPAUtagNMHDR@@AAH@Z
  ?OnDeadChar@CWndObj@@MAGJIJ@Z="C:\Windows\SysWOW64\spwizeng".?OnDeadChar@CWndObj@@MAGJIJ@Z
  ?OnDeleteItem@CWndObj@@MAGJIJ@Z="C:\Windows\SysWOW64\spwizeng".?OnDeleteItem@CWndObj@@MAGJIJ@Z
  ?OnDestroy@AppWindow@@MAGJIJ@Z="C:\Windows\SysWOW64\spwizeng".?OnDestroy@AppWindow@@MAGJIJ@Z
  ?OnDestroy@CGenericNavWindow@@QAEJIIJAAH@Z="C:\Windows\SysWOW64\spwizeng".?OnDestroy@CGenericNavWindow@@QAEJIIJAAH@Z
  ?OnDestroy@CWndObj@@MAGJIJ@Z="C:\Windows\SysWOW64\spwizeng".?OnDestroy@CWndObj@@MAGJIJ@Z
  ?OnDestroy@ScrWindow@@MAGJIJ@Z="C:\Windows\SysWOW64\spwizeng".?OnDestroy@ScrWindow@@MAGJIJ@Z
  ?OnDestroy@WizardDialogPre@@QAEJIIJAAH@Z="C:\Windows\SysWOW64\spwizeng".?OnDestroy@WizardDialogPre@@QAEJIIJAAH@Z
  ?OnDestroyClipboard@CWndObj@@MAGJIJ@Z="C:\Windows\SysWOW64\spwizeng".?OnDestroyClipboard@CWndObj@@MAGJIJ@Z
  ?OnDeviceChange@AppWindow@@MAGJIJ@Z="C:\Windows\SysWOW64\spwizeng".?OnDeviceChange@AppWindow@@MAGJIJ@Z
  ?OnDeviceChange@CWndObj@@MAGJIJ@Z="C:\Windows\SysWOW64\spwizeng".?OnDeviceChange@CWndObj@@MAGJIJ@Z
  ?OnDeviceChange@ScrWindow@@MAGJIJ@Z="C:\Windows\SysWOW64\spwizeng".?OnDeviceChange@ScrWindow@@MAGJIJ@Z
  ?OnDevmodeChange@CWndObj@@MAGJIJ@Z="C:\Windows\SysWOW64\spwizeng".?OnDevmodeChange@CWndObj@@MAGJIJ@Z
  ?OnDisplayChange@CGenericNavWindow@@QAEJIIJAAH@Z="C:\Windows\SysWOW64\spwizeng".?OnDisplayChange@CGenericNavWindow@@QAEJIIJAAH@Z
  ?OnDisplayChange@CWndObj@@MAGJIJ@Z="C:\Windows\SysWOW64\spwizeng".?OnDisplayChange@CWndObj@@MAGJIJ@Z
  ?OnDisplayChange@ScrWindow@@MAGJIJ@Z="C:\Windows\SysWOW64\spwizeng".?OnDisplayChange@ScrWindow@@MAGJIJ@Z
  ?OnDrawClipboard@CWndObj@@MAGJIJ@Z="C:\Windows\SysWOW64\spwizeng".?OnDrawClipboard@CWndObj@@MAGJIJ@Z
  ?OnDrawItem@CGenericNavWindow@@QAEJIIJAAH@Z="C:\Windows\SysWOW64\spwizeng".?OnDrawItem@CGenericNavWindow@@QAEJIIJAAH@Z
  ?OnDrawItem@CWndObj@@MAGJIJ@Z="C:\Windows\SysWOW64\spwizeng".?OnDrawItem@CWndObj@@MAGJIJ@Z
  ?OnDrawItem@WizardDialogPre@@QAEJIIJAAH@Z="C:\Windows\SysWOW64\spwizeng".?OnDrawItem@WizardDialogPre@@QAEJIIJAAH@Z
  ?OnDropFiles@CWndObj@@MAGJIJ@Z="C:\Windows\SysWOW64\spwizeng".?OnDropFiles@CWndObj@@MAGJIJ@Z
  ?OnEnable@CWndObj@@MAGJIJ@Z="C:\Windows\SysWOW64\spwizeng".?OnEnable@CWndObj@@MAGJIJ@Z
  ?OnEndSession@CWndObj@@MAGJIJ@Z="C:\Windows\SysWOW64\spwizeng".?OnEndSession@CWndObj@@MAGJIJ@Z
  ?OnEnterIdle@CWndObj@@MAGJIJ@Z="C:\Windows\SysWOW64\spwizeng".?OnEnterIdle@CWndObj@@MAGJIJ@Z
  ?OnEnterMenuLoop@CWndObj@@MAGJIJ@Z="C:\Windows\SysWOW64\spwizeng".?OnEnterMenuLoop@CWndObj@@MAGJIJ@Z
  ?OnEnterSizeMove@CWndObj@@MAGJIJ@Z="C:\Windows\SysWOW64\spwizeng".?OnEnterSizeMove@CWndObj@@MAGJIJ@Z
  ?OnEraseBkGnd@AppWindow@@MAGJIJ@Z="C:\Windows\SysWOW64\spwizeng".?OnEraseBkGnd@AppWindow@@MAGJIJ@Z
  ?OnEraseBkGnd@CWndObj@@MAGJIJ@Z="C:\Windows\SysWOW64\spwizeng".?OnEraseBkGnd@CWndObj@@MAGJIJ@Z
  ?OnEraseBkGnd@ScrWindow@@MAGJIJ@Z="C:\Windows\SysWOW64\spwizeng".?OnEraseBkGnd@ScrWindow@@MAGJIJ@Z
  ?OnEraseBkGnd@WizardDialogPre@@QAEJIIJAAH@Z="C:\Windows\SysWOW64\spwizeng".?OnEraseBkGnd@WizardDialogPre@@QAEJIIJAAH@Z
  ?OnExitMenuLoop@CWndObj@@MAGJIJ@Z="C:\Windows\SysWOW64\spwizeng".?OnExitMenuLoop@CWndObj@@MAGJIJ@Z
  ?OnExitSizeMove@CWndObj@@MAGJIJ@Z="C:\Windows\SysWOW64\spwizeng".?OnExitSizeMove@CWndObj@@MAGJIJ@Z
  ?OnFontChange@CWndObj@@MAGJIJ@Z="C:\Windows\SysWOW64\spwizeng".?OnFontChange@CWndObj@@MAGJIJ@Z
  ?OnGetButtons@AppWindow@@MAGJIIJ@Z="C:\Windows\SysWOW64\spwizeng".?OnGetButtons@AppWindow@@MAGJIIJ@Z
  ?OnGetButtons@CGenericNavWindow@@QAEJIIJAAH@Z="C:\Windows\SysWOW64\spwizeng".?OnGetButtons@CGenericNavWindow@@QAEJIIJAAH@Z
  ?OnGetDefID@AppWindow@@MAGJIIJ@Z="C:\Windows\SysWOW64\spwizeng".?OnGetDefID@AppWindow@@MAGJIIJ@Z
  ?OnGetDlgCode@CWndObj@@MAGJIJ@Z="C:\Windows\SysWOW64\spwizeng".?OnGetDlgCode@CWndObj@@MAGJIJ@Z
  ?OnGetIcon@CWndObj@@MAGJIJ@Z="C:\Windows\SysWOW64\spwizeng".?OnGetIcon@CWndObj@@MAGJIJ@Z
  ?OnGetMinMaxInfo@CWndObj@@MAGJIJ@Z="C:\Windows\SysWOW64\spwizeng".?OnGetMinMaxInfo@CWndObj@@MAGJIJ@Z
  ?OnGetText@CWndObj@@MAGJIJ@Z="C:\Windows\SysWOW64\spwizeng".?OnGetText@CWndObj@@MAGJIJ@Z
  ?OnGetTextLength@CWndObj@@MAGJIJ@Z="C:\Windows\SysWOW64\spwizeng".?OnGetTextLength@CWndObj@@MAGJIJ@Z
  ?OnHScroll@CWndObj@@MAGJIJ@Z="C:\Windows\SysWOW64\spwizeng".?OnHScroll@CWndObj@@MAGJIJ@Z
  ?OnHelp@CWndObj@@MAGJIJ@Z="C:\Windows\SysWOW64\spwizeng".?OnHelp@CWndObj@@MAGJIJ@Z
  ?OnHotKey@CWndObj@@MAGJIJ@Z="C:\Windows\SysWOW64\spwizeng".?OnHotKey@CWndObj@@MAGJIJ@Z
  ?OnInitDialog@CGenericNavWindow@@QAEJIIJAAH@Z="C:\Windows\SysWOW64\spwizeng".?OnInitDialog@CGenericNavWindow@@QAEJIIJAAH@Z
  ?OnInitDialog@CWndObj@@MAGJIJ@Z="C:\Windows\SysWOW64\spwizeng".?OnInitDialog@CWndObj@@MAGJIJ@Z
  ?OnInitDialog@LanguageNeutralSelectionDialogBase@@QAEJIIJAAH@Z="C:\Windows\SysWOW64\spwizeng".?OnInitDialog@LanguageNeutralSelectionDialogBase@@QAEJIIJAAH@Z
  ?OnInitDialog@LanguageSelectionDialogBase@@QAEJIIJAAH@Z="C:\Windows\SysWOW64\spwizeng".?OnInitDialog@LanguageSelectionDialogBase@@QAEJIIJAAH@Z
  ?OnInitDialog@WizardDialogPre@@QAEJIIJAAH@Z="C:\Windows\SysWOW64\spwizeng".?OnInitDialog@WizardDialogPre@@QAEJIIJAAH@Z
  ?OnKeyDown@CWndObj@@MAGJIJ@Z="C:\Windows\SysWOW64\spwizeng".?OnKeyDown@CWndObj@@MAGJIJ@Z
  ?OnKeyUp@CWndObj@@MAGJIJ@Z="C:\Windows\SysWOW64\spwizeng".?OnKeyUp@CWndObj@@MAGJIJ@Z
  ?OnKeyUp@LanguageNeutralSelectionDialogBase@@QAEJIIJAAH@Z="C:\Windows\SysWOW64\spwizeng".?OnKeyUp@LanguageNeutralSelectionDialogBase@@QAEJIIJAAH@Z
  ?OnKillFocus@CWndObj@@MAGJIJ@Z="C:\Windows\SysWOW64\spwizeng".?OnKillFocus@CWndObj@@MAGJIJ@Z
  ?OnLButtonDblClk@CWndObj@@MAGJIJ@Z="C:\Windows\SysWOW64\spwizeng".?OnLButtonDblClk@CWndObj@@MAGJIJ@Z
  ?OnLButtonDown@CWndObj@@MAGJIJ@Z="C:\Windows\SysWOW64\spwizeng".?OnLButtonDown@CWndObj@@MAGJIJ@Z
  ?OnLButtonUp@CWndObj@@MAGJIJ@Z="C:\Windows\SysWOW64\spwizeng".?OnLButtonUp@CWndObj@@MAGJIJ@Z
  ?OnLanguageChange@LanguageSelectionDialogBase@@QAEJGGPAUHWND__@@AAH@Z="C:\Windows\SysWOW64\spwizeng".?OnLanguageChange@LanguageSelectionDialogBase@@QAEJGGPAUHWND__@@AAH@Z
  ?OnLanguageSelect@LanguageNeutralSelectionDialogBase@@QAEJHPAUtagNMHDR@@AAH@Z="C:\Windows\SysWOW64\spwizeng".?OnLanguageSelect@LanguageNeutralSelectionDialogBase@@QAEJHPAUtagNMHDR@@AAH@Z
  ?OnLocaleChange@LanguageSelectionDialogBase@@QAEJGGPAUHWND__@@AAH@Z="C:\Windows\SysWOW64\spwizeng".?OnLocaleChange@LanguageSelectionDialogBase@@QAEJGGPAUHWND__@@AAH@Z
  ?OnMeasureItem@CWndObj@@MAGJIJ@Z="C:\Windows\SysWOW64\spwizeng".?OnMeasureItem@CWndObj@@MAGJIJ@Z
  ?OnMenuChar@CWndObj@@MAGJIJ@Z="C:\Windows\SysWOW64\spwizeng".?OnMenuChar@CWndObj@@MAGJIJ@Z
  ?OnMenuSelect@CWndObj@@MAGJIJ@Z="C:\Windows\SysWOW64\spwizeng".?OnMenuSelect@CWndObj@@MAGJIJ@Z
  ?OnMouseActivate@CWndObj@@MAGJIJ@Z="C:\Windows\SysWOW64\spwizeng".?OnMouseActivate@CWndObj@@MAGJIJ@Z
  ?OnMouseLeave@CWndObj@@MAGJIJ@Z="C:\Windows\SysWOW64\spwizeng".?OnMouseLeave@CWndObj@@MAGJIJ@Z
  ?OnMouseMove@CWndObj@@MAGJIJ@Z="C:\Windows\SysWOW64\spwizeng".?OnMouseMove@CWndObj@@MAGJIJ@Z
  ?OnMouseOver@LanguageNeutralSelectionDialogBase@@QAEJHPAUtagNMHDR@@AAH@Z="C:\Windows\SysWOW64\spwizeng".?OnMouseOver@LanguageNeutralSelectionDialogBase@@QAEJHPAUtagNMHDR@@AAH@Z
  ?OnMove@CWndObj@@MAGJIJ@Z="C:\Windows\SysWOW64\spwizeng".?OnMove@CWndObj@@MAGJIJ@Z
  ?OnMoving@CWndObj@@MAGJIJ@Z="C:\Windows\SysWOW64\spwizeng".?OnMoving@CWndObj@@MAGJIJ@Z
  ?OnNCCalcSize@CWndObj@@MAGJIJ@Z="C:\Windows\SysWOW64\spwizeng".?OnNCCalcSize@CWndObj@@MAGJIJ@Z
  ?OnNCCreate@CWndObj@@MAGJIJ@Z="C:\Windows\SysWOW64\spwizeng".?OnNCCreate@CWndObj@@MAGJIJ@Z
  ?OnNCDestroy@CWndObj@@MAGJIJ@Z="C:\Windows\SysWOW64\spwizeng".?OnNCDestroy@CWndObj@@MAGJIJ@Z
  ?OnNCHitTest@CWndObj@@MAGJIJ@Z="C:\Windows\SysWOW64\spwizeng".?OnNCHitTest@CWndObj@@MAGJIJ@Z
  ?OnNCPaint@CWndObj@@MAGJIJ@Z="C:\Windows\SysWOW64\spwizeng".?OnNCPaint@CWndObj@@MAGJIJ@Z
  ?OnNotify@CWndObj@@MAGJIJ@Z="C:\Windows\SysWOW64\spwizeng".?OnNotify@CWndObj@@MAGJIJ@Z
  ?OnNull@CWndObj@@MAGJIJ@Z="C:\Windows\SysWOW64\spwizeng".?OnNull@CWndObj@@MAGJIJ@Z
  ?OnPaint@AppWindow@@MAGJIJ@Z="C:\Windows\SysWOW64\spwizeng".?OnPaint@AppWindow@@MAGJIJ@Z
  ?OnPaint@CGenericNavWindow@@QAEJIIJAAH@Z="C:\Windows\SysWOW64\spwizeng".?OnPaint@CGenericNavWindow@@QAEJIIJAAH@Z
  ?OnPaint@CWndObj@@MAGJIJ@Z="C:\Windows\SysWOW64\spwizeng".?OnPaint@CWndObj@@MAGJIJ@Z
  ?OnPaint@ScrWindow@@MAGJIJ@Z="C:\Windows\SysWOW64\spwizeng".?OnPaint@ScrWindow@@MAGJIJ@Z
  ?OnPaintClipboard@CWndObj@@MAGJIJ@Z="C:\Windows\SysWOW64\spwizeng".?OnPaintClipboard@CWndObj@@MAGJIJ@Z
  ?OnParentNotify@CWndObj@@MAGJIJ@Z="C:\Windows\SysWOW64\spwizeng".?OnParentNotify@CWndObj@@MAGJIJ@Z
  ?OnPower@CWndObj@@MAGJIJ@Z="C:\Windows\SysWOW64\spwizeng".?OnPower@CWndObj@@MAGJIJ@Z
  ?OnPowerBroadcast@CWndObj@@MAGJIJ@Z="C:\Windows\SysWOW64\spwizeng".?OnPowerBroadcast@CWndObj@@MAGJIJ@Z
  ?OnQueryEndSession@CWndObj@@MAGJIJ@Z="C:\Windows\SysWOW64\spwizeng".?OnQueryEndSession@CWndObj@@MAGJIJ@Z
  ?OnQueryOpen@CWndObj@@MAGJIJ@Z="C:\Windows\SysWOW64\spwizeng".?OnQueryOpen@CWndObj@@MAGJIJ@Z
  ?OnQuit@CWndObj@@MAGJIJ@Z="C:\Windows\SysWOW64\spwizeng".?OnQuit@CWndObj@@MAGJIJ@Z
  ?OnRButtonDblClk@CWndObj@@MAGJIJ@Z="C:\Windows\SysWOW64\spwizeng".?OnRButtonDblClk@CWndObj@@MAGJIJ@Z
  ?OnRButtonDown@CWndObj@@MAGJIJ@Z="C:\Windows\SysWOW64\spwizeng".?OnRButtonDown@CWndObj@@MAGJIJ@Z
  ?OnRButtonUp@CWndObj@@MAGJIJ@Z="C:\Windows\SysWOW64\spwizeng".?OnRButtonUp@CWndObj@@MAGJIJ@Z
  ?OnRegistered@AppWindow@@MAGJIIJ@Z="C:\Windows\SysWOW64\spwizeng".?OnRegistered@AppWindow@@MAGJIIJ@Z
  ?OnRegistered@CWndObj@@MAGJIIJ@Z="C:\Windows\SysWOW64\spwizeng".?OnRegistered@CWndObj@@MAGJIIJ@Z
  ?OnRegistered@ScrWindow@@MAGJIIJ@Z="C:\Windows\SysWOW64\spwizeng".?OnRegistered@ScrWindow@@MAGJIIJ@Z
  ?OnRenderAllFormats@CWndObj@@MAGJIJ@Z="C:\Windows\SysWOW64\spwizeng".?OnRenderAllFormats@CWndObj@@MAGJIJ@Z
  ?OnRenderFormat@CWndObj@@MAGJIJ@Z="C:\Windows\SysWOW64\spwizeng".?OnRenderFormat@CWndObj@@MAGJIJ@Z
  ?OnResourceChanged@LanguageSelectionDialogBase@@UAEXAAH@Z="C:\Windows\SysWOW64\spwizeng".?OnResourceChanged@LanguageSelectionDialogBase@@UAEXAAH@Z
  ?OnResourceChanged@WizardHandler@@UAEXAAH@Z="C:\Windows\SysWOW64\spwizeng".?OnResourceChanged@WizardHandler@@UAEXAAH@Z
  ?OnResourceChanged@WizardRoot@@UAEXXZ="C:\Windows\SysWOW64\spwizeng".?OnResourceChanged@WizardRoot@@UAEXXZ
  ?OnSetBitmap@AppWindow@@MAGJIIJ@Z="C:\Windows\SysWOW64\spwizeng".?OnSetBitmap@AppWindow@@MAGJIIJ@Z
  ?OnSetBitmap@CGenericNavWindow@@QAEJIIJAAH@Z="C:\Windows\SysWOW64\spwizeng".?OnSetBitmap@CGenericNavWindow@@QAEJIIJAAH@Z
  ?OnSetButtons@AppWindow@@MAGJIIJ@Z="C:\Windows\SysWOW64\spwizeng".?OnSetButtons@AppWindow@@MAGJIIJ@Z
  ?OnSetButtons@CGenericNavWindow@@QAEJIIJAAH@Z="C:\Windows\SysWOW64\spwizeng".?OnSetButtons@CGenericNavWindow@@QAEJIIJAAH@Z
  ?OnSetCaption@AppWindow@@MAGJIIJ@Z="C:\Windows\SysWOW64\spwizeng".?OnSetCaption@AppWindow@@MAGJIIJ@Z
  ?OnSetCaption@CGenericNavWindow@@QAEJIIJAAH@Z="C:\Windows\SysWOW64\spwizeng".?OnSetCaption@CGenericNavWindow@@QAEJIIJAAH@Z
  ?OnSetCursor@AppWindow@@MAGJIJ@Z="C:\Windows\SysWOW64\spwizeng".?OnSetCursor@AppWindow@@MAGJIJ@Z
  ?OnSetCursor@CWndObj@@MAGJIJ@Z="C:\Windows\SysWOW64\spwizeng".?OnSetCursor@CWndObj@@MAGJIJ@Z
  ?OnSetCursor@ScrWindow@@MAGJIJ@Z="C:\Windows\SysWOW64\spwizeng".?OnSetCursor@ScrWindow@@MAGJIJ@Z
  ?OnSetFocus@CWndObj@@MAGJIJ@Z="C:\Windows\SysWOW64\spwizeng".?OnSetFocus@CWndObj@@MAGJIJ@Z
  ?OnSetRedraw@CWndObj@@MAGJIJ@Z="C:\Windows\SysWOW64\spwizeng".?OnSetRedraw@CWndObj@@MAGJIJ@Z
  ?OnSetText@CWndObj@@MAGJIJ@Z="C:\Windows\SysWOW64\spwizeng".?OnSetText@CWndObj@@MAGJIJ@Z
  ?OnSettingChange@CWndObj@@MAGJIJ@Z="C:\Windows\SysWOW64\spwizeng".?OnSettingChange@CWndObj@@MAGJIJ@Z
  ?OnShowWindow@CWndObj@@MAGJIJ@Z="C:\Windows\SysWOW64\spwizeng".?OnShowWindow@CWndObj@@MAGJIJ@Z
  ?OnSize@CWndObj@@MAGJIJ@Z="C:\Windows\SysWOW64\spwizeng".?OnSize@CWndObj@@MAGJIJ@Z
  ?OnSizeClipboard@CWndObj@@MAGJIJ@Z="C:\Windows\SysWOW64\spwizeng".?OnSizeClipboard@CWndObj@@MAGJIJ@Z
  ?OnSizing@CWndObj@@MAGJIJ@Z="C:\Windows\SysWOW64\spwizeng".?OnSizing@CWndObj@@MAGJIJ@Z
  ?OnSysChar@CWndObj@@MAGJIJ@Z="C:\Windows\SysWOW64\spwizeng".?OnSysChar@CWndObj@@MAGJIJ@Z
  ?OnSysColorChange@CWndObj@@MAGJIJ@Z="C:\Windows\SysWOW64\spwizeng".?OnSysColorChange@CWndObj@@MAGJIJ@Z
  ?OnSysCommand@CWndObj@@MAGJIJ@Z="C:\Windows\SysWOW64\spwizeng".?OnSysCommand@CWndObj@@MAGJIJ@Z
  ?OnTimer@CWndObj@@MAGJIJ@Z="C:\Windows\SysWOW64\spwizeng".?OnTimer@CWndObj@@MAGJIJ@Z
  ?OnUser@AppWindow@@MAGJIIJ@Z="C:\Windows\SysWOW64\spwizeng".?OnUser@AppWindow@@MAGJIIJ@Z
  ?OnUser@CWndObj@@MAGJIIJ@Z="C:\Windows\SysWOW64\spwizeng".?OnUser@CWndObj@@MAGJIIJ@Z
  ?OnUser@ScrWindow@@MAGJIIJ@Z="C:\Windows\SysWOW64\spwizeng".?OnUser@ScrWindow@@MAGJIIJ@Z
  ?OnVScroll@CWndObj@@MAGJIJ@Z="C:\Windows\SysWOW64\spwizeng".?OnVScroll@CWndObj@@MAGJIJ@Z
  ?OnVScrollClipboard@CWndObj@@MAGJIJ@Z="C:\Windows\SysWOW64\spwizeng".?OnVScrollClipboard@CWndObj@@MAGJIJ@Z
  ?OnWindowPosChanged@CWndObj@@MAGJIJ@Z="C:\Windows\SysWOW64\spwizeng".?OnWindowPosChanged@CWndObj@@MAGJIJ@Z
  ?OnWindowPosChanging@CWndObj@@MAGJIJ@Z="C:\Windows\SysWOW64\spwizeng".?OnWindowPosChanging@CWndObj@@MAGJIJ@Z
  ?OnWmxClose@AppWindow@@MAGJIIJ@Z="C:\Windows\SysWOW64\spwizeng".?OnWmxClose@AppWindow@@MAGJIIJ@Z
  ?OnWmxClose@ScrWindow@@MAGJIIJ@Z="C:\Windows\SysWOW64\spwizeng".?OnWmxClose@ScrWindow@@MAGJIIJ@Z
  ?PageData@WizardHandler@@QAEPAVWizardPage@@XZ="C:\Windows\SysWOW64\spwizeng".?PageData@WizardHandler@@QAEPAVWizardPage@@XZ
  ?PageData@WizardRoot@@QAEAAPAVWizardPage@@XZ="C:\Windows\SysWOW64\spwizeng".?PageData@WizardRoot@@QAEAAPAVWizardPage@@XZ
  ?Pop@NavigationStack@@QAGPAVWizardNode@@XZ="C:\Windows\SysWOW64\spwizeng".?Pop@NavigationStack@@QAGPAVWizardNode@@XZ
  ?PopulateKeyboardList@LanguageSelectionDialogBase@@AAEIXZ="C:\Windows\SysWOW64\spwizeng".?PopulateKeyboardList@LanguageSelectionDialogBase@@AAEIXZ
  ?PopulateLanguageList@LanguageSelectionDialogBase@@AAEIXZ="C:\Windows\SysWOW64\spwizeng".?PopulateLanguageList@LanguageSelectionDialogBase@@AAEIXZ
  ?PopulateLayeredDriverList@LanguageSelectionDialogBase@@AAEIXZ="C:\Windows\SysWOW64\spwizeng".?PopulateLayeredDriverList@LanguageSelectionDialogBase@@AAEIXZ
  ?PopulateLocaleList@LanguageSelectionDialogBase@@AAEHXZ="C:\Windows\SysWOW64\spwizeng".?PopulateLocaleList@LanguageSelectionDialogBase@@AAEHXZ
  ?Post@CWndObj@@UAGHIIJ@Z="C:\Windows\SysWOW64\spwizeng".?Post@CWndObj@@UAGHIIJ@Z
  ?Preallocate@?$CSimpleStringT@G$0A@@ATL@@QAEXH@Z="C:\Windows\SysWOW64\spwizeng".?Preallocate@?$CSimpleStringT@G$0A@@ATL@@QAEXH@Z
  ?PrepareWrite2@?$CSimpleStringT@G$0A@@ATL@@AAEXH@Z="C:\Windows\SysWOW64\spwizeng".?PrepareWrite2@?$CSimpleStringT@G$0A@@ATL@@AAEXH@Z
  ?PrepareWrite@?$CSimpleStringT@G$0A@@ATL@@AAEPAGH@Z="C:\Windows\SysWOW64\spwizeng".?PrepareWrite@?$CSimpleStringT@G$0A@@ATL@@AAEPAGH@Z
  ?ProcessLanguageSelection@LanguageSelectionDialogBase@@UAEHAAH@Z="C:\Windows\SysWOW64\spwizeng".?ProcessLanguageSelection@LanguageSelectionDialogBase@@UAEHAAH@Z
  ?ProcessSelectedLanguage@LanguageNeutralSelectionDialogBase@@AAEXXZ="C:\Windows\SysWOW64\spwizeng".?ProcessSelectedLanguage@LanguageNeutralSelectionDialogBase@@AAEXXZ
  ?ProcessWindowMessage@CAttachDataDlg@@UAEHPAUHWND__@@IIJAAJK@Z="C:\Windows\SysWOW64\spwizeng".?ProcessWindowMessage@CAttachDataDlg@@UAEHPAUHWND__@@IIJAAJK@Z
  ?ProcessWindowMessage@CGenericNavWindow@@UAEHPAUHWND__@@IIJAAJK@Z="C:\Windows\SysWOW64\spwizeng".?ProcessWindowMessage@CGenericNavWindow@@UAEHPAUHWND__@@IIJAAJK@Z
  ?ProcessWindowMessage@LanguageNeutralSelectionDialogBase@@UAEHPAUHWND__@@IIJAAJK@Z="C:\Windows\SysWOW64\spwizeng".?ProcessWindowMessage@LanguageNeutralSelectionDialogBase@@UAEHPAUHWND__@@IIJAAJK@Z
  ?ProcessWindowMessage@LanguageSelectionDialogBase@@UAEHPAUHWND__@@IIJAAJK@Z="C:\Windows\SysWOW64\spwizeng".?ProcessWindowMessage@LanguageSelectionDialogBase@@UAEHPAUHWND__@@IIJAAJK@Z
  ?ProcessWindowMessage@SimpleDialogBase@@UAEHPAUHWND__@@IIJAAJK@Z="C:\Windows\SysWOW64\spwizeng".?ProcessWindowMessage@SimpleDialogBase@@UAEHPAUHWND__@@IIJAAJK@Z
  ?ProcessWindowMessage@WizardDialogPost@@UAEHPAUHWND__@@IIJAAJK@Z="C:\Windows\SysWOW64\spwizeng".?ProcessWindowMessage@WizardDialogPost@@UAEHPAUHWND__@@IIJAAJK@Z
  ?ProcessWindowMessage@WizardDialogPre@@UAEHPAUHWND__@@IIJAAJK@Z="C:\Windows\SysWOW64\spwizeng".?ProcessWindowMessage@WizardDialogPre@@UAEHPAUHWND__@@IIJAAJK@Z
  ?PseudoToScreenCoordinate@ProtoPageDimensions@@QAEXAAH0@Z="C:\Windows\SysWOW64\spwizeng".?PseudoToScreenCoordinate@ProtoPageDimensions@@QAEXAAH0@Z
  ?Pulse@CAnimation@@QAEXXZ="C:\Windows\SysWOW64\spwizeng".?Pulse@CAnimation@@QAEXXZ
  ?PumpMessage@WizardUI@@AAEXUtagMSG@@@Z="C:\Windows\SysWOW64\spwizeng".?PumpMessage@WizardUI@@AAEXUtagMSG@@@Z
  ?Push@NavigationStack@@QAGHPAVWizardNode@@@Z="C:\Windows\SysWOW64\spwizeng".?Push@NavigationStack@@QAGHPAVWizardNode@@@Z
  ?QueryInterface@CWndObj@@UAGJABU_GUID@@PAPAX@Z="C:\Windows\SysWOW64\spwizeng".?QueryInterface@CWndObj@@UAGJABU_GUID@@PAPAX@Z
  ?ReadSelectedKeyboardType@LanguageSelectionDialogBase@@AAEXXZ="C:\Windows\SysWOW64\spwizeng".?ReadSelectedKeyboardType@LanguageSelectionDialogBase@@AAEXXZ
  ?ReadSelectedLanguage@LanguageSelectionDialogBase@@AAEXXZ="C:\Windows\SysWOW64\spwizeng".?ReadSelectedLanguage@LanguageSelectionDialogBase@@AAEXXZ
  ?ReadSelectedLayeredDriver@LanguageSelectionDialogBase@@AAEXXZ="C:\Windows\SysWOW64\spwizeng".?ReadSelectedLayeredDriver@LanguageSelectionDialogBase@@AAEXXZ
  ?ReadSelectedLocale@LanguageSelectionDialogBase@@AAEXXZ="C:\Windows\SysWOW64\spwizeng".?ReadSelectedLocale@LanguageSelectionDialogBase@@AAEXXZ
  ?Reallocate@?$CSimpleStringT@G$0A@@ATL@@AAEXH@Z="C:\Windows\SysWOW64\spwizeng".?Reallocate@?$CSimpleStringT@G$0A@@ATL@@AAEXH@Z
  ?RectDest@CGenericNavWindow@@QAEAAUtagRECT@@XZ="C:\Windows\SysWOW64\spwizeng".?RectDest@CGenericNavWindow@@QAEAAUtagRECT@@XZ
  ?Refresh@CDrawItem@@QAEHXZ="C:\Windows\SysWOW64\spwizeng".?Refresh@CDrawItem@@QAEHXZ
  ?RegisterObserver@CResourceModule@@QAEHPAUIResourceModuleEvent@@@Z="C:\Windows\SysWOW64\spwizeng".?RegisterObserver@CResourceModule@@QAEHPAUIResourceModuleEvent@@@Z
  ?ReinstantiatePages@PageContainer@@QAGXXZ="C:\Windows\SysWOW64\spwizeng".?ReinstantiatePages@PageContainer@@QAGXXZ
  ?Release@CWndObj@@UAGKXZ="C:\Windows\SysWOW64\spwizeng".?Release@CWndObj@@UAGKXZ
  ?ReleaseBuffer@?$CSimpleStringT@G$0A@@ATL@@QAEXH@Z="C:\Windows\SysWOW64\spwizeng".?ReleaseBuffer@?$CSimpleStringT@G$0A@@ATL@@QAEXH@Z
  ?ReleaseBufferSetLength@?$CSimpleStringT@G$0A@@ATL@@QAEXH@Z="C:\Windows\SysWOW64\spwizeng".?ReleaseBufferSetLength@?$CSimpleStringT@G$0A@@ATL@@QAEXH@Z
  ?Reload@WizardRoot@@QAGXXZ="C:\Windows\SysWOW64\spwizeng".?Reload@WizardRoot@@QAGXXZ
  ?ReloadAllStandardButtons@WizardRoot@@QAGXXZ="C:\Windows\SysWOW64\spwizeng".?ReloadAllStandardButtons@WizardRoot@@QAGXXZ
  ?ReloadCaptions@CCustomButtonEx@@QAEXPAUHINSTANCE__@@@Z="C:\Windows\SysWOW64\spwizeng".?ReloadCaptions@CCustomButtonEx@@QAEXPAUHINSTANCE__@@@Z
  ?Remove@?$CSimpleArray@PAGV?$CSimpleArrayEqualHelper@PAG@ATL@@@ATL@@QAEHABQAG@Z="C:\Windows\SysWOW64\spwizeng".?Remove@?$CSimpleArray@PAGV?$CSimpleArrayEqualHelper@PAG@ATL@@@ATL@@QAEHABQAG@Z
  ?Remove@?$CSimpleArray@PAUIResourceModuleEvent@@V?$CSimpleArrayEqualHelper@PAUIResourceModuleEvent@@@ATL@@@ATL@@QAEHABQAUIResourceModuleEvent@@@Z="C:\Windows\SysWOW64\spwizeng".?Remove@?$CSimpleArray@PAUIResourceModuleEvent@@V?$CSimpleArrayEqualHelper@PAUIResourceModuleEvent@@@ATL@@@ATL@@QAEHABQAUIResourceModuleEvent@@@Z
  ?Remove@?$CSimpleArray@PAUKEYBOARD@@V?$CSimpleArrayEqualHelper@PAUKEYBOARD@@@ATL@@@ATL@@QAEHABQAUKEYBOARD@@@Z="C:\Windows\SysWOW64\spwizeng".?Remove@?$CSimpleArray@PAUKEYBOARD@@V?$CSimpleArrayEqualHelper@PAUKEYBOARD@@@ATL@@@ATL@@QAEHABQAUKEYBOARD@@@Z
  ?Remove@?$CSimpleArray@PAULANGUAGE@@V?$CSimpleArrayEqualHelper@PAULANGUAGE@@@ATL@@@ATL@@QAEHABQAULANGUAGE@@@Z="C:\Windows\SysWOW64\spwizeng".?Remove@?$CSimpleArray@PAULANGUAGE@@V?$CSimpleArrayEqualHelper@PAULANGUAGE@@@ATL@@@ATL@@QAEHABQAULANGUAGE@@@Z
  ?Remove@?$CSimpleArray@PAULOCALE@@V?$CSimpleArrayEqualHelper@PAULOCALE@@@ATL@@@ATL@@QAEHABQAULOCALE@@@Z="C:\Windows\SysWOW64\spwizeng".?Remove@?$CSimpleArray@PAULOCALE@@V?$CSimpleArrayEqualHelper@PAULOCALE@@@ATL@@@ATL@@QAEHABQAULOCALE@@@Z
  ?Remove@?$CStringT@GV?$StrTraitATL@GV?$ChTraitsCRT@G@ATL@@@ATL@@@ATL@@QAEHG@Z="C:\Windows\SysWOW64\spwizeng".?Remove@?$CStringT@GV?$StrTraitATL@GV?$ChTraitsCRT@G@ATL@@@ATL@@@ATL@@QAEHG@Z
  ?RemoveAll@?$CSimpleArray@PAGV?$CSimpleArrayEqualHelper@PAG@ATL@@@ATL@@QAEXXZ="C:\Windows\SysWOW64\spwizeng".?RemoveAll@?$CSimpleArray@PAGV?$CSimpleArrayEqualHelper@PAG@ATL@@@ATL@@QAEXXZ
  ?RemoveAll@?$CSimpleArray@PAUIResourceModuleEvent@@V?$CSimpleArrayEqualHelper@PAUIResourceModuleEvent@@@ATL@@@ATL@@QAEXXZ="C:\Windows\SysWOW64\spwizeng".?RemoveAll@?$CSimpleArray@PAUIResourceModuleEvent@@V?$CSimpleArrayEqualHelper@PAUIResourceModuleEvent@@@ATL@@@ATL@@QAEXXZ
  ?RemoveAll@?$CSimpleArray@PAUKEYBOARD@@V?$CSimpleArrayEqualHelper@PAUKEYBOARD@@@ATL@@@ATL@@QAEXXZ="C:\Windows\SysWOW64\spwizeng".?RemoveAll@?$CSimpleArray@PAUKEYBOARD@@V?$CSimpleArrayEqualHelper@PAUKEYBOARD@@@ATL@@@ATL@@QAEXXZ
  ?RemoveAll@?$CSimpleArray@PAULANGUAGE@@V?$CSimpleArrayEqualHelper@PAULANGUAGE@@@ATL@@@ATL@@QAEXXZ="C:\Windows\SysWOW64\spwizeng".?RemoveAll@?$CSimpleArray@PAULANGUAGE@@V?$CSimpleArrayEqualHelper@PAULANGUAGE@@@ATL@@@ATL@@QAEXXZ
  ?RemoveAll@?$CSimpleArray@PAULOCALE@@V?$CSimpleArrayEqualHelper@PAULOCALE@@@ATL@@@ATL@@QAEXXZ="C:\Windows\SysWOW64\spwizeng".?RemoveAll@?$CSimpleArray@PAULOCALE@@V?$CSimpleArrayEqualHelper@PAULOCALE@@@ATL@@@ATL@@QAEXXZ
  ?RemoveAt@?$CSimpleArray@PAGV?$CSimpleArrayEqualHelper@PAG@ATL@@@ATL@@QAEHH@Z="C:\Windows\SysWOW64\spwizeng".?RemoveAt@?$CSimpleArray@PAGV?$CSimpleArrayEqualHelper@PAG@ATL@@@ATL@@QAEHH@Z
  ?RemoveAt@?$CSimpleArray@PAUIResourceModuleEvent@@V?$CSimpleArrayEqualHelper@PAUIResourceModuleEvent@@@ATL@@@ATL@@QAEHH@Z="C:\Windows\SysWOW64\spwizeng".?RemoveAt@?$CSimpleArray@PAUIResourceModuleEvent@@V?$CSimpleArrayEqualHelper@PAUIResourceModuleEvent@@@ATL@@@ATL@@QAEHH@Z
  ?RemoveAt@?$CSimpleArray@PAUKEYBOARD@@V?$CSimpleArrayEqualHelper@PAUKEYBOARD@@@ATL@@@ATL@@QAEHH@Z="C:\Windows\SysWOW64\spwizeng".?RemoveAt@?$CSimpleArray@PAUKEYBOARD@@V?$CSimpleArrayEqualHelper@PAUKEYBOARD@@@ATL@@@ATL@@QAEHH@Z
  ?RemoveAt@?$CSimpleArray@PAULANGUAGE@@V?$CSimpleArrayEqualHelper@PAULANGUAGE@@@ATL@@@ATL@@QAEHH@Z="C:\Windows\SysWOW64\spwizeng".?RemoveAt@?$CSimpleArray@PAULANGUAGE@@V?$CSimpleArrayEqualHelper@PAULANGUAGE@@@ATL@@@ATL@@QAEHH@Z
  ?RemoveAt@?$CSimpleArray@PAULOCALE@@V?$CSimpleArrayEqualHelper@PAULOCALE@@@ATL@@@ATL@@QAEHH@Z="C:\Windows\SysWOW64\spwizeng".?RemoveAt@?$CSimpleArray@PAULOCALE@@V?$CSimpleArrayEqualHelper@PAULOCALE@@@ATL@@@ATL@@QAEHH@Z
  ?RemoveChar@MyString@@QAEHH@Z="C:\Windows\SysWOW64\spwizeng".?RemoveChar@MyString@@QAEHH@Z
  ?RemoveFonts@WizardUI@@AAEXXZ="C:\Windows\SysWOW64\spwizeng".?RemoveFonts@WizardUI@@AAEXXZ
  ?RemoveString@MyString@@QAEHHH@Z="C:\Windows\SysWOW64\spwizeng".?RemoveString@MyString@@QAEHHH@Z
  ?RemoveString@PIDStringView@@QAEHHHH@Z="C:\Windows\SysWOW64\spwizeng".?RemoveString@PIDStringView@@QAEHHHH@Z
  ?Replace@?$CStringT@GV?$StrTraitATL@GV?$ChTraitsCRT@G@ATL@@@ATL@@@ATL@@QAEHGG@Z="C:\Windows\SysWOW64\spwizeng".?Replace@?$CStringT@GV?$StrTraitATL@GV?$ChTraitsCRT@G@ATL@@@ATL@@@ATL@@QAEHGG@Z
  ?Replace@?$CStringT@GV?$StrTraitATL@GV?$ChTraitsCRT@G@ATL@@@ATL@@@ATL@@QAEHPBG0@Z="C:\Windows\SysWOW64\spwizeng".?Replace@?$CStringT@GV?$StrTraitATL@GV?$ChTraitsCRT@G@ATL@@@ATL@@@ATL@@QAEHPBG0@Z
  ?ReplaceString@PIDStringView@@QAEHHHPBG@Z="C:\Windows\SysWOW64\spwizeng".?ReplaceString@PIDStringView@@QAEHHHPBG@Z
  ?RepositionAllWindows@WizardUI@@QAEXIJ@Z="C:\Windows\SysWOW64\spwizeng".?RepositionAllWindows@WizardUI@@QAEXIJ@Z
  ?RepositionAppWindow@WizardUI@@AAEXXZ="C:\Windows\SysWOW64\spwizeng".?RepositionAppWindow@WizardUI@@AAEXXZ
  ?RepositionNavWindow@WizardUI@@AAEXIJ@Z="C:\Windows\SysWOW64\spwizeng".?RepositionNavWindow@WizardUI@@AAEXIJ@Z
  ?RepositionProgressWindow@WizardUI@@AAEXIJ@Z="C:\Windows\SysWOW64\spwizeng".?RepositionProgressWindow@WizardUI@@AAEXIJ@Z
  ?RequestCancel@Win32Navigator@@UAGXXZ="C:\Windows\SysWOW64\spwizeng".?RequestCancel@Win32Navigator@@UAGXXZ
  ?RequestFinish@Win32Navigator@@UAGXXZ="C:\Windows\SysWOW64\spwizeng".?RequestFinish@Win32Navigator@@UAGXXZ
  ?RequestGoBack@Win32Navigator@@UAGXXZ="C:\Windows\SysWOW64\spwizeng".?RequestGoBack@Win32Navigator@@UAGXXZ
  ?RequestGoNext@Win32Navigator@@UAGXH@Z="C:\Windows\SysWOW64\spwizeng".?RequestGoNext@Win32Navigator@@UAGXH@Z
  ?RequestGoNext@Win32Navigator@@UAGXXZ="C:\Windows\SysWOW64\spwizeng".?RequestGoNext@Win32Navigator@@UAGXXZ
  ?Reset@PageContainer@@QAGHH@Z="C:\Windows\SysWOW64\spwizeng".?Reset@PageContainer@@QAGHH@Z
  ?Reset@WizardEx@@UAGHXZ="C:\Windows\SysWOW64\spwizeng".?Reset@WizardEx@@UAGHXZ
  ?Reset@WizardPage@@UAGHXZ="C:\Windows\SysWOW64\spwizeng".?Reset@WizardPage@@UAGHXZ
  ?ResetLanguage@AppWindow@@QAGHXZ="C:\Windows\SysWOW64\spwizeng".?ResetLanguage@AppWindow@@QAGHXZ
  ?ResetLanguage@CResourceModule@@QAEHXZ="C:\Windows\SysWOW64\spwizeng".?ResetLanguage@CResourceModule@@QAEHXZ
  ?ResetLanguage@CResourceModuleFactory@@QAEHXZ="C:\Windows\SysWOW64\spwizeng".?ResetLanguage@CResourceModuleFactory@@QAEHXZ
  ?ResetLanguage@WizardUI@@QAEHPBG@Z="C:\Windows\SysWOW64\spwizeng".?ResetLanguage@WizardUI@@QAEHPBG@Z
  ?ResetWizUI@WizardUI@@CGXXZ="C:\Windows\SysWOW64\spwizeng".?ResetWizUI@WizardUI@@CGXXZ
  ?Resize@CDIB@@QAEHJJ@Z="C:\Windows\SysWOW64\spwizeng".?Resize@CDIB@@QAEHJJ@Z
  ?ReverseFind@?$CStringT@GV?$StrTraitATL@GV?$ChTraitsCRT@G@ATL@@@ATL@@@ATL@@QBEHG@Z="C:\Windows\SysWOW64\spwizeng".?ReverseFind@?$CStringT@GV?$StrTraitATL@GV?$ChTraitsCRT@G@ATL@@@ATL@@@ATL@@QBEHG@Z
  ?Right@?$CStringT@GV?$StrTraitATL@GV?$ChTraitsCRT@G@ATL@@@ATL@@@ATL@@QBE?AV12@H@Z="C:\Windows\SysWOW64\spwizeng".?Right@?$CStringT@GV?$StrTraitATL@GV?$ChTraitsCRT@G@ATL@@@ATL@@@ATL@@QBE?AV12@H@Z
  ?ScreenToPseudoCoordinate@ProtoPageDimensions@@QAEXAAH0@Z="C:\Windows\SysWOW64\spwizeng".?ScreenToPseudoCoordinate@ProtoPageDimensions@@QAEXAAH0@Z
  ?Send@CWndObj@@UAGHIIJ@Z="C:\Windows\SysWOW64\spwizeng".?Send@CWndObj@@UAGHIIJ@Z
  ?SetActive@SimpleDialogBase@@UAEXAAH@Z="C:\Windows\SysWOW64\spwizeng".?SetActive@SimpleDialogBase@@UAEXAAH@Z
  ?SetActive@WizardDialogPost@@UAEXAAH@Z="C:\Windows\SysWOW64\spwizeng".?SetActive@WizardDialogPost@@UAEXAAH@Z
  ?SetActive@WizardDialogPre@@UAEXAAH@Z="C:\Windows\SysWOW64\spwizeng".?SetActive@WizardDialogPre@@UAEXAAH@Z
  ?SetActive@WizardHandler@@UAEXAAH@Z="C:\Windows\SysWOW64\spwizeng".?SetActive@WizardHandler@@UAEXAAH@Z
  ?SetActive@WizardRoot@@UAEXXZ="C:\Windows\SysWOW64\spwizeng".?SetActive@WizardRoot@@UAEXXZ
  ?SetActiveAppWnd@AppWindow@@QAGXPAUHWND__@@@Z="C:\Windows\SysWOW64\spwizeng".?SetActiveAppWnd@AppWindow@@QAGXPAUHWND__@@@Z
  ?SetAllowMirror@CAnimation@@QAEXH@Z="C:\Windows\SysWOW64\spwizeng".?SetAllowMirror@CAnimation@@QAEXH@Z
  ?SetAllowMirror@CAnimationControl@@QAGXH@Z="C:\Windows\SysWOW64\spwizeng".?SetAllowMirror@CAnimationControl@@QAGXH@Z
  ?SetAllowMirror@CDIB@@QAEXH@Z="C:\Windows\SysWOW64\spwizeng".?SetAllowMirror@CDIB@@QAEXH@Z
  ?SetAppHWnd@WizardUI@@QAEXPAUHWND__@@@Z="C:\Windows\SysWOW64\spwizeng".?SetAppHWnd@WizardUI@@QAEXPAUHWND__@@@Z
  ?SetAppWindow@WizardUI@@QAEXPAVAppWindow@@@Z="C:\Windows\SysWOW64\spwizeng".?SetAppWindow@WizardUI@@QAEXPAVAppWindow@@@Z
  ?SetAt@?$CSimpleStringT@G$0A@@ATL@@QAEXHG@Z="C:\Windows\SysWOW64\spwizeng".?SetAt@?$CSimpleStringT@G$0A@@ATL@@QAEXHG@Z
  ?SetAtIndex@?$CSimpleArray@PAGV?$CSimpleArrayEqualHelper@PAG@ATL@@@ATL@@QAEHHABQAG@Z="C:\Windows\SysWOW64\spwizeng".?SetAtIndex@?$CSimpleArray@PAGV?$CSimpleArrayEqualHelper@PAG@ATL@@@ATL@@QAEHHABQAG@Z
  ?SetAtIndex@?$CSimpleArray@PAUIResourceModuleEvent@@V?$CSimpleArrayEqualHelper@PAUIResourceModuleEvent@@@ATL@@@ATL@@QAEHHABQAUIResourceModuleEvent@@@Z="C:\Windows\SysWOW64\spwizeng".?SetAtIndex@?$CSimpleArray@PAUIResourceModuleEvent@@V?$CSimpleArrayEqualHelper@PAUIResourceModuleEvent@@@ATL@@@ATL@@QAEHHABQAUIResourceModuleEvent@@@Z
  ?SetAtIndex@?$CSimpleArray@PAUKEYBOARD@@V?$CSimpleArrayEqualHelper@PAUKEYBOARD@@@ATL@@@ATL@@QAEHHABQAUKEYBOARD@@@Z="C:\Windows\SysWOW64\spwizeng".?SetAtIndex@?$CSimpleArray@PAUKEYBOARD@@V?$CSimpleArrayEqualHelper@PAUKEYBOARD@@@ATL@@@ATL@@QAEHHABQAUKEYBOARD@@@Z
  ?SetAtIndex@?$CSimpleArray@PAULANGUAGE@@V?$CSimpleArrayEqualHelper@PAULANGUAGE@@@ATL@@@ATL@@QAEHHABQAULANGUAGE@@@Z="C:\Windows\SysWOW64\spwizeng".?SetAtIndex@?$CSimpleArray@PAULANGUAGE@@V?$CSimpleArrayEqualHelper@PAULANGUAGE@@@ATL@@@ATL@@QAEHHABQAULANGUAGE@@@Z
  ?SetAtIndex@?$CSimpleArray@PAULOCALE@@V?$CSimpleArrayEqualHelper@PAULOCALE@@@ATL@@@ATL@@QAEHHABQAULOCALE@@@Z="C:\Windows\SysWOW64\spwizeng".?SetAtIndex@?$CSimpleArray@PAULOCALE@@V?$CSimpleArrayEqualHelper@PAULOCALE@@@ATL@@@ATL@@QAEHHABQAULOCALE@@@Z
  ?SetBackGroundColor@CRichEditControl@@QAGXK@Z="C:\Windows\SysWOW64\spwizeng".?SetBackGroundColor@CRichEditControl@@QAGXK@Z
  ?SetBackgroundHDC@CCustomButtonEx@@QAEXPAUHDC__@@@Z="C:\Windows\SysWOW64\spwizeng".?SetBackgroundHDC@CCustomButtonEx@@QAEXPAUHDC__@@@Z
  ?SetCancelNoShow@WizardUI@@QAEXH@Z="C:\Windows\SysWOW64\spwizeng".?SetCancelNoShow@WizardUI@@QAEXH@Z
  ?SetCanceled@WizardUI@@QAEXH@Z="C:\Windows\SysWOW64\spwizeng".?SetCanceled@WizardUI@@QAEXH@Z
  ?SetColor@CScreenText@@QAEHK@Z="C:\Windows\SysWOW64\spwizeng".?SetColor@CScreenText@@QAEHK@Z
  ?SetCurrentPage@PageContainer@@QAGXH@Z="C:\Windows\SysWOW64\spwizeng".?SetCurrentPage@PageContainer@@QAGXH@Z
  ?SetCursorState@CCursor@@QAEXI@Z="C:\Windows\SysWOW64\spwizeng".?SetCursorState@CCursor@@QAEXI@Z
  ?SetCursorStateForButton@CCursor@@QAEXI@Z="C:\Windows\SysWOW64\spwizeng".?SetCursorStateForButton@CCursor@@QAEXI@Z
  ?SetCursorWait@CCursor@@QAEXXZ="C:\Windows\SysWOW64\spwizeng".?SetCursorWait@CCursor@@QAEXXZ
  ?SetData@WizardPage@@QAGXPAX@Z="C:\Windows\SysWOW64\spwizeng".?SetData@WizardPage@@QAGXPAX@Z
  ?SetFirstPage@Win32Navigator@@UAGXPAVWizardPage@@@Z="C:\Windows\SysWOW64\spwizeng".?SetFirstPage@Win32Navigator@@UAGXPAVWizardPage@@@Z
  ?SetFont@CScreenText@@QAEHPAUHFONT__@@@Z="C:\Windows\SysWOW64\spwizeng".?SetFont@CScreenText@@QAEHPAUHFONT__@@@Z
  ?SetFontSize@PageContainer@@QAGXH@Z="C:\Windows\SysWOW64\spwizeng".?SetFontSize@PageContainer@@QAGXH@Z
  ?SetFontSize@WizardUI@@QAEXI@Z="C:\Windows\SysWOW64\spwizeng".?SetFontSize@WizardUI@@QAEXI@Z
  ?SetGraphic@CCustomGraphicEx@@QAGHPAVCDrawItem@@@Z="C:\Windows\SysWOW64\spwizeng".?SetGraphic@CCustomGraphicEx@@QAGHPAVCDrawItem@@@Z
  ?SetHWnd@WizardPage@@QAGXPAUHWND__@@@Z="C:\Windows\SysWOW64\spwizeng".?SetHWnd@WizardPage@@QAGXPAUHWND__@@@Z
  ?SetHdcDest@CDrawItem@@QAEXPAUHDC__@@@Z="C:\Windows\SysWOW64\spwizeng".?SetHdcDest@CDrawItem@@QAEXPAUHDC__@@@Z
  ?SetHwndDest@CDrawItem@@QAEXPAUHWND__@@@Z="C:\Windows\SysWOW64\spwizeng".?SetHwndDest@CDrawItem@@QAEXPAUHWND__@@@Z
  ?SetIndex@WizardNode@@QAGXI@Z="C:\Windows\SysWOW64\spwizeng".?SetIndex@WizardNode@@QAGXI@Z
  ?SetLanguageString@WizardUI@@AAEJPAPAGPAG@Z="C:\Windows\SysWOW64\spwizeng".?SetLanguageString@WizardUI@@AAEJPAPAGPAG@Z
  ?SetLength@?$CSimpleStringT@G$0A@@ATL@@AAEXH@Z="C:\Windows\SysWOW64\spwizeng".?SetLength@?$CSimpleStringT@G$0A@@ATL@@AAEXH@Z
  ?SetManager@?$CSimpleStringT@G$0A@@ATL@@QAEXPAUIAtlStringMgr@2@@Z="C:\Windows\SysWOW64\spwizeng".?SetManager@?$CSimpleStringT@G$0A@@ATL@@QAEXPAUIAtlStringMgr@2@@Z
  ?SetMaxCount@WizardEx@@QAGXI@Z="C:\Windows\SysWOW64\spwizeng".?SetMaxCount@WizardEx@@QAGXI@Z
  ?SetMdi@CWndObj@@UAGXPAUIWndObj@@@Z="C:\Windows\SysWOW64\spwizeng".?SetMdi@CWndObj@@UAGXPAUIWndObj@@@Z
  ?SetNavHWnd@WizardUI@@QAEXPAUHWND__@@@Z="C:\Windows\SysWOW64\spwizeng".?SetNavHWnd@WizardUI@@QAEXPAUHWND__@@@Z
  ?SetPageIndex@WizardNode@@QAGXI@Z="C:\Windows\SysWOW64\spwizeng".?SetPageIndex@WizardNode@@QAGXI@Z
  ?SetPageList@WizardEx@@QAGXPAPAVWizardNode@@@Z="C:\Windows\SysWOW64\spwizeng".?SetPageList@WizardEx@@QAGXPAPAVWizardNode@@@Z
  ?SetPageListItem@WizardEx@@QAGXHPAVWizardNode@@@Z="C:\Windows\SysWOW64\spwizeng".?SetPageListItem@WizardEx@@QAGXHPAVWizardNode@@@Z
  ?SetParent@WizardNode@@QAGXPAVWizardEx@@@Z="C:\Windows\SysWOW64\spwizeng".?SetParent@WizardNode@@QAGXPAVWizardEx@@@Z
  ?SetPosition@CDrawItem@@QAEXKK@Z="C:\Windows\SysWOW64\spwizeng".?SetPosition@CDrawItem@@QAEXKK@Z
  ?SetRichTextAnsi@CRichEditControl@@QAGXPBDPAK@Z="C:\Windows\SysWOW64\spwizeng".?SetRichTextAnsi@CRichEditControl@@QAGXPBDPAK@Z
  ?SetScrWindow@WizardUI@@QAEXPAVScrWindow@@@Z="C:\Windows\SysWOW64\spwizeng".?SetScrWindow@WizardUI@@QAEXPAVScrWindow@@@Z
  ?SetStrategy@WizardEx@@QAGXPAVWizardStrategy@@@Z="C:\Windows\SysWOW64\spwizeng".?SetStrategy@WizardEx@@QAGXPAVWizardStrategy@@@Z
  ?SetString@?$CSimpleStringT@G$0A@@ATL@@QAEXPBG@Z="C:\Windows\SysWOW64\spwizeng".?SetString@?$CSimpleStringT@G$0A@@ATL@@QAEXPBG@Z
  ?SetString@?$CSimpleStringT@G$0A@@ATL@@QAEXPBGH@Z="C:\Windows\SysWOW64\spwizeng".?SetString@?$CSimpleStringT@G$0A@@ATL@@QAEXPBGH@Z
  ?SetSysString@?$CStringT@GV?$StrTraitATL@GV?$ChTraitsCRT@G@ATL@@@ATL@@@ATL@@QBEPAGPAPAG@Z="C:\Windows\SysWOW64\spwizeng".?SetSysString@?$CStringT@GV?$StrTraitATL@GV?$ChTraitsCRT@G@ATL@@@ATL@@@ATL@@QBEPAGPAPAG@Z
  ?SetText@CCtlText@@QAGXPAUHWND__@@PAUHFONT__@@KPBG@Z="C:\Windows\SysWOW64\spwizeng".?SetText@CCtlText@@QAGXPAUHWND__@@PAUHFONT__@@KPBG@Z
  ?SetText@CRichEditControl@@QAGXPBG@Z="C:\Windows\SysWOW64\spwizeng".?SetText@CRichEditControl@@QAGXPBG@Z
  ?SetText@CScreenText@@QAEHPAUHWND__@@PBG@Z="C:\Windows\SysWOW64\spwizeng".?SetText@CScreenText@@QAEHPAUHWND__@@PBG@Z
  ?SetTextColor@CRichEditControl@@QAGXK@Z="C:\Windows\SysWOW64\spwizeng".?SetTextColor@CRichEditControl@@QAGXK@Z
  ?SetTextMode@CRichEditControl@@QAGXI@Z="C:\Windows\SysWOW64\spwizeng".?SetTextMode@CRichEditControl@@QAGXI@Z
  ?SetTextNoFormat@CRichEditControl@@QAGXPBG@Z="C:\Windows\SysWOW64\spwizeng".?SetTextNoFormat@CRichEditControl@@QAGXPBG@Z
  ?SetTextStyle@WizardRoot@@QAGHHMHHH@Z="C:\Windows\SysWOW64\spwizeng".?SetTextStyle@WizardRoot@@QAGHHMHHH@Z
  ?SetTransparentColor@CAnimation@@QAEXK@Z="C:\Windows\SysWOW64\spwizeng".?SetTransparentColor@CAnimation@@QAEXK@Z
  ?SetTransparentColor@CAnimationControl@@QAGXK@Z="C:\Windows\SysWOW64\spwizeng".?SetTransparentColor@CAnimationControl@@QAGXK@Z
  ?SetTransparentColor@CDIB@@QAEXK@Z="C:\Windows\SysWOW64\spwizeng".?SetTransparentColor@CDIB@@QAEXK@Z
  ?SetType@WizardNode@@QAGXI@Z="C:\Windows\SysWOW64\spwizeng".?SetType@WizardNode@@QAGXI@Z
  ?SetUserSelectedHideOOBELang@WizardUI@@QAEJPAG@Z="C:\Windows\SysWOW64\spwizeng".?SetUserSelectedHideOOBELang@WizardUI@@QAEJPAG@Z
  ?SetUserSelectedKeyboardType@WizardUI@@QAEJPAG@Z="C:\Windows\SysWOW64\spwizeng".?SetUserSelectedKeyboardType@WizardUI@@QAEJPAG@Z
  ?SetUserSelectedLDId@WizardUI@@QAEJPAG@Z="C:\Windows\SysWOW64\spwizeng".?SetUserSelectedLDId@WizardUI@@QAEJPAG@Z
  ?SetUserSelectedLocale@WizardUI@@QAEJPAG@Z="C:\Windows\SysWOW64\spwizeng".?SetUserSelectedLocale@WizardUI@@QAEJPAG@Z
  ?SetUserSelectedTargetLanguage@WizardUI@@QAEJPAG@Z="C:\Windows\SysWOW64\spwizeng".?SetUserSelectedTargetLanguage@WizardUI@@QAEJPAG@Z
  ?SetUserSelectedUILanguage@WizardUI@@QAEJPAG@Z="C:\Windows\SysWOW64\spwizeng".?SetUserSelectedUILanguage@WizardUI@@QAEJPAG@Z
  ?SetWizUI@WizardNode@@QAGXPAVWizardUI@@@Z="C:\Windows\SysWOW64\spwizeng".?SetWizUI@WizardNode@@QAGXPAVWizardUI@@@Z
  ?SetWizUI@WizardUI@@CGXPAV1@@Z="C:\Windows\SysWOW64\spwizeng".?SetWizUI@WizardUI@@CGXPAV1@@Z
  ?Show@CWndObj@@UAGXK@Z="C:\Windows\SysWOW64\spwizeng".?Show@CWndObj@@UAGXK@Z
  ?Show@CWndObj@@UAGXXZ="C:\Windows\SysWOW64\spwizeng".?Show@CWndObj@@UAGXXZ
  ?ShowError@LanguageSelectionDialogBase@@AAEHPAUHINSTANCE__@@K@Z="C:\Windows\SysWOW64\spwizeng".?ShowError@LanguageSelectionDialogBase@@AAEHPAUHINSTANCE__@@K@Z
  ?ShowLanguageNeutralSelectionUI@LanguageNeutralSelectionDialogBase@@UAEHXZ="C:\Windows\SysWOW64\spwizeng".?ShowLanguageNeutralSelectionUI@LanguageNeutralSelectionDialogBase@@UAEHXZ
  ?ShowLanguageSelectionUI@LanguageSelectionDialogBase@@UAEHXZ="C:\Windows\SysWOW64\spwizeng".?ShowLanguageSelectionUI@LanguageSelectionDialogBase@@UAEHXZ
  ?ShowReadMoreWnd@@YGHPAUHINSTANCE__@@PAUHWND__@@IPBGI@Z="C:\Windows\SysWOW64\spwizeng".?ShowReadMoreWnd@@YGHPAUHINSTANCE__@@PAUHWND__@@IPBGI@Z
  ?ShowReadMoreWnd@@YGXPAUHINSTANCE__@@PAUHWND__@@III@Z="C:\Windows\SysWOW64\spwizeng".?ShowReadMoreWnd@@YGXPAUHINSTANCE__@@PAUHWND__@@III@Z
  ?ShowScreenWindow@WizardUI@@QAEXH@Z="C:\Windows\SysWOW64\spwizeng".?ShowScreenWindow@WizardUI@@QAEXH@Z
  ?ShowUI@PageContainer@@QAGXPAUHWND__@@PAVWizardPage@@@Z="C:\Windows\SysWOW64\spwizeng".?ShowUI@PageContainer@@QAGXPAUHWND__@@PAVWizardPage@@@Z
  ?ShowWindow@PageContainer@@QAGXH@Z="C:\Windows\SysWOW64\spwizeng".?ShowWindow@PageContainer@@QAGXH@Z
  ?ShowWindows@WizardUI@@AAEXXZ="C:\Windows\SysWOW64\spwizeng".?ShowWindows@WizardUI@@AAEXXZ
  ?Size@CWndObj@@UAGXPAUtagSIZE@@@Z="C:\Windows\SysWOW64\spwizeng".?Size@CWndObj@@UAGXPAUtagSIZE@@@Z
  ?SleepMessageSafe@WizardUI@@QAEXK@Z="C:\Windows\SysWOW64\spwizeng".?SleepMessageSafe@WizardUI@@QAEXK@Z
  ?SpanExcluding@?$CStringT@GV?$StrTraitATL@GV?$ChTraitsCRT@G@ATL@@@ATL@@@ATL@@QBE?AV12@PBG@Z="C:\Windows\SysWOW64\spwizeng".?SpanExcluding@?$CStringT@GV?$StrTraitATL@GV?$ChTraitsCRT@G@ATL@@@ATL@@@ATL@@QBE?AV12@PBG@Z
  ?SpanIncluding@?$CStringT@GV?$StrTraitATL@GV?$ChTraitsCRT@G@ATL@@@ATL@@@ATL@@QBE?AV12@PBG@Z="C:\Windows\SysWOW64\spwizeng".?SpanIncluding@?$CStringT@GV?$StrTraitATL@GV?$ChTraitsCRT@G@ATL@@@ATL@@@ATL@@QBE?AV12@PBG@Z
  ?Stack@WizardUI@@QAEPAVNavigationStack@@XZ="C:\Windows\SysWOW64\spwizeng".?Stack@WizardUI@@QAEPAVNavigationStack@@XZ
  ?Start@CAnimation@@QAEHXZ="C:\Windows\SysWOW64\spwizeng".?Start@CAnimation@@QAEHXZ
  ?StartUI@WizardUI@@QAEHPBVProtoPageList@@@Z="C:\Windows\SysWOW64\spwizeng".?StartUI@WizardUI@@QAEHPBVProtoPageList@@@Z
  ?Stop@CAnimation@@QAEHXZ="C:\Windows\SysWOW64\spwizeng".?Stop@CAnimation@@QAEHXZ
  ?StorageWidthBytes@CDIB@@ABEKXZ="C:\Windows\SysWOW64\spwizeng".?StorageWidthBytes@CDIB@@ABEKXZ
  ?StringLength@?$CSimpleStringT@G$0A@@ATL@@SAHPBD@Z="C:\Windows\SysWOW64\spwizeng".?StringLength@?$CSimpleStringT@G$0A@@ATL@@SAHPBD@Z
  ?StringLength@?$CSimpleStringT@G$0A@@ATL@@SAHPBG@Z="C:\Windows\SysWOW64\spwizeng".?StringLength@?$CSimpleStringT@G$0A@@ATL@@SAHPBG@Z
  ?TearDown@PageContainer@@QAGXXZ="C:\Windows\SysWOW64\spwizeng".?TearDown@PageContainer@@QAGXXZ
  ?TestHighcontrast@CHighContrast@@QAGXH@Z="C:\Windows\SysWOW64\spwizeng".?TestHighcontrast@CHighContrast@@QAGXH@Z
  ?TextFitsInWindow@@YGJPAUHWND__@@V?$CStringT@GV?$StrTraitATL@GV?$ChTraitsCRT@G@ATL@@@ATL@@@ATL@@@Z="C:\Windows\SysWOW64\spwizeng".?TextFitsInWindow@@YGJPAUHWND__@@V?$CStringT@GV?$StrTraitATL@GV?$ChTraitsCRT@G@ATL@@@ATL@@@ATL@@@Z
  ?ThrowMemoryException@?$CSimpleStringT@G$0A@@ATL@@KAXXZ="C:\Windows\SysWOW64\spwizeng".?ThrowMemoryException@?$CSimpleStringT@G$0A@@ATL@@KAXXZ
  ?Tokenize@?$CStringT@GV?$StrTraitATL@GV?$ChTraitsCRT@G@ATL@@@ATL@@@ATL@@QBE?AV12@PBGAAH@Z="C:\Windows\SysWOW64\spwizeng".?Tokenize@?$CStringT@GV?$StrTraitATL@GV?$ChTraitsCRT@G@ATL@@@ATL@@@ATL@@QBE?AV12@PBGAAH@Z
  ?Trim@?$CStringT@GV?$StrTraitATL@GV?$ChTraitsCRT@G@ATL@@@ATL@@@ATL@@QAEAAV12@G@Z="C:\Windows\SysWOW64\spwizeng".?Trim@?$CStringT@GV?$StrTraitATL@GV?$ChTraitsCRT@G@ATL@@@ATL@@@ATL@@QAEAAV12@G@Z
  ?Trim@?$CStringT@GV?$StrTraitATL@GV?$ChTraitsCRT@G@ATL@@@ATL@@@ATL@@QAEAAV12@PBG@Z="C:\Windows\SysWOW64\spwizeng".?Trim@?$CStringT@GV?$StrTraitATL@GV?$ChTraitsCRT@G@ATL@@@ATL@@@ATL@@QAEAAV12@PBG@Z
  ?Trim@?$CStringT@GV?$StrTraitATL@GV?$ChTraitsCRT@G@ATL@@@ATL@@@ATL@@QAEAAV12@XZ="C:\Windows\SysWOW64\spwizeng".?Trim@?$CStringT@GV?$StrTraitATL@GV?$ChTraitsCRT@G@ATL@@@ATL@@@ATL@@QAEAAV12@XZ
  ?TrimLeft@?$CStringT@GV?$StrTraitATL@GV?$ChTraitsCRT@G@ATL@@@ATL@@@ATL@@QAEAAV12@G@Z="C:\Windows\SysWOW64\spwizeng".?TrimLeft@?$CStringT@GV?$StrTraitATL@GV?$ChTraitsCRT@G@ATL@@@ATL@@@ATL@@QAEAAV12@G@Z
  ?TrimLeft@?$CStringT@GV?$StrTraitATL@GV?$ChTraitsCRT@G@ATL@@@ATL@@@ATL@@QAEAAV12@PBG@Z="C:\Windows\SysWOW64\spwizeng".?TrimLeft@?$CStringT@GV?$StrTraitATL@GV?$ChTraitsCRT@G@ATL@@@ATL@@@ATL@@QAEAAV12@PBG@Z
  ?TrimLeft@?$CStringT@GV?$StrTraitATL@GV?$ChTraitsCRT@G@ATL@@@ATL@@@ATL@@QAEAAV12@XZ="C:\Windows\SysWOW64\spwizeng".?TrimLeft@?$CStringT@GV?$StrTraitATL@GV?$ChTraitsCRT@G@ATL@@@ATL@@@ATL@@QAEAAV12@XZ
  ?TrimRight@?$CStringT@GV?$StrTraitATL@GV?$ChTraitsCRT@G@ATL@@@ATL@@@ATL@@QAEAAV12@G@Z="C:\Windows\SysWOW64\spwizeng".?TrimRight@?$CStringT@GV?$StrTraitATL@GV?$ChTraitsCRT@G@ATL@@@ATL@@@ATL@@QAEAAV12@G@Z
  ?TrimRight@?$CStringT@GV?$StrTraitATL@GV?$ChTraitsCRT@G@ATL@@@ATL@@@ATL@@QAEAAV12@PBG@Z="C:\Windows\SysWOW64\spwizeng".?TrimRight@?$CStringT@GV?$StrTraitATL@GV?$ChTraitsCRT@G@ATL@@@ATL@@@ATL@@QAEAAV12@PBG@Z
  ?TrimRight@?$CStringT@GV?$StrTraitATL@GV?$ChTraitsCRT@G@ATL@@@ATL@@@ATL@@QAEAAV12@XZ="C:\Windows\SysWOW64\spwizeng".?TrimRight@?$CStringT@GV?$StrTraitATL@GV?$ChTraitsCRT@G@ATL@@@ATL@@@ATL@@QAEAAV12@XZ
  ?Truncate@?$CSimpleStringT@G$0A@@ATL@@QAEXH@Z="C:\Windows\SysWOW64\spwizeng".?Truncate@?$CSimpleStringT@G$0A@@ATL@@QAEXH@Z
  ?Uninit@CResourceModuleFactory@@QAEXXZ="C:\Windows\SysWOW64\spwizeng".?Uninit@CResourceModuleFactory@@QAEXXZ
  ?Unload@CDIB@@QAEXXZ="C:\Windows\SysWOW64\spwizeng".?Unload@CDIB@@QAEXXZ
  ?UnlockBuffer@?$CSimpleStringT@G$0A@@ATL@@QAEXXZ="C:\Windows\SysWOW64\spwizeng".?UnlockBuffer@?$CSimpleStringT@G$0A@@ATL@@QAEXXZ
  ?UnregisterObserver@CResourceModule@@QAEHPAUIResourceModuleEvent@@@Z="C:\Windows\SysWOW64\spwizeng".?UnregisterObserver@CResourceModule@@QAEHPAUIResourceModuleEvent@@@Z
  ?Update@CWndObj@@UAGXXZ="C:\Windows\SysWOW64\spwizeng".?Update@CWndObj@@UAGXXZ
  ?WMFree@CWndObj@@QAEXXZ="C:\Windows\SysWOW64\spwizeng".?WMFree@CWndObj@@QAEXXZ
  ?WMHandler@CWndObj@@QAEJIIJ@Z="C:\Windows\SysWOW64\spwizeng".?WMHandler@CWndObj@@QAEJIIJ@Z
  ?WMInit@CWndObj@@QAEXPAUHWND__@@@Z="C:\Windows\SysWOW64\spwizeng".?WMInit@CWndObj@@QAEXPAUHWND__@@@Z
  ?WaitForMultipleObjectsMessageSafe@WizardUI@@QAEKKPBQAXHK@Z="C:\Windows\SysWOW64\spwizeng".?WaitForMultipleObjectsMessageSafe@WizardUI@@QAEKKPBQAXHK@Z
  ?WaitForMultipleObjectsMessageSafeEx@WizardUI@@QAEKKPBQAXHKH@Z="C:\Windows\SysWOW64\spwizeng".?WaitForMultipleObjectsMessageSafeEx@WizardUI@@QAEKKPBQAXHKH@Z
  ?WaitForSingleObjectMessageSafe@WizardUI@@QAEKPAXK@Z="C:\Windows\SysWOW64\spwizeng".?WaitForSingleObjectMessageSafe@WizardUI@@QAEKPAXK@Z
  ?WaitForSingleObjectMessageSafeEx@WizardUI@@QAEKPAXKH@Z="C:\Windows\SysWOW64\spwizeng".?WaitForSingleObjectMessageSafeEx@WizardUI@@QAEKPAXKH@Z
  ?WaitForUIEnd@WizardUI@@QAEHXZ="C:\Windows\SysWOW64\spwizeng".?WaitForUIEnd@WizardUI@@QAEHXZ
  ?WindowProc@CAttachDataDlg@@SGJPAUHWND__@@IIJ@Z="C:\Windows\SysWOW64\spwizeng".?WindowProc@CAttachDataDlg@@SGJPAUHWND__@@IIJ@Z
  ?WindowProc@CGenericNavWindow@@SGJPAUHWND__@@IIJ@Z="C:\Windows\SysWOW64\spwizeng".?WindowProc@CGenericNavWindow@@SGJPAUHWND__@@IIJ@Z
  ?WizardThreadProc@WizardUI@@CGKPAX@Z="C:\Windows\SysWOW64\spwizeng".?WizardThreadProc@WizardUI@@CGKPAX@Z
  ?add_WexStyle@CWndObj@@UAGXK@Z="C:\Windows\SysWOW64\spwizeng".?add_WexStyle@CWndObj@@UAGXK@Z
  ?add_WndStyle@CWndObj@@UAGXK@Z="C:\Windows\SysWOW64\spwizeng".?add_WndStyle@CWndObj@@UAGXK@Z
  ?bLangUiShown@LanguageSelectionDialogBase@@0HA="C:\Windows\SysWOW64\spwizeng".?bLangUiShown@LanguageSelectionDialogBase@@0HA
  ?bWeAllocatedInstance@Navigator@@0HA="C:\Windows\SysWOW64\spwizeng".?bWeAllocatedInstance@Navigator@@0HA
  ?clr_WexStyle@CWndObj@@UAGXK@Z="C:\Windows\SysWOW64\spwizeng".?clr_WexStyle@CWndObj@@UAGXK@Z
  ?clr_WndStyle@CWndObj@@UAGXK@Z="C:\Windows\SysWOW64\spwizeng".?clr_WndStyle@CWndObj@@UAGXK@Z
  ?getInstance@Navigator@@SGPAUINavigator@@XZ="C:\Windows\SysWOW64\spwizeng".?getInstance@Navigator@@SGPAUINavigator@@XZ
  ?getInstance@Win32Navigator@@SGPAV1@XZ="C:\Windows\SysWOW64\spwizeng".?getInstance@Win32Navigator@@SGPAV1@XZ
  ?get_Alpha@CWndObj@@UAGKXZ="C:\Windows\SysWOW64\spwizeng".?get_Alpha@CWndObj@@UAGKXZ
  ?get_BackColor@CWndObj@@UAGKXZ="C:\Windows\SysWOW64\spwizeng".?get_BackColor@CWndObj@@UAGKXZ
  ?get_Class@CWndObj@@UAGPBGXZ="C:\Windows\SysWOW64\spwizeng".?get_Class@CWndObj@@UAGPBGXZ
  ?get_ClsStyle@CWndObj@@UAGKXZ="C:\Windows\SysWOW64\spwizeng".?get_ClsStyle@CWndObj@@UAGKXZ
  ?get_Cursor@CWndObj@@UAGPAUHICON__@@XZ="C:\Windows\SysWOW64\spwizeng".?get_Cursor@CWndObj@@UAGPAUHICON__@@XZ
  ?get_Icon@CWndObj@@UAGPAUHICON__@@XZ="C:\Windows\SysWOW64\spwizeng".?get_Icon@CWndObj@@UAGPAUHICON__@@XZ
  ?get_Instance@CWndObj@@UAGPAUHINSTANCE__@@XZ="C:\Windows\SysWOW64\spwizeng".?get_Instance@CWndObj@@UAGPAUHINSTANCE__@@XZ
  ?get_Menu@CWndObj@@UAGPAUHMENU__@@XZ="C:\Windows\SysWOW64\spwizeng".?get_Menu@CWndObj@@UAGPAUHMENU__@@XZ
  ?get_Parent@CWndObj@@UAGPAUHWND__@@XZ="C:\Windows\SysWOW64\spwizeng".?get_Parent@CWndObj@@UAGPAUHWND__@@XZ
  ?get_Position@CWndObj@@UAGPAUtagPOINT@@XZ="C:\Windows\SysWOW64\spwizeng".?get_Position@CWndObj@@UAGPAUtagPOINT@@XZ
  ?get_Size@CWndObj@@UAGPAUtagSIZE@@XZ="C:\Windows\SysWOW64\spwizeng".?get_Size@CWndObj@@UAGPAUtagSIZE@@XZ
  ?get_TextColor@CWndObj@@UAGKXZ="C:\Windows\SysWOW64\spwizeng".?get_TextColor@CWndObj@@UAGKXZ
  ?get_Title@CWndObj@@UAGPBGXZ="C:\Windows\SysWOW64\spwizeng".?get_Title@CWndObj@@UAGPBGXZ
  ?get_WexStyle@CWndObj@@UAGKXZ="C:\Windows\SysWOW64\spwizeng".?get_WexStyle@CWndObj@@UAGKXZ
  ?get_WndID@CWndObj@@UAGKXZ="C:\Windows\SysWOW64\spwizeng".?get_WndID@CWndObj@@UAGKXZ
  ?get_WndStyle@CWndObj@@UAGKXZ="C:\Windows\SysWOW64\spwizeng".?get_WndStyle@CWndObj@@UAGKXZ
  ?get_hWnd@CWndObj@@UAGPAUHWND__@@XZ="C:\Windows\SysWOW64\spwizeng".?get_hWnd@CWndObj@@UAGPAUHWND__@@XZ
  ?instance@Navigator@@0PAUINavigator@@A="C:\Windows\SysWOW64\spwizeng".?instance@Navigator@@0PAUINavigator@@A
  ?m_CurrentVariation@VariationWizStrategy@@1HA="C:\Windows\SysWOW64\spwizeng".?m_CurrentVariation@VariationWizStrategy@@1HA
  ?m_CurrentVariation@WizardVariation@@0HA="C:\Windows\SysWOW64\spwizeng".?m_CurrentVariation@WizardVariation@@0HA
  ?m_hcInstance@CHighContrast@@0PAV1@A="C:\Windows\SysWOW64\spwizeng".?m_hcInstance@CHighContrast@@0PAV1@A
  ?m_instance@Win32Navigator@@0PAV1@A="C:\Windows\SysWOW64\spwizeng".?m_instance@Win32Navigator@@0PAV1@A
  ?s_OldLangNeutralLVProc@LanguageNeutralSelectionDialogBase@@0P6GJPAUHWND__@@IIJ@ZA="C:\Windows\SysWOW64\spwizeng".?s_OldLangNeutralLVProc@LanguageNeutralSelectionDialogBase@@0P6GJPAUHWND__@@IIJ@ZA
  ?s_hbmpScreenBackgroundOld@WizardUI@@0PAUHBITMAP__@@A="C:\Windows\SysWOW64\spwizeng".?s_hbmpScreenBackgroundOld@WizardUI@@0PAUHBITMAP__@@A
  ?s_hdcScreenBackground@WizardUI@@0PAUHDC__@@A="C:\Windows\SysWOW64\spwizeng".?s_hdcScreenBackground@WizardUI@@0PAUHDC__@@A
  ?s_lInitialized@CCursor@@0JA="C:\Windows\SysWOW64\spwizeng".?s_lInitialized@CCursor@@0JA
  ?s_pCursor@CCursor@@0PAV1@A="C:\Windows\SysWOW64\spwizeng".?s_pCursor@CCursor@@0PAV1@A
  ?s_pWizardUI@WizardUI@@0PAV1@A="C:\Windows\SysWOW64\spwizeng".?s_pWizardUI@WizardUI@@0PAV1@A
  ?s_szUiLanguage@CResourceModule@@0PAGA="C:\Windows\SysWOW64\spwizeng".?s_szUiLanguage@CResourceModule@@0PAGA
  ?setInstance@Navigator@@SGXPAUINavigator@@@Z="C:\Windows\SysWOW64\spwizeng".?setInstance@Navigator@@SGXPAUINavigator@@@Z
  ?set_Alpha@CWndObj@@UAGXK@Z="C:\Windows\SysWOW64\spwizeng".?set_Alpha@CWndObj@@UAGXK@Z
  ?set_BackColor@CWndObj@@UAGXK@Z="C:\Windows\SysWOW64\spwizeng".?set_BackColor@CWndObj@@UAGXK@Z
  ?set_Class@CWndObj@@UAGXPBG@Z="C:\Windows\SysWOW64\spwizeng".?set_Class@CWndObj@@UAGXPBG@Z
  ?set_ClsStyle@CWndObj@@UAGXK@Z="C:\Windows\SysWOW64\spwizeng".?set_ClsStyle@CWndObj@@UAGXK@Z
  ?set_Cursor@CWndObj@@UAGXPAUHICON__@@@Z="C:\Windows\SysWOW64\spwizeng".?set_Cursor@CWndObj@@UAGXPAUHICON__@@@Z
  ?set_Icon@CWndObj@@UAGXPAUHICON__@@@Z="C:\Windows\SysWOW64\spwizeng".?set_Icon@CWndObj@@UAGXPAUHICON__@@@Z
  ?set_Instance@CWndObj@@UAGXPAUHINSTANCE__@@@Z="C:\Windows\SysWOW64\spwizeng".?set_Instance@CWndObj@@UAGXPAUHINSTANCE__@@@Z
  ?set_Menu@CWndObj@@UAGXPAUHMENU__@@@Z="C:\Windows\SysWOW64\spwizeng".?set_Menu@CWndObj@@UAGXPAUHMENU__@@@Z
  ?set_Parent@CWndObj@@UAGXPAUHWND__@@@Z="C:\Windows\SysWOW64\spwizeng".?set_Parent@CWndObj@@UAGXPAUHWND__@@@Z
  ?set_Position@CWndObj@@UAGXPAUtagPOINT@@@Z="C:\Windows\SysWOW64\spwizeng".?set_Position@CWndObj@@UAGXPAUtagPOINT@@@Z
  ?set_Size@CWndObj@@UAGXPAUtagSIZE@@@Z="C:\Windows\SysWOW64\spwizeng".?set_Size@CWndObj@@UAGXPAUtagSIZE@@@Z
  ?set_Template@CWndObj@@UAGXK@Z="C:\Windows\SysWOW64\spwizeng".?set_Template@CWndObj@@UAGXK@Z
  ?set_TextColor@CWndObj@@UAGXK@Z="C:\Windows\SysWOW64\spwizeng".?set_TextColor@CWndObj@@UAGXK@Z
  ?set_Title@CWndObj@@UAGXPBG@Z="C:\Windows\SysWOW64\spwizeng".?set_Title@CWndObj@@UAGXPBG@Z
  ?set_Type@CWndObj@@UAGXK@Z="C:\Windows\SysWOW64\spwizeng".?set_Type@CWndObj@@UAGXK@Z
  ?set_WexStyle@CWndObj@@UAGXK@Z="C:\Windows\SysWOW64\spwizeng".?set_WexStyle@CWndObj@@UAGXK@Z
  ?set_WndID@CWndObj@@UAGXK@Z="C:\Windows\SysWOW64\spwizeng".?set_WndID@CWndObj@@UAGXK@Z
  ?set_WndStyle@CWndObj@@UAGXK@Z="C:\Windows\SysWOW64\spwizeng".?set_WndStyle@CWndObj@@UAGXK@Z
  ?v_Chk@CAnimationControl@@AAEHK@Z="C:\Windows\SysWOW64\spwizeng".?v_Chk@CAnimationControl@@AAEHK@Z
  ?v_Chk@CCtlText@@AAEHK@Z="C:\Windows\SysWOW64\spwizeng".?v_Chk@CCtlText@@AAEHK@Z
  ?v_Chk@CWndObj@@AAEHK@Z="C:\Windows\SysWOW64\spwizeng".?v_Chk@CWndObj@@AAEHK@Z
  ?v_Chk@NavigationStack@@AAEHK@Z="C:\Windows\SysWOW64\spwizeng".?v_Chk@NavigationStack@@AAEHK@Z
  ?v_Chk@PageContainer@@AAEHK@Z="C:\Windows\SysWOW64\spwizeng".?v_Chk@PageContainer@@AAEHK@Z
  ?v_ChkStack@NavigationStack@@AAEHXZ="C:\Windows\SysWOW64\spwizeng".?v_ChkStack@NavigationStack@@AAEHXZ
  ?v_Clr@CAnimationControl@@AAEXK@Z="C:\Windows\SysWOW64\spwizeng".?v_Clr@CAnimationControl@@AAEXK@Z
  ?v_Clr@CCtlText@@AAEXK@Z="C:\Windows\SysWOW64\spwizeng".?v_Clr@CCtlText@@AAEXK@Z
  ?v_Clr@CWndObj@@AAEXK@Z="C:\Windows\SysWOW64\spwizeng".?v_Clr@CWndObj@@AAEXK@Z
  ?v_Clr@NavigationStack@@AAEXK@Z="C:\Windows\SysWOW64\spwizeng".?v_Clr@NavigationStack@@AAEXK@Z
  ?v_Clr@PageContainer@@AAEXK@Z="C:\Windows\SysWOW64\spwizeng".?v_Clr@PageContainer@@AAEXK@Z
  ?v_ClrProps@CWndObj@@AAEXXZ="C:\Windows\SysWOW64\spwizeng".?v_ClrProps@CWndObj@@AAEXXZ
  ?v_CreatePage@PageContainer@@AAEXHH@Z="C:\Windows\SysWOW64\spwizeng".?v_CreatePage@PageContainer@@AAEXHH@Z
  ?v_DefWndProc@CWndObj@@AAEJIIJ@Z="C:\Windows\SysWOW64\spwizeng".?v_DefWndProc@CWndObj@@AAEJIIJ@Z
  ?v_DestroyAllCachedPages@PageContainer@@AAEXXZ="C:\Windows\SysWOW64\spwizeng".?v_DestroyAllCachedPages@PageContainer@@AAEXXZ
  ?v_DlgCreate@CWndObj@@AAEHXZ="C:\Windows\SysWOW64\spwizeng".?v_DlgCreate@CWndObj@@AAEHXZ
  ?v_DoPageChange@Win32Navigator@@AAEXW4Direction@@PAVWizardPage@@@Z="C:\Windows\SysWOW64\spwizeng".?v_DoPageChange@Win32Navigator@@AAEXW4Direction@@PAVWizardPage@@@Z
  ?v_GetHCBkColor@CHighContrast@@AAEKXZ="C:\Windows\SysWOW64\spwizeng".?v_GetHCBkColor@CHighContrast@@AAEKXZ
  ?v_InitSurface@AppWindow@@AAEXI@Z="C:\Windows\SysWOW64\spwizeng".?v_InitSurface@AppWindow@@AAEXI@Z
  ?v_InitSurface@ScrWindow@@AAEXXZ="C:\Windows\SysWOW64\spwizeng".?v_InitSurface@ScrWindow@@AAEXXZ
  ?v_IsRtf@CRichEditControl@@AAEHXZ="C:\Windows\SysWOW64\spwizeng".?v_IsRtf@CRichEditControl@@AAEHXZ
  ?v_IsValid@PIDStringView@@AAEHG@Z="C:\Windows\SysWOW64\spwizeng".?v_IsValid@PIDStringView@@AAEHG@Z
  ?v_LoadLibrary@CResourceModule@@AAEPAUHINSTANCE__@@PBG0@Z="C:\Windows\SysWOW64\spwizeng".?v_LoadLibrary@CResourceModule@@AAEPAUHINSTANCE__@@PBG0@Z
  ?v_MakePidString@PIDStringView@@AAEHXZ="C:\Windows\SysWOW64\spwizeng".?v_MakePidString@PIDStringView@@AAEHXZ
  ?v_MakeValidString@PIDStringView@@AAE?AV?$CStringT@GV?$StrTraitATL@GV?$ChTraitsCRT@G@ATL@@@ATL@@@ATL@@PBG@Z="C:\Windows\SysWOW64\spwizeng".?v_MakeValidString@PIDStringView@@AAE?AV?$CStringT@GV?$StrTraitATL@GV?$ChTraitsCRT@G@ATL@@@ATL@@@ATL@@PBG@Z
  ?v_NotifyObservers@CResourceModule@@AAEXXZ="C:\Windows\SysWOW64\spwizeng".?v_NotifyObservers@CResourceModule@@AAEXXZ
  ?v_Register@CWndObj@@AAEHXZ="C:\Windows\SysWOW64\spwizeng".?v_Register@CWndObj@@AAEHXZ
  ?v_ReleaseResource@CResourceModule@@AAEXPAUHINSTANCE__@@@Z="C:\Windows\SysWOW64\spwizeng".?v_ReleaseResource@CResourceModule@@AAEXPAUHINSTANCE__@@@Z
  ?v_Set@CAnimationControl@@AAEXK@Z="C:\Windows\SysWOW64\spwizeng".?v_Set@CAnimationControl@@AAEXK@Z
  ?v_Set@CCtlText@@AAEXK@Z="C:\Windows\SysWOW64\spwizeng".?v_Set@CCtlText@@AAEXK@Z
  ?v_Set@CWndObj@@AAEXK@Z="C:\Windows\SysWOW64\spwizeng".?v_Set@CWndObj@@AAEXK@Z
  ?v_Set@NavigationStack@@AAEXK@Z="C:\Windows\SysWOW64\spwizeng".?v_Set@NavigationStack@@AAEXK@Z
  ?v_Set@PageContainer@@AAEXK@Z="C:\Windows\SysWOW64\spwizeng".?v_Set@PageContainer@@AAEXK@Z
  ?v_SetCurrentPageInternal@PageContainer@@AAEXHH@Z="C:\Windows\SysWOW64\spwizeng".?v_SetCurrentPageInternal@PageContainer@@AAEXHH@Z
  ?v_SetWindowTitle@AppWindow@@AAEXXZ="C:\Windows\SysWOW64\spwizeng".?v_SetWindowTitle@AppWindow@@AAEXXZ
  ?v_SetWindowTitle@ScrWindow@@AAEXXZ="C:\Windows\SysWOW64\spwizeng".?v_SetWindowTitle@ScrWindow@@AAEXXZ
  ?v_Unload@CDrawBackground@@AAEXXZ="C:\Windows\SysWOW64\spwizeng".?v_Unload@CDrawBackground@@AAEXXZ
  ?v_Unregister@CWndObj@@AAEHXZ="C:\Windows\SysWOW64\spwizeng".?v_Unregister@CWndObj@@AAEHXZ
  ?v_WndCreate@CWndObj@@AAEHXZ="C:\Windows\SysWOW64\spwizeng".?v_WndCreate@CWndObj@@AAEHXZ
  CenterRelativeToWindow="C:\Windows\SysWOW64\spwizeng".CenterRelativeToWindow
  CreateMirroredIcon="C:\Windows\SysWOW64\spwizeng".CreateMirroredIcon
  CreateModifiedFont="C:\Windows\SysWOW64\spwizeng".CreateModifiedFont
  FormatVarMessage="C:\Windows\SysWOW64\spwizeng".FormatVarMessage
  GetHwndFont="C:\Windows\SysWOW64\spwizeng".GetHwndFont
  GetHwndLogFont="C:\Windows\SysWOW64\spwizeng".GetHwndLogFont
  LoadHtmlResource="C:\Windows\SysWOW64\spwizeng".LoadHtmlResource
  MoveControl="C:\Windows\SysWOW64\spwizeng".MoveControl
  MyDynamicSetWindowText="C:\Windows\SysWOW64\spwizeng".MyDynamicSetWindowText
  MySetWindowText="C:\Windows\SysWOW64\spwizeng".MySetWindowText
  PaintWindowRegion="C:\Windows\SysWOW64\spwizeng".PaintWindowRegion
  SPWE_CloseCurrentMessageBox="C:\Windows\SysWOW64\spwizeng".SPWE_CloseCurrentMessageBox
  SPWE_MessageBox="C:\Windows\SysWOW64\spwizeng".SPWE_MessageBox
  SetControlFonts="C:\Windows\SysWOW64\spwizeng".SetControlFonts
  SetDlgItemTextFromResID="C:\Windows\SysWOW64\spwizeng".SetDlgItemTextFromResID
  ShowMigrationReport="C:\Windows\SysWOW64\spwizeng".ShowMigrationReport
  ShowReadMoreWndHtml="C:\Windows\SysWOW64\spwizeng".ShowReadMoreWndHtml
  ShowReadMoreWndHtmlFromResource="C:\Windows\SysWOW64\spwizeng".ShowReadMoreWndHtmlFromResource
  SpwLoadBitmap="C:\Windows\SysWOW64\spwizeng".SpwLoadBitmap
  StretchControlToWindow="C:\Windows\SysWOW64\spwizeng".StretchControlToWindow
  dlgProc="C:\Windows\SysWOW64\spwizeng".dlgProc
  utlGetCtlRect="C:\Windows\SysWOW64\spwizeng".utlGetCtlRect
  wndProc="C:\Windows\SysWOW64\spwizeng".wndProc
