EXPORTS
  ??0CTcpMib@@QAE@ABV0@@Z="C:\Windows\SysWOW64\tcpmib".??0CTcpMib@@QAE@ABV0@@Z
  ??0CTcpMib@@QAE@XZ="C:\Windows\SysWOW64\tcpmib".??0CTcpMib@@QAE@XZ
  ??0CTcpMibABC@@QAE@ABV0@@Z="C:\Windows\SysWOW64\tcpmib".??0CTcpMibABC@@QAE@ABV0@@Z
  ??0CTcpMibABC@@QAE@XZ="C:\Windows\SysWOW64\tcpmib".??0CTcpMibABC@@QAE@XZ
  ??1CTcpMib@@UAE@XZ="C:\Windows\SysWOW64\tcpmib".??1CTcpMib@@UAE@XZ
  ??1CTcpMibABC@@UAE@XZ="C:\Windows\SysWOW64\tcpmib".??1CTcpMibABC@@UAE@XZ
  ??4CTcpMib@@QAEAAV0@ABV0@@Z="C:\Windows\SysWOW64\tcpmib".??4CTcpMib@@QAEAAV0@ABV0@@Z
  ??4CTcpMibABC@@QAEAAV0@ABV0@@Z="C:\Windows\SysWOW64\tcpmib".??4CTcpMibABC@@QAEAAV0@ABV0@@Z
  ??_7CTcpMib@@6B@="C:\Windows\SysWOW64\tcpmib".??_7CTcpMib@@6B@
  ??_7CTcpMibABC@@6B@="C:\Windows\SysWOW64\tcpmib".??_7CTcpMibABC@@6B@
  ?GetDeviceDescription@CTcpMib@@UAEKPBD0KPAGK@Z="C:\Windows\SysWOW64\tcpmib".?GetDeviceDescription@CTcpMib@@UAEKPBD0KPAGK@Z
  ?GetDeviceId@CTcpMib@@UAEJPBGKPAGKPAK@Z="C:\Windows\SysWOW64\tcpmib".?GetDeviceId@CTcpMib@@UAEJPBGKPAGKPAK@Z
  ?GetDeviceIdFromIni@CTcpMib@@AAEJPBGKPAGKPAK@Z="C:\Windows\SysWOW64\tcpmib".?GetDeviceIdFromIni@CTcpMib@@AAEJPBGKPAGKPAK@Z
  ?GetDeviceIdFromMib@CTcpMib@@AAEJPBGKPAGKPAK@Z="C:\Windows\SysWOW64\tcpmib".?GetDeviceIdFromMib@CTcpMib@@AAEJPBGKPAGKPAK@Z
  ?GetNextRequestId@CTcpMib@@UAEKPAK@Z="C:\Windows\SysWOW64\tcpmib".?GetNextRequestId@CTcpMib@@UAEKPAK@Z
  ?GetPortList@CTcpMib@@UAEJPBGPAEKPAK@Z="C:\Windows\SysWOW64\tcpmib".?GetPortList@CTcpMib@@UAEJPBGPAEKPAK@Z
  ?GetPortListFromIni@CTcpMib@@AAEJPBGPAEKPAK@Z="C:\Windows\SysWOW64\tcpmib".?GetPortListFromIni@CTcpMib@@AAEJPBGPAEKPAK@Z
  ?GetPortListFromMib@CTcpMib@@AAEJPBGPAEKPAK@Z="C:\Windows\SysWOW64\tcpmib".?GetPortListFromMib@CTcpMib@@AAEJPBGPAEKPAK@Z
  ?GetStatusFromVBL@CTcpMib@@CGKPAXPAUsmiVALUE@@11@Z="C:\Windows\SysWOW64\tcpmib".?GetStatusFromVBL@CTcpMib@@CGKPAXPAUsmiVALUE@@11@Z
  ?InitSnmp@CTcpMib@@UAEKXZ="C:\Windows\SysWOW64\tcpmib".?InitSnmp@CTcpMib@@UAEKXZ
  ?IsValid@CTcpMib@@QBEHXZ="C:\Windows\SysWOW64\tcpmib".?IsValid@CTcpMib@@QBEHXZ
  ?MapAsynchToPortStatus@CTcpMib@@CGHKPAU_PORT_INFO_3W@@@Z="C:\Windows\SysWOW64\tcpmib".?MapAsynchToPortStatus@CTcpMib@@CGHKPAU_PORT_INFO_3W@@@Z
  ?RFC1157ToString@CTcpMib@@UAEHPAUSnmpVarBind@@PAGKPAK@Z="C:\Windows\SysWOW64\tcpmib".?RFC1157ToString@CTcpMib@@UAEHPAUSnmpVarBind@@PAGKPAK@Z
  ?RegisterDeviceStatusCallback@CTcpMib@@UAEKP6GKHPBD0KKK@ZPAPAX@Z="C:\Windows\SysWOW64\tcpmib".?RegisterDeviceStatusCallback@CTcpMib@@UAEKP6GKHPBD0KKK@ZPAPAX@Z
  ?RequestDeviceStatus@CTcpMib@@UAEKPAXKPBG1K@Z="C:\Windows\SysWOW64\tcpmib".?RequestDeviceStatus@CTcpMib@@UAEKPAXKPBG1K@Z
  ?SnmpCallback@CTcpMib@@CGKPAXPAUHWND__@@IIJ0@Z="C:\Windows\SysWOW64\tcpmib".?SnmpCallback@CTcpMib@@CGKPAXPAUHWND__@@IIJ0@Z
  ?SnmpGet@CTcpMib@@QAEKPBD0PAUSnmpVarBindList@@@Z="C:\Windows\SysWOW64\tcpmib".?SnmpGet@CTcpMib@@QAEKPBD0PAUSnmpVarBindList@@@Z
  ?SnmpGet@CTcpMib@@UAEKPBD00PAUSnmpVarBindList@@@Z="C:\Windows\SysWOW64\tcpmib".?SnmpGet@CTcpMib@@UAEKPBD00PAUSnmpVarBindList@@@Z
  ?SnmpGet@CTcpMib@@UAEKPBD0PAUAsnObjectIdentifier@@PAUSnmpVarBindList@@@Z="C:\Windows\SysWOW64\tcpmib".?SnmpGet@CTcpMib@@UAEKPBD0PAUAsnObjectIdentifier@@PAUSnmpVarBindList@@@Z
  ?SnmpGetNext@CTcpMib@@QAEKPBD0PAUSnmpVarBindList@@@Z="C:\Windows\SysWOW64\tcpmib".?SnmpGetNext@CTcpMib@@QAEKPBD0PAUSnmpVarBindList@@@Z
  ?SnmpGetNext@CTcpMib@@UAEKPBD0PAUAsnObjectIdentifier@@PAUSnmpVarBindList@@@Z="C:\Windows\SysWOW64\tcpmib".?SnmpGetNext@CTcpMib@@UAEKPBD0PAUAsnObjectIdentifier@@PAUSnmpVarBindList@@@Z
  ?SupportsPortMonMib@CTcpMib@@AAEJPBGPAH@Z="C:\Windows\SysWOW64\tcpmib".?SupportsPortMonMib@CTcpMib@@AAEJPBGPAH@Z
  ?SupportsPrinterMib@CTcpMib@@UAEHPBD0KPAH@Z="C:\Windows\SysWOW64\tcpmib".?SupportsPrinterMib@CTcpMib@@UAEHPBD0KPAH@Z
  ?UnInitSnmp@CTcpMib@@UAEXXZ="C:\Windows\SysWOW64\tcpmib".?UnInitSnmp@CTcpMib@@UAEXXZ
  GetTcpMibPtr="C:\Windows\SysWOW64\tcpmib".GetTcpMibPtr
