EXPORTS
  ??0CDriveInfo@@QAE@PBGK@Z="C:\Windows\SysWOW64\tquery".??0CDriveInfo@@QAE@PBGK@Z
  ??0CFullPath@@QAE@PBG@Z="C:\Windows\SysWOW64\tquery".??0CFullPath@@QAE@PBG@Z
  ??0CFullPropSpec@@QAE@ABV0@@Z="C:\Windows\SysWOW64\tquery".??0CFullPropSpec@@QAE@ABV0@@Z
  ??0CMemSerStream@@QAE@PAEK@Z="C:\Windows\SysWOW64\tquery".??0CMemSerStream@@QAE@PAEK@Z
  ??0CPidLookupTable@@QAE@XZ="C:\Windows\SysWOW64\tquery".??0CPidLookupTable@@QAE@XZ
  ??0CUnNormalizer@@QAE@XZ="C:\Windows\SysWOW64\tquery".??0CUnNormalizer@@QAE@XZ
  ??0CiStorage@@QAE@PBGKPAUICiCAdviseStatus@@KH@Z="C:\Windows\SysWOW64\tquery".??0CiStorage@@QAE@PBGKPAUICiCAdviseStatus@@KH@Z
  ??0XAct@@QAE@XZ="C:\Windows\SysWOW64\tquery".??0XAct@@QAE@XZ
  ??1CMemSerStream@@UAE@XZ="C:\Windows\SysWOW64\tquery".??1CMemSerStream@@UAE@XZ
  ??1CPhysStorage@@UAE@XZ="C:\Windows\SysWOW64\tquery".??1CPhysStorage@@UAE@XZ
  ??1CPidLookupTable@@QAE@XZ="C:\Windows\SysWOW64\tquery".??1CPidLookupTable@@QAE@XZ
  ?CoTaskAllocator@@3VCCoTaskAllocator@@A="C:\Windows\SysWOW64\tquery".?CoTaskAllocator@@3VCCoTaskAllocator@@A
  ?ContainsDrive@CDriveInfo@@SGHPBG@Z="C:\Windows\SysWOW64\tquery".?ContainsDrive@CDriveInfo@@SGHPBG@Z
  ?GetBlob@CMemDeSerStream@@UAEXPAEK@Z="C:\Windows\SysWOW64\tquery".?GetBlob@CMemDeSerStream@@UAEXPAEK@Z
  ?GetByte@CMemDeSerStream@@UAEEXZ="C:\Windows\SysWOW64\tquery".?GetByte@CMemDeSerStream@@UAEEXZ
  ?GetChar@CMemDeSerStream@@UAEXPADK@Z="C:\Windows\SysWOW64\tquery".?GetChar@CMemDeSerStream@@UAEXPADK@Z
  ?GetDiskSpace@CDriveInfo@@QAEXAA_J0@Z="C:\Windows\SysWOW64\tquery".?GetDiskSpace@CDriveInfo@@QAEXAA_J0@Z
  ?GetDouble@CMemDeSerStream@@UAENXZ="C:\Windows\SysWOW64\tquery".?GetDouble@CMemDeSerStream@@UAENXZ
  ?GetDrive@CDriveInfo@@SGXPBGPAG@Z="C:\Windows\SysWOW64\tquery".?GetDrive@CDriveInfo@@SGXPBGPAG@Z
  ?GetFloat@CMemDeSerStream@@UAEMXZ="C:\Windows\SysWOW64\tquery".?GetFloat@CMemDeSerStream@@UAEMXZ
  ?GetGUID@CMemDeSerStream@@UAEXAAU_GUID@@@Z="C:\Windows\SysWOW64\tquery".?GetGUID@CMemDeSerStream@@UAEXAAU_GUID@@@Z
  ?GetLong@CMemDeSerStream@@UAEJXZ="C:\Windows\SysWOW64\tquery".?GetLong@CMemDeSerStream@@UAEJXZ
  ?GetSectorSize@CDriveInfo@@QAEKXZ="C:\Windows\SysWOW64\tquery".?GetSectorSize@CDriveInfo@@QAEKXZ
  ?GetString@CMemDeSerStream@@UAEPADXZ="C:\Windows\SysWOW64\tquery".?GetString@CMemDeSerStream@@UAEPADXZ
  ?GetULong@CMemDeSerStream@@UAEKXZ="C:\Windows\SysWOW64\tquery".?GetULong@CMemDeSerStream@@UAEKXZ
  ?GetUShort@CMemDeSerStream@@UAEGXZ="C:\Windows\SysWOW64\tquery".?GetUShort@CMemDeSerStream@@UAEGXZ
  ?GetWChar@CMemDeSerStream@@UAEXPAGK@Z="C:\Windows\SysWOW64\tquery".?GetWChar@CMemDeSerStream@@UAEXPAGK@Z
  ?GetWString@CMemDeSerStream@@UAEPAGXZ="C:\Windows\SysWOW64\tquery".?GetWString@CMemDeSerStream@@UAEPAGXZ
  ?Init@CPidLookupTable@@QAEHPAVPRcovStorageObj@@@Z="C:\Windows\SysWOW64\tquery".?Init@CPidLookupTable@@QAEHPAVPRcovStorageObj@@@Z
  ?IsSameDrive@CDriveInfo@@QAEHPBG@Z="C:\Windows\SysWOW64\tquery".?IsSameDrive@CDriveInfo@@QAEHPBG@Z
  ?IsWriteProtected@CDriveInfo@@QAEHXZ="C:\Windows\SysWOW64\tquery".?IsWriteProtected@CDriveInfo@@QAEHXZ
  ?MakePath@CFullPath@@QAEXPBG@Z="C:\Windows\SysWOW64\tquery".?MakePath@CFullPath@@QAEXPBG@Z
  ?PeekULong@CMemDeSerStream@@UAEKXZ="C:\Windows\SysWOW64\tquery".?PeekULong@CMemDeSerStream@@UAEKXZ
  ?PutBlob@CMemSerStream@@UAEXPBEK@Z="C:\Windows\SysWOW64\tquery".?PutBlob@CMemSerStream@@UAEXPBEK@Z
  ?PutByte@CMemSerStream@@UAEXE@Z="C:\Windows\SysWOW64\tquery".?PutByte@CMemSerStream@@UAEXE@Z
  ?PutChar@CMemSerStream@@UAEXPBDK@Z="C:\Windows\SysWOW64\tquery".?PutChar@CMemSerStream@@UAEXPBDK@Z
  ?PutDouble@CMemSerStream@@UAEXN@Z="C:\Windows\SysWOW64\tquery".?PutDouble@CMemSerStream@@UAEXN@Z
  ?PutFloat@CMemSerStream@@UAEXM@Z="C:\Windows\SysWOW64\tquery".?PutFloat@CMemSerStream@@UAEXM@Z
  ?PutGUID@CMemSerStream@@UAEXABU_GUID@@@Z="C:\Windows\SysWOW64\tquery".?PutGUID@CMemSerStream@@UAEXABU_GUID@@@Z
  ?PutLong@CMemSerStream@@UAEXJ@Z="C:\Windows\SysWOW64\tquery".?PutLong@CMemSerStream@@UAEXJ@Z
  ?PutString@CMemSerStream@@UAEXPBD@Z="C:\Windows\SysWOW64\tquery".?PutString@CMemSerStream@@UAEXPBD@Z
  ?PutULong@CMemSerStream@@UAEXK@Z="C:\Windows\SysWOW64\tquery".?PutULong@CMemSerStream@@UAEXK@Z
  ?PutUShort@CMemSerStream@@UAEXG@Z="C:\Windows\SysWOW64\tquery".?PutUShort@CMemSerStream@@UAEXG@Z
  ?PutWChar@CMemSerStream@@UAEXPBGK@Z="C:\Windows\SysWOW64\tquery".?PutWChar@CMemSerStream@@UAEXPBGK@Z
  ?PutWString@CMemSerStream@@UAEXPBG@Z="C:\Windows\SysWOW64\tquery".?PutWString@CMemSerStream@@UAEXPBG@Z
  ?QueryPidLookupTable@CiStorage@@QAEPAVPRcovStorageObj@@K@Z="C:\Windows\SysWOW64\tquery".?QueryPidLookupTable@CiStorage@@QAEPAVPRcovStorageObj@@K@Z
  ?Read@CCiFile@@QAEXXZ="C:\Windows\SysWOW64\tquery".?Read@CCiFile@@QAEXXZ
  ?ResetType@CAllocStorageVariant@@IAEXAAVPMemoryAllocator@@@Z="C:\Windows\SysWOW64\tquery".?ResetType@CAllocStorageVariant@@IAEXAAVPMemoryAllocator@@@Z
  ?SetLPWSTR@CStorageVariant@@QAEXPBGI@Z="C:\Windows\SysWOW64\tquery".?SetLPWSTR@CStorageVariant@@QAEXPBGI@Z
  ?SetProperty@CFullPropSpec@@QAEHPBG@Z="C:\Windows\SysWOW64\tquery".?SetProperty@CFullPropSpec@@QAEHPBG@Z
  ?SetProperty@CFullPropSpec@@QAEXK@Z="C:\Windows\SysWOW64\tquery".?SetProperty@CFullPropSpec@@QAEXK@Z
  ?SkipBlob@CMemDeSerStream@@UAEXK@Z="C:\Windows\SysWOW64\tquery".?SkipBlob@CMemDeSerStream@@UAEXK@Z
  ?SkipByte@CMemDeSerStream@@UAEXXZ="C:\Windows\SysWOW64\tquery".?SkipByte@CMemDeSerStream@@UAEXXZ
  ?SkipChar@CMemDeSerStream@@UAEXK@Z="C:\Windows\SysWOW64\tquery".?SkipChar@CMemDeSerStream@@UAEXK@Z
  ?SkipDouble@CMemDeSerStream@@UAEXXZ="C:\Windows\SysWOW64\tquery".?SkipDouble@CMemDeSerStream@@UAEXXZ
  ?SkipFloat@CMemDeSerStream@@UAEXXZ="C:\Windows\SysWOW64\tquery".?SkipFloat@CMemDeSerStream@@UAEXXZ
  ?SkipGUID@CMemDeSerStream@@UAEXXZ="C:\Windows\SysWOW64\tquery".?SkipGUID@CMemDeSerStream@@UAEXXZ
  ?SkipLong@CMemDeSerStream@@UAEXXZ="C:\Windows\SysWOW64\tquery".?SkipLong@CMemDeSerStream@@UAEXXZ
  ?SkipULong@CMemDeSerStream@@UAEXXZ="C:\Windows\SysWOW64\tquery".?SkipULong@CMemDeSerStream@@UAEXXZ
  ?SkipUShort@CMemDeSerStream@@UAEXXZ="C:\Windows\SysWOW64\tquery".?SkipUShort@CMemDeSerStream@@UAEXXZ
  ?SkipWChar@CMemDeSerStream@@UAEXK@Z="C:\Windows\SysWOW64\tquery".?SkipWChar@CMemDeSerStream@@UAEXK@Z
  ?UnNormalizeKey@CUnNormalizer@@QAEXABVCKeyBuf@@AAUtagPROPVARIANT@@PAGK@Z="C:\Windows\SysWOW64\tquery".?UnNormalizeKey@CUnNormalizer@@QAEXABVCKeyBuf@@AAUtagPROPVARIANT@@PAGK@Z
  AccessDebugTracer="C:\Windows\SysWOW64\tquery".AccessDebugTracer
  AccessRetailTracer="C:\Windows\SysWOW64\tquery".AccessRetailTracer
  CIState="C:\Windows\SysWOW64\tquery".CIState
  CreatePropMapperStorage="C:\Windows\SysWOW64\tquery".CreatePropMapperStorage
  CreatePropMapperStorage2="C:\Windows\SysWOW64\tquery".CreatePropMapperStorage2
  CreateSecurityStoreStorage="C:\Windows\SysWOW64\tquery".CreateSecurityStoreStorage
  DllCanUnloadNow="C:\Windows\SysWOW64\tquery".DllCanUnloadNow
  DllGetClassObject="C:\Windows\SysWOW64\tquery".DllGetClassObject
  DllRegisterServer="C:\Windows\SysWOW64\tquery".DllRegisterServer
  DllUnregisterServer="C:\Windows\SysWOW64\tquery".DllUnregisterServer
  ExceptInitialize="C:\Windows\SysWOW64\tquery".ExceptInitialize
  ExternPropagateEventToOpenQueries="C:\Windows\SysWOW64\tquery".ExternPropagateEventToOpenQueries
  PerfmonClose="C:\Windows\SysWOW64\tquery".PerfmonClose
  PerfmonCollect="C:\Windows\SysWOW64\tquery".PerfmonCollect
  PerfmonIDXClose="C:\Windows\SysWOW64\tquery".PerfmonIDXClose
  PerfmonIDXCollect="C:\Windows\SysWOW64\tquery".PerfmonIDXCollect
  PerfmonIDXOpen="C:\Windows\SysWOW64\tquery".PerfmonIDXOpen
  PerfmonOpen="C:\Windows\SysWOW64\tquery".PerfmonOpen
  RetailTracerDisable="C:\Windows\SysWOW64\tquery".RetailTracerDisable
  RetailTracerEnable="C:\Windows\SysWOW64\tquery".RetailTracerEnable
  RetailTracerReleaseAll="C:\Windows\SysWOW64\tquery".RetailTracerReleaseAll
  UseLowFragmentationHeap="C:\Windows\SysWOW64\tquery".UseLowFragmentationHeap
  _ForceMasterMerge@16="C:\Windows\SysWOW64\tquery"._ForceMasterMerge@16
  _NtQuerySystemInformation@16="C:\Windows\SysWOW64\tquery"._NtQuerySystemInformation@16
  ciDelete="C:\Windows\SysWOW64\tquery".ciDelete
  ciNew="C:\Windows\SysWOW64\tquery".ciNew
  ciNewNoThrow="C:\Windows\SysWOW64\tquery".ciNewNoThrow
