EXPORTS
  ??0NTFS_ATTRIBUTE@@QAE@XZ="C:\Windows\SysWOW64\untfs".??0NTFS_ATTRIBUTE@@QAE@XZ
  ??0NTFS_ATTRIBUTE_DEFINITION_TABLE@@QAE@XZ="C:\Windows\SysWOW64\untfs".??0NTFS_ATTRIBUTE_DEFINITION_TABLE@@QAE@XZ
  ??0NTFS_ATTRIBUTE_LIST@@QAE@XZ="C:\Windows\SysWOW64\untfs".??0NTFS_ATTRIBUTE_LIST@@QAE@XZ
  ??0NTFS_ATTRIBUTE_RECORD@@QAE@XZ="C:\Windows\SysWOW64\untfs".??0NTFS_ATTRIBUTE_RECORD@@QAE@XZ
  ??0NTFS_BAD_CLUSTER_FILE@@QAE@XZ="C:\Windows\SysWOW64\untfs".??0NTFS_BAD_CLUSTER_FILE@@QAE@XZ
  ??0NTFS_BITMAP@@QAE@XZ="C:\Windows\SysWOW64\untfs".??0NTFS_BITMAP@@QAE@XZ
  ??0NTFS_BITMAP_FILE@@QAE@XZ="C:\Windows\SysWOW64\untfs".??0NTFS_BITMAP_FILE@@QAE@XZ
  ??0NTFS_BOOT_FILE@@QAE@XZ="C:\Windows\SysWOW64\untfs".??0NTFS_BOOT_FILE@@QAE@XZ
  ??0NTFS_CLUSTER_RUN@@QAE@XZ="C:\Windows\SysWOW64\untfs".??0NTFS_CLUSTER_RUN@@QAE@XZ
  ??0NTFS_EXTENT_LIST@@QAE@XZ="C:\Windows\SysWOW64\untfs".??0NTFS_EXTENT_LIST@@QAE@XZ
  ??0NTFS_FILE_RECORD_SEGMENT@@QAE@XZ="C:\Windows\SysWOW64\untfs".??0NTFS_FILE_RECORD_SEGMENT@@QAE@XZ
  ??0NTFS_FRS_STRUCTURE@@QAE@XZ="C:\Windows\SysWOW64\untfs".??0NTFS_FRS_STRUCTURE@@QAE@XZ
  ??0NTFS_INDEX_TREE@@QAE@XZ="C:\Windows\SysWOW64\untfs".??0NTFS_INDEX_TREE@@QAE@XZ
  ??0NTFS_LOG_FILE@@QAE@XZ="C:\Windows\SysWOW64\untfs".??0NTFS_LOG_FILE@@QAE@XZ
  ??0NTFS_MFT_FILE@@QAE@XZ="C:\Windows\SysWOW64\untfs".??0NTFS_MFT_FILE@@QAE@XZ
  ??0NTFS_MFT_INFO@@QAE@XZ="C:\Windows\SysWOW64\untfs".??0NTFS_MFT_INFO@@QAE@XZ
  ??0NTFS_REFLECTED_MASTER_FILE_TABLE@@QAE@XZ="C:\Windows\SysWOW64\untfs".??0NTFS_REFLECTED_MASTER_FILE_TABLE@@QAE@XZ
  ??0NTFS_SA@@QAE@XZ="C:\Windows\SysWOW64\untfs".??0NTFS_SA@@QAE@XZ
  ??0NTFS_UPCASE_FILE@@QAE@XZ="C:\Windows\SysWOW64\untfs".??0NTFS_UPCASE_FILE@@QAE@XZ
  ??0NTFS_UPCASE_TABLE@@QAE@XZ="C:\Windows\SysWOW64\untfs".??0NTFS_UPCASE_TABLE@@QAE@XZ
  ??0NTFS_VOLUME_FILE@@QAE@XZ="C:\Windows\SysWOW64\untfs".??0NTFS_VOLUME_FILE@@QAE@XZ
  ??1NTFS_ATTRIBUTE@@UAE@XZ="C:\Windows\SysWOW64\untfs".??1NTFS_ATTRIBUTE@@UAE@XZ
  ??1NTFS_ATTRIBUTE_DEFINITION_TABLE@@UAE@XZ="C:\Windows\SysWOW64\untfs".??1NTFS_ATTRIBUTE_DEFINITION_TABLE@@UAE@XZ
  ??1NTFS_ATTRIBUTE_LIST@@UAE@XZ="C:\Windows\SysWOW64\untfs".??1NTFS_ATTRIBUTE_LIST@@UAE@XZ
  ??1NTFS_ATTRIBUTE_RECORD@@UAE@XZ="C:\Windows\SysWOW64\untfs".??1NTFS_ATTRIBUTE_RECORD@@UAE@XZ
  ??1NTFS_BAD_CLUSTER_FILE@@UAE@XZ="C:\Windows\SysWOW64\untfs".??1NTFS_BAD_CLUSTER_FILE@@UAE@XZ
  ??1NTFS_BITMAP@@UAE@XZ="C:\Windows\SysWOW64\untfs".??1NTFS_BITMAP@@UAE@XZ
  ??1NTFS_BITMAP_FILE@@UAE@XZ="C:\Windows\SysWOW64\untfs".??1NTFS_BITMAP_FILE@@UAE@XZ
  ??1NTFS_BOOT_FILE@@UAE@XZ="C:\Windows\SysWOW64\untfs".??1NTFS_BOOT_FILE@@UAE@XZ
  ??1NTFS_CLUSTER_RUN@@UAE@XZ="C:\Windows\SysWOW64\untfs".??1NTFS_CLUSTER_RUN@@UAE@XZ
  ??1NTFS_EXTENT_LIST@@UAE@XZ="C:\Windows\SysWOW64\untfs".??1NTFS_EXTENT_LIST@@UAE@XZ
  ??1NTFS_FILE_RECORD_SEGMENT@@UAE@XZ="C:\Windows\SysWOW64\untfs".??1NTFS_FILE_RECORD_SEGMENT@@UAE@XZ
  ??1NTFS_FRS_STRUCTURE@@UAE@XZ="C:\Windows\SysWOW64\untfs".??1NTFS_FRS_STRUCTURE@@UAE@XZ
  ??1NTFS_INDEX_TREE@@UAE@XZ="C:\Windows\SysWOW64\untfs".??1NTFS_INDEX_TREE@@UAE@XZ
  ??1NTFS_LOG_FILE@@UAE@XZ="C:\Windows\SysWOW64\untfs".??1NTFS_LOG_FILE@@UAE@XZ
  ??1NTFS_MFT_FILE@@UAE@XZ="C:\Windows\SysWOW64\untfs".??1NTFS_MFT_FILE@@UAE@XZ
  ??1NTFS_MFT_INFO@@UAE@XZ="C:\Windows\SysWOW64\untfs".??1NTFS_MFT_INFO@@UAE@XZ
  ??1NTFS_REFLECTED_MASTER_FILE_TABLE@@UAE@XZ="C:\Windows\SysWOW64\untfs".??1NTFS_REFLECTED_MASTER_FILE_TABLE@@UAE@XZ
  ??1NTFS_SA@@UAE@XZ="C:\Windows\SysWOW64\untfs".??1NTFS_SA@@UAE@XZ
  ??1NTFS_UPCASE_FILE@@UAE@XZ="C:\Windows\SysWOW64\untfs".??1NTFS_UPCASE_FILE@@UAE@XZ
  ??1NTFS_UPCASE_TABLE@@UAE@XZ="C:\Windows\SysWOW64\untfs".??1NTFS_UPCASE_TABLE@@UAE@XZ
  ??1NTFS_VOLUME_FILE@@UAE@XZ="C:\Windows\SysWOW64\untfs".??1NTFS_VOLUME_FILE@@UAE@XZ
  ?AddExtent@NTFS_EXTENT_LIST@@QAEEVBIG_INT@@00@Z="C:\Windows\SysWOW64\untfs".?AddExtent@NTFS_EXTENT_LIST@@QAEEVBIG_INT@@00@Z
  ?AddFileNameAttribute@NTFS_FILE_RECORD_SEGMENT@@QAEEPAU_FILE_NAME@@@Z="C:\Windows\SysWOW64\untfs".?AddFileNameAttribute@NTFS_FILE_RECORD_SEGMENT@@QAEEPAU_FILE_NAME@@@Z
  ?AddSecurityDescriptor@NTFS_FILE_RECORD_SEGMENT@@QAEEW4_CANNED_SECURITY_TYPE@@PAVNTFS_BITMAP@@@Z="C:\Windows\SysWOW64\untfs".?AddSecurityDescriptor@NTFS_FILE_RECORD_SEGMENT@@QAEEW4_CANNED_SECURITY_TYPE@@PAVNTFS_BITMAP@@@Z
  ?AddSecurityDescriptorData@NTFS_FILE_RECORD_SEGMENT@@QAEEPAVNTFS_ATTRIBUTE@@PAXPAPAU_SECURITY_ENTRY@@KW4_CANNED_SECURITY_TYPE@@PAVNTFS_BITMAP@@W4FIX_LEVEL@@@Z="C:\Windows\SysWOW64\untfs".?AddSecurityDescriptorData@NTFS_FILE_RECORD_SEGMENT@@QAEEPAVNTFS_ATTRIBUTE@@PAXPAPAU_SECURITY_ENTRY@@KW4_CANNED_SECURITY_TYPE@@PAVNTFS_BITMAP@@W4FIX_LEVEL@@@Z
  ?AllocateFileRecordSegment@NTFS_MASTER_FILE_TABLE@@QAEEPAVBIG_INT@@E@Z="C:\Windows\SysWOW64\untfs".?AllocateFileRecordSegment@NTFS_MASTER_FILE_TABLE@@QAEEPAVBIG_INT@@E@Z
  ?CompareDupInfo@NTFS_MFT_INFO@@SGEPAXPAU_FILE_NAME@@@Z="C:\Windows\SysWOW64\untfs".?CompareDupInfo@NTFS_MFT_INFO@@SGEPAXPAU_FILE_NAME@@@Z
  ?CompareFileName@NTFS_MFT_INFO@@SGEPAXKPAU_FILE_NAME@@PAG@Z="C:\Windows\SysWOW64\untfs".?CompareFileName@NTFS_MFT_INFO@@SGEPAXKPAU_FILE_NAME@@PAG@Z
  ?ComputeDupInfoSignature@NTFS_MFT_INFO@@CGXPAU_DUPLICATED_INFORMATION@@QAE@Z="C:\Windows\SysWOW64\untfs".?ComputeDupInfoSignature@NTFS_MFT_INFO@@CGXPAU_DUPLICATED_INFORMATION@@QAE@Z
  ?ComputeFileNameSignature@NTFS_MFT_INFO@@CGXKPAU_FILE_NAME@@QAE@Z="C:\Windows\SysWOW64\untfs".?ComputeFileNameSignature@NTFS_MFT_INFO@@CGXKPAU_FILE_NAME@@QAE@Z
  ?CopyIterator@NTFS_INDEX_TREE@@QAEEPAV1@@Z="C:\Windows\SysWOW64\untfs".?CopyIterator@NTFS_INDEX_TREE@@QAEEPAV1@@Z
  ?Create@NTFS_FILE_RECORD_SEGMENT@@QAEEPBU_STANDARD_INFORMATION@@G@Z="C:\Windows\SysWOW64\untfs".?Create@NTFS_FILE_RECORD_SEGMENT@@QAEEPBU_STANDARD_INFORMATION@@G@Z
  ?CreateDataAttribute@NTFS_LOG_FILE@@QAEEVBIG_INT@@KPAVNTFS_BITMAP@@@Z="C:\Windows\SysWOW64\untfs".?CreateDataAttribute@NTFS_LOG_FILE@@QAEEVBIG_INT@@KPAVNTFS_BITMAP@@@Z
  ?CreateElementaryStructures@NTFS_SA@@QAEEPAVNTFS_BITMAP@@KKKKPBVNUMBER_SET@@EEEEEKPAVMESSAGE@@PAUBIOS_PARAMETER_BLOCK@@PBVWSTRING@@E@Z="C:\Windows\SysWOW64\untfs".?CreateElementaryStructures@NTFS_SA@@QAEEPAVNTFS_BITMAP@@KKKKPBVNUMBER_SET@@EEEEEKPAVMESSAGE@@PAUBIOS_PARAMETER_BLOCK@@PBVWSTRING@@E@Z
  ?Extend@NTFS_MASTER_FILE_TABLE@@QAEEK@Z="C:\Windows\SysWOW64\untfs".?Extend@NTFS_MASTER_FILE_TABLE@@QAEEK@Z
  ?Flush@NTFS_FILE_RECORD_SEGMENT@@QAEEPAVNTFS_BITMAP@@PAVNTFS_INDEX_TREE@@E@Z="C:\Windows\SysWOW64\untfs".?Flush@NTFS_FILE_RECORD_SEGMENT@@QAEEPAVNTFS_BITMAP@@PAVNTFS_INDEX_TREE@@E@Z
  ?Flush@NTFS_MFT_FILE@@QAEEXZ="C:\Windows\SysWOW64\untfs".?Flush@NTFS_MFT_FILE@@QAEEXZ
  ?GetNext@NTFS_INDEX_TREE@@QAEPBU_INDEX_ENTRY@@PAKPAEE@Z="C:\Windows\SysWOW64\untfs".?GetNext@NTFS_INDEX_TREE@@QAEPBU_INDEX_ENTRY@@PAKPAEE@Z
  ?GetNextAttributeListEntry@NTFS_ATTRIBUTE_LIST@@QBEPBU_ATTRIBUTE_LIST_ENTRY@@PBU2@@Z="C:\Windows\SysWOW64\untfs".?GetNextAttributeListEntry@NTFS_ATTRIBUTE_LIST@@QBEPBU_ATTRIBUTE_LIST_ENTRY@@PBU2@@Z
  ?GetNextAttributeRecord@NTFS_FRS_STRUCTURE@@QAEPAXPBXPAVMESSAGE@@PAE@Z="C:\Windows\SysWOW64\untfs".?GetNextAttributeRecord@NTFS_FRS_STRUCTURE@@QAEPAXPBXPAVMESSAGE@@PAE@Z
  ?GetRootFrsIndex@NTFS_SA@@SGEW4FIX_LEVEL@@PAVNTFS_MFT_FILE@@PAVNTFS_FILE_RECORD_SEGMENT@@PAVNTFS_INDEX_TREE@@@Z="C:\Windows\SysWOW64\untfs".?GetRootFrsIndex@NTFS_SA@@SGEW4FIX_LEVEL@@PAVNTFS_MFT_FILE@@PAVNTFS_FILE_RECORD_SEGMENT@@PAVNTFS_INDEX_TREE@@@Z
  ?GrowSparse@NTFS_ATTRIBUTE@@UAEEVBIG_INT@@PAVNTFS_BITMAP@@E@Z="C:\Windows\SysWOW64\untfs".?GrowSparse@NTFS_ATTRIBUTE@@UAEEVBIG_INT@@PAVNTFS_BITMAP@@E@Z
  ?Initialize@NTFS_ATTRIBUTE@@QAEEPAVLOG_IO_DP_DRIVE@@KPBVNTFS_EXTENT_LIST@@VBIG_INT@@2KPBVWSTRING@@G@Z="C:\Windows\SysWOW64\untfs".?Initialize@NTFS_ATTRIBUTE@@QAEEPAVLOG_IO_DP_DRIVE@@KPBVNTFS_EXTENT_LIST@@VBIG_INT@@2KPBVWSTRING@@G@Z
  ?Initialize@NTFS_ATTRIBUTE@@QAEEPAVLOG_IO_DP_DRIVE@@KPBXKKPBVWSTRING@@G@Z="C:\Windows\SysWOW64\untfs".?Initialize@NTFS_ATTRIBUTE@@QAEEPAVLOG_IO_DP_DRIVE@@KPBXKKPBVWSTRING@@G@Z
  ?Initialize@NTFS_ATTRIBUTE_DEFINITION_TABLE@@QAEEW4FIX_LEVEL@@PAVNTFS_MASTER_FILE_TABLE@@E@Z="C:\Windows\SysWOW64\untfs".?Initialize@NTFS_ATTRIBUTE_DEFINITION_TABLE@@QAEEW4FIX_LEVEL@@PAVNTFS_MASTER_FILE_TABLE@@E@Z
  ?Initialize@NTFS_ATTRIBUTE_RECORD@@QAEEPAVIO_DP_DRIVE@@PAX@Z="C:\Windows\SysWOW64\untfs".?Initialize@NTFS_ATTRIBUTE_RECORD@@QAEEPAVIO_DP_DRIVE@@PAX@Z
  ?Initialize@NTFS_BAD_CLUSTER_FILE@@QAEEW4FIX_LEVEL@@PAVNTFS_MASTER_FILE_TABLE@@@Z="C:\Windows\SysWOW64\untfs".?Initialize@NTFS_BAD_CLUSTER_FILE@@QAEEW4FIX_LEVEL@@PAVNTFS_MASTER_FILE_TABLE@@@Z
  ?Initialize@NTFS_BITMAP@@QAEEVBIG_INT@@EPAVLOG_IO_DP_DRIVE@@KE@Z="C:\Windows\SysWOW64\untfs".?Initialize@NTFS_BITMAP@@QAEEVBIG_INT@@EPAVLOG_IO_DP_DRIVE@@KE@Z
  ?Initialize@NTFS_BITMAP_FILE@@QAEEW4FIX_LEVEL@@PAVNTFS_MASTER_FILE_TABLE@@@Z="C:\Windows\SysWOW64\untfs".?Initialize@NTFS_BITMAP_FILE@@QAEEW4FIX_LEVEL@@PAVNTFS_MASTER_FILE_TABLE@@@Z
  ?Initialize@NTFS_BOOT_FILE@@QAEEW4FIX_LEVEL@@PAVNTFS_MASTER_FILE_TABLE@@@Z="C:\Windows\SysWOW64\untfs".?Initialize@NTFS_BOOT_FILE@@QAEEW4FIX_LEVEL@@PAVNTFS_MASTER_FILE_TABLE@@@Z
  ?Initialize@NTFS_CLUSTER_RUN@@QAEEPAVMEM@@PAVLOG_IO_DP_DRIVE@@VBIG_INT@@KK@Z="C:\Windows\SysWOW64\untfs".?Initialize@NTFS_CLUSTER_RUN@@QAEEPAVMEM@@PAVLOG_IO_DP_DRIVE@@VBIG_INT@@KK@Z
  ?Initialize@NTFS_EXTENT_LIST@@QAEEVBIG_INT@@0@Z="C:\Windows\SysWOW64\untfs".?Initialize@NTFS_EXTENT_LIST@@QAEEVBIG_INT@@0@Z
  ?Initialize@NTFS_FILE_RECORD_SEGMENT@@QAEEW4FIX_LEVEL@@@Z="C:\Windows\SysWOW64\untfs".?Initialize@NTFS_FILE_RECORD_SEGMENT@@QAEEW4FIX_LEVEL@@@Z
  ?Initialize@NTFS_FILE_RECORD_SEGMENT@@QAEEW4FIX_LEVEL@@PAVNTFS_FRS_STRUCTURE@@PAVNTFS_MASTER_FILE_TABLE@@@Z="C:\Windows\SysWOW64\untfs".?Initialize@NTFS_FILE_RECORD_SEGMENT@@QAEEW4FIX_LEVEL@@PAVNTFS_FRS_STRUCTURE@@PAVNTFS_MASTER_FILE_TABLE@@@Z
  ?Initialize@NTFS_FILE_RECORD_SEGMENT@@QAEEW4FIX_LEVEL@@VBIG_INT@@KPAVNTFS_MASTER_FILE_TABLE@@@Z="C:\Windows\SysWOW64\untfs".?Initialize@NTFS_FILE_RECORD_SEGMENT@@QAEEW4FIX_LEVEL@@VBIG_INT@@KPAVNTFS_MASTER_FILE_TABLE@@@Z
  ?Initialize@NTFS_FILE_RECORD_SEGMENT@@QAEEW4FIX_LEVEL@@VBIG_INT@@PAVNTFS_MASTER_FILE_TABLE@@@Z="C:\Windows\SysWOW64\untfs".?Initialize@NTFS_FILE_RECORD_SEGMENT@@QAEEW4FIX_LEVEL@@VBIG_INT@@PAVNTFS_MASTER_FILE_TABLE@@@Z
  ?Initialize@NTFS_FILE_RECORD_SEGMENT@@QAEEW4FIX_LEVEL@@VBIG_INT@@PAVNTFS_MFT_FILE@@@Z="C:\Windows\SysWOW64\untfs".?Initialize@NTFS_FILE_RECORD_SEGMENT@@QAEEW4FIX_LEVEL@@VBIG_INT@@PAVNTFS_MFT_FILE@@@Z
  ?Initialize@NTFS_FRS_STRUCTURE@@QAEEPAU_FILE_RECORD_SEGMENT_HEADER@@PAVNTFS_ATTRIBUTE@@VBIG_INT@@KK2KPAVNTFS_UPCASE_TABLE@@@Z="C:\Windows\SysWOW64\untfs".?Initialize@NTFS_FRS_STRUCTURE@@QAEEPAU_FILE_RECORD_SEGMENT_HEADER@@PAVNTFS_ATTRIBUTE@@VBIG_INT@@KK2KPAVNTFS_UPCASE_TABLE@@@Z
  ?Initialize@NTFS_FRS_STRUCTURE@@QAEEPAVMEM@@PAVLOG_IO_DP_DRIVE@@VBIG_INT@@K2KPAVNTFS_UPCASE_TABLE@@K@Z="C:\Windows\SysWOW64\untfs".?Initialize@NTFS_FRS_STRUCTURE@@QAEEPAVMEM@@PAVLOG_IO_DP_DRIVE@@VBIG_INT@@K2KPAVNTFS_UPCASE_TABLE@@K@Z
  ?Initialize@NTFS_FRS_STRUCTURE@@QAEEPAVMEM@@PAVNTFS_ATTRIBUTE@@VBIG_INT@@K2KPAVNTFS_UPCASE_TABLE@@@Z="C:\Windows\SysWOW64\untfs".?Initialize@NTFS_FRS_STRUCTURE@@QAEEPAVMEM@@PAVNTFS_ATTRIBUTE@@VBIG_INT@@K2KPAVNTFS_UPCASE_TABLE@@@Z
  ?Initialize@NTFS_FRS_STRUCTURE@@QAEEPAVMEM@@PAVNTFS_ATTRIBUTE@@VBIG_INT@@KK2KPAVNTFS_UPCASE_TABLE@@@Z="C:\Windows\SysWOW64\untfs".?Initialize@NTFS_FRS_STRUCTURE@@QAEEPAVMEM@@PAVNTFS_ATTRIBUTE@@VBIG_INT@@KK2KPAVNTFS_UPCASE_TABLE@@@Z
  ?Initialize@NTFS_INDEX_TREE@@QAEEKPAVLOG_IO_DP_DRIVE@@KPAVNTFS_BITMAP@@PAVNTFS_UPCASE_TABLE@@KKKPBVWSTRING@@@Z="C:\Windows\SysWOW64\untfs".?Initialize@NTFS_INDEX_TREE@@QAEEKPAVLOG_IO_DP_DRIVE@@KPAVNTFS_BITMAP@@PAVNTFS_UPCASE_TABLE@@KKKPBVWSTRING@@@Z
  ?Initialize@NTFS_INDEX_TREE@@QAEEPAVLOG_IO_DP_DRIVE@@KPAVNTFS_BITMAP@@PAVNTFS_UPCASE_TABLE@@KPAVNTFS_FILE_RECORD_SEGMENT@@PBVWSTRING@@@Z="C:\Windows\SysWOW64\untfs".?Initialize@NTFS_INDEX_TREE@@QAEEPAVLOG_IO_DP_DRIVE@@KPAVNTFS_BITMAP@@PAVNTFS_UPCASE_TABLE@@KPAVNTFS_FILE_RECORD_SEGMENT@@PBVWSTRING@@@Z
  ?Initialize@NTFS_LOG_FILE@@QAEEW4FIX_LEVEL@@PAVNTFS_MASTER_FILE_TABLE@@@Z="C:\Windows\SysWOW64\untfs".?Initialize@NTFS_LOG_FILE@@QAEEW4FIX_LEVEL@@PAVNTFS_MASTER_FILE_TABLE@@@Z
  ?Initialize@NTFS_MFT_FILE@@QAEEW4FIX_LEVEL@@PAVLOG_IO_DP_DRIVE@@VBIG_INT@@KK2PAVNTFS_BITMAP@@PAVNTFS_UPCASE_TABLE@@PAVNTFS_ATTRIBUTE@@@Z="C:\Windows\SysWOW64\untfs".?Initialize@NTFS_MFT_FILE@@QAEEW4FIX_LEVEL@@PAVLOG_IO_DP_DRIVE@@VBIG_INT@@KK2PAVNTFS_BITMAP@@PAVNTFS_UPCASE_TABLE@@PAVNTFS_ATTRIBUTE@@@Z
  ?Initialize@NTFS_MFT_INFO@@QAEEVBIG_INT@@PAVNTFS_UPCASE_TABLE@@EE_K@Z="C:\Windows\SysWOW64\untfs".?Initialize@NTFS_MFT_INFO@@QAEEVBIG_INT@@PAVNTFS_UPCASE_TABLE@@EE_K@Z
  ?Initialize@NTFS_MFT_INFO@@QAEEXZ="C:\Windows\SysWOW64\untfs".?Initialize@NTFS_MFT_INFO@@QAEEXZ
  ?Initialize@NTFS_REFLECTED_MASTER_FILE_TABLE@@QAEEW4FIX_LEVEL@@PAVNTFS_MASTER_FILE_TABLE@@@Z="C:\Windows\SysWOW64\untfs".?Initialize@NTFS_REFLECTED_MASTER_FILE_TABLE@@QAEEW4FIX_LEVEL@@PAVNTFS_MASTER_FILE_TABLE@@@Z
  ?Initialize@NTFS_SA@@QAEEPAVLOG_IO_DP_DRIVE@@PAVMESSAGE@@VBIG_INT@@2KE@Z="C:\Windows\SysWOW64\untfs".?Initialize@NTFS_SA@@QAEEPAVLOG_IO_DP_DRIVE@@PAVMESSAGE@@VBIG_INT@@2KE@Z
  ?Initialize@NTFS_UPCASE_FILE@@QAEEW4FIX_LEVEL@@PAVNTFS_MASTER_FILE_TABLE@@@Z="C:\Windows\SysWOW64\untfs".?Initialize@NTFS_UPCASE_FILE@@QAEEW4FIX_LEVEL@@PAVNTFS_MASTER_FILE_TABLE@@@Z
  ?Initialize@NTFS_UPCASE_TABLE@@QAEEPAGK@Z="C:\Windows\SysWOW64\untfs".?Initialize@NTFS_UPCASE_TABLE@@QAEEPAGK@Z
  ?Initialize@NTFS_UPCASE_TABLE@@QAEEPAVNTFS_ATTRIBUTE@@PA_K@Z="C:\Windows\SysWOW64\untfs".?Initialize@NTFS_UPCASE_TABLE@@QAEEPAVNTFS_ATTRIBUTE@@PA_K@Z
  ?Initialize@NTFS_UPCASE_TABLE@@QAEEXZ="C:\Windows\SysWOW64\untfs".?Initialize@NTFS_UPCASE_TABLE@@QAEEXZ
  ?Initialize@NTFS_VOLUME_FILE@@QAEEPAVLOG_IO_DP_DRIVE@@PAVNTFS_MASTER_FILE_TABLE@@PAVNTFS_FILE_RECORD_SEGMENT@@PAVNTFS_INDEX_TREE@@PAU_VOLUME_INFORMATION@@PAVWSTRING@@W4FIX_LEVEL@@@Z="C:\Windows\SysWOW64\untfs".?Initialize@NTFS_VOLUME_FILE@@QAEEPAVLOG_IO_DP_DRIVE@@PAVNTFS_MASTER_FILE_TABLE@@PAVNTFS_FILE_RECORD_SEGMENT@@PAVNTFS_INDEX_TREE@@PAU_VOLUME_INFORMATION@@PAVWSTRING@@W4FIX_LEVEL@@@Z
  ?InsertEntry@NTFS_INDEX_TREE@@QAEEKPAXU_MFT_SEGMENT_REFERENCE@@E@Z="C:\Windows\SysWOW64\untfs".?InsertEntry@NTFS_INDEX_TREE@@QAEEKPAXU_MFT_SEGMENT_REFERENCE@@E@Z
  ?InsertIntoFile@NTFS_ATTRIBUTE@@UAEEPAVNTFS_FILE_RECORD_SEGMENT@@PAVNTFS_BITMAP@@@Z="C:\Windows\SysWOW64\untfs".?InsertIntoFile@NTFS_ATTRIBUTE@@UAEEPAVNTFS_FILE_RECORD_SEGMENT@@PAVNTFS_BITMAP@@@Z
  ?IsAllocated@NTFS_BITMAP@@QBEEVBIG_INT@@0@Z="C:\Windows\SysWOW64\untfs".?IsAllocated@NTFS_BITMAP@@QBEEVBIG_INT@@0@Z
  ?IsAttributePresent@NTFS_FILE_RECORD_SEGMENT@@QAEEKPBVWSTRING@@E@Z="C:\Windows\SysWOW64\untfs".?IsAttributePresent@NTFS_FILE_RECORD_SEGMENT@@QAEEKPBVWSTRING@@E@Z
  ?IsDosName@NTFS_SA@@SGEPBU_FILE_NAME@@@Z="C:\Windows\SysWOW64\untfs".?IsDosName@NTFS_SA@@SGEPBU_FILE_NAME@@@Z
  ?IsFree@NTFS_BITMAP@@QBEEVBIG_INT@@0@Z="C:\Windows\SysWOW64\untfs".?IsFree@NTFS_BITMAP@@QBEEVBIG_INT@@0@Z
  ?IsNtfsName@NTFS_SA@@SGEPBU_FILE_NAME@@@Z="C:\Windows\SysWOW64\untfs".?IsNtfsName@NTFS_SA@@SGEPBU_FILE_NAME@@@Z
  ?MakeNonresident@NTFS_ATTRIBUTE@@UAEEPAVNTFS_BITMAP@@@Z="C:\Windows\SysWOW64\untfs".?MakeNonresident@NTFS_ATTRIBUTE@@UAEEPAVNTFS_BITMAP@@@Z
  ?Prefetch@NTFS_ATTRIBUTE@@QAEEVBIG_INT@@K@Z="C:\Windows\SysWOW64\untfs".?Prefetch@NTFS_ATTRIBUTE@@QAEEVBIG_INT@@K@Z
  ?Prefetch@NTFS_FRS_STRUCTURE@@QAEEVBIG_INT@@0@Z="C:\Windows\SysWOW64\untfs".?Prefetch@NTFS_FRS_STRUCTURE@@QAEEVBIG_INT@@0@Z
  ?QueryAttribute@NTFS_FILE_RECORD_SEGMENT@@QAEEPAVNTFS_ATTRIBUTE@@PAEKPBVWSTRING@@@Z="C:\Windows\SysWOW64\untfs".?QueryAttribute@NTFS_FILE_RECORD_SEGMENT@@QAEEPAVNTFS_ATTRIBUTE@@PAEKPBVWSTRING@@@Z
  ?QueryAttributeByOrdinal@NTFS_FILE_RECORD_SEGMENT@@QAEEPAVNTFS_ATTRIBUTE@@PAEKK@Z="C:\Windows\SysWOW64\untfs".?QueryAttributeByOrdinal@NTFS_FILE_RECORD_SEGMENT@@QAEEPAVNTFS_ATTRIBUTE@@PAEKK@Z
  ?QueryAttributeList@NTFS_FRS_STRUCTURE@@QAEEPAVNTFS_ATTRIBUTE_LIST@@@Z="C:\Windows\SysWOW64\untfs".?QueryAttributeList@NTFS_FRS_STRUCTURE@@QAEEPAVNTFS_ATTRIBUTE_LIST@@@Z
  ?QueryAttributeListAttribute@NTFS_FILE_RECORD_SEGMENT@@QAEEPAVNTFS_ATTRIBUTE@@PAE@Z="C:\Windows\SysWOW64\untfs".?QueryAttributeListAttribute@NTFS_FILE_RECORD_SEGMENT@@QAEEPAVNTFS_ATTRIBUTE@@PAE@Z
  ?QueryClusterFactor@NTFS_SA@@QBEKXZ="C:\Windows\SysWOW64\untfs".?QueryClusterFactor@NTFS_SA@@QBEKXZ
  ?QueryClustersAllocated@NTFS_ATTRIBUTE@@QBE?AVBIG_INT@@XZ="C:\Windows\SysWOW64\untfs".?QueryClustersAllocated@NTFS_ATTRIBUTE@@QBE?AVBIG_INT@@XZ
  ?QueryDefaultClustersPerIndexBuffer@NTFS_SA@@SGKPBVDP_DRIVE@@K@Z="C:\Windows\SysWOW64\untfs".?QueryDefaultClustersPerIndexBuffer@NTFS_SA@@SGKPBVDP_DRIVE@@K@Z
  ?QueryDuplicatedInformation@NTFS_FILE_RECORD_SEGMENT@@QAEEPAU_DUPLICATED_INFORMATION@@@Z="C:\Windows\SysWOW64\untfs".?QueryDuplicatedInformation@NTFS_FILE_RECORD_SEGMENT@@QAEEPAU_DUPLICATED_INFORMATION@@@Z
  ?QueryEntry@NTFS_INDEX_TREE@@QAEEKPAXKPAPAU_INDEX_ENTRY@@PAPAVNTFS_INDEX_BUFFER@@PAE@Z="C:\Windows\SysWOW64\untfs".?QueryEntry@NTFS_INDEX_TREE@@QAEEKPAXKPAPAU_INDEX_ENTRY@@PAPAVNTFS_INDEX_BUFFER@@PAE@Z
  ?QueryExtent@NTFS_EXTENT_LIST@@QBEEKPAVBIG_INT@@00@Z="C:\Windows\SysWOW64\untfs".?QueryExtent@NTFS_EXTENT_LIST@@QBEEKPAVBIG_INT@@00@Z
  ?QueryExtentList@NTFS_ATTRIBUTE_RECORD@@QBEEPAVNTFS_EXTENT_LIST@@@Z="C:\Windows\SysWOW64\untfs".?QueryExtentList@NTFS_ATTRIBUTE_RECORD@@QBEEPAVNTFS_EXTENT_LIST@@@Z
  ?QueryFileReference@NTFS_INDEX_TREE@@QAEEKPAXKPAU_MFT_SEGMENT_REFERENCE@@PAE@Z="C:\Windows\SysWOW64\untfs".?QueryFileReference@NTFS_INDEX_TREE@@QAEEKPAXKPAU_MFT_SEGMENT_REFERENCE@@PAE@Z
  ?QueryFileSizes@NTFS_FILE_RECORD_SEGMENT@@QAEEPAVBIG_INT@@0PAE@Z="C:\Windows\SysWOW64\untfs".?QueryFileSizes@NTFS_FILE_RECORD_SEGMENT@@QAEEPAVBIG_INT@@0PAE@Z
  ?QueryFlags@NTFS_MFT_INFO@@SGEPAXG@Z="C:\Windows\SysWOW64\untfs".?QueryFlags@NTFS_MFT_INFO@@SGEPAXG@Z
  ?QueryFrsFromPath@NTFS_SA@@QAEEW4FIX_LEVEL@@PBVWSTRING@@PAVNTFS_MASTER_FILE_TABLE@@PAVNTFS_BITMAP@@PAVNTFS_FILE_RECORD_SEGMENT@@PAE5@Z="C:\Windows\SysWOW64\untfs".?QueryFrsFromPath@NTFS_SA@@QAEEW4FIX_LEVEL@@PBVWSTRING@@PAVNTFS_MASTER_FILE_TABLE@@PAVNTFS_BITMAP@@PAVNTFS_FILE_RECORD_SEGMENT@@PAE5@Z
  ?QueryLcnFromVcn@NTFS_EXTENT_LIST@@QBEEVBIG_INT@@PAV2@1@Z="C:\Windows\SysWOW64\untfs".?QueryLcnFromVcn@NTFS_EXTENT_LIST@@QBEEVBIG_INT@@PAV2@1@Z
  ?QueryName@NTFS_ATTRIBUTE_RECORD@@QBEEPAVWSTRING@@@Z="C:\Windows\SysWOW64\untfs".?QueryName@NTFS_ATTRIBUTE_RECORD@@QBEEPAVWSTRING@@@Z
  ?QueryNextEntry@NTFS_ATTRIBUTE_LIST@@QBEEPAU_ATTR_LIST_CURR_ENTRY@@PAKPAVBIG_INT@@PAU_MFT_SEGMENT_REFERENCE@@PAGPAVWSTRING@@@Z="C:\Windows\SysWOW64\untfs".?QueryNextEntry@NTFS_ATTRIBUTE_LIST@@QBEEPAU_ATTR_LIST_CURR_ENTRY@@PAKPAVBIG_INT@@PAU_MFT_SEGMENT_REFERENCE@@PAGPAVWSTRING@@@Z
  ?QueryNumberOfExtents@NTFS_EXTENT_LIST@@QBEKXZ="C:\Windows\SysWOW64\untfs".?QueryNumberOfExtents@NTFS_EXTENT_LIST@@QBEKXZ
  ?QuerySectorsInElementaryStructures@NTFS_SA@@SGKPAVDP_DRIVE@@KKKKE@Z="C:\Windows\SysWOW64\untfs".?QuerySectorsInElementaryStructures@NTFS_SA@@SGKPAVDP_DRIVE@@KKKKE@Z
  ?QuerySegmentReference@NTFS_MFT_INFO@@SG?AU_MFT_SEGMENT_REFERENCE@@PAX@Z="C:\Windows\SysWOW64\untfs".?QuerySegmentReference@NTFS_MFT_INFO@@SG?AU_MFT_SEGMENT_REFERENCE@@PAX@Z
  ?QueryVolumeFlagsAndLabel@NTFS_SA@@QAEGPAE00PAVWSTRING@@@Z="C:\Windows\SysWOW64\untfs".?QueryVolumeFlagsAndLabel@NTFS_SA@@QAEGPAE00PAVWSTRING@@@Z
  ?Read@NTFS_ATTRIBUTE@@QAEEPAXVBIG_INT@@KPAK@Z="C:\Windows\SysWOW64\untfs".?Read@NTFS_ATTRIBUTE@@QAEEPAXVBIG_INT@@KPAK@Z
  ?Read@NTFS_FRS_STRUCTURE@@QAEEVBIG_INT@@@Z="C:\Windows\SysWOW64\untfs".?Read@NTFS_FRS_STRUCTURE@@QAEEVBIG_INT@@@Z
  ?Read@NTFS_FRS_STRUCTURE@@UAEEXZ="C:\Windows\SysWOW64\untfs".?Read@NTFS_FRS_STRUCTURE@@UAEEXZ
  ?Read@NTFS_MFT_FILE@@UAEEXZ="C:\Windows\SysWOW64\untfs".?Read@NTFS_MFT_FILE@@UAEEXZ
  ?Read@NTFS_SA@@QAEEPAVMESSAGE@@@Z="C:\Windows\SysWOW64\untfs".?Read@NTFS_SA@@QAEEPAVMESSAGE@@@Z
  ?Read@NTFS_SA@@UAEEXZ="C:\Windows\SysWOW64\untfs".?Read@NTFS_SA@@UAEEXZ
  ?ReadAgain@NTFS_FRS_STRUCTURE@@QAEEVBIG_INT@@@Z="C:\Windows\SysWOW64\untfs".?ReadAgain@NTFS_FRS_STRUCTURE@@QAEEVBIG_INT@@@Z
  ?ReadAt@NTFS_FRS_STRUCTURE@@QAEEVBIG_INT@@@Z="C:\Windows\SysWOW64\untfs".?ReadAt@NTFS_FRS_STRUCTURE@@QAEEVBIG_INT@@@Z
  ?ReadList@NTFS_ATTRIBUTE_LIST@@QAEEXZ="C:\Windows\SysWOW64\untfs".?ReadList@NTFS_ATTRIBUTE_LIST@@QAEEXZ
  ?ReadNext@NTFS_FRS_STRUCTURE@@QAEEVBIG_INT@@@Z="C:\Windows\SysWOW64\untfs".?ReadNext@NTFS_FRS_STRUCTURE@@QAEEVBIG_INT@@@Z
  ?ReadWithAltExtents@NTFS_ATTRIBUTE@@QAEEPAXVBIG_INT@@KPAKPAVNTFS_EXTENT_LIST@@@Z="C:\Windows\SysWOW64\untfs".?ReadWithAltExtents@NTFS_ATTRIBUTE@@QAEEPAXVBIG_INT@@KPAKPAVNTFS_EXTENT_LIST@@@Z
  ?Relocate@NTFS_CLUSTER_RUN@@QAEXVBIG_INT@@@Z="C:\Windows\SysWOW64\untfs".?Relocate@NTFS_CLUSTER_RUN@@QAEXVBIG_INT@@@Z
  ?ResetIterator@NTFS_INDEX_TREE@@QAEEE@Z="C:\Windows\SysWOW64\untfs".?ResetIterator@NTFS_INDEX_TREE@@QAEEE@Z
  ?ResetIterator@NTFS_INDEX_TREE@@QAEEPBU_INDEX_ENTRY@@E@Z="C:\Windows\SysWOW64\untfs".?ResetIterator@NTFS_INDEX_TREE@@QAEEPBU_INDEX_ENTRY@@E@Z
  ?Resize@NTFS_ATTRIBUTE@@UAEEVBIG_INT@@PAVNTFS_BITMAP@@@Z="C:\Windows\SysWOW64\untfs".?Resize@NTFS_ATTRIBUTE@@UAEEVBIG_INT@@PAVNTFS_BITMAP@@@Z
  ?SafeQueryAttribute@NTFS_FRS_STRUCTURE@@QAEEKPAVNTFS_ATTRIBUTE@@0PAVWSTRING@@@Z="C:\Windows\SysWOW64\untfs".?SafeQueryAttribute@NTFS_FRS_STRUCTURE@@QAEEKPAVNTFS_ATTRIBUTE@@0PAVWSTRING@@@Z
  ?Save@NTFS_INDEX_TREE@@QAEEPAVNTFS_FILE_RECORD_SEGMENT@@@Z="C:\Windows\SysWOW64\untfs".?Save@NTFS_INDEX_TREE@@QAEEPAVNTFS_FILE_RECORD_SEGMENT@@@Z
  ?SetSparse@NTFS_ATTRIBUTE@@UAEEVBIG_INT@@PAVNTFS_BITMAP@@E@Z="C:\Windows\SysWOW64\untfs".?SetSparse@NTFS_ATTRIBUTE@@UAEEVBIG_INT@@PAVNTFS_BITMAP@@E@Z
  ?SetVolumeFlag@NTFS_SA@@QAEEGPAE@Z="C:\Windows\SysWOW64\untfs".?SetVolumeFlag@NTFS_SA@@QAEEGPAE@Z
  ?TakeCensus@NTFS_SA@@QAEEPAVNTFS_MASTER_FILE_TABLE@@KPAUNTFS_CENSUS_INFO@@@Z="C:\Windows\SysWOW64\untfs".?TakeCensus@NTFS_SA@@QAEEPAVNTFS_MASTER_FILE_TABLE@@KPAUNTFS_CENSUS_INFO@@@Z
  ?Write@NTFS_ATTRIBUTE@@UAEEPBXVBIG_INT@@KPAKPAVNTFS_BITMAP@@@Z="C:\Windows\SysWOW64\untfs".?Write@NTFS_ATTRIBUTE@@UAEEPBXVBIG_INT@@KPAKPAVNTFS_BITMAP@@@Z
  ?Write@NTFS_BITMAP@@QAEEPAVNTFS_ATTRIBUTE@@PAV1@@Z="C:\Windows\SysWOW64\untfs".?Write@NTFS_BITMAP@@QAEEPAVNTFS_ATTRIBUTE@@PAV1@@Z
  ?Write@NTFS_FILE_RECORD_SEGMENT@@UAEEXZ="C:\Windows\SysWOW64\untfs".?Write@NTFS_FILE_RECORD_SEGMENT@@UAEEXZ
  ?Write@NTFS_FRS_STRUCTURE@@QAEEXZ="C:\Windows\SysWOW64\untfs".?Write@NTFS_FRS_STRUCTURE@@QAEEXZ
  ?WriteModified@NTFS_BITMAP@@QAEEPAVNTFS_ATTRIBUTE@@PAV1@@Z="C:\Windows\SysWOW64\untfs".?WriteModified@NTFS_BITMAP@@QAEEPAVNTFS_ATTRIBUTE@@PAV1@@Z
  ?WriteRemainingBootCode@NTFS_SA@@QAEEXZ="C:\Windows\SysWOW64\untfs".?WriteRemainingBootCode@NTFS_SA@@QAEEXZ
  Chkdsk="C:\Windows\SysWOW64\untfs".Chkdsk
  ChkdskEx="C:\Windows\SysWOW64\untfs".ChkdskEx
  CreateFormatCorruptionRecordContext="C:\Windows\SysWOW64\untfs".CreateFormatCorruptionRecordContext
  DeleteFormatCorruptionRecordContext="C:\Windows\SysWOW64\untfs".DeleteFormatCorruptionRecordContext
  Extend="C:\Windows\SysWOW64\untfs".Extend
  Format="C:\Windows\SysWOW64\untfs".Format
  FormatCorruptionRecordA="C:\Windows\SysWOW64\untfs".FormatCorruptionRecordA
  FormatCorruptionRecordW="C:\Windows\SysWOW64\untfs".FormatCorruptionRecordW
  FormatEx="C:\Windows\SysWOW64\untfs".FormatEx
  GetFilesystemInformation="C:\Windows\SysWOW64\untfs".GetFilesystemInformation
  NtfsUpcaseCompare="C:\Windows\SysWOW64\untfs".NtfsUpcaseCompare
  Recover="C:\Windows\SysWOW64\untfs".Recover
  SetOriginalVolumeName="C:\Windows\SysWOW64\untfs".SetOriginalVolumeName
  SetWriteViewCacheVolumeName="C:\Windows\SysWOW64\untfs".SetWriteViewCacheVolumeName
