EXPORTS
  ??0?$CSimpleArray@PAU_BLOCKED_REASON@@V?$CSimpleArrayEqualHelper@PAU_BLOCKED_REASON@@@ATL@@@ATL@@QAE@ABV01@@Z="C:\Windows\SysWOW64\uxlib".??0?$CSimpleArray@PAU_BLOCKED_REASON@@V?$CSimpleArrayEqualHelper@PAU_BLOCKED_REASON@@@ATL@@@ATL@@QAE@ABV01@@Z
  ??0?$CSimpleArray@PAU_BLOCKED_REASON@@V?$CSimpleArrayEqualHelper@PAU_BLOCKED_REASON@@@ATL@@@ATL@@QAE@XZ="C:\Windows\SysWOW64\uxlib".??0?$CSimpleArray@PAU_BLOCKED_REASON@@V?$CSimpleArrayEqualHelper@PAU_BLOCKED_REASON@@@ATL@@@ATL@@QAE@XZ
  ??0?$CSimpleArray@PAVCLocale@@V?$CSimpleArrayEqualHelper@PAVCLocale@@@ATL@@@ATL@@QAE@ABV01@@Z="C:\Windows\SysWOW64\uxlib".??0?$CSimpleArray@PAVCLocale@@V?$CSimpleArrayEqualHelper@PAVCLocale@@@ATL@@@ATL@@QAE@ABV01@@Z
  ??0?$CSimpleArray@PAVCLocale@@V?$CSimpleArrayEqualHelper@PAVCLocale@@@ATL@@@ATL@@QAE@XZ="C:\Windows\SysWOW64\uxlib".??0?$CSimpleArray@PAVCLocale@@V?$CSimpleArrayEqualHelper@PAVCLocale@@@ATL@@@ATL@@QAE@XZ
  ??0?$CSimpleArray@VCDriverItem@@V?$CSimpleArrayEqualHelper@VCDriverItem@@@ATL@@@ATL@@QAE@ABV01@@Z="C:\Windows\SysWOW64\uxlib".??0?$CSimpleArray@VCDriverItem@@V?$CSimpleArrayEqualHelper@VCDriverItem@@@ATL@@@ATL@@QAE@ABV01@@Z
  ??0?$CSimpleArray@VCDriverItem@@V?$CSimpleArrayEqualHelper@VCDriverItem@@@ATL@@@ATL@@QAE@XZ="C:\Windows\SysWOW64\uxlib".??0?$CSimpleArray@VCDriverItem@@V?$CSimpleArrayEqualHelper@VCDriverItem@@@ATL@@@ATL@@QAE@XZ
  ??0?$CSimpleArray@VCLanguageItem@@V?$CSimpleArrayEqualHelper@VCLanguageItem@@@ATL@@@ATL@@QAE@ABV01@@Z="C:\Windows\SysWOW64\uxlib".??0?$CSimpleArray@VCLanguageItem@@V?$CSimpleArrayEqualHelper@VCLanguageItem@@@ATL@@@ATL@@QAE@ABV01@@Z
  ??0?$CSimpleArray@VCLanguageItem@@V?$CSimpleArrayEqualHelper@VCLanguageItem@@@ATL@@@ATL@@QAE@XZ="C:\Windows\SysWOW64\uxlib".??0?$CSimpleArray@VCLanguageItem@@V?$CSimpleArrayEqualHelper@VCLanguageItem@@@ATL@@@ATL@@QAE@XZ
  ??0?$CSimpleStringT@G$0A@@ATL@@QAE@ABV01@@Z="C:\Windows\SysWOW64\uxlib".??0?$CSimpleStringT@G$0A@@ATL@@QAE@ABV01@@Z
  ??0?$CSimpleStringT@G$0A@@ATL@@QAE@ABV?$CSimpleStringT@G$00@1@@Z="C:\Windows\SysWOW64\uxlib".??0?$CSimpleStringT@G$0A@@ATL@@QAE@ABV?$CSimpleStringT@G$00@1@@Z
  ??0?$CSimpleStringT@G$0A@@ATL@@QAE@PAUIAtlStringMgr@1@@Z="C:\Windows\SysWOW64\uxlib".??0?$CSimpleStringT@G$0A@@ATL@@QAE@PAUIAtlStringMgr@1@@Z
  ??0?$CSimpleStringT@G$0A@@ATL@@QAE@PBGHPAUIAtlStringMgr@1@@Z="C:\Windows\SysWOW64\uxlib".??0?$CSimpleStringT@G$0A@@ATL@@QAE@PBGHPAUIAtlStringMgr@1@@Z
  ??0?$CSimpleStringT@G$0A@@ATL@@QAE@PBGPAUIAtlStringMgr@1@@Z="C:\Windows\SysWOW64\uxlib".??0?$CSimpleStringT@G$0A@@ATL@@QAE@PBGPAUIAtlStringMgr@1@@Z
  ??0?$CStringT@GV?$StrTraitATL@GV?$ChTraitsCRT@G@ATL@@@ATL@@@ATL@@QAE@ABUtagVARIANT@@@Z="C:\Windows\SysWOW64\uxlib".??0?$CStringT@GV?$StrTraitATL@GV?$ChTraitsCRT@G@ATL@@@ATL@@@ATL@@QAE@ABUtagVARIANT@@@Z
  ??0?$CStringT@GV?$StrTraitATL@GV?$ChTraitsCRT@G@ATL@@@ATL@@@ATL@@QAE@ABUtagVARIANT@@PAUIAtlStringMgr@1@@Z="C:\Windows\SysWOW64\uxlib".??0?$CStringT@GV?$StrTraitATL@GV?$ChTraitsCRT@G@ATL@@@ATL@@@ATL@@QAE@ABUtagVARIANT@@PAUIAtlStringMgr@1@@Z
  ??0?$CStringT@GV?$StrTraitATL@GV?$ChTraitsCRT@G@ATL@@@ATL@@@ATL@@QAE@ABV01@@Z="C:\Windows\SysWOW64\uxlib".??0?$CStringT@GV?$StrTraitATL@GV?$ChTraitsCRT@G@ATL@@@ATL@@@ATL@@QAE@ABV01@@Z
  ??0?$CStringT@GV?$StrTraitATL@GV?$ChTraitsCRT@G@ATL@@@ATL@@@ATL@@QAE@DH@Z="C:\Windows\SysWOW64\uxlib".??0?$CStringT@GV?$StrTraitATL@GV?$ChTraitsCRT@G@ATL@@@ATL@@@ATL@@QAE@DH@Z
  ??0?$CStringT@GV?$StrTraitATL@GV?$ChTraitsCRT@G@ATL@@@ATL@@@ATL@@QAE@GH@Z="C:\Windows\SysWOW64\uxlib".??0?$CStringT@GV?$StrTraitATL@GV?$ChTraitsCRT@G@ATL@@@ATL@@@ATL@@QAE@GH@Z
  ??0?$CStringT@GV?$StrTraitATL@GV?$ChTraitsCRT@G@ATL@@@ATL@@@ATL@@QAE@PAUIAtlStringMgr@1@@Z="C:\Windows\SysWOW64\uxlib".??0?$CStringT@GV?$StrTraitATL@GV?$ChTraitsCRT@G@ATL@@@ATL@@@ATL@@QAE@PAUIAtlStringMgr@1@@Z
  ??0?$CStringT@GV?$StrTraitATL@GV?$ChTraitsCRT@G@ATL@@@ATL@@@ATL@@QAE@PBD@Z="C:\Windows\SysWOW64\uxlib".??0?$CStringT@GV?$StrTraitATL@GV?$ChTraitsCRT@G@ATL@@@ATL@@@ATL@@QAE@PBD@Z
  ??0?$CStringT@GV?$StrTraitATL@GV?$ChTraitsCRT@G@ATL@@@ATL@@@ATL@@QAE@PBDH@Z="C:\Windows\SysWOW64\uxlib".??0?$CStringT@GV?$StrTraitATL@GV?$ChTraitsCRT@G@ATL@@@ATL@@@ATL@@QAE@PBDH@Z
  ??0?$CStringT@GV?$StrTraitATL@GV?$ChTraitsCRT@G@ATL@@@ATL@@@ATL@@QAE@PBDHPAUIAtlStringMgr@1@@Z="C:\Windows\SysWOW64\uxlib".??0?$CStringT@GV?$StrTraitATL@GV?$ChTraitsCRT@G@ATL@@@ATL@@@ATL@@QAE@PBDHPAUIAtlStringMgr@1@@Z
  ??0?$CStringT@GV?$StrTraitATL@GV?$ChTraitsCRT@G@ATL@@@ATL@@@ATL@@QAE@PBDPAUIAtlStringMgr@1@@Z="C:\Windows\SysWOW64\uxlib".??0?$CStringT@GV?$StrTraitATL@GV?$ChTraitsCRT@G@ATL@@@ATL@@@ATL@@QAE@PBDPAUIAtlStringMgr@1@@Z
  ??0?$CStringT@GV?$StrTraitATL@GV?$ChTraitsCRT@G@ATL@@@ATL@@@ATL@@QAE@PBE@Z="C:\Windows\SysWOW64\uxlib".??0?$CStringT@GV?$StrTraitATL@GV?$ChTraitsCRT@G@ATL@@@ATL@@@ATL@@QAE@PBE@Z
  ??0?$CStringT@GV?$StrTraitATL@GV?$ChTraitsCRT@G@ATL@@@ATL@@@ATL@@QAE@PBEPAUIAtlStringMgr@1@@Z="C:\Windows\SysWOW64\uxlib".??0?$CStringT@GV?$StrTraitATL@GV?$ChTraitsCRT@G@ATL@@@ATL@@@ATL@@QAE@PBEPAUIAtlStringMgr@1@@Z
  ??0?$CStringT@GV?$StrTraitATL@GV?$ChTraitsCRT@G@ATL@@@ATL@@@ATL@@QAE@PBG@Z="C:\Windows\SysWOW64\uxlib".??0?$CStringT@GV?$StrTraitATL@GV?$ChTraitsCRT@G@ATL@@@ATL@@@ATL@@QAE@PBG@Z
  ??0?$CStringT@GV?$StrTraitATL@GV?$ChTraitsCRT@G@ATL@@@ATL@@@ATL@@QAE@PBGH@Z="C:\Windows\SysWOW64\uxlib".??0?$CStringT@GV?$StrTraitATL@GV?$ChTraitsCRT@G@ATL@@@ATL@@@ATL@@QAE@PBGH@Z
  ??0?$CStringT@GV?$StrTraitATL@GV?$ChTraitsCRT@G@ATL@@@ATL@@@ATL@@QAE@PBGHPAUIAtlStringMgr@1@@Z="C:\Windows\SysWOW64\uxlib".??0?$CStringT@GV?$StrTraitATL@GV?$ChTraitsCRT@G@ATL@@@ATL@@@ATL@@QAE@PBGHPAUIAtlStringMgr@1@@Z
  ??0?$CStringT@GV?$StrTraitATL@GV?$ChTraitsCRT@G@ATL@@@ATL@@@ATL@@QAE@PBGPAUIAtlStringMgr@1@@Z="C:\Windows\SysWOW64\uxlib".??0?$CStringT@GV?$StrTraitATL@GV?$ChTraitsCRT@G@ATL@@@ATL@@@ATL@@QAE@PBGPAUIAtlStringMgr@1@@Z
  ??0?$CStringT@GV?$StrTraitATL@GV?$ChTraitsCRT@G@ATL@@@ATL@@@ATL@@QAE@XZ="C:\Windows\SysWOW64\uxlib".??0?$CStringT@GV?$StrTraitATL@GV?$ChTraitsCRT@G@ATL@@@ATL@@@ATL@@QAE@XZ
  ??0CImageData@@AAE@XZ="C:\Windows\SysWOW64\uxlib".??0CImageData@@AAE@XZ
  ??0CImageData@@QAE@ABV0@@Z="C:\Windows\SysWOW64\uxlib".??0CImageData@@QAE@ABV0@@Z
  ??0CInternationalUtils@@QAE@XZ="C:\Windows\SysWOW64\uxlib".??0CInternationalUtils@@QAE@XZ
  ??0CKeyboardLayout@@QAE@ABV0@@Z="C:\Windows\SysWOW64\uxlib".??0CKeyboardLayout@@QAE@ABV0@@Z
  ??0CKeyboardLayout@@QAE@V?$CStringT@GV?$StrTraitATL@GV?$ChTraitsCRT@G@ATL@@@ATL@@@ATL@@0@Z="C:\Windows\SysWOW64\uxlib".??0CKeyboardLayout@@QAE@V?$CStringT@GV?$StrTraitATL@GV?$ChTraitsCRT@G@ATL@@@ATL@@@ATL@@0@Z
  ??0CKeyboardLayouts@@QAE@ABV0@@Z="C:\Windows\SysWOW64\uxlib".??0CKeyboardLayouts@@QAE@ABV0@@Z
  ??0CKeyboardLayouts@@QAE@XZ="C:\Windows\SysWOW64\uxlib".??0CKeyboardLayouts@@QAE@XZ
  ??0CLanguage@@QAE@ABV0@@Z="C:\Windows\SysWOW64\uxlib".??0CLanguage@@QAE@ABV0@@Z
  ??0CLanguage@@QAE@V?$CStringT@GV?$StrTraitATL@GV?$ChTraitsCRT@G@ATL@@@ATL@@@ATL@@000@Z="C:\Windows\SysWOW64\uxlib".??0CLanguage@@QAE@V?$CStringT@GV?$StrTraitATL@GV?$ChTraitsCRT@G@ATL@@@ATL@@@ATL@@000@Z
  ??0CLanguages@@QAE@ABV0@@Z="C:\Windows\SysWOW64\uxlib".??0CLanguages@@QAE@ABV0@@Z
  ??0CLanguages@@QAE@XZ="C:\Windows\SysWOW64\uxlib".??0CLanguages@@QAE@XZ
  ??0CLayeredDriver@@QAE@ABV0@@Z="C:\Windows\SysWOW64\uxlib".??0CLayeredDriver@@QAE@ABV0@@Z
  ??0CLayeredDriver@@QAE@V?$CStringT@GV?$StrTraitATL@GV?$ChTraitsCRT@G@ATL@@@ATL@@@ATL@@0@Z="C:\Windows\SysWOW64\uxlib".??0CLayeredDriver@@QAE@V?$CStringT@GV?$StrTraitATL@GV?$ChTraitsCRT@G@ATL@@@ATL@@@ATL@@0@Z
  ??0CLayeredDrivers@@QAE@ABV0@@Z="C:\Windows\SysWOW64\uxlib".??0CLayeredDrivers@@QAE@ABV0@@Z
  ??0CLayeredDrivers@@QAE@XZ="C:\Windows\SysWOW64\uxlib".??0CLayeredDrivers@@QAE@XZ
  ??0CLoadDriver@@AAE@XZ="C:\Windows\SysWOW64\uxlib".??0CLoadDriver@@AAE@XZ
  ??0CLoadDriver@@QAE@ABV0@@Z="C:\Windows\SysWOW64\uxlib".??0CLoadDriver@@QAE@ABV0@@Z
  ??0CLocale@@QAE@ABV0@@Z="C:\Windows\SysWOW64\uxlib".??0CLocale@@QAE@ABV0@@Z
  ??0CLocale@@QAE@V?$CStringT@GV?$StrTraitATL@GV?$ChTraitsCRT@G@ATL@@@ATL@@@ATL@@0@Z="C:\Windows\SysWOW64\uxlib".??0CLocale@@QAE@V?$CStringT@GV?$StrTraitATL@GV?$ChTraitsCRT@G@ATL@@@ATL@@@ATL@@0@Z
  ??0CLocales@@QAE@ABV0@@Z="C:\Windows\SysWOW64\uxlib".??0CLocales@@QAE@ABV0@@Z
  ??0CLocales@@QAE@XZ="C:\Windows\SysWOW64\uxlib".??0CLocales@@QAE@XZ
  ??0COSK@@QAE@XZ="C:\Windows\SysWOW64\uxlib".??0COSK@@QAE@XZ
  ??0CProductKeyModule@@QAE@ABV0@@Z="C:\Windows\SysWOW64\uxlib".??0CProductKeyModule@@QAE@ABV0@@Z
  ??0CProductKeyModule@@QAE@XZ="C:\Windows\SysWOW64\uxlib".??0CProductKeyModule@@QAE@XZ
  ??0IImageData@@QAE@$$QAV0@@Z="C:\Windows\SysWOW64\uxlib".??0IImageData@@QAE@$$QAV0@@Z
  ??0IImageData@@QAE@ABV0@@Z="C:\Windows\SysWOW64\uxlib".??0IImageData@@QAE@ABV0@@Z
  ??0IImageData@@QAE@XZ="C:\Windows\SysWOW64\uxlib".??0IImageData@@QAE@XZ
  ??0IProductKeyModule@@QAE@$$QAV0@@Z="C:\Windows\SysWOW64\uxlib".??0IProductKeyModule@@QAE@$$QAV0@@Z
  ??0IProductKeyModule@@QAE@ABV0@@Z="C:\Windows\SysWOW64\uxlib".??0IProductKeyModule@@QAE@ABV0@@Z
  ??0IProductKeyModule@@QAE@XZ="C:\Windows\SysWOW64\uxlib".??0IProductKeyModule@@QAE@XZ
  ??0MyUtilString@@QAE@XZ="C:\Windows\SysWOW64\uxlib".??0MyUtilString@@QAE@XZ
  ??0PIDUtilStringView@@QAE@ABV0@@Z="C:\Windows\SysWOW64\uxlib".??0PIDUtilStringView@@QAE@ABV0@@Z
  ??0PIDUtilStringView@@QAE@XZ="C:\Windows\SysWOW64\uxlib".??0PIDUtilStringView@@QAE@XZ
  ??1?$CSimpleArray@PAU_BLOCKED_REASON@@V?$CSimpleArrayEqualHelper@PAU_BLOCKED_REASON@@@ATL@@@ATL@@QAE@XZ="C:\Windows\SysWOW64\uxlib".??1?$CSimpleArray@PAU_BLOCKED_REASON@@V?$CSimpleArrayEqualHelper@PAU_BLOCKED_REASON@@@ATL@@@ATL@@QAE@XZ
  ??1?$CSimpleArray@PAVCLocale@@V?$CSimpleArrayEqualHelper@PAVCLocale@@@ATL@@@ATL@@QAE@XZ="C:\Windows\SysWOW64\uxlib".??1?$CSimpleArray@PAVCLocale@@V?$CSimpleArrayEqualHelper@PAVCLocale@@@ATL@@@ATL@@QAE@XZ
  ??1?$CSimpleArray@VCDriverItem@@V?$CSimpleArrayEqualHelper@VCDriverItem@@@ATL@@@ATL@@QAE@XZ="C:\Windows\SysWOW64\uxlib".??1?$CSimpleArray@VCDriverItem@@V?$CSimpleArrayEqualHelper@VCDriverItem@@@ATL@@@ATL@@QAE@XZ
  ??1?$CSimpleArray@VCLanguageItem@@V?$CSimpleArrayEqualHelper@VCLanguageItem@@@ATL@@@ATL@@QAE@XZ="C:\Windows\SysWOW64\uxlib".??1?$CSimpleArray@VCLanguageItem@@V?$CSimpleArrayEqualHelper@VCLanguageItem@@@ATL@@@ATL@@QAE@XZ
  ??1?$CSimpleStringT@G$0A@@ATL@@QAE@XZ="C:\Windows\SysWOW64\uxlib".??1?$CSimpleStringT@G$0A@@ATL@@QAE@XZ
  ??1?$CStringT@GV?$StrTraitATL@GV?$ChTraitsCRT@G@ATL@@@ATL@@@ATL@@QAE@XZ="C:\Windows\SysWOW64\uxlib".??1?$CStringT@GV?$StrTraitATL@GV?$ChTraitsCRT@G@ATL@@@ATL@@@ATL@@QAE@XZ
  ??1CImageData@@EAE@XZ="C:\Windows\SysWOW64\uxlib".??1CImageData@@EAE@XZ
  ??1CInternationalUtils@@QAE@XZ="C:\Windows\SysWOW64\uxlib".??1CInternationalUtils@@QAE@XZ
  ??1CKeyboardLayout@@QAE@XZ="C:\Windows\SysWOW64\uxlib".??1CKeyboardLayout@@QAE@XZ
  ??1CKeyboardLayouts@@QAE@XZ="C:\Windows\SysWOW64\uxlib".??1CKeyboardLayouts@@QAE@XZ
  ??1CLanguage@@QAE@XZ="C:\Windows\SysWOW64\uxlib".??1CLanguage@@QAE@XZ
  ??1CLanguages@@QAE@XZ="C:\Windows\SysWOW64\uxlib".??1CLanguages@@QAE@XZ
  ??1CLayeredDriver@@QAE@XZ="C:\Windows\SysWOW64\uxlib".??1CLayeredDriver@@QAE@XZ
  ??1CLayeredDrivers@@QAE@XZ="C:\Windows\SysWOW64\uxlib".??1CLayeredDrivers@@QAE@XZ
  ??1CLoadDriver@@EAE@XZ="C:\Windows\SysWOW64\uxlib".??1CLoadDriver@@EAE@XZ
  ??1CLocale@@QAE@XZ="C:\Windows\SysWOW64\uxlib".??1CLocale@@QAE@XZ
  ??1CLocales@@QAE@XZ="C:\Windows\SysWOW64\uxlib".??1CLocales@@QAE@XZ
  ??1COSK@@QAE@XZ="C:\Windows\SysWOW64\uxlib".??1COSK@@QAE@XZ
  ??1PIDUtilStringView@@UAE@XZ="C:\Windows\SysWOW64\uxlib".??1PIDUtilStringView@@UAE@XZ
  ??4?$CSimpleArray@PAU_BLOCKED_REASON@@V?$CSimpleArrayEqualHelper@PAU_BLOCKED_REASON@@@ATL@@@ATL@@QAEAAV01@ABV01@@Z="C:\Windows\SysWOW64\uxlib".??4?$CSimpleArray@PAU_BLOCKED_REASON@@V?$CSimpleArrayEqualHelper@PAU_BLOCKED_REASON@@@ATL@@@ATL@@QAEAAV01@ABV01@@Z
  ??4?$CSimpleArray@PAVCLocale@@V?$CSimpleArrayEqualHelper@PAVCLocale@@@ATL@@@ATL@@QAEAAV01@ABV01@@Z="C:\Windows\SysWOW64\uxlib".??4?$CSimpleArray@PAVCLocale@@V?$CSimpleArrayEqualHelper@PAVCLocale@@@ATL@@@ATL@@QAEAAV01@ABV01@@Z
  ??4?$CSimpleArray@VCDriverItem@@V?$CSimpleArrayEqualHelper@VCDriverItem@@@ATL@@@ATL@@QAEAAV01@ABV01@@Z="C:\Windows\SysWOW64\uxlib".??4?$CSimpleArray@VCDriverItem@@V?$CSimpleArrayEqualHelper@VCDriverItem@@@ATL@@@ATL@@QAEAAV01@ABV01@@Z
  ??4?$CSimpleArray@VCLanguageItem@@V?$CSimpleArrayEqualHelper@VCLanguageItem@@@ATL@@@ATL@@QAEAAV01@ABV01@@Z="C:\Windows\SysWOW64\uxlib".??4?$CSimpleArray@VCLanguageItem@@V?$CSimpleArrayEqualHelper@VCLanguageItem@@@ATL@@@ATL@@QAEAAV01@ABV01@@Z
  ??4?$CSimpleStringT@G$0A@@ATL@@QAEAAV01@ABV01@@Z="C:\Windows\SysWOW64\uxlib".??4?$CSimpleStringT@G$0A@@ATL@@QAEAAV01@ABV01@@Z
  ??4?$CSimpleStringT@G$0A@@ATL@@QAEAAV01@ABV?$CSimpleStringT@G$00@1@@Z="C:\Windows\SysWOW64\uxlib".??4?$CSimpleStringT@G$0A@@ATL@@QAEAAV01@ABV?$CSimpleStringT@G$00@1@@Z
  ??4?$CSimpleStringT@G$0A@@ATL@@QAEAAV01@PBG@Z="C:\Windows\SysWOW64\uxlib".??4?$CSimpleStringT@G$0A@@ATL@@QAEAAV01@PBG@Z
  ??4?$CStringT@GV?$StrTraitATL@GV?$ChTraitsCRT@G@ATL@@@ATL@@@ATL@@QAEAAV01@ABUtagVARIANT@@@Z="C:\Windows\SysWOW64\uxlib".??4?$CStringT@GV?$StrTraitATL@GV?$ChTraitsCRT@G@ATL@@@ATL@@@ATL@@QAEAAV01@ABUtagVARIANT@@@Z
  ??4?$CStringT@GV?$StrTraitATL@GV?$ChTraitsCRT@G@ATL@@@ATL@@@ATL@@QAEAAV01@ABV01@@Z="C:\Windows\SysWOW64\uxlib".??4?$CStringT@GV?$StrTraitATL@GV?$ChTraitsCRT@G@ATL@@@ATL@@@ATL@@QAEAAV01@ABV01@@Z
  ??4?$CStringT@GV?$StrTraitATL@GV?$ChTraitsCRT@G@ATL@@@ATL@@@ATL@@QAEAAV01@D@Z="C:\Windows\SysWOW64\uxlib".??4?$CStringT@GV?$StrTraitATL@GV?$ChTraitsCRT@G@ATL@@@ATL@@@ATL@@QAEAAV01@D@Z
  ??4?$CStringT@GV?$StrTraitATL@GV?$ChTraitsCRT@G@ATL@@@ATL@@@ATL@@QAEAAV01@G@Z="C:\Windows\SysWOW64\uxlib".??4?$CStringT@GV?$StrTraitATL@GV?$ChTraitsCRT@G@ATL@@@ATL@@@ATL@@QAEAAV01@G@Z
  ??4?$CStringT@GV?$StrTraitATL@GV?$ChTraitsCRT@G@ATL@@@ATL@@@ATL@@QAEAAV01@PBD@Z="C:\Windows\SysWOW64\uxlib".??4?$CStringT@GV?$StrTraitATL@GV?$ChTraitsCRT@G@ATL@@@ATL@@@ATL@@QAEAAV01@PBD@Z
  ??4?$CStringT@GV?$StrTraitATL@GV?$ChTraitsCRT@G@ATL@@@ATL@@@ATL@@QAEAAV01@PBE@Z="C:\Windows\SysWOW64\uxlib".??4?$CStringT@GV?$StrTraitATL@GV?$ChTraitsCRT@G@ATL@@@ATL@@@ATL@@QAEAAV01@PBE@Z
  ??4?$CStringT@GV?$StrTraitATL@GV?$ChTraitsCRT@G@ATL@@@ATL@@@ATL@@QAEAAV01@PBG@Z="C:\Windows\SysWOW64\uxlib".??4?$CStringT@GV?$StrTraitATL@GV?$ChTraitsCRT@G@ATL@@@ATL@@@ATL@@QAEAAV01@PBG@Z
  ??4CImageData@@QAEAAV0@ABV0@@Z="C:\Windows\SysWOW64\uxlib".??4CImageData@@QAEAAV0@ABV0@@Z
  ??4CInternationalUtils@@QAEAAV0@ABV0@@Z="C:\Windows\SysWOW64\uxlib".??4CInternationalUtils@@QAEAAV0@ABV0@@Z
  ??4CKeyboardLayout@@QAEAAV0@ABV0@@Z="C:\Windows\SysWOW64\uxlib".??4CKeyboardLayout@@QAEAAV0@ABV0@@Z
  ??4CKeyboardLayouts@@QAEAAV0@ABV0@@Z="C:\Windows\SysWOW64\uxlib".??4CKeyboardLayouts@@QAEAAV0@ABV0@@Z
  ??4CLanguage@@QAEAAV0@ABV0@@Z="C:\Windows\SysWOW64\uxlib".??4CLanguage@@QAEAAV0@ABV0@@Z
  ??4CLanguages@@QAEAAV0@ABV0@@Z="C:\Windows\SysWOW64\uxlib".??4CLanguages@@QAEAAV0@ABV0@@Z
  ??4CLayeredDriver@@QAEAAV0@ABV0@@Z="C:\Windows\SysWOW64\uxlib".??4CLayeredDriver@@QAEAAV0@ABV0@@Z
  ??4CLayeredDrivers@@QAEAAV0@ABV0@@Z="C:\Windows\SysWOW64\uxlib".??4CLayeredDrivers@@QAEAAV0@ABV0@@Z
  ??4CLoadDriver@@QAEAAV0@ABV0@@Z="C:\Windows\SysWOW64\uxlib".??4CLoadDriver@@QAEAAV0@ABV0@@Z
  ??4CLocale@@QAEAAV0@ABV0@@Z="C:\Windows\SysWOW64\uxlib".??4CLocale@@QAEAAV0@ABV0@@Z
  ??4CLocales@@QAEAAV0@ABV0@@Z="C:\Windows\SysWOW64\uxlib".??4CLocales@@QAEAAV0@ABV0@@Z
  ??4COSK@@QAEAAV0@ABV0@@Z="C:\Windows\SysWOW64\uxlib".??4COSK@@QAEAAV0@ABV0@@Z
  ??4CProductKeyModule@@QAEAAV0@ABV0@@Z="C:\Windows\SysWOW64\uxlib".??4CProductKeyModule@@QAEAAV0@ABV0@@Z
  ??4IImageData@@QAEAAV0@$$QAV0@@Z="C:\Windows\SysWOW64\uxlib".??4IImageData@@QAEAAV0@$$QAV0@@Z
  ??4IImageData@@QAEAAV0@ABV0@@Z="C:\Windows\SysWOW64\uxlib".??4IImageData@@QAEAAV0@ABV0@@Z
  ??4IProductKeyModule@@QAEAAV0@$$QAV0@@Z="C:\Windows\SysWOW64\uxlib".??4IProductKeyModule@@QAEAAV0@$$QAV0@@Z
  ??4IProductKeyModule@@QAEAAV0@ABV0@@Z="C:\Windows\SysWOW64\uxlib".??4IProductKeyModule@@QAEAAV0@ABV0@@Z
  ??4MyUtilString@@QAEAAV0@$$QAV0@@Z="C:\Windows\SysWOW64\uxlib".??4MyUtilString@@QAEAAV0@$$QAV0@@Z
  ??4MyUtilString@@QAEAAV0@ABV0@@Z="C:\Windows\SysWOW64\uxlib".??4MyUtilString@@QAEAAV0@ABV0@@Z
  ??4PIDUtilStringView@@QAEAAV0@ABV0@@Z="C:\Windows\SysWOW64\uxlib".??4PIDUtilStringView@@QAEAAV0@ABV0@@Z
  ??A?$CSimpleArray@PAU_BLOCKED_REASON@@V?$CSimpleArrayEqualHelper@PAU_BLOCKED_REASON@@@ATL@@@ATL@@QAEAAPAU_BLOCKED_REASON@@H@Z="C:\Windows\SysWOW64\uxlib".??A?$CSimpleArray@PAU_BLOCKED_REASON@@V?$CSimpleArrayEqualHelper@PAU_BLOCKED_REASON@@@ATL@@@ATL@@QAEAAPAU_BLOCKED_REASON@@H@Z
  ??A?$CSimpleArray@PAU_BLOCKED_REASON@@V?$CSimpleArrayEqualHelper@PAU_BLOCKED_REASON@@@ATL@@@ATL@@QBEABQAU_BLOCKED_REASON@@H@Z="C:\Windows\SysWOW64\uxlib".??A?$CSimpleArray@PAU_BLOCKED_REASON@@V?$CSimpleArrayEqualHelper@PAU_BLOCKED_REASON@@@ATL@@@ATL@@QBEABQAU_BLOCKED_REASON@@H@Z
  ??A?$CSimpleArray@PAVCLocale@@V?$CSimpleArrayEqualHelper@PAVCLocale@@@ATL@@@ATL@@QAEAAPAVCLocale@@H@Z="C:\Windows\SysWOW64\uxlib".??A?$CSimpleArray@PAVCLocale@@V?$CSimpleArrayEqualHelper@PAVCLocale@@@ATL@@@ATL@@QAEAAPAVCLocale@@H@Z
  ??A?$CSimpleArray@PAVCLocale@@V?$CSimpleArrayEqualHelper@PAVCLocale@@@ATL@@@ATL@@QBEABQAVCLocale@@H@Z="C:\Windows\SysWOW64\uxlib".??A?$CSimpleArray@PAVCLocale@@V?$CSimpleArrayEqualHelper@PAVCLocale@@@ATL@@@ATL@@QBEABQAVCLocale@@H@Z
  ??A?$CSimpleArray@VCDriverItem@@V?$CSimpleArrayEqualHelper@VCDriverItem@@@ATL@@@ATL@@QAEAAVCDriverItem@@H@Z="C:\Windows\SysWOW64\uxlib".??A?$CSimpleArray@VCDriverItem@@V?$CSimpleArrayEqualHelper@VCDriverItem@@@ATL@@@ATL@@QAEAAVCDriverItem@@H@Z
  ??A?$CSimpleArray@VCDriverItem@@V?$CSimpleArrayEqualHelper@VCDriverItem@@@ATL@@@ATL@@QBEABVCDriverItem@@H@Z="C:\Windows\SysWOW64\uxlib".??A?$CSimpleArray@VCDriverItem@@V?$CSimpleArrayEqualHelper@VCDriverItem@@@ATL@@@ATL@@QBEABVCDriverItem@@H@Z
  ??A?$CSimpleArray@VCLanguageItem@@V?$CSimpleArrayEqualHelper@VCLanguageItem@@@ATL@@@ATL@@QAEAAVCLanguageItem@@H@Z="C:\Windows\SysWOW64\uxlib".??A?$CSimpleArray@VCLanguageItem@@V?$CSimpleArrayEqualHelper@VCLanguageItem@@@ATL@@@ATL@@QAEAAVCLanguageItem@@H@Z
  ??A?$CSimpleArray@VCLanguageItem@@V?$CSimpleArrayEqualHelper@VCLanguageItem@@@ATL@@@ATL@@QBEABVCLanguageItem@@H@Z="C:\Windows\SysWOW64\uxlib".??A?$CSimpleArray@VCLanguageItem@@V?$CSimpleArrayEqualHelper@VCLanguageItem@@@ATL@@@ATL@@QBEABVCLanguageItem@@H@Z
  ??A?$CSimpleStringT@G$0A@@ATL@@QBEGH@Z="C:\Windows\SysWOW64\uxlib".??A?$CSimpleStringT@G$0A@@ATL@@QBEGH@Z
  ??ACImageData@@UAEAAVCLanguageItem@@I@Z="C:\Windows\SysWOW64\uxlib".??ACImageData@@UAEAAVCLanguageItem@@I@Z
  ??ACKeyboardLayouts@@UAE?AVCKeyboardLayout@@H@Z="C:\Windows\SysWOW64\uxlib".??ACKeyboardLayouts@@UAE?AVCKeyboardLayout@@H@Z
  ??ACLanguages@@UAE?AVCLanguage@@H@Z="C:\Windows\SysWOW64\uxlib".??ACLanguages@@UAE?AVCLanguage@@H@Z
  ??ACLayeredDrivers@@UAE?AVCLayeredDriver@@H@Z="C:\Windows\SysWOW64\uxlib".??ACLayeredDrivers@@UAE?AVCLayeredDriver@@H@Z
  ??ACLoadDriver@@UAEAAVCDriverItem@@I@Z="C:\Windows\SysWOW64\uxlib".??ACLoadDriver@@UAEAAVCDriverItem@@I@Z
  ??ACLocales@@UAE?AVCLocale@@H@Z="C:\Windows\SysWOW64\uxlib".??ACLocales@@UAE?AVCLocale@@H@Z
  ??B?$CSimpleStringT@G$0A@@ATL@@QAEAAV?$CSimpleStringT@G$00@1@XZ="C:\Windows\SysWOW64\uxlib".??B?$CSimpleStringT@G$0A@@ATL@@QAEAAV?$CSimpleStringT@G$00@1@XZ
  ??B?$CSimpleStringT@G$0A@@ATL@@QBEPBGXZ="C:\Windows\SysWOW64\uxlib".??B?$CSimpleStringT@G$0A@@ATL@@QBEPBGXZ
  ??B?$CStringT@GV?$StrTraitATL@GV?$ChTraitsCRT@G@ATL@@@ATL@@@ATL@@QAEAAV?$CSimpleStringT@G$00@1@XZ="C:\Windows\SysWOW64\uxlib".??B?$CStringT@GV?$StrTraitATL@GV?$ChTraitsCRT@G@ATL@@@ATL@@@ATL@@QAEAAV?$CSimpleStringT@G$00@1@XZ
  ??Y?$CSimpleStringT@G$0A@@ATL@@QAEAAV01@ABV01@@Z="C:\Windows\SysWOW64\uxlib".??Y?$CSimpleStringT@G$0A@@ATL@@QAEAAV01@ABV01@@Z
  ??Y?$CSimpleStringT@G$0A@@ATL@@QAEAAV01@D@Z="C:\Windows\SysWOW64\uxlib".??Y?$CSimpleStringT@G$0A@@ATL@@QAEAAV01@D@Z
  ??Y?$CSimpleStringT@G$0A@@ATL@@QAEAAV01@E@Z="C:\Windows\SysWOW64\uxlib".??Y?$CSimpleStringT@G$0A@@ATL@@QAEAAV01@E@Z
  ??Y?$CSimpleStringT@G$0A@@ATL@@QAEAAV01@G@Z="C:\Windows\SysWOW64\uxlib".??Y?$CSimpleStringT@G$0A@@ATL@@QAEAAV01@G@Z
  ??Y?$CSimpleStringT@G$0A@@ATL@@QAEAAV01@PBG@Z="C:\Windows\SysWOW64\uxlib".??Y?$CSimpleStringT@G$0A@@ATL@@QAEAAV01@PBG@Z
  ??Y?$CStringT@GV?$StrTraitATL@GV?$ChTraitsCRT@G@ATL@@@ATL@@@ATL@@QAEAAV01@ABUtagVARIANT@@@Z="C:\Windows\SysWOW64\uxlib".??Y?$CStringT@GV?$StrTraitATL@GV?$ChTraitsCRT@G@ATL@@@ATL@@@ATL@@QAEAAV01@ABUtagVARIANT@@@Z
  ??Y?$CStringT@GV?$StrTraitATL@GV?$ChTraitsCRT@G@ATL@@@ATL@@@ATL@@QAEAAV01@ABV?$CSimpleStringT@G$0A@@1@@Z="C:\Windows\SysWOW64\uxlib".??Y?$CStringT@GV?$StrTraitATL@GV?$ChTraitsCRT@G@ATL@@@ATL@@@ATL@@QAEAAV01@ABV?$CSimpleStringT@G$0A@@1@@Z
  ??Y?$CStringT@GV?$StrTraitATL@GV?$ChTraitsCRT@G@ATL@@@ATL@@@ATL@@QAEAAV01@D@Z="C:\Windows\SysWOW64\uxlib".??Y?$CStringT@GV?$StrTraitATL@GV?$ChTraitsCRT@G@ATL@@@ATL@@@ATL@@QAEAAV01@D@Z
  ??Y?$CStringT@GV?$StrTraitATL@GV?$ChTraitsCRT@G@ATL@@@ATL@@@ATL@@QAEAAV01@E@Z="C:\Windows\SysWOW64\uxlib".??Y?$CStringT@GV?$StrTraitATL@GV?$ChTraitsCRT@G@ATL@@@ATL@@@ATL@@QAEAAV01@E@Z
  ??Y?$CStringT@GV?$StrTraitATL@GV?$ChTraitsCRT@G@ATL@@@ATL@@@ATL@@QAEAAV01@G@Z="C:\Windows\SysWOW64\uxlib".??Y?$CStringT@GV?$StrTraitATL@GV?$ChTraitsCRT@G@ATL@@@ATL@@@ATL@@QAEAAV01@G@Z
  ??Y?$CStringT@GV?$StrTraitATL@GV?$ChTraitsCRT@G@ATL@@@ATL@@@ATL@@QAEAAV01@PBD@Z="C:\Windows\SysWOW64\uxlib".??Y?$CStringT@GV?$StrTraitATL@GV?$ChTraitsCRT@G@ATL@@@ATL@@@ATL@@QAEAAV01@PBD@Z
  ??Y?$CStringT@GV?$StrTraitATL@GV?$ChTraitsCRT@G@ATL@@@ATL@@@ATL@@QAEAAV01@PBG@Z="C:\Windows\SysWOW64\uxlib".??Y?$CStringT@GV?$StrTraitATL@GV?$ChTraitsCRT@G@ATL@@@ATL@@@ATL@@QAEAAV01@PBG@Z
  ??_7CImageData@@6B@="C:\Windows\SysWOW64\uxlib".??_7CImageData@@6B@
  ??_7CKeyboardLayouts@@6B@="C:\Windows\SysWOW64\uxlib".??_7CKeyboardLayouts@@6B@
  ??_7CLanguages@@6B@="C:\Windows\SysWOW64\uxlib".??_7CLanguages@@6B@
  ??_7CLayeredDrivers@@6B@="C:\Windows\SysWOW64\uxlib".??_7CLayeredDrivers@@6B@
  ??_7CLoadDriver@@6B@="C:\Windows\SysWOW64\uxlib".??_7CLoadDriver@@6B@
  ??_7CLocales@@6B@="C:\Windows\SysWOW64\uxlib".??_7CLocales@@6B@
  ??_7CProductKeyModule@@6B@="C:\Windows\SysWOW64\uxlib".??_7CProductKeyModule@@6B@
  ??_7IImageData@@6B@="C:\Windows\SysWOW64\uxlib".??_7IImageData@@6B@
  ??_7IProductKeyModule@@6B@="C:\Windows\SysWOW64\uxlib".??_7IProductKeyModule@@6B@
  ??_7PIDUtilStringView@@6B@="C:\Windows\SysWOW64\uxlib".??_7PIDUtilStringView@@6B@
  ?Add@?$CSimpleArray@PAU_BLOCKED_REASON@@V?$CSimpleArrayEqualHelper@PAU_BLOCKED_REASON@@@ATL@@@ATL@@QAEHABQAU_BLOCKED_REASON@@@Z="C:\Windows\SysWOW64\uxlib".?Add@?$CSimpleArray@PAU_BLOCKED_REASON@@V?$CSimpleArrayEqualHelper@PAU_BLOCKED_REASON@@@ATL@@@ATL@@QAEHABQAU_BLOCKED_REASON@@@Z
  ?Add@?$CSimpleArray@PAVCLocale@@V?$CSimpleArrayEqualHelper@PAVCLocale@@@ATL@@@ATL@@QAEHABQAVCLocale@@@Z="C:\Windows\SysWOW64\uxlib".?Add@?$CSimpleArray@PAVCLocale@@V?$CSimpleArrayEqualHelper@PAVCLocale@@@ATL@@@ATL@@QAEHABQAVCLocale@@@Z
  ?Add@?$CSimpleArray@VCDriverItem@@V?$CSimpleArrayEqualHelper@VCDriverItem@@@ATL@@@ATL@@QAEHABVCDriverItem@@@Z="C:\Windows\SysWOW64\uxlib".?Add@?$CSimpleArray@VCDriverItem@@V?$CSimpleArrayEqualHelper@VCDriverItem@@@ATL@@@ATL@@QAEHABVCDriverItem@@@Z
  ?Add@?$CSimpleArray@VCLanguageItem@@V?$CSimpleArrayEqualHelper@VCLanguageItem@@@ATL@@@ATL@@QAEHABVCLanguageItem@@@Z="C:\Windows\SysWOW64\uxlib".?Add@?$CSimpleArray@VCLanguageItem@@V?$CSimpleArrayEqualHelper@VCLanguageItem@@@ATL@@@ATL@@QAEHABVCLanguageItem@@@Z
  ?AllocSysString@?$CStringT@GV?$StrTraitATL@GV?$ChTraitsCRT@G@ATL@@@ATL@@@ATL@@QBEPAGXZ="C:\Windows\SysWOW64\uxlib".?AllocSysString@?$CStringT@GV?$StrTraitATL@GV?$ChTraitsCRT@G@ATL@@@ATL@@@ATL@@QBEPAGXZ
  ?Append@?$CSimpleStringT@G$0A@@ATL@@QAEXABV12@@Z="C:\Windows\SysWOW64\uxlib".?Append@?$CSimpleStringT@G$0A@@ATL@@QAEXABV12@@Z
  ?Append@?$CSimpleStringT@G$0A@@ATL@@QAEXPBG@Z="C:\Windows\SysWOW64\uxlib".?Append@?$CSimpleStringT@G$0A@@ATL@@QAEXPBG@Z
  ?Append@?$CSimpleStringT@G$0A@@ATL@@QAEXPBGH@Z="C:\Windows\SysWOW64\uxlib".?Append@?$CSimpleStringT@G$0A@@ATL@@QAEXPBGH@Z
  ?AppendChar@?$CSimpleStringT@G$0A@@ATL@@QAEXG@Z="C:\Windows\SysWOW64\uxlib".?AppendChar@?$CSimpleStringT@G$0A@@ATL@@QAEXG@Z
  ?AppendFormat@?$CStringT@GV?$StrTraitATL@GV?$ChTraitsCRT@G@ATL@@@ATL@@@ATL@@QAAXIZZ="C:\Windows\SysWOW64\uxlib".?AppendFormat@?$CStringT@GV?$StrTraitATL@GV?$ChTraitsCRT@G@ATL@@@ATL@@@ATL@@QAAXIZZ
  ?AppendFormat@?$CStringT@GV?$StrTraitATL@GV?$ChTraitsCRT@G@ATL@@@ATL@@@ATL@@QAAXPBGZZ="C:\Windows\SysWOW64\uxlib".?AppendFormat@?$CStringT@GV?$StrTraitATL@GV?$ChTraitsCRT@G@ATL@@@ATL@@@ATL@@QAAXPBGZZ
  ?AppendFormatV@?$CStringT@GV?$StrTraitATL@GV?$ChTraitsCRT@G@ATL@@@ATL@@@ATL@@QAEXPBGPAD@Z="C:\Windows\SysWOW64\uxlib".?AppendFormatV@?$CStringT@GV?$StrTraitATL@GV?$ChTraitsCRT@G@ATL@@@ATL@@@ATL@@QAEXPBGPAD@Z
  ?Attach@?$CSimpleStringT@G$0A@@ATL@@AAEXPAUCStringData@2@@Z="C:\Windows\SysWOW64\uxlib".?Attach@?$CSimpleStringT@G$0A@@ATL@@AAEXPAUCStringData@2@@Z
  ?CanReadMedia@CLoadDriver@@UAEHXZ="C:\Windows\SysWOW64\uxlib".?CanReadMedia@CLoadDriver@@UAEHXZ
  ?CharToOemA@?$CStringT@GV?$StrTraitATL@GV?$ChTraitsCRT@G@ATL@@@ATL@@@ATL@@QAEXXZ="C:\Windows\SysWOW64\uxlib".?CharToOemA@?$CStringT@GV?$StrTraitATL@GV?$ChTraitsCRT@G@ATL@@@ATL@@@ATL@@QAEXXZ
  ?CheckImplicitLoad@?$CStringT@GV?$StrTraitATL@GV?$ChTraitsCRT@G@ATL@@@ATL@@@ATL@@AAE_NPBX@Z="C:\Windows\SysWOW64\uxlib".?CheckImplicitLoad@?$CStringT@GV?$StrTraitATL@GV?$ChTraitsCRT@G@ATL@@@ATL@@@ATL@@AAE_NPBX@Z
  ?ClearDriverList@CLoadDriver@@UAEXXZ="C:\Windows\SysWOW64\uxlib".?ClearDriverList@CLoadDriver@@UAEXXZ
  ?ClearString@MyUtilString@@QAEXXZ="C:\Windows\SysWOW64\uxlib".?ClearString@MyUtilString@@QAEXXZ
  ?ClearString@PIDUtilStringView@@QAEXXZ="C:\Windows\SysWOW64\uxlib".?ClearString@PIDUtilStringView@@QAEXXZ
  ?CloneData@?$CSimpleStringT@G$0A@@ATL@@CAPAUCStringData@2@PAU32@@Z="C:\Windows\SysWOW64\uxlib".?CloneData@?$CSimpleStringT@G$0A@@ATL@@CAPAUCStringData@2@PAU32@@Z
  ?CloseOSK@COSK@@QAEHPAX@Z="C:\Windows\SysWOW64\uxlib".?CloseOSK@COSK@@QAEHPAX@Z
  ?Collate@?$CStringT@GV?$StrTraitATL@GV?$ChTraitsCRT@G@ATL@@@ATL@@@ATL@@QBEHPBG@Z="C:\Windows\SysWOW64\uxlib".?Collate@?$CStringT@GV?$StrTraitATL@GV?$ChTraitsCRT@G@ATL@@@ATL@@@ATL@@QBEHPBG@Z
  ?CollateNoCase@?$CStringT@GV?$StrTraitATL@GV?$ChTraitsCRT@G@ATL@@@ATL@@@ATL@@QBEHPBG@Z="C:\Windows\SysWOW64\uxlib".?CollateNoCase@?$CStringT@GV?$StrTraitATL@GV?$ChTraitsCRT@G@ATL@@@ATL@@@ATL@@QBEHPBG@Z
  ?Compare@?$CStringT@GV?$StrTraitATL@GV?$ChTraitsCRT@G@ATL@@@ATL@@@ATL@@QBEHPBG@Z="C:\Windows\SysWOW64\uxlib".?Compare@?$CStringT@GV?$StrTraitATL@GV?$ChTraitsCRT@G@ATL@@@ATL@@@ATL@@QBEHPBG@Z
  ?CompareNoCase@?$CStringT@GV?$StrTraitATL@GV?$ChTraitsCRT@G@ATL@@@ATL@@@ATL@@QBEHPBG@Z="C:\Windows\SysWOW64\uxlib".?CompareNoCase@?$CStringT@GV?$StrTraitATL@GV?$ChTraitsCRT@G@ATL@@@ATL@@@ATL@@QBEHPBG@Z
  ?Concatenate@?$CSimpleStringT@G$0A@@ATL@@KAXAAV12@PBGH1H@Z="C:\Windows\SysWOW64\uxlib".?Concatenate@?$CSimpleStringT@G$0A@@ATL@@KAXAAV12@PBGH1H@Z
  ?Construct@?$CStringT@GV?$StrTraitATL@GV?$ChTraitsCRT@G@ATL@@@ATL@@@ATL@@SAXPAV12@@Z="C:\Windows\SysWOW64\uxlib".?Construct@?$CStringT@GV?$StrTraitATL@GV?$ChTraitsCRT@G@ATL@@@ATL@@@ATL@@SAXPAV12@@Z
  ?CopyChars@?$CSimpleStringT@G$0A@@ATL@@SAXPAGIPBGH@Z="C:\Windows\SysWOW64\uxlib".?CopyChars@?$CSimpleStringT@G$0A@@ATL@@SAXPAGIPBGH@Z
  ?CopyChars@?$CSimpleStringT@G$0A@@ATL@@SAXPAGPBGH@Z="C:\Windows\SysWOW64\uxlib".?CopyChars@?$CSimpleStringT@G$0A@@ATL@@SAXPAGPBGH@Z
  ?CopyCharsOverlapped@?$CSimpleStringT@G$0A@@ATL@@SAXPAGIPBGH@Z="C:\Windows\SysWOW64\uxlib".?CopyCharsOverlapped@?$CSimpleStringT@G$0A@@ATL@@SAXPAGIPBGH@Z
  ?CopyCharsOverlapped@?$CSimpleStringT@G$0A@@ATL@@SAXPAGPBGH@Z="C:\Windows\SysWOW64\uxlib".?CopyCharsOverlapped@?$CSimpleStringT@G$0A@@ATL@@SAXPAGPBGH@Z
  ?Delete@?$CStringT@GV?$StrTraitATL@GV?$ChTraitsCRT@G@ATL@@@ATL@@@ATL@@QAEHHH@Z="C:\Windows\SysWOW64\uxlib".?Delete@?$CStringT@GV?$StrTraitATL@GV?$ChTraitsCRT@G@ATL@@@ATL@@@ATL@@QAEHHH@Z
  ?Empty@?$CSimpleStringT@G$0A@@ATL@@QAEXXZ="C:\Windows\SysWOW64\uxlib".?Empty@?$CSimpleStringT@G$0A@@ATL@@QAEXXZ
  ?Find@?$CSimpleArray@PAU_BLOCKED_REASON@@V?$CSimpleArrayEqualHelper@PAU_BLOCKED_REASON@@@ATL@@@ATL@@QBEHABQAU_BLOCKED_REASON@@@Z="C:\Windows\SysWOW64\uxlib".?Find@?$CSimpleArray@PAU_BLOCKED_REASON@@V?$CSimpleArrayEqualHelper@PAU_BLOCKED_REASON@@@ATL@@@ATL@@QBEHABQAU_BLOCKED_REASON@@@Z
  ?Find@?$CSimpleArray@PAVCLocale@@V?$CSimpleArrayEqualHelper@PAVCLocale@@@ATL@@@ATL@@QBEHABQAVCLocale@@@Z="C:\Windows\SysWOW64\uxlib".?Find@?$CSimpleArray@PAVCLocale@@V?$CSimpleArrayEqualHelper@PAVCLocale@@@ATL@@@ATL@@QBEHABQAVCLocale@@@Z
  ?Find@?$CSimpleArray@VCDriverItem@@V?$CSimpleArrayEqualHelper@VCDriverItem@@@ATL@@@ATL@@QBEHABVCDriverItem@@@Z="C:\Windows\SysWOW64\uxlib".?Find@?$CSimpleArray@VCDriverItem@@V?$CSimpleArrayEqualHelper@VCDriverItem@@@ATL@@@ATL@@QBEHABVCDriverItem@@@Z
  ?Find@?$CSimpleArray@VCLanguageItem@@V?$CSimpleArrayEqualHelper@VCLanguageItem@@@ATL@@@ATL@@QBEHABVCLanguageItem@@@Z="C:\Windows\SysWOW64\uxlib".?Find@?$CSimpleArray@VCLanguageItem@@V?$CSimpleArrayEqualHelper@VCLanguageItem@@@ATL@@@ATL@@QBEHABVCLanguageItem@@@Z
  ?Find@?$CStringT@GV?$StrTraitATL@GV?$ChTraitsCRT@G@ATL@@@ATL@@@ATL@@QBEHGH@Z="C:\Windows\SysWOW64\uxlib".?Find@?$CStringT@GV?$StrTraitATL@GV?$ChTraitsCRT@G@ATL@@@ATL@@@ATL@@QBEHGH@Z
  ?Find@?$CStringT@GV?$StrTraitATL@GV?$ChTraitsCRT@G@ATL@@@ATL@@@ATL@@QBEHPBGH@Z="C:\Windows\SysWOW64\uxlib".?Find@?$CStringT@GV?$StrTraitATL@GV?$ChTraitsCRT@G@ATL@@@ATL@@@ATL@@QBEHPBGH@Z
  ?FindOneOf@?$CStringT@GV?$StrTraitATL@GV?$ChTraitsCRT@G@ATL@@@ATL@@@ATL@@QBEHPBG@Z="C:\Windows\SysWOW64\uxlib".?FindOneOf@?$CStringT@GV?$StrTraitATL@GV?$ChTraitsCRT@G@ATL@@@ATL@@@ATL@@QBEHPBG@Z
  ?Fork@?$CSimpleStringT@G$0A@@ATL@@AAEXH@Z="C:\Windows\SysWOW64\uxlib".?Fork@?$CSimpleStringT@G$0A@@ATL@@AAEXH@Z
  ?Format@?$CStringT@GV?$StrTraitATL@GV?$ChTraitsCRT@G@ATL@@@ATL@@@ATL@@QAAXIZZ="C:\Windows\SysWOW64\uxlib".?Format@?$CStringT@GV?$StrTraitATL@GV?$ChTraitsCRT@G@ATL@@@ATL@@@ATL@@QAAXIZZ
  ?Format@?$CStringT@GV?$StrTraitATL@GV?$ChTraitsCRT@G@ATL@@@ATL@@@ATL@@QAAXPBGZZ="C:\Windows\SysWOW64\uxlib".?Format@?$CStringT@GV?$StrTraitATL@GV?$ChTraitsCRT@G@ATL@@@ATL@@@ATL@@QAAXPBGZZ
  ?FormatMessageV@?$CStringT@GV?$StrTraitATL@GV?$ChTraitsCRT@G@ATL@@@ATL@@@ATL@@QAEXPBGPAPAD@Z="C:\Windows\SysWOW64\uxlib".?FormatMessageV@?$CStringT@GV?$StrTraitATL@GV?$ChTraitsCRT@G@ATL@@@ATL@@@ATL@@QAEXPBGPAPAD@Z
  ?FormatMessageW@?$CStringT@GV?$StrTraitATL@GV?$ChTraitsCRT@G@ATL@@@ATL@@@ATL@@QAAXIZZ="C:\Windows\SysWOW64\uxlib".?FormatMessageW@?$CStringT@GV?$StrTraitATL@GV?$ChTraitsCRT@G@ATL@@@ATL@@@ATL@@QAAXIZZ
  ?FormatMessageW@?$CStringT@GV?$StrTraitATL@GV?$ChTraitsCRT@G@ATL@@@ATL@@@ATL@@QAAXPBGZZ="C:\Windows\SysWOW64\uxlib".?FormatMessageW@?$CStringT@GV?$StrTraitATL@GV?$ChTraitsCRT@G@ATL@@@ATL@@@ATL@@QAAXPBGZZ
  ?FormatV@?$CStringT@GV?$StrTraitATL@GV?$ChTraitsCRT@G@ATL@@@ATL@@@ATL@@QAEXPBGPAD@Z="C:\Windows\SysWOW64\uxlib".?FormatV@?$CStringT@GV?$StrTraitATL@GV?$ChTraitsCRT@G@ATL@@@ATL@@@ATL@@QAEXPBGPAD@Z
  ?FreeExtra@?$CSimpleStringT@G$0A@@ATL@@QAEXXZ="C:\Windows\SysWOW64\uxlib".?FreeExtra@?$CSimpleStringT@G$0A@@ATL@@QAEXXZ
  ?FreeInstance@CImageData@@UAEXXZ="C:\Windows\SysWOW64\uxlib".?FreeInstance@CImageData@@UAEXXZ
  ?GetAbbrevName@CLanguage@@QAE?AV?$CStringT@GV?$StrTraitATL@GV?$ChTraitsCRT@G@ATL@@@ATL@@@ATL@@XZ="C:\Windows\SysWOW64\uxlib".?GetAbbrevName@CLanguage@@QAE?AV?$CStringT@GV?$StrTraitATL@GV?$ChTraitsCRT@G@ATL@@@ATL@@@ATL@@XZ
  ?GetAbbrevName@CLocale@@QAE?AV?$CStringT@GV?$StrTraitATL@GV?$ChTraitsCRT@G@ATL@@@ATL@@@ATL@@XZ="C:\Windows\SysWOW64\uxlib".?GetAbbrevName@CLocale@@QAE?AV?$CStringT@GV?$StrTraitATL@GV?$ChTraitsCRT@G@ATL@@@ATL@@@ATL@@XZ
  ?GetAllocLength@?$CSimpleStringT@G$0A@@ATL@@QBEHXZ="C:\Windows\SysWOW64\uxlib".?GetAllocLength@?$CSimpleStringT@G$0A@@ATL@@QBEHXZ
  ?GetAt@?$CSimpleStringT@G$0A@@ATL@@QBEGH@Z="C:\Windows\SysWOW64\uxlib".?GetAt@?$CSimpleStringT@G$0A@@ATL@@QBEGH@Z
  ?GetBuffer@?$CSimpleStringT@G$0A@@ATL@@QAEPAGH@Z="C:\Windows\SysWOW64\uxlib".?GetBuffer@?$CSimpleStringT@G$0A@@ATL@@QAEPAGH@Z
  ?GetBuffer@?$CSimpleStringT@G$0A@@ATL@@QAEPAGXZ="C:\Windows\SysWOW64\uxlib".?GetBuffer@?$CSimpleStringT@G$0A@@ATL@@QAEPAGXZ
  ?GetBufferSetLength@?$CSimpleStringT@G$0A@@ATL@@QAEPAGH@Z="C:\Windows\SysWOW64\uxlib".?GetBufferSetLength@?$CSimpleStringT@G$0A@@ATL@@QAEPAGH@Z
  ?GetColumnDataAtIndex@CImageData@@UAEPAGI@Z="C:\Windows\SysWOW64\uxlib".?GetColumnDataAtIndex@CImageData@@UAEPAGI@Z
  ?GetCount@CImageData@@UAEIXZ="C:\Windows\SysWOW64\uxlib".?GetCount@CImageData@@UAEIXZ
  ?GetCount@CLoadDriver@@UAEIXZ="C:\Windows\SysWOW64\uxlib".?GetCount@CLoadDriver@@UAEIXZ
  ?GetData@?$CSimpleArray@PAU_BLOCKED_REASON@@V?$CSimpleArrayEqualHelper@PAU_BLOCKED_REASON@@@ATL@@@ATL@@QBEPAPAU_BLOCKED_REASON@@XZ="C:\Windows\SysWOW64\uxlib".?GetData@?$CSimpleArray@PAU_BLOCKED_REASON@@V?$CSimpleArrayEqualHelper@PAU_BLOCKED_REASON@@@ATL@@@ATL@@QBEPAPAU_BLOCKED_REASON@@XZ
  ?GetData@?$CSimpleArray@PAVCLocale@@V?$CSimpleArrayEqualHelper@PAVCLocale@@@ATL@@@ATL@@QBEPAPAVCLocale@@XZ="C:\Windows\SysWOW64\uxlib".?GetData@?$CSimpleArray@PAVCLocale@@V?$CSimpleArrayEqualHelper@PAVCLocale@@@ATL@@@ATL@@QBEPAPAVCLocale@@XZ
  ?GetData@?$CSimpleArray@VCDriverItem@@V?$CSimpleArrayEqualHelper@VCDriverItem@@@ATL@@@ATL@@QBEPAVCDriverItem@@XZ="C:\Windows\SysWOW64\uxlib".?GetData@?$CSimpleArray@VCDriverItem@@V?$CSimpleArrayEqualHelper@VCDriverItem@@@ATL@@@ATL@@QBEPAVCDriverItem@@XZ
  ?GetData@?$CSimpleArray@VCLanguageItem@@V?$CSimpleArrayEqualHelper@VCLanguageItem@@@ATL@@@ATL@@QBEPAVCLanguageItem@@XZ="C:\Windows\SysWOW64\uxlib".?GetData@?$CSimpleArray@VCLanguageItem@@V?$CSimpleArrayEqualHelper@VCLanguageItem@@@ATL@@@ATL@@QBEPAVCLanguageItem@@XZ
  ?GetData@?$CSimpleStringT@G$0A@@ATL@@ABEPAUCStringData@2@XZ="C:\Windows\SysWOW64\uxlib".?GetData@?$CSimpleStringT@G$0A@@ATL@@ABEPAUCStringData@2@XZ
  ?GetDefault@CLoadDriver@@UAEHXZ="C:\Windows\SysWOW64\uxlib".?GetDefault@CLoadDriver@@UAEHXZ
  ?GetDefaultFallbackLanguage@CLanguages@@UAE?AVCLanguage@@XZ="C:\Windows\SysWOW64\uxlib".?GetDefaultFallbackLanguage@CLanguages@@UAE?AVCLanguage@@XZ
  ?GetDefaultLanguage@CImageData@@UAEPAGXZ="C:\Windows\SysWOW64\uxlib".?GetDefaultLanguage@CImageData@@UAEPAGXZ
  ?GetDefaultLayout@CKeyboardLayouts@@QAE?AVCKeyboardLayout@@XZ="C:\Windows\SysWOW64\uxlib".?GetDefaultLayout@CKeyboardLayouts@@QAE?AVCKeyboardLayout@@XZ
  ?GetDescription@CImageData@@UAEPAGXZ="C:\Windows\SysWOW64\uxlib".?GetDescription@CImageData@@UAEPAGXZ
  ?GetDriverListAsync@CLoadDriver@@UAEHV?$CStringT@GV?$StrTraitATL@GV?$ChTraitsCRT@G@ATL@@@ATL@@@ATL@@HP6GXPAXH@Z1@Z="C:\Windows\SysWOW64\uxlib".?GetDriverListAsync@CLoadDriver@@UAEHV?$CStringT@GV?$StrTraitATL@GV?$ChTraitsCRT@G@ATL@@@ATL@@@ATL@@HP6GXPAXH@Z1@Z
  ?GetEditionName@CImageData@@UAEPAGXZ="C:\Windows\SysWOW64\uxlib".?GetEditionName@CImageData@@UAEPAGXZ
  ?GetEnvironmentVariableW@?$CStringT@GV?$StrTraitATL@GV?$ChTraitsCRT@G@ATL@@@ATL@@@ATL@@QAEHPBG@Z="C:\Windows\SysWOW64\uxlib".?GetEnvironmentVariableW@?$CStringT@GV?$StrTraitATL@GV?$ChTraitsCRT@G@ATL@@@ATL@@@ATL@@QAEHPBG@Z
  ?GetFoundationFlag@CImageData@@UAEHXZ="C:\Windows\SysWOW64\uxlib".?GetFoundationFlag@CImageData@@UAEHXZ
  ?GetHardwareFilter@CLoadDriver@@UAEHXZ="C:\Windows\SysWOW64\uxlib".?GetHardwareFilter@CLoadDriver@@UAEHXZ
  ?GetID@CLayeredDriver@@QAE?AV?$CStringT@GV?$StrTraitATL@GV?$ChTraitsCRT@G@ATL@@@ATL@@@ATL@@XZ="C:\Windows\SysWOW64\uxlib".?GetID@CLayeredDriver@@QAE?AV?$CStringT@GV?$StrTraitATL@GV?$ChTraitsCRT@G@ATL@@@ATL@@@ATL@@XZ
  ?GetImageIdentifier@CImageData@@UAEPAGXZ="C:\Windows\SysWOW64\uxlib".?GetImageIdentifier@CImageData@@UAEPAGXZ
  ?GetInstance@CImageData@@SGPAVIImageData@@XZ="C:\Windows\SysWOW64\uxlib".?GetInstance@CImageData@@SGPAVIImageData@@XZ
  ?GetInstance@CLoadDriver@@SGPAVILoadDriver@@XZ="C:\Windows\SysWOW64\uxlib".?GetInstance@CLoadDriver@@SGPAVILoadDriver@@XZ
  ?GetKeyboard@CInternationalUtils@@SG?AV?$CStringT@GV?$StrTraitATL@GV?$ChTraitsCRT@G@ATL@@@ATL@@@ATL@@XZ="C:\Windows\SysWOW64\uxlib".?GetKeyboard@CInternationalUtils@@SG?AV?$CStringT@GV?$StrTraitATL@GV?$ChTraitsCRT@G@ATL@@@ATL@@@ATL@@XZ
  ?GetLanguage@CInternationalUtils@@SG?AV?$CStringT@GV?$StrTraitATL@GV?$ChTraitsCRT@G@ATL@@@ATL@@@ATL@@XZ="C:\Windows\SysWOW64\uxlib".?GetLanguage@CInternationalUtils@@SG?AV?$CStringT@GV?$StrTraitATL@GV?$ChTraitsCRT@G@ATL@@@ATL@@@ATL@@XZ
  ?GetLanguage@CLanguages@@UAE?AVCLanguage@@H@Z="C:\Windows\SysWOW64\uxlib".?GetLanguage@CLanguages@@UAE?AVCLanguage@@H@Z
  ?GetLanguageCount@CLanguages@@UAEHXZ="C:\Windows\SysWOW64\uxlib".?GetLanguageCount@CLanguages@@UAEHXZ
  ?GetLanguageFromLocalizedName@CLanguages@@UAE?AVCLanguage@@V?$CStringT@GV?$StrTraitATL@GV?$ChTraitsCRT@G@ATL@@@ATL@@@ATL@@@Z="C:\Windows\SysWOW64\uxlib".?GetLanguageFromLocalizedName@CLanguages@@UAE?AVCLanguage@@V?$CStringT@GV?$StrTraitATL@GV?$ChTraitsCRT@G@ATL@@@ATL@@@ATL@@@Z
  ?GetLanguageFromNativeDisplayName@CLanguages@@UAE?AVCLanguage@@V?$CStringT@GV?$StrTraitATL@GV?$ChTraitsCRT@G@ATL@@@ATL@@@ATL@@@Z="C:\Windows\SysWOW64\uxlib".?GetLanguageFromNativeDisplayName@CLanguages@@UAE?AVCLanguage@@V?$CStringT@GV?$StrTraitATL@GV?$ChTraitsCRT@G@ATL@@@ATL@@@ATL@@@Z
  ?GetLanguageFromNativeName@CLanguages@@UAE?AVCLanguage@@V?$CStringT@GV?$StrTraitATL@GV?$ChTraitsCRT@G@ATL@@@ATL@@@ATL@@@Z="C:\Windows\SysWOW64\uxlib".?GetLanguageFromNativeName@CLanguages@@UAE?AVCLanguage@@V?$CStringT@GV?$StrTraitATL@GV?$ChTraitsCRT@G@ATL@@@ATL@@@ATL@@@Z
  ?GetLanguageNativeDisplayNameCount@CLanguages@@QAEHXZ="C:\Windows\SysWOW64\uxlib".?GetLanguageNativeDisplayNameCount@CLanguages@@QAEHXZ
  ?GetLayeredDriver@CLayeredDrivers@@UAE?AVCLayeredDriver@@H@Z="C:\Windows\SysWOW64\uxlib".?GetLayeredDriver@CLayeredDrivers@@UAE?AVCLayeredDriver@@H@Z
  ?GetLayeredDriver@CLayeredDrivers@@UAE?AVCLayeredDriver@@V?$CStringT@GV?$StrTraitATL@GV?$ChTraitsCRT@G@ATL@@@ATL@@@ATL@@@Z="C:\Windows\SysWOW64\uxlib".?GetLayeredDriver@CLayeredDrivers@@UAE?AVCLayeredDriver@@V?$CStringT@GV?$StrTraitATL@GV?$ChTraitsCRT@G@ATL@@@ATL@@@ATL@@@Z
  ?GetLayeredDriverCount@CLayeredDrivers@@UAEHXZ="C:\Windows\SysWOW64\uxlib".?GetLayeredDriverCount@CLayeredDrivers@@UAEHXZ
  ?GetLayout@CKeyboardLayouts@@UAE?AVCKeyboardLayout@@H@Z="C:\Windows\SysWOW64\uxlib".?GetLayout@CKeyboardLayouts@@UAE?AVCKeyboardLayout@@H@Z
  ?GetLayout@CKeyboardLayouts@@UAE?AVCKeyboardLayout@@V?$CStringT@GV?$StrTraitATL@GV?$ChTraitsCRT@G@ATL@@@ATL@@@ATL@@@Z="C:\Windows\SysWOW64\uxlib".?GetLayout@CKeyboardLayouts@@UAE?AVCKeyboardLayout@@V?$CStringT@GV?$StrTraitATL@GV?$ChTraitsCRT@G@ATL@@@ATL@@@ATL@@@Z
  ?GetLayoutCount@CKeyboardLayouts@@UAEHXZ="C:\Windows\SysWOW64\uxlib".?GetLayoutCount@CKeyboardLayouts@@UAEHXZ
  ?GetLayoutID@CKeyboardLayout@@QAE?AV?$CStringT@GV?$StrTraitATL@GV?$ChTraitsCRT@G@ATL@@@ATL@@@ATL@@XZ="C:\Windows\SysWOW64\uxlib".?GetLayoutID@CKeyboardLayout@@QAE?AV?$CStringT@GV?$StrTraitATL@GV?$ChTraitsCRT@G@ATL@@@ATL@@@ATL@@XZ
  ?GetLayoutName@CKeyboardLayout@@QAE?AV?$CStringT@GV?$StrTraitATL@GV?$ChTraitsCRT@G@ATL@@@ATL@@@ATL@@XZ="C:\Windows\SysWOW64\uxlib".?GetLayoutName@CKeyboardLayout@@QAE?AV?$CStringT@GV?$StrTraitATL@GV?$ChTraitsCRT@G@ATL@@@ATL@@@ATL@@XZ
  ?GetLength@?$CSimpleStringT@G$0A@@ATL@@QBEHXZ="C:\Windows\SysWOW64\uxlib".?GetLength@?$CSimpleStringT@G$0A@@ATL@@QBEHXZ
  ?GetLocale@CInternationalUtils@@SG?AV?$CStringT@GV?$StrTraitATL@GV?$ChTraitsCRT@G@ATL@@@ATL@@@ATL@@XZ="C:\Windows\SysWOW64\uxlib".?GetLocale@CInternationalUtils@@SG?AV?$CStringT@GV?$StrTraitATL@GV?$ChTraitsCRT@G@ATL@@@ATL@@@ATL@@XZ
  ?GetLocale@CLocales@@UAE?AVCLocale@@H@Z="C:\Windows\SysWOW64\uxlib".?GetLocale@CLocales@@UAE?AVCLocale@@H@Z
  ?GetLocale@CLocales@@UAE?AVCLocale@@V?$CStringT@GV?$StrTraitATL@GV?$ChTraitsCRT@G@ATL@@@ATL@@@ATL@@@Z="C:\Windows\SysWOW64\uxlib".?GetLocale@CLocales@@UAE?AVCLocale@@V?$CStringT@GV?$StrTraitATL@GV?$ChTraitsCRT@G@ATL@@@ATL@@@ATL@@@Z
  ?GetLocaleCount@CLocales@@UAEHXZ="C:\Windows\SysWOW64\uxlib".?GetLocaleCount@CLocales@@UAEHXZ
  ?GetLocaleName@CLocale@@QAE?AV?$CStringT@GV?$StrTraitATL@GV?$ChTraitsCRT@G@ATL@@@ATL@@@ATL@@XZ="C:\Windows\SysWOW64\uxlib".?GetLocaleName@CLocale@@QAE?AV?$CStringT@GV?$StrTraitATL@GV?$ChTraitsCRT@G@ATL@@@ATL@@@ATL@@XZ
  ?GetLocalizedName@CLanguage@@QAE?AV?$CStringT@GV?$StrTraitATL@GV?$ChTraitsCRT@G@ATL@@@ATL@@@ATL@@XZ="C:\Windows\SysWOW64\uxlib".?GetLocalizedName@CLanguage@@QAE?AV?$CStringT@GV?$StrTraitATL@GV?$ChTraitsCRT@G@ATL@@@ATL@@@ATL@@XZ
  ?GetManager@?$CSimpleStringT@G$0A@@ATL@@QBEPAUIAtlStringMgr@2@XZ="C:\Windows\SysWOW64\uxlib".?GetManager@?$CSimpleStringT@G$0A@@ATL@@QBEPAUIAtlStringMgr@2@XZ
  ?GetManager@?$CStringT@GV?$StrTraitATL@GV?$ChTraitsCRT@G@ATL@@@ATL@@@ATL@@QBEPAUIAtlStringMgr@2@XZ="C:\Windows\SysWOW64\uxlib".?GetManager@?$CStringT@GV?$StrTraitATL@GV?$ChTraitsCRT@G@ATL@@@ATL@@@ATL@@QBEPAUIAtlStringMgr@2@XZ
  ?GetName@CLayeredDriver@@QAE?AV?$CStringT@GV?$StrTraitATL@GV?$ChTraitsCRT@G@ATL@@@ATL@@@ATL@@XZ="C:\Windows\SysWOW64\uxlib".?GetName@CLayeredDriver@@QAE?AV?$CStringT@GV?$StrTraitATL@GV?$ChTraitsCRT@G@ATL@@@ATL@@@ATL@@XZ
  ?GetNativeDisplayName@CLanguage@@QAE?AV?$CStringT@GV?$StrTraitATL@GV?$ChTraitsCRT@G@ATL@@@ATL@@@ATL@@XZ="C:\Windows\SysWOW64\uxlib".?GetNativeDisplayName@CLanguage@@QAE?AV?$CStringT@GV?$StrTraitATL@GV?$ChTraitsCRT@G@ATL@@@ATL@@@ATL@@XZ
  ?GetNativeName@CLanguage@@QAE?AV?$CStringT@GV?$StrTraitATL@GV?$ChTraitsCRT@G@ATL@@@ATL@@@ATL@@XZ="C:\Windows\SysWOW64\uxlib".?GetNativeName@CLanguage@@QAE?AV?$CStringT@GV?$StrTraitATL@GV?$ChTraitsCRT@G@ATL@@@ATL@@@ATL@@XZ
  ?GetPidStr@PIDUtilStringView@@QAEPBGXZ="C:\Windows\SysWOW64\uxlib".?GetPidStr@PIDUtilStringView@@QAEPBGXZ
  ?GetShowFlag@CProductKeyModule@@UAEHXZ="C:\Windows\SysWOW64\uxlib".?GetShowFlag@CProductKeyModule@@UAEHXZ
  ?GetShowFlagEarlyF6@CLoadDriver@@UAEHXZ="C:\Windows\SysWOW64\uxlib".?GetShowFlagEarlyF6@CLoadDriver@@UAEHXZ
  ?GetShowLangKeyboard@CInternationalUtils@@SGHXZ="C:\Windows\SysWOW64\uxlib".?GetShowLangKeyboard@CInternationalUtils@@SGHXZ
  ?GetShowLangNeutral@CInternationalUtils@@SGHXZ="C:\Windows\SysWOW64\uxlib".?GetShowLangNeutral@CInternationalUtils@@SGHXZ
  ?GetSize@?$CSimpleArray@PAU_BLOCKED_REASON@@V?$CSimpleArrayEqualHelper@PAU_BLOCKED_REASON@@@ATL@@@ATL@@QBEHXZ="C:\Windows\SysWOW64\uxlib".?GetSize@?$CSimpleArray@PAU_BLOCKED_REASON@@V?$CSimpleArrayEqualHelper@PAU_BLOCKED_REASON@@@ATL@@@ATL@@QBEHXZ
  ?GetSize@?$CSimpleArray@PAVCLocale@@V?$CSimpleArrayEqualHelper@PAVCLocale@@@ATL@@@ATL@@QBEHXZ="C:\Windows\SysWOW64\uxlib".?GetSize@?$CSimpleArray@PAVCLocale@@V?$CSimpleArrayEqualHelper@PAVCLocale@@@ATL@@@ATL@@QBEHXZ
  ?GetSize@?$CSimpleArray@VCDriverItem@@V?$CSimpleArrayEqualHelper@VCDriverItem@@@ATL@@@ATL@@QBEHXZ="C:\Windows\SysWOW64\uxlib".?GetSize@?$CSimpleArray@VCDriverItem@@V?$CSimpleArrayEqualHelper@VCDriverItem@@@ATL@@@ATL@@QBEHXZ
  ?GetSize@?$CSimpleArray@VCLanguageItem@@V?$CSimpleArrayEqualHelper@VCLanguageItem@@@ATL@@@ATL@@QBEHXZ="C:\Windows\SysWOW64\uxlib".?GetSize@?$CSimpleArray@VCLanguageItem@@V?$CSimpleArrayEqualHelper@VCLanguageItem@@@ATL@@@ATL@@QBEHXZ
  ?GetString@?$CSimpleStringT@G$0A@@ATL@@QBEPBGXZ="C:\Windows\SysWOW64\uxlib".?GetString@?$CSimpleStringT@G$0A@@ATL@@QBEPBGXZ
  ?GetString@MyUtilString@@QAEPBGXZ="C:\Windows\SysWOW64\uxlib".?GetString@MyUtilString@@QAEPBGXZ
  ?Initialize@CImageData@@UAEHPAX@Z="C:\Windows\SysWOW64\uxlib".?Initialize@CImageData@@UAEHPAX@Z
  ?Initialize@CKeyboardLayouts@@UAEHV?$CStringT@GV?$StrTraitATL@GV?$ChTraitsCRT@G@ATL@@@ATL@@@ATL@@0@Z="C:\Windows\SysWOW64\uxlib".?Initialize@CKeyboardLayouts@@UAEHV?$CStringT@GV?$StrTraitATL@GV?$ChTraitsCRT@G@ATL@@@ATL@@@ATL@@0@Z
  ?Initialize@CLanguages@@UAEHXZ="C:\Windows\SysWOW64\uxlib".?Initialize@CLanguages@@UAEHXZ
  ?Initialize@CLayeredDrivers@@UAEHV?$CStringT@GV?$StrTraitATL@GV?$ChTraitsCRT@G@ATL@@@ATL@@@ATL@@0@Z="C:\Windows\SysWOW64\uxlib".?Initialize@CLayeredDrivers@@UAEHV?$CStringT@GV?$StrTraitATL@GV?$ChTraitsCRT@G@ATL@@@ATL@@@ATL@@0@Z
  ?Initialize@CLoadDriver@@UAEHPAX@Z="C:\Windows\SysWOW64\uxlib".?Initialize@CLoadDriver@@UAEHPAX@Z
  ?Initialize@CLocales@@UAEHV?$CStringT@GV?$StrTraitATL@GV?$ChTraitsCRT@G@ATL@@@ATL@@@ATL@@@Z="C:\Windows\SysWOW64\uxlib".?Initialize@CLocales@@UAEHV?$CStringT@GV?$StrTraitATL@GV?$ChTraitsCRT@G@ATL@@@ATL@@@ATL@@@Z
  ?Initialize@CProductKeyModule@@UAEHPAX@Z="C:\Windows\SysWOW64\uxlib".?Initialize@CProductKeyModule@@UAEHPAX@Z
  ?Insert@?$CStringT@GV?$StrTraitATL@GV?$ChTraitsCRT@G@ATL@@@ATL@@@ATL@@QAEHHG@Z="C:\Windows\SysWOW64\uxlib".?Insert@?$CStringT@GV?$StrTraitATL@GV?$ChTraitsCRT@G@ATL@@@ATL@@@ATL@@QAEHHG@Z
  ?Insert@?$CStringT@GV?$StrTraitATL@GV?$ChTraitsCRT@G@ATL@@@ATL@@@ATL@@QAEHHPBG@Z="C:\Windows\SysWOW64\uxlib".?Insert@?$CStringT@GV?$StrTraitATL@GV?$ChTraitsCRT@G@ATL@@@ATL@@@ATL@@QAEHHPBG@Z
  ?InsertChar@MyUtilString@@QAEHHG@Z="C:\Windows\SysWOW64\uxlib".?InsertChar@MyUtilString@@QAEHHG@Z
  ?InsertString@MyUtilString@@QAEHHPBG@Z="C:\Windows\SysWOW64\uxlib".?InsertString@MyUtilString@@QAEHHPBG@Z
  ?InsertString@PIDUtilStringView@@QAEHHPBG@Z="C:\Windows\SysWOW64\uxlib".?InsertString@PIDUtilStringView@@QAEHHPBG@Z
  ?InstallDriver@CLoadDriver@@UAEHJP6GXPAXH@Z0@Z="C:\Windows\SysWOW64\uxlib".?InstallDriver@CLoadDriver@@UAEHJP6GXPAXH@Z0@Z
  ?InternalSetAtIndex@?$CSimpleArray@PAU_BLOCKED_REASON@@V?$CSimpleArrayEqualHelper@PAU_BLOCKED_REASON@@@ATL@@@ATL@@QAEXHABQAU_BLOCKED_REASON@@@Z="C:\Windows\SysWOW64\uxlib".?InternalSetAtIndex@?$CSimpleArray@PAU_BLOCKED_REASON@@V?$CSimpleArrayEqualHelper@PAU_BLOCKED_REASON@@@ATL@@@ATL@@QAEXHABQAU_BLOCKED_REASON@@@Z
  ?InternalSetAtIndex@?$CSimpleArray@PAVCLocale@@V?$CSimpleArrayEqualHelper@PAVCLocale@@@ATL@@@ATL@@QAEXHABQAVCLocale@@@Z="C:\Windows\SysWOW64\uxlib".?InternalSetAtIndex@?$CSimpleArray@PAVCLocale@@V?$CSimpleArrayEqualHelper@PAVCLocale@@@ATL@@@ATL@@QAEXHABQAVCLocale@@@Z
  ?InternalSetAtIndex@?$CSimpleArray@VCDriverItem@@V?$CSimpleArrayEqualHelper@VCDriverItem@@@ATL@@@ATL@@QAEXHABVCDriverItem@@@Z="C:\Windows\SysWOW64\uxlib".?InternalSetAtIndex@?$CSimpleArray@VCDriverItem@@V?$CSimpleArrayEqualHelper@VCDriverItem@@@ATL@@@ATL@@QAEXHABVCDriverItem@@@Z
  ?InternalSetAtIndex@?$CSimpleArray@VCLanguageItem@@V?$CSimpleArrayEqualHelper@VCLanguageItem@@@ATL@@@ATL@@QAEXHABVCLanguageItem@@@Z="C:\Windows\SysWOW64\uxlib".?InternalSetAtIndex@?$CSimpleArray@VCLanguageItem@@V?$CSimpleArrayEqualHelper@VCLanguageItem@@@ATL@@@ATL@@QAEXHABVCLanguageItem@@@Z
  ?IsDigitalMarkerKeyValid@CProductKeyModule@@AAEHXZ="C:\Windows\SysWOW64\uxlib".?IsDigitalMarkerKeyValid@CProductKeyModule@@AAEHXZ
  ?IsEmpty@?$CSimpleStringT@G$0A@@ATL@@QBE_NXZ="C:\Windows\SysWOW64\uxlib".?IsEmpty@?$CSimpleStringT@G$0A@@ATL@@QBE_NXZ
  ?IsLanguageEnabled@CInternationalUtils@@SGHV?$CStringT@GV?$StrTraitATL@GV?$ChTraitsCRT@G@ATL@@@ATL@@@ATL@@0@Z="C:\Windows\SysWOW64\uxlib".?IsLanguageEnabled@CInternationalUtils@@SGHV?$CStringT@GV?$StrTraitATL@GV?$ChTraitsCRT@G@ATL@@@ATL@@@ATL@@0@Z
  ?IsVolumeLicensingKeyValid@CProductKeyModule@@AAEHXZ="C:\Windows\SysWOW64\uxlib".?IsVolumeLicensingKeyValid@CProductKeyModule@@AAEHXZ
  ?Left@?$CStringT@GV?$StrTraitATL@GV?$ChTraitsCRT@G@ATL@@@ATL@@@ATL@@QBE?AV12@H@Z="C:\Windows\SysWOW64\uxlib".?Left@?$CStringT@GV?$StrTraitATL@GV?$ChTraitsCRT@G@ATL@@@ATL@@@ATL@@QBE?AV12@H@Z
  ?LoadStringW@?$CStringT@GV?$StrTraitATL@GV?$ChTraitsCRT@G@ATL@@@ATL@@@ATL@@QAEHI@Z="C:\Windows\SysWOW64\uxlib".?LoadStringW@?$CStringT@GV?$StrTraitATL@GV?$ChTraitsCRT@G@ATL@@@ATL@@@ATL@@QAEHI@Z
  ?LoadStringW@?$CStringT@GV?$StrTraitATL@GV?$ChTraitsCRT@G@ATL@@@ATL@@@ATL@@QAEHPAUHINSTANCE__@@I@Z="C:\Windows\SysWOW64\uxlib".?LoadStringW@?$CStringT@GV?$StrTraitATL@GV?$ChTraitsCRT@G@ATL@@@ATL@@@ATL@@QAEHPAUHINSTANCE__@@I@Z
  ?LoadStringW@?$CStringT@GV?$StrTraitATL@GV?$ChTraitsCRT@G@ATL@@@ATL@@@ATL@@QAEHPAUHINSTANCE__@@IG@Z="C:\Windows\SysWOW64\uxlib".?LoadStringW@?$CStringT@GV?$StrTraitATL@GV?$ChTraitsCRT@G@ATL@@@ATL@@@ATL@@QAEHPAUHINSTANCE__@@IG@Z
  ?LockBuffer@?$CSimpleStringT@G$0A@@ATL@@QAEPAGXZ="C:\Windows\SysWOW64\uxlib".?LockBuffer@?$CSimpleStringT@G$0A@@ATL@@QAEPAGXZ
  ?MakeLower@?$CStringT@GV?$StrTraitATL@GV?$ChTraitsCRT@G@ATL@@@ATL@@@ATL@@QAEAAV12@XZ="C:\Windows\SysWOW64\uxlib".?MakeLower@?$CStringT@GV?$StrTraitATL@GV?$ChTraitsCRT@G@ATL@@@ATL@@@ATL@@QAEAAV12@XZ
  ?MakeReverse@?$CStringT@GV?$StrTraitATL@GV?$ChTraitsCRT@G@ATL@@@ATL@@@ATL@@QAEAAV12@XZ="C:\Windows\SysWOW64\uxlib".?MakeReverse@?$CStringT@GV?$StrTraitATL@GV?$ChTraitsCRT@G@ATL@@@ATL@@@ATL@@QAEAAV12@XZ
  ?MakeUpper@?$CStringT@GV?$StrTraitATL@GV?$ChTraitsCRT@G@ATL@@@ATL@@@ATL@@QAEAAV12@XZ="C:\Windows\SysWOW64\uxlib".?MakeUpper@?$CStringT@GV?$StrTraitATL@GV?$ChTraitsCRT@G@ATL@@@ATL@@@ATL@@QAEAAV12@XZ
  ?Mid@?$CStringT@GV?$StrTraitATL@GV?$ChTraitsCRT@G@ATL@@@ATL@@@ATL@@QBE?AV12@H@Z="C:\Windows\SysWOW64\uxlib".?Mid@?$CStringT@GV?$StrTraitATL@GV?$ChTraitsCRT@G@ATL@@@ATL@@@ATL@@QBE?AV12@H@Z
  ?Mid@?$CStringT@GV?$StrTraitATL@GV?$ChTraitsCRT@G@ATL@@@ATL@@@ATL@@QBE?AV12@HH@Z="C:\Windows\SysWOW64\uxlib".?Mid@?$CStringT@GV?$StrTraitATL@GV?$ChTraitsCRT@G@ATL@@@ATL@@@ATL@@QBE?AV12@HH@Z
  ?OemToCharA@?$CStringT@GV?$StrTraitATL@GV?$ChTraitsCRT@G@ATL@@@ATL@@@ATL@@QAEXXZ="C:\Windows\SysWOW64\uxlib".?OemToCharA@?$CStringT@GV?$StrTraitATL@GV?$ChTraitsCRT@G@ATL@@@ATL@@@ATL@@QAEXXZ
  ?OnCallback@CProductKeyModule@@UAEIPBUWDS_DATA@@@Z="C:\Windows\SysWOW64\uxlib".?OnCallback@CProductKeyModule@@UAEIPBUWDS_DATA@@@Z
  ?PopulateDriverList@CLoadDriver@@AAEHXZ="C:\Windows\SysWOW64\uxlib".?PopulateDriverList@CLoadDriver@@AAEHXZ
  ?PopulateImageData@CImageData@@UAEHPBGPAGHPAUHINSTANCE__@@@Z="C:\Windows\SysWOW64\uxlib".?PopulateImageData@CImageData@@UAEHPBGPAGHPAUHINSTANCE__@@@Z
  ?Preallocate@?$CSimpleStringT@G$0A@@ATL@@QAEXH@Z="C:\Windows\SysWOW64\uxlib".?Preallocate@?$CSimpleStringT@G$0A@@ATL@@QAEXH@Z
  ?PrepareWrite2@?$CSimpleStringT@G$0A@@ATL@@AAEXH@Z="C:\Windows\SysWOW64\uxlib".?PrepareWrite2@?$CSimpleStringT@G$0A@@ATL@@AAEXH@Z
  ?PrepareWrite@?$CSimpleStringT@G$0A@@ATL@@AAEPAGH@Z="C:\Windows\SysWOW64\uxlib".?PrepareWrite@?$CSimpleStringT@G$0A@@ATL@@AAEPAGH@Z
  ?PublishLanguageGatherEvent@CInternationalUtils@@SGJPAX@Z="C:\Windows\SysWOW64\uxlib".?PublishLanguageGatherEvent@CInternationalUtils@@SGJPAX@Z
  ?Reallocate@?$CSimpleStringT@G$0A@@ATL@@AAEXH@Z="C:\Windows\SysWOW64\uxlib".?Reallocate@?$CSimpleStringT@G$0A@@ATL@@AAEXH@Z
  ?ReleaseBuffer@?$CSimpleStringT@G$0A@@ATL@@QAEXH@Z="C:\Windows\SysWOW64\uxlib".?ReleaseBuffer@?$CSimpleStringT@G$0A@@ATL@@QAEXH@Z
  ?ReleaseBufferSetLength@?$CSimpleStringT@G$0A@@ATL@@QAEXH@Z="C:\Windows\SysWOW64\uxlib".?ReleaseBufferSetLength@?$CSimpleStringT@G$0A@@ATL@@QAEXH@Z
  ?Remove@?$CSimpleArray@PAU_BLOCKED_REASON@@V?$CSimpleArrayEqualHelper@PAU_BLOCKED_REASON@@@ATL@@@ATL@@QAEHABQAU_BLOCKED_REASON@@@Z="C:\Windows\SysWOW64\uxlib".?Remove@?$CSimpleArray@PAU_BLOCKED_REASON@@V?$CSimpleArrayEqualHelper@PAU_BLOCKED_REASON@@@ATL@@@ATL@@QAEHABQAU_BLOCKED_REASON@@@Z
  ?Remove@?$CSimpleArray@PAVCLocale@@V?$CSimpleArrayEqualHelper@PAVCLocale@@@ATL@@@ATL@@QAEHABQAVCLocale@@@Z="C:\Windows\SysWOW64\uxlib".?Remove@?$CSimpleArray@PAVCLocale@@V?$CSimpleArrayEqualHelper@PAVCLocale@@@ATL@@@ATL@@QAEHABQAVCLocale@@@Z
  ?Remove@?$CSimpleArray@VCDriverItem@@V?$CSimpleArrayEqualHelper@VCDriverItem@@@ATL@@@ATL@@QAEHABVCDriverItem@@@Z="C:\Windows\SysWOW64\uxlib".?Remove@?$CSimpleArray@VCDriverItem@@V?$CSimpleArrayEqualHelper@VCDriverItem@@@ATL@@@ATL@@QAEHABVCDriverItem@@@Z
  ?Remove@?$CSimpleArray@VCLanguageItem@@V?$CSimpleArrayEqualHelper@VCLanguageItem@@@ATL@@@ATL@@QAEHABVCLanguageItem@@@Z="C:\Windows\SysWOW64\uxlib".?Remove@?$CSimpleArray@VCLanguageItem@@V?$CSimpleArrayEqualHelper@VCLanguageItem@@@ATL@@@ATL@@QAEHABVCLanguageItem@@@Z
  ?Remove@?$CStringT@GV?$StrTraitATL@GV?$ChTraitsCRT@G@ATL@@@ATL@@@ATL@@QAEHG@Z="C:\Windows\SysWOW64\uxlib".?Remove@?$CStringT@GV?$StrTraitATL@GV?$ChTraitsCRT@G@ATL@@@ATL@@@ATL@@QAEHG@Z
  ?RemoveAll@?$CSimpleArray@PAU_BLOCKED_REASON@@V?$CSimpleArrayEqualHelper@PAU_BLOCKED_REASON@@@ATL@@@ATL@@QAEXXZ="C:\Windows\SysWOW64\uxlib".?RemoveAll@?$CSimpleArray@PAU_BLOCKED_REASON@@V?$CSimpleArrayEqualHelper@PAU_BLOCKED_REASON@@@ATL@@@ATL@@QAEXXZ
  ?RemoveAll@?$CSimpleArray@PAVCLocale@@V?$CSimpleArrayEqualHelper@PAVCLocale@@@ATL@@@ATL@@QAEXXZ="C:\Windows\SysWOW64\uxlib".?RemoveAll@?$CSimpleArray@PAVCLocale@@V?$CSimpleArrayEqualHelper@PAVCLocale@@@ATL@@@ATL@@QAEXXZ
  ?RemoveAll@?$CSimpleArray@VCDriverItem@@V?$CSimpleArrayEqualHelper@VCDriverItem@@@ATL@@@ATL@@QAEXXZ="C:\Windows\SysWOW64\uxlib".?RemoveAll@?$CSimpleArray@VCDriverItem@@V?$CSimpleArrayEqualHelper@VCDriverItem@@@ATL@@@ATL@@QAEXXZ
  ?RemoveAll@?$CSimpleArray@VCLanguageItem@@V?$CSimpleArrayEqualHelper@VCLanguageItem@@@ATL@@@ATL@@QAEXXZ="C:\Windows\SysWOW64\uxlib".?RemoveAll@?$CSimpleArray@VCLanguageItem@@V?$CSimpleArrayEqualHelper@VCLanguageItem@@@ATL@@@ATL@@QAEXXZ
  ?RemoveAt@?$CSimpleArray@PAU_BLOCKED_REASON@@V?$CSimpleArrayEqualHelper@PAU_BLOCKED_REASON@@@ATL@@@ATL@@QAEHH@Z="C:\Windows\SysWOW64\uxlib".?RemoveAt@?$CSimpleArray@PAU_BLOCKED_REASON@@V?$CSimpleArrayEqualHelper@PAU_BLOCKED_REASON@@@ATL@@@ATL@@QAEHH@Z
  ?RemoveAt@?$CSimpleArray@PAVCLocale@@V?$CSimpleArrayEqualHelper@PAVCLocale@@@ATL@@@ATL@@QAEHH@Z="C:\Windows\SysWOW64\uxlib".?RemoveAt@?$CSimpleArray@PAVCLocale@@V?$CSimpleArrayEqualHelper@PAVCLocale@@@ATL@@@ATL@@QAEHH@Z
  ?RemoveAt@?$CSimpleArray@VCDriverItem@@V?$CSimpleArrayEqualHelper@VCDriverItem@@@ATL@@@ATL@@QAEHH@Z="C:\Windows\SysWOW64\uxlib".?RemoveAt@?$CSimpleArray@VCDriverItem@@V?$CSimpleArrayEqualHelper@VCDriverItem@@@ATL@@@ATL@@QAEHH@Z
  ?RemoveAt@?$CSimpleArray@VCLanguageItem@@V?$CSimpleArrayEqualHelper@VCLanguageItem@@@ATL@@@ATL@@QAEHH@Z="C:\Windows\SysWOW64\uxlib".?RemoveAt@?$CSimpleArray@VCLanguageItem@@V?$CSimpleArrayEqualHelper@VCLanguageItem@@@ATL@@@ATL@@QAEHH@Z
  ?RemoveChar@MyUtilString@@QAEHH@Z="C:\Windows\SysWOW64\uxlib".?RemoveChar@MyUtilString@@QAEHH@Z
  ?RemoveString@MyUtilString@@QAEHHH@Z="C:\Windows\SysWOW64\uxlib".?RemoveString@MyUtilString@@QAEHHH@Z
  ?RemoveString@PIDUtilStringView@@QAEHHHH@Z="C:\Windows\SysWOW64\uxlib".?RemoveString@PIDUtilStringView@@QAEHHHH@Z
  ?Replace@?$CStringT@GV?$StrTraitATL@GV?$ChTraitsCRT@G@ATL@@@ATL@@@ATL@@QAEHGG@Z="C:\Windows\SysWOW64\uxlib".?Replace@?$CStringT@GV?$StrTraitATL@GV?$ChTraitsCRT@G@ATL@@@ATL@@@ATL@@QAEHGG@Z
  ?Replace@?$CStringT@GV?$StrTraitATL@GV?$ChTraitsCRT@G@ATL@@@ATL@@@ATL@@QAEHPBG0@Z="C:\Windows\SysWOW64\uxlib".?Replace@?$CStringT@GV?$StrTraitATL@GV?$ChTraitsCRT@G@ATL@@@ATL@@@ATL@@QAEHPBG0@Z
  ?ReplaceString@PIDUtilStringView@@QAEHHHPBG@Z="C:\Windows\SysWOW64\uxlib".?ReplaceString@PIDUtilStringView@@QAEHHHPBG@Z
  ?ReverseFind@?$CStringT@GV?$StrTraitATL@GV?$ChTraitsCRT@G@ATL@@@ATL@@@ATL@@QBEHG@Z="C:\Windows\SysWOW64\uxlib".?ReverseFind@?$CStringT@GV?$StrTraitATL@GV?$ChTraitsCRT@G@ATL@@@ATL@@@ATL@@QBEHG@Z
  ?Right@?$CStringT@GV?$StrTraitATL@GV?$ChTraitsCRT@G@ATL@@@ATL@@@ATL@@QBE?AV12@H@Z="C:\Windows\SysWOW64\uxlib".?Right@?$CStringT@GV?$StrTraitATL@GV?$ChTraitsCRT@G@ATL@@@ATL@@@ATL@@QBE?AV12@H@Z
  ?SetActivation@CProductKeyModule@@UAEHK@Z="C:\Windows\SysWOW64\uxlib".?SetActivation@CProductKeyModule@@UAEHK@Z
  ?SetAt@?$CSimpleStringT@G$0A@@ATL@@QAEXHG@Z="C:\Windows\SysWOW64\uxlib".?SetAt@?$CSimpleStringT@G$0A@@ATL@@QAEXHG@Z
  ?SetAtIndex@?$CSimpleArray@PAU_BLOCKED_REASON@@V?$CSimpleArrayEqualHelper@PAU_BLOCKED_REASON@@@ATL@@@ATL@@QAEHHABQAU_BLOCKED_REASON@@@Z="C:\Windows\SysWOW64\uxlib".?SetAtIndex@?$CSimpleArray@PAU_BLOCKED_REASON@@V?$CSimpleArrayEqualHelper@PAU_BLOCKED_REASON@@@ATL@@@ATL@@QAEHHABQAU_BLOCKED_REASON@@@Z
  ?SetAtIndex@?$CSimpleArray@PAVCLocale@@V?$CSimpleArrayEqualHelper@PAVCLocale@@@ATL@@@ATL@@QAEHHABQAVCLocale@@@Z="C:\Windows\SysWOW64\uxlib".?SetAtIndex@?$CSimpleArray@PAVCLocale@@V?$CSimpleArrayEqualHelper@PAVCLocale@@@ATL@@@ATL@@QAEHHABQAVCLocale@@@Z
  ?SetAtIndex@?$CSimpleArray@VCDriverItem@@V?$CSimpleArrayEqualHelper@VCDriverItem@@@ATL@@@ATL@@QAEHHABVCDriverItem@@@Z="C:\Windows\SysWOW64\uxlib".?SetAtIndex@?$CSimpleArray@VCDriverItem@@V?$CSimpleArrayEqualHelper@VCDriverItem@@@ATL@@@ATL@@QAEHHABVCDriverItem@@@Z
  ?SetAtIndex@?$CSimpleArray@VCLanguageItem@@V?$CSimpleArrayEqualHelper@VCLanguageItem@@@ATL@@@ATL@@QAEHHABVCLanguageItem@@@Z="C:\Windows\SysWOW64\uxlib".?SetAtIndex@?$CSimpleArray@VCLanguageItem@@V?$CSimpleArrayEqualHelper@VCLanguageItem@@@ATL@@@ATL@@QAEHHABVCLanguageItem@@@Z
  ?SetEditionName@CImageData@@UAEXPAG@Z="C:\Windows\SysWOW64\uxlib".?SetEditionName@CImageData@@UAEXPAG@Z
  ?SetFoundationFlag@CImageData@@UAEXH@Z="C:\Windows\SysWOW64\uxlib".?SetFoundationFlag@CImageData@@UAEXH@Z
  ?SetHardwareFilter@CLoadDriver@@UAEHH@Z="C:\Windows\SysWOW64\uxlib".?SetHardwareFilter@CLoadDriver@@UAEHH@Z
  ?SetHideOOBELang@CInternationalUtils@@SGHV?$CStringT@GV?$StrTraitATL@GV?$ChTraitsCRT@G@ATL@@@ATL@@@ATL@@@Z="C:\Windows\SysWOW64\uxlib".?SetHideOOBELang@CInternationalUtils@@SGHV?$CStringT@GV?$StrTraitATL@GV?$ChTraitsCRT@G@ATL@@@ATL@@@ATL@@@Z
  ?SetInstance@CImageData@@SGXPAVIImageData@@@Z="C:\Windows\SysWOW64\uxlib".?SetInstance@CImageData@@SGXPAVIImageData@@@Z
  ?SetInstance@CLoadDriver@@SGXPAVILoadDriver@@@Z="C:\Windows\SysWOW64\uxlib".?SetInstance@CLoadDriver@@SGXPAVILoadDriver@@@Z
  ?SetLength@?$CSimpleStringT@G$0A@@ATL@@AAEXH@Z="C:\Windows\SysWOW64\uxlib".?SetLength@?$CSimpleStringT@G$0A@@ATL@@AAEXH@Z
  ?SetLocale@CLayeredDrivers@@UAEHV?$CStringT@GV?$StrTraitATL@GV?$ChTraitsCRT@G@ATL@@@ATL@@@ATL@@@Z="C:\Windows\SysWOW64\uxlib".?SetLocale@CLayeredDrivers@@UAEHV?$CStringT@GV?$StrTraitATL@GV?$ChTraitsCRT@G@ATL@@@ATL@@@ATL@@@Z
  ?SetManager@?$CSimpleStringT@G$0A@@ATL@@QAEXPAUIAtlStringMgr@2@@Z="C:\Windows\SysWOW64\uxlib".?SetManager@?$CSimpleStringT@G$0A@@ATL@@QAEXPAUIAtlStringMgr@2@@Z
  ?SetProductKey@CProductKeyModule@@AAEXV?$CStringT@GV?$StrTraitATL@GV?$ChTraitsCRT@G@ATL@@@ATL@@@ATL@@@Z="C:\Windows\SysWOW64\uxlib".?SetProductKey@CProductKeyModule@@AAEXV?$CStringT@GV?$StrTraitATL@GV?$ChTraitsCRT@G@ATL@@@ATL@@@ATL@@@Z
  ?SetString@?$CSimpleStringT@G$0A@@ATL@@QAEXPBG@Z="C:\Windows\SysWOW64\uxlib".?SetString@?$CSimpleStringT@G$0A@@ATL@@QAEXPBG@Z
  ?SetString@?$CSimpleStringT@G$0A@@ATL@@QAEXPBGH@Z="C:\Windows\SysWOW64\uxlib".?SetString@?$CSimpleStringT@G$0A@@ATL@@QAEXPBGH@Z
  ?SetSysString@?$CStringT@GV?$StrTraitATL@GV?$ChTraitsCRT@G@ATL@@@ATL@@@ATL@@QBEPAGPAPAG@Z="C:\Windows\SysWOW64\uxlib".?SetSysString@?$CStringT@GV?$StrTraitATL@GV?$ChTraitsCRT@G@ATL@@@ATL@@@ATL@@QBEPAGPAPAG@Z
  ?SetTargetKeyboard@CInternationalUtils@@SGHV?$CStringT@GV?$StrTraitATL@GV?$ChTraitsCRT@G@ATL@@@ATL@@@ATL@@@Z="C:\Windows\SysWOW64\uxlib".?SetTargetKeyboard@CInternationalUtils@@SGHV?$CStringT@GV?$StrTraitATL@GV?$ChTraitsCRT@G@ATL@@@ATL@@@ATL@@@Z
  ?SetTargetLanguage@CInternationalUtils@@SGHV?$CStringT@GV?$StrTraitATL@GV?$ChTraitsCRT@G@ATL@@@ATL@@@ATL@@@Z="C:\Windows\SysWOW64\uxlib".?SetTargetLanguage@CInternationalUtils@@SGHV?$CStringT@GV?$StrTraitATL@GV?$ChTraitsCRT@G@ATL@@@ATL@@@ATL@@@Z
  ?SetTargetLayeredDriver@CInternationalUtils@@SGHV?$CStringT@GV?$StrTraitATL@GV?$ChTraitsCRT@G@ATL@@@ATL@@@ATL@@@Z="C:\Windows\SysWOW64\uxlib".?SetTargetLayeredDriver@CInternationalUtils@@SGHV?$CStringT@GV?$StrTraitATL@GV?$ChTraitsCRT@G@ATL@@@ATL@@@ATL@@@Z
  ?SetTargetLocale@CInternationalUtils@@SGHV?$CStringT@GV?$StrTraitATL@GV?$ChTraitsCRT@G@ATL@@@ATL@@@ATL@@@Z="C:\Windows\SysWOW64\uxlib".?SetTargetLocale@CInternationalUtils@@SGHV?$CStringT@GV?$StrTraitATL@GV?$ChTraitsCRT@G@ATL@@@ATL@@@ATL@@@Z
  ?SetUILanguage@CInternationalUtils@@SGHV?$CStringT@GV?$StrTraitATL@GV?$ChTraitsCRT@G@ATL@@@ATL@@@ATL@@@Z="C:\Windows\SysWOW64\uxlib".?SetUILanguage@CInternationalUtils@@SGHV?$CStringT@GV?$StrTraitATL@GV?$ChTraitsCRT@G@ATL@@@ATL@@@ATL@@@Z
  ?SetUILanguage@CKeyboardLayouts@@UAEHV?$CStringT@GV?$StrTraitATL@GV?$ChTraitsCRT@G@ATL@@@ATL@@@ATL@@@Z="C:\Windows\SysWOW64\uxlib".?SetUILanguage@CKeyboardLayouts@@UAEHV?$CStringT@GV?$StrTraitATL@GV?$ChTraitsCRT@G@ATL@@@ATL@@@ATL@@@Z
  ?SetUILanguage@CLanguages@@UAEHV?$CStringT@GV?$StrTraitATL@GV?$ChTraitsCRT@G@ATL@@@ATL@@@ATL@@@Z="C:\Windows\SysWOW64\uxlib".?SetUILanguage@CLanguages@@UAEHV?$CStringT@GV?$StrTraitATL@GV?$ChTraitsCRT@G@ATL@@@ATL@@@ATL@@@Z
  ?SetUILanguage@CLayeredDrivers@@UAEHV?$CStringT@GV?$StrTraitATL@GV?$ChTraitsCRT@G@ATL@@@ATL@@@ATL@@@Z="C:\Windows\SysWOW64\uxlib".?SetUILanguage@CLayeredDrivers@@UAEHV?$CStringT@GV?$StrTraitATL@GV?$ChTraitsCRT@G@ATL@@@ATL@@@ATL@@@Z
  ?SetUILanguage@CLocales@@UAEHV?$CStringT@GV?$StrTraitATL@GV?$ChTraitsCRT@G@ATL@@@ATL@@@ATL@@@Z="C:\Windows\SysWOW64\uxlib".?SetUILanguage@CLocales@@UAEHV?$CStringT@GV?$StrTraitATL@GV?$ChTraitsCRT@G@ATL@@@ATL@@@ATL@@@Z
  ?ShowOSK@COSK@@QAEPAXHPAG0@Z="C:\Windows\SysWOW64\uxlib".?ShowOSK@COSK@@QAEPAXHPAG0@Z
  ?SpanExcluding@?$CStringT@GV?$StrTraitATL@GV?$ChTraitsCRT@G@ATL@@@ATL@@@ATL@@QBE?AV12@PBG@Z="C:\Windows\SysWOW64\uxlib".?SpanExcluding@?$CStringT@GV?$StrTraitATL@GV?$ChTraitsCRT@G@ATL@@@ATL@@@ATL@@QBE?AV12@PBG@Z
  ?SpanIncluding@?$CStringT@GV?$StrTraitATL@GV?$ChTraitsCRT@G@ATL@@@ATL@@@ATL@@QBE?AV12@PBG@Z="C:\Windows\SysWOW64\uxlib".?SpanIncluding@?$CStringT@GV?$StrTraitATL@GV?$ChTraitsCRT@G@ATL@@@ATL@@@ATL@@QBE?AV12@PBG@Z
  ?StaticInstallCallback@CLoadDriver@@CGXW4WDS_EVENT_RESULT@@PBUWDS_DATA@@PAX@Z="C:\Windows\SysWOW64\uxlib".?StaticInstallCallback@CLoadDriver@@CGXW4WDS_EVENT_RESULT@@PBUWDS_DATA@@PAX@Z
  ?StaticScanCallback@CLoadDriver@@CGXW4WDS_EVENT_RESULT@@PBUWDS_DATA@@PAX@Z="C:\Windows\SysWOW64\uxlib".?StaticScanCallback@CLoadDriver@@CGXW4WDS_EVENT_RESULT@@PBUWDS_DATA@@PAX@Z
  ?StringLength@?$CSimpleStringT@G$0A@@ATL@@SAHPBD@Z="C:\Windows\SysWOW64\uxlib".?StringLength@?$CSimpleStringT@G$0A@@ATL@@SAHPBD@Z
  ?StringLength@?$CSimpleStringT@G$0A@@ATL@@SAHPBG@Z="C:\Windows\SysWOW64\uxlib".?StringLength@?$CSimpleStringT@G$0A@@ATL@@SAHPBG@Z
  ?ThrowMemoryException@?$CSimpleStringT@G$0A@@ATL@@KAXXZ="C:\Windows\SysWOW64\uxlib".?ThrowMemoryException@?$CSimpleStringT@G$0A@@ATL@@KAXXZ
  ?Tokenize@?$CStringT@GV?$StrTraitATL@GV?$ChTraitsCRT@G@ATL@@@ATL@@@ATL@@QBE?AV12@PBGAAH@Z="C:\Windows\SysWOW64\uxlib".?Tokenize@?$CStringT@GV?$StrTraitATL@GV?$ChTraitsCRT@G@ATL@@@ATL@@@ATL@@QBE?AV12@PBGAAH@Z
  ?Trim@?$CStringT@GV?$StrTraitATL@GV?$ChTraitsCRT@G@ATL@@@ATL@@@ATL@@QAEAAV12@G@Z="C:\Windows\SysWOW64\uxlib".?Trim@?$CStringT@GV?$StrTraitATL@GV?$ChTraitsCRT@G@ATL@@@ATL@@@ATL@@QAEAAV12@G@Z
  ?Trim@?$CStringT@GV?$StrTraitATL@GV?$ChTraitsCRT@G@ATL@@@ATL@@@ATL@@QAEAAV12@PBG@Z="C:\Windows\SysWOW64\uxlib".?Trim@?$CStringT@GV?$StrTraitATL@GV?$ChTraitsCRT@G@ATL@@@ATL@@@ATL@@QAEAAV12@PBG@Z
  ?Trim@?$CStringT@GV?$StrTraitATL@GV?$ChTraitsCRT@G@ATL@@@ATL@@@ATL@@QAEAAV12@XZ="C:\Windows\SysWOW64\uxlib".?Trim@?$CStringT@GV?$StrTraitATL@GV?$ChTraitsCRT@G@ATL@@@ATL@@@ATL@@QAEAAV12@XZ
  ?TrimLeft@?$CStringT@GV?$StrTraitATL@GV?$ChTraitsCRT@G@ATL@@@ATL@@@ATL@@QAEAAV12@G@Z="C:\Windows\SysWOW64\uxlib".?TrimLeft@?$CStringT@GV?$StrTraitATL@GV?$ChTraitsCRT@G@ATL@@@ATL@@@ATL@@QAEAAV12@G@Z
  ?TrimLeft@?$CStringT@GV?$StrTraitATL@GV?$ChTraitsCRT@G@ATL@@@ATL@@@ATL@@QAEAAV12@PBG@Z="C:\Windows\SysWOW64\uxlib".?TrimLeft@?$CStringT@GV?$StrTraitATL@GV?$ChTraitsCRT@G@ATL@@@ATL@@@ATL@@QAEAAV12@PBG@Z
  ?TrimLeft@?$CStringT@GV?$StrTraitATL@GV?$ChTraitsCRT@G@ATL@@@ATL@@@ATL@@QAEAAV12@XZ="C:\Windows\SysWOW64\uxlib".?TrimLeft@?$CStringT@GV?$StrTraitATL@GV?$ChTraitsCRT@G@ATL@@@ATL@@@ATL@@QAEAAV12@XZ
  ?TrimRight@?$CStringT@GV?$StrTraitATL@GV?$ChTraitsCRT@G@ATL@@@ATL@@@ATL@@QAEAAV12@G@Z="C:\Windows\SysWOW64\uxlib".?TrimRight@?$CStringT@GV?$StrTraitATL@GV?$ChTraitsCRT@G@ATL@@@ATL@@@ATL@@QAEAAV12@G@Z
  ?TrimRight@?$CStringT@GV?$StrTraitATL@GV?$ChTraitsCRT@G@ATL@@@ATL@@@ATL@@QAEAAV12@PBG@Z="C:\Windows\SysWOW64\uxlib".?TrimRight@?$CStringT@GV?$StrTraitATL@GV?$ChTraitsCRT@G@ATL@@@ATL@@@ATL@@QAEAAV12@PBG@Z
  ?TrimRight@?$CStringT@GV?$StrTraitATL@GV?$ChTraitsCRT@G@ATL@@@ATL@@@ATL@@QAEAAV12@XZ="C:\Windows\SysWOW64\uxlib".?TrimRight@?$CStringT@GV?$StrTraitATL@GV?$ChTraitsCRT@G@ATL@@@ATL@@@ATL@@QAEAAV12@XZ
  ?Truncate@?$CSimpleStringT@G$0A@@ATL@@QAEXH@Z="C:\Windows\SysWOW64\uxlib".?Truncate@?$CSimpleStringT@G$0A@@ATL@@QAEXH@Z
  ?UnlockBuffer@?$CSimpleStringT@G$0A@@ATL@@QAEXXZ="C:\Windows\SysWOW64\uxlib".?UnlockBuffer@?$CSimpleStringT@G$0A@@ATL@@QAEXXZ
  ?ValidatePid@CProductKeyModule@@AAEJXZ="C:\Windows\SysWOW64\uxlib".?ValidatePid@CProductKeyModule@@AAEJXZ
  ?ValidateProductKey@CProductKeyModule@@UAEHPAXPAGP6GX0I@Z@Z="C:\Windows\SysWOW64\uxlib".?ValidateProductKey@CProductKeyModule@@UAEHPAXPAGP6GX0I@Z@Z
  ?s_Instance@CImageData@@0PAVIImageData@@A="C:\Windows\SysWOW64\uxlib".?s_Instance@CImageData@@0PAVIImageData@@A
  ?s_Instance@CLoadDriver@@0PAVILoadDriver@@A="C:\Windows\SysWOW64\uxlib".?s_Instance@CLoadDriver@@0PAVILoadDriver@@A
  ?v_AddBlockedReason@CImageData@@AAEXPBG0@Z="C:\Windows\SysWOW64\uxlib".?v_AddBlockedReason@CImageData@@AAEXPBG0@Z
  ?v_AddLanguage@CImageData@@AAEXPBG0H@Z="C:\Windows\SysWOW64\uxlib".?v_AddLanguage@CImageData@@AAEXPBG0H@Z
  ?v_BuildKey@CImageData@@AAEPAGPBG0@Z="C:\Windows\SysWOW64\uxlib".?v_BuildKey@CImageData@@AAEPAGPBG0@Z
  ?v_CopyStr@CImageData@@AAEPAGPBG@Z="C:\Windows\SysWOW64\uxlib".?v_CopyStr@CImageData@@AAEPAGPBG@Z
  ?v_DeleteKeyboardLayouts@CKeyboardLayouts@@AAEXXZ="C:\Windows\SysWOW64\uxlib".?v_DeleteKeyboardLayouts@CKeyboardLayouts@@AAEXXZ
  ?v_DeleteLanguages@CLanguages@@AAEXXZ="C:\Windows\SysWOW64\uxlib".?v_DeleteLanguages@CLanguages@@AAEXXZ
  ?v_DeleteLayeredDrivers@CLayeredDrivers@@AAEXXZ="C:\Windows\SysWOW64\uxlib".?v_DeleteLayeredDrivers@CLayeredDrivers@@AAEXXZ
  ?v_EnumLocalesProc@CLocales@@CGHPAGKJ@Z="C:\Windows\SysWOW64\uxlib".?v_EnumLocalesProc@CLocales@@CGHPAGKJ@Z
  ?v_FreeLanguages@CImageData@@AAEXXZ="C:\Windows\SysWOW64\uxlib".?v_FreeLanguages@CImageData@@AAEXXZ
  ?v_FreeReasons@CImageData@@AAEXXZ="C:\Windows\SysWOW64\uxlib".?v_FreeReasons@CImageData@@AAEXXZ
  ?v_GetArchitectureName@CImageData@@AAEPAGPAUHINSTANCE__@@K@Z="C:\Windows\SysWOW64\uxlib".?v_GetArchitectureName@CImageData@@AAEPAGPAUHINSTANCE__@@K@Z
  ?v_GetAvailableLanguages@CImageData@@AAEXPBG@Z="C:\Windows\SysWOW64\uxlib".?v_GetAvailableLanguages@CImageData@@AAEXPBG@Z
  ?v_GetBBStr@CImageData@@AAEPAGPBG0@Z="C:\Windows\SysWOW64\uxlib".?v_GetBBStr@CImageData@@AAEPAGPBG0@Z
  ?v_GetBBVal@CImageData@@AAEKPBG0K@Z="C:\Windows\SysWOW64\uxlib".?v_GetBBVal@CImageData@@AAEKPBG0K@Z
  ?v_GetBlockedReasons@CImageData@@AAEXPBG@Z="C:\Windows\SysWOW64\uxlib".?v_GetBlockedReasons@CImageData@@AAEXPBG@Z
  ?v_GetLangIniPath@CLanguages@@AAE?AV?$CStringT@GV?$StrTraitATL@GV?$ChTraitsCRT@G@ATL@@@ATL@@@ATL@@XZ="C:\Windows\SysWOW64\uxlib".?v_GetLangIniPath@CLanguages@@AAE?AV?$CStringT@GV?$StrTraitATL@GV?$ChTraitsCRT@G@ATL@@@ATL@@@ATL@@XZ
  ?v_InitInputProcs@CKeyboardLayouts@@AAEHXZ="C:\Windows\SysWOW64\uxlib".?v_InitInputProcs@CKeyboardLayouts@@AAEHXZ
  ?v_InitLanguage@CLanguages@@AAEPAVCLanguage@@V?$CStringT@GV?$StrTraitATL@GV?$ChTraitsCRT@G@ATL@@@ATL@@@ATL@@@Z="C:\Windows\SysWOW64\uxlib".?v_InitLanguage@CLanguages@@AAEPAVCLanguage@@V?$CStringT@GV?$StrTraitATL@GV?$ChTraitsCRT@G@ATL@@@ATL@@@ATL@@@Z
  ?v_IsValid@PIDUtilStringView@@AAEHG@Z="C:\Windows\SysWOW64\uxlib".?v_IsValid@PIDUtilStringView@@AAEHG@Z
  ?v_LoadInputProcs@CKeyboardLayouts@@AAEHXZ="C:\Windows\SysWOW64\uxlib".?v_LoadInputProcs@CKeyboardLayouts@@AAEHXZ
  ?v_MakePidString@PIDUtilStringView@@AAEHXZ="C:\Windows\SysWOW64\uxlib".?v_MakePidString@PIDUtilStringView@@AAEHXZ
  ?v_MakeValidString@PIDUtilStringView@@AAE?AV?$CStringT@GV?$StrTraitATL@GV?$ChTraitsCRT@G@ATL@@@ATL@@@ATL@@PBG@Z="C:\Windows\SysWOW64\uxlib".?v_MakeValidString@PIDUtilStringView@@AAE?AV?$CStringT@GV?$StrTraitATL@GV?$ChTraitsCRT@G@ATL@@@ATL@@@ATL@@PBG@Z
  ?v_PopulateKeyboardLayouts@CKeyboardLayouts@@AAEHXZ="C:\Windows\SysWOW64\uxlib".?v_PopulateKeyboardLayouts@CKeyboardLayouts@@AAEHXZ
  ?v_PopulateLanguages@CLanguages@@AAEHXZ="C:\Windows\SysWOW64\uxlib".?v_PopulateLanguages@CLanguages@@AAEHXZ
  ?v_PopulateLayeredDrivers@CLayeredDrivers@@AAEHXZ="C:\Windows\SysWOW64\uxlib".?v_PopulateLayeredDrivers@CLayeredDrivers@@AAEHXZ
  ?v_PopulateLocales@CLocales@@AAEHXZ="C:\Windows\SysWOW64\uxlib".?v_PopulateLocales@CLocales@@AAEHXZ
