EXPORTS
  ??0BcastDVR_OutputDebug@@QEAA@PEBD@Z=C:\Windows\System32\BcastDVRCommon.??0BcastDVR_OutputDebug@@QEAA@PEBD@Z
  ??0ImpersonateHelper@Internal@Capture@Media@Windows@@QEAA@XZ=C:\Windows\System32\BcastDVRCommon.??0ImpersonateHelper@Internal@Capture@Media@Windows@@QEAA@XZ
  ??1ImpersonateHelper@Internal@Capture@Media@Windows@@QEAA@XZ=C:\Windows\System32\BcastDVRCommon.??1ImpersonateHelper@Internal@Capture@Media@Windows@@QEAA@XZ
  ?AppendPath@EnvironmentManager@Internal@Capture@Media@Windows@@YAJAEBVString@25@0PEAV625@@Z=C:\Windows\System32\BcastDVRCommon.?AppendPath@EnvironmentManager@Internal@Capture@Media@Windows@@YAJAEBVString@25@0PEAV625@@Z
  ?CalcPreviewVideoBufferDataSize@GameDVRUtility@Internal@Capture@Media@Windows@@YAJKKPEAK@Z=C:\Windows\System32\BcastDVRCommon.?CalcPreviewVideoBufferDataSize@GameDVRUtility@Internal@Capture@Media@Windows@@YAJKKPEAK@Z
  ?CalcPreviewVideoFrameDataSize@GameDVRUtility@Internal@Capture@Media@Windows@@YAJKKPEAK@Z=C:\Windows\System32\BcastDVRCommon.?CalcPreviewVideoFrameDataSize@GameDVRUtility@Internal@Capture@Media@Windows@@YAJKKPEAK@Z
  ?CleanupObsoletePlugIns@PlugInUtility@Internal@Capture@Media@Windows@@YAJPEAUHKEY__@@@Z=C:\Windows\System32\BcastDVRCommon.?CleanupObsoletePlugIns@PlugInUtility@Internal@Capture@Media@Windows@@YAJPEAUHKEY__@@@Z
  ?CloseDuplicatedHandle@GameDVRUtility@Internal@Capture@Media@Windows@@YAJKPEAX@Z=C:\Windows\System32\BcastDVRCommon.?CloseDuplicatedHandle@GameDVRUtility@Internal@Capture@Media@Windows@@YAJKPEAX@Z
  ?CloseDuplicatedHandles@GameDVRUtility@Internal@Capture@Media@Windows@@YAJKKQEAPEAX@Z=C:\Windows\System32\BcastDVRCommon.?CloseDuplicatedHandles@GameDVRUtility@Internal@Capture@Media@Windows@@YAJKKQEAPEAX@Z
  ?FreeBroadcastSebEventIds@PlugInUtility@Internal@Capture@Media@Windows@@YAXPEAPEAU_GUID@@@Z=C:\Windows\System32\BcastDVRCommon.?FreeBroadcastSebEventIds@PlugInUtility@Internal@Capture@Media@Windows@@YAXPEAPEAU_GUID@@@Z
  ?GetBroadcastPlugInRegistryPathFromSebEventId@EnvironmentManager@Internal@Capture@Media@Windows@@YAJAEBU_GUID@@PEAVString@25@@Z=C:\Windows\System32\BcastDVRCommon.?GetBroadcastPlugInRegistryPathFromSebEventId@EnvironmentManager@Internal@Capture@Media@Windows@@YAJAEBU_GUID@@PEAVString@25@@Z
  ?GetBroadcastPlugInRegistryPathFromSebEventIdString@EnvironmentManager@Internal@Capture@Media@Windows@@YAJPEBGPEAVString@25@@Z=C:\Windows\System32\BcastDVRCommon.?GetBroadcastPlugInRegistryPathFromSebEventIdString@EnvironmentManager@Internal@Capture@Media@Windows@@YAJPEBGPEAVString@25@@Z
  ?GetBroadcastSebEventIds@PlugInUtility@Internal@Capture@Media@Windows@@YAJPEAKPEAPEAU_GUID@@@Z=C:\Windows\System32\BcastDVRCommon.?GetBroadcastSebEventIds@PlugInUtility@Internal@Capture@Media@Windows@@YAJPEAKPEAPEAU_GUID@@@Z
  ?GetCallersPlugInInfo@PlugInUtility@Internal@Capture@Media@Windows@@YAJPEAUHKEY__@@AEBU_GUID@@PEAVString@25@2@Z=C:\Windows\System32\BcastDVRCommon.?GetCallersPlugInInfo@PlugInUtility@Internal@Capture@Media@Windows@@YAJPEAUHKEY__@@AEBU_GUID@@PEAVString@25@2@Z
  ?GetCallersSebEventId@PlugInUtility@Internal@Capture@Media@Windows@@YAJPEAU_GUID@@@Z=C:\Windows\System32\BcastDVRCommon.?GetCallersSebEventId@PlugInUtility@Internal@Capture@Media@Windows@@YAJPEAU_GUID@@@Z
  ?GetDefaultPlugIn@PlugInUtility@Internal@Capture@Media@Windows@@YAJPEAUHKEY__@@PEAU_GUID@@@Z=C:\Windows\System32\BcastDVRCommon.?GetDefaultPlugIn@PlugInUtility@Internal@Capture@Media@Windows@@YAJPEAUHKEY__@@PEAU_GUID@@@Z
  ?GetErrorHistoryCount@BcastDVRLogProviderBase@@SAKXZ=C:\Windows\System32\BcastDVRCommon.?GetErrorHistoryCount@BcastDVRLogProviderBase@@SAKXZ
  ?GetFormattedErrorHistory@BcastDVRLogProviderBase@@SAKPEAVString@Internal@Windows@@@Z=C:\Windows\System32\BcastDVRCommon.?GetFormattedErrorHistory@BcastDVRLogProviderBase@@SAKPEAVString@Internal@Windows@@@Z
  ?GetGuidFromGuidString@GameDVRUtility@Internal@Capture@Media@Windows@@YAJPEBGPEAU_GUID@@@Z=C:\Windows\System32\BcastDVRCommon.?GetGuidFromGuidString@GameDVRUtility@Internal@Capture@Media@Windows@@YAJPEBGPEAU_GUID@@@Z
  ?GetGuidStringFromGuid@GameDVRUtility@Internal@Capture@Media@Windows@@YAJAEBU_GUID@@_NPEAVString@25@@Z=C:\Windows\System32\BcastDVRCommon.?GetGuidStringFromGuid@GameDVRUtility@Internal@Capture@Media@Windows@@YAJAEBU_GUID@@_NPEAVString@25@@Z
  ?GetHKeyCurrentUserForDefaultUser@GameDVRUtility@Internal@Capture@Media@Windows@@YAJPEAPEAUHKEY__@@@Z=C:\Windows\System32\BcastDVRCommon.?GetHKeyCurrentUserForDefaultUser@GameDVRUtility@Internal@Capture@Media@Windows@@YAJPEAPEAUHKEY__@@@Z
  ?GetHKeyCurrentUserForIUser@GameDVRUtility@Internal@Capture@Media@Windows@@YAJPEAUIUser@System@5@PEAPEAUHKEY__@@@Z=C:\Windows\System32\BcastDVRCommon.?GetHKeyCurrentUserForIUser@GameDVRUtility@Internal@Capture@Media@Windows@@YAJPEAUIUser@System@5@PEAPEAUHKEY__@@@Z
  ?GetIUserSID@GameDVRUtility@Internal@Capture@Media@Windows@@YAJPEAUIUser@System@5@PEAVString@25@@Z=C:\Windows\System32\BcastDVRCommon.?GetIUserSID@GameDVRUtility@Internal@Capture@Media@Windows@@YAJPEAUIUser@System@5@PEAVString@25@@Z
  ?GetJsonArray@GameDVRUtility@Internal@Capture@Media@Windows@@YAJPEAU?$IMap@PEAUHSTRING__@@PEAUIJsonValue@Json@Data@Windows@@@Collections@Foundation@5@PEAUHSTRING__@@PEAEPEAPEAU?$IVector@PEAUIJsonValue@Json@Data@Windows@@@785@@Z=C:\Windows\System32\BcastDVRCommon.?GetJsonArray@GameDVRUtility@Internal@Capture@Media@Windows@@YAJPEAU?$IMap@PEAUHSTRING__@@PEAUIJsonValue@Json@Data@Windows@@@Collections@Foundation@5@PEAUHSTRING__@@PEAEPEAPEAU?$IVector@PEAUIJsonValue@Json@Data@Windows@@@785@@Z
  ?GetJsonBoolean@GameDVRUtility@Internal@Capture@Media@Windows@@YAJPEAU?$IMap@PEAUHSTRING__@@PEAUIJsonValue@Json@Data@Windows@@@Collections@Foundation@5@PEAUHSTRING__@@PEAE2@Z=C:\Windows\System32\BcastDVRCommon.?GetJsonBoolean@GameDVRUtility@Internal@Capture@Media@Windows@@YAJPEAU?$IMap@PEAUHSTRING__@@PEAUIJsonValue@Json@Data@Windows@@@Collections@Foundation@5@PEAUHSTRING__@@PEAE2@Z
  ?GetJsonDateTime@GameDVRUtility@Internal@Capture@Media@Windows@@YAJPEAU?$IMap@PEAUHSTRING__@@PEAUIJsonValue@Json@Data@Windows@@@Collections@Foundation@5@PEAUHSTRING__@@PEAEPEAUDateTime@85@@Z=C:\Windows\System32\BcastDVRCommon.?GetJsonDateTime@GameDVRUtility@Internal@Capture@Media@Windows@@YAJPEAU?$IMap@PEAUHSTRING__@@PEAUIJsonValue@Json@Data@Windows@@@Collections@Foundation@5@PEAUHSTRING__@@PEAEPEAUDateTime@85@@Z
  ?GetJsonDouble@GameDVRUtility@Internal@Capture@Media@Windows@@YAJPEAU?$IMap@PEAUHSTRING__@@PEAUIJsonValue@Json@Data@Windows@@@Collections@Foundation@5@PEAUHSTRING__@@PEAEPEAN@Z=C:\Windows\System32\BcastDVRCommon.?GetJsonDouble@GameDVRUtility@Internal@Capture@Media@Windows@@YAJPEAU?$IMap@PEAUHSTRING__@@PEAUIJsonValue@Json@Data@Windows@@@Collections@Foundation@5@PEAUHSTRING__@@PEAEPEAN@Z
  ?GetJsonGuid@GameDVRUtility@Internal@Capture@Media@Windows@@YAJPEAU?$IMap@PEAUHSTRING__@@PEAUIJsonValue@Json@Data@Windows@@@Collections@Foundation@5@PEAUHSTRING__@@PEAEPEAU_GUID@@@Z=C:\Windows\System32\BcastDVRCommon.?GetJsonGuid@GameDVRUtility@Internal@Capture@Media@Windows@@YAJPEAU?$IMap@PEAUHSTRING__@@PEAUIJsonValue@Json@Data@Windows@@@Collections@Foundation@5@PEAUHSTRING__@@PEAEPEAU_GUID@@@Z
  ?GetJsonNumber@GameDVRUtility@Internal@Capture@Media@Windows@@YAJPEAU?$IMap@PEAUHSTRING__@@PEAUIJsonValue@Json@Data@Windows@@@Collections@Foundation@5@PEAUHSTRING__@@PEAEPEA_J@Z=C:\Windows\System32\BcastDVRCommon.?GetJsonNumber@GameDVRUtility@Internal@Capture@Media@Windows@@YAJPEAU?$IMap@PEAUHSTRING__@@PEAUIJsonValue@Json@Data@Windows@@@Collections@Foundation@5@PEAUHSTRING__@@PEAEPEA_J@Z
  ?GetJsonString@GameDVRUtility@Internal@Capture@Media@Windows@@YAJPEAU?$IMap@PEAUHSTRING__@@PEAUIJsonValue@Json@Data@Windows@@@Collections@Foundation@5@PEAUHSTRING__@@PEAEPEAVString@25@@Z=C:\Windows\System32\BcastDVRCommon.?GetJsonString@GameDVRUtility@Internal@Capture@Media@Windows@@YAJPEAU?$IMap@PEAUHSTRING__@@PEAUIJsonValue@Json@Data@Windows@@@Collections@Foundation@5@PEAUHSTRING__@@PEAEPEAVString@25@@Z
  ?GetKnownFolderSubFolder@EnvironmentManager@Internal@Capture@Media@Windows@@YAJAEBU_GUID@@PEBGPEAVString@25@@Z=C:\Windows\System32\BcastDVRCommon.?GetKnownFolderSubFolder@EnvironmentManager@Internal@Capture@Media@Windows@@YAJAEBU_GUID@@PEBGPEAVString@25@@Z
  ?GetOSVersionString@GameDVRUtility@Internal@Capture@Media@Windows@@YAXPEAVString@25@@Z=C:\Windows\System32\BcastDVRCommon.?GetOSVersionString@GameDVRUtility@Internal@Capture@Media@Windows@@YAXPEAVString@25@@Z
  ?GetPlugInInfo@PlugInUtility@Internal@Capture@Media@Windows@@YAJPEAUHKEY__@@AEBU_GUID@@PEAVString@25@22@Z=C:\Windows\System32\BcastDVRCommon.?GetPlugInInfo@PlugInUtility@Internal@Capture@Media@Windows@@YAJPEAUHKEY__@@AEBU_GUID@@PEAVString@25@22@Z
  ?GetPlugInPackageFullName@PlugInUtility@Internal@Capture@Media@Windows@@YAJAEBU_GUID@@PEAVString@25@@Z=C:\Windows\System32\BcastDVRCommon.?GetPlugInPackageFullName@PlugInUtility@Internal@Capture@Media@Windows@@YAJAEBU_GUID@@PEAVString@25@@Z
  ?GetUserGameDVRConfigFolderPath@EnvironmentManager@Internal@Capture@Media@Windows@@YAJPEAVString@25@PEBG@Z=C:\Windows\System32\BcastDVRCommon.?GetUserGameDVRConfigFolderPath@EnvironmentManager@Internal@Capture@Media@Windows@@YAJPEAVString@25@PEBG@Z
  ?ImpersonateDefaultUser@ImpersonateHelper@Internal@Capture@Media@Windows@@QEAAJXZ=C:\Windows\System32\BcastDVRCommon.?ImpersonateDefaultUser@ImpersonateHelper@Internal@Capture@Media@Windows@@QEAAJXZ
  ?ImpersonateUser@ImpersonateHelper@Internal@Capture@Media@Windows@@QEAAJPEAUIUser@System@5@@Z=C:\Windows\System32\BcastDVRCommon.?ImpersonateUser@ImpersonateHelper@Internal@Capture@Media@Windows@@QEAAJPEAUIUser@System@5@@Z
  ?Initialize@BcastDVR_OutputDebug@@SAXPEBGW4BcastDVR_OutputDebug_TraceToFileType@@0@Z=C:\Windows\System32\BcastDVRCommon.?Initialize@BcastDVR_OutputDebug@@SAXPEBGW4BcastDVR_OutputDebug_TraceToFileType@@0@Z
  ?InsertJsonArray@GameDVRUtility@Internal@Capture@Media@Windows@@YAJPEAU?$IMap@PEAUHSTRING__@@PEAUIJsonValue@Json@Data@Windows@@@Collections@Foundation@5@PEAUHSTRING__@@PEAPEAU?$IVector@PEAUIJsonValue@Json@Data@Windows@@@785@@Z=C:\Windows\System32\BcastDVRCommon.?InsertJsonArray@GameDVRUtility@Internal@Capture@Media@Windows@@YAJPEAU?$IMap@PEAUHSTRING__@@PEAUIJsonValue@Json@Data@Windows@@@Collections@Foundation@5@PEAUHSTRING__@@PEAPEAU?$IVector@PEAUIJsonValue@Json@Data@Windows@@@785@@Z
  ?InsertJsonBoolean@GameDVRUtility@Internal@Capture@Media@Windows@@YAJPEAUIJsonValueStatics@Json@Data@5@PEAU?$IMap@PEAUHSTRING__@@PEAUIJsonValue@Json@Data@Windows@@@Collections@Foundation@5@PEAUHSTRING__@@E@Z=C:\Windows\System32\BcastDVRCommon.?InsertJsonBoolean@GameDVRUtility@Internal@Capture@Media@Windows@@YAJPEAUIJsonValueStatics@Json@Data@5@PEAU?$IMap@PEAUHSTRING__@@PEAUIJsonValue@Json@Data@Windows@@@Collections@Foundation@5@PEAUHSTRING__@@E@Z
  ?InsertJsonDateTime@GameDVRUtility@Internal@Capture@Media@Windows@@YAJPEAUIJsonValueStatics@Json@Data@5@PEAU?$IMap@PEAUHSTRING__@@PEAUIJsonValue@Json@Data@Windows@@@Collections@Foundation@5@PEAUHSTRING__@@UDateTime@Foundation@5@@Z=C:\Windows\System32\BcastDVRCommon.?InsertJsonDateTime@GameDVRUtility@Internal@Capture@Media@Windows@@YAJPEAUIJsonValueStatics@Json@Data@5@PEAU?$IMap@PEAUHSTRING__@@PEAUIJsonValue@Json@Data@Windows@@@Collections@Foundation@5@PEAUHSTRING__@@UDateTime@Foundation@5@@Z
  ?InsertJsonDouble@GameDVRUtility@Internal@Capture@Media@Windows@@YAJPEAUIJsonValueStatics@Json@Data@5@PEAU?$IMap@PEAUHSTRING__@@PEAUIJsonValue@Json@Data@Windows@@@Collections@Foundation@5@PEAUHSTRING__@@N@Z=C:\Windows\System32\BcastDVRCommon.?InsertJsonDouble@GameDVRUtility@Internal@Capture@Media@Windows@@YAJPEAUIJsonValueStatics@Json@Data@5@PEAU?$IMap@PEAUHSTRING__@@PEAUIJsonValue@Json@Data@Windows@@@Collections@Foundation@5@PEAUHSTRING__@@N@Z
  ?InsertJsonGuid@GameDVRUtility@Internal@Capture@Media@Windows@@YAJPEAUIJsonValueStatics@Json@Data@5@PEAU?$IMap@PEAUHSTRING__@@PEAUIJsonValue@Json@Data@Windows@@@Collections@Foundation@5@PEAUHSTRING__@@U_GUID@@@Z=C:\Windows\System32\BcastDVRCommon.?InsertJsonGuid@GameDVRUtility@Internal@Capture@Media@Windows@@YAJPEAUIJsonValueStatics@Json@Data@5@PEAU?$IMap@PEAUHSTRING__@@PEAUIJsonValue@Json@Data@Windows@@@Collections@Foundation@5@PEAUHSTRING__@@U_GUID@@@Z
  ?InsertJsonNumber@GameDVRUtility@Internal@Capture@Media@Windows@@YAJPEAUIJsonValueStatics@Json@Data@5@PEAU?$IMap@PEAUHSTRING__@@PEAUIJsonValue@Json@Data@Windows@@@Collections@Foundation@5@PEAUHSTRING__@@_J@Z=C:\Windows\System32\BcastDVRCommon.?InsertJsonNumber@GameDVRUtility@Internal@Capture@Media@Windows@@YAJPEAUIJsonValueStatics@Json@Data@5@PEAU?$IMap@PEAUHSTRING__@@PEAUIJsonValue@Json@Data@Windows@@@Collections@Foundation@5@PEAUHSTRING__@@_J@Z
  ?InsertJsonObject@GameDVRUtility@Internal@Capture@Media@Windows@@YAJPEAU?$IMap@PEAUHSTRING__@@PEAUIJsonValue@Json@Data@Windows@@@Collections@Foundation@5@PEAUHSTRING__@@PEAPEAUIJsonObject@Json@Data@5@@Z=C:\Windows\System32\BcastDVRCommon.?InsertJsonObject@GameDVRUtility@Internal@Capture@Media@Windows@@YAJPEAU?$IMap@PEAUHSTRING__@@PEAUIJsonValue@Json@Data@Windows@@@Collections@Foundation@5@PEAUHSTRING__@@PEAPEAUIJsonObject@Json@Data@5@@Z
  ?InsertJsonString@GameDVRUtility@Internal@Capture@Media@Windows@@YAJPEAUIJsonValueStatics@Json@Data@5@PEAU?$IMap@PEAUHSTRING__@@PEAUIJsonValue@Json@Data@Windows@@@Collections@Foundation@5@PEAUHSTRING__@@2@Z=C:\Windows\System32\BcastDVRCommon.?InsertJsonString@GameDVRUtility@Internal@Capture@Media@Windows@@YAJPEAUIJsonValueStatics@Json@Data@5@PEAU?$IMap@PEAUHSTRING__@@PEAUIJsonValue@Json@Data@Windows@@@Collections@Foundation@5@PEAUHSTRING__@@2@Z
  ?InsertNamedJsonEnumBitfields@GameDVRUtility@Internal@Capture@Media@Windows@@YAJPEAUIJsonValueStatics@Json@Data@5@PEAU?$IMap@PEAUHSTRING__@@PEAUIJsonValue@Json@Data@Windows@@@Collections@Foundation@5@PEAUHSTRING__@@_KPEBQEBGH@Z=C:\Windows\System32\BcastDVRCommon.?InsertNamedJsonEnumBitfields@GameDVRUtility@Internal@Capture@Media@Windows@@YAJPEAUIJsonValueStatics@Json@Data@5@PEAU?$IMap@PEAUHSTRING__@@PEAUIJsonValue@Json@Data@Windows@@@Collections@Foundation@5@PEAUHSTRING__@@_KPEBQEBGH@Z
  ?LogError@BcastDVRLogProviderBase@@SAXJPEBD0H_N@Z=C:\Windows\System32\BcastDVRCommon.?LogError@BcastDVRLogProviderBase@@SAXJPEBD0H_N@Z
  ?LogErrorEx@BcastDVRLogProviderBase@@SAXJPEBD0H00_N@Z=C:\Windows\System32\BcastDVRCommon.?LogErrorEx@BcastDVRLogProviderBase@@SAXJPEBD0H00_N@Z
  ?MapConstantToString@GameDVRUtility@Internal@Capture@Media@Windows@@YAPEBGQEAPEBGKKKK@Z=C:\Windows\System32\BcastDVRCommon.?MapConstantToString@GameDVRUtility@Internal@Capture@Media@Windows@@YAPEBGQEAPEBGKKKK@Z
  ?MostRecentErrorInHistory@BcastDVRLogProviderBase@@SAJXZ=C:\Windows\System32\BcastDVRCommon.?MostRecentErrorInHistory@BcastDVRLogProviderBase@@SAJXZ
  ?OutputString@BcastDVR_OutputDebug@@QEAAXXZ=C:\Windows\System32\BcastDVRCommon.?OutputString@BcastDVR_OutputDebug@@QEAAXXZ
  ?PrintGuid@GameDVRUtility@Internal@Capture@Media@Windows@@YAJU_GUID@@PEAVString@25@@Z=C:\Windows\System32\BcastDVRCommon.?PrintGuid@GameDVRUtility@Internal@Capture@Media@Windows@@YAJU_GUID@@PEAVString@25@@Z
  ?PrintHRESULT@BcastDVR_OutputDebug@@QEAAXJ@Z=C:\Windows\System32\BcastDVRCommon.?PrintHRESULT@BcastDVR_OutputDebug@@QEAAXJ@Z
  ?PrintType@BcastDVR_OutputDebug@@QEAAXPEBD0@Z=C:\Windows\System32\BcastDVRCommon.?PrintType@BcastDVR_OutputDebug@@QEAAXPEBD0@Z
  ?PrintType@BcastDVR_OutputDebug@@QEAAXPEBDE@Z=C:\Windows\System32\BcastDVRCommon.?PrintType@BcastDVR_OutputDebug@@QEAAXPEBDE@Z
  ?PrintType@BcastDVR_OutputDebug@@QEAAXPEBDH@Z=C:\Windows\System32\BcastDVRCommon.?PrintType@BcastDVR_OutputDebug@@QEAAXPEBDH@Z
  ?PrintType@BcastDVR_OutputDebug@@QEAAXPEBDI@Z=C:\Windows\System32\BcastDVRCommon.?PrintType@BcastDVR_OutputDebug@@QEAAXPEBDI@Z
  ?PrintType@BcastDVR_OutputDebug@@QEAAXPEBDK@Z=C:\Windows\System32\BcastDVRCommon.?PrintType@BcastDVR_OutputDebug@@QEAAXPEBDK@Z
  ?PrintType@BcastDVR_OutputDebug@@QEAAXPEBDN@Z=C:\Windows\System32\BcastDVRCommon.?PrintType@BcastDVR_OutputDebug@@QEAAXPEBDN@Z
  ?PrintType@BcastDVR_OutputDebug@@QEAAXPEBDPEAX@Z=C:\Windows\System32\BcastDVRCommon.?PrintType@BcastDVR_OutputDebug@@QEAAXPEBDPEAX@Z
  ?PrintType@BcastDVR_OutputDebug@@QEAAXPEBDPEBG@Z=C:\Windows\System32\BcastDVRCommon.?PrintType@BcastDVR_OutputDebug@@QEAAXPEBDPEBG@Z
  ?PrintType@BcastDVR_OutputDebug@@QEAAXPEBD_K@Z=C:\Windows\System32\BcastDVRCommon.?PrintType@BcastDVR_OutputDebug@@QEAAXPEBD_K@Z
  ?Printf@BcastDVRLogProviderBase@@SAX_N0PEBD1HPEBGZZ=C:\Windows\System32\BcastDVRCommon.?Printf@BcastDVRLogProviderBase@@SAX_N0PEBD1HPEBGZZ
  ?RecreateStorageFile@GameDVRUtility@Internal@Capture@Media@Windows@@YAJPEAUIStorageFile@Storage@5@PEAPEAU675@@Z=C:\Windows\System32\BcastDVRCommon.?RecreateStorageFile@GameDVRUtility@Internal@Capture@Media@Windows@@YAJPEAUIStorageFile@Storage@5@PEAPEAU675@@Z
  ?RegGetDwordValue@GameDVRUtility@Internal@Capture@Media@Windows@@YAXPEAUHKEY__@@PEBG1KPEAK@Z=C:\Windows\System32\BcastDVRCommon.?RegGetDwordValue@GameDVRUtility@Internal@Capture@Media@Windows@@YAXPEAUHKEY__@@PEBG1KPEAK@Z
  ?RegGetQwordValue@GameDVRUtility@Internal@Capture@Media@Windows@@YAXPEAUHKEY__@@PEBG1_KPEA_K@Z=C:\Windows\System32\BcastDVRCommon.?RegGetQwordValue@GameDVRUtility@Internal@Capture@Media@Windows@@YAXPEAUHKEY__@@PEBG1_KPEA_K@Z
  ?RegGetStringValue@GameDVRUtility@Internal@Capture@Media@Windows@@YAXPEAUHKEY__@@PEBG1PEAVString@25@@Z=C:\Windows\System32\BcastDVRCommon.?RegGetStringValue@GameDVRUtility@Internal@Capture@Media@Windows@@YAXPEAUHKEY__@@PEBG1PEAVString@25@@Z
  ?RegSetBinaryValue@GameDVRUtility@Internal@Capture@Media@Windows@@YAJPEAUHKEY__@@PEBG1PEBEK@Z=C:\Windows\System32\BcastDVRCommon.?RegSetBinaryValue@GameDVRUtility@Internal@Capture@Media@Windows@@YAJPEAUHKEY__@@PEBG1PEBEK@Z
  ?RegSetDwordValue@GameDVRUtility@Internal@Capture@Media@Windows@@YAJPEAUHKEY__@@PEBG1K@Z=C:\Windows\System32\BcastDVRCommon.?RegSetDwordValue@GameDVRUtility@Internal@Capture@Media@Windows@@YAJPEAUHKEY__@@PEBG1K@Z
  ?RegSetQwordValue@GameDVRUtility@Internal@Capture@Media@Windows@@YAJPEAUHKEY__@@PEBG1_K@Z=C:\Windows\System32\BcastDVRCommon.?RegSetQwordValue@GameDVRUtility@Internal@Capture@Media@Windows@@YAJPEAUHKEY__@@PEBG1_K@Z
  ?RegSetStringValue@GameDVRUtility@Internal@Capture@Media@Windows@@YAJPEAUHKEY__@@PEBG1PEAVString@25@@Z=C:\Windows\System32\BcastDVRCommon.?RegSetStringValue@GameDVRUtility@Internal@Capture@Media@Windows@@YAJPEAUHKEY__@@PEBG1PEAVString@25@@Z
  ?RegSetStringValue@GameDVRUtility@Internal@Capture@Media@Windows@@YAJPEAUHKEY__@@PEBGPEBD2@Z=C:\Windows\System32\BcastDVRCommon.?RegSetStringValue@GameDVRUtility@Internal@Capture@Media@Windows@@YAJPEAUHKEY__@@PEBGPEBD2@Z
  ?RegisterCallingPlugIn@PlugInUtility@Internal@Capture@Media@Windows@@YAJPEAUHKEY__@@PEAUHSTRING__@@1AEBU_GUID@@@Z=C:\Windows\System32\BcastDVRCommon.?RegisterCallingPlugIn@PlugInUtility@Internal@Capture@Media@Windows@@YAJPEAUHKEY__@@PEAUHSTRING__@@1AEBU_GUID@@@Z
  ?SetDefaultPlugIn@PlugInUtility@Internal@Capture@Media@Windows@@YAJPEAUHKEY__@@AEBU_GUID@@@Z=C:\Windows\System32\BcastDVRCommon.?SetDefaultPlugIn@PlugInUtility@Internal@Capture@Media@Windows@@YAJPEAUHKEY__@@AEBU_GUID@@@Z
  ?Uninitialize@BcastDVR_OutputDebug@@SAXXZ=C:\Windows\System32\BcastDVRCommon.?Uninitialize@BcastDVR_OutputDebug@@SAXXZ
  ActiveMetadataManagerInstances=C:\Windows\System32\BcastDVRCommon.ActiveMetadataManagerInstances
  CreateCallerManagerInstance=C:\Windows\System32\BcastDVRCommon.CreateCallerManagerInstance
  CreateCallerManagerInstanceForAppId=C:\Windows\System32\BcastDVRCommon.CreateCallerManagerInstanceForAppId
  CreateMetadataManagerInstance=C:\Windows\System32\BcastDVRCommon.CreateMetadataManagerInstance
  CreateMetadataManagerInstanceForAppId=C:\Windows\System32\BcastDVRCommon.CreateMetadataManagerInstanceForAppId
  CreateMetadataManagerInstanceFromJson=C:\Windows\System32\BcastDVRCommon.CreateMetadataManagerInstanceFromJson
  FireCallerManagerEvent=C:\Windows\System32\BcastDVRCommon.FireCallerManagerEvent
  FireCallerManagerEventForAppId=C:\Windows\System32\BcastDVRCommon.FireCallerManagerEventForAppId
  GetBroadcastSharedMemoryReader=C:\Windows\System32\BcastDVRCommon.GetBroadcastSharedMemoryReader
  GetBroadcastSharedMemoryWriter=C:\Windows\System32\BcastDVRCommon.GetBroadcastSharedMemoryWriter
  GetPreviewSharedMemoryReader=C:\Windows\System32\BcastDVRCommon.GetPreviewSharedMemoryReader
  GetPreviewSharedMemoryWriter=C:\Windows\System32\BcastDVRCommon.GetPreviewSharedMemoryWriter
