EXPORTS
  ??0BuiVolume@@QEAA@XZ=C:\Windows\System32\bdeui.??0BuiVolume@@QEAA@XZ
  ??0BuiVolume@@QEAA@_N@Z=C:\Windows\System32\bdeui.??0BuiVolume@@QEAA@_N@Z
  ??0VolumeFveStatus@@IEAA@XZ=C:\Windows\System32\bdeui.??0VolumeFveStatus@@IEAA@XZ
  ??0VolumeFveStatus@@QEAA@K_KJW4_FVE_WIPING_STATE@@@Z=C:\Windows\System32\bdeui.??0VolumeFveStatus@@QEAA@K_KJW4_FVE_WIPING_STATE@@@Z
  ??1BuiVolume@@QEAA@XZ=C:\Windows\System32\bdeui.??1BuiVolume@@QEAA@XZ
  ??4BuiVolume@@QEAAAEAV0@AEBV0@@Z=C:\Windows\System32\bdeui.??4BuiVolume@@QEAAAEAV0@AEBV0@@Z
  ??4VolumeFveStatus@@QEAAAEAV0@$$QEAV0@@Z=C:\Windows\System32\bdeui.??4VolumeFveStatus@@QEAAAEAV0@$$QEAV0@@Z
  ??4VolumeFveStatus@@QEAAAEAV0@AEBV0@@Z=C:\Windows\System32\bdeui.??4VolumeFveStatus@@QEAAAEAV0@AEBV0@@Z
  ?AddSmartCard@BuiVolume@@QEAAJPEAUHWND__@@@Z=C:\Windows\System32\bdeui.?AddSmartCard@BuiVolume@@QEAAJPEAUHWND__@@@Z
  ?AllowForegroundWindowDisplay@BuiVolume@@AEAAJXZ=C:\Windows\System32\bdeui.?AllowForegroundWindowDisplay@BuiVolume@@AEAAJXZ
  ?AttemptAutoUnlock@BuiVolume@@QEAAJXZ=C:\Windows\System32\bdeui.?AttemptAutoUnlock@BuiVolume@@QEAAJXZ
  ?BasicDispatch@BuiVolume@@AEAAJJPEAUHWND__@@PEBGPEAJ@Z=C:\Windows\System32\bdeui.?BasicDispatch@BuiVolume@@AEAAJJPEAUHWND__@@PEBGPEAJ@Z
  ?BasicDispatch@BuiVolume@@AEAAJJPEBG0PEAHPEAJ@Z=C:\Windows\System32\bdeui.?BasicDispatch@BuiVolume@@AEAAJJPEBG0PEAHPEAJ@Z
  ?BasicDispatch@BuiVolume@@AEAAJJPEBG0PEAJ@Z=C:\Windows\System32\bdeui.?BasicDispatch@BuiVolume@@AEAAJJPEBG0PEAJ@Z
  ?BasicDispatch@BuiVolume@@AEAAJJPEBG0PEAK@Z=C:\Windows\System32\bdeui.?BasicDispatch@BuiVolume@@AEAAJJPEBG0PEAK@Z
  ?BasicDispatch@BuiVolume@@AEAAJJPEBGPEAHPEAJ@Z=C:\Windows\System32\bdeui.?BasicDispatch@BuiVolume@@AEAAJJPEBGPEAHPEAJ@Z
  ?BasicDispatch@BuiVolume@@AEAAJJPEBGPEAJ@Z=C:\Windows\System32\bdeui.?BasicDispatch@BuiVolume@@AEAAJJPEBGPEAJ@Z
  ?BasicDispatch@BuiVolume@@AEAAJJPEBGPEAPEAG@Z=C:\Windows\System32\bdeui.?BasicDispatch@BuiVolume@@AEAAJJPEBGPEAPEAG@Z
  ?BasicDispatch@BuiVolume@@AEAAJJPEBGPEAUtagVARIANT@@@Z=C:\Windows\System32\bdeui.?BasicDispatch@BuiVolume@@AEAAJJPEBGPEAUtagVARIANT@@@Z
  ?CanBeResumed@BuiVolume@@QEBA_NXZ=C:\Windows\System32\bdeui.?CanBeResumed@BuiVolume@@QEBA_NXZ
  ?CanRefreshStatus@BuiVolume@@AEBA_NXZ=C:\Windows\System32\bdeui.?CanRefreshStatus@BuiVolume@@AEBA_NXZ
  ?ClearProxyObject@BuiVolume@@QEAAXXZ=C:\Windows\System32\bdeui.?ClearProxyObject@BuiVolume@@QEAAXXZ
  ?Decrypt@BuiVolume@@QEAAJPEAUHWND__@@@Z=C:\Windows\System32\bdeui.?Decrypt@BuiVolume@@QEAAJPEAUHWND__@@@Z
  ?DeleteVolumeList@BuiVolume@@SAXPEAPEAU_BuiVolumeNode@@@Z=C:\Windows\System32\bdeui.?DeleteVolumeList@BuiVolume@@SAXPEAPEAU_BuiVolumeNode@@@Z
  ?Disable@BuiVolume@@QEAAJPEAUHWND__@@@Z=C:\Windows\System32\bdeui.?Disable@BuiVolume@@QEAAJPEAUHWND__@@@Z
  ?DisableAutoUnlock@BuiVolume@@QEAAJXZ=C:\Windows\System32\bdeui.?DisableAutoUnlock@BuiVolume@@QEAAJXZ
  ?Dispatch@BuiVolume@@AEAAJJPEAUtagDISPPARAMS@@PEAJ@Z=C:\Windows\System32\bdeui.?Dispatch@BuiVolume@@AEAAJJPEAUtagDISPPARAMS@@PEAJ@Z
  ?Dispatch@BuiVolume@@AEAAJJPEAUtagDISPPARAMS@@PEAUtagVARIANT@@@Z=C:\Windows\System32\bdeui.?Dispatch@BuiVolume@@AEAAJJPEAUtagDISPPARAMS@@PEAUtagVARIANT@@@Z
  ?EnableAutoUnlock@BuiVolume@@QEAAJXZ=C:\Windows\System32\bdeui.?EnableAutoUnlock@BuiVolume@@QEAAJXZ
  ?FailedDryRun@VolumeFveStatus@@QEBA_NXZ=C:\Windows\System32\bdeui.?FailedDryRun@VolumeFveStatus@@QEBA_NXZ
  ?FindMountPoint@BuiVolume@@AEAAJXZ=C:\Windows\System32\bdeui.?FindMountPoint@BuiVolume@@AEAAJXZ
  ?FormatNameAndMountPoint@BuiVolume@@AEAAJXZ=C:\Windows\System32\bdeui.?FormatNameAndMountPoint@BuiVolume@@AEAAJXZ
  ?GetAllVolumes@BuiVolume@@SAJPEAPEAU_BuiVolumeNode@@@Z=C:\Windows\System32\bdeui.?GetAllVolumes@BuiVolume@@SAJPEAPEAU_BuiVolumeNode@@@Z
  ?GetConvertedPercent@BuiVolume@@QEBANXZ=C:\Windows\System32\bdeui.?GetConvertedPercent@BuiVolume@@QEBANXZ
  ?GetDescription@BuiVolume@@QEAAJPEAPEAG@Z=C:\Windows\System32\bdeui.?GetDescription@BuiVolume@@QEAAJPEAPEAG@Z
  ?GetExtendedFlags@VolumeFveStatus@@QEBA_KXZ=C:\Windows\System32\bdeui.?GetExtendedFlags@VolumeFveStatus@@QEBA_KXZ
  ?GetLastConvertStatus@VolumeFveStatus@@QEBAJXZ=C:\Windows\System32\bdeui.?GetLastConvertStatus@VolumeFveStatus@@QEBAJXZ
  ?GetOsVolume@BuiVolume@@SAJPEAPEAV1@@Z=C:\Windows\System32\bdeui.?GetOsVolume@BuiVolume@@SAJPEAPEAV1@@Z
  ?GetPasswordBackupTypes@BuiVolume@@QEAAJPEBGPEAK@Z=C:\Windows\System32\bdeui.?GetPasswordBackupTypes@BuiVolume@@QEAAJPEBGPEAK@Z
  ?GetPasswordId@BuiVolume@@QEAAJPEAPEAG@Z=C:\Windows\System32\bdeui.?GetPasswordId@BuiVolume@@QEAAJPEAPEAG@Z
  ?GetStatusFlags@VolumeFveStatus@@QEBAKXZ=C:\Windows\System32\bdeui.?GetStatusFlags@VolumeFveStatus@@QEBAKXZ
  ?GetWipeCount@BuiVolume@@QEBAKXZ=C:\Windows\System32\bdeui.?GetWipeCount@BuiVolume@@QEBAKXZ
  ?GetWipedPercent@BuiVolume@@QEBANXZ=C:\Windows\System32\bdeui.?GetWipedPercent@BuiVolume@@QEBANXZ
  ?HasAutoUnlockVolumesBound@BuiVolume@@QEAA_NXZ=C:\Windows\System32\bdeui.?HasAutoUnlockVolumesBound@BuiVolume@@QEAA_NXZ
  ?HasExternalKey@VolumeFveStatus@@QEBA_NXZ=C:\Windows\System32\bdeui.?HasExternalKey@VolumeFveStatus@@QEBA_NXZ
  ?HasPBKDF2RecoveryPassword@VolumeFveStatus@@QEBA_NXZ=C:\Windows\System32\bdeui.?HasPBKDF2RecoveryPassword@VolumeFveStatus@@QEBA_NXZ
  ?HasPassphraseProtector@VolumeFveStatus@@QEBA_NXZ=C:\Windows\System32\bdeui.?HasPassphraseProtector@VolumeFveStatus@@QEBA_NXZ
  ?HasPinProtector@VolumeFveStatus@@QEBA_NXZ=C:\Windows\System32\bdeui.?HasPinProtector@VolumeFveStatus@@QEBA_NXZ
  ?HasRecoveryData@VolumeFveStatus@@QEBA_NXZ=C:\Windows\System32\bdeui.?HasRecoveryData@VolumeFveStatus@@QEBA_NXZ
  ?HasRecoveryPassword@VolumeFveStatus@@QEBA_NXZ=C:\Windows\System32\bdeui.?HasRecoveryPassword@VolumeFveStatus@@QEBA_NXZ
  ?HasSmartCardProtector@VolumeFveStatus@@QEBA_NXZ=C:\Windows\System32\bdeui.?HasSmartCardProtector@VolumeFveStatus@@QEBA_NXZ
  ?HasStartupKeyProtector@VolumeFveStatus@@QEBA_NXZ=C:\Windows\System32\bdeui.?HasStartupKeyProtector@VolumeFveStatus@@QEBA_NXZ
  ?HasTpmProtector@VolumeFveStatus@@QEBA_NXZ=C:\Windows\System32\bdeui.?HasTpmProtector@VolumeFveStatus@@QEBA_NXZ
  ?ImplicitPauseConversion@BuiVolume@@QEAAJXZ=C:\Windows\System32\bdeui.?ImplicitPauseConversion@BuiVolume@@QEAAJXZ
  ?Init@BuiVolume@@QEAAJPEAG@Z=C:\Windows\System32\bdeui.?Init@BuiVolume@@QEAAJPEAG@Z
  ?InitMembers@BuiVolume@@AEAAXXZ=C:\Windows\System32\bdeui.?InitMembers@BuiVolume@@AEAAXXZ
  ?IsAutoUnlockEnabled@BuiVolume@@QEAA_NXZ=C:\Windows\System32\bdeui.?IsAutoUnlockEnabled@BuiVolume@@QEAA_NXZ
  ?IsConverting@VolumeFveStatus@@QEBA_NXZ=C:\Windows\System32\bdeui.?IsConverting@VolumeFveStatus@@QEBA_NXZ
  ?IsCsvMetadataVolume@VolumeFveStatus@@QEBA_NXZ=C:\Windows\System32\bdeui.?IsCsvMetadataVolume@VolumeFveStatus@@QEBA_NXZ
  ?IsCurrentPINEnhanced@BuiVolume@@QEAAJPEAH@Z=C:\Windows\System32\bdeui.?IsCurrentPINEnhanced@BuiVolume@@QEAAJPEAH@Z
  ?IsDEAutoProvisioned@VolumeFveStatus@@QEBA_NXZ=C:\Windows\System32\bdeui.?IsDEAutoProvisioned@VolumeFveStatus@@QEBA_NXZ
  ?IsDecrypted@VolumeFveStatus@@QEBA_NXZ=C:\Windows\System32\bdeui.?IsDecrypted@VolumeFveStatus@@QEBA_NXZ
  ?IsDecrypting@VolumeFveStatus@@QEBA_NXZ=C:\Windows\System32\bdeui.?IsDecrypting@VolumeFveStatus@@QEBA_NXZ
  ?IsDisabled@VolumeFveStatus@@QEBA_NXZ=C:\Windows\System32\bdeui.?IsDisabled@VolumeFveStatus@@QEBA_NXZ
  ?IsEDriveVolume@VolumeFveStatus@@QEBA_NXZ=C:\Windows\System32\bdeui.?IsEDriveVolume@VolumeFveStatus@@QEBA_NXZ
  ?IsEncrypted@VolumeFveStatus@@QEBA_NXZ=C:\Windows\System32\bdeui.?IsEncrypted@VolumeFveStatus@@QEBA_NXZ
  ?IsEncrypting@VolumeFveStatus@@QEBA_NXZ=C:\Windows\System32\bdeui.?IsEncrypting@VolumeFveStatus@@QEBA_NXZ
  ?IsFveNotifyNecessary@BuiVolume@@QEBA_NXZ=C:\Windows\System32\bdeui.?IsFveNotifyNecessary@BuiVolume@@QEBA_NXZ
  ?IsLocked@VolumeFveStatus@@QEBA_NXZ=C:\Windows\System32\bdeui.?IsLocked@VolumeFveStatus@@QEBA_NXZ
  ?IsOn@VolumeFveStatus@@QEBA_NXZ=C:\Windows\System32\bdeui.?IsOn@VolumeFveStatus@@QEBA_NXZ
  ?IsOsCriticalVolume@VolumeFveStatus@@QEBA_NXZ=C:\Windows\System32\bdeui.?IsOsCriticalVolume@VolumeFveStatus@@QEBA_NXZ
  ?IsOsVolume@VolumeFveStatus@@QEBA_NXZ=C:\Windows\System32\bdeui.?IsOsVolume@VolumeFveStatus@@QEBA_NXZ
  ?IsPartiallyConverted@VolumeFveStatus@@QEBA_NXZ=C:\Windows\System32\bdeui.?IsPartiallyConverted@VolumeFveStatus@@QEBA_NXZ
  ?IsPaused@VolumeFveStatus@@QEBA_NXZ=C:\Windows\System32\bdeui.?IsPaused@VolumeFveStatus@@QEBA_NXZ
  ?IsPreProvisioned@VolumeFveStatus@@QEBA_NXZ=C:\Windows\System32\bdeui.?IsPreProvisioned@VolumeFveStatus@@QEBA_NXZ
  ?IsRoamingDevice@VolumeFveStatus@@QEBA_NXZ=C:\Windows\System32\bdeui.?IsRoamingDevice@VolumeFveStatus@@QEBA_NXZ
  ?IsSecure@VolumeFveStatus@@QEBA_NXZ=C:\Windows\System32\bdeui.?IsSecure@VolumeFveStatus@@QEBA_NXZ
  ?IsUnknownFveVersion@VolumeFveStatus@@QEBA_NXZ=C:\Windows\System32\bdeui.?IsUnknownFveVersion@VolumeFveStatus@@QEBA_NXZ
  ?IsWiping@VolumeFveStatus@@QEBA_NXZ=C:\Windows\System32\bdeui.?IsWiping@VolumeFveStatus@@QEBA_NXZ
  ?LaunchUpdate@BuiVolume@@QEAAJXZ=C:\Windows\System32\bdeui.?LaunchUpdate@BuiVolume@@QEAAJXZ
  ?LaunchWizard@BuiVolume@@QEAAJG@Z=C:\Windows\System32\bdeui.?LaunchWizard@BuiVolume@@QEAAJG@Z
  ?ManagementRequiresElevation@BuiVolume@@QEBA_NXZ=C:\Windows\System32\bdeui.?ManagementRequiresElevation@BuiVolume@@QEBA_NXZ
  ?NO_DRIVE_LETTER@BuiVolume@@2IB=C:\Windows\System32\bdeui.?NO_DRIVE_LETTER@BuiVolume@@2IB
  ?NeedsDiscoveryVolumeUpdate@BuiVolume@@QEAAJPEAH@Z=C:\Windows\System32\bdeui.?NeedsDiscoveryVolumeUpdate@BuiVolume@@QEAAJPEAH@Z
  ?NeedsRestart@VolumeFveStatus@@QEBA_NXZ=C:\Windows\System32\bdeui.?NeedsRestart@VolumeFveStatus@@QEBA_NXZ
  ?PauseConversion@BuiVolume@@QEAAJXZ=C:\Windows\System32\bdeui.?PauseConversion@BuiVolume@@QEAAJXZ
  ?ProxyAddSmartCard@BuiVolume@@AEAAJPEAUHWND__@@@Z=C:\Windows\System32\bdeui.?ProxyAddSmartCard@BuiVolume@@AEAAJPEAUHWND__@@@Z
  ?ProxyAreVolumesBound@BuiVolume@@AEAAJXZ=C:\Windows\System32\bdeui.?ProxyAreVolumesBound@BuiVolume@@AEAAJXZ
  ?ProxyAttemptAutoUnlock@BuiVolume@@AEAAJXZ=C:\Windows\System32\bdeui.?ProxyAttemptAutoUnlock@BuiVolume@@AEAAJXZ
  ?ProxyDecrypt@BuiVolume@@AEAAJPEAUHWND__@@@Z=C:\Windows\System32\bdeui.?ProxyDecrypt@BuiVolume@@AEAAJPEAUHWND__@@@Z
  ?ProxyDisable@BuiVolume@@AEAAJPEAUHWND__@@@Z=C:\Windows\System32\bdeui.?ProxyDisable@BuiVolume@@AEAAJPEAUHWND__@@@Z
  ?ProxyDisableAutoUnlock@BuiVolume@@AEAAJXZ=C:\Windows\System32\bdeui.?ProxyDisableAutoUnlock@BuiVolume@@AEAAJXZ
  ?ProxyEnableAutoUnlock@BuiVolume@@AEAAJXZ=C:\Windows\System32\bdeui.?ProxyEnableAutoUnlock@BuiVolume@@AEAAJXZ
  ?ProxyGetDescription@BuiVolume@@AEAAJPEAPEAG@Z=C:\Windows\System32\bdeui.?ProxyGetDescription@BuiVolume@@AEAAJPEAPEAG@Z
  ?ProxyGetPasswordBackupTypes@BuiVolume@@AEAAJPEBGPEAK@Z=C:\Windows\System32\bdeui.?ProxyGetPasswordBackupTypes@BuiVolume@@AEAAJPEBGPEAK@Z
  ?ProxyGetPasswordId@BuiVolume@@AEAAJPEAPEAG@Z=C:\Windows\System32\bdeui.?ProxyGetPasswordId@BuiVolume@@AEAAJPEAPEAG@Z
  ?ProxyGetProcessId@BuiVolume@@AEAAJPEAK@Z=C:\Windows\System32\bdeui.?ProxyGetProcessId@BuiVolume@@AEAAJPEAK@Z
  ?ProxyImplicitPauseConversion@BuiVolume@@AEAAJXZ=C:\Windows\System32\bdeui.?ProxyImplicitPauseConversion@BuiVolume@@AEAAJXZ
  ?ProxyIsAutoUnlockEnabled@BuiVolume@@AEAAJXZ=C:\Windows\System32\bdeui.?ProxyIsAutoUnlockEnabled@BuiVolume@@AEAAJXZ
  ?ProxyLaunchUpdate@BuiVolume@@AEAAJXZ=C:\Windows\System32\bdeui.?ProxyLaunchUpdate@BuiVolume@@AEAAJXZ
  ?ProxyLaunchWizard@BuiVolume@@AEAAJG@Z=C:\Windows\System32\bdeui.?ProxyLaunchWizard@BuiVolume@@AEAAJG@Z
  ?ProxyNeedsDiscoveryVolumeUpdate@BuiVolume@@AEAAJPEAH@Z=C:\Windows\System32\bdeui.?ProxyNeedsDiscoveryVolumeUpdate@BuiVolume@@AEAAJPEAH@Z
  ?ProxyPauseConversion@BuiVolume@@AEAAJXZ=C:\Windows\System32\bdeui.?ProxyPauseConversion@BuiVolume@@AEAAJXZ
  ?ProxyRemovePassphrase@BuiVolume@@AEAAJXZ=C:\Windows\System32\bdeui.?ProxyRemovePassphrase@BuiVolume@@AEAAJXZ
  ?ProxyRemoveSmartCard@BuiVolume@@AEAAJ_N@Z=C:\Windows\System32\bdeui.?ProxyRemoveSmartCard@BuiVolume@@AEAAJ_N@Z
  ?ProxyResumeConversion@BuiVolume@@AEAAJXZ=C:\Windows\System32\bdeui.?ProxyResumeConversion@BuiVolume@@AEAAJXZ
  ?ProxyServiceDiscoveryVolume@BuiVolume@@AEAAJXZ=C:\Windows\System32\bdeui.?ProxyServiceDiscoveryVolume@BuiVolume@@AEAAJXZ
  ?ProxyUnlockVolumeWithKey@BuiVolume@@AEAAJPEBGPEAH@Z=C:\Windows\System32\bdeui.?ProxyUnlockVolumeWithKey@BuiVolume@@AEAAJPEBGPEAH@Z
  ?ProxyUnlockVolumeWithPassphrase@BuiVolume@@AEAAJPEBGPEAH@Z=C:\Windows\System32\bdeui.?ProxyUnlockVolumeWithPassphrase@BuiVolume@@AEAAJPEBGPEAH@Z
  ?ProxyUnlockVolumeWithPassword@BuiVolume@@AEAAJPEBGPEAH@Z=C:\Windows\System32\bdeui.?ProxyUnlockVolumeWithPassword@BuiVolume@@AEAAJPEBGPEAH@Z
  ?ProxyUnlockVolumeWithSmartCard@BuiVolume@@AEAAJPEAUHWND__@@PEAH@Z=C:\Windows\System32\bdeui.?ProxyUnlockVolumeWithSmartCard@BuiVolume@@AEAAJPEAUHWND__@@PEAH@Z
  ?ProxyUpgradeVolume@BuiVolume@@AEAAJXZ=C:\Windows\System32\bdeui.?ProxyUpgradeVolume@BuiVolume@@AEAAJXZ
  ?RefreshStatus@BuiVolume@@QEAAJ_N@Z=C:\Windows\System32\bdeui.?RefreshStatus@BuiVolume@@QEAAJ_N@Z
  ?RemovePassphrase@BuiVolume@@QEAAJXZ=C:\Windows\System32\bdeui.?RemovePassphrase@BuiVolume@@QEAAJXZ
  ?RemoveSmartCard@BuiVolume@@QEAAJ_N@Z=C:\Windows\System32\bdeui.?RemoveSmartCard@BuiVolume@@QEAAJ_N@Z
  ?ResumeConversion@BuiVolume@@QEAAJXZ=C:\Windows\System32\bdeui.?ResumeConversion@BuiVolume@@QEAAJXZ
  ?ResumeStatusRefreshing@BuiVolume@@QEAAXXZ=C:\Windows\System32\bdeui.?ResumeStatusRefreshing@BuiVolume@@QEAAXXZ
  ?ServiceDiscoveryVolume@BuiVolume@@QEAAJXZ=C:\Windows\System32\bdeui.?ServiceDiscoveryVolume@BuiVolume@@QEAAJXZ
  ?SetProxyObject@BuiVolume@@QEAAXPEAUIDispatch@@@Z=C:\Windows\System32\bdeui.?SetProxyObject@BuiVolume@@QEAAXPEAUIDispatch@@@Z
  ?SuspendStatusRefreshing@BuiVolume@@QEAAXXZ=C:\Windows\System32\bdeui.?SuspendStatusRefreshing@BuiVolume@@QEAAXXZ
  ?UnlockRequiresElevation@BuiVolume@@QEBA_NXZ=C:\Windows\System32\bdeui.?UnlockRequiresElevation@BuiVolume@@QEBA_NXZ
  ?UnlockWithKey@BuiVolume@@QEAAJPEBGPEAH@Z=C:\Windows\System32\bdeui.?UnlockWithKey@BuiVolume@@QEAAJPEBGPEAH@Z
  ?UnlockWithPassphrase@BuiVolume@@QEAAJPEBGPEAH@Z=C:\Windows\System32\bdeui.?UnlockWithPassphrase@BuiVolume@@QEAAJPEBGPEAH@Z
  ?UnlockWithPassword@BuiVolume@@QEAAJPEBGPEAH@Z=C:\Windows\System32\bdeui.?UnlockWithPassword@BuiVolume@@QEAAJPEBGPEAH@Z
  ?UnlockWithSmartCard@BuiVolume@@QEAAJPEAUHWND__@@PEAH@Z=C:\Windows\System32\bdeui.?UnlockWithSmartCard@BuiVolume@@QEAAJPEAUHWND__@@PEAH@Z
  ?UpgradeVolume@BuiVolume@@QEAAJXZ=C:\Windows\System32\bdeui.?UpgradeVolume@BuiVolume@@QEAAJXZ
  BuisCreateElevatedProxyObject=C:\Windows\System32\bdeui.BuisCreateElevatedProxyObject
  BuisCreateProxyObject=C:\Windows\System32\bdeui.BuisCreateProxyObject
  BuisDetectExistingWizard=C:\Windows\System32\bdeui.BuisDetectExistingWizard
  BuisIsFipsEnabled=C:\Windows\System32\bdeui.BuisIsFipsEnabled
  BuisIsHardwareReadyForConversion=C:\Windows\System32\bdeui.BuisIsHardwareReadyForConversion
