EXPORTS
  ??0CComPlusComponent@@QEAA@$$QEAV0@@Z=C:\Windows\System32\catsrvut.??0CComPlusComponent@@QEAA@$$QEAV0@@Z
  ??0CComPlusComponent@@QEAA@AEBV0@@Z=C:\Windows\System32\catsrvut.??0CComPlusComponent@@QEAA@AEBV0@@Z
  ??0CComPlusInterface@@QEAA@$$QEAV0@@Z=C:\Windows\System32\catsrvut.??0CComPlusInterface@@QEAA@$$QEAV0@@Z
  ??0CComPlusInterface@@QEAA@AEBV0@@Z=C:\Windows\System32\catsrvut.??0CComPlusInterface@@QEAA@AEBV0@@Z
  ??0CComPlusMethod@@QEAA@AEBV0@@Z=C:\Windows\System32\catsrvut.??0CComPlusMethod@@QEAA@AEBV0@@Z
  ??0CComPlusObject@@QEAA@AEBV0@@Z=C:\Windows\System32\catsrvut.??0CComPlusObject@@QEAA@AEBV0@@Z
  ??1CComPlusComponent@@UEAA@XZ=C:\Windows\System32\catsrvut.??1CComPlusComponent@@UEAA@XZ
  ??1CComPlusInterface@@UEAA@XZ=C:\Windows\System32\catsrvut.??1CComPlusInterface@@UEAA@XZ
  ??4CComPlusComponent@@QEAAAEAV0@$$QEAV0@@Z=C:\Windows\System32\catsrvut.??4CComPlusComponent@@QEAAAEAV0@$$QEAV0@@Z
  ??4CComPlusComponent@@QEAAAEAV0@AEBV0@@Z=C:\Windows\System32\catsrvut.??4CComPlusComponent@@QEAAAEAV0@AEBV0@@Z
  ??4CComPlusInterface@@QEAAAEAV0@$$QEAV0@@Z=C:\Windows\System32\catsrvut.??4CComPlusInterface@@QEAAAEAV0@$$QEAV0@@Z
  ??4CComPlusInterface@@QEAAAEAV0@AEBV0@@Z=C:\Windows\System32\catsrvut.??4CComPlusInterface@@QEAAAEAV0@AEBV0@@Z
  ??4CComPlusMethod@@QEAAAEAV0@AEBV0@@Z=C:\Windows\System32\catsrvut.??4CComPlusMethod@@QEAAAEAV0@AEBV0@@Z
  ??4CComPlusObject@@QEAAAEAV0@AEBV0@@Z=C:\Windows\System32\catsrvut.??4CComPlusObject@@QEAAAEAV0@AEBV0@@Z
  ??4CComPlusTypelib@@QEAAAEAV0@AEBV0@@Z=C:\Windows\System32\catsrvut.??4CComPlusTypelib@@QEAAAEAV0@AEBV0@@Z
  ??_7CComPlusComponent@@6B@=C:\Windows\System32\catsrvut.??_7CComPlusComponent@@6B@
  ??_7CComPlusInterface@@6B@=C:\Windows\System32\catsrvut.??_7CComPlusInterface@@6B@
  ??_7CComPlusMethod@@6B@=C:\Windows\System32\catsrvut.??_7CComPlusMethod@@6B@
  ??_7CComPlusObject@@6B@=C:\Windows\System32\catsrvut.??_7CComPlusObject@@6B@
  ?GetITypeLib@CComPlusTypelib@@QEAAPEAUITypeLib@@XZ=C:\Windows\System32\catsrvut.?GetITypeLib@CComPlusTypelib@@QEAAPEAUITypeLib@@XZ
  CGMIsAdministrator=C:\Windows\System32\catsrvut.CGMIsAdministrator
  COMPlusUninstallActionW=C:\Windows\System32\catsrvut.COMPlusUninstallActionW
  CreateComRegDBWriter=C:\Windows\System32\catsrvut.CreateComRegDBWriter
  DestroyComRegDBWriter=C:\Windows\System32\catsrvut.DestroyComRegDBWriter
  DllCanUnloadNow=C:\Windows\System32\catsrvut.DllCanUnloadNow
  DllGetClassObject=C:\Windows\System32\catsrvut.DllGetClassObject
  DllRegisterServer=C:\Windows\System32\catsrvut.DllRegisterServer
  DllUnregisterServer=C:\Windows\System32\catsrvut.DllUnregisterServer
  FindAssemblyModulesW=C:\Windows\System32\catsrvut.FindAssemblyModulesW
  ManagedRequestW=C:\Windows\System32\catsrvut.ManagedRequestW
  QueryUserDllW=C:\Windows\System32\catsrvut.QueryUserDllW
  RegDBBackup=C:\Windows\System32\catsrvut.RegDBBackup
  RegDBRestore=C:\Windows\System32\catsrvut.RegDBRestore
  RunMTSToCom=C:\Windows\System32\catsrvut.RunMTSToCom
  StartMTSTOCOM=C:\Windows\System32\catsrvut.StartMTSTOCOM
  SysprepComplus=C:\Windows\System32\catsrvut.SysprepComplus
  SysprepComplus2=C:\Windows\System32\catsrvut.SysprepComplus2
  WinlogonHandlePendingInfOperations=C:\Windows\System32\catsrvut.WinlogonHandlePendingInfOperations
