EXPORTS
  ??0CIniA@@QEAA@PEAUHINSTANCE__@@PEBD111@Z=C:\Windows\System32\cmutil.??0CIniA@@QEAA@PEAUHINSTANCE__@@PEBD111@Z
  ??0CIniW@@QEAA@PEAUHINSTANCE__@@PEBG111@Z=C:\Windows\System32\cmutil.??0CIniW@@QEAA@PEAUHINSTANCE__@@PEBG111@Z
  ??0CRandom@@QEAA@I@Z=C:\Windows\System32\cmutil.??0CRandom@@QEAA@I@Z
  ??0CRandom@@QEAA@XZ=C:\Windows\System32\cmutil.??0CRandom@@QEAA@XZ
  ??0CmLogFile@@QEAA@XZ=C:\Windows\System32\cmutil.??0CmLogFile@@QEAA@XZ
  ??1CIniA@@QEAA@XZ=C:\Windows\System32\cmutil.??1CIniA@@QEAA@XZ
  ??1CIniW@@QEAA@XZ=C:\Windows\System32\cmutil.??1CIniW@@QEAA@XZ
  ??1CmLogFile@@QEAA@XZ=C:\Windows\System32\cmutil.??1CmLogFile@@QEAA@XZ
  ??4CIniA@@QEAAAEAV0@AEBV0@@Z=C:\Windows\System32\cmutil.??4CIniA@@QEAAAEAV0@AEBV0@@Z
  ??4CIniW@@QEAAAEAV0@AEBV0@@Z=C:\Windows\System32\cmutil.??4CIniW@@QEAAAEAV0@AEBV0@@Z
  ??4CRandom@@QEAAAEAV0@$$QEAV0@@Z=C:\Windows\System32\cmutil.??4CRandom@@QEAAAEAV0@$$QEAV0@@Z
  ??4CRandom@@QEAAAEAV0@AEBV0@@Z=C:\Windows\System32\cmutil.??4CRandom@@QEAAAEAV0@AEBV0@@Z
  ??4CmLogFile@@QEAAAEAV0@AEBV0@@Z=C:\Windows\System32\cmutil.??4CmLogFile@@QEAAAEAV0@AEBV0@@Z
  ??_FCIniA@@QEAAXXZ=C:\Windows\System32\cmutil.??_FCIniA@@QEAAXXZ
  ??_FCIniW@@QEAAXXZ=C:\Windows\System32\cmutil.??_FCIniW@@QEAAXXZ
  ?Banner@CmLogFile@@QEAAXXZ=C:\Windows\System32\cmutil.?Banner@CmLogFile@@QEAAXXZ
  ?CIniA_DeleteEntryFromReg@CIniA@@IEBAHPEAUHKEY__@@PEBD1@Z=C:\Windows\System32\cmutil.?CIniA_DeleteEntryFromReg@CIniA@@IEBAHPEAUHKEY__@@PEBD1@Z
  ?CIniA_GetEntryFromReg@CIniA@@IEBAPEAEPEAUHKEY__@@PEBD1KK@Z=C:\Windows\System32\cmutil.?CIniA_GetEntryFromReg@CIniA@@IEBAPEAEPEAUHKEY__@@PEBD1KK@Z
  ?CIniA_WriteEntryToReg@CIniA@@IEBAHPEAUHKEY__@@PEBD1PEBEKK@Z=C:\Windows\System32\cmutil.?CIniA_WriteEntryToReg@CIniA@@IEBAHPEAUHKEY__@@PEBD1PEBEKK@Z
  ?CIniW_DeleteEntryFromReg@CIniW@@IEBAHPEAUHKEY__@@PEBG1@Z=C:\Windows\System32\cmutil.?CIniW_DeleteEntryFromReg@CIniW@@IEBAHPEAUHKEY__@@PEBG1@Z
  ?CIniW_GetEntryFromReg@CIniW@@IEBAPEAEPEAUHKEY__@@PEBG1KK@Z=C:\Windows\System32\cmutil.?CIniW_GetEntryFromReg@CIniW@@IEBAPEAEPEAUHKEY__@@PEBG1KK@Z
  ?CIniW_WriteEntryToReg@CIniW@@IEBAHPEAUHKEY__@@PEBG1PEBEKK@Z=C:\Windows\System32\cmutil.?CIniW_WriteEntryToReg@CIniW@@IEBAHPEAUHKEY__@@PEBG1PEBEKK@Z
  ?CIni_SetFile@CIniA@@KAXPEAPEADPEBD@Z=C:\Windows\System32\cmutil.?CIni_SetFile@CIniA@@KAXPEAPEADPEBD@Z
  ?CIni_SetFile@CIniW@@KAXPEAPEAGPEBG@Z=C:\Windows\System32\cmutil.?CIni_SetFile@CIniW@@KAXPEAPEAGPEBG@Z
  ?Clear@CIniA@@QEAAXXZ=C:\Windows\System32\cmutil.?Clear@CIniA@@QEAAXXZ
  ?Clear@CIniW@@QEAAXXZ=C:\Windows\System32\cmutil.?Clear@CIniW@@QEAAXXZ
  ?Clear@CmLogFile@@QEAAXH@Z=C:\Windows\System32\cmutil.?Clear@CmLogFile@@QEAAXH@Z
  ?CloseFile@CmLogFile@@AEAAJXZ=C:\Windows\System32\cmutil.?CloseFile@CmLogFile@@AEAAJXZ
  ?DeInit@CmLogFile@@QEAAJXZ=C:\Windows\System32\cmutil.?DeInit@CmLogFile@@QEAAJXZ
  ?FormatWrite@CmLogFile@@AEAAXW4_CMLOG_ITEM@@PEAG@Z=C:\Windows\System32\cmutil.?FormatWrite@CmLogFile@@AEAAXW4_CMLOG_ITEM@@PEAG@Z
  ?GPPB@CIniA@@QEBAHPEBD0H@Z=C:\Windows\System32\cmutil.?GPPB@CIniA@@QEBAHPEBD0H@Z
  ?GPPB@CIniW@@QEBAHPEBG0H@Z=C:\Windows\System32\cmutil.?GPPB@CIniW@@QEBAHPEBG0H@Z
  ?GPPI@CIniA@@QEBAKPEBD0K@Z=C:\Windows\System32\cmutil.?GPPI@CIniA@@QEBAKPEBD0K@Z
  ?GPPI@CIniW@@QEBAKPEBG0K@Z=C:\Windows\System32\cmutil.?GPPI@CIniW@@QEBAKPEBG0K@Z
  ?GPPS@CIniA@@QEBAPEADPEBD00@Z=C:\Windows\System32\cmutil.?GPPS@CIniA@@QEBAPEADPEBD00@Z
  ?GPPS@CIniW@@QEBAPEAGPEBG00@Z=C:\Windows\System32\cmutil.?GPPS@CIniW@@QEBAPEAGPEBG00@Z
  ?Generate@CRandom@@QEAAHXZ=C:\Windows\System32\cmutil.?Generate@CRandom@@QEAAHXZ
  ?GetFile@CIniA@@QEBAPEBDXZ=C:\Windows\System32\cmutil.?GetFile@CIniA@@QEBAPEBDXZ
  ?GetFile@CIniW@@QEBAPEBGXZ=C:\Windows\System32\cmutil.?GetFile@CIniW@@QEBAPEBGXZ
  ?GetHInst@CIniA@@QEBAPEAUHINSTANCE__@@XZ=C:\Windows\System32\cmutil.?GetHInst@CIniA@@QEBAPEAUHINSTANCE__@@XZ
  ?GetHInst@CIniW@@QEBAPEAUHINSTANCE__@@XZ=C:\Windows\System32\cmutil.?GetHInst@CIniW@@QEBAPEAUHINSTANCE__@@XZ
  ?GetLogFilePath@CmLogFile@@QEAAPEBGXZ=C:\Windows\System32\cmutil.?GetLogFilePath@CmLogFile@@QEAAPEBGXZ
  ?GetPrimaryFile@CIniA@@QEBAPEBDXZ=C:\Windows\System32\cmutil.?GetPrimaryFile@CIniA@@QEBAPEBDXZ
  ?GetPrimaryFile@CIniW@@QEBAPEBGXZ=C:\Windows\System32\cmutil.?GetPrimaryFile@CIniW@@QEBAPEBGXZ
  ?GetPrimaryRegPath@CIniA@@QEBAPEBDXZ=C:\Windows\System32\cmutil.?GetPrimaryRegPath@CIniA@@QEBAPEBDXZ
  ?GetPrimaryRegPath@CIniW@@QEBAPEBGXZ=C:\Windows\System32\cmutil.?GetPrimaryRegPath@CIniW@@QEBAPEBGXZ
  ?GetRegPath@CIniA@@QEBAPEBDXZ=C:\Windows\System32\cmutil.?GetRegPath@CIniA@@QEBAPEBDXZ
  ?GetRegPath@CIniW@@QEBAPEBGXZ=C:\Windows\System32\cmutil.?GetRegPath@CIniW@@QEBAPEBGXZ
  ?GetSection@CIniA@@QEBAPEBDXZ=C:\Windows\System32\cmutil.?GetSection@CIniA@@QEBAPEBDXZ
  ?GetSection@CIniW@@QEBAPEBGXZ=C:\Windows\System32\cmutil.?GetSection@CIniW@@QEBAPEBGXZ
  ?Init@CRandom@@QEAAXK@Z=C:\Windows\System32\cmutil.?Init@CRandom@@QEAAXK@Z
  ?Init@CmLogFile@@QEAAJPEAUHINSTANCE__@@HPEBD@Z=C:\Windows\System32\cmutil.?Init@CmLogFile@@QEAAJPEAUHINSTANCE__@@HPEBD@Z
  ?Init@CmLogFile@@QEAAJPEAUHINSTANCE__@@HPEBG@Z=C:\Windows\System32\cmutil.?Init@CmLogFile@@QEAAJPEAUHINSTANCE__@@HPEBG@Z
  ?IsEnabled@CmLogFile@@QEAAHXZ=C:\Windows\System32\cmutil.?IsEnabled@CmLogFile@@QEAAHXZ
  ?LoadEntry@CIniA@@IEBAPEADPEBD@Z=C:\Windows\System32\cmutil.?LoadEntry@CIniA@@IEBAPEADPEBD@Z
  ?LoadEntry@CIniW@@IEBAPEAGPEBG@Z=C:\Windows\System32\cmutil.?LoadEntry@CIniW@@IEBAPEAGPEBG@Z
  ?LoadSection@CIniA@@QEBAPEADPEBD@Z=C:\Windows\System32\cmutil.?LoadSection@CIniA@@QEBAPEADPEBD@Z
  ?LoadSection@CIniW@@QEBAPEAGPEBG@Z=C:\Windows\System32\cmutil.?LoadSection@CIniW@@QEBAPEAGPEBG@Z
  ?Log@CmLogFile@@QEAAXW4_CMLOG_ITEM@@ZZ=C:\Windows\System32\cmutil.?Log@CmLogFile@@QEAAXW4_CMLOG_ITEM@@ZZ
  ?OpenFile@CmLogFile@@AEAAJXZ=C:\Windows\System32\cmutil.?OpenFile@CmLogFile@@AEAAJXZ
  ?SetEntry@CIniA@@QEAAXPEBD@Z=C:\Windows\System32\cmutil.?SetEntry@CIniA@@QEAAXPEBD@Z
  ?SetEntry@CIniW@@QEAAXPEBG@Z=C:\Windows\System32\cmutil.?SetEntry@CIniW@@QEAAXPEBG@Z
  ?SetEntryFromIdx@CIniA@@QEAAXK@Z=C:\Windows\System32\cmutil.?SetEntryFromIdx@CIniA@@QEAAXK@Z
  ?SetEntryFromIdx@CIniW@@QEAAXK@Z=C:\Windows\System32\cmutil.?SetEntryFromIdx@CIniW@@QEAAXK@Z
  ?SetFile@CIniA@@QEAAXPEBD@Z=C:\Windows\System32\cmutil.?SetFile@CIniA@@QEAAXPEBD@Z
  ?SetFile@CIniW@@QEAAXPEBG@Z=C:\Windows\System32\cmutil.?SetFile@CIniW@@QEAAXPEBG@Z
  ?SetHInst@CIniA@@QEAAXPEAUHINSTANCE__@@@Z=C:\Windows\System32\cmutil.?SetHInst@CIniA@@QEAAXPEAUHINSTANCE__@@@Z
  ?SetHInst@CIniW@@QEAAXPEAUHINSTANCE__@@@Z=C:\Windows\System32\cmutil.?SetHInst@CIniW@@QEAAXPEAUHINSTANCE__@@@Z
  ?SetICSDataPath@CIniA@@QEAAXPEBD@Z=C:\Windows\System32\cmutil.?SetICSDataPath@CIniA@@QEAAXPEBD@Z
  ?SetICSDataPath@CIniW@@QEAAXPEBG@Z=C:\Windows\System32\cmutil.?SetICSDataPath@CIniW@@QEAAXPEBG@Z
  ?SetParams@CmLogFile@@QEAAJHKPEBD@Z=C:\Windows\System32\cmutil.?SetParams@CmLogFile@@QEAAJHKPEBD@Z
  ?SetParams@CmLogFile@@QEAAJHKPEBG@Z=C:\Windows\System32\cmutil.?SetParams@CmLogFile@@QEAAJHKPEBG@Z
  ?SetPrimaryFile@CIniA@@QEAAXPEBD@Z=C:\Windows\System32\cmutil.?SetPrimaryFile@CIniA@@QEAAXPEBD@Z
  ?SetPrimaryFile@CIniW@@QEAAXPEBG@Z=C:\Windows\System32\cmutil.?SetPrimaryFile@CIniW@@QEAAXPEBG@Z
  ?SetPrimaryRegPath@CIniA@@QEAAXPEBD@Z=C:\Windows\System32\cmutil.?SetPrimaryRegPath@CIniA@@QEAAXPEBD@Z
  ?SetPrimaryRegPath@CIniW@@QEAAXPEBG@Z=C:\Windows\System32\cmutil.?SetPrimaryRegPath@CIniW@@QEAAXPEBG@Z
  ?SetReadICSData@CIniA@@QEAAXH@Z=C:\Windows\System32\cmutil.?SetReadICSData@CIniA@@QEAAXH@Z
  ?SetReadICSData@CIniW@@QEAAXH@Z=C:\Windows\System32\cmutil.?SetReadICSData@CIniW@@QEAAXH@Z
  ?SetRegPath@CIniA@@QEAAXPEBD@Z=C:\Windows\System32\cmutil.?SetRegPath@CIniA@@QEAAXPEBD@Z
  ?SetRegPath@CIniW@@QEAAXPEBG@Z=C:\Windows\System32\cmutil.?SetRegPath@CIniW@@QEAAXPEBG@Z
  ?SetSection@CIniA@@QEAAXPEBD@Z=C:\Windows\System32\cmutil.?SetSection@CIniA@@QEAAXPEBD@Z
  ?SetSection@CIniW@@QEAAXPEBG@Z=C:\Windows\System32\cmutil.?SetSection@CIniW@@QEAAXPEBG@Z
  ?SetWriteICSData@CIniA@@QEAAXH@Z=C:\Windows\System32\cmutil.?SetWriteICSData@CIniA@@QEAAXH@Z
  ?SetWriteICSData@CIniW@@QEAAXH@Z=C:\Windows\System32\cmutil.?SetWriteICSData@CIniW@@QEAAXH@Z
  ?Start@CmLogFile@@QEAAJH@Z=C:\Windows\System32\cmutil.?Start@CmLogFile@@QEAAJH@Z
  ?Stop@CmLogFile@@QEAAJXZ=C:\Windows\System32\cmutil.?Stop@CmLogFile@@QEAAJXZ
  ?WPPB@CIniA@@QEAAXPEBD0H@Z=C:\Windows\System32\cmutil.?WPPB@CIniA@@QEAAXPEBD0H@Z
  ?WPPB@CIniW@@QEAAXPEBG0H@Z=C:\Windows\System32\cmutil.?WPPB@CIniW@@QEAAXPEBG0H@Z
  ?WPPI@CIniA@@QEAAXPEBD0K@Z=C:\Windows\System32\cmutil.?WPPI@CIniA@@QEAAXPEBD0K@Z
  ?WPPI@CIniW@@QEAAXPEBG0K@Z=C:\Windows\System32\cmutil.?WPPI@CIniW@@QEAAXPEBG0K@Z
  ?WPPS@CIniA@@QEAAXPEBD00@Z=C:\Windows\System32\cmutil.?WPPS@CIniA@@QEAAXPEBD00@Z
  ?WPPS@CIniW@@QEAAXPEBG00@Z=C:\Windows\System32\cmutil.?WPPS@CIniW@@QEAAXPEBG00@Z
  ?Write@CmLogFile@@AEAAJPEAG@Z=C:\Windows\System32\cmutil.?Write@CmLogFile@@AEAAJPEAG@Z
  ?kMaxValueLength@CIniW@@2KB=C:\Windows\System32\cmutil.?kMaxValueLength@CIniW@@2KB
  CmAtolA=C:\Windows\System32\cmutil.CmAtolA
  CmAtolW=C:\Windows\System32\cmutil.CmAtolW
  CmBuildFullPathFromRelativeA=C:\Windows\System32\cmutil.CmBuildFullPathFromRelativeA
  CmBuildFullPathFromRelativeW=C:\Windows\System32\cmutil.CmBuildFullPathFromRelativeW
  CmCompareStringA=C:\Windows\System32\cmutil.CmCompareStringA
  CmCompareStringW=C:\Windows\System32\cmutil.CmCompareStringW
  CmConvertRelativePathW=C:\Windows\System32\cmutil.CmConvertRelativePathW
  CmConvertStrToIPv6AddrA=C:\Windows\System32\cmutil.CmConvertStrToIPv6AddrA
  CmConvertStrToIPv6AddrW=C:\Windows\System32\cmutil.CmConvertStrToIPv6AddrW
  CmEndOfStrW=C:\Windows\System32\cmutil.CmEndOfStrW
  CmFmtMsgA=C:\Windows\System32\cmutil.CmFmtMsgA
  CmFmtMsgW=C:\Windows\System32\cmutil.CmFmtMsgW
  CmFree=C:\Windows\System32\cmutil.CmFree
  CmIsDigitW=C:\Windows\System32\cmutil.CmIsDigitW
  CmIsIPv6AddressA=C:\Windows\System32\cmutil.CmIsIPv6AddressA
  CmIsIPv6AddressW=C:\Windows\System32\cmutil.CmIsIPv6AddressW
  CmIsSpaceW=C:\Windows\System32\cmutil.CmIsSpaceW
  CmLoadIconA=C:\Windows\System32\cmutil.CmLoadIconA
  CmLoadIconW=C:\Windows\System32\cmutil.CmLoadIconW
  CmLoadImageW=C:\Windows\System32\cmutil.CmLoadImageW
  CmLoadSmallIconA=C:\Windows\System32\cmutil.CmLoadSmallIconA
  CmLoadSmallIconW=C:\Windows\System32\cmutil.CmLoadSmallIconW
  CmLoadStringW=C:\Windows\System32\cmutil.CmLoadStringW
  CmMalloc=C:\Windows\System32\cmutil.CmMalloc
  CmParsePathW=C:\Windows\System32\cmutil.CmParsePathW
  CmRealloc=C:\Windows\System32\cmutil.CmRealloc
  CmStrCatAllocA=C:\Windows\System32\cmutil.CmStrCatAllocA
  CmStrCatAllocW=C:\Windows\System32\cmutil.CmStrCatAllocW
  CmStrCharCountA=C:\Windows\System32\cmutil.CmStrCharCountA
  CmStrCharCountW=C:\Windows\System32\cmutil.CmStrCharCountW
  CmStrCharStuffingA=C:\Windows\System32\cmutil.CmStrCharStuffingA
  CmStrCharStuffingW=C:\Windows\System32\cmutil.CmStrCharStuffingW
  CmStrCpyAllocA=C:\Windows\System32\cmutil.CmStrCpyAllocA
  CmStrCpyAllocW=C:\Windows\System32\cmutil.CmStrCpyAllocW
  CmStrStrA=C:\Windows\System32\cmutil.CmStrStrA
  CmStrStrW=C:\Windows\System32\cmutil.CmStrStrW
  CmStrTrimW=C:\Windows\System32\cmutil.CmStrTrimW
  CmStrchrA=C:\Windows\System32\cmutil.CmStrchrA
  CmStrchrW=C:\Windows\System32\cmutil.CmStrchrW
  CmStripFileNameW=C:\Windows\System32\cmutil.CmStripFileNameW
  CmStripPathAndExtW=C:\Windows\System32\cmutil.CmStripPathAndExtW
  CmStrrchrA=C:\Windows\System32\cmutil.CmStrrchrA
  CmStrrchrW=C:\Windows\System32\cmutil.CmStrrchrW
  CmStrtokA=C:\Windows\System32\cmutil.CmStrtokA
  CmStrtokW=C:\Windows\System32\cmutil.CmStrtokW
  GetOSBuildNumber=C:\Windows\System32\cmutil.GetOSBuildNumber
  GetOSMajorVersion=C:\Windows\System32\cmutil.GetOSMajorVersion
  GetOSMinorVersion=C:\Windows\System32\cmutil.GetOSMinorVersion
  GetOSVersion=C:\Windows\System32\cmutil.GetOSVersion
  IsFarEastNonOSR2Win95=C:\Windows\System32\cmutil.IsFarEastNonOSR2Win95
  IsLogonAsSystem=C:\Windows\System32\cmutil.IsLogonAsSystem
  MakeBold=C:\Windows\System32\cmutil.MakeBold
  ReleaseBold=C:\Windows\System32\cmutil.ReleaseBold
  SzToWz=C:\Windows\System32\cmutil.SzToWz
  SzToWzWithAlloc=C:\Windows\System32\cmutil.SzToWzWithAlloc
  WzToSz=C:\Windows\System32\cmutil.WzToSz
  WzToSzWithAlloc=C:\Windows\System32\cmutil.WzToSzWithAlloc
