EXPORTS
  ??0?$_SpinWait@$00@details@Concurrency@@QEAA@P6AXXZ@Z=C:\Windows\System32\concrt140.??0?$_SpinWait@$00@details@Concurrency@@QEAA@P6AXXZ@Z
  ??0?$_SpinWait@$0A@@details@Concurrency@@QEAA@P6AXXZ@Z=C:\Windows\System32\concrt140.??0?$_SpinWait@$0A@@details@Concurrency@@QEAA@P6AXXZ@Z
  ??0SchedulerPolicy@Concurrency@@QEAA@AEBV01@@Z=C:\Windows\System32\concrt140.??0SchedulerPolicy@Concurrency@@QEAA@AEBV01@@Z
  ??0SchedulerPolicy@Concurrency@@QEAA@XZ=C:\Windows\System32\concrt140.??0SchedulerPolicy@Concurrency@@QEAA@XZ
  ??0SchedulerPolicy@Concurrency@@QEAA@_KZZ=C:\Windows\System32\concrt140.??0SchedulerPolicy@Concurrency@@QEAA@_KZZ
  ??0_Cancellation_beacon@details@Concurrency@@QEAA@XZ=C:\Windows\System32\concrt140.??0_Cancellation_beacon@details@Concurrency@@QEAA@XZ
  ??0_Concurrent_queue_base_v4@details@Concurrency@@IEAA@_K@Z=C:\Windows\System32\concrt140.??0_Concurrent_queue_base_v4@details@Concurrency@@IEAA@_K@Z
  ??0_Concurrent_queue_iterator_base_v4@details@Concurrency@@IEAA@AEBV_Concurrent_queue_base_v4@12@@Z=C:\Windows\System32\concrt140.??0_Concurrent_queue_iterator_base_v4@details@Concurrency@@IEAA@AEBV_Concurrent_queue_base_v4@12@@Z
  ??0_Condition_variable@details@Concurrency@@QEAA@XZ=C:\Windows\System32\concrt140.??0_Condition_variable@details@Concurrency@@QEAA@XZ
  ??0_Context@details@Concurrency@@QEAA@PEAVContext@2@@Z=C:\Windows\System32\concrt140.??0_Context@details@Concurrency@@QEAA@PEAVContext@2@@Z
  ??0_NonReentrantBlockingLock@details@Concurrency@@QEAA@XZ=C:\Windows\System32\concrt140.??0_NonReentrantBlockingLock@details@Concurrency@@QEAA@XZ
  ??0_NonReentrantPPLLock@details@Concurrency@@QEAA@XZ=C:\Windows\System32\concrt140.??0_NonReentrantPPLLock@details@Concurrency@@QEAA@XZ
  ??0_ReaderWriterLock@details@Concurrency@@QEAA@XZ=C:\Windows\System32\concrt140.??0_ReaderWriterLock@details@Concurrency@@QEAA@XZ
  ??0_ReentrantBlockingLock@details@Concurrency@@QEAA@XZ=C:\Windows\System32\concrt140.??0_ReentrantBlockingLock@details@Concurrency@@QEAA@XZ
  ??0_ReentrantLock@details@Concurrency@@QEAA@XZ=C:\Windows\System32\concrt140.??0_ReentrantLock@details@Concurrency@@QEAA@XZ
  ??0_ReentrantPPLLock@details@Concurrency@@QEAA@XZ=C:\Windows\System32\concrt140.??0_ReentrantPPLLock@details@Concurrency@@QEAA@XZ
  ??0_Runtime_object@details@Concurrency@@QEAA@H@Z=C:\Windows\System32\concrt140.??0_Runtime_object@details@Concurrency@@QEAA@H@Z
  ??0_Runtime_object@details@Concurrency@@QEAA@XZ=C:\Windows\System32\concrt140.??0_Runtime_object@details@Concurrency@@QEAA@XZ
  ??0_Scheduler@details@Concurrency@@QEAA@PEAVScheduler@2@@Z=C:\Windows\System32\concrt140.??0_Scheduler@details@Concurrency@@QEAA@PEAVScheduler@2@@Z
  ??0_Scoped_lock@_NonReentrantPPLLock@details@Concurrency@@QEAA@AEAV123@@Z=C:\Windows\System32\concrt140.??0_Scoped_lock@_NonReentrantPPLLock@details@Concurrency@@QEAA@AEAV123@@Z
  ??0_Scoped_lock@_ReentrantPPLLock@details@Concurrency@@QEAA@AEAV123@@Z=C:\Windows\System32\concrt140.??0_Scoped_lock@_ReentrantPPLLock@details@Concurrency@@QEAA@AEAV123@@Z
  ??0_SpinLock@details@Concurrency@@QEAA@AECJ@Z=C:\Windows\System32\concrt140.??0_SpinLock@details@Concurrency@@QEAA@AECJ@Z
  ??0_StructuredTaskCollection@details@Concurrency@@QEAA@PEAV_CancellationTokenState@12@@Z=C:\Windows\System32\concrt140.??0_StructuredTaskCollection@details@Concurrency@@QEAA@PEAV_CancellationTokenState@12@@Z
  ??0_TaskCollection@details@Concurrency@@QEAA@PEAV_CancellationTokenState@12@@Z=C:\Windows\System32\concrt140.??0_TaskCollection@details@Concurrency@@QEAA@PEAV_CancellationTokenState@12@@Z
  ??0_TaskCollection@details@Concurrency@@QEAA@XZ=C:\Windows\System32\concrt140.??0_TaskCollection@details@Concurrency@@QEAA@XZ
  ??0_Timer@details@Concurrency@@IEAA@I_N@Z=C:\Windows\System32\concrt140.??0_Timer@details@Concurrency@@IEAA@I_N@Z
  ??0agent@Concurrency@@QEAA@AEAVScheduleGroup@1@@Z=C:\Windows\System32\concrt140.??0agent@Concurrency@@QEAA@AEAVScheduleGroup@1@@Z
  ??0agent@Concurrency@@QEAA@AEAVScheduler@1@@Z=C:\Windows\System32\concrt140.??0agent@Concurrency@@QEAA@AEAVScheduler@1@@Z
  ??0agent@Concurrency@@QEAA@XZ=C:\Windows\System32\concrt140.??0agent@Concurrency@@QEAA@XZ
  ??0bad_target@Concurrency@@QEAA@PEBD@Z=C:\Windows\System32\concrt140.??0bad_target@Concurrency@@QEAA@PEBD@Z
  ??0bad_target@Concurrency@@QEAA@XZ=C:\Windows\System32\concrt140.??0bad_target@Concurrency@@QEAA@XZ
  ??0context_self_unblock@Concurrency@@QEAA@PEBD@Z=C:\Windows\System32\concrt140.??0context_self_unblock@Concurrency@@QEAA@PEBD@Z
  ??0context_self_unblock@Concurrency@@QEAA@XZ=C:\Windows\System32\concrt140.??0context_self_unblock@Concurrency@@QEAA@XZ
  ??0context_unblock_unbalanced@Concurrency@@QEAA@PEBD@Z=C:\Windows\System32\concrt140.??0context_unblock_unbalanced@Concurrency@@QEAA@PEBD@Z
  ??0context_unblock_unbalanced@Concurrency@@QEAA@XZ=C:\Windows\System32\concrt140.??0context_unblock_unbalanced@Concurrency@@QEAA@XZ
  ??0critical_section@Concurrency@@QEAA@XZ=C:\Windows\System32\concrt140.??0critical_section@Concurrency@@QEAA@XZ
  ??0default_scheduler_exists@Concurrency@@QEAA@PEBD@Z=C:\Windows\System32\concrt140.??0default_scheduler_exists@Concurrency@@QEAA@PEBD@Z
  ??0default_scheduler_exists@Concurrency@@QEAA@XZ=C:\Windows\System32\concrt140.??0default_scheduler_exists@Concurrency@@QEAA@XZ
  ??0event@Concurrency@@QEAA@XZ=C:\Windows\System32\concrt140.??0event@Concurrency@@QEAA@XZ
  ??0improper_lock@Concurrency@@QEAA@PEBD@Z=C:\Windows\System32\concrt140.??0improper_lock@Concurrency@@QEAA@PEBD@Z
  ??0improper_lock@Concurrency@@QEAA@XZ=C:\Windows\System32\concrt140.??0improper_lock@Concurrency@@QEAA@XZ
  ??0improper_scheduler_attach@Concurrency@@QEAA@PEBD@Z=C:\Windows\System32\concrt140.??0improper_scheduler_attach@Concurrency@@QEAA@PEBD@Z
  ??0improper_scheduler_attach@Concurrency@@QEAA@XZ=C:\Windows\System32\concrt140.??0improper_scheduler_attach@Concurrency@@QEAA@XZ
  ??0improper_scheduler_detach@Concurrency@@QEAA@PEBD@Z=C:\Windows\System32\concrt140.??0improper_scheduler_detach@Concurrency@@QEAA@PEBD@Z
  ??0improper_scheduler_detach@Concurrency@@QEAA@XZ=C:\Windows\System32\concrt140.??0improper_scheduler_detach@Concurrency@@QEAA@XZ
  ??0improper_scheduler_reference@Concurrency@@QEAA@PEBD@Z=C:\Windows\System32\concrt140.??0improper_scheduler_reference@Concurrency@@QEAA@PEBD@Z
  ??0improper_scheduler_reference@Concurrency@@QEAA@XZ=C:\Windows\System32\concrt140.??0improper_scheduler_reference@Concurrency@@QEAA@XZ
  ??0invalid_link_target@Concurrency@@QEAA@PEBD@Z=C:\Windows\System32\concrt140.??0invalid_link_target@Concurrency@@QEAA@PEBD@Z
  ??0invalid_link_target@Concurrency@@QEAA@XZ=C:\Windows\System32\concrt140.??0invalid_link_target@Concurrency@@QEAA@XZ
  ??0invalid_multiple_scheduling@Concurrency@@QEAA@PEBD@Z=C:\Windows\System32\concrt140.??0invalid_multiple_scheduling@Concurrency@@QEAA@PEBD@Z
  ??0invalid_multiple_scheduling@Concurrency@@QEAA@XZ=C:\Windows\System32\concrt140.??0invalid_multiple_scheduling@Concurrency@@QEAA@XZ
  ??0invalid_oversubscribe_operation@Concurrency@@QEAA@PEBD@Z=C:\Windows\System32\concrt140.??0invalid_oversubscribe_operation@Concurrency@@QEAA@PEBD@Z
  ??0invalid_oversubscribe_operation@Concurrency@@QEAA@XZ=C:\Windows\System32\concrt140.??0invalid_oversubscribe_operation@Concurrency@@QEAA@XZ
  ??0invalid_scheduler_policy_key@Concurrency@@QEAA@PEBD@Z=C:\Windows\System32\concrt140.??0invalid_scheduler_policy_key@Concurrency@@QEAA@PEBD@Z
  ??0invalid_scheduler_policy_key@Concurrency@@QEAA@XZ=C:\Windows\System32\concrt140.??0invalid_scheduler_policy_key@Concurrency@@QEAA@XZ
  ??0invalid_scheduler_policy_thread_specification@Concurrency@@QEAA@PEBD@Z=C:\Windows\System32\concrt140.??0invalid_scheduler_policy_thread_specification@Concurrency@@QEAA@PEBD@Z
  ??0invalid_scheduler_policy_thread_specification@Concurrency@@QEAA@XZ=C:\Windows\System32\concrt140.??0invalid_scheduler_policy_thread_specification@Concurrency@@QEAA@XZ
  ??0invalid_scheduler_policy_value@Concurrency@@QEAA@PEBD@Z=C:\Windows\System32\concrt140.??0invalid_scheduler_policy_value@Concurrency@@QEAA@PEBD@Z
  ??0invalid_scheduler_policy_value@Concurrency@@QEAA@XZ=C:\Windows\System32\concrt140.??0invalid_scheduler_policy_value@Concurrency@@QEAA@XZ
  ??0message_not_found@Concurrency@@QEAA@PEBD@Z=C:\Windows\System32\concrt140.??0message_not_found@Concurrency@@QEAA@PEBD@Z
  ??0message_not_found@Concurrency@@QEAA@XZ=C:\Windows\System32\concrt140.??0message_not_found@Concurrency@@QEAA@XZ
  ??0missing_wait@Concurrency@@QEAA@PEBD@Z=C:\Windows\System32\concrt140.??0missing_wait@Concurrency@@QEAA@PEBD@Z
  ??0missing_wait@Concurrency@@QEAA@XZ=C:\Windows\System32\concrt140.??0missing_wait@Concurrency@@QEAA@XZ
  ??0nested_scheduler_missing_detach@Concurrency@@QEAA@PEBD@Z=C:\Windows\System32\concrt140.??0nested_scheduler_missing_detach@Concurrency@@QEAA@PEBD@Z
  ??0nested_scheduler_missing_detach@Concurrency@@QEAA@XZ=C:\Windows\System32\concrt140.??0nested_scheduler_missing_detach@Concurrency@@QEAA@XZ
  ??0operation_timed_out@Concurrency@@QEAA@PEBD@Z=C:\Windows\System32\concrt140.??0operation_timed_out@Concurrency@@QEAA@PEBD@Z
  ??0operation_timed_out@Concurrency@@QEAA@XZ=C:\Windows\System32\concrt140.??0operation_timed_out@Concurrency@@QEAA@XZ
  ??0reader_writer_lock@Concurrency@@QEAA@XZ=C:\Windows\System32\concrt140.??0reader_writer_lock@Concurrency@@QEAA@XZ
  ??0scheduler_not_attached@Concurrency@@QEAA@PEBD@Z=C:\Windows\System32\concrt140.??0scheduler_not_attached@Concurrency@@QEAA@PEBD@Z
  ??0scheduler_not_attached@Concurrency@@QEAA@XZ=C:\Windows\System32\concrt140.??0scheduler_not_attached@Concurrency@@QEAA@XZ
  ??0scheduler_resource_allocation_error@Concurrency@@QEAA@J@Z=C:\Windows\System32\concrt140.??0scheduler_resource_allocation_error@Concurrency@@QEAA@J@Z
  ??0scheduler_resource_allocation_error@Concurrency@@QEAA@PEBDJ@Z=C:\Windows\System32\concrt140.??0scheduler_resource_allocation_error@Concurrency@@QEAA@PEBDJ@Z
  ??0scheduler_worker_creation_error@Concurrency@@QEAA@J@Z=C:\Windows\System32\concrt140.??0scheduler_worker_creation_error@Concurrency@@QEAA@J@Z
  ??0scheduler_worker_creation_error@Concurrency@@QEAA@PEBDJ@Z=C:\Windows\System32\concrt140.??0scheduler_worker_creation_error@Concurrency@@QEAA@PEBDJ@Z
  ??0scoped_lock@critical_section@Concurrency@@QEAA@AEAV12@@Z=C:\Windows\System32\concrt140.??0scoped_lock@critical_section@Concurrency@@QEAA@AEAV12@@Z
  ??0scoped_lock@reader_writer_lock@Concurrency@@QEAA@AEAV12@@Z=C:\Windows\System32\concrt140.??0scoped_lock@reader_writer_lock@Concurrency@@QEAA@AEAV12@@Z
  ??0scoped_lock_read@reader_writer_lock@Concurrency@@QEAA@AEAV12@@Z=C:\Windows\System32\concrt140.??0scoped_lock_read@reader_writer_lock@Concurrency@@QEAA@AEAV12@@Z
  ??0unsupported_os@Concurrency@@QEAA@PEBD@Z=C:\Windows\System32\concrt140.??0unsupported_os@Concurrency@@QEAA@PEBD@Z
  ??0unsupported_os@Concurrency@@QEAA@XZ=C:\Windows\System32\concrt140.??0unsupported_os@Concurrency@@QEAA@XZ
  ??1SchedulerPolicy@Concurrency@@QEAA@XZ=C:\Windows\System32\concrt140.??1SchedulerPolicy@Concurrency@@QEAA@XZ
  ??1_Cancellation_beacon@details@Concurrency@@QEAA@XZ=C:\Windows\System32\concrt140.??1_Cancellation_beacon@details@Concurrency@@QEAA@XZ
  ??1_Concurrent_queue_base_v4@details@Concurrency@@MEAA@XZ=C:\Windows\System32\concrt140.??1_Concurrent_queue_base_v4@details@Concurrency@@MEAA@XZ
  ??1_Concurrent_queue_iterator_base_v4@details@Concurrency@@IEAA@XZ=C:\Windows\System32\concrt140.??1_Concurrent_queue_iterator_base_v4@details@Concurrency@@IEAA@XZ
  ??1_Concurrent_vector_base_v4@details@Concurrency@@IEAA@XZ=C:\Windows\System32\concrt140.??1_Concurrent_vector_base_v4@details@Concurrency@@IEAA@XZ
  ??1_Condition_variable@details@Concurrency@@QEAA@XZ=C:\Windows\System32\concrt140.??1_Condition_variable@details@Concurrency@@QEAA@XZ
  ??1_NonReentrantBlockingLock@details@Concurrency@@QEAA@XZ=C:\Windows\System32\concrt140.??1_NonReentrantBlockingLock@details@Concurrency@@QEAA@XZ
  ??1_ReentrantBlockingLock@details@Concurrency@@QEAA@XZ=C:\Windows\System32\concrt140.??1_ReentrantBlockingLock@details@Concurrency@@QEAA@XZ
  ??1_Scoped_lock@_NonReentrantPPLLock@details@Concurrency@@QEAA@XZ=C:\Windows\System32\concrt140.??1_Scoped_lock@_NonReentrantPPLLock@details@Concurrency@@QEAA@XZ
  ??1_Scoped_lock@_ReentrantPPLLock@details@Concurrency@@QEAA@XZ=C:\Windows\System32\concrt140.??1_Scoped_lock@_ReentrantPPLLock@details@Concurrency@@QEAA@XZ
  ??1_SpinLock@details@Concurrency@@QEAA@XZ=C:\Windows\System32\concrt140.??1_SpinLock@details@Concurrency@@QEAA@XZ
  ??1_StructuredTaskCollection@details@Concurrency@@QEAA@XZ=C:\Windows\System32\concrt140.??1_StructuredTaskCollection@details@Concurrency@@QEAA@XZ
  ??1_TaskCollection@details@Concurrency@@QEAA@XZ=C:\Windows\System32\concrt140.??1_TaskCollection@details@Concurrency@@QEAA@XZ
  ??1_Timer@details@Concurrency@@MEAA@XZ=C:\Windows\System32\concrt140.??1_Timer@details@Concurrency@@MEAA@XZ
  ??1agent@Concurrency@@UEAA@XZ=C:\Windows\System32\concrt140.??1agent@Concurrency@@UEAA@XZ
  ??1critical_section@Concurrency@@QEAA@XZ=C:\Windows\System32\concrt140.??1critical_section@Concurrency@@QEAA@XZ
  ??1event@Concurrency@@QEAA@XZ=C:\Windows\System32\concrt140.??1event@Concurrency@@QEAA@XZ
  ??1reader_writer_lock@Concurrency@@QEAA@XZ=C:\Windows\System32\concrt140.??1reader_writer_lock@Concurrency@@QEAA@XZ
  ??1scoped_lock@critical_section@Concurrency@@QEAA@XZ=C:\Windows\System32\concrt140.??1scoped_lock@critical_section@Concurrency@@QEAA@XZ
  ??1scoped_lock@reader_writer_lock@Concurrency@@QEAA@XZ=C:\Windows\System32\concrt140.??1scoped_lock@reader_writer_lock@Concurrency@@QEAA@XZ
  ??1scoped_lock_read@reader_writer_lock@Concurrency@@QEAA@XZ=C:\Windows\System32\concrt140.??1scoped_lock_read@reader_writer_lock@Concurrency@@QEAA@XZ
  ??4?$_SpinWait@$00@details@Concurrency@@QEAAAEAV012@$$QEAV012@@Z=C:\Windows\System32\concrt140.??4?$_SpinWait@$00@details@Concurrency@@QEAAAEAV012@$$QEAV012@@Z
  ??4?$_SpinWait@$00@details@Concurrency@@QEAAAEAV012@AEBV012@@Z=C:\Windows\System32\concrt140.??4?$_SpinWait@$00@details@Concurrency@@QEAAAEAV012@AEBV012@@Z
  ??4?$_SpinWait@$0A@@details@Concurrency@@QEAAAEAV012@$$QEAV012@@Z=C:\Windows\System32\concrt140.??4?$_SpinWait@$0A@@details@Concurrency@@QEAAAEAV012@$$QEAV012@@Z
  ??4?$_SpinWait@$0A@@details@Concurrency@@QEAAAEAV012@AEBV012@@Z=C:\Windows\System32\concrt140.??4?$_SpinWait@$0A@@details@Concurrency@@QEAAAEAV012@AEBV012@@Z
  ??4SchedulerPolicy@Concurrency@@QEAAAEAV01@AEBV01@@Z=C:\Windows\System32\concrt140.??4SchedulerPolicy@Concurrency@@QEAAAEAV01@AEBV01@@Z
  ??_F?$_SpinWait@$00@details@Concurrency@@QEAAXXZ=C:\Windows\System32\concrt140.??_F?$_SpinWait@$00@details@Concurrency@@QEAAXXZ
  ??_F?$_SpinWait@$0A@@details@Concurrency@@QEAAXXZ=C:\Windows\System32\concrt140.??_F?$_SpinWait@$0A@@details@Concurrency@@QEAAXXZ
  ??_F_Context@details@Concurrency@@QEAAXXZ=C:\Windows\System32\concrt140.??_F_Context@details@Concurrency@@QEAAXXZ
  ??_F_Scheduler@details@Concurrency@@QEAAXXZ=C:\Windows\System32\concrt140.??_F_Scheduler@details@Concurrency@@QEAAXXZ
  ?AgentEventGuid@Concurrency@@3U_GUID@@B=C:\Windows\System32\concrt140.?AgentEventGuid@Concurrency@@3U_GUID@@B
  ?Alloc@Concurrency@@YAPEAX_K@Z=C:\Windows\System32\concrt140.?Alloc@Concurrency@@YAPEAX_K@Z
  ?Block@Context@Concurrency@@SAXXZ=C:\Windows\System32\concrt140.?Block@Context@Concurrency@@SAXXZ
  ?ChoreEventGuid@Concurrency@@3U_GUID@@B=C:\Windows\System32\concrt140.?ChoreEventGuid@Concurrency@@3U_GUID@@B
  ?ConcRTEventGuid@Concurrency@@3U_GUID@@B=C:\Windows\System32\concrt140.?ConcRTEventGuid@Concurrency@@3U_GUID@@B
  ?ConcRT_ProviderGuid@Concurrency@@3U_GUID@@B=C:\Windows\System32\concrt140.?ConcRT_ProviderGuid@Concurrency@@3U_GUID@@B
  ?ContextEventGuid@Concurrency@@3U_GUID@@B=C:\Windows\System32\concrt140.?ContextEventGuid@Concurrency@@3U_GUID@@B
  ?Create@CurrentScheduler@Concurrency@@SAXAEBVSchedulerPolicy@2@@Z=C:\Windows\System32\concrt140.?Create@CurrentScheduler@Concurrency@@SAXAEBVSchedulerPolicy@2@@Z
  ?Create@Scheduler@Concurrency@@SAPEAV12@AEBVSchedulerPolicy@2@@Z=C:\Windows\System32\concrt140.?Create@Scheduler@Concurrency@@SAPEAV12@AEBVSchedulerPolicy@2@@Z
  ?CreateResourceManager@Concurrency@@YAPEAUIResourceManager@1@XZ=C:\Windows\System32\concrt140.?CreateResourceManager@Concurrency@@YAPEAUIResourceManager@1@XZ
  ?CreateScheduleGroup@CurrentScheduler@Concurrency@@SAPEAVScheduleGroup@2@AEAVlocation@2@@Z=C:\Windows\System32\concrt140.?CreateScheduleGroup@CurrentScheduler@Concurrency@@SAPEAVScheduleGroup@2@AEAVlocation@2@@Z
  ?CreateScheduleGroup@CurrentScheduler@Concurrency@@SAPEAVScheduleGroup@2@XZ=C:\Windows\System32\concrt140.?CreateScheduleGroup@CurrentScheduler@Concurrency@@SAPEAVScheduleGroup@2@XZ
  ?CurrentContext@Context@Concurrency@@SAPEAV12@XZ=C:\Windows\System32\concrt140.?CurrentContext@Context@Concurrency@@SAPEAV12@XZ
  ?Detach@CurrentScheduler@Concurrency@@SAXXZ=C:\Windows\System32\concrt140.?Detach@CurrentScheduler@Concurrency@@SAXXZ
  ?DisableTracing@Concurrency@@YAJXZ=C:\Windows\System32\concrt140.?DisableTracing@Concurrency@@YAJXZ
  ?EnableTracing@Concurrency@@YAJXZ=C:\Windows\System32\concrt140.?EnableTracing@Concurrency@@YAJXZ
  ?Free@Concurrency@@YAXPEAX@Z=C:\Windows\System32\concrt140.?Free@Concurrency@@YAXPEAX@Z
  ?Get@CurrentScheduler@Concurrency@@SAPEAVScheduler@2@XZ=C:\Windows\System32\concrt140.?Get@CurrentScheduler@Concurrency@@SAPEAVScheduler@2@XZ
  ?GetExecutionContextId@Concurrency@@YAIXZ=C:\Windows\System32\concrt140.?GetExecutionContextId@Concurrency@@YAIXZ
  ?GetNumberOfVirtualProcessors@CurrentScheduler@Concurrency@@SAIXZ=C:\Windows\System32\concrt140.?GetNumberOfVirtualProcessors@CurrentScheduler@Concurrency@@SAIXZ
  ?GetOSVersion@Concurrency@@YA?AW4OSVersion@IResourceManager@1@XZ=C:\Windows\System32\concrt140.?GetOSVersion@Concurrency@@YA?AW4OSVersion@IResourceManager@1@XZ
  ?GetPolicy@CurrentScheduler@Concurrency@@SA?AVSchedulerPolicy@2@XZ=C:\Windows\System32\concrt140.?GetPolicy@CurrentScheduler@Concurrency@@SA?AVSchedulerPolicy@2@XZ
  ?GetPolicyValue@SchedulerPolicy@Concurrency@@QEBAIW4PolicyElementKey@2@@Z=C:\Windows\System32\concrt140.?GetPolicyValue@SchedulerPolicy@Concurrency@@QEBAIW4PolicyElementKey@2@@Z
  ?GetProcessorCount@Concurrency@@YAIXZ=C:\Windows\System32\concrt140.?GetProcessorCount@Concurrency@@YAIXZ
  ?GetProcessorNodeCount@Concurrency@@YAIXZ=C:\Windows\System32\concrt140.?GetProcessorNodeCount@Concurrency@@YAIXZ
  ?GetSchedulerId@Concurrency@@YAIXZ=C:\Windows\System32\concrt140.?GetSchedulerId@Concurrency@@YAIXZ
  ?GetSharedTimerQueue@details@Concurrency@@YAPEAXXZ=C:\Windows\System32\concrt140.?GetSharedTimerQueue@details@Concurrency@@YAPEAXXZ
  ?Id@Context@Concurrency@@SAIXZ=C:\Windows\System32\concrt140.?Id@Context@Concurrency@@SAIXZ
  ?Id@CurrentScheduler@Concurrency@@SAIXZ=C:\Windows\System32\concrt140.?Id@CurrentScheduler@Concurrency@@SAIXZ
  ?IsAvailableLocation@CurrentScheduler@Concurrency@@SA_NAEBVlocation@2@@Z=C:\Windows\System32\concrt140.?IsAvailableLocation@CurrentScheduler@Concurrency@@SA_NAEBVlocation@2@@Z
  ?IsCurrentTaskCollectionCanceling@Context@Concurrency@@SA_NXZ=C:\Windows\System32\concrt140.?IsCurrentTaskCollectionCanceling@Context@Concurrency@@SA_NXZ
  ?LockEventGuid@Concurrency@@3U_GUID@@B=C:\Windows\System32\concrt140.?LockEventGuid@Concurrency@@3U_GUID@@B
  ?Log2@details@Concurrency@@YAK_K@Z=C:\Windows\System32\concrt140.?Log2@details@Concurrency@@YAK_K@Z
  ?NFS_Allocate@details@Concurrency@@YAPEAX_K0PEAX@Z=C:\Windows\System32\concrt140.?NFS_Allocate@details@Concurrency@@YAPEAX_K0PEAX@Z
  ?NFS_Free@details@Concurrency@@YAXPEAX@Z=C:\Windows\System32\concrt140.?NFS_Free@details@Concurrency@@YAXPEAX@Z
  ?NFS_GetLineSize@details@Concurrency@@YA_KXZ=C:\Windows\System32\concrt140.?NFS_GetLineSize@details@Concurrency@@YA_KXZ
  ?Oversubscribe@Context@Concurrency@@SAX_N@Z=C:\Windows\System32\concrt140.?Oversubscribe@Context@Concurrency@@SAX_N@Z
  ?PPLParallelForEventGuid@Concurrency@@3U_GUID@@B=C:\Windows\System32\concrt140.?PPLParallelForEventGuid@Concurrency@@3U_GUID@@B
  ?PPLParallelForeachEventGuid@Concurrency@@3U_GUID@@B=C:\Windows\System32\concrt140.?PPLParallelForeachEventGuid@Concurrency@@3U_GUID@@B
  ?PPLParallelInvokeEventGuid@Concurrency@@3U_GUID@@B=C:\Windows\System32\concrt140.?PPLParallelInvokeEventGuid@Concurrency@@3U_GUID@@B
  ?RegisterShutdownEvent@CurrentScheduler@Concurrency@@SAXPEAX@Z=C:\Windows\System32\concrt140.?RegisterShutdownEvent@CurrentScheduler@Concurrency@@SAXPEAX@Z
  ?ResetDefaultSchedulerPolicy@Scheduler@Concurrency@@SAXXZ=C:\Windows\System32\concrt140.?ResetDefaultSchedulerPolicy@Scheduler@Concurrency@@SAXXZ
  ?ResourceManagerEventGuid@Concurrency@@3U_GUID@@B=C:\Windows\System32\concrt140.?ResourceManagerEventGuid@Concurrency@@3U_GUID@@B
  ?ScheduleGroupEventGuid@Concurrency@@3U_GUID@@B=C:\Windows\System32\concrt140.?ScheduleGroupEventGuid@Concurrency@@3U_GUID@@B
  ?ScheduleGroupId@Context@Concurrency@@SAIXZ=C:\Windows\System32\concrt140.?ScheduleGroupId@Context@Concurrency@@SAIXZ
  ?ScheduleTask@CurrentScheduler@Concurrency@@SAXP6AXPEAX@Z0@Z=C:\Windows\System32\concrt140.?ScheduleTask@CurrentScheduler@Concurrency@@SAXP6AXPEAX@Z0@Z
  ?ScheduleTask@CurrentScheduler@Concurrency@@SAXP6AXPEAX@Z0AEAVlocation@2@@Z=C:\Windows\System32\concrt140.?ScheduleTask@CurrentScheduler@Concurrency@@SAXP6AXPEAX@Z0AEAVlocation@2@@Z
  ?SchedulerEventGuid@Concurrency@@3U_GUID@@B=C:\Windows\System32\concrt140.?SchedulerEventGuid@Concurrency@@3U_GUID@@B
  ?SetConcurrencyLimits@SchedulerPolicy@Concurrency@@QEAAXII@Z=C:\Windows\System32\concrt140.?SetConcurrencyLimits@SchedulerPolicy@Concurrency@@QEAAXII@Z
  ?SetDefaultSchedulerPolicy@Scheduler@Concurrency@@SAXAEBVSchedulerPolicy@2@@Z=C:\Windows\System32\concrt140.?SetDefaultSchedulerPolicy@Scheduler@Concurrency@@SAXAEBVSchedulerPolicy@2@@Z
  ?SetPolicyValue@SchedulerPolicy@Concurrency@@QEAAIW4PolicyElementKey@2@I@Z=C:\Windows\System32\concrt140.?SetPolicyValue@SchedulerPolicy@Concurrency@@QEAAIW4PolicyElementKey@2@I@Z
  ?VirtualProcessorEventGuid@Concurrency@@3U_GUID@@B=C:\Windows\System32\concrt140.?VirtualProcessorEventGuid@Concurrency@@3U_GUID@@B
  ?VirtualProcessorId@Context@Concurrency@@SAIXZ=C:\Windows\System32\concrt140.?VirtualProcessorId@Context@Concurrency@@SAIXZ
  ?Yield@Context@Concurrency@@SAXXZ=C:\Windows\System32\concrt140.?Yield@Context@Concurrency@@SAXXZ
  ?_Abort@_StructuredTaskCollection@details@Concurrency@@AEAAXXZ=C:\Windows\System32\concrt140.?_Abort@_StructuredTaskCollection@details@Concurrency@@AEAAXXZ
  ?_Acquire@_NonReentrantBlockingLock@details@Concurrency@@QEAAXXZ=C:\Windows\System32\concrt140.?_Acquire@_NonReentrantBlockingLock@details@Concurrency@@QEAAXXZ
  ?_Acquire@_NonReentrantPPLLock@details@Concurrency@@QEAAXPEAX@Z=C:\Windows\System32\concrt140.?_Acquire@_NonReentrantPPLLock@details@Concurrency@@QEAAXPEAX@Z
  ?_Acquire@_ReentrantBlockingLock@details@Concurrency@@QEAAXXZ=C:\Windows\System32\concrt140.?_Acquire@_ReentrantBlockingLock@details@Concurrency@@QEAAXXZ
  ?_Acquire@_ReentrantLock@details@Concurrency@@QEAAXXZ=C:\Windows\System32\concrt140.?_Acquire@_ReentrantLock@details@Concurrency@@QEAAXXZ
  ?_Acquire@_ReentrantPPLLock@details@Concurrency@@QEAAXPEAX@Z=C:\Windows\System32\concrt140.?_Acquire@_ReentrantPPLLock@details@Concurrency@@QEAAXPEAX@Z
  ?_AcquireRead@_ReaderWriterLock@details@Concurrency@@QEAAXXZ=C:\Windows\System32\concrt140.?_AcquireRead@_ReaderWriterLock@details@Concurrency@@QEAAXXZ
  ?_AcquireWrite@_ReaderWriterLock@details@Concurrency@@QEAAXXZ=C:\Windows\System32\concrt140.?_AcquireWrite@_ReaderWriterLock@details@Concurrency@@QEAAXXZ
  ?_Advance@_Concurrent_queue_iterator_base_v4@details@Concurrency@@IEAAXXZ=C:\Windows\System32\concrt140.?_Advance@_Concurrent_queue_iterator_base_v4@details@Concurrency@@IEAAXXZ
  ?_Assign@_Concurrent_queue_iterator_base_v4@details@Concurrency@@IEAAXAEBV123@@Z=C:\Windows\System32\concrt140.?_Assign@_Concurrent_queue_iterator_base_v4@details@Concurrency@@IEAAXAEBV123@@Z
  ?_Byte_reverse_table@details@Concurrency@@3QBEB=C:\Windows\System32\concrt140.?_Byte_reverse_table@details@Concurrency@@3QBEB
  ?_Cancel@_StructuredTaskCollection@details@Concurrency@@QEAAXXZ=C:\Windows\System32\concrt140.?_Cancel@_StructuredTaskCollection@details@Concurrency@@QEAAXXZ
  ?_Cancel@_TaskCollection@details@Concurrency@@QEAAXXZ=C:\Windows\System32\concrt140.?_Cancel@_TaskCollection@details@Concurrency@@QEAAXXZ
  ?_CheckTaskCollection@_UnrealizedChore@details@Concurrency@@IEAAXXZ=C:\Windows\System32\concrt140.?_CheckTaskCollection@_UnrealizedChore@details@Concurrency@@IEAAXXZ
  ?_CleanupToken@_StructuredTaskCollection@details@Concurrency@@AEAAXXZ=C:\Windows\System32\concrt140.?_CleanupToken@_StructuredTaskCollection@details@Concurrency@@AEAAXXZ
  ?_ConcRT_CoreAssert@details@Concurrency@@YAXPEBD0H@Z=C:\Windows\System32\concrt140.?_ConcRT_CoreAssert@details@Concurrency@@YAXPEBD0H@Z
  ?_ConcRT_Trace@details@Concurrency@@YAXHPEB_WZZ=C:\Windows\System32\concrt140.?_ConcRT_Trace@details@Concurrency@@YAXHPEB_WZZ
  ?_Confirm_cancel@_Cancellation_beacon@details@Concurrency@@QEAA_NXZ=C:\Windows\System32\concrt140.?_Confirm_cancel@_Cancellation_beacon@details@Concurrency@@QEAA_NXZ
  ?_CurrentContext@_Context@details@Concurrency@@SA?AV123@XZ=C:\Windows\System32\concrt140.?_CurrentContext@_Context@details@Concurrency@@SA?AV123@XZ
  ?_Current_node@location@Concurrency@@SA?AV12@XZ=C:\Windows\System32\concrt140.?_Current_node@location@Concurrency@@SA?AV12@XZ
  ?_Destroy@_AsyncTaskCollection@details@Concurrency@@EEAAXXZ=C:\Windows\System32\concrt140.?_Destroy@_AsyncTaskCollection@details@Concurrency@@EEAAXXZ
  ?_DoYield@?$_SpinWait@$00@details@Concurrency@@IEAAXXZ=C:\Windows\System32\concrt140.?_DoYield@?$_SpinWait@$00@details@Concurrency@@IEAAXXZ
  ?_DoYield@?$_SpinWait@$0A@@details@Concurrency@@IEAAXXZ=C:\Windows\System32\concrt140.?_DoYield@?$_SpinWait@$0A@@details@Concurrency@@IEAAXXZ
  ?_Get@_CurrentScheduler@details@Concurrency@@SA?AV_Scheduler@23@XZ=C:\Windows\System32\concrt140.?_Get@_CurrentScheduler@details@Concurrency@@SA?AV_Scheduler@23@XZ
  ?_GetCombinableSize@details@Concurrency@@YA_KXZ=C:\Windows\System32\concrt140.?_GetCombinableSize@details@Concurrency@@YA_KXZ
  ?_GetConcRTTraceInfo@Concurrency@@YAPEBU_CONCRT_TRACE_INFO@details@1@XZ=C:\Windows\System32\concrt140.?_GetConcRTTraceInfo@Concurrency@@YAPEBU_CONCRT_TRACE_INFO@details@1@XZ
  ?_GetConcurrency@details@Concurrency@@YAIXZ=C:\Windows\System32\concrt140.?_GetConcurrency@details@Concurrency@@YAIXZ
  ?_GetCurrentInlineDepth@_StackGuard@details@Concurrency@@CAAEA_KXZ=C:\Windows\System32\concrt140.?_GetCurrentInlineDepth@_StackGuard@details@Concurrency@@CAAEA_KXZ
  ?_GetNumberOfVirtualProcessors@_CurrentScheduler@details@Concurrency@@SAIXZ=C:\Windows\System32\concrt140.?_GetNumberOfVirtualProcessors@_CurrentScheduler@details@Concurrency@@SAIXZ
  ?_GetScheduler@_Scheduler@details@Concurrency@@QEAAPEAVScheduler@3@XZ=C:\Windows\System32\concrt140.?_GetScheduler@_Scheduler@details@Concurrency@@QEAAPEAVScheduler@3@XZ
  ?_Id@_CurrentScheduler@details@Concurrency@@SAIXZ=C:\Windows\System32\concrt140.?_Id@_CurrentScheduler@details@Concurrency@@SAIXZ
  ?_Internal_assign@_Concurrent_vector_base_v4@details@Concurrency@@IEAAXAEBV123@_KP6AXPEAX1@ZP6AX2PEBX1@Z5@Z=C:\Windows\System32\concrt140.?_Internal_assign@_Concurrent_vector_base_v4@details@Concurrency@@IEAAXAEBV123@_KP6AXPEAX1@ZP6AX2PEBX1@Z5@Z
  ?_Internal_capacity@_Concurrent_vector_base_v4@details@Concurrency@@IEBA_KXZ=C:\Windows\System32\concrt140.?_Internal_capacity@_Concurrent_vector_base_v4@details@Concurrency@@IEBA_KXZ
  ?_Internal_clear@_Concurrent_vector_base_v4@details@Concurrency@@IEAA_KP6AXPEAX_K@Z@Z=C:\Windows\System32\concrt140.?_Internal_clear@_Concurrent_vector_base_v4@details@Concurrency@@IEAA_KP6AXPEAX_K@Z@Z
  ?_Internal_compact@_Concurrent_vector_base_v4@details@Concurrency@@IEAAPEAX_KPEAXP6AX10@ZP6AX1PEBX0@Z@Z=C:\Windows\System32\concrt140.?_Internal_compact@_Concurrent_vector_base_v4@details@Concurrency@@IEAAPEAX_KPEAXP6AX10@ZP6AX1PEBX0@Z@Z
  ?_Internal_copy@_Concurrent_vector_base_v4@details@Concurrency@@IEAAXAEBV123@_KP6AXPEAXPEBX1@Z@Z=C:\Windows\System32\concrt140.?_Internal_copy@_Concurrent_vector_base_v4@details@Concurrency@@IEAAXAEBV123@_KP6AXPEAXPEBX1@Z@Z
  ?_Internal_empty@_Concurrent_queue_base_v4@details@Concurrency@@IEBA_NXZ=C:\Windows\System32\concrt140.?_Internal_empty@_Concurrent_queue_base_v4@details@Concurrency@@IEBA_NXZ
  ?_Internal_finish_clear@_Concurrent_queue_base_v4@details@Concurrency@@IEAAXXZ=C:\Windows\System32\concrt140.?_Internal_finish_clear@_Concurrent_queue_base_v4@details@Concurrency@@IEAAXXZ
  ?_Internal_grow_by@_Concurrent_vector_base_v4@details@Concurrency@@IEAA_K_K0P6AXPEAXPEBX0@Z2@Z=C:\Windows\System32\concrt140.?_Internal_grow_by@_Concurrent_vector_base_v4@details@Concurrency@@IEAA_K_K0P6AXPEAXPEBX0@Z2@Z
  ?_Internal_grow_to_at_least_with_result@_Concurrent_vector_base_v4@details@Concurrency@@IEAA_K_K0P6AXPEAXPEBX0@Z2@Z=C:\Windows\System32\concrt140.?_Internal_grow_to_at_least_with_result@_Concurrent_vector_base_v4@details@Concurrency@@IEAA_K_K0P6AXPEAXPEBX0@Z2@Z
  ?_Internal_move_push@_Concurrent_queue_base_v4@details@Concurrency@@IEAAXPEAX@Z=C:\Windows\System32\concrt140.?_Internal_move_push@_Concurrent_queue_base_v4@details@Concurrency@@IEAAXPEAX@Z
  ?_Internal_pop_if_present@_Concurrent_queue_base_v4@details@Concurrency@@IEAA_NPEAX@Z=C:\Windows\System32\concrt140.?_Internal_pop_if_present@_Concurrent_queue_base_v4@details@Concurrency@@IEAA_NPEAX@Z
  ?_Internal_push@_Concurrent_queue_base_v4@details@Concurrency@@IEAAXPEBX@Z=C:\Windows\System32\concrt140.?_Internal_push@_Concurrent_queue_base_v4@details@Concurrency@@IEAAXPEBX@Z
  ?_Internal_push_back@_Concurrent_vector_base_v4@details@Concurrency@@IEAAPEAX_KAEA_K@Z=C:\Windows\System32\concrt140.?_Internal_push_back@_Concurrent_vector_base_v4@details@Concurrency@@IEAAPEAX_KAEA_K@Z
  ?_Internal_reserve@_Concurrent_vector_base_v4@details@Concurrency@@IEAAX_K00@Z=C:\Windows\System32\concrt140.?_Internal_reserve@_Concurrent_vector_base_v4@details@Concurrency@@IEAAX_K00@Z
  ?_Internal_resize@_Concurrent_vector_base_v4@details@Concurrency@@IEAAX_K00P6AXPEAX0@ZP6AX1PEBX0@Z3@Z=C:\Windows\System32\concrt140.?_Internal_resize@_Concurrent_vector_base_v4@details@Concurrency@@IEAAX_K00P6AXPEAX0@ZP6AX1PEBX0@Z3@Z
  ?_Internal_size@_Concurrent_queue_base_v4@details@Concurrency@@IEBA_KXZ=C:\Windows\System32\concrt140.?_Internal_size@_Concurrent_queue_base_v4@details@Concurrency@@IEBA_KXZ
  ?_Internal_swap@_Concurrent_queue_base_v4@details@Concurrency@@IEAAXAEAV123@@Z=C:\Windows\System32\concrt140.?_Internal_swap@_Concurrent_queue_base_v4@details@Concurrency@@IEAAXAEAV123@@Z
  ?_Internal_swap@_Concurrent_vector_base_v4@details@Concurrency@@IEAAXAEAV123@@Z=C:\Windows\System32\concrt140.?_Internal_swap@_Concurrent_vector_base_v4@details@Concurrency@@IEAAXAEAV123@@Z
  ?_Internal_throw_exception@_Concurrent_queue_base_v4@details@Concurrency@@IEBAXXZ=C:\Windows\System32\concrt140.?_Internal_throw_exception@_Concurrent_queue_base_v4@details@Concurrency@@IEBAXXZ
  ?_Internal_throw_exception@_Concurrent_vector_base_v4@details@Concurrency@@IEBAX_K@Z=C:\Windows\System32\concrt140.?_Internal_throw_exception@_Concurrent_vector_base_v4@details@Concurrency@@IEBAX_K@Z
  ?_IsCanceling@_StructuredTaskCollection@details@Concurrency@@QEAA_NXZ=C:\Windows\System32\concrt140.?_IsCanceling@_StructuredTaskCollection@details@Concurrency@@QEAA_NXZ
  ?_IsCanceling@_TaskCollection@details@Concurrency@@QEAA_NXZ=C:\Windows\System32\concrt140.?_IsCanceling@_TaskCollection@details@Concurrency@@QEAA_NXZ
  ?_IsSynchronouslyBlocked@_Context@details@Concurrency@@QEBA_NXZ=C:\Windows\System32\concrt140.?_IsSynchronouslyBlocked@_Context@details@Concurrency@@QEBA_NXZ
  ?_NewCollection@_AsyncTaskCollection@details@Concurrency@@SAPEAV123@PEAV_CancellationTokenState@23@@Z=C:\Windows\System32\concrt140.?_NewCollection@_AsyncTaskCollection@details@Concurrency@@SAPEAV123@PEAV_CancellationTokenState@23@@Z
  ?_NumberOfSpins@?$_SpinWait@$00@details@Concurrency@@IEAAKXZ=C:\Windows\System32\concrt140.?_NumberOfSpins@?$_SpinWait@$00@details@Concurrency@@IEAAKXZ
  ?_NumberOfSpins@?$_SpinWait@$0A@@details@Concurrency@@IEAAKXZ=C:\Windows\System32\concrt140.?_NumberOfSpins@?$_SpinWait@$0A@@details@Concurrency@@IEAAKXZ
  ?_Oversubscribe@_Context@details@Concurrency@@SAX_N@Z=C:\Windows\System32\concrt140.?_Oversubscribe@_Context@details@Concurrency@@SAX_N@Z
  ?_Reference@_Scheduler@details@Concurrency@@QEAAIXZ=C:\Windows\System32\concrt140.?_Reference@_Scheduler@details@Concurrency@@QEAAIXZ
  ?_Release@_NonReentrantBlockingLock@details@Concurrency@@QEAAXXZ=C:\Windows\System32\concrt140.?_Release@_NonReentrantBlockingLock@details@Concurrency@@QEAAXXZ
  ?_Release@_NonReentrantPPLLock@details@Concurrency@@QEAAXXZ=C:\Windows\System32\concrt140.?_Release@_NonReentrantPPLLock@details@Concurrency@@QEAAXXZ
  ?_Release@_ReentrantBlockingLock@details@Concurrency@@QEAAXXZ=C:\Windows\System32\concrt140.?_Release@_ReentrantBlockingLock@details@Concurrency@@QEAAXXZ
  ?_Release@_ReentrantLock@details@Concurrency@@QEAAXXZ=C:\Windows\System32\concrt140.?_Release@_ReentrantLock@details@Concurrency@@QEAAXXZ
  ?_Release@_ReentrantPPLLock@details@Concurrency@@QEAAXXZ=C:\Windows\System32\concrt140.?_Release@_ReentrantPPLLock@details@Concurrency@@QEAAXXZ
  ?_Release@_Scheduler@details@Concurrency@@QEAAIXZ=C:\Windows\System32\concrt140.?_Release@_Scheduler@details@Concurrency@@QEAAIXZ
  ?_ReleaseRead@_ReaderWriterLock@details@Concurrency@@QEAAXXZ=C:\Windows\System32\concrt140.?_ReleaseRead@_ReaderWriterLock@details@Concurrency@@QEAAXXZ
  ?_ReleaseWrite@_ReaderWriterLock@details@Concurrency@@QEAAXXZ=C:\Windows\System32\concrt140.?_ReleaseWrite@_ReaderWriterLock@details@Concurrency@@QEAAXXZ
  ?_Reset@?$_SpinWait@$00@details@Concurrency@@IEAAXXZ=C:\Windows\System32\concrt140.?_Reset@?$_SpinWait@$00@details@Concurrency@@IEAAXXZ
  ?_Reset@?$_SpinWait@$0A@@details@Concurrency@@IEAAXXZ=C:\Windows\System32\concrt140.?_Reset@?$_SpinWait@$0A@@details@Concurrency@@IEAAXXZ
  ?_RunAndWait@_StructuredTaskCollection@details@Concurrency@@QEAA?AW4_TaskCollectionStatus@23@PEAV_UnrealizedChore@23@@Z=C:\Windows\System32\concrt140.?_RunAndWait@_StructuredTaskCollection@details@Concurrency@@QEAA?AW4_TaskCollectionStatus@23@PEAV_UnrealizedChore@23@@Z
  ?_RunAndWait@_TaskCollection@details@Concurrency@@QEAA?AW4_TaskCollectionStatus@23@PEAV_UnrealizedChore@23@@Z=C:\Windows\System32\concrt140.?_RunAndWait@_TaskCollection@details@Concurrency@@QEAA?AW4_TaskCollectionStatus@23@PEAV_UnrealizedChore@23@@Z
  ?_Schedule@_StructuredTaskCollection@details@Concurrency@@QEAAXPEAV_UnrealizedChore@23@@Z=C:\Windows\System32\concrt140.?_Schedule@_StructuredTaskCollection@details@Concurrency@@QEAAXPEAV_UnrealizedChore@23@@Z
  ?_Schedule@_StructuredTaskCollection@details@Concurrency@@QEAAXPEAV_UnrealizedChore@23@PEAVlocation@3@@Z=C:\Windows\System32\concrt140.?_Schedule@_StructuredTaskCollection@details@Concurrency@@QEAAXPEAV_UnrealizedChore@23@PEAVlocation@3@@Z
  ?_Schedule@_TaskCollection@details@Concurrency@@QEAAXPEAV_UnrealizedChore@23@@Z=C:\Windows\System32\concrt140.?_Schedule@_TaskCollection@details@Concurrency@@QEAAXPEAV_UnrealizedChore@23@@Z
  ?_Schedule@_TaskCollection@details@Concurrency@@QEAAXPEAV_UnrealizedChore@23@PEAVlocation@3@@Z=C:\Windows\System32\concrt140.?_Schedule@_TaskCollection@details@Concurrency@@QEAAXPEAV_UnrealizedChore@23@PEAVlocation@3@@Z
  ?_ScheduleTask@_CurrentScheduler@details@Concurrency@@SAXP6AXPEAX@Z0@Z=C:\Windows\System32\concrt140.?_ScheduleTask@_CurrentScheduler@details@Concurrency@@SAXP6AXPEAX@Z0@Z
  ?_Segment_index_of@_Concurrent_vector_base_v4@details@Concurrency@@KA_K_K@Z=C:\Windows\System32\concrt140.?_Segment_index_of@_Concurrent_vector_base_v4@details@Concurrency@@KA_K_K@Z
  ?_SetSpinCount@?$_SpinWait@$00@details@Concurrency@@QEAAXI@Z=C:\Windows\System32\concrt140.?_SetSpinCount@?$_SpinWait@$00@details@Concurrency@@QEAAXI@Z
  ?_SetSpinCount@?$_SpinWait@$0A@@details@Concurrency@@QEAAXI@Z=C:\Windows\System32\concrt140.?_SetSpinCount@?$_SpinWait@$0A@@details@Concurrency@@QEAAXI@Z
  ?_ShouldSpinAgain@?$_SpinWait@$00@details@Concurrency@@IEAA_NXZ=C:\Windows\System32\concrt140.?_ShouldSpinAgain@?$_SpinWait@$00@details@Concurrency@@IEAA_NXZ
  ?_ShouldSpinAgain@?$_SpinWait@$0A@@details@Concurrency@@IEAA_NXZ=C:\Windows\System32\concrt140.?_ShouldSpinAgain@?$_SpinWait@$0A@@details@Concurrency@@IEAA_NXZ
  ?_SpinOnce@?$_SpinWait@$00@details@Concurrency@@QEAA_NXZ=C:\Windows\System32\concrt140.?_SpinOnce@?$_SpinWait@$00@details@Concurrency@@QEAA_NXZ
  ?_SpinOnce@?$_SpinWait@$0A@@details@Concurrency@@QEAA_NXZ=C:\Windows\System32\concrt140.?_SpinOnce@?$_SpinWait@$0A@@details@Concurrency@@QEAA_NXZ
  ?_SpinYield@Context@Concurrency@@SAXXZ=C:\Windows\System32\concrt140.?_SpinYield@Context@Concurrency@@SAXXZ
  ?_Start@_Timer@details@Concurrency@@IEAAXXZ=C:\Windows\System32\concrt140.?_Start@_Timer@details@Concurrency@@IEAAXXZ
  ?_Stop@_Timer@details@Concurrency@@IEAAXXZ=C:\Windows\System32\concrt140.?_Stop@_Timer@details@Concurrency@@IEAAXXZ
  ?_Trace_agents@Concurrency@@YAXW4Agents_EventType@1@_JZZ=C:\Windows\System32\concrt140.?_Trace_agents@Concurrency@@YAXW4Agents_EventType@1@_JZZ
  ?_Trace_ppl_function@Concurrency@@YAXAEBU_GUID@@EW4ConcRT_EventType@1@@Z=C:\Windows\System32\concrt140.?_Trace_ppl_function@Concurrency@@YAXAEBU_GUID@@EW4ConcRT_EventType@1@@Z
  ?_TryAcquire@_NonReentrantBlockingLock@details@Concurrency@@QEAA_NXZ=C:\Windows\System32\concrt140.?_TryAcquire@_NonReentrantBlockingLock@details@Concurrency@@QEAA_NXZ
  ?_TryAcquire@_ReentrantBlockingLock@details@Concurrency@@QEAA_NXZ=C:\Windows\System32\concrt140.?_TryAcquire@_ReentrantBlockingLock@details@Concurrency@@QEAA_NXZ
  ?_TryAcquire@_ReentrantLock@details@Concurrency@@QEAA_NXZ=C:\Windows\System32\concrt140.?_TryAcquire@_ReentrantLock@details@Concurrency@@QEAA_NXZ
  ?_TryAcquireWrite@_ReaderWriterLock@details@Concurrency@@QEAA_NXZ=C:\Windows\System32\concrt140.?_TryAcquireWrite@_ReaderWriterLock@details@Concurrency@@QEAA_NXZ
  ?_UnderlyingYield@details@Concurrency@@YAXXZ=C:\Windows\System32\concrt140.?_UnderlyingYield@details@Concurrency@@YAXXZ
  ?_Value@_SpinCount@details@Concurrency@@SAIXZ=C:\Windows\System32\concrt140.?_Value@_SpinCount@details@Concurrency@@SAIXZ
  ?_Yield@_Context@details@Concurrency@@SAXXZ=C:\Windows\System32\concrt140.?_Yield@_Context@details@Concurrency@@SAXXZ
  ?cancel@agent@Concurrency@@QEAA_NXZ=C:\Windows\System32\concrt140.?cancel@agent@Concurrency@@QEAA_NXZ
  ?current@location@Concurrency@@SA?AV12@XZ=C:\Windows\System32\concrt140.?current@location@Concurrency@@SA?AV12@XZ
  ?done@agent@Concurrency@@IEAA_NXZ=C:\Windows\System32\concrt140.?done@agent@Concurrency@@IEAA_NXZ
  ?from_numa_node@location@Concurrency@@SA?AV12@G@Z=C:\Windows\System32\concrt140.?from_numa_node@location@Concurrency@@SA?AV12@G@Z
  ?get_error_code@scheduler_resource_allocation_error@Concurrency@@QEBAJXZ=C:\Windows\System32\concrt140.?get_error_code@scheduler_resource_allocation_error@Concurrency@@QEBAJXZ
  ?is_current_task_group_canceling@Concurrency@@YA_NXZ=C:\Windows\System32\concrt140.?is_current_task_group_canceling@Concurrency@@YA_NXZ
  ?lock@critical_section@Concurrency@@QEAAXXZ=C:\Windows\System32\concrt140.?lock@critical_section@Concurrency@@QEAAXXZ
  ?lock@reader_writer_lock@Concurrency@@QEAAXXZ=C:\Windows\System32\concrt140.?lock@reader_writer_lock@Concurrency@@QEAAXXZ
  ?lock_read@reader_writer_lock@Concurrency@@QEAAXXZ=C:\Windows\System32\concrt140.?lock_read@reader_writer_lock@Concurrency@@QEAAXXZ
  ?native_handle@critical_section@Concurrency@@QEAAAEAV12@XZ=C:\Windows\System32\concrt140.?native_handle@critical_section@Concurrency@@QEAAAEAV12@XZ
  ?notify_all@_Condition_variable@details@Concurrency@@QEAAXXZ=C:\Windows\System32\concrt140.?notify_all@_Condition_variable@details@Concurrency@@QEAAXXZ
  ?notify_one@_Condition_variable@details@Concurrency@@QEAAXXZ=C:\Windows\System32\concrt140.?notify_one@_Condition_variable@details@Concurrency@@QEAAXXZ
  ?reset@event@Concurrency@@QEAAXXZ=C:\Windows\System32\concrt140.?reset@event@Concurrency@@QEAAXXZ
  ?set@event@Concurrency@@QEAAXXZ=C:\Windows\System32\concrt140.?set@event@Concurrency@@QEAAXXZ
  ?set_task_execution_resources@Concurrency@@YAXGPEAU_GROUP_AFFINITY@@@Z=C:\Windows\System32\concrt140.?set_task_execution_resources@Concurrency@@YAXGPEAU_GROUP_AFFINITY@@@Z
  ?set_task_execution_resources@Concurrency@@YAX_K@Z=C:\Windows\System32\concrt140.?set_task_execution_resources@Concurrency@@YAX_K@Z
  ?start@agent@Concurrency@@QEAA_NXZ=C:\Windows\System32\concrt140.?start@agent@Concurrency@@QEAA_NXZ
  ?status@agent@Concurrency@@QEAA?AW4agent_status@2@XZ=C:\Windows\System32\concrt140.?status@agent@Concurrency@@QEAA?AW4agent_status@2@XZ
  ?status_port@agent@Concurrency@@QEAAPEAV?$ISource@W4agent_status@Concurrency@@@2@XZ=C:\Windows\System32\concrt140.?status_port@agent@Concurrency@@QEAAPEAV?$ISource@W4agent_status@Concurrency@@@2@XZ
  ?try_lock@critical_section@Concurrency@@QEAA_NXZ=C:\Windows\System32\concrt140.?try_lock@critical_section@Concurrency@@QEAA_NXZ
  ?try_lock@reader_writer_lock@Concurrency@@QEAA_NXZ=C:\Windows\System32\concrt140.?try_lock@reader_writer_lock@Concurrency@@QEAA_NXZ
  ?try_lock_for@critical_section@Concurrency@@QEAA_NI@Z=C:\Windows\System32\concrt140.?try_lock_for@critical_section@Concurrency@@QEAA_NI@Z
  ?try_lock_read@reader_writer_lock@Concurrency@@QEAA_NXZ=C:\Windows\System32\concrt140.?try_lock_read@reader_writer_lock@Concurrency@@QEAA_NXZ
  ?unlock@critical_section@Concurrency@@QEAAXXZ=C:\Windows\System32\concrt140.?unlock@critical_section@Concurrency@@QEAAXXZ
  ?unlock@reader_writer_lock@Concurrency@@QEAAXXZ=C:\Windows\System32\concrt140.?unlock@reader_writer_lock@Concurrency@@QEAAXXZ
  ?wait@Concurrency@@YAXI@Z=C:\Windows\System32\concrt140.?wait@Concurrency@@YAXI@Z
  ?wait@_Condition_variable@details@Concurrency@@QEAAXAEAVcritical_section@3@@Z=C:\Windows\System32\concrt140.?wait@_Condition_variable@details@Concurrency@@QEAAXAEAVcritical_section@3@@Z
  ?wait@agent@Concurrency@@SA?AW4agent_status@2@PEAV12@I@Z=C:\Windows\System32\concrt140.?wait@agent@Concurrency@@SA?AW4agent_status@2@PEAV12@I@Z
  ?wait@event@Concurrency@@QEAA_KI@Z=C:\Windows\System32\concrt140.?wait@event@Concurrency@@QEAA_KI@Z
  ?wait_for@_Condition_variable@details@Concurrency@@QEAA_NAEAVcritical_section@3@I@Z=C:\Windows\System32\concrt140.?wait_for@_Condition_variable@details@Concurrency@@QEAA_NAEAVcritical_section@3@I@Z
  ?wait_for_all@agent@Concurrency@@SAX_KPEAPEAV12@PEAW4agent_status@2@I@Z=C:\Windows\System32\concrt140.?wait_for_all@agent@Concurrency@@SAX_KPEAPEAV12@PEAW4agent_status@2@I@Z
  ?wait_for_multiple@event@Concurrency@@SA_KPEAPEAV12@_K_NI@Z=C:\Windows\System32\concrt140.?wait_for_multiple@event@Concurrency@@SA_KPEAPEAV12@_K_NI@Z
  ?wait_for_one@agent@Concurrency@@SAX_KPEAPEAV12@AEAW4agent_status@2@AEA_KI@Z=C:\Windows\System32\concrt140.?wait_for_one@agent@Concurrency@@SAX_KPEAPEAV12@AEAW4agent_status@2@AEA_KI@Z
