EXPORTS
  ??0CDynLib@@IEAA@XZ=C:\Windows\System32\migisol.??0CDynLib@@IEAA@XZ
  ??0CIlAdvapi32@@QEAA@$$QEAV0@@Z=C:\Windows\System32\migisol.??0CIlAdvapi32@@QEAA@$$QEAV0@@Z
  ??0CIlAdvapi32@@QEAA@AEBV0@@Z=C:\Windows\System32\migisol.??0CIlAdvapi32@@QEAA@AEBV0@@Z
  ??0CIlAdvapi32@@QEAA@XZ=C:\Windows\System32\migisol.??0CIlAdvapi32@@QEAA@XZ
  ??0CIlDeplorch@@QEAA@$$QEAV0@@Z=C:\Windows\System32\migisol.??0CIlDeplorch@@QEAA@$$QEAV0@@Z
  ??0CIlDeplorch@@QEAA@AEBV0@@Z=C:\Windows\System32\migisol.??0CIlDeplorch@@QEAA@AEBV0@@Z
  ??0CIlDeplorch@@QEAA@XZ=C:\Windows\System32\migisol.??0CIlDeplorch@@QEAA@XZ
  ??0CIlIphlpapi@@QEAA@$$QEAV0@@Z=C:\Windows\System32\migisol.??0CIlIphlpapi@@QEAA@$$QEAV0@@Z
  ??0CIlIphlpapi@@QEAA@AEBV0@@Z=C:\Windows\System32\migisol.??0CIlIphlpapi@@QEAA@AEBV0@@Z
  ??0CIlIphlpapi@@QEAA@XZ=C:\Windows\System32\migisol.??0CIlIphlpapi@@QEAA@XZ
  ??0CIlKernel32@@QEAA@AEBV0@@Z=C:\Windows\System32\migisol.??0CIlKernel32@@QEAA@AEBV0@@Z
  ??0CIlKernel32@@QEAA@XZ=C:\Windows\System32\migisol.??0CIlKernel32@@QEAA@XZ
  ??0CIlMuisetupapi@@QEAA@$$QEAV0@@Z=C:\Windows\System32\migisol.??0CIlMuisetupapi@@QEAA@$$QEAV0@@Z
  ??0CIlMuisetupapi@@QEAA@AEBV0@@Z=C:\Windows\System32\migisol.??0CIlMuisetupapi@@QEAA@AEBV0@@Z
  ??0CIlMuisetupapi@@QEAA@XZ=C:\Windows\System32\migisol.??0CIlMuisetupapi@@QEAA@XZ
  ??0CIlNt4Advapi32@@QEAA@$$QEAV0@@Z=C:\Windows\System32\migisol.??0CIlNt4Advapi32@@QEAA@$$QEAV0@@Z
  ??0CIlNt4Advapi32@@QEAA@AEBV0@@Z=C:\Windows\System32\migisol.??0CIlNt4Advapi32@@QEAA@AEBV0@@Z
  ??0CIlNt4Advapi32@@QEAA@XZ=C:\Windows\System32\migisol.??0CIlNt4Advapi32@@QEAA@XZ
  ??0CIlNt4Kernel32@@QEAA@$$QEAV0@@Z=C:\Windows\System32\migisol.??0CIlNt4Kernel32@@QEAA@$$QEAV0@@Z
  ??0CIlNt4Kernel32@@QEAA@AEBV0@@Z=C:\Windows\System32\migisol.??0CIlNt4Kernel32@@QEAA@AEBV0@@Z
  ??0CIlNt4Kernel32@@QEAA@XZ=C:\Windows\System32\migisol.??0CIlNt4Kernel32@@QEAA@XZ
  ??0CIlNt4Netapi32@@QEAA@$$QEAV0@@Z=C:\Windows\System32\migisol.??0CIlNt4Netapi32@@QEAA@$$QEAV0@@Z
  ??0CIlNt4Netapi32@@QEAA@AEBV0@@Z=C:\Windows\System32\migisol.??0CIlNt4Netapi32@@QEAA@AEBV0@@Z
  ??0CIlNt4Netapi32@@QEAA@XZ=C:\Windows\System32\migisol.??0CIlNt4Netapi32@@QEAA@XZ
  ??0CIlNt4Setupapi@@QEAA@$$QEAV0@@Z=C:\Windows\System32\migisol.??0CIlNt4Setupapi@@QEAA@$$QEAV0@@Z
  ??0CIlNt4Setupapi@@QEAA@AEBV0@@Z=C:\Windows\System32\migisol.??0CIlNt4Setupapi@@QEAA@AEBV0@@Z
  ??0CIlNt4Setupapi@@QEAA@XZ=C:\Windows\System32\migisol.??0CIlNt4Setupapi@@QEAA@XZ
  ??0CIlNt4User32@@QEAA@$$QEAV0@@Z=C:\Windows\System32\migisol.??0CIlNt4User32@@QEAA@$$QEAV0@@Z
  ??0CIlNt4User32@@QEAA@AEBV0@@Z=C:\Windows\System32\migisol.??0CIlNt4User32@@QEAA@AEBV0@@Z
  ??0CIlNt4User32@@QEAA@XZ=C:\Windows\System32\migisol.??0CIlNt4User32@@QEAA@XZ
  ??0CIlNt4Userenv@@QEAA@$$QEAV0@@Z=C:\Windows\System32\migisol.??0CIlNt4Userenv@@QEAA@$$QEAV0@@Z
  ??0CIlNt4Userenv@@QEAA@AEBV0@@Z=C:\Windows\System32\migisol.??0CIlNt4Userenv@@QEAA@AEBV0@@Z
  ??0CIlNt4Userenv@@QEAA@XZ=C:\Windows\System32\migisol.??0CIlNt4Userenv@@QEAA@XZ
  ??0CIlNt6Userenv@@QEAA@$$QEAV0@@Z=C:\Windows\System32\migisol.??0CIlNt6Userenv@@QEAA@$$QEAV0@@Z
  ??0CIlNt6Userenv@@QEAA@AEBV0@@Z=C:\Windows\System32\migisol.??0CIlNt6Userenv@@QEAA@AEBV0@@Z
  ??0CIlNt6Userenv@@QEAA@XZ=C:\Windows\System32\migisol.??0CIlNt6Userenv@@QEAA@XZ
  ??0CIlOle32@@QEAA@$$QEAV0@@Z=C:\Windows\System32\migisol.??0CIlOle32@@QEAA@$$QEAV0@@Z
  ??0CIlOle32@@QEAA@AEBV0@@Z=C:\Windows\System32\migisol.??0CIlOle32@@QEAA@AEBV0@@Z
  ??0CIlOle32@@QEAA@XZ=C:\Windows\System32\migisol.??0CIlOle32@@QEAA@XZ
  ??0CIlOleaut32@@QEAA@$$QEAV0@@Z=C:\Windows\System32\migisol.??0CIlOleaut32@@QEAA@$$QEAV0@@Z
  ??0CIlOleaut32@@QEAA@AEBV0@@Z=C:\Windows\System32\migisol.??0CIlOleaut32@@QEAA@AEBV0@@Z
  ??0CIlOleaut32@@QEAA@XZ=C:\Windows\System32\migisol.??0CIlOleaut32@@QEAA@XZ
  ??0CIlSetupapi@@QEAA@$$QEAV0@@Z=C:\Windows\System32\migisol.??0CIlSetupapi@@QEAA@$$QEAV0@@Z
  ??0CIlSetupapi@@QEAA@AEBV0@@Z=C:\Windows\System32\migisol.??0CIlSetupapi@@QEAA@AEBV0@@Z
  ??0CIlSetupapi@@QEAA@XZ=C:\Windows\System32\migisol.??0CIlSetupapi@@QEAA@XZ
  ??0CIlShell32@@QEAA@$$QEAV0@@Z=C:\Windows\System32\migisol.??0CIlShell32@@QEAA@$$QEAV0@@Z
  ??0CIlShell32@@QEAA@AEBV0@@Z=C:\Windows\System32\migisol.??0CIlShell32@@QEAA@AEBV0@@Z
  ??0CIlShell32@@QEAA@XZ=C:\Windows\System32\migisol.??0CIlShell32@@QEAA@XZ
  ??0CIlUser32@@QEAA@$$QEAV0@@Z=C:\Windows\System32\migisol.??0CIlUser32@@QEAA@$$QEAV0@@Z
  ??0CIlUser32@@QEAA@AEBV0@@Z=C:\Windows\System32\migisol.??0CIlUser32@@QEAA@AEBV0@@Z
  ??0CIlUser32@@QEAA@XZ=C:\Windows\System32\migisol.??0CIlUser32@@QEAA@XZ
  ??0CIlVersion@@QEAA@$$QEAV0@@Z=C:\Windows\System32\migisol.??0CIlVersion@@QEAA@$$QEAV0@@Z
  ??0CIlVersion@@QEAA@AEBV0@@Z=C:\Windows\System32\migisol.??0CIlVersion@@QEAA@AEBV0@@Z
  ??0CIlVersion@@QEAA@XZ=C:\Windows\System32\migisol.??0CIlVersion@@QEAA@XZ
  ??0CIlW2kDynWs2_32@@QEAA@$$QEAV0@@Z=C:\Windows\System32\migisol.??0CIlW2kDynWs2_32@@QEAA@$$QEAV0@@Z
  ??0CIlW2kDynWs2_32@@QEAA@AEBV0@@Z=C:\Windows\System32\migisol.??0CIlW2kDynWs2_32@@QEAA@AEBV0@@Z
  ??0CIlW2kDynWs2_32@@QEAA@XZ=C:\Windows\System32\migisol.??0CIlW2kDynWs2_32@@QEAA@XZ
  ??0CIlWimgapi@@QEAA@$$QEAV0@@Z=C:\Windows\System32\migisol.??0CIlWimgapi@@QEAA@$$QEAV0@@Z
  ??0CIlWimgapi@@QEAA@AEBV0@@Z=C:\Windows\System32\migisol.??0CIlWimgapi@@QEAA@AEBV0@@Z
  ??0CIlWimgapi@@QEAA@XZ=C:\Windows\System32\migisol.??0CIlWimgapi@@QEAA@XZ
  ??0CIlWs2_32@@QEAA@$$QEAV0@@Z=C:\Windows\System32\migisol.??0CIlWs2_32@@QEAA@$$QEAV0@@Z
  ??0CIlWs2_32@@QEAA@AEBV0@@Z=C:\Windows\System32\migisol.??0CIlWs2_32@@QEAA@AEBV0@@Z
  ??0CIlWs2_32@@QEAA@XZ=C:\Windows\System32\migisol.??0CIlWs2_32@@QEAA@XZ
  ??1CIlKernel32@@QEAA@XZ=C:\Windows\System32\migisol.??1CIlKernel32@@QEAA@XZ
  ??4CDynLib@@QEAAAEAV0@$$QEAV0@@Z=C:\Windows\System32\migisol.??4CDynLib@@QEAAAEAV0@$$QEAV0@@Z
  ??4CDynLib@@QEAAAEAV0@AEBV0@@Z=C:\Windows\System32\migisol.??4CDynLib@@QEAAAEAV0@AEBV0@@Z
  ??4CIlAdvapi32@@QEAAAEAV0@$$QEAV0@@Z=C:\Windows\System32\migisol.??4CIlAdvapi32@@QEAAAEAV0@$$QEAV0@@Z
  ??4CIlAdvapi32@@QEAAAEAV0@AEBV0@@Z=C:\Windows\System32\migisol.??4CIlAdvapi32@@QEAAAEAV0@AEBV0@@Z
  ??4CIlDeplorch@@QEAAAEAV0@$$QEAV0@@Z=C:\Windows\System32\migisol.??4CIlDeplorch@@QEAAAEAV0@$$QEAV0@@Z
  ??4CIlDeplorch@@QEAAAEAV0@AEBV0@@Z=C:\Windows\System32\migisol.??4CIlDeplorch@@QEAAAEAV0@AEBV0@@Z
  ??4CIlIphlpapi@@QEAAAEAV0@$$QEAV0@@Z=C:\Windows\System32\migisol.??4CIlIphlpapi@@QEAAAEAV0@$$QEAV0@@Z
  ??4CIlIphlpapi@@QEAAAEAV0@AEBV0@@Z=C:\Windows\System32\migisol.??4CIlIphlpapi@@QEAAAEAV0@AEBV0@@Z
  ??4CIlKernel32@@QEAAAEAV0@AEBV0@@Z=C:\Windows\System32\migisol.??4CIlKernel32@@QEAAAEAV0@AEBV0@@Z
  ??4CIlMuisetupapi@@QEAAAEAV0@$$QEAV0@@Z=C:\Windows\System32\migisol.??4CIlMuisetupapi@@QEAAAEAV0@$$QEAV0@@Z
  ??4CIlMuisetupapi@@QEAAAEAV0@AEBV0@@Z=C:\Windows\System32\migisol.??4CIlMuisetupapi@@QEAAAEAV0@AEBV0@@Z
  ??4CIlNt4Advapi32@@QEAAAEAV0@$$QEAV0@@Z=C:\Windows\System32\migisol.??4CIlNt4Advapi32@@QEAAAEAV0@$$QEAV0@@Z
  ??4CIlNt4Advapi32@@QEAAAEAV0@AEBV0@@Z=C:\Windows\System32\migisol.??4CIlNt4Advapi32@@QEAAAEAV0@AEBV0@@Z
  ??4CIlNt4Kernel32@@QEAAAEAV0@$$QEAV0@@Z=C:\Windows\System32\migisol.??4CIlNt4Kernel32@@QEAAAEAV0@$$QEAV0@@Z
  ??4CIlNt4Kernel32@@QEAAAEAV0@AEBV0@@Z=C:\Windows\System32\migisol.??4CIlNt4Kernel32@@QEAAAEAV0@AEBV0@@Z
  ??4CIlNt4Netapi32@@QEAAAEAV0@$$QEAV0@@Z=C:\Windows\System32\migisol.??4CIlNt4Netapi32@@QEAAAEAV0@$$QEAV0@@Z
  ??4CIlNt4Netapi32@@QEAAAEAV0@AEBV0@@Z=C:\Windows\System32\migisol.??4CIlNt4Netapi32@@QEAAAEAV0@AEBV0@@Z
  ??4CIlNt4Setupapi@@QEAAAEAV0@$$QEAV0@@Z=C:\Windows\System32\migisol.??4CIlNt4Setupapi@@QEAAAEAV0@$$QEAV0@@Z
  ??4CIlNt4Setupapi@@QEAAAEAV0@AEBV0@@Z=C:\Windows\System32\migisol.??4CIlNt4Setupapi@@QEAAAEAV0@AEBV0@@Z
  ??4CIlNt4User32@@QEAAAEAV0@$$QEAV0@@Z=C:\Windows\System32\migisol.??4CIlNt4User32@@QEAAAEAV0@$$QEAV0@@Z
  ??4CIlNt4User32@@QEAAAEAV0@AEBV0@@Z=C:\Windows\System32\migisol.??4CIlNt4User32@@QEAAAEAV0@AEBV0@@Z
  ??4CIlNt4Userenv@@QEAAAEAV0@$$QEAV0@@Z=C:\Windows\System32\migisol.??4CIlNt4Userenv@@QEAAAEAV0@$$QEAV0@@Z
  ??4CIlNt4Userenv@@QEAAAEAV0@AEBV0@@Z=C:\Windows\System32\migisol.??4CIlNt4Userenv@@QEAAAEAV0@AEBV0@@Z
  ??4CIlNt6Userenv@@QEAAAEAV0@$$QEAV0@@Z=C:\Windows\System32\migisol.??4CIlNt6Userenv@@QEAAAEAV0@$$QEAV0@@Z
  ??4CIlNt6Userenv@@QEAAAEAV0@AEBV0@@Z=C:\Windows\System32\migisol.??4CIlNt6Userenv@@QEAAAEAV0@AEBV0@@Z
  ??4CIlOle32@@QEAAAEAV0@$$QEAV0@@Z=C:\Windows\System32\migisol.??4CIlOle32@@QEAAAEAV0@$$QEAV0@@Z
  ??4CIlOle32@@QEAAAEAV0@AEBV0@@Z=C:\Windows\System32\migisol.??4CIlOle32@@QEAAAEAV0@AEBV0@@Z
  ??4CIlOleaut32@@QEAAAEAV0@$$QEAV0@@Z=C:\Windows\System32\migisol.??4CIlOleaut32@@QEAAAEAV0@$$QEAV0@@Z
  ??4CIlOleaut32@@QEAAAEAV0@AEBV0@@Z=C:\Windows\System32\migisol.??4CIlOleaut32@@QEAAAEAV0@AEBV0@@Z
  ??4CIlSetupapi@@QEAAAEAV0@$$QEAV0@@Z=C:\Windows\System32\migisol.??4CIlSetupapi@@QEAAAEAV0@$$QEAV0@@Z
  ??4CIlSetupapi@@QEAAAEAV0@AEBV0@@Z=C:\Windows\System32\migisol.??4CIlSetupapi@@QEAAAEAV0@AEBV0@@Z
  ??4CIlShell32@@QEAAAEAV0@$$QEAV0@@Z=C:\Windows\System32\migisol.??4CIlShell32@@QEAAAEAV0@$$QEAV0@@Z
  ??4CIlShell32@@QEAAAEAV0@AEBV0@@Z=C:\Windows\System32\migisol.??4CIlShell32@@QEAAAEAV0@AEBV0@@Z
  ??4CIlUser32@@QEAAAEAV0@$$QEAV0@@Z=C:\Windows\System32\migisol.??4CIlUser32@@QEAAAEAV0@$$QEAV0@@Z
  ??4CIlUser32@@QEAAAEAV0@AEBV0@@Z=C:\Windows\System32\migisol.??4CIlUser32@@QEAAAEAV0@AEBV0@@Z
  ??4CIlVersion@@QEAAAEAV0@$$QEAV0@@Z=C:\Windows\System32\migisol.??4CIlVersion@@QEAAAEAV0@$$QEAV0@@Z
  ??4CIlVersion@@QEAAAEAV0@AEBV0@@Z=C:\Windows\System32\migisol.??4CIlVersion@@QEAAAEAV0@AEBV0@@Z
  ??4CIlW2kDynWs2_32@@QEAAAEAV0@$$QEAV0@@Z=C:\Windows\System32\migisol.??4CIlW2kDynWs2_32@@QEAAAEAV0@$$QEAV0@@Z
  ??4CIlW2kDynWs2_32@@QEAAAEAV0@AEBV0@@Z=C:\Windows\System32\migisol.??4CIlW2kDynWs2_32@@QEAAAEAV0@AEBV0@@Z
  ??4CIlWimgapi@@QEAAAEAV0@$$QEAV0@@Z=C:\Windows\System32\migisol.??4CIlWimgapi@@QEAAAEAV0@$$QEAV0@@Z
  ??4CIlWimgapi@@QEAAAEAV0@AEBV0@@Z=C:\Windows\System32\migisol.??4CIlWimgapi@@QEAAAEAV0@AEBV0@@Z
  ??4CIlWs2_32@@QEAAAEAV0@$$QEAV0@@Z=C:\Windows\System32\migisol.??4CIlWs2_32@@QEAAAEAV0@$$QEAV0@@Z
  ??4CIlWs2_32@@QEAAAEAV0@AEBV0@@Z=C:\Windows\System32\migisol.??4CIlWs2_32@@QEAAAEAV0@AEBV0@@Z
  ??_7CIlAdvapi32@@6B@=C:\Windows\System32\migisol.??_7CIlAdvapi32@@6B@
  ??_7CIlDeplorch@@6B@=C:\Windows\System32\migisol.??_7CIlDeplorch@@6B@
  ??_7CIlIphlpapi@@6B@=C:\Windows\System32\migisol.??_7CIlIphlpapi@@6B@
  ??_7CIlKernel32@@6B@=C:\Windows\System32\migisol.??_7CIlKernel32@@6B@
  ??_7CIlMuisetupapi@@6B@=C:\Windows\System32\migisol.??_7CIlMuisetupapi@@6B@
  ??_7CIlNt4Advapi32@@6B@=C:\Windows\System32\migisol.??_7CIlNt4Advapi32@@6B@
  ??_7CIlNt4Kernel32@@6B@=C:\Windows\System32\migisol.??_7CIlNt4Kernel32@@6B@
  ??_7CIlNt4Netapi32@@6B@=C:\Windows\System32\migisol.??_7CIlNt4Netapi32@@6B@
  ??_7CIlNt4Setupapi@@6B@=C:\Windows\System32\migisol.??_7CIlNt4Setupapi@@6B@
  ??_7CIlNt4User32@@6B@=C:\Windows\System32\migisol.??_7CIlNt4User32@@6B@
  ??_7CIlNt4Userenv@@6B@=C:\Windows\System32\migisol.??_7CIlNt4Userenv@@6B@
  ??_7CIlNt6Userenv@@6B@=C:\Windows\System32\migisol.??_7CIlNt6Userenv@@6B@
  ??_7CIlOle32@@6B@=C:\Windows\System32\migisol.??_7CIlOle32@@6B@
  ??_7CIlOleaut32@@6B@=C:\Windows\System32\migisol.??_7CIlOleaut32@@6B@
  ??_7CIlSetupapi@@6B@=C:\Windows\System32\migisol.??_7CIlSetupapi@@6B@
  ??_7CIlShell32@@6B@=C:\Windows\System32\migisol.??_7CIlShell32@@6B@
  ??_7CIlUser32@@6B@=C:\Windows\System32\migisol.??_7CIlUser32@@6B@
  ??_7CIlVersion@@6B@=C:\Windows\System32\migisol.??_7CIlVersion@@6B@
  ??_7CIlW2kDynWs2_32@@6B@=C:\Windows\System32\migisol.??_7CIlW2kDynWs2_32@@6B@
  ??_7CIlWimgapi@@6B@=C:\Windows\System32\migisol.??_7CIlWimgapi@@6B@
  ??_7CIlWs2_32@@6B@=C:\Windows\System32\migisol.??_7CIlWs2_32@@6B@
  ?AdjustTokenPrivileges@CIlAdvapi32@@UEAAHPEAXHPEAU_TOKEN_PRIVILEGES@@K1PEAK@Z=C:\Windows\System32\migisol.?AdjustTokenPrivileges@CIlAdvapi32@@UEAAHPEAXHPEAU_TOKEN_PRIVILEGES@@K1PEAK@Z
  ?AllocateAndInitializeSid@CIlAdvapi32@@UEAAHPEAU_SID_IDENTIFIER_AUTHORITY@@EKKKKKKKKPEAPEAX@Z=C:\Windows\System32\migisol.?AllocateAndInitializeSid@CIlAdvapi32@@UEAAHPEAU_SID_IDENTIFIER_AUTHORITY@@EKKKKKKKKPEAPEAX@Z
  ?ChangeServiceConfigW@CIlNt4Advapi32@@UEAAHPEAUSC_HANDLE__@@KKKPEBG1PEAK1111@Z=C:\Windows\System32\migisol.?ChangeServiceConfigW@CIlNt4Advapi32@@UEAAHPEAUSC_HANDLE__@@KKKPEBG1PEAK1111@Z
  ?CloseHandle@CIlKernel32@@UEAAHPEAX@Z=C:\Windows\System32\migisol.?CloseHandle@CIlKernel32@@UEAAHPEAX@Z
  ?CloseServiceHandle@CIlNt4Advapi32@@UEAAHPEAUSC_HANDLE__@@@Z=C:\Windows\System32\migisol.?CloseServiceHandle@CIlNt4Advapi32@@UEAAHPEAUSC_HANDLE__@@@Z
  ?CoCreateInstance@CIlOle32@@UEAAJAEBU_GUID@@PEAUIUnknown@@K0PEAPEAX@Z=C:\Windows\System32\migisol.?CoCreateInstance@CIlOle32@@UEAAJAEBU_GUID@@PEAUIUnknown@@K0PEAPEAX@Z
  ?CoInitialize@CIlOle32@@UEAAJPEAX@Z=C:\Windows\System32\migisol.?CoInitialize@CIlOle32@@UEAAJPEAX@Z
  ?CoInitializeEx@CIlOle32@@UEAAJPEAXK@Z=C:\Windows\System32\migisol.?CoInitializeEx@CIlOle32@@UEAAJPEAXK@Z
  ?CoTaskMemAlloc@CIlOle32@@UEAAPEAX_K@Z=C:\Windows\System32\migisol.?CoTaskMemAlloc@CIlOle32@@UEAAPEAX_K@Z
  ?CoTaskMemFree@CIlOle32@@UEAAXPEAX@Z=C:\Windows\System32\migisol.?CoTaskMemFree@CIlOle32@@UEAAXPEAX@Z
  ?CoUninitialize@CIlOle32@@UEAAXXZ=C:\Windows\System32\migisol.?CoUninitialize@CIlOle32@@UEAAXXZ
  ?ConvertSecurityDescriptorToStringSecurityDescriptorW@CIlNt4Advapi32@@UEAAHPEAXKKPEAPEAGPEAK@Z=C:\Windows\System32\migisol.?ConvertSecurityDescriptorToStringSecurityDescriptorW@CIlNt4Advapi32@@UEAAHPEAXKKPEAPEAGPEAK@Z
  ?ConvertSidToStringSidW@CIlNt4Advapi32@@UEAAHPEAXPEAPEAG@Z=C:\Windows\System32\migisol.?ConvertSidToStringSidW@CIlNt4Advapi32@@UEAAHPEAXPEAPEAG@Z
  ?ConvertStringSecurityDescriptorToSecurityDescriptorW@CIlNt4Advapi32@@UEAAHPEBGKPEAPEAXPEAK@Z=C:\Windows\System32\migisol.?ConvertStringSecurityDescriptorToSecurityDescriptorW@CIlNt4Advapi32@@UEAAHPEBGKPEAPEAXPEAK@Z
  ?ConvertStringSidToSidW@CIlNt4Advapi32@@UEAAHPEAGPEAPEAX@Z=C:\Windows\System32\migisol.?ConvertStringSidToSidW@CIlNt4Advapi32@@UEAAHPEAGPEAPEAX@Z
  ?CopyFileW@CIlKernel32@@UEAAHPEBG0H@Z=C:\Windows\System32\migisol.?CopyFileW@CIlKernel32@@UEAAHPEBG0H@Z
  ?CreateDirectoryW@CIlKernel32@@UEAAHPEBGPEAU_SECURITY_ATTRIBUTES@@@Z=C:\Windows\System32\migisol.?CreateDirectoryW@CIlKernel32@@UEAAHPEBGPEAU_SECURITY_ATTRIBUTES@@@Z
  ?CreateEventW@CIlKernel32@@UEAAPEAXPEAU_SECURITY_ATTRIBUTES@@HHPEBG@Z=C:\Windows\System32\migisol.?CreateEventW@CIlKernel32@@UEAAPEAXPEAU_SECURITY_ATTRIBUTES@@HHPEBG@Z
  ?CreateFileMappingW@CIlKernel32@@UEAAPEAXPEAXPEAU_SECURITY_ATTRIBUTES@@KKKPEBG@Z=C:\Windows\System32\migisol.?CreateFileMappingW@CIlKernel32@@UEAAPEAXPEAXPEAU_SECURITY_ATTRIBUTES@@KKKPEBG@Z
  ?CreateFileW@CIlKernel32@@UEAAPEAXPEBGKKPEAU_SECURITY_ATTRIBUTES@@KKPEAX@Z=C:\Windows\System32\migisol.?CreateFileW@CIlKernel32@@UEAAPEAXPEBGKKPEAU_SECURITY_ATTRIBUTES@@KKPEAX@Z
  ?CreateProcessA@CIlKernel32@@UEAAHPEBDPEADPEAU_SECURITY_ATTRIBUTES@@2HKPEAX0PEAU_STARTUPINFOA@@PEAU_PROCESS_INFORMATION@@@Z=C:\Windows\System32\migisol.?CreateProcessA@CIlKernel32@@UEAAHPEBDPEADPEAU_SECURITY_ATTRIBUTES@@2HKPEAX0PEAU_STARTUPINFOA@@PEAU_PROCESS_INFORMATION@@@Z
  ?CreateProcessW@CIlKernel32@@UEAAHPEBGPEAGPEAU_SECURITY_ATTRIBUTES@@2HKPEAX0PEAU_STARTUPINFOW@@PEAU_PROCESS_INFORMATION@@@Z=C:\Windows\System32\migisol.?CreateProcessW@CIlKernel32@@UEAAHPEBGPEAGPEAU_SECURITY_ATTRIBUTES@@2HKPEAX0PEAU_STARTUPINFOW@@PEAU_PROCESS_INFORMATION@@@Z
  ?CreateProfile@CIlNt6Userenv@@UEAAJPEBG0PEAGK@Z=C:\Windows\System32\migisol.?CreateProfile@CIlNt6Userenv@@UEAAJPEBG0PEAGK@Z
  ?CreateServiceW@CIlNt4Advapi32@@UEAAPEAUSC_HANDLE__@@PEAU2@PEBG1KKKK11PEAK111@Z=C:\Windows\System32\migisol.?CreateServiceW@CIlNt4Advapi32@@UEAAPEAUSC_HANDLE__@@PEAU2@PEBG1KKKK11PEAK111@Z
  ?CreateStreamOnHGlobal@CIlOle32@@UEAAJPEAXHPEAPEAUIStream@@@Z=C:\Windows\System32\migisol.?CreateStreamOnHGlobal@CIlOle32@@UEAAJPEAXHPEAPEAUIStream@@@Z
  ?CreateThread@CIlKernel32@@UEAAPEAXPEAU_SECURITY_ATTRIBUTES@@_KP6AKPEAX@Z2KPEAK@Z=C:\Windows\System32\migisol.?CreateThread@CIlKernel32@@UEAAPEAXPEAU_SECURITY_ATTRIBUTES@@_KP6AKPEAX@Z2KPEAK@Z
  ?CreateToolhelp32Snapshot@CIlNt4Kernel32@@UEAAPEAXKK@Z=C:\Windows\System32\migisol.?CreateToolhelp32Snapshot@CIlNt4Kernel32@@UEAAPEAXKK@Z
  ?CreateUserProfileExW@CIlNt4Userenv@@UEAAHPEAXPEBG1PEAGKH@Z=C:\Windows\System32\migisol.?CreateUserProfileExW@CIlNt4Userenv@@UEAAHPEAXPEBG1PEAGKH@Z
  ?CreateWellKnownSid@CIlNt4Advapi32@@UEAAHW4WELL_KNOWN_SID_TYPE@@PEAX1PEAK@Z=C:\Windows\System32\migisol.?CreateWellKnownSid@CIlNt4Advapi32@@UEAAHW4WELL_KNOWN_SID_TYPE@@PEAX1PEAK@Z
  ?CryptAcquireContextW@CIlAdvapi32@@UEAAHPEA_KPEBG1KK@Z=C:\Windows\System32\migisol.?CryptAcquireContextW@CIlAdvapi32@@UEAAHPEA_KPEBG1KK@Z
  ?CryptCreateHash@CIlAdvapi32@@UEAAH_KI0KPEA_K@Z=C:\Windows\System32\migisol.?CryptCreateHash@CIlAdvapi32@@UEAAH_KI0KPEA_K@Z
  ?CryptDecrypt@CIlAdvapi32@@UEAAH_K0HKPEAEPEAK@Z=C:\Windows\System32\migisol.?CryptDecrypt@CIlAdvapi32@@UEAAH_K0HKPEAEPEAK@Z
  ?CryptDeriveKey@CIlAdvapi32@@UEAAH_KI0KPEA_K@Z=C:\Windows\System32\migisol.?CryptDeriveKey@CIlAdvapi32@@UEAAH_KI0KPEA_K@Z
  ?CryptDestroyHash@CIlAdvapi32@@UEAAH_K@Z=C:\Windows\System32\migisol.?CryptDestroyHash@CIlAdvapi32@@UEAAH_K@Z
  ?CryptDestroyKey@CIlAdvapi32@@UEAAH_K@Z=C:\Windows\System32\migisol.?CryptDestroyKey@CIlAdvapi32@@UEAAH_K@Z
  ?CryptDuplicateHash@CIlAdvapi32@@UEAAH_KPEAKKPEA_K@Z=C:\Windows\System32\migisol.?CryptDuplicateHash@CIlAdvapi32@@UEAAH_KPEAKKPEA_K@Z
  ?CryptDuplicateKey@CIlAdvapi32@@UEAAH_KPEAKKPEA_K@Z=C:\Windows\System32\migisol.?CryptDuplicateKey@CIlAdvapi32@@UEAAH_KPEAKKPEA_K@Z
  ?CryptEncrypt@CIlAdvapi32@@UEAAH_K0HKPEAEPEAKK@Z=C:\Windows\System32\migisol.?CryptEncrypt@CIlAdvapi32@@UEAAH_K0HKPEAEPEAKK@Z
  ?CryptGenRandom@CIlAdvapi32@@UEAAH_KKPEAE@Z=C:\Windows\System32\migisol.?CryptGenRandom@CIlAdvapi32@@UEAAH_KKPEAE@Z
  ?CryptGetHashParam@CIlAdvapi32@@UEAAH_KKPEAEPEAKK@Z=C:\Windows\System32\migisol.?CryptGetHashParam@CIlAdvapi32@@UEAAH_KKPEAEPEAKK@Z
  ?CryptGetKeyParam@CIlAdvapi32@@UEAAH_KKPEAEPEAKK@Z=C:\Windows\System32\migisol.?CryptGetKeyParam@CIlAdvapi32@@UEAAH_KKPEAEPEAKK@Z
  ?CryptHashData@CIlAdvapi32@@UEAAH_KPEBEKK@Z=C:\Windows\System32\migisol.?CryptHashData@CIlAdvapi32@@UEAAH_KPEBEKK@Z
  ?CryptReleaseContext@CIlAdvapi32@@UEAAH_KK@Z=C:\Windows\System32\migisol.?CryptReleaseContext@CIlAdvapi32@@UEAAH_KK@Z
  ?CryptSetKeyParam@CIlAdvapi32@@UEAAH_KKPEBEK@Z=C:\Windows\System32\migisol.?CryptSetKeyParam@CIlAdvapi32@@UEAAH_KKPEBEK@Z
  ?DebugBreak@CIlKernel32@@UEAAXXZ=C:\Windows\System32\migisol.?DebugBreak@CIlKernel32@@UEAAXXZ
  ?DeleteCriticalSection@CIlKernel32@@UEAAXPEAU_RTL_CRITICAL_SECTION@@@Z=C:\Windows\System32\migisol.?DeleteCriticalSection@CIlKernel32@@UEAAXPEAU_RTL_CRITICAL_SECTION@@@Z
  ?DeleteFileW@CIlKernel32@@UEAAHPEBG@Z=C:\Windows\System32\migisol.?DeleteFileW@CIlKernel32@@UEAAHPEBG@Z
  ?DuplicateHandle@CIlKernel32@@UEAAHPEAX00PEAPEAXKHK@Z=C:\Windows\System32\migisol.?DuplicateHandle@CIlKernel32@@UEAAHPEAX00PEAPEAXKHK@Z
  ?EncryptFileW@CIlNt4Advapi32@@UEAAHPEBG@Z=C:\Windows\System32\migisol.?EncryptFileW@CIlNt4Advapi32@@UEAAHPEBG@Z
  ?EnterCriticalSection@CIlKernel32@@UEAAXPEAU_RTL_CRITICAL_SECTION@@@Z=C:\Windows\System32\migisol.?EnterCriticalSection@CIlKernel32@@UEAAXPEAU_RTL_CRITICAL_SECTION@@@Z
  ?EnumServicesStatusExW@CIlNt4Advapi32@@UEAAHPEAUSC_HANDLE__@@W4_SC_ENUM_TYPE@@KKPEAEKPEAK33PEBG@Z=C:\Windows\System32\migisol.?EnumServicesStatusExW@CIlNt4Advapi32@@UEAAHPEAUSC_HANDLE__@@W4_SC_ENUM_TYPE@@KKPEAEKPEAK33PEBG@Z
  ?EqualSid@CIlAdvapi32@@UEAAHPEAX0@Z=C:\Windows\System32\migisol.?EqualSid@CIlAdvapi32@@UEAAHPEAX0@Z
  ?ExitProcess@CIlKernel32@@UEAAXI@Z=C:\Windows\System32\migisol.?ExitProcess@CIlKernel32@@UEAAXI@Z
  ?ExpandEnvironmentStringsW@CIlKernel32@@UEAAKPEBGPEAGK@Z=C:\Windows\System32\migisol.?ExpandEnvironmentStringsW@CIlKernel32@@UEAAKPEBGPEAGK@Z
  ?ExtractIconExW@CIlShell32@@UEAAIPEBGHPEAPEAUHICON__@@1I@Z=C:\Windows\System32\migisol.?ExtractIconExW@CIlShell32@@UEAAIPEBGHPEAPEAUHICON__@@1I@Z
  ?FindClose@CIlKernel32@@UEAAHPEAX@Z=C:\Windows\System32\migisol.?FindClose@CIlKernel32@@UEAAHPEAX@Z
  ?FindFirstFileW@CIlKernel32@@UEAAPEAXPEBGPEAU_WIN32_FIND_DATAW@@@Z=C:\Windows\System32\migisol.?FindFirstFileW@CIlKernel32@@UEAAPEAXPEBGPEAU_WIN32_FIND_DATAW@@@Z
  ?FindNextFileW@CIlKernel32@@UEAAHPEAXPEAU_WIN32_FIND_DATAW@@@Z=C:\Windows\System32\migisol.?FindNextFileW@CIlKernel32@@UEAAHPEAXPEAU_WIN32_FIND_DATAW@@@Z
  ?FreeLibrary@CIlKernel32@@UEAAHPEAUHINSTANCE__@@@Z=C:\Windows\System32\migisol.?FreeLibrary@CIlKernel32@@UEAAHPEAUHINSTANCE__@@@Z
  ?FreeSid@CIlAdvapi32@@UEAAPEAXPEAX@Z=C:\Windows\System32\migisol.?FreeSid@CIlAdvapi32@@UEAAPEAXPEAX@Z
  ?GetCommandLineW@CIlKernel32@@UEAAPEAGXZ=C:\Windows\System32\migisol.?GetCommandLineW@CIlKernel32@@UEAAPEAGXZ
  ?GetComputerNameW@CIlKernel32@@UEAAHPEAGPEAK@Z=C:\Windows\System32\migisol.?GetComputerNameW@CIlKernel32@@UEAAHPEAGPEAK@Z
  ?GetCurrentProcess@CIlKernel32@@UEAAPEAXXZ=C:\Windows\System32\migisol.?GetCurrentProcess@CIlKernel32@@UEAAPEAXXZ
  ?GetCurrentThreadId@CIlKernel32@@UEAAKXZ=C:\Windows\System32\migisol.?GetCurrentThreadId@CIlKernel32@@UEAAKXZ
  ?GetDiskFreeSpaceExW@CIlKernel32@@UEAAHPEBGPEAT_ULARGE_INTEGER@@11@Z=C:\Windows\System32\migisol.?GetDiskFreeSpaceExW@CIlKernel32@@UEAAHPEBGPEAT_ULARGE_INTEGER@@11@Z
  ?GetDiskFreeSpaceW@CIlKernel32@@UEAAHPEBGPEAK111@Z=C:\Windows\System32\migisol.?GetDiskFreeSpaceW@CIlKernel32@@UEAAHPEBGPEAK111@Z
  ?GetDriveTypeW@CIlKernel32@@UEAAIPEBG@Z=C:\Windows\System32\migisol.?GetDriveTypeW@CIlKernel32@@UEAAIPEBG@Z
  ?GetExitCodeProcess@CIlKernel32@@UEAAHPEAXPEAK@Z=C:\Windows\System32\migisol.?GetExitCodeProcess@CIlKernel32@@UEAAHPEAXPEAK@Z
  ?GetFileAttributesW@CIlKernel32@@UEAAKPEBG@Z=C:\Windows\System32\migisol.?GetFileAttributesW@CIlKernel32@@UEAAKPEBG@Z
  ?GetFileSize@CIlKernel32@@UEAAKPEAXPEAK@Z=C:\Windows\System32\migisol.?GetFileSize@CIlKernel32@@UEAAKPEAXPEAK@Z
  ?GetFileType@CIlKernel32@@UEAAKPEAX@Z=C:\Windows\System32\migisol.?GetFileType@CIlKernel32@@UEAAKPEAX@Z
  ?GetFileVersionInfoSizeW@CIlVersion@@UEAAKPEBGPEAK@Z=C:\Windows\System32\migisol.?GetFileVersionInfoSizeW@CIlVersion@@UEAAKPEBGPEAK@Z
  ?GetFileVersionInfoW@CIlVersion@@UEAAHPEBGKKPEAX@Z=C:\Windows\System32\migisol.?GetFileVersionInfoW@CIlVersion@@UEAAHPEBGKKPEAX@Z
  ?GetFullPathNameW@CIlKernel32@@UEAAKPEBGKPEAGPEAPEAG@Z=C:\Windows\System32\migisol.?GetFullPathNameW@CIlKernel32@@UEAAKPEBGKPEAGPEAPEAG@Z
  ?GetHGlobalFromStream@CIlOle32@@UEAAJPEAUIStream@@PEAPEAX@Z=C:\Windows\System32\migisol.?GetHGlobalFromStream@CIlOle32@@UEAAJPEAUIStream@@PEAPEAX@Z
  ?GetIlProc@CDynLib@@IEAAP6A_JXZPEBGPEBDP6A_JXZAEAP6A_JXZAEAK@Z=C:\Windows\System32\migisol.?GetIlProc@CDynLib@@IEAAP6A_JXZPEBGPEBDP6A_JXZAEAP6A_JXZAEAK@Z
  ?GetIpAddrTable@CIlIphlpapi@@UEAAKPEAU_MIB_IPADDRTABLE@@PEAKH@Z=C:\Windows\System32\migisol.?GetIpAddrTable@CIlIphlpapi@@UEAAKPEAU_MIB_IPADDRTABLE@@PEAKH@Z
  ?GetLastError@CIlKernel32@@UEAAKXZ=C:\Windows\System32\migisol.?GetLastError@CIlKernel32@@UEAAKXZ
  ?GetLocaleInfoW@CIlKernel32@@UEAAHKKPEAGH@Z=C:\Windows\System32\migisol.?GetLocaleInfoW@CIlKernel32@@UEAAHKKPEAGH@Z
  ?GetLogicalDriveStringsW@CIlKernel32@@UEAAKKPEAG@Z=C:\Windows\System32\migisol.?GetLogicalDriveStringsW@CIlKernel32@@UEAAKKPEAG@Z
  ?GetLogicalDrives@CIlKernel32@@UEAAKXZ=C:\Windows\System32\migisol.?GetLogicalDrives@CIlKernel32@@UEAAKXZ
  ?GetOverlappedResult@CIlKernel32@@UEAAHPEAXPEAU_OVERLAPPED@@PEAKH@Z=C:\Windows\System32\migisol.?GetOverlappedResult@CIlKernel32@@UEAAHPEAXPEAU_OVERLAPPED@@PEAKH@Z
  ?GetPrivateProfileStringW@CIlKernel32@@UEAAKPEBG00PEAGK0@Z=C:\Windows\System32\migisol.?GetPrivateProfileStringW@CIlKernel32@@UEAAKPEBG00PEAGK0@Z
  ?GetProcAddress@CIlKernel32@@UEAAP6A_JXZPEAUHINSTANCE__@@PEBD@Z=C:\Windows\System32\migisol.?GetProcAddress@CIlKernel32@@UEAAP6A_JXZPEAUHINSTANCE__@@PEBD@Z
  ?GetProcessHeap@CIlKernel32@@UEAAPEAXXZ=C:\Windows\System32\migisol.?GetProcessHeap@CIlKernel32@@UEAAPEAXXZ
  ?GetSecurityDescriptorDacl@CIlAdvapi32@@UEAAHPEAXPEAHPEAPEAU_ACL@@1@Z=C:\Windows\System32\migisol.?GetSecurityDescriptorDacl@CIlAdvapi32@@UEAAHPEAXPEAHPEAPEAU_ACL@@1@Z
  ?GetSecurityDescriptorGroup@CIlAdvapi32@@UEAAHPEAXPEAPEAXPEAH@Z=C:\Windows\System32\migisol.?GetSecurityDescriptorGroup@CIlAdvapi32@@UEAAHPEAXPEAPEAXPEAH@Z
  ?GetSecurityDescriptorOwner@CIlAdvapi32@@UEAAHPEAXPEAPEAXPEAH@Z=C:\Windows\System32\migisol.?GetSecurityDescriptorOwner@CIlAdvapi32@@UEAAHPEAXPEAPEAXPEAH@Z
  ?GetSecurityDescriptorSacl@CIlAdvapi32@@UEAAHPEAXPEAHPEAPEAU_ACL@@1@Z=C:\Windows\System32\migisol.?GetSecurityDescriptorSacl@CIlAdvapi32@@UEAAHPEAXPEAHPEAPEAU_ACL@@1@Z
  ?GetSecurityInfo@CIlAdvapi32@@UEAAKPEAXW4_SE_OBJECT_TYPE@@KPEAPEAX2PEAPEAU_ACL@@32@Z=C:\Windows\System32\migisol.?GetSecurityInfo@CIlAdvapi32@@UEAAKPEAXW4_SE_OBJECT_TYPE@@KPEAPEAX2PEAPEAU_ACL@@32@Z
  ?GetShortPathNameW@CIlKernel32@@UEAAKPEBGPEAGK@Z=C:\Windows\System32\migisol.?GetShortPathNameW@CIlKernel32@@UEAAKPEBGPEAGK@Z
  ?GetSystemInfo@CIlKernel32@@UEAAXPEAU_SYSTEM_INFO@@@Z=C:\Windows\System32\migisol.?GetSystemInfo@CIlKernel32@@UEAAXPEAU_SYSTEM_INFO@@@Z
  ?GetSystemWindowsDirectoryW@CIlNt4Kernel32@@UEAAIPEAGI@Z=C:\Windows\System32\migisol.?GetSystemWindowsDirectoryW@CIlNt4Kernel32@@UEAAIPEAGI@Z
  ?GetTempFileNameW@CIlKernel32@@UEAAIPEBG0IPEAG@Z=C:\Windows\System32\migisol.?GetTempFileNameW@CIlKernel32@@UEAAIPEBG0IPEAG@Z
  ?GetTempPathW@CIlKernel32@@UEAAKKPEAG@Z=C:\Windows\System32\migisol.?GetTempPathW@CIlKernel32@@UEAAKKPEAG@Z
  ?GetTickCount@CIlKernel32@@UEAAKXZ=C:\Windows\System32\migisol.?GetTickCount@CIlKernel32@@UEAAKXZ
  ?GetTokenInformation@CIlAdvapi32@@UEAAHPEAXW4_TOKEN_INFORMATION_CLASS@@0KPEAK@Z=C:\Windows\System32\migisol.?GetTokenInformation@CIlAdvapi32@@UEAAHPEAXW4_TOKEN_INFORMATION_CLASS@@0KPEAK@Z
  ?GetUpgradeLanguage@CIlMuisetupapi@@UEAAKPEAGII@Z=C:\Windows\System32\migisol.?GetUpgradeLanguage@CIlMuisetupapi@@UEAAKPEAGII@Z
  ?GetUpgradeLanguageEx@CIlMuisetupapi@@UEAAKPEAGIIPEBG@Z=C:\Windows\System32\migisol.?GetUpgradeLanguageEx@CIlMuisetupapi@@UEAAKPEAGIIPEBG@Z
  ?GetUserNameW@CIlAdvapi32@@UEAAHPEAGPEAK@Z=C:\Windows\System32\migisol.?GetUserNameW@CIlAdvapi32@@UEAAHPEAGPEAK@Z
  ?GetVersionExA@CIlKernel32@@UEAAHPEAU_OSVERSIONINFOA@@@Z=C:\Windows\System32\migisol.?GetVersionExA@CIlKernel32@@UEAAHPEAU_OSVERSIONINFOA@@@Z
  ?GetVersionExW@CIlKernel32@@UEAAHPEAU_OSVERSIONINFOW@@@Z=C:\Windows\System32\migisol.?GetVersionExW@CIlKernel32@@UEAAHPEAU_OSVERSIONINFOW@@@Z
  ?GetVolumeInformationW@CIlKernel32@@UEAAHPEBGPEAGKPEAK221K@Z=C:\Windows\System32\migisol.?GetVolumeInformationW@CIlKernel32@@UEAAHPEBGPEAGKPEAK221K@Z
  ?GetWindowsDirectoryW@CIlKernel32@@UEAAIPEAGI@Z=C:\Windows\System32\migisol.?GetWindowsDirectoryW@CIlKernel32@@UEAAIPEAGI@Z
  ?GlobalAlloc@CIlKernel32@@UEAAPEAXI_K@Z=C:\Windows\System32\migisol.?GlobalAlloc@CIlKernel32@@UEAAPEAXI_K@Z
  ?GlobalFree@CIlKernel32@@UEAAPEAXPEAX@Z=C:\Windows\System32\migisol.?GlobalFree@CIlKernel32@@UEAAPEAXPEAX@Z
  ?GlobalLock@CIlKernel32@@UEAAPEAXPEAX@Z=C:\Windows\System32\migisol.?GlobalLock@CIlKernel32@@UEAAPEAXPEAX@Z
  ?GlobalMemoryStatus@CIlKernel32@@UEAAXPEAU_MEMORYSTATUS@@@Z=C:\Windows\System32\migisol.?GlobalMemoryStatus@CIlKernel32@@UEAAXPEAU_MEMORYSTATUS@@@Z
  ?GlobalMemoryStatusEx@CIlNt4Kernel32@@UEAAHPEAU_MEMORYSTATUSEX@@@Z=C:\Windows\System32\migisol.?GlobalMemoryStatusEx@CIlNt4Kernel32@@UEAAHPEAU_MEMORYSTATUSEX@@@Z
  ?GlobalSize@CIlKernel32@@UEAA_KPEAX@Z=C:\Windows\System32\migisol.?GlobalSize@CIlKernel32@@UEAA_KPEAX@Z
  ?GlobalUnlock@CIlKernel32@@UEAAHPEAX@Z=C:\Windows\System32\migisol.?GlobalUnlock@CIlKernel32@@UEAAHPEAX@Z
  ?HeapAlloc@CIlKernel32@@UEAAPEAXPEAXK_K@Z=C:\Windows\System32\migisol.?HeapAlloc@CIlKernel32@@UEAAPEAXPEAXK_K@Z
  ?HeapCompact@CIlKernel32@@UEAA_KPEAXK@Z=C:\Windows\System32\migisol.?HeapCompact@CIlKernel32@@UEAA_KPEAXK@Z
  ?HeapCreate@CIlKernel32@@UEAAPEAXK_K0@Z=C:\Windows\System32\migisol.?HeapCreate@CIlKernel32@@UEAAPEAXK_K0@Z
  ?HeapDestroy@CIlKernel32@@UEAAHPEAX@Z=C:\Windows\System32\migisol.?HeapDestroy@CIlKernel32@@UEAAHPEAX@Z
  ?HeapFree@CIlKernel32@@UEAAHPEAXK0@Z=C:\Windows\System32\migisol.?HeapFree@CIlKernel32@@UEAAHPEAXK0@Z
  ?HeapReAlloc@CIlKernel32@@UEAAPEAXPEAXK0_K@Z=C:\Windows\System32\migisol.?HeapReAlloc@CIlKernel32@@UEAAPEAXPEAXK0_K@Z
  ?HeapValidate@CIlKernel32@@UEAAHPEAXKPEBX@Z=C:\Windows\System32\migisol.?HeapValidate@CIlKernel32@@UEAAHPEAXKPEBX@Z
  ?HeapWalk@CIlKernel32@@UEAAHPEAXPEAU_PROCESS_HEAP_ENTRY@@@Z=C:\Windows\System32\migisol.?HeapWalk@CIlKernel32@@UEAAHPEAXPEAU_PROCESS_HEAP_ENTRY@@@Z
  ?IlAdvapi32@@3VCIlAdvapi32@@A=C:\Windows\System32\migisol.?IlAdvapi32@@3VCIlAdvapi32@@A
  ?IlChangeServiceConfigW@CIlNt4Advapi32@@CAHPEAUSC_HANDLE__@@KKKPEBG1PEAK1111@Z=C:\Windows\System32\migisol.?IlChangeServiceConfigW@CIlNt4Advapi32@@CAHPEAUSC_HANDLE__@@KKKPEBG1PEAK1111@Z
  ?IlCloseServiceHandle@CIlNt4Advapi32@@CAHPEAUSC_HANDLE__@@@Z=C:\Windows\System32\migisol.?IlCloseServiceHandle@CIlNt4Advapi32@@CAHPEAUSC_HANDLE__@@@Z
  ?IlConvertSecurityDescriptorToStringSecurityDescriptorW@CIlNt4Advapi32@@CAHPEAXKKPEAPEAGPEAK@Z=C:\Windows\System32\migisol.?IlConvertSecurityDescriptorToStringSecurityDescriptorW@CIlNt4Advapi32@@CAHPEAXKKPEAPEAGPEAK@Z
  ?IlConvertSidToStringSidW@CIlNt4Advapi32@@CAHPEAXPEAPEAG@Z=C:\Windows\System32\migisol.?IlConvertSidToStringSidW@CIlNt4Advapi32@@CAHPEAXPEAPEAG@Z
  ?IlConvertStringSecurityDescriptorToSecurityDescriptorW@CIlNt4Advapi32@@CAHPEBGKPEAPEAXPEAK@Z=C:\Windows\System32\migisol.?IlConvertStringSecurityDescriptorToSecurityDescriptorW@CIlNt4Advapi32@@CAHPEBGKPEAPEAXPEAK@Z
  ?IlConvertStringSidToSidW@CIlNt4Advapi32@@CAHPEAGPEAPEAX@Z=C:\Windows\System32\migisol.?IlConvertStringSidToSidW@CIlNt4Advapi32@@CAHPEAGPEAPEAX@Z
  ?IlCreateProfile@CIlNt6Userenv@@CAJPEBG0PEAGK@Z=C:\Windows\System32\migisol.?IlCreateProfile@CIlNt6Userenv@@CAJPEBG0PEAGK@Z
  ?IlCreateServiceW@CIlNt4Advapi32@@CAPEAUSC_HANDLE__@@PEAU2@PEBG1KKKK11PEAK111@Z=C:\Windows\System32\migisol.?IlCreateServiceW@CIlNt4Advapi32@@CAPEAUSC_HANDLE__@@PEAU2@PEBG1KKKK11PEAK111@Z
  ?IlCreateToolhelp32Snapshot@CIlNt4Kernel32@@CAPEAXKK@Z=C:\Windows\System32\migisol.?IlCreateToolhelp32Snapshot@CIlNt4Kernel32@@CAPEAXKK@Z
  ?IlCreateUserProfileExW@CIlNt4Userenv@@CAHPEAXPEBG1PEAGKH@Z=C:\Windows\System32\migisol.?IlCreateUserProfileExW@CIlNt4Userenv@@CAHPEAXPEBG1PEAGKH@Z
  ?IlCreateWellKnownSid@CIlNt4Advapi32@@CAHW4WELL_KNOWN_SID_TYPE@@PEAX1PEAK@Z=C:\Windows\System32\migisol.?IlCreateWellKnownSid@CIlNt4Advapi32@@CAHW4WELL_KNOWN_SID_TYPE@@PEAX1PEAK@Z
  ?IlDeplorch@@3VCIlDeplorch@@A=C:\Windows\System32\migisol.?IlDeplorch@@3VCIlDeplorch@@A
  ?IlEncryptFileW@CIlNt4Advapi32@@CAHPEBG@Z=C:\Windows\System32\migisol.?IlEncryptFileW@CIlNt4Advapi32@@CAHPEBG@Z
  ?IlEnumServicesStatusExW@CIlNt4Advapi32@@CAHPEAUSC_HANDLE__@@W4_SC_ENUM_TYPE@@KKPEAEKPEAK33PEBG@Z=C:\Windows\System32\migisol.?IlEnumServicesStatusExW@CIlNt4Advapi32@@CAHPEAUSC_HANDLE__@@W4_SC_ENUM_TYPE@@KKPEAEKPEAK33PEBG@Z
  ?IlGetSystemWindowsDirectoryW@CIlNt4Kernel32@@CAIPEAGI@Z=C:\Windows\System32\migisol.?IlGetSystemWindowsDirectoryW@CIlNt4Kernel32@@CAIPEAGI@Z
  ?IlGlobalMemoryStatusEx@CIlNt4Kernel32@@CAHPEAU_MEMORYSTATUSEX@@@Z=C:\Windows\System32\migisol.?IlGlobalMemoryStatusEx@CIlNt4Kernel32@@CAHPEAU_MEMORYSTATUSEX@@@Z
  ?IlInitiateSystemShutdownExW@CIlNt4Advapi32@@CAHPEAG0KHHK@Z=C:\Windows\System32\migisol.?IlInitiateSystemShutdownExW@CIlNt4Advapi32@@CAHPEAG0KHHK@Z
  ?IlIphlpapi@@3VCIlIphlpapi@@A=C:\Windows\System32\migisol.?IlIphlpapi@@3VCIlIphlpapi@@A
  ?IlKernel32@@3VCIlKernel32@@A=C:\Windows\System32\migisol.?IlKernel32@@3VCIlKernel32@@A
  ?IlLockServiceDatabase@CIlNt4Advapi32@@CAPEAXPEAUSC_HANDLE__@@@Z=C:\Windows\System32\migisol.?IlLockServiceDatabase@CIlNt4Advapi32@@CAPEAXPEAUSC_HANDLE__@@@Z
  ?IlLockSetForegroundWindow@CIlNt4User32@@CAHI@Z=C:\Windows\System32\migisol.?IlLockSetForegroundWindow@CIlNt4User32@@CAHI@Z
  ?IlMuisetupapi@@3VCIlMuisetupapi@@A=C:\Windows\System32\migisol.?IlMuisetupapi@@3VCIlMuisetupapi@@A
  ?IlNetApiBufferFree@CIlNt4Netapi32@@CAKPEAX@Z=C:\Windows\System32\migisol.?IlNetApiBufferFree@CIlNt4Netapi32@@CAKPEAX@Z
  ?IlNetLocalGroupAdd@CIlNt4Netapi32@@CAKPEBGKPEAEPEAK@Z=C:\Windows\System32\migisol.?IlNetLocalGroupAdd@CIlNt4Netapi32@@CAKPEBGKPEAEPEAK@Z
  ?IlNetLocalGroupAddMembers@CIlNt4Netapi32@@CAKPEBG0KPEAEK@Z=C:\Windows\System32\migisol.?IlNetLocalGroupAddMembers@CIlNt4Netapi32@@CAKPEBG0KPEAEK@Z
  ?IlNetLocalGroupEnum@CIlNt4Netapi32@@CAKPEBGKPEAPEAEKPEAK2PEA_K@Z=C:\Windows\System32\migisol.?IlNetLocalGroupEnum@CIlNt4Netapi32@@CAKPEBGKPEAPEAEKPEAK2PEA_K@Z
  ?IlNetUserAdd@CIlNt4Netapi32@@CAKPEBGKPEAEPEAK@Z=C:\Windows\System32\migisol.?IlNetUserAdd@CIlNt4Netapi32@@CAKPEBGKPEAEPEAK@Z
  ?IlNetUserDel@CIlNt4Netapi32@@CAKPEBG0@Z=C:\Windows\System32\migisol.?IlNetUserDel@CIlNt4Netapi32@@CAKPEBG0@Z
  ?IlNetUserEnum@CIlNt4Netapi32@@CAKPEBGKKPEAPEAEKPEAK22@Z=C:\Windows\System32\migisol.?IlNetUserEnum@CIlNt4Netapi32@@CAKPEBGKKPEAPEAEKPEAK22@Z
  ?IlNetUserGetLocalGroups@CIlNt4Netapi32@@CAKPEBG0KKPEAPEAEKPEAK2@Z=C:\Windows\System32\migisol.?IlNetUserGetLocalGroups@CIlNt4Netapi32@@CAKPEBG0KKPEAPEAEKPEAK2@Z
  ?IlNetWkstaGetInfo@CIlNt4Netapi32@@CAKPEAGKPEAPEAE@Z=C:\Windows\System32\migisol.?IlNetWkstaGetInfo@CIlNt4Netapi32@@CAKPEAGKPEAPEAE@Z
  ?IlNt4Advapi32@@3VCIlNt4Advapi32@@A=C:\Windows\System32\migisol.?IlNt4Advapi32@@3VCIlNt4Advapi32@@A
  ?IlNt4Kernel32@@3VCIlNt4Kernel32@@A=C:\Windows\System32\migisol.?IlNt4Kernel32@@3VCIlNt4Kernel32@@A
  ?IlNt4Netapi32@@3VCIlNt4Netapi32@@A=C:\Windows\System32\migisol.?IlNt4Netapi32@@3VCIlNt4Netapi32@@A
  ?IlNt4Setupapi@@3VCIlNt4Setupapi@@A=C:\Windows\System32\migisol.?IlNt4Setupapi@@3VCIlNt4Setupapi@@A
  ?IlNt4User32@@3VCIlNt4User32@@A=C:\Windows\System32\migisol.?IlNt4User32@@3VCIlNt4User32@@A
  ?IlNt4Userenv@@3VCIlNt4Userenv@@A=C:\Windows\System32\migisol.?IlNt4Userenv@@3VCIlNt4Userenv@@A
  ?IlNt6Userenv@@3VCIlNt6Userenv@@A=C:\Windows\System32\migisol.?IlNt6Userenv@@3VCIlNt6Userenv@@A
  ?IlOle32@@3VCIlOle32@@A=C:\Windows\System32\migisol.?IlOle32@@3VCIlOle32@@A
  ?IlOleaut32@@3VCIlOleaut32@@A=C:\Windows\System32\migisol.?IlOleaut32@@3VCIlOleaut32@@A
  ?IlOpenSCManagerW@CIlNt4Advapi32@@CAPEAUSC_HANDLE__@@PEBG0K@Z=C:\Windows\System32\migisol.?IlOpenSCManagerW@CIlNt4Advapi32@@CAPEAUSC_HANDLE__@@PEBG0K@Z
  ?IlOpenServiceW@CIlNt4Advapi32@@CAPEAUSC_HANDLE__@@PEAU2@PEBGK@Z=C:\Windows\System32\migisol.?IlOpenServiceW@CIlNt4Advapi32@@CAPEAUSC_HANDLE__@@PEAU2@PEBGK@Z
  ?IlProcess32FirstW@CIlNt4Kernel32@@CAHPEAXPEAUtagPROCESSENTRY32W@@@Z=C:\Windows\System32\migisol.?IlProcess32FirstW@CIlNt4Kernel32@@CAHPEAXPEAUtagPROCESSENTRY32W@@@Z
  ?IlProcess32NextW@CIlNt4Kernel32@@CAHPEAXPEAUtagPROCESSENTRY32W@@@Z=C:\Windows\System32\migisol.?IlProcess32NextW@CIlNt4Kernel32@@CAHPEAXPEAUtagPROCESSENTRY32W@@@Z
  ?IlQueryServiceConfigW@CIlNt4Advapi32@@CAHPEAUSC_HANDLE__@@PEAU_QUERY_SERVICE_CONFIGW@@KPEAK@Z=C:\Windows\System32\migisol.?IlQueryServiceConfigW@CIlNt4Advapi32@@CAHPEAUSC_HANDLE__@@PEAU_QUERY_SERVICE_CONFIGW@@KPEAK@Z
  ?IlRegisterWaitForSingleObject@CIlNt4Kernel32@@CAHPEAPEAXPEAXP6AX1E@Z1KK@Z=C:\Windows\System32\migisol.?IlRegisterWaitForSingleObject@CIlNt4Kernel32@@CAHPEAPEAXPEAXP6AX1E@Z1KK@Z
  ?IlSetupCloseFileQueue@CIlNt4Setupapi@@CAHPEAX@Z=C:\Windows\System32\migisol.?IlSetupCloseFileQueue@CIlNt4Setupapi@@CAHPEAX@Z
  ?IlSetupDiBuildDriverInfoList@CIlNt4Setupapi@@CAHPEAXPEAU_SP_DEVINFO_DATA@@K@Z=C:\Windows\System32\migisol.?IlSetupDiBuildDriverInfoList@CIlNt4Setupapi@@CAHPEAXPEAU_SP_DEVINFO_DATA@@K@Z
  ?IlSetupDiCallClassInstaller@CIlNt4Setupapi@@CAHIPEAXPEAU_SP_DEVINFO_DATA@@@Z=C:\Windows\System32\migisol.?IlSetupDiCallClassInstaller@CIlNt4Setupapi@@CAHIPEAXPEAU_SP_DEVINFO_DATA@@@Z
  ?IlSetupDiCreateDeviceInfoListExW@CIlNt4Setupapi@@CAPEAXPEBU_GUID@@PEAUHWND__@@PEBGPEAX@Z=C:\Windows\System32\migisol.?IlSetupDiCreateDeviceInfoListExW@CIlNt4Setupapi@@CAPEAXPEBU_GUID@@PEAUHWND__@@PEBGPEAX@Z
  ?IlSetupDiDestroyDeviceInfoList@CIlNt4Setupapi@@CAHPEAX@Z=C:\Windows\System32\migisol.?IlSetupDiDestroyDeviceInfoList@CIlNt4Setupapi@@CAHPEAX@Z
  ?IlSetupDiDestroyDriverInfoList@CIlNt4Setupapi@@CAHPEAXPEAU_SP_DEVINFO_DATA@@K@Z=C:\Windows\System32\migisol.?IlSetupDiDestroyDriverInfoList@CIlNt4Setupapi@@CAHPEAXPEAU_SP_DEVINFO_DATA@@K@Z
  ?IlSetupDiEnumDeviceInfo@CIlNt4Setupapi@@CAHPEAXKPEAU_SP_DEVINFO_DATA@@@Z=C:\Windows\System32\migisol.?IlSetupDiEnumDeviceInfo@CIlNt4Setupapi@@CAHPEAXKPEAU_SP_DEVINFO_DATA@@@Z
  ?IlSetupDiEnumDeviceInterfaces@CIlNt4Setupapi@@CAHPEAXPEAU_SP_DEVINFO_DATA@@PEBU_GUID@@KPEAU_SP_DEVICE_INTERFACE_DATA@@@Z=C:\Windows\System32\migisol.?IlSetupDiEnumDeviceInterfaces@CIlNt4Setupapi@@CAHPEAXPEAU_SP_DEVINFO_DATA@@PEBU_GUID@@KPEAU_SP_DEVICE_INTERFACE_DATA@@@Z
  ?IlSetupDiEnumDriverInfoW@CIlNt4Setupapi@@CAHPEAXPEAU_SP_DEVINFO_DATA@@KKPEAU_SP_DRVINFO_DATA_V2_W@@@Z=C:\Windows\System32\migisol.?IlSetupDiEnumDriverInfoW@CIlNt4Setupapi@@CAHPEAXPEAU_SP_DEVINFO_DATA@@KKPEAU_SP_DRVINFO_DATA_V2_W@@@Z
  ?IlSetupDiGetClassDevsExW@CIlNt4Setupapi@@CAPEAXPEBU_GUID@@PEBGPEAUHWND__@@KPEAX13@Z=C:\Windows\System32\migisol.?IlSetupDiGetClassDevsExW@CIlNt4Setupapi@@CAPEAXPEBU_GUID@@PEBGPEAUHWND__@@KPEAX13@Z
  ?IlSetupDiGetClassDevsW@CIlNt4Setupapi@@CAPEAXPEBU_GUID@@PEBGPEAUHWND__@@K@Z=C:\Windows\System32\migisol.?IlSetupDiGetClassDevsW@CIlNt4Setupapi@@CAPEAXPEBU_GUID@@PEBGPEAUHWND__@@K@Z
  ?IlSetupDiGetDeviceInstallParamsW@CIlNt4Setupapi@@CAHPEAXPEAU_SP_DEVINFO_DATA@@PEAU_SP_DEVINSTALL_PARAMS_W@@@Z=C:\Windows\System32\migisol.?IlSetupDiGetDeviceInstallParamsW@CIlNt4Setupapi@@CAHPEAXPEAU_SP_DEVINFO_DATA@@PEAU_SP_DEVINSTALL_PARAMS_W@@@Z
  ?IlSetupDiGetDeviceInterfaceDetailW@CIlNt4Setupapi@@CAHPEAXPEAU_SP_DEVICE_INTERFACE_DATA@@PEAU_SP_DEVICE_INTERFACE_DETAIL_DATA_W@@KPEAKPEAU_SP_DEVINFO_DATA@@@Z=C:\Windows\System32\migisol.?IlSetupDiGetDeviceInterfaceDetailW@CIlNt4Setupapi@@CAHPEAXPEAU_SP_DEVICE_INTERFACE_DATA@@PEAU_SP_DEVICE_INTERFACE_DETAIL_DATA_W@@KPEAKPEAU_SP_DEVINFO_DATA@@@Z
  ?IlSetupDiGetDeviceRegistryPropertyW@CIlNt4Setupapi@@CAHPEAXPEAU_SP_DEVINFO_DATA@@KPEAKPEAEK2@Z=C:\Windows\System32\migisol.?IlSetupDiGetDeviceRegistryPropertyW@CIlNt4Setupapi@@CAHPEAXPEAU_SP_DEVINFO_DATA@@KPEAKPEAEK2@Z
  ?IlSetupDiGetDriverInfoDetailW@CIlNt4Setupapi@@CAHPEAXPEAU_SP_DEVINFO_DATA@@PEAU_SP_DRVINFO_DATA_V2_W@@PEAU_SP_DRVINFO_DETAIL_DATA_W@@KPEAK@Z=C:\Windows\System32\migisol.?IlSetupDiGetDriverInfoDetailW@CIlNt4Setupapi@@CAHPEAXPEAU_SP_DEVINFO_DATA@@PEAU_SP_DRVINFO_DATA_V2_W@@PEAU_SP_DRVINFO_DETAIL_DATA_W@@KPEAK@Z
  ?IlSetupDiOpenDevRegKey@CIlNt4Setupapi@@CAPEAUHKEY__@@PEAXPEAU_SP_DEVINFO_DATA@@KKKK@Z=C:\Windows\System32\migisol.?IlSetupDiOpenDevRegKey@CIlNt4Setupapi@@CAPEAUHKEY__@@PEAXPEAU_SP_DEVINFO_DATA@@KKKK@Z
  ?IlSetupDiOpenDeviceInfoW@CIlNt4Setupapi@@CAHPEAXPEBGPEAUHWND__@@KPEAU_SP_DEVINFO_DATA@@@Z=C:\Windows\System32\migisol.?IlSetupDiOpenDeviceInfoW@CIlNt4Setupapi@@CAHPEAXPEBGPEAUHWND__@@KPEAU_SP_DEVINFO_DATA@@@Z
  ?IlSetupDiSetDeviceInstallParamsW@CIlNt4Setupapi@@CAHPEAXPEAU_SP_DEVINFO_DATA@@PEAU_SP_DEVINSTALL_PARAMS_W@@@Z=C:\Windows\System32\migisol.?IlSetupDiSetDeviceInstallParamsW@CIlNt4Setupapi@@CAHPEAXPEAU_SP_DEVINFO_DATA@@PEAU_SP_DEVINSTALL_PARAMS_W@@@Z
  ?IlSetupDiSetSelectedDriverW@CIlNt4Setupapi@@CAHPEAXPEAU_SP_DEVINFO_DATA@@PEAU_SP_DRVINFO_DATA_V2_W@@@Z=C:\Windows\System32\migisol.?IlSetupDiSetSelectedDriverW@CIlNt4Setupapi@@CAHPEAXPEAU_SP_DEVINFO_DATA@@PEAU_SP_DRVINFO_DATA_V2_W@@@Z
  ?IlSetupGetInfInformationW@CIlNt4Setupapi@@CAHPEBXKPEAU_SP_INF_INFORMATION@@KPEAK@Z=C:\Windows\System32\migisol.?IlSetupGetInfInformationW@CIlNt4Setupapi@@CAHPEBXKPEAU_SP_INF_INFORMATION@@KPEAK@Z
  ?IlSetupOpenFileQueue@CIlNt4Setupapi@@CAPEAXXZ=C:\Windows\System32\migisol.?IlSetupOpenFileQueue@CIlNt4Setupapi@@CAPEAXXZ
  ?IlSetupQueryInfOriginalFileInformationW@CIlNt4Setupapi@@CAHPEAU_SP_INF_INFORMATION@@IPEAU_SP_ALTPLATFORM_INFO_V2@@PEAU_SP_ORIGINAL_FILE_INFO_W@@@Z=C:\Windows\System32\migisol.?IlSetupQueryInfOriginalFileInformationW@CIlNt4Setupapi@@CAHPEAU_SP_INF_INFORMATION@@IPEAU_SP_ALTPLATFORM_INFO_V2@@PEAU_SP_ORIGINAL_FILE_INFO_W@@@Z
  ?IlSetupScanFileQueueW@CIlNt4Setupapi@@CAHPEAXKPEAUHWND__@@P6AI0I_K2@Z0PEAK@Z=C:\Windows\System32\migisol.?IlSetupScanFileQueueW@CIlNt4Setupapi@@CAHPEAXKPEAUHWND__@@P6AI0I_K2@Z0PEAK@Z
  ?IlSetupapi@@3VCIlSetupapi@@A=C:\Windows\System32\migisol.?IlSetupapi@@3VCIlSetupapi@@A
  ?IlShell32@@3VCIlShell32@@A=C:\Windows\System32\migisol.?IlShell32@@3VCIlShell32@@A
  ?IlStartServiceW@CIlNt4Advapi32@@CAHPEAUSC_HANDLE__@@KPEAPEBG@Z=C:\Windows\System32\migisol.?IlStartServiceW@CIlNt4Advapi32@@CAHPEAUSC_HANDLE__@@KPEAPEBG@Z
  ?IlUnlockServiceDatabase@CIlNt4Advapi32@@CAHPEAX@Z=C:\Windows\System32\migisol.?IlUnlockServiceDatabase@CIlNt4Advapi32@@CAHPEAX@Z
  ?IlUser32@@3VCIlUser32@@A=C:\Windows\System32\migisol.?IlUser32@@3VCIlUser32@@A
  ?IlVersion@@3VCIlVersion@@A=C:\Windows\System32\migisol.?IlVersion@@3VCIlVersion@@A
  ?IlW2kDynWs2_32@@3VCIlW2kDynWs2_32@@A=C:\Windows\System32\migisol.?IlW2kDynWs2_32@@3VCIlW2kDynWs2_32@@A
  ?IlWimgapi@@3VCIlWimgapi@@A=C:\Windows\System32\migisol.?IlWimgapi@@3VCIlWimgapi@@A
  ?IlWs2_32@@3VCIlWs2_32@@A=C:\Windows\System32\migisol.?IlWs2_32@@3VCIlWs2_32@@A
  ?Ilfreeaddrinfo@CIlW2kDynWs2_32@@CAXPEAUaddrinfo@@@Z=C:\Windows\System32\migisol.?Ilfreeaddrinfo@CIlW2kDynWs2_32@@CAXPEAUaddrinfo@@@Z
  ?Ilgetaddrinfo@CIlW2kDynWs2_32@@CAHPEBD0PEBUaddrinfo@@PEAPEAU2@@Z=C:\Windows\System32\migisol.?Ilgetaddrinfo@CIlW2kDynWs2_32@@CAHPEBD0PEBUaddrinfo@@PEAPEAU2@@Z
  ?Ilgetnameinfo@CIlW2kDynWs2_32@@CAHPEBUsockaddr@@HPEADK1KH@Z=C:\Windows\System32\migisol.?Ilgetnameinfo@CIlW2kDynWs2_32@@CAHPEBUsockaddr@@HPEADK1KH@Z
  ?InitializeCriticalSection@CIlKernel32@@UEAAXPEAU_RTL_CRITICAL_SECTION@@@Z=C:\Windows\System32\migisol.?InitializeCriticalSection@CIlKernel32@@UEAAXPEAU_RTL_CRITICAL_SECTION@@@Z
  ?InitializeSecurityDescriptor@CIlAdvapi32@@UEAAHPEAXK@Z=C:\Windows\System32\migisol.?InitializeSecurityDescriptor@CIlAdvapi32@@UEAAHPEAXK@Z
  ?InitiateSystemShutdownExW@CIlNt4Advapi32@@UEAAHPEAG0KHHK@Z=C:\Windows\System32\migisol.?InitiateSystemShutdownExW@CIlNt4Advapi32@@UEAAHPEAG0KHHK@Z
  ?IsValidSid@CIlAdvapi32@@UEAAHPEAX@Z=C:\Windows\System32\migisol.?IsValidSid@CIlAdvapi32@@UEAAHPEAX@Z
  ?LeaveCriticalSection@CIlKernel32@@UEAAXPEAU_RTL_CRITICAL_SECTION@@@Z=C:\Windows\System32\migisol.?LeaveCriticalSection@CIlKernel32@@UEAAXPEAU_RTL_CRITICAL_SECTION@@@Z
  ?LoadIconW@CIlUser32@@UEAAPEAUHICON__@@PEAUHINSTANCE__@@PEBG@Z=C:\Windows\System32\migisol.?LoadIconW@CIlUser32@@UEAAPEAUHICON__@@PEAUHINSTANCE__@@PEBG@Z
  ?LoadLibraryW@CIlKernel32@@UEAAPEAUHINSTANCE__@@PEBG@Z=C:\Windows\System32\migisol.?LoadLibraryW@CIlKernel32@@UEAAPEAUHINSTANCE__@@PEBG@Z
  ?LockServiceDatabase@CIlNt4Advapi32@@UEAAPEAXPEAUSC_HANDLE__@@@Z=C:\Windows\System32\migisol.?LockServiceDatabase@CIlNt4Advapi32@@UEAAPEAXPEAUSC_HANDLE__@@@Z
  ?LockSetForegroundWindow@CIlNt4User32@@UEAAHI@Z=C:\Windows\System32\migisol.?LockSetForegroundWindow@CIlNt4User32@@UEAAHI@Z
  ?LookupAccountNameW@CIlAdvapi32@@UEAAHPEBG0PEAXPEAKPEAG2PEAW4_SID_NAME_USE@@@Z=C:\Windows\System32\migisol.?LookupAccountNameW@CIlAdvapi32@@UEAAHPEBG0PEAXPEAKPEAG2PEAW4_SID_NAME_USE@@@Z
  ?LookupAccountSidW@CIlAdvapi32@@UEAAHPEBGPEAXPEAGPEAK23PEAW4_SID_NAME_USE@@@Z=C:\Windows\System32\migisol.?LookupAccountSidW@CIlAdvapi32@@UEAAHPEBGPEAXPEAGPEAK23PEAW4_SID_NAME_USE@@@Z
  ?LookupPrivilegeValueW@CIlAdvapi32@@UEAAHPEBG0PEAU_LUID@@@Z=C:\Windows\System32\migisol.?LookupPrivilegeValueW@CIlAdvapi32@@UEAAHPEBG0PEAU_LUID@@@Z
  ?MapViewOfFile@CIlKernel32@@UEAAPEAXPEAXKKK_K@Z=C:\Windows\System32\migisol.?MapViewOfFile@CIlKernel32@@UEAAPEAXPEAXKKK_K@Z
  ?MessageBoxA@CIlUser32@@UEAAHPEAUHWND__@@PEBD1I@Z=C:\Windows\System32\migisol.?MessageBoxA@CIlUser32@@UEAAHPEAUHWND__@@PEBD1I@Z
  ?MessageBoxW@CIlUser32@@UEAAHPEAUHWND__@@PEBG1I@Z=C:\Windows\System32\migisol.?MessageBoxW@CIlUser32@@UEAAHPEAUHWND__@@PEBG1I@Z
  ?MoveFileExW@CIlKernel32@@UEAAHPEBG0K@Z=C:\Windows\System32\migisol.?MoveFileExW@CIlKernel32@@UEAAHPEBG0K@Z
  ?MoveFileW@CIlKernel32@@UEAAHPEBG0@Z=C:\Windows\System32\migisol.?MoveFileW@CIlKernel32@@UEAAHPEBG0@Z
  ?NetApiBufferFree@CIlNt4Netapi32@@UEAAKPEAX@Z=C:\Windows\System32\migisol.?NetApiBufferFree@CIlNt4Netapi32@@UEAAKPEAX@Z
  ?NetLocalGroupAdd@CIlNt4Netapi32@@UEAAKPEBGKPEAEPEAK@Z=C:\Windows\System32\migisol.?NetLocalGroupAdd@CIlNt4Netapi32@@UEAAKPEBGKPEAEPEAK@Z
  ?NetLocalGroupAddMembers@CIlNt4Netapi32@@UEAAKPEBG0KPEAEK@Z=C:\Windows\System32\migisol.?NetLocalGroupAddMembers@CIlNt4Netapi32@@UEAAKPEBG0KPEAEK@Z
  ?NetLocalGroupEnum@CIlNt4Netapi32@@UEAAKPEBGKPEAPEAEKPEAK2PEA_K@Z=C:\Windows\System32\migisol.?NetLocalGroupEnum@CIlNt4Netapi32@@UEAAKPEBGKPEAPEAEKPEAK2PEA_K@Z
  ?NetUserAdd@CIlNt4Netapi32@@UEAAKPEBGKPEAEPEAK@Z=C:\Windows\System32\migisol.?NetUserAdd@CIlNt4Netapi32@@UEAAKPEBGKPEAEPEAK@Z
  ?NetUserDel@CIlNt4Netapi32@@UEAAKPEBG0@Z=C:\Windows\System32\migisol.?NetUserDel@CIlNt4Netapi32@@UEAAKPEBG0@Z
  ?NetUserEnum@CIlNt4Netapi32@@UEAAKPEBGKKPEAPEAEKPEAK22@Z=C:\Windows\System32\migisol.?NetUserEnum@CIlNt4Netapi32@@UEAAKPEBGKKPEAPEAEKPEAK22@Z
  ?NetUserGetLocalGroups@CIlNt4Netapi32@@UEAAKPEBG0KKPEAPEAEKPEAK2@Z=C:\Windows\System32\migisol.?NetUserGetLocalGroups@CIlNt4Netapi32@@UEAAKPEBG0KKPEAPEAEKPEAK2@Z
  ?NetWkstaGetInfo@CIlNt4Netapi32@@UEAAKPEAGKPEAPEAE@Z=C:\Windows\System32\migisol.?NetWkstaGetInfo@CIlNt4Netapi32@@UEAAKPEAGKPEAPEAE@Z
  ?OpenEventW@CIlKernel32@@UEAAPEAXKHPEBG@Z=C:\Windows\System32\migisol.?OpenEventW@CIlKernel32@@UEAAPEAXKHPEBG@Z
  ?OpenProcess@CIlKernel32@@UEAAPEAXKHK@Z=C:\Windows\System32\migisol.?OpenProcess@CIlKernel32@@UEAAPEAXKHK@Z
  ?OpenProcessToken@CIlAdvapi32@@UEAAHPEAXKPEAPEAX@Z=C:\Windows\System32\migisol.?OpenProcessToken@CIlAdvapi32@@UEAAHPEAXKPEAPEAX@Z
  ?OpenSCManagerW@CIlNt4Advapi32@@UEAAPEAUSC_HANDLE__@@PEBG0K@Z=C:\Windows\System32\migisol.?OpenSCManagerW@CIlNt4Advapi32@@UEAAPEAUSC_HANDLE__@@PEBG0K@Z
  ?OpenServiceW@CIlNt4Advapi32@@UEAAPEAUSC_HANDLE__@@PEAU2@PEBGK@Z=C:\Windows\System32\migisol.?OpenServiceW@CIlNt4Advapi32@@UEAAPEAUSC_HANDLE__@@PEAU2@PEBGK@Z
  ?PostMessageW@CIlUser32@@UEAAHPEAUHWND__@@I_K_J@Z=C:\Windows\System32\migisol.?PostMessageW@CIlUser32@@UEAAHPEAUHWND__@@I_K_J@Z
  ?Process32FirstW@CIlNt4Kernel32@@UEAAHPEAXPEAUtagPROCESSENTRY32W@@@Z=C:\Windows\System32\migisol.?Process32FirstW@CIlNt4Kernel32@@UEAAHPEAXPEAUtagPROCESSENTRY32W@@@Z
  ?Process32NextW@CIlNt4Kernel32@@UEAAHPEAXPEAUtagPROCESSENTRY32W@@@Z=C:\Windows\System32\migisol.?Process32NextW@CIlNt4Kernel32@@UEAAHPEAXPEAUtagPROCESSENTRY32W@@@Z
  ?QueryServiceConfigW@CIlNt4Advapi32@@UEAAHPEAUSC_HANDLE__@@PEAU_QUERY_SERVICE_CONFIGW@@KPEAK@Z=C:\Windows\System32\migisol.?QueryServiceConfigW@CIlNt4Advapi32@@UEAAHPEAUSC_HANDLE__@@PEAU_QUERY_SERVICE_CONFIGW@@KPEAK@Z
  ?RaiseException@CIlKernel32@@UEAAXKKKPEB_K@Z=C:\Windows\System32\migisol.?RaiseException@CIlKernel32@@UEAAXKKKPEB_K@Z
  ?ReadFile@CIlKernel32@@UEAAHPEAX0KPEAKPEAU_OVERLAPPED@@@Z=C:\Windows\System32\migisol.?ReadFile@CIlKernel32@@UEAAHPEAX0KPEAKPEAU_OVERLAPPED@@@Z
  ?RegCloseKey@CIlAdvapi32@@UEAAJPEAUHKEY__@@@Z=C:\Windows\System32\migisol.?RegCloseKey@CIlAdvapi32@@UEAAJPEAUHKEY__@@@Z
  ?RegCreateKeyExW@CIlAdvapi32@@UEAAJPEAUHKEY__@@PEBGKPEAGKKPEAU_SECURITY_ATTRIBUTES@@PEAPEAU2@PEAK@Z=C:\Windows\System32\migisol.?RegCreateKeyExW@CIlAdvapi32@@UEAAJPEAUHKEY__@@PEBGKPEAGKKPEAU_SECURITY_ATTRIBUTES@@PEAPEAU2@PEAK@Z
  ?RegDeleteKeyW@CIlAdvapi32@@UEAAJPEAUHKEY__@@PEBG@Z=C:\Windows\System32\migisol.?RegDeleteKeyW@CIlAdvapi32@@UEAAJPEAUHKEY__@@PEBG@Z
  ?RegDeleteValueW@CIlAdvapi32@@UEAAJPEAUHKEY__@@PEBG@Z=C:\Windows\System32\migisol.?RegDeleteValueW@CIlAdvapi32@@UEAAJPEAUHKEY__@@PEBG@Z
  ?RegEnumKeyExW@CIlAdvapi32@@UEAAJPEAUHKEY__@@KPEAGPEAK212PEAU_FILETIME@@@Z=C:\Windows\System32\migisol.?RegEnumKeyExW@CIlAdvapi32@@UEAAJPEAUHKEY__@@KPEAGPEAK212PEAU_FILETIME@@@Z
  ?RegEnumValueW@CIlAdvapi32@@UEAAJPEAUHKEY__@@KPEAGPEAK22PEAE2@Z=C:\Windows\System32\migisol.?RegEnumValueW@CIlAdvapi32@@UEAAJPEAUHKEY__@@KPEAGPEAK22PEAE2@Z
  ?RegFlushKey@CIlAdvapi32@@UEAAJPEAUHKEY__@@@Z=C:\Windows\System32\migisol.?RegFlushKey@CIlAdvapi32@@UEAAJPEAUHKEY__@@@Z
  ?RegLoadKeyW@CIlAdvapi32@@UEAAJPEAUHKEY__@@PEBG1@Z=C:\Windows\System32\migisol.?RegLoadKeyW@CIlAdvapi32@@UEAAJPEAUHKEY__@@PEBG1@Z
  ?RegOpenKeyExW@CIlAdvapi32@@UEAAJPEAUHKEY__@@PEBGKKPEAPEAU2@@Z=C:\Windows\System32\migisol.?RegOpenKeyExW@CIlAdvapi32@@UEAAJPEAUHKEY__@@PEBGKKPEAPEAU2@@Z
  ?RegQueryInfoKeyW@CIlAdvapi32@@UEAAJPEAUHKEY__@@PEAGPEAK22222222PEAU_FILETIME@@@Z=C:\Windows\System32\migisol.?RegQueryInfoKeyW@CIlAdvapi32@@UEAAJPEAUHKEY__@@PEAGPEAK22222222PEAU_FILETIME@@@Z
  ?RegQueryValueExW@CIlAdvapi32@@UEAAJPEAUHKEY__@@PEBGPEAK2PEAE2@Z=C:\Windows\System32\migisol.?RegQueryValueExW@CIlAdvapi32@@UEAAJPEAUHKEY__@@PEBGPEAK2PEAE2@Z
  ?RegSetKeySecurity@CIlAdvapi32@@UEAAJPEAUHKEY__@@KPEAX@Z=C:\Windows\System32\migisol.?RegSetKeySecurity@CIlAdvapi32@@UEAAJPEAUHKEY__@@KPEAX@Z
  ?RegSetValueExW@CIlAdvapi32@@UEAAJPEAUHKEY__@@PEBGKKPEBEK@Z=C:\Windows\System32\migisol.?RegSetValueExW@CIlAdvapi32@@UEAAJPEAUHKEY__@@PEBGKKPEBEK@Z
  ?RegUnLoadKeyW@CIlAdvapi32@@UEAAJPEAUHKEY__@@PEBG@Z=C:\Windows\System32\migisol.?RegUnLoadKeyW@CIlAdvapi32@@UEAAJPEAUHKEY__@@PEBG@Z
  ?RegisterWaitForSingleObject@CIlNt4Kernel32@@UEAAHPEAPEAXPEAXP6AX1E@Z1KK@Z=C:\Windows\System32\migisol.?RegisterWaitForSingleObject@CIlNt4Kernel32@@UEAAHPEAPEAXPEAXP6AX1E@Z1KK@Z
  ?ReleaseProc@CDynLib@@IEAAXAEAP6A_JXZAEAK@Z=C:\Windows\System32\migisol.?ReleaseProc@CDynLib@@IEAAXAEAP6A_JXZAEAK@Z
  ?RemoveDirectoryW@CIlKernel32@@UEAAHPEBG@Z=C:\Windows\System32\migisol.?RemoveDirectoryW@CIlKernel32@@UEAAHPEBG@Z
  ?ResetEvent@CIlKernel32@@UEAAHPEAX@Z=C:\Windows\System32\migisol.?ResetEvent@CIlKernel32@@UEAAHPEAX@Z
  ?SetEndOfFile@CIlKernel32@@UEAAHPEAX@Z=C:\Windows\System32\migisol.?SetEndOfFile@CIlKernel32@@UEAAHPEAX@Z
  ?SetErrorMode@CIlKernel32@@UEAAII@Z=C:\Windows\System32\migisol.?SetErrorMode@CIlKernel32@@UEAAII@Z
  ?SetEvent@CIlKernel32@@UEAAHPEAX@Z=C:\Windows\System32\migisol.?SetEvent@CIlKernel32@@UEAAHPEAX@Z
  ?SetFileAttributesW@CIlKernel32@@UEAAHPEBGK@Z=C:\Windows\System32\migisol.?SetFileAttributesW@CIlKernel32@@UEAAHPEBGK@Z
  ?SetFilePointer@CIlKernel32@@UEAAKPEAXJPEAJK@Z=C:\Windows\System32\migisol.?SetFilePointer@CIlKernel32@@UEAAKPEAXJPEAJK@Z
  ?SetFileTime@CIlKernel32@@UEAAHPEAXPEBU_FILETIME@@11@Z=C:\Windows\System32\migisol.?SetFileTime@CIlKernel32@@UEAAHPEAXPEBU_FILETIME@@11@Z
  ?SetLastError@CIlKernel32@@UEAAXK@Z=C:\Windows\System32\migisol.?SetLastError@CIlKernel32@@UEAAXK@Z
  ?SetNamedSecurityInfoW@CIlAdvapi32@@UEAAKPEAGW4_SE_OBJECT_TYPE@@KPEAX2PEAU_ACL@@3@Z=C:\Windows\System32\migisol.?SetNamedSecurityInfoW@CIlAdvapi32@@UEAAKPEAGW4_SE_OBJECT_TYPE@@KPEAX2PEAU_ACL@@3@Z
  ?SetSecurityDescriptorOwner@CIlAdvapi32@@UEAAHPEAX0H@Z=C:\Windows\System32\migisol.?SetSecurityDescriptorOwner@CIlAdvapi32@@UEAAHPEAX0H@Z
  ?SetSecurityInfo@CIlAdvapi32@@UEAAKPEAXW4_SE_OBJECT_TYPE@@K00PEAU_ACL@@2@Z=C:\Windows\System32\migisol.?SetSecurityInfo@CIlAdvapi32@@UEAAKPEAXW4_SE_OBJECT_TYPE@@K00PEAU_ACL@@2@Z
  ?SetupCloseFileQueue@CIlNt4Setupapi@@UEAAHPEAX@Z=C:\Windows\System32\migisol.?SetupCloseFileQueue@CIlNt4Setupapi@@UEAAHPEAX@Z
  ?SetupCloseInfFile@CIlSetupapi@@UEAAXPEAX@Z=C:\Windows\System32\migisol.?SetupCloseInfFile@CIlSetupapi@@UEAAXPEAX@Z
  ?SetupDiBuildDriverInfoList@CIlNt4Setupapi@@UEAAHPEAXPEAU_SP_DEVINFO_DATA@@K@Z=C:\Windows\System32\migisol.?SetupDiBuildDriverInfoList@CIlNt4Setupapi@@UEAAHPEAXPEAU_SP_DEVINFO_DATA@@K@Z
  ?SetupDiCallClassInstaller@CIlNt4Setupapi@@UEAAHIPEAXPEAU_SP_DEVINFO_DATA@@@Z=C:\Windows\System32\migisol.?SetupDiCallClassInstaller@CIlNt4Setupapi@@UEAAHIPEAXPEAU_SP_DEVINFO_DATA@@@Z
  ?SetupDiCreateDeviceInfoListExW@CIlNt4Setupapi@@UEAAPEAXPEBU_GUID@@PEAUHWND__@@PEBGPEAX@Z=C:\Windows\System32\migisol.?SetupDiCreateDeviceInfoListExW@CIlNt4Setupapi@@UEAAPEAXPEBU_GUID@@PEAUHWND__@@PEBGPEAX@Z
  ?SetupDiDestroyDeviceInfoList@CIlNt4Setupapi@@UEAAHPEAX@Z=C:\Windows\System32\migisol.?SetupDiDestroyDeviceInfoList@CIlNt4Setupapi@@UEAAHPEAX@Z
  ?SetupDiDestroyDriverInfoList@CIlNt4Setupapi@@UEAAHPEAXPEAU_SP_DEVINFO_DATA@@K@Z=C:\Windows\System32\migisol.?SetupDiDestroyDriverInfoList@CIlNt4Setupapi@@UEAAHPEAXPEAU_SP_DEVINFO_DATA@@K@Z
  ?SetupDiEnumDeviceInfo@CIlNt4Setupapi@@UEAAHPEAXKPEAU_SP_DEVINFO_DATA@@@Z=C:\Windows\System32\migisol.?SetupDiEnumDeviceInfo@CIlNt4Setupapi@@UEAAHPEAXKPEAU_SP_DEVINFO_DATA@@@Z
  ?SetupDiEnumDeviceInterfaces@CIlNt4Setupapi@@UEAAHPEAXPEAU_SP_DEVINFO_DATA@@PEBU_GUID@@KPEAU_SP_DEVICE_INTERFACE_DATA@@@Z=C:\Windows\System32\migisol.?SetupDiEnumDeviceInterfaces@CIlNt4Setupapi@@UEAAHPEAXPEAU_SP_DEVINFO_DATA@@PEBU_GUID@@KPEAU_SP_DEVICE_INTERFACE_DATA@@@Z
  ?SetupDiEnumDriverInfoW@CIlNt4Setupapi@@UEAAHPEAXPEAU_SP_DEVINFO_DATA@@KKPEAU_SP_DRVINFO_DATA_V2_W@@@Z=C:\Windows\System32\migisol.?SetupDiEnumDriverInfoW@CIlNt4Setupapi@@UEAAHPEAXPEAU_SP_DEVINFO_DATA@@KKPEAU_SP_DRVINFO_DATA_V2_W@@@Z
  ?SetupDiGetClassDevsExW@CIlNt4Setupapi@@UEAAPEAXPEBU_GUID@@PEBGPEAUHWND__@@KPEAX13@Z=C:\Windows\System32\migisol.?SetupDiGetClassDevsExW@CIlNt4Setupapi@@UEAAPEAXPEBU_GUID@@PEBGPEAUHWND__@@KPEAX13@Z
  ?SetupDiGetClassDevsW@CIlNt4Setupapi@@UEAAPEAXPEBU_GUID@@PEBGPEAUHWND__@@K@Z=C:\Windows\System32\migisol.?SetupDiGetClassDevsW@CIlNt4Setupapi@@UEAAPEAXPEBU_GUID@@PEBGPEAUHWND__@@K@Z
  ?SetupDiGetDeviceInstallParamsW@CIlNt4Setupapi@@UEAAHPEAXPEAU_SP_DEVINFO_DATA@@PEAU_SP_DEVINSTALL_PARAMS_W@@@Z=C:\Windows\System32\migisol.?SetupDiGetDeviceInstallParamsW@CIlNt4Setupapi@@UEAAHPEAXPEAU_SP_DEVINFO_DATA@@PEAU_SP_DEVINSTALL_PARAMS_W@@@Z
  ?SetupDiGetDeviceInterfaceDetailW@CIlNt4Setupapi@@UEAAHPEAXPEAU_SP_DEVICE_INTERFACE_DATA@@PEAU_SP_DEVICE_INTERFACE_DETAIL_DATA_W@@KPEAKPEAU_SP_DEVINFO_DATA@@@Z=C:\Windows\System32\migisol.?SetupDiGetDeviceInterfaceDetailW@CIlNt4Setupapi@@UEAAHPEAXPEAU_SP_DEVICE_INTERFACE_DATA@@PEAU_SP_DEVICE_INTERFACE_DETAIL_DATA_W@@KPEAKPEAU_SP_DEVINFO_DATA@@@Z
  ?SetupDiGetDeviceRegistryPropertyW@CIlNt4Setupapi@@UEAAHPEAXPEAU_SP_DEVINFO_DATA@@KPEAKPEAEK2@Z=C:\Windows\System32\migisol.?SetupDiGetDeviceRegistryPropertyW@CIlNt4Setupapi@@UEAAHPEAXPEAU_SP_DEVINFO_DATA@@KPEAKPEAEK2@Z
  ?SetupDiGetDriverInfoDetailW@CIlNt4Setupapi@@UEAAHPEAXPEAU_SP_DEVINFO_DATA@@PEAU_SP_DRVINFO_DATA_V2_W@@PEAU_SP_DRVINFO_DETAIL_DATA_W@@KPEAK@Z=C:\Windows\System32\migisol.?SetupDiGetDriverInfoDetailW@CIlNt4Setupapi@@UEAAHPEAXPEAU_SP_DEVINFO_DATA@@PEAU_SP_DRVINFO_DATA_V2_W@@PEAU_SP_DRVINFO_DETAIL_DATA_W@@KPEAK@Z
  ?SetupDiOpenDevRegKey@CIlNt4Setupapi@@UEAAPEAUHKEY__@@PEAXPEAU_SP_DEVINFO_DATA@@KKKK@Z=C:\Windows\System32\migisol.?SetupDiOpenDevRegKey@CIlNt4Setupapi@@UEAAPEAUHKEY__@@PEAXPEAU_SP_DEVINFO_DATA@@KKKK@Z
  ?SetupDiOpenDeviceInfoW@CIlNt4Setupapi@@UEAAHPEAXPEBGPEAUHWND__@@KPEAU_SP_DEVINFO_DATA@@@Z=C:\Windows\System32\migisol.?SetupDiOpenDeviceInfoW@CIlNt4Setupapi@@UEAAHPEAXPEBGPEAUHWND__@@KPEAU_SP_DEVINFO_DATA@@@Z
  ?SetupDiSetDeviceInstallParamsW@CIlNt4Setupapi@@UEAAHPEAXPEAU_SP_DEVINFO_DATA@@PEAU_SP_DEVINSTALL_PARAMS_W@@@Z=C:\Windows\System32\migisol.?SetupDiSetDeviceInstallParamsW@CIlNt4Setupapi@@UEAAHPEAXPEAU_SP_DEVINFO_DATA@@PEAU_SP_DEVINSTALL_PARAMS_W@@@Z
  ?SetupDiSetSelectedDriverW@CIlNt4Setupapi@@UEAAHPEAXPEAU_SP_DEVINFO_DATA@@PEAU_SP_DRVINFO_DATA_V2_W@@@Z=C:\Windows\System32\migisol.?SetupDiSetSelectedDriverW@CIlNt4Setupapi@@UEAAHPEAXPEAU_SP_DEVINFO_DATA@@PEAU_SP_DRVINFO_DATA_V2_W@@@Z
  ?SetupFindFirstLineW@CIlSetupapi@@UEAAHPEAXPEBG1PEAU_INFCONTEXT@@@Z=C:\Windows\System32\migisol.?SetupFindFirstLineW@CIlSetupapi@@UEAAHPEAXPEBG1PEAU_INFCONTEXT@@@Z
  ?SetupFindNextLine@CIlSetupapi@@UEAAHPEAU_INFCONTEXT@@0@Z=C:\Windows\System32\migisol.?SetupFindNextLine@CIlSetupapi@@UEAAHPEAU_INFCONTEXT@@0@Z
  ?SetupGetInfInformationW@CIlNt4Setupapi@@UEAAHPEBXKPEAU_SP_INF_INFORMATION@@KPEAK@Z=C:\Windows\System32\migisol.?SetupGetInfInformationW@CIlNt4Setupapi@@UEAAHPEBXKPEAU_SP_INF_INFORMATION@@KPEAK@Z
  ?SetupGetLineTextW@CIlSetupapi@@UEAAHPEAU_INFCONTEXT@@PEAXPEBG2PEAGKPEAK@Z=C:\Windows\System32\migisol.?SetupGetLineTextW@CIlSetupapi@@UEAAHPEAU_INFCONTEXT@@PEAXPEBG2PEAGKPEAK@Z
  ?SetupGetStringFieldW@CIlSetupapi@@UEAAHPEAU_INFCONTEXT@@KPEAGKPEAK@Z=C:\Windows\System32\migisol.?SetupGetStringFieldW@CIlSetupapi@@UEAAHPEAU_INFCONTEXT@@KPEAGKPEAK@Z
  ?SetupOpenFileQueue@CIlNt4Setupapi@@UEAAPEAXXZ=C:\Windows\System32\migisol.?SetupOpenFileQueue@CIlNt4Setupapi@@UEAAPEAXXZ
  ?SetupOpenInfFileW@CIlSetupapi@@UEAAPEAXPEBG0KPEAI@Z=C:\Windows\System32\migisol.?SetupOpenInfFileW@CIlSetupapi@@UEAAPEAXPEBG0KPEAI@Z
  ?SetupQueryInfOriginalFileInformationW@CIlNt4Setupapi@@UEAAHPEAU_SP_INF_INFORMATION@@IPEAU_SP_ALTPLATFORM_INFO_V2@@PEAU_SP_ORIGINAL_FILE_INFO_W@@@Z=C:\Windows\System32\migisol.?SetupQueryInfOriginalFileInformationW@CIlNt4Setupapi@@UEAAHPEAU_SP_INF_INFORMATION@@IPEAU_SP_ALTPLATFORM_INFO_V2@@PEAU_SP_ORIGINAL_FILE_INFO_W@@@Z
  ?SetupScanFileQueueW@CIlNt4Setupapi@@UEAAHPEAXKPEAUHWND__@@P6AI0I_K2@Z0PEAK@Z=C:\Windows\System32\migisol.?SetupScanFileQueueW@CIlNt4Setupapi@@UEAAHPEAXKPEAUHWND__@@P6AI0I_K2@Z0PEAK@Z
  ?ShellExecuteExW@CIlShell32@@UEAAHPEAU_SHELLEXECUTEINFOW@@@Z=C:\Windows\System32\migisol.?ShellExecuteExW@CIlShell32@@UEAAHPEAU_SHELLEXECUTEINFOW@@@Z
  ?Sleep@CIlKernel32@@UEAAXK@Z=C:\Windows\System32\migisol.?Sleep@CIlKernel32@@UEAAXK@Z
  ?StartServiceW@CIlNt4Advapi32@@UEAAHPEAUSC_HANDLE__@@KPEAPEBG@Z=C:\Windows\System32\migisol.?StartServiceW@CIlNt4Advapi32@@UEAAHPEAUSC_HANDLE__@@KPEAPEBG@Z
  ?SysprepIsStagedOS@CIlDeplorch@@UEAAHXZ=C:\Windows\System32\migisol.?SysprepIsStagedOS@CIlDeplorch@@UEAAHXZ
  ?TerminateProcess@CIlKernel32@@UEAAHPEAXI@Z=C:\Windows\System32\migisol.?TerminateProcess@CIlKernel32@@UEAAHPEAXI@Z
  ?UnlockServiceDatabase@CIlNt4Advapi32@@UEAAHPEAX@Z=C:\Windows\System32\migisol.?UnlockServiceDatabase@CIlNt4Advapi32@@UEAAHPEAX@Z
  ?UnmapViewOfFile@CIlKernel32@@UEAAHPEBX@Z=C:\Windows\System32\migisol.?UnmapViewOfFile@CIlKernel32@@UEAAHPEBX@Z
  ?VariantClear@CIlOleaut32@@UEAAJPEAUtagVARIANT@@@Z=C:\Windows\System32\migisol.?VariantClear@CIlOleaut32@@UEAAJPEAUtagVARIANT@@@Z
  ?VerQueryValueW@CIlVersion@@UEAAHQEAXPEBGPEAPEAXPEAI@Z=C:\Windows\System32\migisol.?VerQueryValueW@CIlVersion@@UEAAHQEAXPEBGPEAPEAXPEAI@Z
  ?VirtualAlloc@CIlKernel32@@UEAAPEAXPEAX_KKK@Z=C:\Windows\System32\migisol.?VirtualAlloc@CIlKernel32@@UEAAPEAXPEAX_KKK@Z
  ?VirtualFree@CIlKernel32@@UEAAHPEAX_KK@Z=C:\Windows\System32\migisol.?VirtualFree@CIlKernel32@@UEAAHPEAX_KK@Z
  ?WIMApplyImage@CIlWimgapi@@UEAAHPEAXPEAGK@Z=C:\Windows\System32\migisol.?WIMApplyImage@CIlWimgapi@@UEAAHPEAXPEAGK@Z
  ?WIMCloseHandle@CIlWimgapi@@UEAAHPEAX@Z=C:\Windows\System32\migisol.?WIMCloseHandle@CIlWimgapi@@UEAAHPEAX@Z
  ?WIMCreateFile@CIlWimgapi@@UEAAPEAXPEAGKKKKPEAK@Z=C:\Windows\System32\migisol.?WIMCreateFile@CIlWimgapi@@UEAAPEAXPEAGKKKKPEAK@Z
  ?WIMLoadImage@CIlWimgapi@@UEAAPEAXPEAXK@Z=C:\Windows\System32\migisol.?WIMLoadImage@CIlWimgapi@@UEAAPEAXPEAXK@Z
  ?WIMRegisterMessageCallback@CIlWimgapi@@UEAAKPEAXP6A_JXZ0@Z=C:\Windows\System32\migisol.?WIMRegisterMessageCallback@CIlWimgapi@@UEAAKPEAXP6A_JXZ0@Z
  ?WIMSetTemporaryPath@CIlWimgapi@@UEAAHPEAXPEAG@Z=C:\Windows\System32\migisol.?WIMSetTemporaryPath@CIlWimgapi@@UEAAHPEAXPEAG@Z
  ?WIMUnregisterMessageCallback@CIlWimgapi@@UEAAHPEAXP6A_JXZ@Z=C:\Windows\System32\migisol.?WIMUnregisterMessageCallback@CIlWimgapi@@UEAAHPEAXP6A_JXZ@Z
  ?WSACleanup@CIlWs2_32@@UEAAHXZ=C:\Windows\System32\migisol.?WSACleanup@CIlWs2_32@@UEAAHXZ
  ?WSAGetLastError@CIlWs2_32@@UEAAHXZ=C:\Windows\System32\migisol.?WSAGetLastError@CIlWs2_32@@UEAAHXZ
  ?WSAIoctl@CIlWs2_32@@UEAAH_KKPEAXK1KPEAKPEAU_OVERLAPPED@@P6AXKK3K@Z@Z=C:\Windows\System32\migisol.?WSAIoctl@CIlWs2_32@@UEAAH_KKPEAXK1KPEAKPEAU_OVERLAPPED@@P6AXKK3K@Z@Z
  ?WSAStartup@CIlWs2_32@@UEAAHGPEAUWSAData@@@Z=C:\Windows\System32\migisol.?WSAStartup@CIlWs2_32@@UEAAHGPEAUWSAData@@@Z
  ?WaitForMultipleObjects@CIlKernel32@@UEAAKKPEBQEAXHK@Z=C:\Windows\System32\migisol.?WaitForMultipleObjects@CIlKernel32@@UEAAKKPEBQEAXHK@Z
  ?WaitForSingleObject@CIlKernel32@@UEAAKPEAXK@Z=C:\Windows\System32\migisol.?WaitForSingleObject@CIlKernel32@@UEAAKPEAXK@Z
  ?WriteFile@CIlKernel32@@UEAAHPEAXPEBXKPEAKPEAU_OVERLAPPED@@@Z=C:\Windows\System32\migisol.?WriteFile@CIlKernel32@@UEAAHPEAXPEBXKPEAKPEAU_OVERLAPPED@@@Z
  ?__WSAFDIsSet@CIlWs2_32@@UEAAH_KPEAUfd_set@@@Z=C:\Windows\System32\migisol.?__WSAFDIsSet@CIlWs2_32@@UEAAH_KPEAUfd_set@@@Z
  ?accept@CIlWs2_32@@UEAA_K_KPEAUsockaddr@@PEAH@Z=C:\Windows\System32\migisol.?accept@CIlWs2_32@@UEAA_K_KPEAUsockaddr@@PEAH@Z
  ?bind@CIlWs2_32@@UEAAH_KPEBUsockaddr@@H@Z=C:\Windows\System32\migisol.?bind@CIlWs2_32@@UEAAH_KPEBUsockaddr@@H@Z
  ?closesocket@CIlWs2_32@@UEAAH_K@Z=C:\Windows\System32\migisol.?closesocket@CIlWs2_32@@UEAAH_K@Z
  ?connect@CIlWs2_32@@UEAAH_KPEBUsockaddr@@H@Z=C:\Windows\System32\migisol.?connect@CIlWs2_32@@UEAAH_KPEBUsockaddr@@H@Z
  ?freeaddrinfo@CIlW2kDynWs2_32@@UEAAXPEAUaddrinfo@@@Z=C:\Windows\System32\migisol.?freeaddrinfo@CIlW2kDynWs2_32@@UEAAXPEAUaddrinfo@@@Z
  ?g_Advapi32@@3PEAUIAdvapi32Interface@@EA=C:\Windows\System32\migisol.?g_Advapi32@@3PEAUIAdvapi32Interface@@EA
  ?g_Deplorch@@3PEAUIDeplorchInterface@@EA=C:\Windows\System32\migisol.?g_Deplorch@@3PEAUIDeplorchInterface@@EA
  ?g_Iphlpapi@@3PEAUIIphlpapiInterface@@EA=C:\Windows\System32\migisol.?g_Iphlpapi@@3PEAUIIphlpapiInterface@@EA
  ?g_Kernel32@@3PEAUIKernel32Interface@@EA=C:\Windows\System32\migisol.?g_Kernel32@@3PEAUIKernel32Interface@@EA
  ?g_Muisetupapi@@3PEAUIMuisetupapiInterface@@EA=C:\Windows\System32\migisol.?g_Muisetupapi@@3PEAUIMuisetupapiInterface@@EA
  ?g_Nt4Advapi32@@3PEAUIW2kAdvapi32Interface@@EA=C:\Windows\System32\migisol.?g_Nt4Advapi32@@3PEAUIW2kAdvapi32Interface@@EA
  ?g_Nt4Kernel32@@3PEAUIW2kKernel32Interface@@EA=C:\Windows\System32\migisol.?g_Nt4Kernel32@@3PEAUIW2kKernel32Interface@@EA
  ?g_Nt4Netapi32@@3PEAUIW2kNetapi32Interface@@EA=C:\Windows\System32\migisol.?g_Nt4Netapi32@@3PEAUIW2kNetapi32Interface@@EA
  ?g_Nt4Setupapi@@3PEAUIW2kSetupapiInterface@@EA=C:\Windows\System32\migisol.?g_Nt4Setupapi@@3PEAUIW2kSetupapiInterface@@EA
  ?g_Nt4User32@@3PEAUIW2kUser32Interface@@EA=C:\Windows\System32\migisol.?g_Nt4User32@@3PEAUIW2kUser32Interface@@EA
  ?g_Nt4Userenv@@3PEAUIW2kUserenvInterface@@EA=C:\Windows\System32\migisol.?g_Nt4Userenv@@3PEAUIW2kUserenvInterface@@EA
  ?g_Nt6Userenv@@3PEAUINt6UserenvInterface@@EA=C:\Windows\System32\migisol.?g_Nt6Userenv@@3PEAUINt6UserenvInterface@@EA
  ?g_Ole32@@3PEAUIOle32Interface@@EA=C:\Windows\System32\migisol.?g_Ole32@@3PEAUIOle32Interface@@EA
  ?g_Oleaut32@@3PEAUIOleaut32Interface@@EA=C:\Windows\System32\migisol.?g_Oleaut32@@3PEAUIOleaut32Interface@@EA
  ?g_Setupapi@@3PEAUISetupapiInterface@@EA=C:\Windows\System32\migisol.?g_Setupapi@@3PEAUISetupapiInterface@@EA
  ?g_Shell32@@3PEAUIShell32Interface@@EA=C:\Windows\System32\migisol.?g_Shell32@@3PEAUIShell32Interface@@EA
  ?g_User32@@3PEAUIUser32Interface@@EA=C:\Windows\System32\migisol.?g_User32@@3PEAUIUser32Interface@@EA
  ?g_Version@@3PEAUIVersionInterface@@EA=C:\Windows\System32\migisol.?g_Version@@3PEAUIVersionInterface@@EA
  ?g_W2kWs2_32@@3PEAUIlW2kDynWs2_32Interface@@EA=C:\Windows\System32\migisol.?g_W2kWs2_32@@3PEAUIlW2kDynWs2_32Interface@@EA
  ?g_Wimgapi@@3PEAUIWimgapiInterface@@EA=C:\Windows\System32\migisol.?g_Wimgapi@@3PEAUIWimgapiInterface@@EA
  ?g_Ws2_32@@3PEAUIWs2_32Interface@@EA=C:\Windows\System32\migisol.?g_Ws2_32@@3PEAUIWs2_32Interface@@EA
  ?get_ChangeServiceConfigW@CIlNt4Advapi32@@QEAAP6AHPEAUSC_HANDLE__@@KKKPEBG1PEAK1111@ZXZ=C:\Windows\System32\migisol.?get_ChangeServiceConfigW@CIlNt4Advapi32@@QEAAP6AHPEAUSC_HANDLE__@@KKKPEBG1PEAK1111@ZXZ
  ?get_CloseServiceHandle@CIlNt4Advapi32@@QEAAP6AHPEAUSC_HANDLE__@@@ZXZ=C:\Windows\System32\migisol.?get_CloseServiceHandle@CIlNt4Advapi32@@QEAAP6AHPEAUSC_HANDLE__@@@ZXZ
  ?get_ConvertSecurityDescriptorToStringSecurityDescriptorW@CIlNt4Advapi32@@QEAAP6AHPEAXKKPEAPEAGPEAK@ZXZ=C:\Windows\System32\migisol.?get_ConvertSecurityDescriptorToStringSecurityDescriptorW@CIlNt4Advapi32@@QEAAP6AHPEAXKKPEAPEAGPEAK@ZXZ
  ?get_ConvertSidToStringSidW@CIlNt4Advapi32@@QEAAP6AHPEAXPEAPEAG@ZXZ=C:\Windows\System32\migisol.?get_ConvertSidToStringSidW@CIlNt4Advapi32@@QEAAP6AHPEAXPEAPEAG@ZXZ
  ?get_ConvertStringSecurityDescriptorToSecurityDescriptorW@CIlNt4Advapi32@@QEAAP6AHPEBGKPEAPEAXPEAK@ZXZ=C:\Windows\System32\migisol.?get_ConvertStringSecurityDescriptorToSecurityDescriptorW@CIlNt4Advapi32@@QEAAP6AHPEBGKPEAPEAXPEAK@ZXZ
  ?get_ConvertStringSidToSidW@CIlNt4Advapi32@@QEAAP6AHPEAGPEAPEAX@ZXZ=C:\Windows\System32\migisol.?get_ConvertStringSidToSidW@CIlNt4Advapi32@@QEAAP6AHPEAGPEAPEAX@ZXZ
  ?get_CreateProfile@CIlNt6Userenv@@QEAAP6AJPEBG0PEAGK@ZXZ=C:\Windows\System32\migisol.?get_CreateProfile@CIlNt6Userenv@@QEAAP6AJPEBG0PEAGK@ZXZ
  ?get_CreateServiceW@CIlNt4Advapi32@@QEAAP6APEAUSC_HANDLE__@@PEAU2@PEBG1KKKK11PEAK111@ZXZ=C:\Windows\System32\migisol.?get_CreateServiceW@CIlNt4Advapi32@@QEAAP6APEAUSC_HANDLE__@@PEAU2@PEBG1KKKK11PEAK111@ZXZ
  ?get_CreateToolhelp32Snapshot@CIlNt4Kernel32@@QEAAP6APEAXKK@ZXZ=C:\Windows\System32\migisol.?get_CreateToolhelp32Snapshot@CIlNt4Kernel32@@QEAAP6APEAXKK@ZXZ
  ?get_CreateUserProfileExW@CIlNt4Userenv@@QEAAP6AHPEAXPEBG1PEAGKH@ZXZ=C:\Windows\System32\migisol.?get_CreateUserProfileExW@CIlNt4Userenv@@QEAAP6AHPEAXPEBG1PEAGKH@ZXZ
  ?get_CreateWellKnownSid@CIlNt4Advapi32@@QEAAP6AHW4WELL_KNOWN_SID_TYPE@@PEAX1PEAK@ZXZ=C:\Windows\System32\migisol.?get_CreateWellKnownSid@CIlNt4Advapi32@@QEAAP6AHW4WELL_KNOWN_SID_TYPE@@PEAX1PEAK@ZXZ
  ?get_EncryptFileW@CIlNt4Advapi32@@QEAAP6AHPEBG@ZXZ=C:\Windows\System32\migisol.?get_EncryptFileW@CIlNt4Advapi32@@QEAAP6AHPEBG@ZXZ
  ?get_EnumServicesStatusExW@CIlNt4Advapi32@@QEAAP6AHPEAUSC_HANDLE__@@W4_SC_ENUM_TYPE@@KKPEAEKPEAK33PEBG@ZXZ=C:\Windows\System32\migisol.?get_EnumServicesStatusExW@CIlNt4Advapi32@@QEAAP6AHPEAUSC_HANDLE__@@W4_SC_ENUM_TYPE@@KKPEAEKPEAK33PEBG@ZXZ
  ?get_GetSystemWindowsDirectoryW@CIlNt4Kernel32@@QEAAP6AIPEAGI@ZXZ=C:\Windows\System32\migisol.?get_GetSystemWindowsDirectoryW@CIlNt4Kernel32@@QEAAP6AIPEAGI@ZXZ
  ?get_GlobalMemoryStatusEx@CIlNt4Kernel32@@QEAAP6AHPEAU_MEMORYSTATUSEX@@@ZXZ=C:\Windows\System32\migisol.?get_GlobalMemoryStatusEx@CIlNt4Kernel32@@QEAAP6AHPEAU_MEMORYSTATUSEX@@@ZXZ
  ?get_InitiateSystemShutdownExW@CIlNt4Advapi32@@QEAAP6AHPEAG0KHHK@ZXZ=C:\Windows\System32\migisol.?get_InitiateSystemShutdownExW@CIlNt4Advapi32@@QEAAP6AHPEAG0KHHK@ZXZ
  ?get_LockServiceDatabase@CIlNt4Advapi32@@QEAAP6APEAXPEAUSC_HANDLE__@@@ZXZ=C:\Windows\System32\migisol.?get_LockServiceDatabase@CIlNt4Advapi32@@QEAAP6APEAXPEAUSC_HANDLE__@@@ZXZ
  ?get_LockSetForegroundWindow@CIlNt4User32@@QEAAP6AHI@ZXZ=C:\Windows\System32\migisol.?get_LockSetForegroundWindow@CIlNt4User32@@QEAAP6AHI@ZXZ
  ?get_NetApiBufferFree@CIlNt4Netapi32@@QEAAP6AKPEAX@ZXZ=C:\Windows\System32\migisol.?get_NetApiBufferFree@CIlNt4Netapi32@@QEAAP6AKPEAX@ZXZ
  ?get_NetLocalGroupAdd@CIlNt4Netapi32@@QEAAP6AKPEBGKPEAEPEAK@ZXZ=C:\Windows\System32\migisol.?get_NetLocalGroupAdd@CIlNt4Netapi32@@QEAAP6AKPEBGKPEAEPEAK@ZXZ
  ?get_NetLocalGroupAddMembers@CIlNt4Netapi32@@QEAAP6AKPEBG0KPEAEK@ZXZ=C:\Windows\System32\migisol.?get_NetLocalGroupAddMembers@CIlNt4Netapi32@@QEAAP6AKPEBG0KPEAEK@ZXZ
  ?get_NetLocalGroupEnum@CIlNt4Netapi32@@QEAAP6AKPEBGKPEAPEAEKPEAK2PEA_K@ZXZ=C:\Windows\System32\migisol.?get_NetLocalGroupEnum@CIlNt4Netapi32@@QEAAP6AKPEBGKPEAPEAEKPEAK2PEA_K@ZXZ
  ?get_NetUserAdd@CIlNt4Netapi32@@QEAAP6AKPEBGKPEAEPEAK@ZXZ=C:\Windows\System32\migisol.?get_NetUserAdd@CIlNt4Netapi32@@QEAAP6AKPEBGKPEAEPEAK@ZXZ
  ?get_NetUserDel@CIlNt4Netapi32@@QEAAP6AKPEBG0@ZXZ=C:\Windows\System32\migisol.?get_NetUserDel@CIlNt4Netapi32@@QEAAP6AKPEBG0@ZXZ
  ?get_NetUserEnum@CIlNt4Netapi32@@QEAAP6AKPEBGKKPEAPEAEKPEAK22@ZXZ=C:\Windows\System32\migisol.?get_NetUserEnum@CIlNt4Netapi32@@QEAAP6AKPEBGKKPEAPEAEKPEAK22@ZXZ
  ?get_NetUserGetLocalGroups@CIlNt4Netapi32@@QEAAP6AKPEBG0KKPEAPEAEKPEAK2@ZXZ=C:\Windows\System32\migisol.?get_NetUserGetLocalGroups@CIlNt4Netapi32@@QEAAP6AKPEBG0KKPEAPEAEKPEAK2@ZXZ
  ?get_NetWkstaGetInfo@CIlNt4Netapi32@@QEAAP6AKPEAGKPEAPEAE@ZXZ=C:\Windows\System32\migisol.?get_NetWkstaGetInfo@CIlNt4Netapi32@@QEAAP6AKPEAGKPEAPEAE@ZXZ
  ?get_OpenSCManagerW@CIlNt4Advapi32@@QEAAP6APEAUSC_HANDLE__@@PEBG0K@ZXZ=C:\Windows\System32\migisol.?get_OpenSCManagerW@CIlNt4Advapi32@@QEAAP6APEAUSC_HANDLE__@@PEBG0K@ZXZ
  ?get_OpenServiceW@CIlNt4Advapi32@@QEAAP6APEAUSC_HANDLE__@@PEAU2@PEBGK@ZXZ=C:\Windows\System32\migisol.?get_OpenServiceW@CIlNt4Advapi32@@QEAAP6APEAUSC_HANDLE__@@PEAU2@PEBGK@ZXZ
  ?get_Process32FirstW@CIlNt4Kernel32@@QEAAP6AHPEAXPEAUtagPROCESSENTRY32W@@@ZXZ=C:\Windows\System32\migisol.?get_Process32FirstW@CIlNt4Kernel32@@QEAAP6AHPEAXPEAUtagPROCESSENTRY32W@@@ZXZ
  ?get_Process32NextW@CIlNt4Kernel32@@QEAAP6AHPEAXPEAUtagPROCESSENTRY32W@@@ZXZ=C:\Windows\System32\migisol.?get_Process32NextW@CIlNt4Kernel32@@QEAAP6AHPEAXPEAUtagPROCESSENTRY32W@@@ZXZ
  ?get_QueryServiceConfigW@CIlNt4Advapi32@@QEAAP6AHPEAUSC_HANDLE__@@PEAU_QUERY_SERVICE_CONFIGW@@KPEAK@ZXZ=C:\Windows\System32\migisol.?get_QueryServiceConfigW@CIlNt4Advapi32@@QEAAP6AHPEAUSC_HANDLE__@@PEAU_QUERY_SERVICE_CONFIGW@@KPEAK@ZXZ
  ?get_RegisterWaitForSingleObject@CIlNt4Kernel32@@QEAAP6AHPEAPEAXPEAXP6AX1E@Z1KK@ZXZ=C:\Windows\System32\migisol.?get_RegisterWaitForSingleObject@CIlNt4Kernel32@@QEAAP6AHPEAPEAXPEAXP6AX1E@Z1KK@ZXZ
  ?get_SetupCloseFileQueue@CIlNt4Setupapi@@QEAAP6AHPEAX@ZXZ=C:\Windows\System32\migisol.?get_SetupCloseFileQueue@CIlNt4Setupapi@@QEAAP6AHPEAX@ZXZ
  ?get_SetupDiBuildDriverInfoList@CIlNt4Setupapi@@QEAAP6AHPEAXPEAU_SP_DEVINFO_DATA@@K@ZXZ=C:\Windows\System32\migisol.?get_SetupDiBuildDriverInfoList@CIlNt4Setupapi@@QEAAP6AHPEAXPEAU_SP_DEVINFO_DATA@@K@ZXZ
  ?get_SetupDiCallClassInstaller@CIlNt4Setupapi@@QEAAP6AHIPEAXPEAU_SP_DEVINFO_DATA@@@ZXZ=C:\Windows\System32\migisol.?get_SetupDiCallClassInstaller@CIlNt4Setupapi@@QEAAP6AHIPEAXPEAU_SP_DEVINFO_DATA@@@ZXZ
  ?get_SetupDiCreateDeviceInfoListExW@CIlNt4Setupapi@@QEAAP6APEAXPEBU_GUID@@PEAUHWND__@@PEBGPEAX@ZXZ=C:\Windows\System32\migisol.?get_SetupDiCreateDeviceInfoListExW@CIlNt4Setupapi@@QEAAP6APEAXPEBU_GUID@@PEAUHWND__@@PEBGPEAX@ZXZ
  ?get_SetupDiDestroyDeviceInfoList@CIlNt4Setupapi@@QEAAP6AHPEAX@ZXZ=C:\Windows\System32\migisol.?get_SetupDiDestroyDeviceInfoList@CIlNt4Setupapi@@QEAAP6AHPEAX@ZXZ
  ?get_SetupDiDestroyDriverInfoList@CIlNt4Setupapi@@QEAAP6AHPEAXPEAU_SP_DEVINFO_DATA@@K@ZXZ=C:\Windows\System32\migisol.?get_SetupDiDestroyDriverInfoList@CIlNt4Setupapi@@QEAAP6AHPEAXPEAU_SP_DEVINFO_DATA@@K@ZXZ
  ?get_SetupDiEnumDeviceInfo@CIlNt4Setupapi@@QEAAP6AHPEAXKPEAU_SP_DEVINFO_DATA@@@ZXZ=C:\Windows\System32\migisol.?get_SetupDiEnumDeviceInfo@CIlNt4Setupapi@@QEAAP6AHPEAXKPEAU_SP_DEVINFO_DATA@@@ZXZ
  ?get_SetupDiEnumDeviceInterfaces@CIlNt4Setupapi@@QEAAP6AHPEAXPEAU_SP_DEVINFO_DATA@@PEBU_GUID@@KPEAU_SP_DEVICE_INTERFACE_DATA@@@ZXZ=C:\Windows\System32\migisol.?get_SetupDiEnumDeviceInterfaces@CIlNt4Setupapi@@QEAAP6AHPEAXPEAU_SP_DEVINFO_DATA@@PEBU_GUID@@KPEAU_SP_DEVICE_INTERFACE_DATA@@@ZXZ
  ?get_SetupDiEnumDriverInfoW@CIlNt4Setupapi@@QEAAP6AHPEAXPEAU_SP_DEVINFO_DATA@@KKPEAU_SP_DRVINFO_DATA_V2_W@@@ZXZ=C:\Windows\System32\migisol.?get_SetupDiEnumDriverInfoW@CIlNt4Setupapi@@QEAAP6AHPEAXPEAU_SP_DEVINFO_DATA@@KKPEAU_SP_DRVINFO_DATA_V2_W@@@ZXZ
  ?get_SetupDiGetClassDevsExW@CIlNt4Setupapi@@QEAAP6APEAXPEBU_GUID@@PEBGPEAUHWND__@@KPEAX13@ZXZ=C:\Windows\System32\migisol.?get_SetupDiGetClassDevsExW@CIlNt4Setupapi@@QEAAP6APEAXPEBU_GUID@@PEBGPEAUHWND__@@KPEAX13@ZXZ
  ?get_SetupDiGetClassDevsW@CIlNt4Setupapi@@QEAAP6APEAXPEBU_GUID@@PEBGPEAUHWND__@@K@ZXZ=C:\Windows\System32\migisol.?get_SetupDiGetClassDevsW@CIlNt4Setupapi@@QEAAP6APEAXPEBU_GUID@@PEBGPEAUHWND__@@K@ZXZ
  ?get_SetupDiGetDeviceInstallParamsW@CIlNt4Setupapi@@QEAAP6AHPEAXPEAU_SP_DEVINFO_DATA@@PEAU_SP_DEVINSTALL_PARAMS_W@@@ZXZ=C:\Windows\System32\migisol.?get_SetupDiGetDeviceInstallParamsW@CIlNt4Setupapi@@QEAAP6AHPEAXPEAU_SP_DEVINFO_DATA@@PEAU_SP_DEVINSTALL_PARAMS_W@@@ZXZ
  ?get_SetupDiGetDeviceInterfaceDetailW@CIlNt4Setupapi@@QEAAP6AHPEAXPEAU_SP_DEVICE_INTERFACE_DATA@@PEAU_SP_DEVICE_INTERFACE_DETAIL_DATA_W@@KPEAKPEAU_SP_DEVINFO_DATA@@@ZXZ=C:\Windows\System32\migisol.?get_SetupDiGetDeviceInterfaceDetailW@CIlNt4Setupapi@@QEAAP6AHPEAXPEAU_SP_DEVICE_INTERFACE_DATA@@PEAU_SP_DEVICE_INTERFACE_DETAIL_DATA_W@@KPEAKPEAU_SP_DEVINFO_DATA@@@ZXZ
  ?get_SetupDiGetDeviceRegistryPropertyW@CIlNt4Setupapi@@QEAAP6AHPEAXPEAU_SP_DEVINFO_DATA@@KPEAKPEAEK2@ZXZ=C:\Windows\System32\migisol.?get_SetupDiGetDeviceRegistryPropertyW@CIlNt4Setupapi@@QEAAP6AHPEAXPEAU_SP_DEVINFO_DATA@@KPEAKPEAEK2@ZXZ
  ?get_SetupDiGetDriverInfoDetailW@CIlNt4Setupapi@@QEAAP6AHPEAXPEAU_SP_DEVINFO_DATA@@PEAU_SP_DRVINFO_DATA_V2_W@@PEAU_SP_DRVINFO_DETAIL_DATA_W@@KPEAK@ZXZ=C:\Windows\System32\migisol.?get_SetupDiGetDriverInfoDetailW@CIlNt4Setupapi@@QEAAP6AHPEAXPEAU_SP_DEVINFO_DATA@@PEAU_SP_DRVINFO_DATA_V2_W@@PEAU_SP_DRVINFO_DETAIL_DATA_W@@KPEAK@ZXZ
  ?get_SetupDiOpenDevRegKey@CIlNt4Setupapi@@QEAAP6APEAUHKEY__@@PEAXPEAU_SP_DEVINFO_DATA@@KKKK@ZXZ=C:\Windows\System32\migisol.?get_SetupDiOpenDevRegKey@CIlNt4Setupapi@@QEAAP6APEAUHKEY__@@PEAXPEAU_SP_DEVINFO_DATA@@KKKK@ZXZ
  ?get_SetupDiOpenDeviceInfoW@CIlNt4Setupapi@@QEAAP6AHPEAXPEBGPEAUHWND__@@KPEAU_SP_DEVINFO_DATA@@@ZXZ=C:\Windows\System32\migisol.?get_SetupDiOpenDeviceInfoW@CIlNt4Setupapi@@QEAAP6AHPEAXPEBGPEAUHWND__@@KPEAU_SP_DEVINFO_DATA@@@ZXZ
  ?get_SetupDiSetDeviceInstallParamsW@CIlNt4Setupapi@@QEAAP6AHPEAXPEAU_SP_DEVINFO_DATA@@PEAU_SP_DEVINSTALL_PARAMS_W@@@ZXZ=C:\Windows\System32\migisol.?get_SetupDiSetDeviceInstallParamsW@CIlNt4Setupapi@@QEAAP6AHPEAXPEAU_SP_DEVINFO_DATA@@PEAU_SP_DEVINSTALL_PARAMS_W@@@ZXZ
  ?get_SetupDiSetSelectedDriverW@CIlNt4Setupapi@@QEAAP6AHPEAXPEAU_SP_DEVINFO_DATA@@PEAU_SP_DRVINFO_DATA_V2_W@@@ZXZ=C:\Windows\System32\migisol.?get_SetupDiSetSelectedDriverW@CIlNt4Setupapi@@QEAAP6AHPEAXPEAU_SP_DEVINFO_DATA@@PEAU_SP_DRVINFO_DATA_V2_W@@@ZXZ
  ?get_SetupGetInfInformationW@CIlNt4Setupapi@@QEAAP6AHPEBXKPEAU_SP_INF_INFORMATION@@KPEAK@ZXZ=C:\Windows\System32\migisol.?get_SetupGetInfInformationW@CIlNt4Setupapi@@QEAAP6AHPEBXKPEAU_SP_INF_INFORMATION@@KPEAK@ZXZ
  ?get_SetupOpenFileQueue@CIlNt4Setupapi@@QEAAP6APEAXXZXZ=C:\Windows\System32\migisol.?get_SetupOpenFileQueue@CIlNt4Setupapi@@QEAAP6APEAXXZXZ
  ?get_SetupQueryInfOriginalFileInformationW@CIlNt4Setupapi@@QEAAP6AHPEAU_SP_INF_INFORMATION@@IPEAU_SP_ALTPLATFORM_INFO_V2@@PEAU_SP_ORIGINAL_FILE_INFO_W@@@ZXZ=C:\Windows\System32\migisol.?get_SetupQueryInfOriginalFileInformationW@CIlNt4Setupapi@@QEAAP6AHPEAU_SP_INF_INFORMATION@@IPEAU_SP_ALTPLATFORM_INFO_V2@@PEAU_SP_ORIGINAL_FILE_INFO_W@@@ZXZ
  ?get_SetupScanFileQueueW@CIlNt4Setupapi@@QEAAP6AHPEAXKPEAUHWND__@@P6AI0I_K2@Z0PEAK@ZXZ=C:\Windows\System32\migisol.?get_SetupScanFileQueueW@CIlNt4Setupapi@@QEAAP6AHPEAXKPEAUHWND__@@P6AI0I_K2@Z0PEAK@ZXZ
  ?get_StartServiceW@CIlNt4Advapi32@@QEAAP6AHPEAUSC_HANDLE__@@KPEAPEBG@ZXZ=C:\Windows\System32\migisol.?get_StartServiceW@CIlNt4Advapi32@@QEAAP6AHPEAUSC_HANDLE__@@KPEAPEBG@ZXZ
  ?get_UnlockServiceDatabase@CIlNt4Advapi32@@QEAAP6AHPEAX@ZXZ=C:\Windows\System32\migisol.?get_UnlockServiceDatabase@CIlNt4Advapi32@@QEAAP6AHPEAX@ZXZ
  ?get_freeaddrinfo@CIlW2kDynWs2_32@@UEAAP6AXPEAUaddrinfo@@@ZXZ=C:\Windows\System32\migisol.?get_freeaddrinfo@CIlW2kDynWs2_32@@UEAAP6AXPEAUaddrinfo@@@ZXZ
  ?get_getaddrinfo@CIlW2kDynWs2_32@@UEAAP6AHPEBD0PEBUaddrinfo@@PEAPEAU2@@ZXZ=C:\Windows\System32\migisol.?get_getaddrinfo@CIlW2kDynWs2_32@@UEAAP6AHPEBD0PEBUaddrinfo@@PEAPEAU2@@ZXZ
  ?get_getnameinfo@CIlW2kDynWs2_32@@UEAAP6AHPEBUsockaddr@@HPEADK1KH@ZXZ=C:\Windows\System32\migisol.?get_getnameinfo@CIlW2kDynWs2_32@@UEAAP6AHPEBUsockaddr@@HPEADK1KH@ZXZ
  ?getaddrinfo@CIlW2kDynWs2_32@@UEAAHPEBD0PEBUaddrinfo@@PEAPEAU2@@Z=C:\Windows\System32\migisol.?getaddrinfo@CIlW2kDynWs2_32@@UEAAHPEBD0PEBUaddrinfo@@PEAPEAU2@@Z
  ?gethostbyname@CIlWs2_32@@UEAAPEAUhostent@@PEBD@Z=C:\Windows\System32\migisol.?gethostbyname@CIlWs2_32@@UEAAPEAUhostent@@PEBD@Z
  ?gethostname@CIlWs2_32@@UEAAHPEADH@Z=C:\Windows\System32\migisol.?gethostname@CIlWs2_32@@UEAAHPEADH@Z
  ?getnameinfo@CIlW2kDynWs2_32@@UEAAHPEBUsockaddr@@HPEADK1KH@Z=C:\Windows\System32\migisol.?getnameinfo@CIlW2kDynWs2_32@@UEAAHPEBUsockaddr@@HPEADK1KH@Z
  ?getsockname@CIlWs2_32@@UEAAH_KPEAUsockaddr@@PEAH@Z=C:\Windows\System32\migisol.?getsockname@CIlWs2_32@@UEAAH_KPEAUsockaddr@@PEAH@Z
  ?getsockopt@CIlWs2_32@@UEAAH_KHHPEADPEAH@Z=C:\Windows\System32\migisol.?getsockopt@CIlWs2_32@@UEAAH_KHHPEADPEAH@Z
  ?htonl@CIlWs2_32@@UEAAKK@Z=C:\Windows\System32\migisol.?htonl@CIlWs2_32@@UEAAKK@Z
  ?htons@CIlWs2_32@@UEAAGG@Z=C:\Windows\System32\migisol.?htons@CIlWs2_32@@UEAAGG@Z
  ?inet_addr@CIlWs2_32@@UEAAKPEBD@Z=C:\Windows\System32\migisol.?inet_addr@CIlWs2_32@@UEAAKPEBD@Z
  ?inet_ntoa@CIlWs2_32@@UEAAPEADUin_addr@@@Z=C:\Windows\System32\migisol.?inet_ntoa@CIlWs2_32@@UEAAPEADUin_addr@@@Z
  ?ioctlsocket@CIlWs2_32@@UEAAH_KJPEAK@Z=C:\Windows\System32\migisol.?ioctlsocket@CIlWs2_32@@UEAAH_KJPEAK@Z
  ?listen@CIlWs2_32@@UEAAH_KH@Z=C:\Windows\System32\migisol.?listen@CIlWs2_32@@UEAAH_KH@Z
  ?m_ChangeServiceConfigW@CIlNt4Advapi32@@0P6AHPEAUSC_HANDLE__@@KKKPEBG1PEAK1111@ZEA=C:\Windows\System32\migisol.?m_ChangeServiceConfigW@CIlNt4Advapi32@@0P6AHPEAUSC_HANDLE__@@KKKPEBG1PEAK1111@ZEA
  ?m_CloseServiceHandle@CIlNt4Advapi32@@0P6AHPEAUSC_HANDLE__@@@ZEA=C:\Windows\System32\migisol.?m_CloseServiceHandle@CIlNt4Advapi32@@0P6AHPEAUSC_HANDLE__@@@ZEA
  ?m_ConvertSecurityDescriptorToStringSecurityDescriptorW@CIlNt4Advapi32@@0P6AHPEAXKKPEAPEAGPEAK@ZEA=C:\Windows\System32\migisol.?m_ConvertSecurityDescriptorToStringSecurityDescriptorW@CIlNt4Advapi32@@0P6AHPEAXKKPEAPEAGPEAK@ZEA
  ?m_ConvertSidToStringSidW@CIlNt4Advapi32@@0P6AHPEAXPEAPEAG@ZEA=C:\Windows\System32\migisol.?m_ConvertSidToStringSidW@CIlNt4Advapi32@@0P6AHPEAXPEAPEAG@ZEA
  ?m_ConvertStringSecurityDescriptorToSecurityDescriptorW@CIlNt4Advapi32@@0P6AHPEBGKPEAPEAXPEAK@ZEA=C:\Windows\System32\migisol.?m_ConvertStringSecurityDescriptorToSecurityDescriptorW@CIlNt4Advapi32@@0P6AHPEBGKPEAPEAXPEAK@ZEA
  ?m_ConvertStringSidToSidW@CIlNt4Advapi32@@0P6AHPEAGPEAPEAX@ZEA=C:\Windows\System32\migisol.?m_ConvertStringSidToSidW@CIlNt4Advapi32@@0P6AHPEAGPEAPEAX@ZEA
  ?m_CreateProfile@CIlNt6Userenv@@0P6AJPEBG0PEAGK@ZEA=C:\Windows\System32\migisol.?m_CreateProfile@CIlNt6Userenv@@0P6AJPEBG0PEAGK@ZEA
  ?m_CreateServiceW@CIlNt4Advapi32@@0P6APEAUSC_HANDLE__@@PEAU2@PEBG1KKKK11PEAK111@ZEA=C:\Windows\System32\migisol.?m_CreateServiceW@CIlNt4Advapi32@@0P6APEAUSC_HANDLE__@@PEAU2@PEBG1KKKK11PEAK111@ZEA
  ?m_CreateToolhelp32Snapshot@CIlNt4Kernel32@@0P6APEAXKK@ZEA=C:\Windows\System32\migisol.?m_CreateToolhelp32Snapshot@CIlNt4Kernel32@@0P6APEAXKK@ZEA
  ?m_CreateUserProfileExW@CIlNt4Userenv@@0P6AHPEAXPEBG1PEAGKH@ZEA=C:\Windows\System32\migisol.?m_CreateUserProfileExW@CIlNt4Userenv@@0P6AHPEAXPEBG1PEAGKH@ZEA
  ?m_CreateWellKnownSid@CIlNt4Advapi32@@0P6AHW4WELL_KNOWN_SID_TYPE@@PEAX1PEAK@ZEA=C:\Windows\System32\migisol.?m_CreateWellKnownSid@CIlNt4Advapi32@@0P6AHW4WELL_KNOWN_SID_TYPE@@PEAX1PEAK@ZEA
  ?m_EncryptFileW@CIlNt4Advapi32@@0P6AHPEBG@ZEA=C:\Windows\System32\migisol.?m_EncryptFileW@CIlNt4Advapi32@@0P6AHPEBG@ZEA
  ?m_EnumServicesStatusExW@CIlNt4Advapi32@@0P6AHPEAUSC_HANDLE__@@W4_SC_ENUM_TYPE@@KKPEAEKPEAK33PEBG@ZEA=C:\Windows\System32\migisol.?m_EnumServicesStatusExW@CIlNt4Advapi32@@0P6AHPEAUSC_HANDLE__@@W4_SC_ENUM_TYPE@@KKPEAEKPEAK33PEBG@ZEA
  ?m_GetSystemWindowsDirectoryW@CIlNt4Kernel32@@0P6AIPEAGI@ZEA=C:\Windows\System32\migisol.?m_GetSystemWindowsDirectoryW@CIlNt4Kernel32@@0P6AIPEAGI@ZEA
  ?m_GlobalMemoryStatusEx@CIlNt4Kernel32@@0P6AHPEAU_MEMORYSTATUSEX@@@ZEA=C:\Windows\System32\migisol.?m_GlobalMemoryStatusEx@CIlNt4Kernel32@@0P6AHPEAU_MEMORYSTATUSEX@@@ZEA
  ?m_InitiateSystemShutdownExW@CIlNt4Advapi32@@0P6AHPEAG0KHHK@ZEA=C:\Windows\System32\migisol.?m_InitiateSystemShutdownExW@CIlNt4Advapi32@@0P6AHPEAG0KHHK@ZEA
  ?m_LockServiceDatabase@CIlNt4Advapi32@@0P6APEAXPEAUSC_HANDLE__@@@ZEA=C:\Windows\System32\migisol.?m_LockServiceDatabase@CIlNt4Advapi32@@0P6APEAXPEAUSC_HANDLE__@@@ZEA
  ?m_LockSetForegroundWindow@CIlNt4User32@@0P6AHI@ZEA=C:\Windows\System32\migisol.?m_LockSetForegroundWindow@CIlNt4User32@@0P6AHI@ZEA
  ?m_NetApiBufferFree@CIlNt4Netapi32@@0P6AKPEAX@ZEA=C:\Windows\System32\migisol.?m_NetApiBufferFree@CIlNt4Netapi32@@0P6AKPEAX@ZEA
  ?m_NetLocalGroupAdd@CIlNt4Netapi32@@0P6AKPEBGKPEAEPEAK@ZEA=C:\Windows\System32\migisol.?m_NetLocalGroupAdd@CIlNt4Netapi32@@0P6AKPEBGKPEAEPEAK@ZEA
  ?m_NetLocalGroupAddMembers@CIlNt4Netapi32@@0P6AKPEBG0KPEAEK@ZEA=C:\Windows\System32\migisol.?m_NetLocalGroupAddMembers@CIlNt4Netapi32@@0P6AKPEBG0KPEAEK@ZEA
  ?m_NetLocalGroupEnum@CIlNt4Netapi32@@0P6AKPEBGKPEAPEAEKPEAK2PEA_K@ZEA=C:\Windows\System32\migisol.?m_NetLocalGroupEnum@CIlNt4Netapi32@@0P6AKPEBGKPEAPEAEKPEAK2PEA_K@ZEA
  ?m_NetUserAdd@CIlNt4Netapi32@@0P6AKPEBGKPEAEPEAK@ZEA=C:\Windows\System32\migisol.?m_NetUserAdd@CIlNt4Netapi32@@0P6AKPEBGKPEAEPEAK@ZEA
  ?m_NetUserDel@CIlNt4Netapi32@@0P6AKPEBG0@ZEA=C:\Windows\System32\migisol.?m_NetUserDel@CIlNt4Netapi32@@0P6AKPEBG0@ZEA
  ?m_NetUserEnum@CIlNt4Netapi32@@0P6AKPEBGKKPEAPEAEKPEAK22@ZEA=C:\Windows\System32\migisol.?m_NetUserEnum@CIlNt4Netapi32@@0P6AKPEBGKKPEAPEAEKPEAK22@ZEA
  ?m_NetUserGetLocalGroups@CIlNt4Netapi32@@0P6AKPEBG0KKPEAPEAEKPEAK2@ZEA=C:\Windows\System32\migisol.?m_NetUserGetLocalGroups@CIlNt4Netapi32@@0P6AKPEBG0KKPEAPEAEKPEAK2@ZEA
  ?m_NetWkstaGetInfo@CIlNt4Netapi32@@0P6AKPEAGKPEAPEAE@ZEA=C:\Windows\System32\migisol.?m_NetWkstaGetInfo@CIlNt4Netapi32@@0P6AKPEAGKPEAPEAE@ZEA
  ?m_OpenSCManagerW@CIlNt4Advapi32@@0P6APEAUSC_HANDLE__@@PEBG0K@ZEA=C:\Windows\System32\migisol.?m_OpenSCManagerW@CIlNt4Advapi32@@0P6APEAUSC_HANDLE__@@PEBG0K@ZEA
  ?m_OpenServiceW@CIlNt4Advapi32@@0P6APEAUSC_HANDLE__@@PEAU2@PEBGK@ZEA=C:\Windows\System32\migisol.?m_OpenServiceW@CIlNt4Advapi32@@0P6APEAUSC_HANDLE__@@PEAU2@PEBGK@ZEA
  ?m_Process32FirstW@CIlNt4Kernel32@@0P6AHPEAXPEAUtagPROCESSENTRY32W@@@ZEA=C:\Windows\System32\migisol.?m_Process32FirstW@CIlNt4Kernel32@@0P6AHPEAXPEAUtagPROCESSENTRY32W@@@ZEA
  ?m_Process32NextW@CIlNt4Kernel32@@0P6AHPEAXPEAUtagPROCESSENTRY32W@@@ZEA=C:\Windows\System32\migisol.?m_Process32NextW@CIlNt4Kernel32@@0P6AHPEAXPEAUtagPROCESSENTRY32W@@@ZEA
  ?m_QueryServiceConfigW@CIlNt4Advapi32@@0P6AHPEAUSC_HANDLE__@@PEAU_QUERY_SERVICE_CONFIGW@@KPEAK@ZEA=C:\Windows\System32\migisol.?m_QueryServiceConfigW@CIlNt4Advapi32@@0P6AHPEAUSC_HANDLE__@@PEAU_QUERY_SERVICE_CONFIGW@@KPEAK@ZEA
  ?m_RefCountChangeServiceConfigW@CIlNt4Advapi32@@0KA=C:\Windows\System32\migisol.?m_RefCountChangeServiceConfigW@CIlNt4Advapi32@@0KA
  ?m_RefCountCloseServiceHandle@CIlNt4Advapi32@@0KA=C:\Windows\System32\migisol.?m_RefCountCloseServiceHandle@CIlNt4Advapi32@@0KA
  ?m_RefCountConvertSecurityDescriptorToStringSecurityDescriptorW@CIlNt4Advapi32@@0KA=C:\Windows\System32\migisol.?m_RefCountConvertSecurityDescriptorToStringSecurityDescriptorW@CIlNt4Advapi32@@0KA
  ?m_RefCountConvertSidToStringSidW@CIlNt4Advapi32@@0KA=C:\Windows\System32\migisol.?m_RefCountConvertSidToStringSidW@CIlNt4Advapi32@@0KA
  ?m_RefCountConvertStringSecurityDescriptorToSecurityDescriptorW@CIlNt4Advapi32@@0KA=C:\Windows\System32\migisol.?m_RefCountConvertStringSecurityDescriptorToSecurityDescriptorW@CIlNt4Advapi32@@0KA
  ?m_RefCountConvertStringSidToSidW@CIlNt4Advapi32@@0KA=C:\Windows\System32\migisol.?m_RefCountConvertStringSidToSidW@CIlNt4Advapi32@@0KA
  ?m_RefCountCreateProfile@CIlNt6Userenv@@0KA=C:\Windows\System32\migisol.?m_RefCountCreateProfile@CIlNt6Userenv@@0KA
  ?m_RefCountCreateServiceW@CIlNt4Advapi32@@0KA=C:\Windows\System32\migisol.?m_RefCountCreateServiceW@CIlNt4Advapi32@@0KA
  ?m_RefCountCreateToolhelp32Snapshot@CIlNt4Kernel32@@0KA=C:\Windows\System32\migisol.?m_RefCountCreateToolhelp32Snapshot@CIlNt4Kernel32@@0KA
  ?m_RefCountCreateUserProfileExW@CIlNt4Userenv@@0KA=C:\Windows\System32\migisol.?m_RefCountCreateUserProfileExW@CIlNt4Userenv@@0KA
  ?m_RefCountCreateWellKnownSid@CIlNt4Advapi32@@0KA=C:\Windows\System32\migisol.?m_RefCountCreateWellKnownSid@CIlNt4Advapi32@@0KA
  ?m_RefCountEncryptFileW@CIlNt4Advapi32@@0KA=C:\Windows\System32\migisol.?m_RefCountEncryptFileW@CIlNt4Advapi32@@0KA
  ?m_RefCountEnumServicesStatusExW@CIlNt4Advapi32@@0KA=C:\Windows\System32\migisol.?m_RefCountEnumServicesStatusExW@CIlNt4Advapi32@@0KA
  ?m_RefCountGetSystemWindowsDirectoryW@CIlNt4Kernel32@@0KA=C:\Windows\System32\migisol.?m_RefCountGetSystemWindowsDirectoryW@CIlNt4Kernel32@@0KA
  ?m_RefCountGlobalMemoryStatusEx@CIlNt4Kernel32@@0KA=C:\Windows\System32\migisol.?m_RefCountGlobalMemoryStatusEx@CIlNt4Kernel32@@0KA
  ?m_RefCountInitiateSystemShutdownExW@CIlNt4Advapi32@@0KA=C:\Windows\System32\migisol.?m_RefCountInitiateSystemShutdownExW@CIlNt4Advapi32@@0KA
  ?m_RefCountLockServiceDatabase@CIlNt4Advapi32@@0KA=C:\Windows\System32\migisol.?m_RefCountLockServiceDatabase@CIlNt4Advapi32@@0KA
  ?m_RefCountLockSetForegroundWindow@CIlNt4User32@@0KA=C:\Windows\System32\migisol.?m_RefCountLockSetForegroundWindow@CIlNt4User32@@0KA
  ?m_RefCountNetApiBufferFree@CIlNt4Netapi32@@0KA=C:\Windows\System32\migisol.?m_RefCountNetApiBufferFree@CIlNt4Netapi32@@0KA
  ?m_RefCountNetLocalGroupAdd@CIlNt4Netapi32@@0KA=C:\Windows\System32\migisol.?m_RefCountNetLocalGroupAdd@CIlNt4Netapi32@@0KA
  ?m_RefCountNetLocalGroupAddMembers@CIlNt4Netapi32@@0KA=C:\Windows\System32\migisol.?m_RefCountNetLocalGroupAddMembers@CIlNt4Netapi32@@0KA
  ?m_RefCountNetLocalGroupEnum@CIlNt4Netapi32@@0KA=C:\Windows\System32\migisol.?m_RefCountNetLocalGroupEnum@CIlNt4Netapi32@@0KA
  ?m_RefCountNetUserAdd@CIlNt4Netapi32@@0KA=C:\Windows\System32\migisol.?m_RefCountNetUserAdd@CIlNt4Netapi32@@0KA
  ?m_RefCountNetUserDel@CIlNt4Netapi32@@0KA=C:\Windows\System32\migisol.?m_RefCountNetUserDel@CIlNt4Netapi32@@0KA
  ?m_RefCountNetUserEnum@CIlNt4Netapi32@@0KA=C:\Windows\System32\migisol.?m_RefCountNetUserEnum@CIlNt4Netapi32@@0KA
  ?m_RefCountNetUserGetLocalGroups@CIlNt4Netapi32@@0KA=C:\Windows\System32\migisol.?m_RefCountNetUserGetLocalGroups@CIlNt4Netapi32@@0KA
  ?m_RefCountNetWkstaGetInfo@CIlNt4Netapi32@@0KA=C:\Windows\System32\migisol.?m_RefCountNetWkstaGetInfo@CIlNt4Netapi32@@0KA
  ?m_RefCountOpenSCManagerW@CIlNt4Advapi32@@0KA=C:\Windows\System32\migisol.?m_RefCountOpenSCManagerW@CIlNt4Advapi32@@0KA
  ?m_RefCountOpenServiceW@CIlNt4Advapi32@@0KA=C:\Windows\System32\migisol.?m_RefCountOpenServiceW@CIlNt4Advapi32@@0KA
  ?m_RefCountProcess32FirstW@CIlNt4Kernel32@@0KA=C:\Windows\System32\migisol.?m_RefCountProcess32FirstW@CIlNt4Kernel32@@0KA
  ?m_RefCountProcess32NextW@CIlNt4Kernel32@@0KA=C:\Windows\System32\migisol.?m_RefCountProcess32NextW@CIlNt4Kernel32@@0KA
  ?m_RefCountQueryServiceConfigW@CIlNt4Advapi32@@0KA=C:\Windows\System32\migisol.?m_RefCountQueryServiceConfigW@CIlNt4Advapi32@@0KA
  ?m_RefCountRegisterWaitForSingleObject@CIlNt4Kernel32@@0KA=C:\Windows\System32\migisol.?m_RefCountRegisterWaitForSingleObject@CIlNt4Kernel32@@0KA
  ?m_RefCountSetupCloseFileQueue@CIlNt4Setupapi@@0KA=C:\Windows\System32\migisol.?m_RefCountSetupCloseFileQueue@CIlNt4Setupapi@@0KA
  ?m_RefCountSetupDiBuildDriverInfoList@CIlNt4Setupapi@@0KA=C:\Windows\System32\migisol.?m_RefCountSetupDiBuildDriverInfoList@CIlNt4Setupapi@@0KA
  ?m_RefCountSetupDiCallClassInstaller@CIlNt4Setupapi@@0KA=C:\Windows\System32\migisol.?m_RefCountSetupDiCallClassInstaller@CIlNt4Setupapi@@0KA
  ?m_RefCountSetupDiCreateDeviceInfoListExW@CIlNt4Setupapi@@0KA=C:\Windows\System32\migisol.?m_RefCountSetupDiCreateDeviceInfoListExW@CIlNt4Setupapi@@0KA
  ?m_RefCountSetupDiDestroyDeviceInfoList@CIlNt4Setupapi@@0KA=C:\Windows\System32\migisol.?m_RefCountSetupDiDestroyDeviceInfoList@CIlNt4Setupapi@@0KA
  ?m_RefCountSetupDiDestroyDriverInfoList@CIlNt4Setupapi@@0KA=C:\Windows\System32\migisol.?m_RefCountSetupDiDestroyDriverInfoList@CIlNt4Setupapi@@0KA
  ?m_RefCountSetupDiEnumDeviceInfo@CIlNt4Setupapi@@0KA=C:\Windows\System32\migisol.?m_RefCountSetupDiEnumDeviceInfo@CIlNt4Setupapi@@0KA
  ?m_RefCountSetupDiEnumDeviceInterfaces@CIlNt4Setupapi@@0KA=C:\Windows\System32\migisol.?m_RefCountSetupDiEnumDeviceInterfaces@CIlNt4Setupapi@@0KA
  ?m_RefCountSetupDiEnumDriverInfoW@CIlNt4Setupapi@@0KA=C:\Windows\System32\migisol.?m_RefCountSetupDiEnumDriverInfoW@CIlNt4Setupapi@@0KA
  ?m_RefCountSetupDiGetClassDevsExW@CIlNt4Setupapi@@0KA=C:\Windows\System32\migisol.?m_RefCountSetupDiGetClassDevsExW@CIlNt4Setupapi@@0KA
  ?m_RefCountSetupDiGetClassDevsW@CIlNt4Setupapi@@0KA=C:\Windows\System32\migisol.?m_RefCountSetupDiGetClassDevsW@CIlNt4Setupapi@@0KA
  ?m_RefCountSetupDiGetDeviceInstallParamsW@CIlNt4Setupapi@@0KA=C:\Windows\System32\migisol.?m_RefCountSetupDiGetDeviceInstallParamsW@CIlNt4Setupapi@@0KA
  ?m_RefCountSetupDiGetDeviceInterfaceDetailW@CIlNt4Setupapi@@0KA=C:\Windows\System32\migisol.?m_RefCountSetupDiGetDeviceInterfaceDetailW@CIlNt4Setupapi@@0KA
  ?m_RefCountSetupDiGetDeviceRegistryPropertyW@CIlNt4Setupapi@@0KA=C:\Windows\System32\migisol.?m_RefCountSetupDiGetDeviceRegistryPropertyW@CIlNt4Setupapi@@0KA
  ?m_RefCountSetupDiGetDriverInfoDetailW@CIlNt4Setupapi@@0KA=C:\Windows\System32\migisol.?m_RefCountSetupDiGetDriverInfoDetailW@CIlNt4Setupapi@@0KA
  ?m_RefCountSetupDiOpenDevRegKey@CIlNt4Setupapi@@0KA=C:\Windows\System32\migisol.?m_RefCountSetupDiOpenDevRegKey@CIlNt4Setupapi@@0KA
  ?m_RefCountSetupDiOpenDeviceInfoW@CIlNt4Setupapi@@0KA=C:\Windows\System32\migisol.?m_RefCountSetupDiOpenDeviceInfoW@CIlNt4Setupapi@@0KA
  ?m_RefCountSetupDiSetDeviceInstallParamsW@CIlNt4Setupapi@@0KA=C:\Windows\System32\migisol.?m_RefCountSetupDiSetDeviceInstallParamsW@CIlNt4Setupapi@@0KA
  ?m_RefCountSetupDiSetSelectedDriverW@CIlNt4Setupapi@@0KA=C:\Windows\System32\migisol.?m_RefCountSetupDiSetSelectedDriverW@CIlNt4Setupapi@@0KA
  ?m_RefCountSetupGetInfInformationW@CIlNt4Setupapi@@0KA=C:\Windows\System32\migisol.?m_RefCountSetupGetInfInformationW@CIlNt4Setupapi@@0KA
  ?m_RefCountSetupOpenFileQueue@CIlNt4Setupapi@@0KA=C:\Windows\System32\migisol.?m_RefCountSetupOpenFileQueue@CIlNt4Setupapi@@0KA
  ?m_RefCountSetupQueryInfOriginalFileInformationW@CIlNt4Setupapi@@0KA=C:\Windows\System32\migisol.?m_RefCountSetupQueryInfOriginalFileInformationW@CIlNt4Setupapi@@0KA
  ?m_RefCountSetupScanFileQueueW@CIlNt4Setupapi@@0KA=C:\Windows\System32\migisol.?m_RefCountSetupScanFileQueueW@CIlNt4Setupapi@@0KA
  ?m_RefCountStartServiceW@CIlNt4Advapi32@@0KA=C:\Windows\System32\migisol.?m_RefCountStartServiceW@CIlNt4Advapi32@@0KA
  ?m_RefCountUnlockServiceDatabase@CIlNt4Advapi32@@0KA=C:\Windows\System32\migisol.?m_RefCountUnlockServiceDatabase@CIlNt4Advapi32@@0KA
  ?m_RefCountfreeaddrinfo@CIlW2kDynWs2_32@@0KA=C:\Windows\System32\migisol.?m_RefCountfreeaddrinfo@CIlW2kDynWs2_32@@0KA
  ?m_RefCountgetaddrinfo@CIlW2kDynWs2_32@@0KA=C:\Windows\System32\migisol.?m_RefCountgetaddrinfo@CIlW2kDynWs2_32@@0KA
  ?m_RefCountgetnameinfo@CIlW2kDynWs2_32@@0KA=C:\Windows\System32\migisol.?m_RefCountgetnameinfo@CIlW2kDynWs2_32@@0KA
  ?m_RegisterWaitForSingleObject@CIlNt4Kernel32@@0P6AHPEAPEAXPEAXP6AX1E@Z1KK@ZEA=C:\Windows\System32\migisol.?m_RegisterWaitForSingleObject@CIlNt4Kernel32@@0P6AHPEAPEAXPEAXP6AX1E@Z1KK@ZEA
  ?m_SetupCloseFileQueue@CIlNt4Setupapi@@0P6AHPEAX@ZEA=C:\Windows\System32\migisol.?m_SetupCloseFileQueue@CIlNt4Setupapi@@0P6AHPEAX@ZEA
  ?m_SetupDiBuildDriverInfoList@CIlNt4Setupapi@@0P6AHPEAXPEAU_SP_DEVINFO_DATA@@K@ZEA=C:\Windows\System32\migisol.?m_SetupDiBuildDriverInfoList@CIlNt4Setupapi@@0P6AHPEAXPEAU_SP_DEVINFO_DATA@@K@ZEA
  ?m_SetupDiCallClassInstaller@CIlNt4Setupapi@@0P6AHIPEAXPEAU_SP_DEVINFO_DATA@@@ZEA=C:\Windows\System32\migisol.?m_SetupDiCallClassInstaller@CIlNt4Setupapi@@0P6AHIPEAXPEAU_SP_DEVINFO_DATA@@@ZEA
  ?m_SetupDiCreateDeviceInfoListExW@CIlNt4Setupapi@@0P6APEAXPEBU_GUID@@PEAUHWND__@@PEBGPEAX@ZEA=C:\Windows\System32\migisol.?m_SetupDiCreateDeviceInfoListExW@CIlNt4Setupapi@@0P6APEAXPEBU_GUID@@PEAUHWND__@@PEBGPEAX@ZEA
  ?m_SetupDiDestroyDeviceInfoList@CIlNt4Setupapi@@0P6AHPEAX@ZEA=C:\Windows\System32\migisol.?m_SetupDiDestroyDeviceInfoList@CIlNt4Setupapi@@0P6AHPEAX@ZEA
  ?m_SetupDiDestroyDriverInfoList@CIlNt4Setupapi@@0P6AHPEAXPEAU_SP_DEVINFO_DATA@@K@ZEA=C:\Windows\System32\migisol.?m_SetupDiDestroyDriverInfoList@CIlNt4Setupapi@@0P6AHPEAXPEAU_SP_DEVINFO_DATA@@K@ZEA
  ?m_SetupDiEnumDeviceInfo@CIlNt4Setupapi@@0P6AHPEAXKPEAU_SP_DEVINFO_DATA@@@ZEA=C:\Windows\System32\migisol.?m_SetupDiEnumDeviceInfo@CIlNt4Setupapi@@0P6AHPEAXKPEAU_SP_DEVINFO_DATA@@@ZEA
  ?m_SetupDiEnumDeviceInterfaces@CIlNt4Setupapi@@0P6AHPEAXPEAU_SP_DEVINFO_DATA@@PEBU_GUID@@KPEAU_SP_DEVICE_INTERFACE_DATA@@@ZEA=C:\Windows\System32\migisol.?m_SetupDiEnumDeviceInterfaces@CIlNt4Setupapi@@0P6AHPEAXPEAU_SP_DEVINFO_DATA@@PEBU_GUID@@KPEAU_SP_DEVICE_INTERFACE_DATA@@@ZEA
  ?m_SetupDiEnumDriverInfoW@CIlNt4Setupapi@@0P6AHPEAXPEAU_SP_DEVINFO_DATA@@KKPEAU_SP_DRVINFO_DATA_V2_W@@@ZEA=C:\Windows\System32\migisol.?m_SetupDiEnumDriverInfoW@CIlNt4Setupapi@@0P6AHPEAXPEAU_SP_DEVINFO_DATA@@KKPEAU_SP_DRVINFO_DATA_V2_W@@@ZEA
  ?m_SetupDiGetClassDevsExW@CIlNt4Setupapi@@0P6APEAXPEBU_GUID@@PEBGPEAUHWND__@@KPEAX13@ZEA=C:\Windows\System32\migisol.?m_SetupDiGetClassDevsExW@CIlNt4Setupapi@@0P6APEAXPEBU_GUID@@PEBGPEAUHWND__@@KPEAX13@ZEA
  ?m_SetupDiGetClassDevsW@CIlNt4Setupapi@@0P6APEAXPEBU_GUID@@PEBGPEAUHWND__@@K@ZEA=C:\Windows\System32\migisol.?m_SetupDiGetClassDevsW@CIlNt4Setupapi@@0P6APEAXPEBU_GUID@@PEBGPEAUHWND__@@K@ZEA
  ?m_SetupDiGetDeviceInstallParamsW@CIlNt4Setupapi@@0P6AHPEAXPEAU_SP_DEVINFO_DATA@@PEAU_SP_DEVINSTALL_PARAMS_W@@@ZEA=C:\Windows\System32\migisol.?m_SetupDiGetDeviceInstallParamsW@CIlNt4Setupapi@@0P6AHPEAXPEAU_SP_DEVINFO_DATA@@PEAU_SP_DEVINSTALL_PARAMS_W@@@ZEA
  ?m_SetupDiGetDeviceInterfaceDetailW@CIlNt4Setupapi@@0P6AHPEAXPEAU_SP_DEVICE_INTERFACE_DATA@@PEAU_SP_DEVICE_INTERFACE_DETAIL_DATA_W@@KPEAKPEAU_SP_DEVINFO_DATA@@@ZEA=C:\Windows\System32\migisol.?m_SetupDiGetDeviceInterfaceDetailW@CIlNt4Setupapi@@0P6AHPEAXPEAU_SP_DEVICE_INTERFACE_DATA@@PEAU_SP_DEVICE_INTERFACE_DETAIL_DATA_W@@KPEAKPEAU_SP_DEVINFO_DATA@@@ZEA
  ?m_SetupDiGetDeviceRegistryPropertyW@CIlNt4Setupapi@@0P6AHPEAXPEAU_SP_DEVINFO_DATA@@KPEAKPEAEK2@ZEA=C:\Windows\System32\migisol.?m_SetupDiGetDeviceRegistryPropertyW@CIlNt4Setupapi@@0P6AHPEAXPEAU_SP_DEVINFO_DATA@@KPEAKPEAEK2@ZEA
  ?m_SetupDiGetDriverInfoDetailW@CIlNt4Setupapi@@0P6AHPEAXPEAU_SP_DEVINFO_DATA@@PEAU_SP_DRVINFO_DATA_V2_W@@PEAU_SP_DRVINFO_DETAIL_DATA_W@@KPEAK@ZEA=C:\Windows\System32\migisol.?m_SetupDiGetDriverInfoDetailW@CIlNt4Setupapi@@0P6AHPEAXPEAU_SP_DEVINFO_DATA@@PEAU_SP_DRVINFO_DATA_V2_W@@PEAU_SP_DRVINFO_DETAIL_DATA_W@@KPEAK@ZEA
  ?m_SetupDiOpenDevRegKey@CIlNt4Setupapi@@0P6APEAUHKEY__@@PEAXPEAU_SP_DEVINFO_DATA@@KKKK@ZEA=C:\Windows\System32\migisol.?m_SetupDiOpenDevRegKey@CIlNt4Setupapi@@0P6APEAUHKEY__@@PEAXPEAU_SP_DEVINFO_DATA@@KKKK@ZEA
  ?m_SetupDiOpenDeviceInfoW@CIlNt4Setupapi@@0P6AHPEAXPEBGPEAUHWND__@@KPEAU_SP_DEVINFO_DATA@@@ZEA=C:\Windows\System32\migisol.?m_SetupDiOpenDeviceInfoW@CIlNt4Setupapi@@0P6AHPEAXPEBGPEAUHWND__@@KPEAU_SP_DEVINFO_DATA@@@ZEA
  ?m_SetupDiSetDeviceInstallParamsW@CIlNt4Setupapi@@0P6AHPEAXPEAU_SP_DEVINFO_DATA@@PEAU_SP_DEVINSTALL_PARAMS_W@@@ZEA=C:\Windows\System32\migisol.?m_SetupDiSetDeviceInstallParamsW@CIlNt4Setupapi@@0P6AHPEAXPEAU_SP_DEVINFO_DATA@@PEAU_SP_DEVINSTALL_PARAMS_W@@@ZEA
  ?m_SetupDiSetSelectedDriverW@CIlNt4Setupapi@@0P6AHPEAXPEAU_SP_DEVINFO_DATA@@PEAU_SP_DRVINFO_DATA_V2_W@@@ZEA=C:\Windows\System32\migisol.?m_SetupDiSetSelectedDriverW@CIlNt4Setupapi@@0P6AHPEAXPEAU_SP_DEVINFO_DATA@@PEAU_SP_DRVINFO_DATA_V2_W@@@ZEA
  ?m_SetupGetInfInformationW@CIlNt4Setupapi@@0P6AHPEBXKPEAU_SP_INF_INFORMATION@@KPEAK@ZEA=C:\Windows\System32\migisol.?m_SetupGetInfInformationW@CIlNt4Setupapi@@0P6AHPEBXKPEAU_SP_INF_INFORMATION@@KPEAK@ZEA
  ?m_SetupOpenFileQueue@CIlNt4Setupapi@@0P6APEAXXZEA=C:\Windows\System32\migisol.?m_SetupOpenFileQueue@CIlNt4Setupapi@@0P6APEAXXZEA
  ?m_SetupQueryInfOriginalFileInformationW@CIlNt4Setupapi@@0P6AHPEAU_SP_INF_INFORMATION@@IPEAU_SP_ALTPLATFORM_INFO_V2@@PEAU_SP_ORIGINAL_FILE_INFO_W@@@ZEA=C:\Windows\System32\migisol.?m_SetupQueryInfOriginalFileInformationW@CIlNt4Setupapi@@0P6AHPEAU_SP_INF_INFORMATION@@IPEAU_SP_ALTPLATFORM_INFO_V2@@PEAU_SP_ORIGINAL_FILE_INFO_W@@@ZEA
  ?m_SetupScanFileQueueW@CIlNt4Setupapi@@0P6AHPEAXKPEAUHWND__@@P6AI0I_K2@Z0PEAK@ZEA=C:\Windows\System32\migisol.?m_SetupScanFileQueueW@CIlNt4Setupapi@@0P6AHPEAXKPEAUHWND__@@P6AI0I_K2@Z0PEAK@ZEA
  ?m_StartServiceW@CIlNt4Advapi32@@0P6AHPEAUSC_HANDLE__@@KPEAPEBG@ZEA=C:\Windows\System32\migisol.?m_StartServiceW@CIlNt4Advapi32@@0P6AHPEAUSC_HANDLE__@@KPEAPEBG@ZEA
  ?m_UnlockServiceDatabase@CIlNt4Advapi32@@0P6AHPEAX@ZEA=C:\Windows\System32\migisol.?m_UnlockServiceDatabase@CIlNt4Advapi32@@0P6AHPEAX@ZEA
  ?m_freeaddrinfo@CIlW2kDynWs2_32@@0P6AXPEAUaddrinfo@@@ZEA=C:\Windows\System32\migisol.?m_freeaddrinfo@CIlW2kDynWs2_32@@0P6AXPEAUaddrinfo@@@ZEA
  ?m_getaddrinfo@CIlW2kDynWs2_32@@0P6AHPEBD0PEBUaddrinfo@@PEAPEAU2@@ZEA=C:\Windows\System32\migisol.?m_getaddrinfo@CIlW2kDynWs2_32@@0P6AHPEBD0PEBUaddrinfo@@PEAPEAU2@@ZEA
  ?m_getnameinfo@CIlW2kDynWs2_32@@0P6AHPEBUsockaddr@@HPEADK1KH@ZEA=C:\Windows\System32\migisol.?m_getnameinfo@CIlW2kDynWs2_32@@0P6AHPEBUsockaddr@@HPEADK1KH@ZEA
  ?recv@CIlWs2_32@@UEAAH_KPEADHH@Z=C:\Windows\System32\migisol.?recv@CIlWs2_32@@UEAAH_KPEADHH@Z
  ?recvfrom@CIlWs2_32@@UEAAH_KPEADHHPEAUsockaddr@@PEAH@Z=C:\Windows\System32\migisol.?recvfrom@CIlWs2_32@@UEAAH_KPEADHHPEAUsockaddr@@PEAH@Z
  ?release_ChangeServiceConfigW@CIlNt4Advapi32@@QEAAXXZ=C:\Windows\System32\migisol.?release_ChangeServiceConfigW@CIlNt4Advapi32@@QEAAXXZ
  ?release_CloseServiceHandle@CIlNt4Advapi32@@QEAAXXZ=C:\Windows\System32\migisol.?release_CloseServiceHandle@CIlNt4Advapi32@@QEAAXXZ
  ?release_ConvertSecurityDescriptorToStringSecurityDescriptorW@CIlNt4Advapi32@@QEAAXXZ=C:\Windows\System32\migisol.?release_ConvertSecurityDescriptorToStringSecurityDescriptorW@CIlNt4Advapi32@@QEAAXXZ
  ?release_ConvertSidToStringSidW@CIlNt4Advapi32@@QEAAXXZ=C:\Windows\System32\migisol.?release_ConvertSidToStringSidW@CIlNt4Advapi32@@QEAAXXZ
  ?release_ConvertStringSecurityDescriptorToSecurityDescriptorW@CIlNt4Advapi32@@QEAAXXZ=C:\Windows\System32\migisol.?release_ConvertStringSecurityDescriptorToSecurityDescriptorW@CIlNt4Advapi32@@QEAAXXZ
  ?release_ConvertStringSidToSidW@CIlNt4Advapi32@@QEAAXXZ=C:\Windows\System32\migisol.?release_ConvertStringSidToSidW@CIlNt4Advapi32@@QEAAXXZ
  ?release_CreateProfile@CIlNt6Userenv@@QEAAXXZ=C:\Windows\System32\migisol.?release_CreateProfile@CIlNt6Userenv@@QEAAXXZ
  ?release_CreateServiceW@CIlNt4Advapi32@@QEAAXXZ=C:\Windows\System32\migisol.?release_CreateServiceW@CIlNt4Advapi32@@QEAAXXZ
  ?release_CreateToolhelp32Snapshot@CIlNt4Kernel32@@QEAAXXZ=C:\Windows\System32\migisol.?release_CreateToolhelp32Snapshot@CIlNt4Kernel32@@QEAAXXZ
  ?release_CreateUserProfileExW@CIlNt4Userenv@@QEAAXXZ=C:\Windows\System32\migisol.?release_CreateUserProfileExW@CIlNt4Userenv@@QEAAXXZ
  ?release_CreateWellKnownSid@CIlNt4Advapi32@@QEAAXXZ=C:\Windows\System32\migisol.?release_CreateWellKnownSid@CIlNt4Advapi32@@QEAAXXZ
  ?release_EncryptFileW@CIlNt4Advapi32@@QEAAXXZ=C:\Windows\System32\migisol.?release_EncryptFileW@CIlNt4Advapi32@@QEAAXXZ
  ?release_EnumServicesStatusExW@CIlNt4Advapi32@@QEAAXXZ=C:\Windows\System32\migisol.?release_EnumServicesStatusExW@CIlNt4Advapi32@@QEAAXXZ
  ?release_GetSystemWindowsDirectoryW@CIlNt4Kernel32@@QEAAXXZ=C:\Windows\System32\migisol.?release_GetSystemWindowsDirectoryW@CIlNt4Kernel32@@QEAAXXZ
  ?release_GlobalMemoryStatusEx@CIlNt4Kernel32@@QEAAXXZ=C:\Windows\System32\migisol.?release_GlobalMemoryStatusEx@CIlNt4Kernel32@@QEAAXXZ
  ?release_InitiateSystemShutdownExW@CIlNt4Advapi32@@QEAAXXZ=C:\Windows\System32\migisol.?release_InitiateSystemShutdownExW@CIlNt4Advapi32@@QEAAXXZ
  ?release_LockServiceDatabase@CIlNt4Advapi32@@QEAAXXZ=C:\Windows\System32\migisol.?release_LockServiceDatabase@CIlNt4Advapi32@@QEAAXXZ
  ?release_LockSetForegroundWindow@CIlNt4User32@@QEAAXXZ=C:\Windows\System32\migisol.?release_LockSetForegroundWindow@CIlNt4User32@@QEAAXXZ
  ?release_NetApiBufferFree@CIlNt4Netapi32@@QEAAXXZ=C:\Windows\System32\migisol.?release_NetApiBufferFree@CIlNt4Netapi32@@QEAAXXZ
  ?release_NetLocalGroupAdd@CIlNt4Netapi32@@QEAAXXZ=C:\Windows\System32\migisol.?release_NetLocalGroupAdd@CIlNt4Netapi32@@QEAAXXZ
  ?release_NetLocalGroupAddMembers@CIlNt4Netapi32@@QEAAXXZ=C:\Windows\System32\migisol.?release_NetLocalGroupAddMembers@CIlNt4Netapi32@@QEAAXXZ
  ?release_NetLocalGroupEnum@CIlNt4Netapi32@@QEAAXXZ=C:\Windows\System32\migisol.?release_NetLocalGroupEnum@CIlNt4Netapi32@@QEAAXXZ
  ?release_NetUserAdd@CIlNt4Netapi32@@QEAAXXZ=C:\Windows\System32\migisol.?release_NetUserAdd@CIlNt4Netapi32@@QEAAXXZ
  ?release_NetUserDel@CIlNt4Netapi32@@QEAAXXZ=C:\Windows\System32\migisol.?release_NetUserDel@CIlNt4Netapi32@@QEAAXXZ
  ?release_NetUserEnum@CIlNt4Netapi32@@QEAAXXZ=C:\Windows\System32\migisol.?release_NetUserEnum@CIlNt4Netapi32@@QEAAXXZ
  ?release_NetUserGetLocalGroups@CIlNt4Netapi32@@QEAAXXZ=C:\Windows\System32\migisol.?release_NetUserGetLocalGroups@CIlNt4Netapi32@@QEAAXXZ
  ?release_NetWkstaGetInfo@CIlNt4Netapi32@@QEAAXXZ=C:\Windows\System32\migisol.?release_NetWkstaGetInfo@CIlNt4Netapi32@@QEAAXXZ
  ?release_OpenSCManagerW@CIlNt4Advapi32@@QEAAXXZ=C:\Windows\System32\migisol.?release_OpenSCManagerW@CIlNt4Advapi32@@QEAAXXZ
  ?release_OpenServiceW@CIlNt4Advapi32@@QEAAXXZ=C:\Windows\System32\migisol.?release_OpenServiceW@CIlNt4Advapi32@@QEAAXXZ
  ?release_Process32FirstW@CIlNt4Kernel32@@QEAAXXZ=C:\Windows\System32\migisol.?release_Process32FirstW@CIlNt4Kernel32@@QEAAXXZ
  ?release_Process32NextW@CIlNt4Kernel32@@QEAAXXZ=C:\Windows\System32\migisol.?release_Process32NextW@CIlNt4Kernel32@@QEAAXXZ
  ?release_QueryServiceConfigW@CIlNt4Advapi32@@QEAAXXZ=C:\Windows\System32\migisol.?release_QueryServiceConfigW@CIlNt4Advapi32@@QEAAXXZ
  ?release_RegisterWaitForSingleObject@CIlNt4Kernel32@@QEAAXXZ=C:\Windows\System32\migisol.?release_RegisterWaitForSingleObject@CIlNt4Kernel32@@QEAAXXZ
  ?release_SetupCloseFileQueue@CIlNt4Setupapi@@QEAAXXZ=C:\Windows\System32\migisol.?release_SetupCloseFileQueue@CIlNt4Setupapi@@QEAAXXZ
  ?release_SetupDiBuildDriverInfoList@CIlNt4Setupapi@@QEAAXXZ=C:\Windows\System32\migisol.?release_SetupDiBuildDriverInfoList@CIlNt4Setupapi@@QEAAXXZ
  ?release_SetupDiCallClassInstaller@CIlNt4Setupapi@@QEAAXXZ=C:\Windows\System32\migisol.?release_SetupDiCallClassInstaller@CIlNt4Setupapi@@QEAAXXZ
  ?release_SetupDiCreateDeviceInfoListExW@CIlNt4Setupapi@@QEAAXXZ=C:\Windows\System32\migisol.?release_SetupDiCreateDeviceInfoListExW@CIlNt4Setupapi@@QEAAXXZ
  ?release_SetupDiDestroyDeviceInfoList@CIlNt4Setupapi@@QEAAXXZ=C:\Windows\System32\migisol.?release_SetupDiDestroyDeviceInfoList@CIlNt4Setupapi@@QEAAXXZ
  ?release_SetupDiDestroyDriverInfoList@CIlNt4Setupapi@@QEAAXXZ=C:\Windows\System32\migisol.?release_SetupDiDestroyDriverInfoList@CIlNt4Setupapi@@QEAAXXZ
  ?release_SetupDiEnumDeviceInfo@CIlNt4Setupapi@@QEAAXXZ=C:\Windows\System32\migisol.?release_SetupDiEnumDeviceInfo@CIlNt4Setupapi@@QEAAXXZ
  ?release_SetupDiEnumDeviceInterfaces@CIlNt4Setupapi@@QEAAXXZ=C:\Windows\System32\migisol.?release_SetupDiEnumDeviceInterfaces@CIlNt4Setupapi@@QEAAXXZ
  ?release_SetupDiEnumDriverInfoW@CIlNt4Setupapi@@QEAAXXZ=C:\Windows\System32\migisol.?release_SetupDiEnumDriverInfoW@CIlNt4Setupapi@@QEAAXXZ
  ?release_SetupDiGetClassDevsExW@CIlNt4Setupapi@@QEAAXXZ=C:\Windows\System32\migisol.?release_SetupDiGetClassDevsExW@CIlNt4Setupapi@@QEAAXXZ
  ?release_SetupDiGetClassDevsW@CIlNt4Setupapi@@QEAAXXZ=C:\Windows\System32\migisol.?release_SetupDiGetClassDevsW@CIlNt4Setupapi@@QEAAXXZ
  ?release_SetupDiGetDeviceInstallParamsW@CIlNt4Setupapi@@QEAAXXZ=C:\Windows\System32\migisol.?release_SetupDiGetDeviceInstallParamsW@CIlNt4Setupapi@@QEAAXXZ
  ?release_SetupDiGetDeviceInterfaceDetailW@CIlNt4Setupapi@@QEAAXXZ=C:\Windows\System32\migisol.?release_SetupDiGetDeviceInterfaceDetailW@CIlNt4Setupapi@@QEAAXXZ
  ?release_SetupDiGetDeviceRegistryPropertyW@CIlNt4Setupapi@@QEAAXXZ=C:\Windows\System32\migisol.?release_SetupDiGetDeviceRegistryPropertyW@CIlNt4Setupapi@@QEAAXXZ
  ?release_SetupDiGetDriverInfoDetailW@CIlNt4Setupapi@@QEAAXXZ=C:\Windows\System32\migisol.?release_SetupDiGetDriverInfoDetailW@CIlNt4Setupapi@@QEAAXXZ
  ?release_SetupDiOpenDevRegKey@CIlNt4Setupapi@@QEAAXXZ=C:\Windows\System32\migisol.?release_SetupDiOpenDevRegKey@CIlNt4Setupapi@@QEAAXXZ
  ?release_SetupDiOpenDeviceInfoW@CIlNt4Setupapi@@QEAAXXZ=C:\Windows\System32\migisol.?release_SetupDiOpenDeviceInfoW@CIlNt4Setupapi@@QEAAXXZ
  ?release_SetupDiSetDeviceInstallParamsW@CIlNt4Setupapi@@QEAAXXZ=C:\Windows\System32\migisol.?release_SetupDiSetDeviceInstallParamsW@CIlNt4Setupapi@@QEAAXXZ
  ?release_SetupDiSetSelectedDriverW@CIlNt4Setupapi@@QEAAXXZ=C:\Windows\System32\migisol.?release_SetupDiSetSelectedDriverW@CIlNt4Setupapi@@QEAAXXZ
  ?release_SetupGetInfInformationW@CIlNt4Setupapi@@QEAAXXZ=C:\Windows\System32\migisol.?release_SetupGetInfInformationW@CIlNt4Setupapi@@QEAAXXZ
  ?release_SetupOpenFileQueue@CIlNt4Setupapi@@QEAAXXZ=C:\Windows\System32\migisol.?release_SetupOpenFileQueue@CIlNt4Setupapi@@QEAAXXZ
  ?release_SetupQueryInfOriginalFileInformationW@CIlNt4Setupapi@@QEAAXXZ=C:\Windows\System32\migisol.?release_SetupQueryInfOriginalFileInformationW@CIlNt4Setupapi@@QEAAXXZ
  ?release_SetupScanFileQueueW@CIlNt4Setupapi@@QEAAXXZ=C:\Windows\System32\migisol.?release_SetupScanFileQueueW@CIlNt4Setupapi@@QEAAXXZ
  ?release_StartServiceW@CIlNt4Advapi32@@QEAAXXZ=C:\Windows\System32\migisol.?release_StartServiceW@CIlNt4Advapi32@@QEAAXXZ
  ?release_UnlockServiceDatabase@CIlNt4Advapi32@@QEAAXXZ=C:\Windows\System32\migisol.?release_UnlockServiceDatabase@CIlNt4Advapi32@@QEAAXXZ
  ?release_freeaddrinfo@CIlW2kDynWs2_32@@UEAAXXZ=C:\Windows\System32\migisol.?release_freeaddrinfo@CIlW2kDynWs2_32@@UEAAXXZ
  ?release_getaddrinfo@CIlW2kDynWs2_32@@UEAAXXZ=C:\Windows\System32\migisol.?release_getaddrinfo@CIlW2kDynWs2_32@@UEAAXXZ
  ?release_getnameinfo@CIlW2kDynWs2_32@@UEAAXXZ=C:\Windows\System32\migisol.?release_getnameinfo@CIlW2kDynWs2_32@@UEAAXXZ
  ?select@CIlWs2_32@@UEAAHHPEAUfd_set@@00PEBUtimeval@@@Z=C:\Windows\System32\migisol.?select@CIlWs2_32@@UEAAHHPEAUfd_set@@00PEBUtimeval@@@Z
  ?send@CIlWs2_32@@UEAAH_KPEBDHH@Z=C:\Windows\System32\migisol.?send@CIlWs2_32@@UEAAH_KPEBDHH@Z
  ?sendto@CIlWs2_32@@UEAAH_KPEBDHHPEBUsockaddr@@H@Z=C:\Windows\System32\migisol.?sendto@CIlWs2_32@@UEAAH_KPEBDHHPEBUsockaddr@@H@Z
  ?setsockopt@CIlWs2_32@@UEAAH_KHHPEBDH@Z=C:\Windows\System32\migisol.?setsockopt@CIlWs2_32@@UEAAH_KHHPEBDH@Z
  ?shutdown@CIlWs2_32@@UEAAH_KH@Z=C:\Windows\System32\migisol.?shutdown@CIlWs2_32@@UEAAH_KH@Z
  ?socket@CIlWs2_32@@UEAA_KHHH@Z=C:\Windows\System32\migisol.?socket@CIlWs2_32@@UEAA_KHHH@Z
