EXPORTS
  ??0CCritSec@@QEAA@XZ=C:\Windows\System32\msdart.??0CCritSec@@QEAA@XZ
  ??0CDoubleList@@QEAA@XZ=C:\Windows\System32\msdart.??0CDoubleList@@QEAA@XZ
  ??0CEXAutoBackupFile@@QEAA@PEBG@Z=C:\Windows\System32\msdart.??0CEXAutoBackupFile@@QEAA@PEBG@Z
  ??0CEXAutoBackupFile@@QEAA@XZ=C:\Windows\System32\msdart.??0CEXAutoBackupFile@@QEAA@XZ
  ??0CExFileOperation@@QEAA@XZ=C:\Windows\System32\msdart.??0CExFileOperation@@QEAA@XZ
  ??0CFakeLock@@QEAA@XZ=C:\Windows\System32\msdart.??0CFakeLock@@QEAA@XZ
  ??0CLKRHashTable@@QEAA@PEBDP6A?B_KPEBX@ZP6AK_K@ZP6A_N33@ZP6AX1H@ZNKK_N7PEAVCLKRhashAllocator@@@Z=C:\Windows\System32\msdart.??0CLKRHashTable@@QEAA@PEBDP6A?B_KPEBX@ZP6AK_K@ZP6A_N33@ZP6AX1H@ZNKK_N7PEAVCLKRhashAllocator@@@Z
  ??0CLKRHashTableStats@@QEAA@XZ=C:\Windows\System32\msdart.??0CLKRHashTableStats@@QEAA@XZ
  ??0CLKRHashTable_Iterator@@IEAA@PEAVCLKRHashTable@@F@Z=C:\Windows\System32\msdart.??0CLKRHashTable_Iterator@@IEAA@PEAVCLKRHashTable@@F@Z
  ??0CLKRHashTable_Iterator@@QEAA@$$QEAV0@@Z=C:\Windows\System32\msdart.??0CLKRHashTable_Iterator@@QEAA@$$QEAV0@@Z
  ??0CLKRHashTable_Iterator@@QEAA@AEBV0@@Z=C:\Windows\System32\msdart.??0CLKRHashTable_Iterator@@QEAA@AEBV0@@Z
  ??0CLKRHashTable_Iterator@@QEAA@XZ=C:\Windows\System32\msdart.??0CLKRHashTable_Iterator@@QEAA@XZ
  ??0CLKRLinearHashTable@@AEAA@PEBDP6A?B_KPEBX@ZP6AK_K@ZP6A_N33@ZP6AX1H@ZNKPEAVCLKRHashTable@@_N8PEAVCLKRhashAllocator@@@Z=C:\Windows\System32\msdart.??0CLKRLinearHashTable@@AEAA@PEBDP6A?B_KPEBX@ZP6AK_K@ZP6A_N33@ZP6AX1H@ZNKPEAVCLKRHashTable@@_N8PEAVCLKRhashAllocator@@@Z
  ??0CLKRLinearHashTable@@QEAA@PEBDP6A?B_KPEBX@ZP6AK_K@ZP6A_N33@ZP6AX1H@ZNKK_N7PEAVCLKRhashAllocator@@@Z=C:\Windows\System32\msdart.??0CLKRLinearHashTable@@QEAA@PEBDP6A?B_KPEBX@ZP6AK_K@ZP6A_N33@ZP6AX1H@ZNKK_N7PEAVCLKRhashAllocator@@@Z
  ??0CLKRLinearHashTable_Iterator@@IEAA@PEAVCLKRLinearHashTable@@PEAVCNodeClump@@KF@Z=C:\Windows\System32\msdart.??0CLKRLinearHashTable_Iterator@@IEAA@PEAVCLKRLinearHashTable@@PEAVCNodeClump@@KF@Z
  ??0CLKRLinearHashTable_Iterator@@QEAA@AEBV0@@Z=C:\Windows\System32\msdart.??0CLKRLinearHashTable_Iterator@@QEAA@AEBV0@@Z
  ??0CLKRLinearHashTable_Iterator@@QEAA@XZ=C:\Windows\System32\msdart.??0CLKRLinearHashTable_Iterator@@QEAA@XZ
  ??0CLKRhashDefaultAllocator@@QEAA@XZ=C:\Windows\System32\msdart.??0CLKRhashDefaultAllocator@@QEAA@XZ
  ??0CLockedDoubleList@@QEAA@$$QEAV0@@Z=C:\Windows\System32\msdart.??0CLockedDoubleList@@QEAA@$$QEAV0@@Z
  ??0CLockedDoubleList@@QEAA@AEBV0@@Z=C:\Windows\System32\msdart.??0CLockedDoubleList@@QEAA@AEBV0@@Z
  ??0CLockedDoubleList@@QEAA@XZ=C:\Windows\System32\msdart.??0CLockedDoubleList@@QEAA@XZ
  ??0CLockedSingleList@@QEAA@$$QEAV0@@Z=C:\Windows\System32\msdart.??0CLockedSingleList@@QEAA@$$QEAV0@@Z
  ??0CLockedSingleList@@QEAA@AEBV0@@Z=C:\Windows\System32\msdart.??0CLockedSingleList@@QEAA@AEBV0@@Z
  ??0CLockedSingleList@@QEAA@XZ=C:\Windows\System32\msdart.??0CLockedSingleList@@QEAA@XZ
  ??0CReaderWriterLock2@@QEAA@AEBV0@@Z=C:\Windows\System32\msdart.??0CReaderWriterLock2@@QEAA@AEBV0@@Z
  ??0CReaderWriterLock2@@QEAA@XZ=C:\Windows\System32\msdart.??0CReaderWriterLock2@@QEAA@XZ
  ??0CReaderWriterLock3@@QEAA@AEBV0@@Z=C:\Windows\System32\msdart.??0CReaderWriterLock3@@QEAA@AEBV0@@Z
  ??0CReaderWriterLock3@@QEAA@XZ=C:\Windows\System32\msdart.??0CReaderWriterLock3@@QEAA@XZ
  ??0CReaderWriterLock3AR@@QEAA@AEBV0@@Z=C:\Windows\System32\msdart.??0CReaderWriterLock3AR@@QEAA@AEBV0@@Z
  ??0CReaderWriterLock3AR@@QEAA@XZ=C:\Windows\System32\msdart.??0CReaderWriterLock3AR@@QEAA@XZ
  ??0CReaderWriterLock@@QEAA@AEBV0@@Z=C:\Windows\System32\msdart.??0CReaderWriterLock@@QEAA@AEBV0@@Z
  ??0CReaderWriterLock@@QEAA@XZ=C:\Windows\System32\msdart.??0CReaderWriterLock@@QEAA@XZ
  ??0CSingleList@@QEAA@XZ=C:\Windows\System32\msdart.??0CSingleList@@QEAA@XZ
  ??0CSmallSpinLock@@QEAA@AEBV0@@Z=C:\Windows\System32\msdart.??0CSmallSpinLock@@QEAA@AEBV0@@Z
  ??0CSmallSpinLock@@QEAA@XZ=C:\Windows\System32\msdart.??0CSmallSpinLock@@QEAA@XZ
  ??0CSpinLock@@QEAA@AEBV0@@Z=C:\Windows\System32\msdart.??0CSpinLock@@QEAA@AEBV0@@Z
  ??0CSpinLock@@QEAA@XZ=C:\Windows\System32\msdart.??0CSpinLock@@QEAA@XZ
  ??1CCritSec@@QEAA@XZ=C:\Windows\System32\msdart.??1CCritSec@@QEAA@XZ
  ??1CDoubleList@@QEAA@XZ=C:\Windows\System32\msdart.??1CDoubleList@@QEAA@XZ
  ??1CEXAutoBackupFile@@QEAA@XZ=C:\Windows\System32\msdart.??1CEXAutoBackupFile@@QEAA@XZ
  ??1CExFileOperation@@QEAA@XZ=C:\Windows\System32\msdart.??1CExFileOperation@@QEAA@XZ
  ??1CFakeLock@@QEAA@XZ=C:\Windows\System32\msdart.??1CFakeLock@@QEAA@XZ
  ??1CLKRHashTable@@QEAA@XZ=C:\Windows\System32\msdart.??1CLKRHashTable@@QEAA@XZ
  ??1CLKRHashTable_Iterator@@QEAA@XZ=C:\Windows\System32\msdart.??1CLKRHashTable_Iterator@@QEAA@XZ
  ??1CLKRLinearHashTable@@QEAA@XZ=C:\Windows\System32\msdart.??1CLKRLinearHashTable@@QEAA@XZ
  ??1CLKRLinearHashTable_Iterator@@QEAA@XZ=C:\Windows\System32\msdart.??1CLKRLinearHashTable_Iterator@@QEAA@XZ
  ??1CLockedDoubleList@@QEAA@XZ=C:\Windows\System32\msdart.??1CLockedDoubleList@@QEAA@XZ
  ??1CLockedSingleList@@QEAA@XZ=C:\Windows\System32\msdart.??1CLockedSingleList@@QEAA@XZ
  ??1CReaderWriterLock2@@QEAA@XZ=C:\Windows\System32\msdart.??1CReaderWriterLock2@@QEAA@XZ
  ??1CReaderWriterLock3@@QEAA@XZ=C:\Windows\System32\msdart.??1CReaderWriterLock3@@QEAA@XZ
  ??1CReaderWriterLock3AR@@QEAA@XZ=C:\Windows\System32\msdart.??1CReaderWriterLock3AR@@QEAA@XZ
  ??1CReaderWriterLock@@QEAA@XZ=C:\Windows\System32\msdart.??1CReaderWriterLock@@QEAA@XZ
  ??1CSingleList@@QEAA@XZ=C:\Windows\System32\msdart.??1CSingleList@@QEAA@XZ
  ??1CSmallSpinLock@@QEAA@XZ=C:\Windows\System32\msdart.??1CSmallSpinLock@@QEAA@XZ
  ??1CSpinLock@@QEAA@XZ=C:\Windows\System32\msdart.??1CSpinLock@@QEAA@XZ
  ??4?$CLockBase@$00$00$02$00$02$01@@QEAAAEAV0@$$QEAV0@@Z=C:\Windows\System32\msdart.??4?$CLockBase@$00$00$02$00$02$01@@QEAAAEAV0@$$QEAV0@@Z
  ??4?$CLockBase@$00$00$02$00$02$01@@QEAAAEAV0@AEBV0@@Z=C:\Windows\System32\msdart.??4?$CLockBase@$00$00$02$00$02$01@@QEAAAEAV0@AEBV0@@Z
  ??4?$CLockBase@$01$00$00$00$02$01@@QEAAAEAV0@$$QEAV0@@Z=C:\Windows\System32\msdart.??4?$CLockBase@$01$00$00$00$02$01@@QEAAAEAV0@$$QEAV0@@Z
  ??4?$CLockBase@$01$00$00$00$02$01@@QEAAAEAV0@AEBV0@@Z=C:\Windows\System32\msdart.??4?$CLockBase@$01$00$00$00$02$01@@QEAAAEAV0@AEBV0@@Z
  ??4?$CLockBase@$02$00$00$00$00$00@@QEAAAEAV0@$$QEAV0@@Z=C:\Windows\System32\msdart.??4?$CLockBase@$02$00$00$00$00$00@@QEAAAEAV0@$$QEAV0@@Z
  ??4?$CLockBase@$02$00$00$00$00$00@@QEAAAEAV0@AEBV0@@Z=C:\Windows\System32\msdart.??4?$CLockBase@$02$00$00$00$00$00@@QEAAAEAV0@AEBV0@@Z
  ??4?$CLockBase@$03$00$00$01$02$02@@QEAAAEAV0@$$QEAV0@@Z=C:\Windows\System32\msdart.??4?$CLockBase@$03$00$00$01$02$02@@QEAAAEAV0@$$QEAV0@@Z
  ??4?$CLockBase@$03$00$00$01$02$02@@QEAAAEAV0@AEBV0@@Z=C:\Windows\System32\msdart.??4?$CLockBase@$03$00$00$01$02$02@@QEAAAEAV0@AEBV0@@Z
  ??4?$CLockBase@$04$01$01$00$02$01@@QEAAAEAV0@$$QEAV0@@Z=C:\Windows\System32\msdart.??4?$CLockBase@$04$01$01$00$02$01@@QEAAAEAV0@$$QEAV0@@Z
  ??4?$CLockBase@$04$01$01$00$02$01@@QEAAAEAV0@AEBV0@@Z=C:\Windows\System32\msdart.??4?$CLockBase@$04$01$01$00$02$01@@QEAAAEAV0@AEBV0@@Z
  ??4?$CLockBase@$05$01$01$00$02$01@@QEAAAEAV0@$$QEAV0@@Z=C:\Windows\System32\msdart.??4?$CLockBase@$05$01$01$00$02$01@@QEAAAEAV0@$$QEAV0@@Z
  ??4?$CLockBase@$05$01$01$00$02$01@@QEAAAEAV0@AEBV0@@Z=C:\Windows\System32\msdart.??4?$CLockBase@$05$01$01$00$02$01@@QEAAAEAV0@AEBV0@@Z
  ??4?$CLockBase@$06$01$00$00$02$01@@QEAAAEAV0@$$QEAV0@@Z=C:\Windows\System32\msdart.??4?$CLockBase@$06$01$00$00$02$01@@QEAAAEAV0@$$QEAV0@@Z
  ??4?$CLockBase@$06$01$00$00$02$01@@QEAAAEAV0@AEBV0@@Z=C:\Windows\System32\msdart.??4?$CLockBase@$06$01$00$00$02$01@@QEAAAEAV0@AEBV0@@Z
  ??4?$CLockBase@$07$01$00$00$02$01@@QEAAAEAV0@$$QEAV0@@Z=C:\Windows\System32\msdart.??4?$CLockBase@$07$01$00$00$02$01@@QEAAAEAV0@$$QEAV0@@Z
  ??4?$CLockBase@$07$01$00$00$02$01@@QEAAAEAV0@AEBV0@@Z=C:\Windows\System32\msdart.??4?$CLockBase@$07$01$00$00$02$01@@QEAAAEAV0@AEBV0@@Z
  ??4CCritSec@@QEAAAEAV0@AEBV0@@Z=C:\Windows\System32\msdart.??4CCritSec@@QEAAAEAV0@AEBV0@@Z
  ??4CDoubleList@@QEAAAEAV0@AEBV0@@Z=C:\Windows\System32\msdart.??4CDoubleList@@QEAAAEAV0@AEBV0@@Z
  ??4CEXAutoBackupFile@@QEAAAEAV0@AEBV0@@Z=C:\Windows\System32\msdart.??4CEXAutoBackupFile@@QEAAAEAV0@AEBV0@@Z
  ??4CExFileOperation@@QEAAAEAV0@AEBV0@@Z=C:\Windows\System32\msdart.??4CExFileOperation@@QEAAAEAV0@AEBV0@@Z
  ??4CFakeLock@@QEAAAEAV0@AEBV0@@Z=C:\Windows\System32\msdart.??4CFakeLock@@QEAAAEAV0@AEBV0@@Z
  ??4CLKRHashTableStats@@QEAAAEAV0@$$QEAV0@@Z=C:\Windows\System32\msdart.??4CLKRHashTableStats@@QEAAAEAV0@$$QEAV0@@Z
  ??4CLKRHashTableStats@@QEAAAEAV0@AEBV0@@Z=C:\Windows\System32\msdart.??4CLKRHashTableStats@@QEAAAEAV0@AEBV0@@Z
  ??4CLKRHashTable_Iterator@@QEAAAEAV0@$$QEAV0@@Z=C:\Windows\System32\msdart.??4CLKRHashTable_Iterator@@QEAAAEAV0@$$QEAV0@@Z
  ??4CLKRHashTable_Iterator@@QEAAAEAV0@AEBV0@@Z=C:\Windows\System32\msdart.??4CLKRHashTable_Iterator@@QEAAAEAV0@AEBV0@@Z
  ??4CLKRLinearHashTable_Iterator@@QEAAAEAV0@AEBV0@@Z=C:\Windows\System32\msdart.??4CLKRLinearHashTable_Iterator@@QEAAAEAV0@AEBV0@@Z
  ??4CLockedDoubleList@@QEAAAEAV0@$$QEAV0@@Z=C:\Windows\System32\msdart.??4CLockedDoubleList@@QEAAAEAV0@$$QEAV0@@Z
  ??4CLockedDoubleList@@QEAAAEAV0@AEBV0@@Z=C:\Windows\System32\msdart.??4CLockedDoubleList@@QEAAAEAV0@AEBV0@@Z
  ??4CLockedSingleList@@QEAAAEAV0@$$QEAV0@@Z=C:\Windows\System32\msdart.??4CLockedSingleList@@QEAAAEAV0@$$QEAV0@@Z
  ??4CLockedSingleList@@QEAAAEAV0@AEBV0@@Z=C:\Windows\System32\msdart.??4CLockedSingleList@@QEAAAEAV0@AEBV0@@Z
  ??4CMdVersionInfo@@QEAAAEAV0@$$QEAV0@@Z=C:\Windows\System32\msdart.??4CMdVersionInfo@@QEAAAEAV0@$$QEAV0@@Z
  ??4CMdVersionInfo@@QEAAAEAV0@AEBV0@@Z=C:\Windows\System32\msdart.??4CMdVersionInfo@@QEAAAEAV0@AEBV0@@Z
  ??4CReaderWriterLock2@@QEAAAEAV0@AEBV0@@Z=C:\Windows\System32\msdart.??4CReaderWriterLock2@@QEAAAEAV0@AEBV0@@Z
  ??4CReaderWriterLock3@@QEAAAEAV0@AEBV0@@Z=C:\Windows\System32\msdart.??4CReaderWriterLock3@@QEAAAEAV0@AEBV0@@Z
  ??4CReaderWriterLock3AR@@QEAAAEAV0@AEBV0@@Z=C:\Windows\System32\msdart.??4CReaderWriterLock3AR@@QEAAAEAV0@AEBV0@@Z
  ??4CReaderWriterLock@@QEAAAEAV0@AEBV0@@Z=C:\Windows\System32\msdart.??4CReaderWriterLock@@QEAAAEAV0@AEBV0@@Z
  ??4CSingleList@@QEAAAEAV0@AEBV0@@Z=C:\Windows\System32\msdart.??4CSingleList@@QEAAAEAV0@AEBV0@@Z
  ??4CSmallSpinLock@@QEAAAEAV0@AEBV0@@Z=C:\Windows\System32\msdart.??4CSmallSpinLock@@QEAAAEAV0@AEBV0@@Z
  ??4CSpinLock@@QEAAAEAV0@AEBV0@@Z=C:\Windows\System32\msdart.??4CSpinLock@@QEAAAEAV0@AEBV0@@Z
  ??8CLKRHashTable_Iterator@@QEBA_NAEBV0@@Z=C:\Windows\System32\msdart.??8CLKRHashTable_Iterator@@QEBA_NAEBV0@@Z
  ??8CLKRLinearHashTable_Iterator@@QEBA_NAEBV0@@Z=C:\Windows\System32\msdart.??8CLKRLinearHashTable_Iterator@@QEBA_NAEBV0@@Z
  ??9CLKRHashTable_Iterator@@QEBA_NAEBV0@@Z=C:\Windows\System32\msdart.??9CLKRHashTable_Iterator@@QEBA_NAEBV0@@Z
  ??9CLKRLinearHashTable_Iterator@@QEBA_NAEBV0@@Z=C:\Windows\System32\msdart.??9CLKRLinearHashTable_Iterator@@QEBA_NAEBV0@@Z
  ??_7CLKRhashDefaultAllocator@@6B@=C:\Windows\System32\msdart.??_7CLKRhashDefaultAllocator@@6B@
  ?Alloc@CLKRhashDefaultAllocator@@UEAAPEAX_KW4Type@CLKRhashAllocator@@@Z=C:\Windows\System32\msdart.?Alloc@CLKRhashDefaultAllocator@@UEAAPEAX_KW4Type@CLKRhashAllocator@@@Z
  ?Apply@CLKRHashTable@@QEAAKP6A?AW4LK_ACTION@@PEBXPEAX@Z1W4LK_LOCKTYPE@@@Z=C:\Windows\System32\msdart.?Apply@CLKRHashTable@@QEAAKP6A?AW4LK_ACTION@@PEBXPEAX@Z1W4LK_LOCKTYPE@@@Z
  ?Apply@CLKRLinearHashTable@@QEAAKP6A?AW4LK_ACTION@@PEBXPEAX@Z1W4LK_LOCKTYPE@@@Z=C:\Windows\System32\msdart.?Apply@CLKRLinearHashTable@@QEAAKP6A?AW4LK_ACTION@@PEBXPEAX@Z1W4LK_LOCKTYPE@@@Z
  ?ApplyIf@CLKRHashTable@@QEAAKP6A?AW4LK_PREDICATE@@PEBXPEAX@ZP6A?AW4LK_ACTION@@01@Z1W4LK_LOCKTYPE@@@Z=C:\Windows\System32\msdart.?ApplyIf@CLKRHashTable@@QEAAKP6A?AW4LK_PREDICATE@@PEBXPEAX@ZP6A?AW4LK_ACTION@@01@Z1W4LK_LOCKTYPE@@@Z
  ?ApplyIf@CLKRLinearHashTable@@QEAAKP6A?AW4LK_PREDICATE@@PEBXPEAX@ZP6A?AW4LK_ACTION@@01@Z1W4LK_LOCKTYPE@@@Z=C:\Windows\System32\msdart.?ApplyIf@CLKRLinearHashTable@@QEAAKP6A?AW4LK_PREDICATE@@PEBXPEAX@ZP6A?AW4LK_ACTION@@01@Z1W4LK_LOCKTYPE@@@Z
  ?BackupFile@CEXAutoBackupFile@@QEAAJPEBG@Z=C:\Windows\System32\msdart.?BackupFile@CEXAutoBackupFile@@QEAAJPEBG@Z
  ?Begin@CLKRHashTable@@QEAA?AVCLKRHashTable_Iterator@@XZ=C:\Windows\System32\msdart.?Begin@CLKRHashTable@@QEAA?AVCLKRHashTable_Iterator@@XZ
  ?Begin@CLKRLinearHashTable@@QEAA?AVCLKRLinearHashTable_Iterator@@XZ=C:\Windows\System32\msdart.?Begin@CLKRLinearHashTable@@QEAA?AVCLKRLinearHashTable_Iterator@@XZ
  ?BucketIndex@CLKRHashTableStats@@SAJJ@Z=C:\Windows\System32\msdart.?BucketIndex@CLKRHashTableStats@@SAJJ@Z
  ?BucketSize@CLKRHashTableStats@@SAJJ@Z=C:\Windows\System32\msdart.?BucketSize@CLKRHashTableStats@@SAJJ@Z
  ?BucketSizes@CLKRHashTableStats@@SAPEBJXZ=C:\Windows\System32\msdart.?BucketSizes@CLKRHashTableStats@@SAPEBJXZ
  ?CheckTable@CLKRHashTable@@QEBAHXZ=C:\Windows\System32\msdart.?CheckTable@CLKRHashTable@@QEBAHXZ
  ?CheckTable@CLKRLinearHashTable@@QEBAHXZ=C:\Windows\System32\msdart.?CheckTable@CLKRLinearHashTable@@QEBAHXZ
  ?ClassName@CCritSec@@SAPEBGXZ=C:\Windows\System32\msdart.?ClassName@CCritSec@@SAPEBGXZ
  ?ClassName@CFakeLock@@SAPEBGXZ=C:\Windows\System32\msdart.?ClassName@CFakeLock@@SAPEBGXZ
  ?ClassName@CLKRHashTable@@SAPEBGXZ=C:\Windows\System32\msdart.?ClassName@CLKRHashTable@@SAPEBGXZ
  ?ClassName@CLKRLinearHashTable@@SAPEBGXZ=C:\Windows\System32\msdart.?ClassName@CLKRLinearHashTable@@SAPEBGXZ
  ?ClassName@CLKRhashDefaultAllocator@@UEAAPEBGXZ=C:\Windows\System32\msdart.?ClassName@CLKRhashDefaultAllocator@@UEAAPEBGXZ
  ?ClassName@CReaderWriterLock2@@SAPEBGXZ=C:\Windows\System32\msdart.?ClassName@CReaderWriterLock2@@SAPEBGXZ
  ?ClassName@CReaderWriterLock3@@SAPEBGXZ=C:\Windows\System32\msdart.?ClassName@CReaderWriterLock3@@SAPEBGXZ
  ?ClassName@CReaderWriterLock3AR@@SAPEBGXZ=C:\Windows\System32\msdart.?ClassName@CReaderWriterLock3AR@@SAPEBGXZ
  ?ClassName@CReaderWriterLock@@SAPEBGXZ=C:\Windows\System32\msdart.?ClassName@CReaderWriterLock@@SAPEBGXZ
  ?ClassName@CSmallSpinLock@@SAPEBGXZ=C:\Windows\System32\msdart.?ClassName@CSmallSpinLock@@SAPEBGXZ
  ?ClassName@CSpinLock@@SAPEBGXZ=C:\Windows\System32\msdart.?ClassName@CSpinLock@@SAPEBGXZ
  ?Clear@CLKRHashTable@@QEAAXXZ=C:\Windows\System32\msdart.?Clear@CLKRHashTable@@QEAAXXZ
  ?Clear@CLKRLinearHashTable@@QEAAXXZ=C:\Windows\System32\msdart.?Clear@CLKRLinearHashTable@@QEAAXXZ
  ?ConvertExclusiveToShared@CCritSec@@QEAAXXZ=C:\Windows\System32\msdart.?ConvertExclusiveToShared@CCritSec@@QEAAXXZ
  ?ConvertExclusiveToShared@CFakeLock@@QEAAXXZ=C:\Windows\System32\msdart.?ConvertExclusiveToShared@CFakeLock@@QEAAXXZ
  ?ConvertExclusiveToShared@CLKRHashTable@@QEBAXXZ=C:\Windows\System32\msdart.?ConvertExclusiveToShared@CLKRHashTable@@QEBAXXZ
  ?ConvertExclusiveToShared@CLKRLinearHashTable@@QEBAXXZ=C:\Windows\System32\msdart.?ConvertExclusiveToShared@CLKRLinearHashTable@@QEBAXXZ
  ?ConvertExclusiveToShared@CReaderWriterLock2@@QEAAXXZ=C:\Windows\System32\msdart.?ConvertExclusiveToShared@CReaderWriterLock2@@QEAAXXZ
  ?ConvertExclusiveToShared@CReaderWriterLock3@@QEAAXXZ=C:\Windows\System32\msdart.?ConvertExclusiveToShared@CReaderWriterLock3@@QEAAXXZ
  ?ConvertExclusiveToShared@CReaderWriterLock3AR@@QEAAXXZ=C:\Windows\System32\msdart.?ConvertExclusiveToShared@CReaderWriterLock3AR@@QEAAXXZ
  ?ConvertExclusiveToShared@CReaderWriterLock@@QEAAXXZ=C:\Windows\System32\msdart.?ConvertExclusiveToShared@CReaderWriterLock@@QEAAXXZ
  ?ConvertExclusiveToShared@CSmallSpinLock@@QEAAXXZ=C:\Windows\System32\msdart.?ConvertExclusiveToShared@CSmallSpinLock@@QEAAXXZ
  ?ConvertExclusiveToShared@CSpinLock@@QEAAXXZ=C:\Windows\System32\msdart.?ConvertExclusiveToShared@CSpinLock@@QEAAXXZ
  ?ConvertSharedToExclusive@CCritSec@@QEAAXXZ=C:\Windows\System32\msdart.?ConvertSharedToExclusive@CCritSec@@QEAAXXZ
  ?ConvertSharedToExclusive@CFakeLock@@QEAAXXZ=C:\Windows\System32\msdart.?ConvertSharedToExclusive@CFakeLock@@QEAAXXZ
  ?ConvertSharedToExclusive@CLKRHashTable@@QEBAXXZ=C:\Windows\System32\msdart.?ConvertSharedToExclusive@CLKRHashTable@@QEBAXXZ
  ?ConvertSharedToExclusive@CLKRLinearHashTable@@QEBAXXZ=C:\Windows\System32\msdart.?ConvertSharedToExclusive@CLKRLinearHashTable@@QEBAXXZ
  ?ConvertSharedToExclusive@CReaderWriterLock2@@QEAAXXZ=C:\Windows\System32\msdart.?ConvertSharedToExclusive@CReaderWriterLock2@@QEAAXXZ
  ?ConvertSharedToExclusive@CReaderWriterLock3@@QEAAXXZ=C:\Windows\System32\msdart.?ConvertSharedToExclusive@CReaderWriterLock3@@QEAAXXZ
  ?ConvertSharedToExclusive@CReaderWriterLock3AR@@QEAAXXZ=C:\Windows\System32\msdart.?ConvertSharedToExclusive@CReaderWriterLock3AR@@QEAAXXZ
  ?ConvertSharedToExclusive@CReaderWriterLock@@QEAAXXZ=C:\Windows\System32\msdart.?ConvertSharedToExclusive@CReaderWriterLock@@QEAAXXZ
  ?ConvertSharedToExclusive@CSmallSpinLock@@QEAAXXZ=C:\Windows\System32\msdart.?ConvertSharedToExclusive@CSmallSpinLock@@QEAAXXZ
  ?ConvertSharedToExclusive@CSpinLock@@QEAAXXZ=C:\Windows\System32\msdart.?ConvertSharedToExclusive@CSpinLock@@QEAAXXZ
  ?CreateHolder@@YAJPEAUIGPDispenser@@HIPEAPEAUIGPHolder@@@Z=C:\Windows\System32\msdart.?CreateHolder@@YAJPEAUIGPDispenser@@HIPEAPEAUIGPHolder@@@Z
  ?DeleteIf@CLKRHashTable@@QEAAKP6A?AW4LK_PREDICATE@@PEBXPEAX@Z1@Z=C:\Windows\System32\msdart.?DeleteIf@CLKRHashTable@@QEAAKP6A?AW4LK_PREDICATE@@PEBXPEAX@Z1@Z
  ?DeleteIf@CLKRLinearHashTable@@QEAAKP6A?AW4LK_PREDICATE@@PEBXPEAX@Z1@Z=C:\Windows\System32\msdart.?DeleteIf@CLKRLinearHashTable@@QEAAKP6A?AW4LK_PREDICATE@@PEBXPEAX@Z1@Z
  ?DeleteKey@CLKRHashTable@@QEAA?AW4LK_RETCODE@@_K@Z=C:\Windows\System32\msdart.?DeleteKey@CLKRHashTable@@QEAA?AW4LK_RETCODE@@_K@Z
  ?DeleteKey@CLKRLinearHashTable@@QEAA?AW4LK_RETCODE@@_K@Z=C:\Windows\System32\msdart.?DeleteKey@CLKRLinearHashTable@@QEAA?AW4LK_RETCODE@@_K@Z
  ?DeleteRecord@CLKRHashTable@@QEAA?AW4LK_RETCODE@@PEBX@Z=C:\Windows\System32\msdart.?DeleteRecord@CLKRHashTable@@QEAA?AW4LK_RETCODE@@PEBX@Z
  ?DeleteRecord@CLKRLinearHashTable@@QEAA?AW4LK_RETCODE@@PEBX@Z=C:\Windows\System32\msdart.?DeleteRecord@CLKRLinearHashTable@@QEAA?AW4LK_RETCODE@@PEBX@Z
  ?End@CLKRHashTable@@QEAA?AVCLKRHashTable_Iterator@@XZ=C:\Windows\System32\msdart.?End@CLKRHashTable@@QEAA?AVCLKRHashTable_Iterator@@XZ
  ?End@CLKRLinearHashTable@@QEAA?AVCLKRLinearHashTable_Iterator@@XZ=C:\Windows\System32\msdart.?End@CLKRLinearHashTable@@QEAA?AVCLKRLinearHashTable_Iterator@@XZ
  ?EqualRange@CLKRHashTable@@QEAA_N_KAEAVCLKRHashTable_Iterator@@1@Z=C:\Windows\System32\msdart.?EqualRange@CLKRHashTable@@QEAA_N_KAEAVCLKRHashTable_Iterator@@1@Z
  ?EqualRange@CLKRLinearHashTable@@QEAA_N_KAEAVCLKRLinearHashTable_Iterator@@1@Z=C:\Windows\System32\msdart.?EqualRange@CLKRLinearHashTable@@QEAA_N_KAEAVCLKRLinearHashTable_Iterator@@1@Z
  ?Erase@CLKRHashTable@@QEAA_NAEAVCLKRHashTable_Iterator@@0@Z=C:\Windows\System32\msdart.?Erase@CLKRHashTable@@QEAA_NAEAVCLKRHashTable_Iterator@@0@Z
  ?Erase@CLKRHashTable@@QEAA_NAEAVCLKRHashTable_Iterator@@@Z=C:\Windows\System32\msdart.?Erase@CLKRHashTable@@QEAA_NAEAVCLKRHashTable_Iterator@@@Z
  ?Erase@CLKRLinearHashTable@@QEAA_NAEAVCLKRLinearHashTable_Iterator@@0@Z=C:\Windows\System32\msdart.?Erase@CLKRLinearHashTable@@QEAA_NAEAVCLKRLinearHashTable_Iterator@@0@Z
  ?Erase@CLKRLinearHashTable@@QEAA_NAEAVCLKRLinearHashTable_Iterator@@@Z=C:\Windows\System32\msdart.?Erase@CLKRLinearHashTable@@QEAA_NAEAVCLKRLinearHashTable_Iterator@@@Z
  ?FOCopyFile@CExFileOperation@@QEAAJPEBG0H@Z=C:\Windows\System32\msdart.?FOCopyFile@CExFileOperation@@QEAAJPEBG0H@Z
  ?FOCopyFileDACLS@CExFileOperation@@QEAAJPEBG0@Z=C:\Windows\System32\msdart.?FOCopyFileDACLS@CExFileOperation@@QEAAJPEBG0@Z
  ?FODeleteFile@CExFileOperation@@QEAAJPEBG@Z=C:\Windows\System32\msdart.?FODeleteFile@CExFileOperation@@QEAAJPEBG@Z
  ?FOMoveFile@CExFileOperation@@QEAAJPEBG0@Z=C:\Windows\System32\msdart.?FOMoveFile@CExFileOperation@@QEAAJPEBG0@Z
  ?FOReplaceFile@CExFileOperation@@QEAAJPEBG0@Z=C:\Windows\System32\msdart.?FOReplaceFile@CExFileOperation@@QEAAJPEBG0@Z
  ?Find@CLKRHashTable@@QEAA_N_KAEAVCLKRHashTable_Iterator@@@Z=C:\Windows\System32\msdart.?Find@CLKRHashTable@@QEAA_N_KAEAVCLKRHashTable_Iterator@@@Z
  ?Find@CLKRLinearHashTable@@QEAA_N_KAEAVCLKRLinearHashTable_Iterator@@@Z=C:\Windows\System32\msdart.?Find@CLKRLinearHashTable@@QEAA_N_KAEAVCLKRLinearHashTable_Iterator@@@Z
  ?FindKey@CLKRHashTable@@QEBA?AW4LK_RETCODE@@_KPEAPEBX@Z=C:\Windows\System32\msdart.?FindKey@CLKRHashTable@@QEBA?AW4LK_RETCODE@@_KPEAPEBX@Z
  ?FindKey@CLKRLinearHashTable@@QEBA?AW4LK_RETCODE@@_KPEAPEBX@Z=C:\Windows\System32\msdart.?FindKey@CLKRLinearHashTable@@QEBA?AW4LK_RETCODE@@_KPEAPEBX@Z
  ?FindRecord@CLKRHashTable@@QEBA?AW4LK_RETCODE@@PEBX@Z=C:\Windows\System32\msdart.?FindRecord@CLKRHashTable@@QEBA?AW4LK_RETCODE@@PEBX@Z
  ?FindRecord@CLKRLinearHashTable@@QEBA?AW4LK_RETCODE@@PEBX@Z=C:\Windows\System32\msdart.?FindRecord@CLKRLinearHashTable@@QEBA?AW4LK_RETCODE@@PEBX@Z
  ?First@CDoubleList@@QEBAQEAVCListEntry@@XZ=C:\Windows\System32\msdart.?First@CDoubleList@@QEBAQEAVCListEntry@@XZ
  ?First@CLockedDoubleList@@QEAAQEAVCListEntry@@XZ=C:\Windows\System32\msdart.?First@CLockedDoubleList@@QEAAQEAVCListEntry@@XZ
  ?Free@CLKRhashDefaultAllocator@@UEAA_NPEAXW4Type@CLKRhashAllocator@@@Z=C:\Windows\System32\msdart.?Free@CLKRhashDefaultAllocator@@UEAA_NPEAXW4Type@CLKRhashAllocator@@@Z
  ?GetBackupFile@CEXAutoBackupFile@@QEAAHPEAPEAG@Z=C:\Windows\System32\msdart.?GetBackupFile@CEXAutoBackupFile@@QEAAHPEAPEAG@Z
  ?GetBucketLockSpinCount@CLKRHashTable@@QEBAGXZ=C:\Windows\System32\msdart.?GetBucketLockSpinCount@CLKRHashTable@@QEBAGXZ
  ?GetBucketLockSpinCount@CLKRLinearHashTable@@QEBAGXZ=C:\Windows\System32\msdart.?GetBucketLockSpinCount@CLKRLinearHashTable@@QEBAGXZ
  ?GetDefaultSpinAdjustmentFactor@CCritSec@@SANXZ=C:\Windows\System32\msdart.?GetDefaultSpinAdjustmentFactor@CCritSec@@SANXZ
  ?GetDefaultSpinAdjustmentFactor@CFakeLock@@SANXZ=C:\Windows\System32\msdart.?GetDefaultSpinAdjustmentFactor@CFakeLock@@SANXZ
  ?GetDefaultSpinAdjustmentFactor@CReaderWriterLock2@@SANXZ=C:\Windows\System32\msdart.?GetDefaultSpinAdjustmentFactor@CReaderWriterLock2@@SANXZ
  ?GetDefaultSpinAdjustmentFactor@CReaderWriterLock3@@SANXZ=C:\Windows\System32\msdart.?GetDefaultSpinAdjustmentFactor@CReaderWriterLock3@@SANXZ
  ?GetDefaultSpinAdjustmentFactor@CReaderWriterLock3AR@@SANXZ=C:\Windows\System32\msdart.?GetDefaultSpinAdjustmentFactor@CReaderWriterLock3AR@@SANXZ
  ?GetDefaultSpinAdjustmentFactor@CReaderWriterLock@@SANXZ=C:\Windows\System32\msdart.?GetDefaultSpinAdjustmentFactor@CReaderWriterLock@@SANXZ
  ?GetDefaultSpinAdjustmentFactor@CSmallSpinLock@@SANXZ=C:\Windows\System32\msdart.?GetDefaultSpinAdjustmentFactor@CSmallSpinLock@@SANXZ
  ?GetDefaultSpinAdjustmentFactor@CSpinLock@@SANXZ=C:\Windows\System32\msdart.?GetDefaultSpinAdjustmentFactor@CSpinLock@@SANXZ
  ?GetDefaultSpinCount@CCritSec@@SAGXZ=C:\Windows\System32\msdart.?GetDefaultSpinCount@CCritSec@@SAGXZ
  ?GetDefaultSpinCount@CFakeLock@@SAGXZ=C:\Windows\System32\msdart.?GetDefaultSpinCount@CFakeLock@@SAGXZ
  ?GetDefaultSpinCount@CReaderWriterLock2@@SAGXZ=C:\Windows\System32\msdart.?GetDefaultSpinCount@CReaderWriterLock2@@SAGXZ
  ?GetDefaultSpinCount@CReaderWriterLock3@@SAGXZ=C:\Windows\System32\msdart.?GetDefaultSpinCount@CReaderWriterLock3@@SAGXZ
  ?GetDefaultSpinCount@CReaderWriterLock3AR@@SAGXZ=C:\Windows\System32\msdart.?GetDefaultSpinCount@CReaderWriterLock3AR@@SAGXZ
  ?GetDefaultSpinCount@CReaderWriterLock@@SAGXZ=C:\Windows\System32\msdart.?GetDefaultSpinCount@CReaderWriterLock@@SAGXZ
  ?GetDefaultSpinCount@CSmallSpinLock@@SAGXZ=C:\Windows\System32\msdart.?GetDefaultSpinCount@CSmallSpinLock@@SAGXZ
  ?GetDefaultSpinCount@CSpinLock@@SAGXZ=C:\Windows\System32\msdart.?GetDefaultSpinCount@CSpinLock@@SAGXZ
  ?GetSpinCount@CCritSec@@QEBAGXZ=C:\Windows\System32\msdart.?GetSpinCount@CCritSec@@QEBAGXZ
  ?GetSpinCount@CFakeLock@@QEBAGXZ=C:\Windows\System32\msdart.?GetSpinCount@CFakeLock@@QEBAGXZ
  ?GetSpinCount@CReaderWriterLock2@@QEBAGXZ=C:\Windows\System32\msdart.?GetSpinCount@CReaderWriterLock2@@QEBAGXZ
  ?GetSpinCount@CReaderWriterLock3@@QEBAGXZ=C:\Windows\System32\msdart.?GetSpinCount@CReaderWriterLock3@@QEBAGXZ
  ?GetSpinCount@CReaderWriterLock3AR@@QEBAGXZ=C:\Windows\System32\msdart.?GetSpinCount@CReaderWriterLock3AR@@QEBAGXZ
  ?GetSpinCount@CReaderWriterLock@@QEBAGXZ=C:\Windows\System32\msdart.?GetSpinCount@CReaderWriterLock@@QEBAGXZ
  ?GetSpinCount@CSmallSpinLock@@QEBAGXZ=C:\Windows\System32\msdart.?GetSpinCount@CSmallSpinLock@@QEBAGXZ
  ?GetSpinCount@CSpinLock@@QEBAGXZ=C:\Windows\System32\msdart.?GetSpinCount@CSpinLock@@QEBAGXZ
  ?GetStatistics@CLKRHashTable@@QEBA?AVCLKRHashTableStats@@XZ=C:\Windows\System32\msdart.?GetStatistics@CLKRHashTable@@QEBA?AVCLKRHashTableStats@@XZ
  ?GetStatistics@CLKRLinearHashTable@@QEBA?AVCLKRHashTableStats@@XZ=C:\Windows\System32\msdart.?GetStatistics@CLKRLinearHashTable@@QEBA?AVCLKRHashTableStats@@XZ
  ?GetTableLockSpinCount@CLKRHashTable@@QEBAGXZ=C:\Windows\System32\msdart.?GetTableLockSpinCount@CLKRHashTable@@QEBAGXZ
  ?GetTableLockSpinCount@CLKRLinearHashTable@@QEBAGXZ=C:\Windows\System32\msdart.?GetTableLockSpinCount@CLKRLinearHashTable@@QEBAGXZ
  ?GetVersionExW@CMdVersionInfo@@SAHPEAU_OSVERSIONINFOW@@@Z=C:\Windows\System32\msdart.?GetVersionExW@CMdVersionInfo@@SAHPEAU_OSVERSIONINFOW@@@Z
  ?HeadNode@CDoubleList@@QEBAQEBVCListEntry@@XZ=C:\Windows\System32\msdart.?HeadNode@CDoubleList@@QEBAQEBVCListEntry@@XZ
  ?HeadNode@CLockedDoubleList@@QEBAQEBVCListEntry@@XZ=C:\Windows\System32\msdart.?HeadNode@CLockedDoubleList@@QEBAQEBVCListEntry@@XZ
  ?Increment@CLKRHashTable_Iterator@@QEAA_NXZ=C:\Windows\System32\msdart.?Increment@CLKRHashTable_Iterator@@QEAA_NXZ
  ?Increment@CLKRLinearHashTable_Iterator@@QEAA_NXZ=C:\Windows\System32\msdart.?Increment@CLKRLinearHashTable_Iterator@@QEAA_NXZ
  ?InitializeVersionInfo@CMdVersionInfo@@CAHXZ=C:\Windows\System32\msdart.?InitializeVersionInfo@CMdVersionInfo@@CAHXZ
  ?Insert@CLKRHashTable@@QEAA_NPEBXAEAVCLKRHashTable_Iterator@@_N@Z=C:\Windows\System32\msdart.?Insert@CLKRHashTable@@QEAA_NPEBXAEAVCLKRHashTable_Iterator@@_N@Z
  ?Insert@CLKRLinearHashTable@@QEAA_NPEBXAEAVCLKRLinearHashTable_Iterator@@_N@Z=C:\Windows\System32\msdart.?Insert@CLKRLinearHashTable@@QEAA_NPEBXAEAVCLKRLinearHashTable_Iterator@@_N@Z
  ?InsertHead@CDoubleList@@QEAAXQEAVCListEntry@@@Z=C:\Windows\System32\msdart.?InsertHead@CDoubleList@@QEAAXQEAVCListEntry@@@Z
  ?InsertHead@CLockedDoubleList@@QEAAXQEAVCListEntry@@@Z=C:\Windows\System32\msdart.?InsertHead@CLockedDoubleList@@QEAAXQEAVCListEntry@@@Z
  ?InsertRecord@CLKRHashTable@@QEAA?AW4LK_RETCODE@@PEBX_NPEAPEBX@Z=C:\Windows\System32\msdart.?InsertRecord@CLKRHashTable@@QEAA?AW4LK_RETCODE@@PEBX_NPEAPEBX@Z
  ?InsertRecord@CLKRLinearHashTable@@QEAA?AW4LK_RETCODE@@PEBX_NPEAPEBX@Z=C:\Windows\System32\msdart.?InsertRecord@CLKRLinearHashTable@@QEAA?AW4LK_RETCODE@@PEBX_NPEAPEBX@Z
  ?InsertTail@CDoubleList@@QEAAXQEAVCListEntry@@@Z=C:\Windows\System32\msdart.?InsertTail@CDoubleList@@QEAAXQEAVCListEntry@@@Z
  ?InsertTail@CLockedDoubleList@@QEAAXQEAVCListEntry@@@Z=C:\Windows\System32\msdart.?InsertTail@CLockedDoubleList@@QEAAXQEAVCListEntry@@@Z
  ?IsEmpty@CDoubleList@@QEBA_NXZ=C:\Windows\System32\msdart.?IsEmpty@CDoubleList@@QEBA_NXZ
  ?IsEmpty@CLockedDoubleList@@QEBA_NXZ=C:\Windows\System32\msdart.?IsEmpty@CLockedDoubleList@@QEBA_NXZ
  ?IsEmpty@CLockedSingleList@@QEBA_NXZ=C:\Windows\System32\msdart.?IsEmpty@CLockedSingleList@@QEBA_NXZ
  ?IsEmpty@CSingleList@@QEBA_NXZ=C:\Windows\System32\msdart.?IsEmpty@CSingleList@@QEBA_NXZ
  ?IsLocked@CLockedDoubleList@@QEBA_NXZ=C:\Windows\System32\msdart.?IsLocked@CLockedDoubleList@@QEBA_NXZ
  ?IsLocked@CLockedSingleList@@QEBA_NXZ=C:\Windows\System32\msdart.?IsLocked@CLockedSingleList@@QEBA_NXZ
  ?IsMillnm@CMdVersionInfo@@SAHXZ=C:\Windows\System32\msdart.?IsMillnm@CMdVersionInfo@@SAHXZ
  ?IsReadLocked@CCritSec@@QEBA_NXZ=C:\Windows\System32\msdart.?IsReadLocked@CCritSec@@QEBA_NXZ
  ?IsReadLocked@CFakeLock@@QEBA_NXZ=C:\Windows\System32\msdart.?IsReadLocked@CFakeLock@@QEBA_NXZ
  ?IsReadLocked@CLKRHashTable@@QEBA_NXZ=C:\Windows\System32\msdart.?IsReadLocked@CLKRHashTable@@QEBA_NXZ
  ?IsReadLocked@CLKRLinearHashTable@@QEBA_NXZ=C:\Windows\System32\msdart.?IsReadLocked@CLKRLinearHashTable@@QEBA_NXZ
  ?IsReadLocked@CReaderWriterLock2@@QEBA_NXZ=C:\Windows\System32\msdart.?IsReadLocked@CReaderWriterLock2@@QEBA_NXZ
  ?IsReadLocked@CReaderWriterLock3@@QEBA_NXZ=C:\Windows\System32\msdart.?IsReadLocked@CReaderWriterLock3@@QEBA_NXZ
  ?IsReadLocked@CReaderWriterLock3AR@@QEBA_NXZ=C:\Windows\System32\msdart.?IsReadLocked@CReaderWriterLock3AR@@QEBA_NXZ
  ?IsReadLocked@CReaderWriterLock@@QEBA_NXZ=C:\Windows\System32\msdart.?IsReadLocked@CReaderWriterLock@@QEBA_NXZ
  ?IsReadLocked@CSmallSpinLock@@QEBA_NXZ=C:\Windows\System32\msdart.?IsReadLocked@CSmallSpinLock@@QEBA_NXZ
  ?IsReadLocked@CSpinLock@@QEBA_NXZ=C:\Windows\System32\msdart.?IsReadLocked@CSpinLock@@QEBA_NXZ
  ?IsReadUnlocked@CCritSec@@QEBA_NXZ=C:\Windows\System32\msdart.?IsReadUnlocked@CCritSec@@QEBA_NXZ
  ?IsReadUnlocked@CFakeLock@@QEBA_NXZ=C:\Windows\System32\msdart.?IsReadUnlocked@CFakeLock@@QEBA_NXZ
  ?IsReadUnlocked@CLKRHashTable@@QEBA_NXZ=C:\Windows\System32\msdart.?IsReadUnlocked@CLKRHashTable@@QEBA_NXZ
  ?IsReadUnlocked@CLKRLinearHashTable@@QEBA_NXZ=C:\Windows\System32\msdart.?IsReadUnlocked@CLKRLinearHashTable@@QEBA_NXZ
  ?IsReadUnlocked@CReaderWriterLock2@@QEBA_NXZ=C:\Windows\System32\msdart.?IsReadUnlocked@CReaderWriterLock2@@QEBA_NXZ
  ?IsReadUnlocked@CReaderWriterLock3@@QEBA_NXZ=C:\Windows\System32\msdart.?IsReadUnlocked@CReaderWriterLock3@@QEBA_NXZ
  ?IsReadUnlocked@CReaderWriterLock3AR@@QEBA_NXZ=C:\Windows\System32\msdart.?IsReadUnlocked@CReaderWriterLock3AR@@QEBA_NXZ
  ?IsReadUnlocked@CReaderWriterLock@@QEBA_NXZ=C:\Windows\System32\msdart.?IsReadUnlocked@CReaderWriterLock@@QEBA_NXZ
  ?IsReadUnlocked@CSmallSpinLock@@QEBA_NXZ=C:\Windows\System32\msdart.?IsReadUnlocked@CSmallSpinLock@@QEBA_NXZ
  ?IsReadUnlocked@CSpinLock@@QEBA_NXZ=C:\Windows\System32\msdart.?IsReadUnlocked@CSpinLock@@QEBA_NXZ
  ?IsUnlocked@CLockedDoubleList@@QEBA_NXZ=C:\Windows\System32\msdart.?IsUnlocked@CLockedDoubleList@@QEBA_NXZ
  ?IsUnlocked@CLockedSingleList@@QEBA_NXZ=C:\Windows\System32\msdart.?IsUnlocked@CLockedSingleList@@QEBA_NXZ
  ?IsUsable@CLKRHashTable@@QEBA_NXZ=C:\Windows\System32\msdart.?IsUsable@CLKRHashTable@@QEBA_NXZ
  ?IsUsable@CLKRLinearHashTable@@QEBA_NXZ=C:\Windows\System32\msdart.?IsUsable@CLKRLinearHashTable@@QEBA_NXZ
  ?IsValid@CLKRHashTable@@QEBA_NXZ=C:\Windows\System32\msdart.?IsValid@CLKRHashTable@@QEBA_NXZ
  ?IsValid@CLKRHashTable_Iterator@@QEBA_NXZ=C:\Windows\System32\msdart.?IsValid@CLKRHashTable_Iterator@@QEBA_NXZ
  ?IsValid@CLKRLinearHashTable@@QEBA_NXZ=C:\Windows\System32\msdart.?IsValid@CLKRLinearHashTable@@QEBA_NXZ
  ?IsValid@CLKRLinearHashTable_Iterator@@QEBA_NXZ=C:\Windows\System32\msdart.?IsValid@CLKRLinearHashTable_Iterator@@QEBA_NXZ
  ?IsWin2k@CMdVersionInfo@@SAHXZ=C:\Windows\System32\msdart.?IsWin2k@CMdVersionInfo@@SAHXZ
  ?IsWin2korLater@CMdVersionInfo@@SAHXZ=C:\Windows\System32\msdart.?IsWin2korLater@CMdVersionInfo@@SAHXZ
  ?IsWin95@CMdVersionInfo@@SAHXZ=C:\Windows\System32\msdart.?IsWin95@CMdVersionInfo@@SAHXZ
  ?IsWin98@CMdVersionInfo@@SAHXZ=C:\Windows\System32\msdart.?IsWin98@CMdVersionInfo@@SAHXZ
  ?IsWin98orLater@CMdVersionInfo@@SAHXZ=C:\Windows\System32\msdart.?IsWin98orLater@CMdVersionInfo@@SAHXZ
  ?IsWin9x@CMdVersionInfo@@SAHXZ=C:\Windows\System32\msdart.?IsWin9x@CMdVersionInfo@@SAHXZ
  ?IsWinNT4@CMdVersionInfo@@SAHXZ=C:\Windows\System32\msdart.?IsWinNT4@CMdVersionInfo@@SAHXZ
  ?IsWinNT@CMdVersionInfo@@SAHXZ=C:\Windows\System32\msdart.?IsWinNT@CMdVersionInfo@@SAHXZ
  ?IsWinNt4orLater@CMdVersionInfo@@SAHXZ=C:\Windows\System32\msdart.?IsWinNt4orLater@CMdVersionInfo@@SAHXZ
  ?IsWriteLocked@CCritSec@@QEBA_NXZ=C:\Windows\System32\msdart.?IsWriteLocked@CCritSec@@QEBA_NXZ
  ?IsWriteLocked@CFakeLock@@QEBA_NXZ=C:\Windows\System32\msdart.?IsWriteLocked@CFakeLock@@QEBA_NXZ
  ?IsWriteLocked@CLKRHashTable@@QEBA_NXZ=C:\Windows\System32\msdart.?IsWriteLocked@CLKRHashTable@@QEBA_NXZ
  ?IsWriteLocked@CLKRLinearHashTable@@QEBA_NXZ=C:\Windows\System32\msdart.?IsWriteLocked@CLKRLinearHashTable@@QEBA_NXZ
  ?IsWriteLocked@CReaderWriterLock2@@QEBA_NXZ=C:\Windows\System32\msdart.?IsWriteLocked@CReaderWriterLock2@@QEBA_NXZ
  ?IsWriteLocked@CReaderWriterLock3@@QEBA_NXZ=C:\Windows\System32\msdart.?IsWriteLocked@CReaderWriterLock3@@QEBA_NXZ
  ?IsWriteLocked@CReaderWriterLock3AR@@QEBA_NXZ=C:\Windows\System32\msdart.?IsWriteLocked@CReaderWriterLock3AR@@QEBA_NXZ
  ?IsWriteLocked@CReaderWriterLock@@QEBA_NXZ=C:\Windows\System32\msdart.?IsWriteLocked@CReaderWriterLock@@QEBA_NXZ
  ?IsWriteLocked@CSmallSpinLock@@QEBA_NXZ=C:\Windows\System32\msdart.?IsWriteLocked@CSmallSpinLock@@QEBA_NXZ
  ?IsWriteLocked@CSpinLock@@QEBA_NXZ=C:\Windows\System32\msdart.?IsWriteLocked@CSpinLock@@QEBA_NXZ
  ?IsWriteUnlocked@CCritSec@@QEBA_NXZ=C:\Windows\System32\msdart.?IsWriteUnlocked@CCritSec@@QEBA_NXZ
  ?IsWriteUnlocked@CFakeLock@@QEBA_NXZ=C:\Windows\System32\msdart.?IsWriteUnlocked@CFakeLock@@QEBA_NXZ
  ?IsWriteUnlocked@CLKRHashTable@@QEBA_NXZ=C:\Windows\System32\msdart.?IsWriteUnlocked@CLKRHashTable@@QEBA_NXZ
  ?IsWriteUnlocked@CLKRLinearHashTable@@QEBA_NXZ=C:\Windows\System32\msdart.?IsWriteUnlocked@CLKRLinearHashTable@@QEBA_NXZ
  ?IsWriteUnlocked@CReaderWriterLock2@@QEBA_NXZ=C:\Windows\System32\msdart.?IsWriteUnlocked@CReaderWriterLock2@@QEBA_NXZ
  ?IsWriteUnlocked@CReaderWriterLock3@@QEBA_NXZ=C:\Windows\System32\msdart.?IsWriteUnlocked@CReaderWriterLock3@@QEBA_NXZ
  ?IsWriteUnlocked@CReaderWriterLock3AR@@QEBA_NXZ=C:\Windows\System32\msdart.?IsWriteUnlocked@CReaderWriterLock3AR@@QEBA_NXZ
  ?IsWriteUnlocked@CReaderWriterLock@@QEBA_NXZ=C:\Windows\System32\msdart.?IsWriteUnlocked@CReaderWriterLock@@QEBA_NXZ
  ?IsWriteUnlocked@CSmallSpinLock@@QEBA_NXZ=C:\Windows\System32\msdart.?IsWriteUnlocked@CSmallSpinLock@@QEBA_NXZ
  ?IsWriteUnlocked@CSpinLock@@QEBA_NXZ=C:\Windows\System32\msdart.?IsWriteUnlocked@CSpinLock@@QEBA_NXZ
  ?Key@CLKRHashTable_Iterator@@QEBA?B_KXZ=C:\Windows\System32\msdart.?Key@CLKRHashTable_Iterator@@QEBA?B_KXZ
  ?Key@CLKRLinearHashTable_Iterator@@QEBA?B_KXZ=C:\Windows\System32\msdart.?Key@CLKRLinearHashTable_Iterator@@QEBA?B_KXZ
  ?Last@CDoubleList@@QEBAQEAVCListEntry@@XZ=C:\Windows\System32\msdart.?Last@CDoubleList@@QEBAQEAVCListEntry@@XZ
  ?Last@CLockedDoubleList@@QEAAQEAVCListEntry@@XZ=C:\Windows\System32\msdart.?Last@CLockedDoubleList@@QEAAQEAVCListEntry@@XZ
  ?Lock@CLockedDoubleList@@QEAAXXZ=C:\Windows\System32\msdart.?Lock@CLockedDoubleList@@QEAAXXZ
  ?Lock@CLockedSingleList@@QEAAXXZ=C:\Windows\System32\msdart.?Lock@CLockedSingleList@@QEAAXXZ
  ?LockType@?$CLockBase@$00$00$02$00$02$01@@SA?AW4LOCK_LOCKTYPE@@XZ=C:\Windows\System32\msdart.?LockType@?$CLockBase@$00$00$02$00$02$01@@SA?AW4LOCK_LOCKTYPE@@XZ
  ?LockType@?$CLockBase@$01$00$00$00$02$01@@SA?AW4LOCK_LOCKTYPE@@XZ=C:\Windows\System32\msdart.?LockType@?$CLockBase@$01$00$00$00$02$01@@SA?AW4LOCK_LOCKTYPE@@XZ
  ?LockType@?$CLockBase@$02$00$00$00$00$00@@SA?AW4LOCK_LOCKTYPE@@XZ=C:\Windows\System32\msdart.?LockType@?$CLockBase@$02$00$00$00$00$00@@SA?AW4LOCK_LOCKTYPE@@XZ
  ?LockType@?$CLockBase@$03$00$00$01$02$02@@SA?AW4LOCK_LOCKTYPE@@XZ=C:\Windows\System32\msdart.?LockType@?$CLockBase@$03$00$00$01$02$02@@SA?AW4LOCK_LOCKTYPE@@XZ
  ?LockType@?$CLockBase@$04$01$01$00$02$01@@SA?AW4LOCK_LOCKTYPE@@XZ=C:\Windows\System32\msdart.?LockType@?$CLockBase@$04$01$01$00$02$01@@SA?AW4LOCK_LOCKTYPE@@XZ
  ?LockType@?$CLockBase@$05$01$01$00$02$01@@SA?AW4LOCK_LOCKTYPE@@XZ=C:\Windows\System32\msdart.?LockType@?$CLockBase@$05$01$01$00$02$01@@SA?AW4LOCK_LOCKTYPE@@XZ
  ?LockType@?$CLockBase@$06$01$00$00$02$01@@SA?AW4LOCK_LOCKTYPE@@XZ=C:\Windows\System32\msdart.?LockType@?$CLockBase@$06$01$00$00$02$01@@SA?AW4LOCK_LOCKTYPE@@XZ
  ?LockType@?$CLockBase@$07$01$00$00$02$01@@SA?AW4LOCK_LOCKTYPE@@XZ=C:\Windows\System32\msdart.?LockType@?$CLockBase@$07$01$00$00$02$01@@SA?AW4LOCK_LOCKTYPE@@XZ
  ?MaxSize@CLKRHashTable@@QEBAKXZ=C:\Windows\System32\msdart.?MaxSize@CLKRHashTable@@QEBAKXZ
  ?MaxSize@CLKRLinearHashTable@@QEBAKXZ=C:\Windows\System32\msdart.?MaxSize@CLKRLinearHashTable@@QEBAKXZ
  ?MpHeapCompact@@YA_KPEAX@Z=C:\Windows\System32\msdart.?MpHeapCompact@@YA_KPEAX@Z
  ?MultiKeys@CLKRHashTable@@QEBA_NXZ=C:\Windows\System32\msdart.?MultiKeys@CLKRHashTable@@QEBA_NXZ
  ?MultiKeys@CLKRLinearHashTable@@QEBA_NXZ=C:\Windows\System32\msdart.?MultiKeys@CLKRLinearHashTable@@QEBA_NXZ
  ?MutexType@?$CLockBase@$00$00$02$00$02$01@@SA?AW4LOCK_RW_MUTEX@@XZ=C:\Windows\System32\msdart.?MutexType@?$CLockBase@$00$00$02$00$02$01@@SA?AW4LOCK_RW_MUTEX@@XZ
  ?MutexType@?$CLockBase@$01$00$00$00$02$01@@SA?AW4LOCK_RW_MUTEX@@XZ=C:\Windows\System32\msdart.?MutexType@?$CLockBase@$01$00$00$00$02$01@@SA?AW4LOCK_RW_MUTEX@@XZ
  ?MutexType@?$CLockBase@$02$00$00$00$00$00@@SA?AW4LOCK_RW_MUTEX@@XZ=C:\Windows\System32\msdart.?MutexType@?$CLockBase@$02$00$00$00$00$00@@SA?AW4LOCK_RW_MUTEX@@XZ
  ?MutexType@?$CLockBase@$03$00$00$01$02$02@@SA?AW4LOCK_RW_MUTEX@@XZ=C:\Windows\System32\msdart.?MutexType@?$CLockBase@$03$00$00$01$02$02@@SA?AW4LOCK_RW_MUTEX@@XZ
  ?MutexType@?$CLockBase@$04$01$01$00$02$01@@SA?AW4LOCK_RW_MUTEX@@XZ=C:\Windows\System32\msdart.?MutexType@?$CLockBase@$04$01$01$00$02$01@@SA?AW4LOCK_RW_MUTEX@@XZ
  ?MutexType@?$CLockBase@$05$01$01$00$02$01@@SA?AW4LOCK_RW_MUTEX@@XZ=C:\Windows\System32\msdart.?MutexType@?$CLockBase@$05$01$01$00$02$01@@SA?AW4LOCK_RW_MUTEX@@XZ
  ?MutexType@?$CLockBase@$06$01$00$00$02$01@@SA?AW4LOCK_RW_MUTEX@@XZ=C:\Windows\System32\msdart.?MutexType@?$CLockBase@$06$01$00$00$02$01@@SA?AW4LOCK_RW_MUTEX@@XZ
  ?MutexType@?$CLockBase@$07$01$00$00$02$01@@SA?AW4LOCK_RW_MUTEX@@XZ=C:\Windows\System32\msdart.?MutexType@?$CLockBase@$07$01$00$00$02$01@@SA?AW4LOCK_RW_MUTEX@@XZ
  ?NumSubTables@CLKRHashTable@@QEBAHXZ=C:\Windows\System32\msdart.?NumSubTables@CLKRHashTable@@QEBAHXZ
  ?NumSubTables@CLKRHashTable@@SA?AW4LK_TABLESIZE@@AEAK0_N@Z=C:\Windows\System32\msdart.?NumSubTables@CLKRHashTable@@SA?AW4LK_TABLESIZE@@AEAK0_N@Z
  ?NumSubTables@CLKRLinearHashTable@@QEBAHXZ=C:\Windows\System32\msdart.?NumSubTables@CLKRLinearHashTable@@QEBAHXZ
  ?NumSubTables@CLKRLinearHashTable@@SA?AW4LK_TABLESIZE@@AEAK0_N@Z=C:\Windows\System32\msdart.?NumSubTables@CLKRLinearHashTable@@SA?AW4LK_TABLESIZE@@AEAK0_N@Z
  ?PerLockSpin@?$CLockBase@$00$00$02$00$02$01@@SA?AW4LOCK_PERLOCK_SPIN@@XZ=C:\Windows\System32\msdart.?PerLockSpin@?$CLockBase@$00$00$02$00$02$01@@SA?AW4LOCK_PERLOCK_SPIN@@XZ
  ?PerLockSpin@?$CLockBase@$01$00$00$00$02$01@@SA?AW4LOCK_PERLOCK_SPIN@@XZ=C:\Windows\System32\msdart.?PerLockSpin@?$CLockBase@$01$00$00$00$02$01@@SA?AW4LOCK_PERLOCK_SPIN@@XZ
  ?PerLockSpin@?$CLockBase@$02$00$00$00$00$00@@SA?AW4LOCK_PERLOCK_SPIN@@XZ=C:\Windows\System32\msdart.?PerLockSpin@?$CLockBase@$02$00$00$00$00$00@@SA?AW4LOCK_PERLOCK_SPIN@@XZ
  ?PerLockSpin@?$CLockBase@$03$00$00$01$02$02@@SA?AW4LOCK_PERLOCK_SPIN@@XZ=C:\Windows\System32\msdart.?PerLockSpin@?$CLockBase@$03$00$00$01$02$02@@SA?AW4LOCK_PERLOCK_SPIN@@XZ
  ?PerLockSpin@?$CLockBase@$04$01$01$00$02$01@@SA?AW4LOCK_PERLOCK_SPIN@@XZ=C:\Windows\System32\msdart.?PerLockSpin@?$CLockBase@$04$01$01$00$02$01@@SA?AW4LOCK_PERLOCK_SPIN@@XZ
  ?PerLockSpin@?$CLockBase@$05$01$01$00$02$01@@SA?AW4LOCK_PERLOCK_SPIN@@XZ=C:\Windows\System32\msdart.?PerLockSpin@?$CLockBase@$05$01$01$00$02$01@@SA?AW4LOCK_PERLOCK_SPIN@@XZ
  ?PerLockSpin@?$CLockBase@$06$01$00$00$02$01@@SA?AW4LOCK_PERLOCK_SPIN@@XZ=C:\Windows\System32\msdart.?PerLockSpin@?$CLockBase@$06$01$00$00$02$01@@SA?AW4LOCK_PERLOCK_SPIN@@XZ
  ?PerLockSpin@?$CLockBase@$07$01$00$00$02$01@@SA?AW4LOCK_PERLOCK_SPIN@@XZ=C:\Windows\System32\msdart.?PerLockSpin@?$CLockBase@$07$01$00$00$02$01@@SA?AW4LOCK_PERLOCK_SPIN@@XZ
  ?Pop@CLockedSingleList@@QEAAQEAVCSingleListEntry@@XZ=C:\Windows\System32\msdart.?Pop@CLockedSingleList@@QEAAQEAVCSingleListEntry@@XZ
  ?Pop@CSingleList@@QEAAQEAVCSingleListEntry@@XZ=C:\Windows\System32\msdart.?Pop@CSingleList@@QEAAQEAVCSingleListEntry@@XZ
  ?Push@CLockedSingleList@@QEAAXQEAVCSingleListEntry@@@Z=C:\Windows\System32\msdart.?Push@CLockedSingleList@@QEAAXQEAVCSingleListEntry@@@Z
  ?Push@CSingleList@@QEAAXQEAVCSingleListEntry@@@Z=C:\Windows\System32\msdart.?Push@CSingleList@@QEAAXQEAVCSingleListEntry@@@Z
  ?QueueType@?$CLockBase@$00$00$02$00$02$01@@SA?AW4LOCK_QUEUE_TYPE@@XZ=C:\Windows\System32\msdart.?QueueType@?$CLockBase@$00$00$02$00$02$01@@SA?AW4LOCK_QUEUE_TYPE@@XZ
  ?QueueType@?$CLockBase@$01$00$00$00$02$01@@SA?AW4LOCK_QUEUE_TYPE@@XZ=C:\Windows\System32\msdart.?QueueType@?$CLockBase@$01$00$00$00$02$01@@SA?AW4LOCK_QUEUE_TYPE@@XZ
  ?QueueType@?$CLockBase@$02$00$00$00$00$00@@SA?AW4LOCK_QUEUE_TYPE@@XZ=C:\Windows\System32\msdart.?QueueType@?$CLockBase@$02$00$00$00$00$00@@SA?AW4LOCK_QUEUE_TYPE@@XZ
  ?QueueType@?$CLockBase@$03$00$00$01$02$02@@SA?AW4LOCK_QUEUE_TYPE@@XZ=C:\Windows\System32\msdart.?QueueType@?$CLockBase@$03$00$00$01$02$02@@SA?AW4LOCK_QUEUE_TYPE@@XZ
  ?QueueType@?$CLockBase@$04$01$01$00$02$01@@SA?AW4LOCK_QUEUE_TYPE@@XZ=C:\Windows\System32\msdart.?QueueType@?$CLockBase@$04$01$01$00$02$01@@SA?AW4LOCK_QUEUE_TYPE@@XZ
  ?QueueType@?$CLockBase@$05$01$01$00$02$01@@SA?AW4LOCK_QUEUE_TYPE@@XZ=C:\Windows\System32\msdart.?QueueType@?$CLockBase@$05$01$01$00$02$01@@SA?AW4LOCK_QUEUE_TYPE@@XZ
  ?QueueType@?$CLockBase@$06$01$00$00$02$01@@SA?AW4LOCK_QUEUE_TYPE@@XZ=C:\Windows\System32\msdart.?QueueType@?$CLockBase@$06$01$00$00$02$01@@SA?AW4LOCK_QUEUE_TYPE@@XZ
  ?QueueType@?$CLockBase@$07$01$00$00$02$01@@SA?AW4LOCK_QUEUE_TYPE@@XZ=C:\Windows\System32\msdart.?QueueType@?$CLockBase@$07$01$00$00$02$01@@SA?AW4LOCK_QUEUE_TYPE@@XZ
  ?ReadLock@CCritSec@@QEAAXXZ=C:\Windows\System32\msdart.?ReadLock@CCritSec@@QEAAXXZ
  ?ReadLock@CFakeLock@@QEAAXXZ=C:\Windows\System32\msdart.?ReadLock@CFakeLock@@QEAAXXZ
  ?ReadLock@CLKRHashTable@@QEBAXXZ=C:\Windows\System32\msdart.?ReadLock@CLKRHashTable@@QEBAXXZ
  ?ReadLock@CLKRLinearHashTable@@QEBAXXZ=C:\Windows\System32\msdart.?ReadLock@CLKRLinearHashTable@@QEBAXXZ
  ?ReadLock@CReaderWriterLock2@@QEAAXXZ=C:\Windows\System32\msdart.?ReadLock@CReaderWriterLock2@@QEAAXXZ
  ?ReadLock@CReaderWriterLock3@@QEAAXXZ=C:\Windows\System32\msdart.?ReadLock@CReaderWriterLock3@@QEAAXXZ
  ?ReadLock@CReaderWriterLock3AR@@QEAAXXZ=C:\Windows\System32\msdart.?ReadLock@CReaderWriterLock3AR@@QEAAXXZ
  ?ReadLock@CReaderWriterLock@@QEAAXXZ=C:\Windows\System32\msdart.?ReadLock@CReaderWriterLock@@QEAAXXZ
  ?ReadLock@CSmallSpinLock@@QEAAXXZ=C:\Windows\System32\msdart.?ReadLock@CSmallSpinLock@@QEAAXXZ
  ?ReadLock@CSpinLock@@QEAAXXZ=C:\Windows\System32\msdart.?ReadLock@CSpinLock@@QEAAXXZ
  ?ReadOrWriteLock@CCritSec@@QEAA_NXZ=C:\Windows\System32\msdart.?ReadOrWriteLock@CCritSec@@QEAA_NXZ
  ?ReadOrWriteLock@CFakeLock@@QEAA_NXZ=C:\Windows\System32\msdart.?ReadOrWriteLock@CFakeLock@@QEAA_NXZ
  ?ReadOrWriteLock@CReaderWriterLock3@@QEAA_NXZ=C:\Windows\System32\msdart.?ReadOrWriteLock@CReaderWriterLock3@@QEAA_NXZ
  ?ReadOrWriteLock@CReaderWriterLock3AR@@QEAA_NXZ=C:\Windows\System32\msdart.?ReadOrWriteLock@CReaderWriterLock3AR@@QEAA_NXZ
  ?ReadOrWriteLock@CSpinLock@@QEAA_NXZ=C:\Windows\System32\msdart.?ReadOrWriteLock@CSpinLock@@QEAA_NXZ
  ?ReadOrWriteUnlock@CCritSec@@QEAAX_N@Z=C:\Windows\System32\msdart.?ReadOrWriteUnlock@CCritSec@@QEAAX_N@Z
  ?ReadOrWriteUnlock@CFakeLock@@QEAAX_N@Z=C:\Windows\System32\msdart.?ReadOrWriteUnlock@CFakeLock@@QEAAX_N@Z
  ?ReadOrWriteUnlock@CReaderWriterLock3@@QEAAX_N@Z=C:\Windows\System32\msdart.?ReadOrWriteUnlock@CReaderWriterLock3@@QEAAX_N@Z
  ?ReadOrWriteUnlock@CReaderWriterLock3AR@@QEAAX_N@Z=C:\Windows\System32\msdart.?ReadOrWriteUnlock@CReaderWriterLock3AR@@QEAAX_N@Z
  ?ReadOrWriteUnlock@CSpinLock@@QEAAX_N@Z=C:\Windows\System32\msdart.?ReadOrWriteUnlock@CSpinLock@@QEAAX_N@Z
  ?ReadUnlock@CCritSec@@QEAAXXZ=C:\Windows\System32\msdart.?ReadUnlock@CCritSec@@QEAAXXZ
  ?ReadUnlock@CFakeLock@@QEAAXXZ=C:\Windows\System32\msdart.?ReadUnlock@CFakeLock@@QEAAXXZ
  ?ReadUnlock@CLKRHashTable@@QEBAXXZ=C:\Windows\System32\msdart.?ReadUnlock@CLKRHashTable@@QEBAXXZ
  ?ReadUnlock@CLKRLinearHashTable@@QEBAXXZ=C:\Windows\System32\msdart.?ReadUnlock@CLKRLinearHashTable@@QEBAXXZ
  ?ReadUnlock@CReaderWriterLock2@@QEAAXXZ=C:\Windows\System32\msdart.?ReadUnlock@CReaderWriterLock2@@QEAAXXZ
  ?ReadUnlock@CReaderWriterLock3@@QEAAXXZ=C:\Windows\System32\msdart.?ReadUnlock@CReaderWriterLock3@@QEAAXXZ
  ?ReadUnlock@CReaderWriterLock3AR@@QEAAXXZ=C:\Windows\System32\msdart.?ReadUnlock@CReaderWriterLock3AR@@QEAAXXZ
  ?ReadUnlock@CReaderWriterLock@@QEAAXXZ=C:\Windows\System32\msdart.?ReadUnlock@CReaderWriterLock@@QEAAXXZ
  ?ReadUnlock@CSmallSpinLock@@QEAAXXZ=C:\Windows\System32\msdart.?ReadUnlock@CSmallSpinLock@@QEAAXXZ
  ?ReadUnlock@CSpinLock@@QEAAXXZ=C:\Windows\System32\msdart.?ReadUnlock@CSpinLock@@QEAAXXZ
  ?Record@CLKRHashTable_Iterator@@QEBAPEBXXZ=C:\Windows\System32\msdart.?Record@CLKRHashTable_Iterator@@QEBAPEBXXZ
  ?Record@CLKRLinearHashTable_Iterator@@QEBAPEBXXZ=C:\Windows\System32\msdart.?Record@CLKRLinearHashTable_Iterator@@QEBAPEBXXZ
  ?Recursion@?$CLockBase@$00$00$02$00$02$01@@SA?AW4LOCK_RECURSION@@XZ=C:\Windows\System32\msdart.?Recursion@?$CLockBase@$00$00$02$00$02$01@@SA?AW4LOCK_RECURSION@@XZ
  ?Recursion@?$CLockBase@$01$00$00$00$02$01@@SA?AW4LOCK_RECURSION@@XZ=C:\Windows\System32\msdart.?Recursion@?$CLockBase@$01$00$00$00$02$01@@SA?AW4LOCK_RECURSION@@XZ
  ?Recursion@?$CLockBase@$02$00$00$00$00$00@@SA?AW4LOCK_RECURSION@@XZ=C:\Windows\System32\msdart.?Recursion@?$CLockBase@$02$00$00$00$00$00@@SA?AW4LOCK_RECURSION@@XZ
  ?Recursion@?$CLockBase@$03$00$00$01$02$02@@SA?AW4LOCK_RECURSION@@XZ=C:\Windows\System32\msdart.?Recursion@?$CLockBase@$03$00$00$01$02$02@@SA?AW4LOCK_RECURSION@@XZ
  ?Recursion@?$CLockBase@$04$01$01$00$02$01@@SA?AW4LOCK_RECURSION@@XZ=C:\Windows\System32\msdart.?Recursion@?$CLockBase@$04$01$01$00$02$01@@SA?AW4LOCK_RECURSION@@XZ
  ?Recursion@?$CLockBase@$05$01$01$00$02$01@@SA?AW4LOCK_RECURSION@@XZ=C:\Windows\System32\msdart.?Recursion@?$CLockBase@$05$01$01$00$02$01@@SA?AW4LOCK_RECURSION@@XZ
  ?Recursion@?$CLockBase@$06$01$00$00$02$01@@SA?AW4LOCK_RECURSION@@XZ=C:\Windows\System32\msdart.?Recursion@?$CLockBase@$06$01$00$00$02$01@@SA?AW4LOCK_RECURSION@@XZ
  ?Recursion@?$CLockBase@$07$01$00$00$02$01@@SA?AW4LOCK_RECURSION@@XZ=C:\Windows\System32\msdart.?Recursion@?$CLockBase@$07$01$00$00$02$01@@SA?AW4LOCK_RECURSION@@XZ
  ?ReleaseVersionInfo@CMdVersionInfo@@SAXXZ=C:\Windows\System32\msdart.?ReleaseVersionInfo@CMdVersionInfo@@SAXXZ
  ?RemoveEntry@CDoubleList@@SAXQEAVCListEntry@@@Z=C:\Windows\System32\msdart.?RemoveEntry@CDoubleList@@SAXQEAVCListEntry@@@Z
  ?RemoveEntry@CLockedDoubleList@@QEAAXQEAVCListEntry@@@Z=C:\Windows\System32\msdart.?RemoveEntry@CLockedDoubleList@@QEAAXQEAVCListEntry@@@Z
  ?RemoveHead@CDoubleList@@QEAAQEAVCListEntry@@XZ=C:\Windows\System32\msdart.?RemoveHead@CDoubleList@@QEAAQEAVCListEntry@@XZ
  ?RemoveHead@CLockedDoubleList@@QEAAQEAVCListEntry@@XZ=C:\Windows\System32\msdart.?RemoveHead@CLockedDoubleList@@QEAAQEAVCListEntry@@XZ
  ?RemoveTail@CDoubleList@@QEAAQEAVCListEntry@@XZ=C:\Windows\System32\msdart.?RemoveTail@CDoubleList@@QEAAQEAVCListEntry@@XZ
  ?RemoveTail@CLockedDoubleList@@QEAAQEAVCListEntry@@XZ=C:\Windows\System32\msdart.?RemoveTail@CLockedDoubleList@@QEAAQEAVCListEntry@@XZ
  ?RestoreFile@CEXAutoBackupFile@@QEAAJXZ=C:\Windows\System32\msdart.?RestoreFile@CEXAutoBackupFile@@QEAAJXZ
  ?SetBucketLockSpinCount@CLKRHashTable@@QEAAXG@Z=C:\Windows\System32\msdart.?SetBucketLockSpinCount@CLKRHashTable@@QEAAXG@Z
  ?SetBucketLockSpinCount@CLKRLinearHashTable@@QEAAXG@Z=C:\Windows\System32\msdart.?SetBucketLockSpinCount@CLKRLinearHashTable@@QEAAXG@Z
  ?SetDefaultSpinAdjustmentFactor@CCritSec@@SAXN@Z=C:\Windows\System32\msdart.?SetDefaultSpinAdjustmentFactor@CCritSec@@SAXN@Z
  ?SetDefaultSpinAdjustmentFactor@CFakeLock@@SAXN@Z=C:\Windows\System32\msdart.?SetDefaultSpinAdjustmentFactor@CFakeLock@@SAXN@Z
  ?SetDefaultSpinAdjustmentFactor@CReaderWriterLock2@@SAXN@Z=C:\Windows\System32\msdart.?SetDefaultSpinAdjustmentFactor@CReaderWriterLock2@@SAXN@Z
  ?SetDefaultSpinAdjustmentFactor@CReaderWriterLock3@@SAXN@Z=C:\Windows\System32\msdart.?SetDefaultSpinAdjustmentFactor@CReaderWriterLock3@@SAXN@Z
  ?SetDefaultSpinAdjustmentFactor@CReaderWriterLock3AR@@SAXN@Z=C:\Windows\System32\msdart.?SetDefaultSpinAdjustmentFactor@CReaderWriterLock3AR@@SAXN@Z
  ?SetDefaultSpinAdjustmentFactor@CReaderWriterLock@@SAXN@Z=C:\Windows\System32\msdart.?SetDefaultSpinAdjustmentFactor@CReaderWriterLock@@SAXN@Z
  ?SetDefaultSpinAdjustmentFactor@CSmallSpinLock@@SAXN@Z=C:\Windows\System32\msdart.?SetDefaultSpinAdjustmentFactor@CSmallSpinLock@@SAXN@Z
  ?SetDefaultSpinAdjustmentFactor@CSpinLock@@SAXN@Z=C:\Windows\System32\msdart.?SetDefaultSpinAdjustmentFactor@CSpinLock@@SAXN@Z
  ?SetDefaultSpinCount@CCritSec@@SAXG@Z=C:\Windows\System32\msdart.?SetDefaultSpinCount@CCritSec@@SAXG@Z
  ?SetDefaultSpinCount@CFakeLock@@SAXG@Z=C:\Windows\System32\msdart.?SetDefaultSpinCount@CFakeLock@@SAXG@Z
  ?SetDefaultSpinCount@CReaderWriterLock2@@SAXG@Z=C:\Windows\System32\msdart.?SetDefaultSpinCount@CReaderWriterLock2@@SAXG@Z
  ?SetDefaultSpinCount@CReaderWriterLock3@@SAXG@Z=C:\Windows\System32\msdart.?SetDefaultSpinCount@CReaderWriterLock3@@SAXG@Z
  ?SetDefaultSpinCount@CReaderWriterLock3AR@@SAXG@Z=C:\Windows\System32\msdart.?SetDefaultSpinCount@CReaderWriterLock3AR@@SAXG@Z
  ?SetDefaultSpinCount@CReaderWriterLock@@SAXG@Z=C:\Windows\System32\msdart.?SetDefaultSpinCount@CReaderWriterLock@@SAXG@Z
  ?SetDefaultSpinCount@CSmallSpinLock@@SAXG@Z=C:\Windows\System32\msdart.?SetDefaultSpinCount@CSmallSpinLock@@SAXG@Z
  ?SetDefaultSpinCount@CSpinLock@@SAXG@Z=C:\Windows\System32\msdart.?SetDefaultSpinCount@CSpinLock@@SAXG@Z
  ?SetSpinCount@CCritSec@@QEAA_NG@Z=C:\Windows\System32\msdart.?SetSpinCount@CCritSec@@QEAA_NG@Z
  ?SetSpinCount@CCritSec@@SAKPEAPEAVCCriticalSection@@K@Z=C:\Windows\System32\msdart.?SetSpinCount@CCritSec@@SAKPEAPEAVCCriticalSection@@K@Z
  ?SetSpinCount@CFakeLock@@QEAA_NG@Z=C:\Windows\System32\msdart.?SetSpinCount@CFakeLock@@QEAA_NG@Z
  ?SetSpinCount@CReaderWriterLock2@@QEAA_NG@Z=C:\Windows\System32\msdart.?SetSpinCount@CReaderWriterLock2@@QEAA_NG@Z
  ?SetSpinCount@CReaderWriterLock3@@QEAA_NG@Z=C:\Windows\System32\msdart.?SetSpinCount@CReaderWriterLock3@@QEAA_NG@Z
  ?SetSpinCount@CReaderWriterLock3AR@@QEAA_NG@Z=C:\Windows\System32\msdart.?SetSpinCount@CReaderWriterLock3AR@@QEAA_NG@Z
  ?SetSpinCount@CReaderWriterLock@@QEAA_NG@Z=C:\Windows\System32\msdart.?SetSpinCount@CReaderWriterLock@@QEAA_NG@Z
  ?SetSpinCount@CSmallSpinLock@@QEAA_NG@Z=C:\Windows\System32\msdart.?SetSpinCount@CSmallSpinLock@@QEAA_NG@Z
  ?SetSpinCount@CSpinLock@@QEAA_NG@Z=C:\Windows\System32\msdart.?SetSpinCount@CSpinLock@@QEAA_NG@Z
  ?SetTableLockSpinCount@CLKRHashTable@@QEAAXG@Z=C:\Windows\System32\msdart.?SetTableLockSpinCount@CLKRHashTable@@QEAAXG@Z
  ?SetTableLockSpinCount@CLKRLinearHashTable@@QEAAXG@Z=C:\Windows\System32\msdart.?SetTableLockSpinCount@CLKRLinearHashTable@@QEAAXG@Z
  ?Size@CLKRHashTable@@QEBAKXZ=C:\Windows\System32\msdart.?Size@CLKRHashTable@@QEBAKXZ
  ?Size@CLKRLinearHashTable@@QEBAKXZ=C:\Windows\System32\msdart.?Size@CLKRLinearHashTable@@QEBAKXZ
  ?Swap@CSingleList@@QEAAXAEAV1@@Z=C:\Windows\System32\msdart.?Swap@CSingleList@@QEAAXAEAV1@@Z
  ?TryConvertSharedToExclusive@CReaderWriterLock3@@QEAA_NXZ=C:\Windows\System32\msdart.?TryConvertSharedToExclusive@CReaderWriterLock3@@QEAA_NXZ
  ?TryConvertSharedToExclusive@CReaderWriterLock3AR@@QEAA_NXZ=C:\Windows\System32\msdart.?TryConvertSharedToExclusive@CReaderWriterLock3AR@@QEAA_NXZ
  ?TryReadLock@CCritSec@@QEAA_NXZ=C:\Windows\System32\msdart.?TryReadLock@CCritSec@@QEAA_NXZ
  ?TryReadLock@CFakeLock@@QEAA_NXZ=C:\Windows\System32\msdart.?TryReadLock@CFakeLock@@QEAA_NXZ
  ?TryReadLock@CReaderWriterLock2@@QEAA_NXZ=C:\Windows\System32\msdart.?TryReadLock@CReaderWriterLock2@@QEAA_NXZ
  ?TryReadLock@CReaderWriterLock3@@QEAA_NXZ=C:\Windows\System32\msdart.?TryReadLock@CReaderWriterLock3@@QEAA_NXZ
  ?TryReadLock@CReaderWriterLock3AR@@QEAA_NXZ=C:\Windows\System32\msdart.?TryReadLock@CReaderWriterLock3AR@@QEAA_NXZ
  ?TryReadLock@CReaderWriterLock@@QEAA_NXZ=C:\Windows\System32\msdart.?TryReadLock@CReaderWriterLock@@QEAA_NXZ
  ?TryReadLock@CSmallSpinLock@@QEAA_NXZ=C:\Windows\System32\msdart.?TryReadLock@CSmallSpinLock@@QEAA_NXZ
  ?TryReadLock@CSpinLock@@QEAA_NXZ=C:\Windows\System32\msdart.?TryReadLock@CSpinLock@@QEAA_NXZ
  ?TryReadOrWriteLock@CReaderWriterLock3@@QEAA_NAEA_N@Z=C:\Windows\System32\msdart.?TryReadOrWriteLock@CReaderWriterLock3@@QEAA_NAEA_N@Z
  ?TryReadOrWriteLock@CReaderWriterLock3AR@@QEAA_NAEA_N@Z=C:\Windows\System32\msdart.?TryReadOrWriteLock@CReaderWriterLock3AR@@QEAA_NAEA_N@Z
  ?TryWriteLock@CCritSec@@QEAA_NXZ=C:\Windows\System32\msdart.?TryWriteLock@CCritSec@@QEAA_NXZ
  ?TryWriteLock@CFakeLock@@QEAA_NXZ=C:\Windows\System32\msdart.?TryWriteLock@CFakeLock@@QEAA_NXZ
  ?TryWriteLock@CReaderWriterLock2@@QEAA_NXZ=C:\Windows\System32\msdart.?TryWriteLock@CReaderWriterLock2@@QEAA_NXZ
  ?TryWriteLock@CReaderWriterLock3@@QEAA_NXZ=C:\Windows\System32\msdart.?TryWriteLock@CReaderWriterLock3@@QEAA_NXZ
  ?TryWriteLock@CReaderWriterLock3AR@@QEAA_NXZ=C:\Windows\System32\msdart.?TryWriteLock@CReaderWriterLock3AR@@QEAA_NXZ
  ?TryWriteLock@CReaderWriterLock@@QEAA_NXZ=C:\Windows\System32\msdart.?TryWriteLock@CReaderWriterLock@@QEAA_NXZ
  ?TryWriteLock@CSmallSpinLock@@QEAA_NXZ=C:\Windows\System32\msdart.?TryWriteLock@CSmallSpinLock@@QEAA_NXZ
  ?TryWriteLock@CSpinLock@@QEAA_NXZ=C:\Windows\System32\msdart.?TryWriteLock@CSpinLock@@QEAA_NXZ
  ?UndoBackup@CEXAutoBackupFile@@QEAAJXZ=C:\Windows\System32\msdart.?UndoBackup@CEXAutoBackupFile@@QEAAJXZ
  ?Unlock@CLockedDoubleList@@QEAAXXZ=C:\Windows\System32\msdart.?Unlock@CLockedDoubleList@@QEAAXXZ
  ?Unlock@CLockedSingleList@@QEAAXXZ=C:\Windows\System32\msdart.?Unlock@CLockedSingleList@@QEAAXXZ
  ?ValidSignature@CLKRHashTable@@QEBA_NXZ=C:\Windows\System32\msdart.?ValidSignature@CLKRHashTable@@QEBA_NXZ
  ?ValidSignature@CLKRLinearHashTable@@QEBA_NXZ=C:\Windows\System32\msdart.?ValidSignature@CLKRLinearHashTable@@QEBA_NXZ
  ?WaitType@?$CLockBase@$00$00$02$00$02$01@@SA?AW4LOCK_WAIT_TYPE@@XZ=C:\Windows\System32\msdart.?WaitType@?$CLockBase@$00$00$02$00$02$01@@SA?AW4LOCK_WAIT_TYPE@@XZ
  ?WaitType@?$CLockBase@$01$00$00$00$02$01@@SA?AW4LOCK_WAIT_TYPE@@XZ=C:\Windows\System32\msdart.?WaitType@?$CLockBase@$01$00$00$00$02$01@@SA?AW4LOCK_WAIT_TYPE@@XZ
  ?WaitType@?$CLockBase@$02$00$00$00$00$00@@SA?AW4LOCK_WAIT_TYPE@@XZ=C:\Windows\System32\msdart.?WaitType@?$CLockBase@$02$00$00$00$00$00@@SA?AW4LOCK_WAIT_TYPE@@XZ
  ?WaitType@?$CLockBase@$03$00$00$01$02$02@@SA?AW4LOCK_WAIT_TYPE@@XZ=C:\Windows\System32\msdart.?WaitType@?$CLockBase@$03$00$00$01$02$02@@SA?AW4LOCK_WAIT_TYPE@@XZ
  ?WaitType@?$CLockBase@$04$01$01$00$02$01@@SA?AW4LOCK_WAIT_TYPE@@XZ=C:\Windows\System32\msdart.?WaitType@?$CLockBase@$04$01$01$00$02$01@@SA?AW4LOCK_WAIT_TYPE@@XZ
  ?WaitType@?$CLockBase@$05$01$01$00$02$01@@SA?AW4LOCK_WAIT_TYPE@@XZ=C:\Windows\System32\msdart.?WaitType@?$CLockBase@$05$01$01$00$02$01@@SA?AW4LOCK_WAIT_TYPE@@XZ
  ?WaitType@?$CLockBase@$06$01$00$00$02$01@@SA?AW4LOCK_WAIT_TYPE@@XZ=C:\Windows\System32\msdart.?WaitType@?$CLockBase@$06$01$00$00$02$01@@SA?AW4LOCK_WAIT_TYPE@@XZ
  ?WaitType@?$CLockBase@$07$01$00$00$02$01@@SA?AW4LOCK_WAIT_TYPE@@XZ=C:\Windows\System32\msdart.?WaitType@?$CLockBase@$07$01$00$00$02$01@@SA?AW4LOCK_WAIT_TYPE@@XZ
  ?WriteLock@CCritSec@@QEAAXXZ=C:\Windows\System32\msdart.?WriteLock@CCritSec@@QEAAXXZ
  ?WriteLock@CFakeLock@@QEAAXXZ=C:\Windows\System32\msdart.?WriteLock@CFakeLock@@QEAAXXZ
  ?WriteLock@CLKRHashTable@@QEAAXXZ=C:\Windows\System32\msdart.?WriteLock@CLKRHashTable@@QEAAXXZ
  ?WriteLock@CLKRLinearHashTable@@QEAAXXZ=C:\Windows\System32\msdart.?WriteLock@CLKRLinearHashTable@@QEAAXXZ
  ?WriteLock@CReaderWriterLock2@@QEAAXXZ=C:\Windows\System32\msdart.?WriteLock@CReaderWriterLock2@@QEAAXXZ
  ?WriteLock@CReaderWriterLock3@@QEAAXXZ=C:\Windows\System32\msdart.?WriteLock@CReaderWriterLock3@@QEAAXXZ
  ?WriteLock@CReaderWriterLock3AR@@QEAAXXZ=C:\Windows\System32\msdart.?WriteLock@CReaderWriterLock3AR@@QEAAXXZ
  ?WriteLock@CReaderWriterLock@@QEAAXXZ=C:\Windows\System32\msdart.?WriteLock@CReaderWriterLock@@QEAAXXZ
  ?WriteLock@CSmallSpinLock@@QEAAXXZ=C:\Windows\System32\msdart.?WriteLock@CSmallSpinLock@@QEAAXXZ
  ?WriteLock@CSpinLock@@QEAAXXZ=C:\Windows\System32\msdart.?WriteLock@CSpinLock@@QEAAXXZ
  ?WriteUnlock@CCritSec@@QEAAXXZ=C:\Windows\System32\msdart.?WriteUnlock@CCritSec@@QEAAXXZ
  ?WriteUnlock@CFakeLock@@QEAAXXZ=C:\Windows\System32\msdart.?WriteUnlock@CFakeLock@@QEAAXXZ
  ?WriteUnlock@CLKRHashTable@@QEBAXXZ=C:\Windows\System32\msdart.?WriteUnlock@CLKRHashTable@@QEBAXXZ
  ?WriteUnlock@CLKRLinearHashTable@@QEBAXXZ=C:\Windows\System32\msdart.?WriteUnlock@CLKRLinearHashTable@@QEBAXXZ
  ?WriteUnlock@CReaderWriterLock2@@QEAAXXZ=C:\Windows\System32\msdart.?WriteUnlock@CReaderWriterLock2@@QEAAXXZ
  ?WriteUnlock@CReaderWriterLock3@@QEAAXXZ=C:\Windows\System32\msdart.?WriteUnlock@CReaderWriterLock3@@QEAAXXZ
  ?WriteUnlock@CReaderWriterLock3AR@@QEAAXXZ=C:\Windows\System32\msdart.?WriteUnlock@CReaderWriterLock3AR@@QEAAXXZ
  ?WriteUnlock@CReaderWriterLock@@QEAAXXZ=C:\Windows\System32\msdart.?WriteUnlock@CReaderWriterLock@@QEAAXXZ
  ?WriteUnlock@CSmallSpinLock@@QEAAXXZ=C:\Windows\System32\msdart.?WriteUnlock@CSmallSpinLock@@QEAAXXZ
  ?WriteUnlock@CSpinLock@@QEAAXXZ=C:\Windows\System32\msdart.?WriteUnlock@CSpinLock@@QEAAXXZ
  ?_AddRef@CLKRLinearHashTable_Iterator@@IEBAXH@Z=C:\Windows\System32\msdart.?_AddRef@CLKRLinearHashTable_Iterator@@IEBAXH@Z
  ?_AddRefRecord@CLKRLinearHashTable@@AEBAXPEBXH@Z=C:\Windows\System32\msdart.?_AddRefRecord@CLKRLinearHashTable@@AEBAXPEBXH@Z
  ?_AllocateNodeClump@CLKRLinearHashTable@@AEAAQEAVCNodeClump@@XZ=C:\Windows\System32\msdart.?_AllocateNodeClump@CLKRLinearHashTable@@AEAAQEAVCNodeClump@@XZ
  ?_AllocateSegment@CLKRLinearHashTable@@AEBAQEAVCSegment@@XZ=C:\Windows\System32\msdart.?_AllocateSegment@CLKRLinearHashTable@@AEBAQEAVCSegment@@XZ
  ?_AllocateSegmentDirectory@CLKRLinearHashTable@@AEAAQEAVCDirEntry@@_K@Z=C:\Windows\System32\msdart.?_AllocateSegmentDirectory@CLKRLinearHashTable@@AEAAQEAVCDirEntry@@_K@Z
  ?_AllocateSubTable@CLKRHashTable@@AEAAQEAVCLKRLinearHashTable@@PEBDP6A?B_KPEBX@ZP6AK_K@ZP6A_N33@ZP6AX1H@ZNKPEAV1@_N8@Z=C:\Windows\System32\msdart.?_AllocateSubTable@CLKRHashTable@@AEAAQEAVCLKRLinearHashTable@@PEBDP6A?B_KPEBX@ZP6AK_K@ZP6A_N33@ZP6AX1H@ZNKPEAV1@_N8@Z
  ?_AllocateSubTableArray@CLKRHashTable@@AEAAQEAPEAVCLKRLinearHashTable@@_K@Z=C:\Windows\System32\msdart.?_AllocateSubTableArray@CLKRHashTable@@AEAAQEAPEAVCLKRLinearHashTable@@_K@Z
  ?_Apply@CLKRLinearHashTable@@AEAAKP6A?AW4LK_ACTION@@PEBXPEAX@Z1W4LK_LOCKTYPE@@AEAW4LK_PREDICATE@@@Z=C:\Windows\System32\msdart.?_Apply@CLKRLinearHashTable@@AEAAKP6A?AW4LK_ACTION@@PEBXPEAX@Z1W4LK_LOCKTYPE@@AEAW4LK_PREDICATE@@@Z
  ?_ApplyIf@CLKRLinearHashTable@@AEAAKP6A?AW4LK_PREDICATE@@PEBXPEAX@ZP6A?AW4LK_ACTION@@01@Z1W4LK_LOCKTYPE@@AEAW42@@Z=C:\Windows\System32\msdart.?_ApplyIf@CLKRLinearHashTable@@AEAAKP6A?AW4LK_PREDICATE@@PEBXPEAX@ZP6A?AW4LK_ACTION@@01@Z1W4LK_LOCKTYPE@@AEAW42@@Z
  ?_Bucket@CLKRLinearHashTable@@AEBAQEAVCBucket@@K@Z=C:\Windows\System32\msdart.?_Bucket@CLKRLinearHashTable@@AEBAQEAVCBucket@@K@Z
  ?_BucketAddress@CLKRLinearHashTable@@AEBAKK@Z=C:\Windows\System32\msdart.?_BucketAddress@CLKRLinearHashTable@@AEBAKK@Z
  ?_BucketLock@CLKRLinearHashTable@@AEBAXQEAVCBucket@@W4LK_LOCKTYPE@@@Z=C:\Windows\System32\msdart.?_BucketLock@CLKRLinearHashTable@@AEBAXQEAVCBucket@@W4LK_LOCKTYPE@@@Z
  ?_BucketReadLock@CLKRLinearHashTable@@AEBAXQEAVCBucket@@@Z=C:\Windows\System32\msdart.?_BucketReadLock@CLKRLinearHashTable@@AEBAXQEAVCBucket@@@Z
  ?_BucketReadUnlock@CLKRLinearHashTable@@AEBAXQEAVCBucket@@@Z=C:\Windows\System32\msdart.?_BucketReadUnlock@CLKRLinearHashTable@@AEBAXQEAVCBucket@@@Z
  ?_BucketUnlock@CLKRLinearHashTable@@AEBAXQEAVCBucket@@W4LK_LOCKTYPE@@@Z=C:\Windows\System32\msdart.?_BucketUnlock@CLKRLinearHashTable@@AEBAXQEAVCBucket@@W4LK_LOCKTYPE@@@Z
  ?_BucketWriteLock@CLKRLinearHashTable@@AEBAXQEAVCBucket@@@Z=C:\Windows\System32\msdart.?_BucketWriteLock@CLKRLinearHashTable@@AEBAXQEAVCBucket@@@Z
  ?_BucketWriteUnlock@CLKRLinearHashTable@@AEBAXQEAVCBucket@@@Z=C:\Windows\System32\msdart.?_BucketWriteUnlock@CLKRLinearHashTable@@AEBAXQEAVCBucket@@@Z
  ?_CalcKeyHash@CLKRHashTable@@AEBAK_K@Z=C:\Windows\System32\msdart.?_CalcKeyHash@CLKRHashTable@@AEBAK_K@Z
  ?_CalcKeyHash@CLKRLinearHashTable@@AEBAK_K@Z=C:\Windows\System32\msdart.?_CalcKeyHash@CLKRLinearHashTable@@AEBAK_K@Z
  ?_Clear@CLKRLinearHashTable@@AEAAX_N@Z=C:\Windows\System32\msdart.?_Clear@CLKRLinearHashTable@@AEAAX_N@Z
  ?_CmpExch@CReaderWriterLock2@@AEAA_NJJ@Z=C:\Windows\System32\msdart.?_CmpExch@CReaderWriterLock2@@AEAA_NJJ@Z
  ?_CmpExch@CReaderWriterLock3@@AEAA_NJJ@Z=C:\Windows\System32\msdart.?_CmpExch@CReaderWriterLock3@@AEAA_NJJ@Z
  ?_CmpExch@CReaderWriterLock3AR@@AEAA_NJJ@Z=C:\Windows\System32\msdart.?_CmpExch@CReaderWriterLock3AR@@AEAA_NJJ@Z
  ?_CmpExch@CReaderWriterLock@@AEAA_NJJ@Z=C:\Windows\System32\msdart.?_CmpExch@CReaderWriterLock@@AEAA_NJJ@Z
  ?_Contract@CLKRLinearHashTable@@AEAA?AW4LK_RETCODE@@XZ=C:\Windows\System32\msdart.?_Contract@CLKRLinearHashTable@@AEAA?AW4LK_RETCODE@@XZ
  ?_CurrentThreadId@CReaderWriterLock3@@CAJXZ=C:\Windows\System32\msdart.?_CurrentThreadId@CReaderWriterLock3@@CAJXZ
  ?_CurrentThreadId@CReaderWriterLock3AR@@CAJXZ=C:\Windows\System32\msdart.?_CurrentThreadId@CReaderWriterLock3AR@@CAJXZ
  ?_CurrentThreadId@CSmallSpinLock@@CAJXZ=C:\Windows\System32\msdart.?_CurrentThreadId@CSmallSpinLock@@CAJXZ
  ?_CurrentThreadId@CSpinLock@@CAJXZ=C:\Windows\System32\msdart.?_CurrentThreadId@CSpinLock@@CAJXZ
  ?_DeleteIf@CLKRLinearHashTable@@AEAAKP6A?AW4LK_PREDICATE@@PEBXPEAX@Z1AEAW42@@Z=C:\Windows\System32\msdart.?_DeleteIf@CLKRLinearHashTable@@AEAAKP6A?AW4LK_PREDICATE@@PEBXPEAX@Z1AEAW42@@Z
  ?_DeleteKey@CLKRLinearHashTable@@AEAA?AW4LK_RETCODE@@_KK@Z=C:\Windows\System32\msdart.?_DeleteKey@CLKRLinearHashTable@@AEAA?AW4LK_RETCODE@@_KK@Z
  ?_DeleteNode@CLKRLinearHashTable@@AEAA_NQEAVCBucket@@AEAPEAVCNodeClump@@1AEAH@Z=C:\Windows\System32\msdart.?_DeleteNode@CLKRLinearHashTable@@AEAA_NQEAVCBucket@@AEAPEAVCNodeClump@@1AEAH@Z
  ?_DeleteRecord@CLKRLinearHashTable@@AEAA?AW4LK_RETCODE@@PEBXK@Z=C:\Windows\System32\msdart.?_DeleteRecord@CLKRLinearHashTable@@AEAA?AW4LK_RETCODE@@PEBXK@Z
  ?_EqualKeys@CLKRLinearHashTable@@AEBA_N_K0@Z=C:\Windows\System32\msdart.?_EqualKeys@CLKRLinearHashTable@@AEBA_N_K0@Z
  ?_Erase@CLKRLinearHashTable@@AEAA_NAEAVCLKRLinearHashTable_Iterator@@K@Z=C:\Windows\System32\msdart.?_Erase@CLKRLinearHashTable@@AEAA_NAEAVCLKRLinearHashTable_Iterator@@K@Z
  ?_Expand@CLKRLinearHashTable@@AEAA?AW4LK_RETCODE@@XZ=C:\Windows\System32\msdart.?_Expand@CLKRLinearHashTable@@AEAA?AW4LK_RETCODE@@XZ
  ?_ExtractKey@CLKRHashTable@@AEBA?B_KPEBX@Z=C:\Windows\System32\msdart.?_ExtractKey@CLKRHashTable@@AEBA?B_KPEBX@Z
  ?_ExtractKey@CLKRLinearHashTable@@AEBA?B_KPEBX@Z=C:\Windows\System32\msdart.?_ExtractKey@CLKRLinearHashTable@@AEBA?B_KPEBX@Z
  ?_FindBucket@CLKRLinearHashTable@@AEBAQEAVCBucket@@K_N@Z=C:\Windows\System32\msdart.?_FindBucket@CLKRLinearHashTable@@AEBAQEAVCBucket@@K_N@Z
  ?_FindKey@CLKRLinearHashTable@@AEBA?AW4LK_RETCODE@@_KKPEAPEBXPEAVCLKRLinearHashTable_Iterator@@@Z=C:\Windows\System32\msdart.?_FindKey@CLKRLinearHashTable@@AEBA?AW4LK_RETCODE@@_KKPEAPEBXPEAVCLKRLinearHashTable_Iterator@@@Z
  ?_FindRecord@CLKRLinearHashTable@@AEBA?AW4LK_RETCODE@@PEBXK@Z=C:\Windows\System32\msdart.?_FindRecord@CLKRLinearHashTable@@AEBA?AW4LK_RETCODE@@PEBXK@Z
  ?_FreeNodeClump@CLKRLinearHashTable@@AEAA_NPEAVCNodeClump@@@Z=C:\Windows\System32\msdart.?_FreeNodeClump@CLKRLinearHashTable@@AEAA_NPEAVCNodeClump@@@Z
  ?_FreeSegment@CLKRLinearHashTable@@AEBA_NPEAVCSegment@@@Z=C:\Windows\System32\msdart.?_FreeSegment@CLKRLinearHashTable@@AEBA_NPEAVCSegment@@@Z
  ?_FreeSegmentDirectory@CLKRLinearHashTable@@AEAA_NXZ=C:\Windows\System32\msdart.?_FreeSegmentDirectory@CLKRLinearHashTable@@AEAA_NXZ
  ?_FreeSubTable@CLKRHashTable@@AEAA_NPEAVCLKRLinearHashTable@@@Z=C:\Windows\System32\msdart.?_FreeSubTable@CLKRHashTable@@AEAA_NPEAVCLKRLinearHashTable@@@Z
  ?_FreeSubTableArray@CLKRHashTable@@AEAA_NPEAPEAVCLKRLinearHashTable@@@Z=C:\Windows\System32\msdart.?_FreeSubTableArray@CLKRHashTable@@AEAA_NPEAPEAVCLKRLinearHashTable@@@Z
  ?_H0@CLKRLinearHashTable@@AEBAKK@Z=C:\Windows\System32\msdart.?_H0@CLKRLinearHashTable@@AEBAKK@Z
  ?_H0@CLKRLinearHashTable@@CAKKK@Z=C:\Windows\System32\msdart.?_H0@CLKRLinearHashTable@@CAKKK@Z
  ?_H1@CLKRLinearHashTable@@AEBAKK@Z=C:\Windows\System32\msdart.?_H1@CLKRLinearHashTable@@AEBAKK@Z
  ?_H1@CLKRLinearHashTable@@CAKKK@Z=C:\Windows\System32\msdart.?_H1@CLKRLinearHashTable@@CAKKK@Z
  ?_Increment@CLKRHashTable_Iterator@@IEAA_N_N@Z=C:\Windows\System32\msdart.?_Increment@CLKRHashTable_Iterator@@IEAA_N_N@Z
  ?_Increment@CLKRLinearHashTable_Iterator@@IEAA_N_N@Z=C:\Windows\System32\msdart.?_Increment@CLKRLinearHashTable_Iterator@@IEAA_N_N@Z
  ?_Initialize@CLKRLinearHashTable@@AEAA?AW4LK_RETCODE@@P6A?B_KPEBX@ZP6AK_K@ZP6A_N22@ZP6AX0H@ZPEBDNK@Z=C:\Windows\System32\msdart.?_Initialize@CLKRLinearHashTable@@AEAA?AW4LK_RETCODE@@P6A?B_KPEBX@ZP6AK_K@ZP6A_N22@ZP6AX0H@ZPEBDNK@Z
  ?_InsertRecord@CLKRLinearHashTable@@AEAA?AW4LK_RETCODE@@PEBXK_NPEAPEBXPEAVCLKRLinearHashTable_Iterator@@@Z=C:\Windows\System32\msdart.?_InsertRecord@CLKRLinearHashTable@@AEAA?AW4LK_RETCODE@@PEBXK_NPEAPEBXPEAVCLKRLinearHashTable_Iterator@@@Z
  ?_InsertThisIntoGlobalList@CLKRHashTable@@AEAAXXZ=C:\Windows\System32\msdart.?_InsertThisIntoGlobalList@CLKRHashTable@@AEAAXXZ
  ?_InsertThisIntoGlobalList@CLKRLinearHashTable@@AEAAXXZ=C:\Windows\System32\msdart.?_InsertThisIntoGlobalList@CLKRLinearHashTable@@AEAAXXZ
  ?_IsLocked@CSpinLock@@AEBA_NXZ=C:\Windows\System32\msdart.?_IsLocked@CSpinLock@@AEBA_NXZ
  ?_IsNodeCompact@CLKRLinearHashTable@@AEBAHQEAVCBucket@@@Z=C:\Windows\System32\msdart.?_IsNodeCompact@CLKRLinearHashTable@@AEBAHQEAVCBucket@@@Z
  ?_IsValidIterator@CLKRHashTable@@AEBA_NAEBVCLKRHashTable_Iterator@@@Z=C:\Windows\System32\msdart.?_IsValidIterator@CLKRHashTable@@AEBA_NAEBVCLKRHashTable_Iterator@@@Z
  ?_IsValidIterator@CLKRLinearHashTable@@AEBA_NAEBVCLKRLinearHashTable_Iterator@@@Z=C:\Windows\System32\msdart.?_IsValidIterator@CLKRLinearHashTable@@AEBA_NAEBVCLKRLinearHashTable_Iterator@@@Z
  ?_Lock@CSpinLock@@AEAAXXZ=C:\Windows\System32\msdart.?_Lock@CSpinLock@@AEAAXXZ
  ?_LockSpin@CReaderWriterLock2@@AEAAX_N@Z=C:\Windows\System32\msdart.?_LockSpin@CReaderWriterLock2@@AEAAX_N@Z
  ?_LockSpin@CReaderWriterLock3@@AEAAXW4SPIN_TYPE@1@@Z=C:\Windows\System32\msdart.?_LockSpin@CReaderWriterLock3@@AEAAXW4SPIN_TYPE@1@@Z
  ?_LockSpin@CReaderWriterLock3AR@@AEAAXW4SPIN_TYPE@1@@Z=C:\Windows\System32\msdart.?_LockSpin@CReaderWriterLock3AR@@AEAAXW4SPIN_TYPE@1@@Z
  ?_LockSpin@CReaderWriterLock@@AEAAX_N@Z=C:\Windows\System32\msdart.?_LockSpin@CReaderWriterLock@@AEAAX_N@Z
  ?_LockSpin@CSmallSpinLock@@AEAAXXZ=C:\Windows\System32\msdart.?_LockSpin@CSmallSpinLock@@AEAAXXZ
  ?_LockSpin@CSpinLock@@AEAAXXZ=C:\Windows\System32\msdart.?_LockSpin@CSpinLock@@AEAAXXZ
  ?_MergeRecordSets@CLKRLinearHashTable@@AEAA?AW4LK_RETCODE@@PEAVCBucket@@PEAVCNodeClump@@1@Z=C:\Windows\System32\msdart.?_MergeRecordSets@CLKRLinearHashTable@@AEAA?AW4LK_RETCODE@@PEAVCBucket@@PEAVCNodeClump@@1@Z
  ?_PredTrue@CLKRLinearHashTable@@CA?AW4LK_PREDICATE@@PEBXPEAX@Z=C:\Windows\System32\msdart.?_PredTrue@CLKRLinearHashTable@@CA?AW4LK_PREDICATE@@PEBXPEAX@Z
  ?_ReadLockSpin@CReaderWriterLock2@@AEAAXXZ=C:\Windows\System32\msdart.?_ReadLockSpin@CReaderWriterLock2@@AEAAXXZ
  ?_ReadLockSpin@CReaderWriterLock3@@AEAAXW4SPIN_TYPE@1@@Z=C:\Windows\System32\msdart.?_ReadLockSpin@CReaderWriterLock3@@AEAAXW4SPIN_TYPE@1@@Z
  ?_ReadLockSpin@CReaderWriterLock3AR@@AEAAXW4SPIN_TYPE@1@@Z=C:\Windows\System32\msdart.?_ReadLockSpin@CReaderWriterLock3AR@@AEAAXW4SPIN_TYPE@1@@Z
  ?_ReadLockSpin@CReaderWriterLock@@AEAAXXZ=C:\Windows\System32\msdart.?_ReadLockSpin@CReaderWriterLock@@AEAAXXZ
  ?_ReadOrWriteLock@CLKRLinearHashTable@@AEBA_NXZ=C:\Windows\System32\msdart.?_ReadOrWriteLock@CLKRLinearHashTable@@AEBA_NXZ
  ?_ReadOrWriteUnlock@CLKRLinearHashTable@@AEBAX_N@Z=C:\Windows\System32\msdart.?_ReadOrWriteUnlock@CLKRLinearHashTable@@AEBAX_N@Z
  ?_RemoveThisFromGlobalList@CLKRHashTable@@AEAAXXZ=C:\Windows\System32\msdart.?_RemoveThisFromGlobalList@CLKRHashTable@@AEAAXXZ
  ?_RemoveThisFromGlobalList@CLKRLinearHashTable@@AEAAXXZ=C:\Windows\System32\msdart.?_RemoveThisFromGlobalList@CLKRLinearHashTable@@AEAAXXZ
  ?_SegIndex@CLKRLinearHashTable@@AEBAKK@Z=C:\Windows\System32\msdart.?_SegIndex@CLKRLinearHashTable@@AEBAKK@Z
  ?_Segment@CLKRLinearHashTable@@AEBAAEAPEAVCSegment@@K@Z=C:\Windows\System32\msdart.?_Segment@CLKRLinearHashTable@@AEBAAEAPEAVCSegment@@K@Z
  ?_SetSegVars@CLKRLinearHashTable@@AEAA?AW4LK_RETCODE@@W4LK_TABLESIZE@@K@Z=C:\Windows\System32\msdart.?_SetSegVars@CLKRLinearHashTable@@AEAA?AW4LK_RETCODE@@W4LK_TABLESIZE@@K@Z
  ?_SplitRecordSet@CLKRLinearHashTable@@AEAA?AW4LK_RETCODE@@PEAVCNodeClump@@0KKK0@Z=C:\Windows\System32\msdart.?_SplitRecordSet@CLKRLinearHashTable@@AEAA?AW4LK_RETCODE@@PEAVCNodeClump@@0KKK0@Z
  ?_SubTable@CLKRHashTable@@AEBAPEAVCLKRLinearHashTable@@K@Z=C:\Windows\System32\msdart.?_SubTable@CLKRHashTable@@AEBAPEAVCLKRLinearHashTable@@K@Z
  ?_SubTableIndex@CLKRHashTable@@AEBAHPEAVCLKRLinearHashTable@@@Z=C:\Windows\System32\msdart.?_SubTableIndex@CLKRHashTable@@AEBAHPEAVCLKRLinearHashTable@@@Z
  ?_TableLock@CLKRLinearHashTable@@AEAAXW4LK_LOCKTYPE@@@Z=C:\Windows\System32\msdart.?_TableLock@CLKRLinearHashTable@@AEAAXW4LK_LOCKTYPE@@@Z
  ?_TableUnlock@CLKRLinearHashTable@@AEAAXW4LK_LOCKTYPE@@@Z=C:\Windows\System32\msdart.?_TableUnlock@CLKRLinearHashTable@@AEAAXW4LK_LOCKTYPE@@@Z
  ?_TryLock@CSmallSpinLock@@AEAA_NXZ=C:\Windows\System32\msdart.?_TryLock@CSmallSpinLock@@AEAA_NXZ
  ?_TryLock@CSpinLock@@AEAA_NXZ=C:\Windows\System32\msdart.?_TryLock@CSpinLock@@AEAA_NXZ
  ?_TryReadLock@CReaderWriterLock2@@AEAA_NXZ=C:\Windows\System32\msdart.?_TryReadLock@CReaderWriterLock2@@AEAA_NXZ
  ?_TryReadLock@CReaderWriterLock3@@AEAA_NXZ=C:\Windows\System32\msdart.?_TryReadLock@CReaderWriterLock3@@AEAA_NXZ
  ?_TryReadLock@CReaderWriterLock3AR@@AEAA_NXZ=C:\Windows\System32\msdart.?_TryReadLock@CReaderWriterLock3AR@@AEAA_NXZ
  ?_TryReadLock@CReaderWriterLock@@AEAA_NXZ=C:\Windows\System32\msdart.?_TryReadLock@CReaderWriterLock@@AEAA_NXZ
  ?_TryReadLockRecursive@CReaderWriterLock3@@AEAA_NXZ=C:\Windows\System32\msdart.?_TryReadLockRecursive@CReaderWriterLock3@@AEAA_NXZ
  ?_TryReadLockRecursive@CReaderWriterLock3AR@@AEAA_NXZ=C:\Windows\System32\msdart.?_TryReadLockRecursive@CReaderWriterLock3AR@@AEAA_NXZ
  ?_TryWriteLock2@CReaderWriterLock3@@AEAA_NXZ=C:\Windows\System32\msdart.?_TryWriteLock2@CReaderWriterLock3@@AEAA_NXZ
  ?_TryWriteLock2@CReaderWriterLock3AR@@AEAA_NXZ=C:\Windows\System32\msdart.?_TryWriteLock2@CReaderWriterLock3AR@@AEAA_NXZ
  ?_TryWriteLock@CReaderWriterLock2@@AEAA_NJ@Z=C:\Windows\System32\msdart.?_TryWriteLock@CReaderWriterLock2@@AEAA_NJ@Z
  ?_TryWriteLock@CReaderWriterLock3@@AEAA_NJ@Z=C:\Windows\System32\msdart.?_TryWriteLock@CReaderWriterLock3@@AEAA_NJ@Z
  ?_TryWriteLock@CReaderWriterLock3AR@@AEAA_NJ@Z=C:\Windows\System32\msdart.?_TryWriteLock@CReaderWriterLock3AR@@AEAA_NJ@Z
  ?_TryWriteLock@CReaderWriterLock@@AEAA_NXZ=C:\Windows\System32\msdart.?_TryWriteLock@CReaderWriterLock@@AEAA_NXZ
  ?_Unlock@CSpinLock@@AEAAXXZ=C:\Windows\System32\msdart.?_Unlock@CSpinLock@@AEAAXXZ
  ?_WriteLockSpin@CReaderWriterLock2@@AEAAXXZ=C:\Windows\System32\msdart.?_WriteLockSpin@CReaderWriterLock2@@AEAAXXZ
  ?_WriteLockSpin@CReaderWriterLock3@@AEAAXXZ=C:\Windows\System32\msdart.?_WriteLockSpin@CReaderWriterLock3@@AEAAXXZ
  ?_WriteLockSpin@CReaderWriterLock3AR@@AEAAXXZ=C:\Windows\System32\msdart.?_WriteLockSpin@CReaderWriterLock3AR@@AEAAXXZ
  ?_WriteLockSpin@CReaderWriterLock@@AEAAXXZ=C:\Windows\System32\msdart.?_WriteLockSpin@CReaderWriterLock@@AEAAXXZ
  ?_getFileSecurity@CExFileOperation@@AEAAJPEBG@Z=C:\Windows\System32\msdart.?_getFileSecurity@CExFileOperation@@AEAAJPEBG@Z
  ?_setFileSecurity@CExFileOperation@@AEAAJPEBG@Z=C:\Windows\System32\msdart.?_setFileSecurity@CExFileOperation@@AEAAJPEBG@Z
  ?fHaveBackup@CEXAutoBackupFile@@QEAAHXZ=C:\Windows\System32\msdart.?fHaveBackup@CEXAutoBackupFile@@QEAAHXZ
  ?s_aBucketSizes@?1??BucketSizes@CLKRHashTableStats@@SAPEBJXZ@4QBJB=C:\Windows\System32\msdart.?s_aBucketSizes@?1??BucketSizes@CLKRHashTableStats@@SAPEBJXZ@4QBJB
  ?sm_DefaultAllocator@CLKRHashTable@@0VCLKRhashDefaultAllocator@@A=C:\Windows\System32\msdart.?sm_DefaultAllocator@CLKRHashTable@@0VCLKRhashDefaultAllocator@@A
  ?sm_dblDfltSpinAdjFctr@CCritSec@@1NA=C:\Windows\System32\msdart.?sm_dblDfltSpinAdjFctr@CCritSec@@1NA
  ?sm_dblDfltSpinAdjFctr@CFakeLock@@1NA=C:\Windows\System32\msdart.?sm_dblDfltSpinAdjFctr@CFakeLock@@1NA
  ?sm_dblDfltSpinAdjFctr@CReaderWriterLock2@@1NA=C:\Windows\System32\msdart.?sm_dblDfltSpinAdjFctr@CReaderWriterLock2@@1NA
  ?sm_dblDfltSpinAdjFctr@CReaderWriterLock3@@1NA=C:\Windows\System32\msdart.?sm_dblDfltSpinAdjFctr@CReaderWriterLock3@@1NA
  ?sm_dblDfltSpinAdjFctr@CReaderWriterLock3AR@@1NA=C:\Windows\System32\msdart.?sm_dblDfltSpinAdjFctr@CReaderWriterLock3AR@@1NA
  ?sm_dblDfltSpinAdjFctr@CReaderWriterLock@@1NA=C:\Windows\System32\msdart.?sm_dblDfltSpinAdjFctr@CReaderWriterLock@@1NA
  ?sm_dblDfltSpinAdjFctr@CSmallSpinLock@@1NA=C:\Windows\System32\msdart.?sm_dblDfltSpinAdjFctr@CSmallSpinLock@@1NA
  ?sm_dblDfltSpinAdjFctr@CSpinLock@@1NA=C:\Windows\System32\msdart.?sm_dblDfltSpinAdjFctr@CSpinLock@@1NA
  ?sm_llGlobalList@CLKRHashTable@@0VCLockedDoubleList@@A=C:\Windows\System32\msdart.?sm_llGlobalList@CLKRHashTable@@0VCLockedDoubleList@@A
  ?sm_llGlobalList@CLKRLinearHashTable@@0VCLockedDoubleList@@A=C:\Windows\System32\msdart.?sm_llGlobalList@CLKRLinearHashTable@@0VCLockedDoubleList@@A
  ?sm_lpOSVERSIONINFO@CMdVersionInfo@@0PEAU_OSVERSIONINFOW@@EA=C:\Windows\System32\msdart.?sm_lpOSVERSIONINFO@CMdVersionInfo@@0PEAU_OSVERSIONINFOW@@EA
  ?sm_pfnSetCriticalSectionSpinCount@CCriticalSection@@0P6AKPEAU_RTL_CRITICAL_SECTION@@K@ZEA=C:\Windows\System32\msdart.?sm_pfnSetCriticalSectionSpinCount@CCriticalSection@@0P6AKPEAU_RTL_CRITICAL_SECTION@@K@ZEA
  ?sm_pfnTryEnterCriticalSection@CCriticalSection@@0P6AHPEAU_RTL_CRITICAL_SECTION@@@ZEA=C:\Windows\System32\msdart.?sm_pfnTryEnterCriticalSection@CCriticalSection@@0P6AHPEAU_RTL_CRITICAL_SECTION@@@ZEA
  ?sm_wDefaultSpinCount@CCritSec@@1GA=C:\Windows\System32\msdart.?sm_wDefaultSpinCount@CCritSec@@1GA
  ?sm_wDefaultSpinCount@CFakeLock@@1GA=C:\Windows\System32\msdart.?sm_wDefaultSpinCount@CFakeLock@@1GA
  ?sm_wDefaultSpinCount@CReaderWriterLock2@@1GA=C:\Windows\System32\msdart.?sm_wDefaultSpinCount@CReaderWriterLock2@@1GA
  ?sm_wDefaultSpinCount@CReaderWriterLock3@@1GA=C:\Windows\System32\msdart.?sm_wDefaultSpinCount@CReaderWriterLock3@@1GA
  ?sm_wDefaultSpinCount@CReaderWriterLock3AR@@1GA=C:\Windows\System32\msdart.?sm_wDefaultSpinCount@CReaderWriterLock3AR@@1GA
  ?sm_wDefaultSpinCount@CReaderWriterLock@@1GA=C:\Windows\System32\msdart.?sm_wDefaultSpinCount@CReaderWriterLock@@1GA
  ?sm_wDefaultSpinCount@CSmallSpinLock@@1GA=C:\Windows\System32\msdart.?sm_wDefaultSpinCount@CSmallSpinLock@@1GA
  ?sm_wDefaultSpinCount@CSpinLock@@1GA=C:\Windows\System32\msdart.?sm_wDefaultSpinCount@CSpinLock@@1GA
  DllBidEntryPoint=C:\Windows\System32\msdart.DllBidEntryPoint
  DllMain=C:\Windows\System32\msdart.DllMain
  FXMemAttach=C:\Windows\System32\msdart.FXMemAttach
  FXMemDetach=C:\Windows\System32\msdart.FXMemDetach
  GetAllocCounters=C:\Windows\System32\msdart.GetAllocCounters
  GetIUMS=C:\Windows\System32\msdart.GetIUMS
  IrtlAssert=C:\Windows\System32\msdart.IrtlAssert
  IrtlTrace=C:\Windows\System32\msdart.IrtlTrace
  MPCSInitialize=C:\Windows\System32\msdart.MPCSInitialize
  MPCSUninitialize=C:\Windows\System32\msdart.MPCSUninitialize
  MPDeleteCriticalSection=C:\Windows\System32\msdart.MPDeleteCriticalSection
  MPInitializeCriticalSection=C:\Windows\System32\msdart.MPInitializeCriticalSection
  MPInitializeCriticalSectionAndSpinCount=C:\Windows\System32\msdart.MPInitializeCriticalSectionAndSpinCount
  MpGetHeapHandle=C:\Windows\System32\msdart.MpGetHeapHandle
  MpHeapAlloc=C:\Windows\System32\msdart.MpHeapAlloc
  MpHeapCreate=C:\Windows\System32\msdart.MpHeapCreate
  MpHeapDestroy=C:\Windows\System32\msdart.MpHeapDestroy
  MpHeapFree=C:\Windows\System32\msdart.MpHeapFree
  MpHeapReAlloc=C:\Windows\System32\msdart.MpHeapReAlloc
  MpHeapSize=C:\Windows\System32\msdart.MpHeapSize
  MpHeapValidate=C:\Windows\System32\msdart.MpHeapValidate
  SetIUMS=C:\Windows\System32\msdart.SetIUMS
  SetMemHook=C:\Windows\System32\msdart.SetMemHook
  UMSEnterCSWraper=C:\Windows\System32\msdart.UMSEnterCSWraper
  mpCalloc=C:\Windows\System32\msdart.mpCalloc
  mpFree=C:\Windows\System32\msdart.mpFree
  mpMalloc=C:\Windows\System32\msdart.mpMalloc
  mpRealloc=C:\Windows\System32\msdart.mpRealloc
