EXPORTS
  ??0CRDPCache@@QEAA@XZ=C:\Windows\System32\rdpbase.??0CRDPCache@@QEAA@XZ
  ??0CRDPENCONResolver@@QEAA@XZ=C:\Windows\System32\rdpbase.??0CRDPENCONResolver@@QEAA@XZ
  ??0NSCodecDecompressor@@QEAA@_N@Z=C:\Windows\System32\rdpbase.??0NSCodecDecompressor@@QEAA@_N@Z
  ??0PipeETWEvents@@QEAA@XZ=C:\Windows\System32\rdpbase.??0PipeETWEvents@@QEAA@XZ
  ??0RdpEncodeBuffer@@QEAA@PEAVITSObjectPool@@@Z=C:\Windows\System32\rdpbase.??0RdpEncodeBuffer@@QEAA@PEAVITSObjectPool@@@Z
  ??0RdpGfxProtocolBaseDecoder@@IEAA@XZ=C:\Windows\System32\rdpbase.??0RdpGfxProtocolBaseDecoder@@IEAA@XZ
  ??0SSECBCHash2@@QEAA@XZ=C:\Windows\System32\rdpbase.??0SSECBCHash2@@QEAA@XZ
  ??1CRDPCache@@UEAA@XZ=C:\Windows\System32\rdpbase.??1CRDPCache@@UEAA@XZ
  ??1CRDPENCONResolver@@QEAA@XZ=C:\Windows\System32\rdpbase.??1CRDPENCONResolver@@QEAA@XZ
  ??1Evict@@QEAA@XZ=C:\Windows\System32\rdpbase.??1Evict@@QEAA@XZ
  ??1RdpGfxProtocolBaseDecoder@@IEAA@XZ=C:\Windows\System32\rdpbase.??1RdpGfxProtocolBaseDecoder@@IEAA@XZ
  ?AddConnection@CRDPENCONResolver@@QEAAJPEAGKH@Z=C:\Windows\System32\rdpbase.?AddConnection@CRDPENCONResolver@@QEAAJPEAGKH@Z
  ?AddPortMapping@CRDPENCConnectorStringSerializer@@UEAAJPEAGK@Z=C:\Windows\System32\rdpbase.?AddPortMapping@CRDPENCConnectorStringSerializer@@UEAAJPEAGK@Z
  ?AlphaCompressor__CreateInstance@@YAJPEAPEAUIRdpImageCompressor@@@Z=C:\Windows\System32\rdpbase.?AlphaCompressor__CreateInstance@@YAJPEAPEAUIRdpImageCompressor@@@Z
  ?ClearCache@CRDPCache@@UEAAJXZ=C:\Windows\System32\rdpbase.?ClearCache@CRDPCache@@UEAAJXZ
  ?Compress@NSCodecCompressor@@QEAA_NAEBVPixelMap@@_NPEAEIAEAI@Z=C:\Windows\System32\rdpbase.?Compress@NSCodecCompressor@@QEAA_NAEBVPixelMap@@_NPEAEIAEAI@Z
  ?CompressRdp8__CreateInstance@@YAJPEAPEAVIRdpPipeCompress@@I@Z=C:\Windows\System32\rdpbase.?CompressRdp8__CreateInstance@@YAJPEAPEAVIRdpPipeCompress@@I@Z
  ?CreateInstance@CRDPENCONPort@@SAJPEAUaddrinfo@@HPEAXPEAPEAV1@@Z=C:\Windows\System32\rdpbase.?CreateInstance@CRDPENCONPort@@SAJPEAUaddrinfo@@HPEAXPEAPEAV1@@Z
  ?CreateInstance@CRdpGfxCapsSet@@SAJPEAXKPEAPEAUIRdpGfxCapsSet@@@Z=C:\Windows\System32\rdpbase.?CreateInstance@CRdpGfxCapsSet@@SAJPEAXKPEAPEAUIRdpGfxCapsSet@@@Z
  ?CreateInstance@Evict@@SAJKKKKKPEAPEAV1@@Z=C:\Windows\System32\rdpbase.?CreateInstance@Evict@@SAJKKKKKPEAPEAV1@@Z
  ?CreateInstance@HashTable@@SAJKKPEAPEAUIHashBucket@@@Z=C:\Windows\System32\rdpbase.?CreateInstance@HashTable@@SAJKKPEAPEAUIHashBucket@@@Z
  ?CreateInstance@NSCodecCompressor@@SA_N_N00EAEAV?$TCntPtr@VNSCodecCompressor@@@@@Z=C:\Windows\System32\rdpbase.?CreateInstance@NSCodecCompressor@@SA_N_N00EAEAV?$TCntPtr@VNSCodecCompressor@@@@@Z
  ?CreateInstance@PlanarCompressor@@SAJGGEHHHPEAPEAUIRdpImageCompressor@@@Z=C:\Windows\System32\rdpbase.?CreateInstance@PlanarCompressor@@SAJGGEHHHPEAPEAUIRdpImageCompressor@@@Z
  ?CreateInstance@RdpEncodeBuffer@@SAJPEAVRdpEncodeBufferPool@@KPEAPEAV1@@Z=C:\Windows\System32\rdpbase.?CreateInstance@RdpEncodeBuffer@@SAJPEAVRdpEncodeBufferPool@@KPEAPEAV1@@Z
  ?Decompress@NSCodecDecompressor@@QEAA_NPEBEIAEAVPixelMap@@@Z=C:\Windows\System32\rdpbase.?Decompress@NSCodecDecompressor@@QEAA_NPEBEIAEAVPixelMap@@@Z
  ?DecompressRdp8__CreateInstance@@YAJPEAPEAVIRdpPipeDecompress@@@Z=C:\Windows\System32\rdpbase.?DecompressRdp8__CreateInstance@@YAJPEAPEAVIRdpPipeDecompress@@@Z
  ?Enable@PipeETWEvents@@UEAAJKK@Z=C:\Windows\System32\rdpbase.?Enable@PipeETWEvents@@UEAAJKK@Z
  ?EvictEntry@Evict@@QEAAPEAU_SCORE_ENTRY@@XZ=C:\Windows\System32\rdpbase.?EvictEntry@Evict@@QEAAPEAU_SCORE_ENTRY@@XZ
  ?FakeSleep@PipelineClock@@QEAAX_K@Z=C:\Windows\System32\rdpbase.?FakeSleep@PipelineClock@@QEAAX_K@Z
  ?GetFreeEntry@Evict@@QEAAPEAU_SCORE_ENTRY@@XZ=C:\Windows\System32\rdpbase.?GetFreeEntry@Evict@@QEAAPEAU_SCORE_ENTRY@@XZ
  ?GetInstance@PipelineClock@@SAAEAV1@XZ=C:\Windows\System32\rdpbase.?GetInstance@PipelineClock@@SAAEAV1@XZ
  ?GetMillisecondCount64@PipelineClock@@QEAA_KXZ=C:\Windows\System32\rdpbase.?GetMillisecondCount64@PipelineClock@@QEAA_KXZ
  ?GetMillisecondCount@PipelineClock@@QEAAIXZ=C:\Windows\System32\rdpbase.?GetMillisecondCount@PipelineClock@@QEAAIXZ
  ?GetNext@CRDPENCONIPHelper@@QEAAPEAU_SOCKET_ADDRESS@@XZ=C:\Windows\System32\rdpbase.?GetNext@CRDPENCONIPHelper@@QEAAPEAU_SOCKET_ADDRESS@@XZ
  ?GetNext@CRDPENCONResolver@@QEAAHPEAPEAUsockaddr@@PEA_K@Z=C:\Windows\System32\rdpbase.?GetNext@CRDPENCONResolver@@QEAAHPEAPEAUsockaddr@@PEA_K@Z
  ?GetPortMapping@CRDPENCConnectorStringDeserializer@@QEAAJKPEAPEAGPEAK@Z=C:\Windows\System32\rdpbase.?GetPortMapping@CRDPENCConnectorStringDeserializer@@QEAAJKPEAPEAGPEAK@Z
  ?GetTickCount@PipelineClock@@QEAAIXZ=C:\Windows\System32\rdpbase.?GetTickCount@PipelineClock@@QEAAIXZ
  ?GetTimeHNS@PipelineClock@@QEAA_JXZ=C:\Windows\System32\rdpbase.?GetTimeHNS@PipelineClock@@QEAA_JXZ
  ?HintCoconet__CreateInstance@@YAJPEAPEAVIRdpPipeCompressHintProvider@@@Z=C:\Windows\System32\rdpbase.?HintCoconet__CreateInstance@@YAJPEAPEAVIRdpPipeCompressHintProvider@@@Z
  ?Initialize@CRDPENCONIPHelper@@QEAAJKHPEAG@Z=C:\Windows\System32\rdpbase.?Initialize@CRDPENCONIPHelper@@QEAAJKHPEAG@Z
  ?Initialize@PipeETWEvents@@UEAAJPEAUIUnknown@@@Z=C:\Windows\System32\rdpbase.?Initialize@PipeETWEvents@@UEAAJPEAUIUnknown@@@Z
  ?InitializeInstance@CRDPENCConnectorStringSerializer@@UEAAJXZ=C:\Windows\System32\rdpbase.?InitializeInstance@CRDPENCConnectorStringSerializer@@UEAAJXZ
  ?InsertEntry@Evict@@QEAAXPEAU_SCORE_ENTRY@@K@Z=C:\Windows\System32\rdpbase.?InsertEntry@Evict@@QEAAXPEAU_SCORE_ENTRY@@K@Z
  ?IsSupportedVersion@CRdpGfxCaps@@SAHK@Z=C:\Windows\System32\rdpbase.?IsSupportedVersion@CRdpGfxCaps@@SAHK@Z
  ?IsTestMode@PipelineClock@@QEAA_NXZ=C:\Windows\System32\rdpbase.?IsTestMode@PipelineClock@@QEAA_NXZ
  ?NSRunLengthDecode@@YAKPEBEKPEAEK@Z=C:\Windows\System32\rdpbase.?NSRunLengthDecode@@YAKPEBEKPEAEK@Z
  ?PAL_System_Win32_IsRunningInAppContainer@@YAHXZ=C:\Windows\System32\rdpbase.?PAL_System_Win32_IsRunningInAppContainer@@YAHXZ
  ?ParkEntry@Evict@@QEAAXPEAU_SCORE_ENTRY@@@Z=C:\Windows\System32\rdpbase.?ParkEntry@Evict@@QEAAXPEAU_SCORE_ENTRY@@@Z
  ?ProcessAlignedData_AVX@SSECBCHash2@@AEAAXPEBIIII@Z=C:\Windows\System32\rdpbase.?ProcessAlignedData_AVX@SSECBCHash2@@AEAAXPEBIIII@Z
  ?ProcessAlignedData_SSE2@SSECBCHash2@@AEAAXPEBIIII@Z=C:\Windows\System32\rdpbase.?ProcessAlignedData_SSE2@SSECBCHash2@@AEAAXPEBIIII@Z
  ?ProcessAlignedData_SSE41@SSECBCHash2@@AEAAXPEBIIII@Z=C:\Windows\System32\rdpbase.?ProcessAlignedData_SSE41@SSECBCHash2@@AEAAXPEBIIII@Z
  ?ProcessUnalignedData_REG@SSECBCHash2@@AEAAXPEBIIII@Z=C:\Windows\System32\rdpbase.?ProcessUnalignedData_REG@SSECBCHash2@@AEAAXPEBIIII@Z
  ?PromoteEntry@Evict@@QEAAXKK@Z=C:\Windows\System32\rdpbase.?PromoteEntry@Evict@@QEAAXKK@Z
  ?RdpGfxProtocolServerEncoder_CreateInstance@@YAJPEAVIRdpEncoderIO@@PEAPEAVIRdpPipeProtocolEncoderEx@@@Z=C:\Windows\System32\rdpbase.?RdpGfxProtocolServerEncoder_CreateInstance@@YAJPEAVIRdpEncoderIO@@PEAPEAVIRdpPipeProtocolEncoderEx@@@Z
  ?RdpPerfLoggerStaticInitialize@@YAXXZ=C:\Windows\System32\rdpbase.?RdpPerfLoggerStaticInitialize@@YAXXZ
  ?RdpPerfLoggerStaticTerminate@@YAXXZ=C:\Windows\System32\rdpbase.?RdpPerfLoggerStaticTerminate@@YAXXZ
  ?Reset@CRDPCache@@UEAAJI@Z=C:\Windows\System32\rdpbase.?Reset@CRDPCache@@UEAAJI@Z
  ?SearchCache@CRDPCache@@UEAAJIIPEAPEAUIUnknown@@PEAI@Z=C:\Windows\System32\rdpbase.?SearchCache@CRDPCache@@UEAAJIIPEAPEAUIUnknown@@PEAI@Z
  ?SetCacheEntry@CRDPCache@@UEAAJIIPEAUIUnknown@@PEAI@Z=C:\Windows\System32\rdpbase.?SetCacheEntry@CRDPCache@@UEAAJIIPEAUIUnknown@@PEAI@Z
  ?SetConnectorId@CRDPENCConnectorStringSerializer@@UEAAJK@Z=C:\Windows\System32\rdpbase.?SetConnectorId@CRDPENCConnectorStringSerializer@@UEAAJK@Z
  ?SetDecodeBuffer@RdpGfxProtocolBaseDecoder@@IEAAXPEBEI@Z=C:\Windows\System32\rdpbase.?SetDecodeBuffer@RdpGfxProtocolBaseDecoder@@IEAAXPEBEI@Z
  ?SetSessionId@CRDPENCConnectorStringSerializer@@UEAAJI@Z=C:\Windows\System32\rdpbase.?SetSessionId@CRDPENCConnectorStringSerializer@@UEAAJI@Z
  ?SortAddresses@CRDPENCONResolver@@QEAAJXZ=C:\Windows\System32\rdpbase.?SortAddresses@CRDPENCONResolver@@QEAAJXZ
  ?StartEnum@CRDPENCONIPHelper@@QEAAHXZ=C:\Windows\System32\rdpbase.?StartEnum@CRDPENCONIPHelper@@QEAAHXZ
  ?StartEnum@CRDPENCONResolver@@QEAAIXZ=C:\Windows\System32\rdpbase.?StartEnum@CRDPENCONResolver@@QEAAIXZ
  ?Terminate@CRDPENCONIPHelper@@QEAAJXZ=C:\Windows\System32\rdpbase.?Terminate@CRDPENCONIPHelper@@QEAAJXZ
  ?UnevictEntry@Evict@@QEAAXPEAU_SCORE_ENTRY@@@Z=C:\Windows\System32\rdpbase.?UnevictEntry@Evict@@QEAAXPEAU_SCORE_ENTRY@@@Z
  ?UpdateKeys@SSECBCHash2@@AEBAXXZ=C:\Windows\System32\rdpbase.?UpdateKeys@SSECBCHash2@@AEBAXXZ
  ?XMLDeserialize@CRDPENCConnectorStringDeserializer@@QEAAJPEAG@Z=C:\Windows\System32\rdpbase.?XMLDeserialize@CRDPENCConnectorStringDeserializer@@QEAAJPEAG@Z
  ?XMLSerialize@CRDPENCConnectorStringSerializer@@UEAAJPEAPEAG@Z=C:\Windows\System32\rdpbase.?XMLSerialize@CRDPENCConnectorStringSerializer@@UEAAJPEAPEAG@Z
  ?XObjectId_RdpXHttpSession_CreateObject@@YA?AW4_XResult32@@PEAURdpXInterface@@IW4_XInterfaceId32@@PEAPEAX@Z=C:\Windows\System32\rdpbase.?XObjectId_RdpXHttpSession_CreateObject@@YA?AW4_XResult32@@PEAURdpXInterface@@IW4_XInterfaceId32@@PEAPEAX@Z
  ?XObjectId_RdpXInterfaceUriComponents_CreateObject@@YA?AW4_XResult32@@PEAURdpXInterface@@IW4_XInterfaceId32@@PEAPEAX@Z=C:\Windows\System32\rdpbase.?XObjectId_RdpXInterfaceUriComponents_CreateObject@@YA?AW4_XResult32@@PEAURdpXInterface@@IW4_XInterfaceId32@@PEAPEAX@Z
  ?XObjectId_RdpXSecFilterServer_CreateObject@@YA?AW4_XResult32@@PEAURdpXInterface@@IW4_XInterfaceId32@@PEAPEAX@Z=C:\Windows\System32\rdpbase.?XObjectId_RdpXSecFilterServer_CreateObject@@YA?AW4_XResult32@@PEAURdpXInterface@@IW4_XInterfaceId32@@PEAPEAX@Z
  ApplyLuminanceFilter=C:\Windows\System32\rdpbase.ApplyLuminanceFilter
  ApplySobelFilterOnLum=C:\Windows\System32\rdpbase.ApplySobelFilterOnLum
  BitmapCombinePlanes=C:\Windows\System32\rdpbase.BitmapCombinePlanes
  CAPAPI_AddCapSet=C:\Windows\System32\rdpbase.CAPAPI_AddCapSet
  CAPAPI_GetCapSet=C:\Windows\System32\rdpbase.CAPAPI_GetCapSet
  CAPAPI_InitializeCombinedCaps=C:\Windows\System32\rdpbase.CAPAPI_InitializeCombinedCaps
  CAPAPI_MergeCombinedCaps=C:\Windows\System32\rdpbase.CAPAPI_MergeCombinedCaps
  CRDPBitmapRecorder_CreateInstance=C:\Windows\System32\rdpbase.CRDPBitmapRecorder_CreateInstance
  CRDPCacCodecEncoder_CreateInstance=C:\Windows\System32\rdpbase.CRDPCacCodecEncoder_CreateInstance
  CRDPCacCodec_CreateInstance=C:\Windows\System32\rdpbase.CRDPCacCodec_CreateInstance
  CRDPCacVideoCodecForHardwareClient_CreateInstance=C:\Windows\System32\rdpbase.CRDPCacVideoCodecForHardwareClient_CreateInstance
  CRDPCacVideoCodec_CreateInstance=C:\Windows\System32\rdpbase.CRDPCacVideoCodec_CreateInstance
  CRDPCaps_CreateInstance=C:\Windows\System32\rdpbase.CRDPCaps_CreateInstance
  CRDPENCGfxEncoder_CreateInstance=C:\Windows\System32\rdpbase.CRDPENCGfxEncoder_CreateInstance
  CRDPNsCodec_CreateInstance=C:\Windows\System32\rdpbase.CRDPNsCodec_CreateInstance
  CRDPPlanarCompressor_CreateInstance=C:\Windows\System32\rdpbase.CRDPPlanarCompressor_CreateInstance
  CRdpFIPSEncryption_CreateInstance=C:\Windows\System32\rdpbase.CRdpFIPSEncryption_CreateInstance
  DecryptData=C:\Windows\System32\rdpbase.DecryptData
  DecryptDataEx=C:\Windows\System32\rdpbase.DecryptDataEx
  DrawBox=C:\Windows\System32\rdpbase.DrawBox
  DrawHLine=C:\Windows\System32\rdpbase.DrawHLine
  DrawIconToPixelMap=C:\Windows\System32\rdpbase.DrawIconToPixelMap
  DrawVLine=C:\Windows\System32\rdpbase.DrawVLine
  EncryptClientRandom=C:\Windows\System32\rdpbase.EncryptClientRandom
  EncryptData=C:\Windows\System32\rdpbase.EncryptData
  ExpandRectForSSE=C:\Windows\System32\rdpbase.ExpandRectForSSE
  GetSupportedSSELevel_SSE=C:\Windows\System32\rdpbase.GetSupportedSSELevel_SSE
  GridBA_CreateInstance=C:\Windows\System32\rdpbase.GridBA_CreateInstance
  MakeSessionKeys=C:\Windows\System32\rdpbase.MakeSessionKeys
  MemCopyAligned_SSE=C:\Windows\System32\rdpbase.MemCopyAligned_SSE
  MemEqual=C:\Windows\System32\rdpbase.MemEqual
  MemMoveReverseAligned_SSE=C:\Windows\System32\rdpbase.MemMoveReverseAligned_SSE
  PAL_System_AtomicCompareAndExchange=C:\Windows\System32\rdpbase.PAL_System_AtomicCompareAndExchange
  PAL_System_AtomicCompareAndExchangePointer=C:\Windows\System32\rdpbase.PAL_System_AtomicCompareAndExchangePointer
  PAL_System_AtomicDecrement=C:\Windows\System32\rdpbase.PAL_System_AtomicDecrement
  PAL_System_AtomicExchange=C:\Windows\System32\rdpbase.PAL_System_AtomicExchange
  PAL_System_AtomicExchangeAdd=C:\Windows\System32\rdpbase.PAL_System_AtomicExchangeAdd
  PAL_System_AtomicExchangePointer=C:\Windows\System32\rdpbase.PAL_System_AtomicExchangePointer
  PAL_System_AtomicIncrement=C:\Windows\System32\rdpbase.PAL_System_AtomicIncrement
  PAL_System_Beep=C:\Windows\System32\rdpbase.PAL_System_Beep
  PAL_System_CondAlloc=C:\Windows\System32\rdpbase.PAL_System_CondAlloc
  PAL_System_CondReset=C:\Windows\System32\rdpbase.PAL_System_CondReset
  PAL_System_CondSignal=C:\Windows\System32\rdpbase.PAL_System_CondSignal
  PAL_System_CondWait=C:\Windows\System32\rdpbase.PAL_System_CondWait
  PAL_System_ConvertToAndFromWideChar=C:\Windows\System32\rdpbase.PAL_System_ConvertToAndFromWideChar
  PAL_System_CreateGuid=C:\Windows\System32\rdpbase.PAL_System_CreateGuid
  PAL_System_CredProtect=C:\Windows\System32\rdpbase.PAL_System_CredProtect
  PAL_System_CredUnprotect=C:\Windows\System32\rdpbase.PAL_System_CredUnprotect
  PAL_System_CritSecEnter=C:\Windows\System32\rdpbase.PAL_System_CritSecEnter
  PAL_System_CritSecInit=C:\Windows\System32\rdpbase.PAL_System_CritSecInit
  PAL_System_CritSecIsLockedByCurrentThread=C:\Windows\System32\rdpbase.PAL_System_CritSecIsLockedByCurrentThread
  PAL_System_CritSecLeave=C:\Windows\System32\rdpbase.PAL_System_CritSecLeave
  PAL_System_CritSecTerminate=C:\Windows\System32\rdpbase.PAL_System_CritSecTerminate
  PAL_System_CritSecTryEnter=C:\Windows\System32\rdpbase.PAL_System_CritSecTryEnter
  PAL_System_CryptDecryptLegacy=C:\Windows\System32\rdpbase.PAL_System_CryptDecryptLegacy
  PAL_System_CryptEncrypt=C:\Windows\System32\rdpbase.PAL_System_CryptEncrypt
  PAL_System_CryptFree=C:\Windows\System32\rdpbase.PAL_System_CryptFree
  PAL_System_CryptZeroMemory=C:\Windows\System32\rdpbase.PAL_System_CryptZeroMemory
  PAL_System_DebugBreak=C:\Windows\System32\rdpbase.PAL_System_DebugBreak
  PAL_System_DebugOutput=C:\Windows\System32\rdpbase.PAL_System_DebugOutput
  PAL_System_GetComputerName=C:\Windows\System32\rdpbase.PAL_System_GetComputerName
  PAL_System_GetFIPSAlgorithmEnabled=C:\Windows\System32\rdpbase.PAL_System_GetFIPSAlgorithmEnabled
  PAL_System_GetLocalSessionId=C:\Windows\System32\rdpbase.PAL_System_GetLocalSessionId
  PAL_System_GetModuleFilename=C:\Windows\System32\rdpbase.PAL_System_GetModuleFilename
  PAL_System_GetNetworkStatus=C:\Windows\System32\rdpbase.PAL_System_GetNetworkStatus
  PAL_System_GetNumberOfProcessors=C:\Windows\System32\rdpbase.PAL_System_GetNumberOfProcessors
  PAL_System_GetWindowsProductId=C:\Windows\System32\rdpbase.PAL_System_GetWindowsProductId
  PAL_System_HandleFree=C:\Windows\System32\rdpbase.PAL_System_HandleFree
  PAL_System_MemAlloc=C:\Windows\System32\rdpbase.PAL_System_MemAlloc
  PAL_System_MemFree=C:\Windows\System32\rdpbase.PAL_System_MemFree
  PAL_System_NetworkMonitorInit=C:\Windows\System32\rdpbase.PAL_System_NetworkMonitorInit
  PAL_System_NetworkMonitorNotification=C:\Windows\System32\rdpbase.PAL_System_NetworkMonitorNotification
  PAL_System_NetworkMonitorTerminate=C:\Windows\System32\rdpbase.PAL_System_NetworkMonitorTerminate
  PAL_System_SecureZeroMemory=C:\Windows\System32\rdpbase.PAL_System_SecureZeroMemory
  PAL_System_SemaphoreAcquire=C:\Windows\System32\rdpbase.PAL_System_SemaphoreAcquire
  PAL_System_SemaphoreAlloc=C:\Windows\System32\rdpbase.PAL_System_SemaphoreAlloc
  PAL_System_SemaphoreRelease=C:\Windows\System32\rdpbase.PAL_System_SemaphoreRelease
  PAL_System_SingleCondWait=C:\Windows\System32\rdpbase.PAL_System_SingleCondWait
  PAL_System_Sleep=C:\Windows\System32\rdpbase.PAL_System_Sleep
  PAL_System_SwitchToThread=C:\Windows\System32\rdpbase.PAL_System_SwitchToThread
  PAL_System_ThreadGetId=C:\Windows\System32\rdpbase.PAL_System_ThreadGetId
  PAL_System_TimeGetCurrent=C:\Windows\System32\rdpbase.PAL_System_TimeGetCurrent
  PAL_System_TimeGetDynamicTimeZoneInformation=C:\Windows\System32\rdpbase.PAL_System_TimeGetDynamicTimeZoneInformation
  PAL_System_TimeGetTickCount=C:\Windows\System32\rdpbase.PAL_System_TimeGetTickCount
  PAL_System_TimeGetTickCount64=C:\Windows\System32\rdpbase.PAL_System_TimeGetTickCount64
  PAL_System_TimeGetTimeZoneInformation=C:\Windows\System32\rdpbase.PAL_System_TimeGetTimeZoneInformation
  PAL_System_TimerCancel=C:\Windows\System32\rdpbase.PAL_System_TimerCancel
  PAL_System_TimerDelete=C:\Windows\System32\rdpbase.PAL_System_TimerDelete
  PAL_System_TimerInit=C:\Windows\System32\rdpbase.PAL_System_TimerInit
  PAL_System_TimerIsSet=C:\Windows\System32\rdpbase.PAL_System_TimerIsSet
  PAL_System_TimerSet=C:\Windows\System32\rdpbase.PAL_System_TimerSet
  PAL_System_WideCharToUnicode16=C:\Windows\System32\rdpbase.PAL_System_WideCharToUnicode16
  RDPAPI_GetGenericCounter=C:\Windows\System32\rdpbase.RDPAPI_GetGenericCounter
  RDPAPI_GetGlobalObject=C:\Windows\System32\rdpbase.RDPAPI_GetGlobalObject
  RDPAPI_GetLongCounter=C:\Windows\System32\rdpbase.RDPAPI_GetLongCounter
  RDPBASE_CreateInstance=C:\Windows\System32\rdpbase.RDPBASE_CreateInstance
  RDPCompress=C:\Windows\System32\rdpbase.RDPCompress
  RDPCompressEx=C:\Windows\System32\rdpbase.RDPCompressEx
  RDPCompress_GetContextSize=C:\Windows\System32\rdpbase.RDPCompress_GetContextSize
  RDPCompress_InitRecvContext=C:\Windows\System32\rdpbase.RDPCompress_InitRecvContext
  RDPCompress_InitSendContext=C:\Windows\System32\rdpbase.RDPCompress_InitSendContext
  RDPDeCompress_GetContextSize=C:\Windows\System32\rdpbase.RDPDeCompress_GetContextSize
  RDPDecompress=C:\Windows\System32\rdpbase.RDPDecompress
  RDPENCDirectConnector_CreateInstance=C:\Windows\System32\rdpbase.RDPENCDirectConnector_CreateInstance
  RDPENCGDIHLP_FlipBitmapBits=C:\Windows\System32\rdpbase.RDPENCGDIHLP_FlipBitmapBits
  RDPENCGDIHLP_FlipBitmapBitsInPlace=C:\Windows\System32\rdpbase.RDPENCGDIHLP_FlipBitmapBitsInPlace
  RDPENCGDIHLP_ValidatePointerParams=C:\Windows\System32\rdpbase.RDPENCGDIHLP_ValidatePointerParams
  RDPENCHLPREG_ReadValueDWORD=C:\Windows\System32\rdpbase.RDPENCHLPREG_ReadValueDWORD
  RDPENCHLPWSErr2Hr=C:\Windows\System32\rdpbase.RDPENCHLPWSErr2Hr
  RDPENCHLPWS_GetIPFromAddr=C:\Windows\System32\rdpbase.RDPENCHLPWS_GetIPFromAddr
  RDPENCHLPWS_GetPortFromAddr=C:\Windows\System32\rdpbase.RDPENCHLPWS_GetPortFromAddr
  RDPENCHLP_GetInputDesktopName=C:\Windows\System32\rdpbase.RDPENCHLP_GetInputDesktopName
  RDPENCHLP_IsGreaterThanOrEqWin8=C:\Windows\System32\rdpbase.RDPENCHLP_IsGreaterThanOrEqWin8
  RDPENCHLP_IsSessionActive=C:\Windows\System32\rdpbase.RDPENCHLP_IsSessionActive
  RDPENCHLP_IsSessionRemote=C:\Windows\System32\rdpbase.RDPENCHLP_IsSessionRemote
  RDPENCHLP_TraceWindowInfo=C:\Windows\System32\rdpbase.RDPENCHLP_TraceWindowInfo
  RDPENCORE_AddGlobalObject=C:\Windows\System32\rdpbase.RDPENCORE_AddGlobalObject
  RDPServerStackDiagnostics_LogCheckpoint=C:\Windows\System32\rdpbase.RDPServerStackDiagnostics_LogCheckpoint
  RDPServerStackDiagnostics_LogDisconnect=C:\Windows\System32\rdpbase.RDPServerStackDiagnostics_LogDisconnect
  RDPServerStackDiagnostics_LogFailure=C:\Windows\System32\rdpbase.RDPServerStackDiagnostics_LogFailure
  RDPServerStackDiagnostics_Register=C:\Windows\System32\rdpbase.RDPServerStackDiagnostics_Register
  RDPServerStackDiagnostics_Unregister=C:\Windows\System32\rdpbase.RDPServerStackDiagnostics_Unregister
  RDPWSStreamConnector_CreateInstance=C:\Windows\System32\rdpbase.RDPWSStreamConnector_CreateInstance
  RDP_HMACMD5Final=C:\Windows\System32\rdpbase.RDP_HMACMD5Final
  RDP_HMACMD5Init=C:\Windows\System32\rdpbase.RDP_HMACMD5Init
  RDP_HMACMD5Update=C:\Windows\System32\rdpbase.RDP_HMACMD5Update
  RDP_MD5Final=C:\Windows\System32\rdpbase.RDP_MD5Final
  RDP_MD5Init=C:\Windows\System32\rdpbase.RDP_MD5Init
  RDP_MD5Update=C:\Windows\System32\rdpbase.RDP_MD5Update
  RDP_RC4=C:\Windows\System32\rdpbase.RDP_RC4
  RDP_RC4AllocKey=C:\Windows\System32\rdpbase.RDP_RC4AllocKey
  RDP_RC4FreeKey=C:\Windows\System32\rdpbase.RDP_RC4FreeKey
  RDP_RC4SetKey=C:\Windows\System32\rdpbase.RDP_RC4SetKey
  RDP_RC4ZeroKey=C:\Windows\System32\rdpbase.RDP_RC4ZeroKey
  RDP_RsaBCryptDecryptPrivate=C:\Windows\System32\rdpbase.RDP_RsaBCryptDecryptPrivate
  RDP_RsaBCryptGenerateRsaKeyPair=C:\Windows\System32\rdpbase.RDP_RsaBCryptGenerateRsaKeyPair
  RDP_RsaBCryptPubKeyToBSafePubKey=C:\Windows\System32\rdpbase.RDP_RsaBCryptPubKeyToBSafePubKey
  RDP_RsaBSafeEncPublic=C:\Windows\System32\rdpbase.RDP_RsaBSafeEncPublic
  RDP_RsaGetPublicKeyDataLength=C:\Windows\System32\rdpbase.RDP_RsaGetPublicKeyDataLength
  RDP_RsaGetPublicKeyLength=C:\Windows\System32\rdpbase.RDP_RsaGetPublicKeyLength
  RDP_SHAFinal=C:\Windows\System32\rdpbase.RDP_SHAFinal
  RDP_SHAInit=C:\Windows\System32\rdpbase.RDP_SHAInit
  RDP_SHAUpdate=C:\Windows\System32\rdpbase.RDP_SHAUpdate
  RdpIntersectRect=C:\Windows\System32\rdpbase.RdpIntersectRect
  RdpTiledSurface_CreateInstance=C:\Windows\System32\rdpbase.RdpTiledSurface_CreateInstance
  RdpUnionRect=C:\Windows\System32\rdpbase.RdpUnionRect
  RdpX_AtomicDecrement32=C:\Windows\System32\rdpbase.RdpX_AtomicDecrement32
  RdpX_AtomicIncrement32=C:\Windows\System32\rdpbase.RdpX_AtomicIncrement32
  RdpX_DateTime_GetHighResolutionTimeSinceReboot=C:\Windows\System32\rdpbase.RdpX_DateTime_GetHighResolutionTimeSinceReboot
  RdpX_DebugBreak=C:\Windows\System32\rdpbase.RdpX_DebugBreak
  RdpX_GetActivityIdPrefix=C:\Windows\System32\rdpbase.RdpX_GetActivityIdPrefix
  RdpX_Threading_CreateCriticalSection=C:\Windows\System32\rdpbase.RdpX_Threading_CreateCriticalSection
  RgnlibBA_CreateInstance=C:\Windows\System32\rdpbase.RgnlibBA_CreateInstance
  SaveImageToFile=C:\Windows\System32\rdpbase.SaveImageToFile
  SubtractRects=C:\Windows\System32\rdpbase.SubtractRects
  TRC_TraceBufferW=C:\Windows\System32\rdpbase.TRC_TraceBufferW
  TSAlloc=C:\Windows\System32\rdpbase.TSAlloc
  TSCreateBaseServices=C:\Windows\System32\rdpbase.TSCreateBaseServices
  TSCreateCoreEvents=C:\Windows\System32\rdpbase.TSCreateCoreEvents
  TSCreatePlatform=C:\Windows\System32\rdpbase.TSCreatePlatform
  TSDbgAssertThread=C:\Windows\System32\rdpbase.TSDbgAssertThread
  TSFree=C:\Windows\System32\rdpbase.TSFree
  TSRNG_GenerateRandomBits=C:\Windows\System32\rdpbase.TSRNG_GenerateRandomBits
  TsAddRectsToRegion=C:\Windows\System32\rdpbase.TsAddRectsToRegion
  TsCreateRegion=C:\Windows\System32\rdpbase.TsCreateRegion
  TsDestroyRegion=C:\Windows\System32\rdpbase.TsDestroyRegion
  TsGetRegionBoundingBox=C:\Windows\System32\rdpbase.TsGetRegionBoundingBox
  TsGetRegionRectCount=C:\Windows\System32\rdpbase.TsGetRegionRectCount
  TsGetRegionRects=C:\Windows\System32\rdpbase.TsGetRegionRects
  TsSetRegionFromRects=C:\Windows\System32\rdpbase.TsSetRegionFromRects
  UnpackServerCert=C:\Windows\System32\rdpbase.UnpackServerCert
  UpdateSessionKey=C:\Windows\System32\rdpbase.UpdateSessionKey
  ValidateServerCert=C:\Windows\System32\rdpbase.ValidateServerCert
