EXPORTS
  ??0CheckedMutex@auf@@QEAA@PEBD_N@Z=C:\Windows\System32\rtmpal.??0CheckedMutex@auf@@QEAA@PEBD_N@Z
  ??0Event@auf@@QEAA@XZ=C:\Windows\System32\rtmpal.??0Event@auf@@QEAA@XZ
  ??0Flag@auf@@QEAA@XZ=C:\Windows\System32\rtmpal.??0Flag@auf@@QEAA@XZ
  ??0IPv4@rtnet@@QEAA@XZ=C:\Windows\System32\rtmpal.??0IPv4@rtnet@@QEAA@XZ
  ??0IPv6@rtnet@@QEAA@XZ=C:\Windows\System32\rtmpal.??0IPv6@rtnet@@QEAA@XZ
  ??0LockfreeQueue@auf@@QEAA@AEAVLockfreeStackPool@1@@Z=C:\Windows\System32\rtmpal.??0LockfreeQueue@auf@@QEAA@AEAVLockfreeStackPool@1@@Z
  ??0LockfreeStackPool@auf@@QEAA@I@Z=C:\Windows\System32\rtmpal.??0LockfreeStackPool@auf@@QEAA@I@Z
  ??0Path@spl@@QEAA@XZ=C:\Windows\System32\rtmpal.??0Path@spl@@QEAA@XZ
  ??0PortSpecification@rtnet@@QEAA@AEBU?$pair@HH@std@@@Z=C:\Windows\System32\rtmpal.??0PortSpecification@rtnet@@QEAA@AEBU?$pair@HH@std@@@Z
  ??0RefCounter@auf@@QEAA@XZ=C:\Windows\System32\rtmpal.??0RefCounter@auf@@QEAA@XZ
  ??0SocketConnectOptions@rtnet@@QEAA@XZ=C:\Windows\System32\rtmpal.??0SocketConnectOptions@rtnet@@QEAA@XZ
  ??0SocketOptions@rtnet@@IEAA@XZ=C:\Windows\System32\rtmpal.??0SocketOptions@rtnet@@IEAA@XZ
  ??0ThreadRef@auf@@QEAA@PEBDI_K@Z=C:\Windows\System32\rtmpal.??0ThreadRef@auf@@QEAA@PEBDI_K@Z
  ??0UncheckedMutex@auf@@QEAA@PEBD_N@Z=C:\Windows\System32\rtmpal.??0UncheckedMutex@auf@@QEAA@PEBD_N@Z
  ??0XorshiftRNG@auf@@QEAA@I@Z=C:\Windows\System32\rtmpal.??0XorshiftRNG@auf@@QEAA@I@Z
  ??1CheckedMutex@auf@@QEAA@XZ=C:\Windows\System32\rtmpal.??1CheckedMutex@auf@@QEAA@XZ
  ??1Event@auf@@QEAA@XZ=C:\Windows\System32\rtmpal.??1Event@auf@@QEAA@XZ
  ??1Flag@auf@@QEAA@XZ=C:\Windows\System32\rtmpal.??1Flag@auf@@QEAA@XZ
  ??1IPv4@rtnet@@QEAA@XZ=C:\Windows\System32\rtmpal.??1IPv4@rtnet@@QEAA@XZ
  ??1IPv6@rtnet@@QEAA@XZ=C:\Windows\System32\rtmpal.??1IPv6@rtnet@@QEAA@XZ
  ??1LockfreeQueue@auf@@QEAA@XZ=C:\Windows\System32\rtmpal.??1LockfreeQueue@auf@@QEAA@XZ
  ??1LockfreeStackPool@auf@@QEAA@XZ=C:\Windows\System32\rtmpal.??1LockfreeStackPool@auf@@QEAA@XZ
  ??1Path@spl@@QEAA@XZ=C:\Windows\System32\rtmpal.??1Path@spl@@QEAA@XZ
  ??1PortSpecification@rtnet@@QEAA@XZ=C:\Windows\System32\rtmpal.??1PortSpecification@rtnet@@QEAA@XZ
  ??1RefCounter@auf@@QEAA@XZ=C:\Windows\System32\rtmpal.??1RefCounter@auf@@QEAA@XZ
  ??1ThreadRef@auf@@QEAA@XZ=C:\Windows\System32\rtmpal.??1ThreadRef@auf@@QEAA@XZ
  ??1UncheckedMutex@auf@@QEAA@XZ=C:\Windows\System32\rtmpal.??1UncheckedMutex@auf@@QEAA@XZ
  ??1XorshiftRNG@auf@@QEAA@XZ=C:\Windows\System32\rtmpal.??1XorshiftRNG@auf@@QEAA@XZ
  ??AIPv4@rtnet@@QEAAAEAE_K@Z=C:\Windows\System32\rtmpal.??AIPv4@rtnet@@QEAAAEAE_K@Z
  ??AIPv6@rtnet@@QEAAAEAE_K@Z=C:\Windows\System32\rtmpal.??AIPv6@rtnet@@QEAAAEAE_K@Z
  ?address@InterfaceAddress@rtnet@@QEBA?AV?$IntrusivePtr@VAddress@rtnet@@@auf@@XZ=C:\Windows\System32\rtmpal.?address@InterfaceAddress@rtnet@@QEBA?AV?$IntrusivePtr@VAddress@rtnet@@@auf@@XZ
  ?advance@SimpleBuffer@rtnet@@QEAAX_K@Z=C:\Windows\System32\rtmpal.?advance@SimpleBuffer@rtnet@@QEAAX_K@Z
  ?allocMem@LockfreePacker@auf@@SAPEAX_K@Z=C:\Windows\System32\rtmpal.?allocMem@LockfreePacker@auf@@SAPEAX_K@Z
  ?allocate@LockfreeStackPool@auf@@QEAAPEAX_K@Z=C:\Windows\System32\rtmpal.?allocate@LockfreeStackPool@auf@@QEAAPEAX_K@Z
  ?asIPv4@Address@rtnet@@QEBA_NAEAVIPv4@2@@Z=C:\Windows\System32\rtmpal.?asIPv4@Address@rtnet@@QEBA_NAEAVIPv4@2@@Z
  ?asIPv6@Address@rtnet@@QEBA_NAEAVIPv6@2@@Z=C:\Windows\System32\rtmpal.?asIPv6@Address@rtnet@@QEBA_NAEAVIPv6@2@@Z
  ?atomicAddI@spl@@YAHPECHH@Z=C:\Windows\System32\rtmpal.?atomicAddI@spl@@YAHPECHH@Z
  ?atomicAddL@spl@@YAJPECJJ@Z=C:\Windows\System32\rtmpal.?atomicAddL@spl@@YAJPECJJ@Z
  ?callOperatorDelete@spl@@YAXPEAX@Z=C:\Windows\System32\rtmpal.?callOperatorDelete@spl@@YAXPEAX@Z
  ?callOperatorNew@spl@@YAPEAX_K@Z=C:\Windows\System32\rtmpal.?callOperatorNew@spl@@YAPEAX_K@Z
  ?clearDelegate@StreamSocket@rtnet@@QEAAXXZ=C:\Windows\System32\rtmpal.?clearDelegate@StreamSocket@rtnet@@QEAAXXZ
  ?compareExchangeI@spl@@YA_NPECHHH@Z=C:\Windows\System32\rtmpal.?compareExchangeI@spl@@YA_NPECHHH@Z
  ?compareExchangeL@spl@@YA_NPECJJJ@Z=C:\Windows\System32\rtmpal.?compareExchangeL@spl@@YA_NPECJJJ@Z
  ?compareExchangePI@spl@@YA_NPEC_J_J1@Z=C:\Windows\System32\rtmpal.?compareExchangePI@spl@@YA_NPEC_J_J1@Z
  ?compareExchangeValI@spl@@YAHPECHHH@Z=C:\Windows\System32\rtmpal.?compareExchangeValI@spl@@YAHPECHHH@Z
  ?complete@SimpleBuffer@rtnet@@QEAAXXZ=C:\Windows\System32\rtmpal.?complete@SimpleBuffer@rtnet@@QEAAXXZ
  ?connectTCPHostAsync@rtnet@@YA?AV?$IntrusivePtr@VAsyncOperation@auf@@@auf@@PEBDHAEBV?$IntrusivePtr@VThreadPoolTransport@auf@@@3@AEBV?$IntrusivePtr@VIStreamSocketDelegate@rtnet@@@3@PEAUAsyncTag@3@AEBV?$IntrusivePtr@VStreamSocketOptions@rtnet@@@3@AEBV?$IntrusivePtr@VStreamSocketConnectOptions@rtnet@@@3@I@Z=C:\Windows\System32\rtmpal.?connectTCPHostAsync@rtnet@@YA?AV?$IntrusivePtr@VAsyncOperation@auf@@@auf@@PEBDHAEBV?$IntrusivePtr@VThreadPoolTransport@auf@@@3@AEBV?$IntrusivePtr@VIStreamSocketDelegate@rtnet@@@3@PEAUAsyncTag@3@AEBV?$IntrusivePtr@VStreamSocketOptions@rtnet@@@3@AEBV?$IntrusivePtr@VStreamSocketConnectOptions@rtnet@@@3@I@Z
  ?connectedCore@IStreamSocketDelegate@rtnet@@AEAAXAEBV?$IntrusivePtr@VStreamSocket@rtnet@@@auf@@PEAUAsyncTag@4@@Z=C:\Windows\System32\rtmpal.?connectedCore@IStreamSocketDelegate@rtnet@@AEAAXAEBV?$IntrusivePtr@VStreamSocket@rtnet@@@auf@@PEAUAsyncTag@4@@Z
  ?create@PortSpecificationImpl@internal@rtnet@@SAPEAV123@AEBU?$pair@HH@std@@@Z=C:\Windows\System32\rtmpal.?create@PortSpecificationImpl@internal@rtnet@@SAPEAV123@AEBU?$pair@HH@std@@@Z
  ?create@PortSpecificationImpl@internal@rtnet@@SAPEAV123@AEBV123@@Z=C:\Windows\System32\rtmpal.?create@PortSpecificationImpl@internal@rtnet@@SAPEAV123@AEBV123@@Z
  ?create@PortSpecificationImpl@internal@rtnet@@SAPEAV123@H@Z=C:\Windows\System32\rtmpal.?create@PortSpecificationImpl@internal@rtnet@@SAPEAV123@H@Z
  ?create@PortSpecificationImpl@internal@rtnet@@SAPEAV123@HH@Z=C:\Windows\System32\rtmpal.?create@PortSpecificationImpl@internal@rtnet@@SAPEAV123@HH@Z
  ?create@SocketConnectOptionsImpl@internal@rtnet@@SAPEAV123@AEBV123@@Z=C:\Windows\System32\rtmpal.?create@SocketConnectOptionsImpl@internal@rtnet@@SAPEAV123@AEBV123@@Z
  ?create@SocketConnectOptionsImpl@internal@rtnet@@SAPEAV123@XZ=C:\Windows\System32\rtmpal.?create@SocketConnectOptionsImpl@internal@rtnet@@SAPEAV123@XZ
  ?create@SocketOptionsImpl@internal@rtnet@@SAPEAV123@AEBV123@@Z=C:\Windows\System32\rtmpal.?create@SocketOptionsImpl@internal@rtnet@@SAPEAV123@AEBV123@@Z
  ?create@SocketOptionsImpl@internal@rtnet@@SAPEAV123@XZ=C:\Windows\System32\rtmpal.?create@SocketOptionsImpl@internal@rtnet@@SAPEAV123@XZ
  ?createStrand@auf@@YA?AV?$IntrusivePtr@VThreadPoolTransport@auf@@@1@W4ThreadPoolPriority@spl@@@Z=C:\Windows\System32\rtmpal.?createStrand@auf@@YA?AV?$IntrusivePtr@VThreadPoolTransport@auf@@@1@W4ThreadPoolPriority@spl@@@Z
  ?createStrandWithTransport@auf@@YA?AV?$IntrusivePtr@VThreadPoolTransport@auf@@@1@AEBV21@@Z=C:\Windows\System32\rtmpal.?createStrandWithTransport@auf@@YA?AV?$IntrusivePtr@VThreadPoolTransport@auf@@@1@AEBV21@@Z
  ?createTimerWithTransport@auf@@YA?AV?$IntrusivePtr@VTimer@auf@@@1@AEBV?$IntrusivePtr@VThreadPoolTransport@auf@@@1@V?$duration@_JU?$ratio@$00$0PECEA@@std@@@chrono@std@@1PEAUCall@1@@Z=C:\Windows\System32\rtmpal.?createTimerWithTransport@auf@@YA?AV?$IntrusivePtr@VTimer@auf@@@1@AEBV?$IntrusivePtr@VThreadPoolTransport@auf@@@1@V?$duration@_JU?$ratio@$00$0PECEA@@std@@@chrono@std@@1PEAUCall@1@@Z
  ?createWithSize@SimpleBuffer@rtnet@@SA?AV?$IntrusivePtr@VSimpleBuffer@rtnet@@@auf@@_K@Z=C:\Windows\System32\rtmpal.?createWithSize@SimpleBuffer@rtnet@@SA?AV?$IntrusivePtr@VSimpleBuffer@rtnet@@@auf@@_K@Z
  ?data@SimpleBuffer@rtnet@@QEAAPEAXXZ=C:\Windows\System32\rtmpal.?data@SimpleBuffer@rtnet@@QEAAPEAXXZ
  ?dataBarrier@spl@@YAXXZ=C:\Windows\System32\rtmpal.?dataBarrier@spl@@YAXXZ
  ?dec@RefCounter@auf@@QEAAKXZ=C:\Windows\System32\rtmpal.?dec@RefCounter@auf@@QEAAKXZ
  ?decodeToUtf16@spl@@YA?AV?$basic_string@_SU?$char_traits@_S@std@@V?$allocator@_S@2@@std@@PEBD_K@Z=C:\Windows\System32\rtmpal.?decodeToUtf16@spl@@YA?AV?$basic_string@_SU?$char_traits@_S@std@@V?$allocator@_S@2@@std@@PEBD_K@Z
  ?decodeUtf8@spl@@YA_KPEAX_KPEBD11@Z=C:\Windows\System32\rtmpal.?decodeUtf8@spl@@YA_KPEAX_KPEBD11@Z
  ?decryptWithTempKey@spl@@YA?AV?$vector@DU?$secure_allocator@D@internal@spl@@@std@@PEBD_K@Z=C:\Windows\System32\rtmpal.?decryptWithTempKey@spl@@YA?AV?$vector@DU?$secure_allocator@D@internal@spl@@@std@@PEBD_K@Z
  ?dequeue@LockfreeQueue@auf@@QEAAPEAXPEA_N@Z=C:\Windows\System32\rtmpal.?dequeue@LockfreeQueue@auf@@QEAAPEAXPEA_N@Z
  ?destroyCert@rtnet@@YAXPEAUX509Cert@1@@Z=C:\Windows\System32\rtmpal.?destroyCert@rtnet@@YAXPEAUX509Cert@1@@Z
  ?directoryCreateRecursive@spl@@YA?AW4FileError@1@AEBVPath@1@H@Z=C:\Windows\System32\rtmpal.?directoryCreateRecursive@spl@@YA?AW4FileError@1@AEBVPath@1@H@Z
  ?disconnect@StreamSocket@rtnet@@QEAAXXZ=C:\Windows\System32\rtmpal.?disconnect@StreamSocket@rtnet@@QEAAXXZ
  ?done@ThreadRef@auf@@QEBA_NXZ=C:\Windows\System32\rtmpal.?done@ThreadRef@auf@@QEBA_NXZ
  ?dtlsAccept@rtnet@@YAHPEAUTlsSession@1@PEAUTlsBuf@1@1PEAX@Z=C:\Windows\System32\rtmpal.?dtlsAccept@rtnet@@YAHPEAUTlsSession@1@PEAUTlsBuf@1@1PEAX@Z
  ?dtlsConnect@rtnet@@YAHPEAUTlsSession@1@PEAUTlsBuf@1@1@Z=C:\Windows\System32\rtmpal.?dtlsConnect@rtnet@@YAHPEAUTlsSession@1@PEAUTlsBuf@1@1@Z
  ?dtlsCreate@rtnet@@YAPEAUTlsSession@1@_NPEBUX509Cert@1@@Z=C:\Windows\System32\rtmpal.?dtlsCreate@rtnet@@YAPEAUTlsSession@1@_NPEBUX509Cert@1@@Z
  ?dtlsDestroy@rtnet@@YAXPEAUTlsSession@1@@Z=C:\Windows\System32\rtmpal.?dtlsDestroy@rtnet@@YAXPEAUTlsSession@1@@Z
  ?dtlsSrtpParametersFreeMkiBuffer@rtnet@@YAXPEAUDtlsSrtpParameters@1@@Z=C:\Windows\System32\rtmpal.?dtlsSrtpParametersFreeMkiBuffer@rtnet@@YAXPEAUDtlsSrtpParameters@1@@Z
  ?dtorCore@SocketConnectOptions@rtnet@@AEAAXXZ=C:\Windows\System32\rtmpal.?dtorCore@SocketConnectOptions@rtnet@@AEAAXXZ
  ?dtorCore@SocketOptions@rtnet@@AEAAXXZ=C:\Windows\System32\rtmpal.?dtorCore@SocketOptions@rtnet@@AEAAXXZ
  ?embedIPv4@IPv6@rtnet@@QEAA_NAEBVIPv4@2@_K@Z=C:\Windows\System32\rtmpal.?embedIPv4@IPv6@rtnet@@QEAA_NAEBVIPv4@2@_K@Z
  ?empty@LockfreeQueue@auf@@QEAA_NXZ=C:\Windows\System32\rtmpal.?empty@LockfreeQueue@auf@@QEAA_NXZ
  ?encode@BASE64@spl@@SAXPEADPEBX_K@Z=C:\Windows\System32\rtmpal.?encode@BASE64@spl@@SAXPEADPEBX_K@Z
  ?encodeUtf8@spl@@YA?AV?$basic_string@DU?$char_traits@D@std@@V?$allocator@D@2@@std@@PEBX_K1@Z=C:\Windows\System32\rtmpal.?encodeUtf8@spl@@YA?AV?$basic_string@DU?$char_traits@D@std@@V?$allocator@D@2@@std@@PEBX_K1@Z
  ?encodeUtf8@spl@@YA_KPEAD_KPEBX11@Z=C:\Windows\System32\rtmpal.?encodeUtf8@spl@@YA_KPEAD_KPEBX11@Z
  ?encodedLength@BASE64@spl@@SA_K_K@Z=C:\Windows\System32\rtmpal.?encodedLength@BASE64@spl@@SA_K_K@Z
  ?encryptWithTempKey@spl@@YA?AV?$vector@DU?$secure_allocator@D@internal@spl@@@std@@PEBX_K@Z=C:\Windows\System32\rtmpal.?encryptWithTempKey@spl@@YA?AV?$vector@DU?$secure_allocator@D@internal@spl@@@std@@PEBX_K@Z
  ?enqueue@LockfreeQueue@auf@@QEAA_NPEAX@Z=C:\Windows\System32\rtmpal.?enqueue@LockfreeQueue@auf@@QEAA_NPEAX@Z
  ?exchangeI@spl@@YAHPECHH@Z=C:\Windows\System32\rtmpal.?exchangeI@spl@@YAHPECHH@Z
  ?exchangeL@spl@@YAJPECJJ@Z=C:\Windows\System32\rtmpal.?exchangeL@spl@@YAJPECJJ@Z
  ?exchangePI@spl@@YA_JPEC_J_J@Z=C:\Windows\System32\rtmpal.?exchangePI@spl@@YA_JPEC_J_J@Z
  ?fileClose@spl@@YAXPEAX@Z=C:\Windows\System32\rtmpal.?fileClose@spl@@YAXPEAX@Z
  ?fileFlush@spl@@YA_NPEAX@Z=C:\Windows\System32\rtmpal.?fileFlush@spl@@YA_NPEAX@Z
  ?fileOpen@spl@@YAPEAXAEBVPath@1@W4FileSemantics@1@HAEAW4FileError@1@@Z=C:\Windows\System32\rtmpal.?fileOpen@spl@@YAPEAXAEBVPath@1@W4FileSemantics@1@HAEAW4FileError@1@@Z
  ?fileRead@spl@@YA_JPEAX0_K@Z=C:\Windows\System32\rtmpal.?fileRead@spl@@YA_JPEAX0_K@Z
  ?fileSeekNewReturned@spl@@YA_JPEAX_JW4SeekType@1@@Z=C:\Windows\System32\rtmpal.?fileSeekNewReturned@spl@@YA_JPEAX_JW4SeekType@1@@Z
  ?fileSize@spl@@YA_JPEAX@Z=C:\Windows\System32\rtmpal.?fileSize@spl@@YA_JPEAX@Z
  ?fileTell@spl@@YA_JPEAX@Z=C:\Windows\System32\rtmpal.?fileTell@spl@@YA_JPEAX@Z
  ?fileWrite@spl@@YA_JPEAXPEBX_K@Z=C:\Windows\System32\rtmpal.?fileWrite@spl@@YA_JPEAXPEBX_K@Z
  ?freeMem@LockfreePacker@auf@@SAXPEAX@Z=C:\Windows\System32\rtmpal.?freeMem@LockfreePacker@auf@@SAXPEAX@Z
  ?fromBytes@IPv4@rtnet@@QEAA_NPEBE@Z=C:\Windows\System32\rtmpal.?fromBytes@IPv4@rtnet@@QEAA_NPEBE@Z
  ?g_CPUTopology@spl@@3UCPUTopology@1@A=C:\Windows\System32\rtmpal.?g_CPUTopology@spl@@3UCPUTopology@1@A
  ?g_aufUp@auf@@3HA=C:\Windows\System32\rtmpal.?g_aufUp@auf@@3HA
  ?g_configGlobalLockfreeStackPoolSizeL2@auf@@3IA=C:\Windows\System32\rtmpal.?g_configGlobalLockfreeStackPoolSizeL2@auf@@3IA
  ?g_configMaxObjectWaitUs@auf@@3_KA=C:\Windows\System32\rtmpal.?g_configMaxObjectWaitUs@auf@@3_KA
  ?g_configTraceFifoSizeL2@auf@@3IA=C:\Windows\System32\rtmpal.?g_configTraceFifoSizeL2@auf@@3IA
  ?g_logObjectCountChanges@auf@@3DA=C:\Windows\System32\rtmpal.?g_logObjectCountChanges@auf@@3DA
  ?g_logObjectIds@auf@@3DA=C:\Windows\System32\rtmpal.?g_logObjectIds@auf@@3DA
  ?g_logObjectIds@internal@auf@@3DA=C:\Windows\System32\rtmpal.?g_logObjectIds@internal@auf@@3DA
  ?g_logObjectLeaks@auf@@3DA=C:\Windows\System32\rtmpal.?g_logObjectLeaks@auf@@3DA
  ?g_logObjectLeaks@internal@auf@@3DA=C:\Windows\System32\rtmpal.?g_logObjectLeaks@internal@auf@@3DA
  ?g_nextCallId@auf@@3IC=C:\Windows\System32\rtmpal.?g_nextCallId@auf@@3IC
  ?g_nextObjectId@auf@@3IC=C:\Windows\System32\rtmpal.?g_nextObjectId@auf@@3IC
  ?g_objectCheckDisabled@auf@@3DA=C:\Windows\System32\rtmpal.?g_objectCheckDisabled@auf@@3DA
  ?g_sysInfo@spl@@3USysinfo@1@A=C:\Windows\System32\rtmpal.?g_sysInfo@spl@@3USysinfo@1@A
  ?getCertHash@rtnet@@YA_NPEAUX509Cert@1@W4HashAlgorithm@spl@@PEAUCertHash@1@@Z=C:\Windows\System32\rtmpal.?getCertHash@rtnet@@YA_NPEAUX509Cert@1@W4HashAlgorithm@spl@@PEAUCertHash@1@@Z
  ?getDtlsSrtpParameters@rtnet@@YA_NPEAUTlsSession@1@PEAUDtlsSrtpParameters@1@@Z=C:\Windows\System32\rtmpal.?getDtlsSrtpParameters@rtnet@@YA_NPEAUTlsSession@1@PEAUDtlsSrtpParameters@1@@Z
  ?getImp@ThreadRef@auf@@AEBAPEAUSplOpaqueUpperLayerThread@@XZ=C:\Windows\System32\rtmpal.?getImp@ThreadRef@auf@@AEBAPEAUSplOpaqueUpperLayerThread@@XZ
  ?getNat64Prefixes@rtnet@@YA_NV?$duration@_JU?$ratio@$00$0PECEA@@std@@@chrono@std@@AEAV?$vector@V?$IntrusivePtr@VInterfaceAddress@rtnet@@@auf@@V?$allocator@V?$IntrusivePtr@VInterfaceAddress@rtnet@@@auf@@@std@@@4@@Z=C:\Windows\System32\rtmpal.?getNat64Prefixes@rtnet@@YA_NV?$duration@_JU?$ratio@$00$0PECEA@@std@@@chrono@std@@AEAV?$vector@V?$IntrusivePtr@VInterfaceAddress@rtnet@@@auf@@V?$allocator@V?$IntrusivePtr@VInterfaceAddress@rtnet@@@auf@@@std@@@4@@Z
  ?getSelfSignedCert@rtnet@@YAPEAUX509Cert@1@PEBUX509CertName@1@_J1W4HashAlgorithm@spl@@PEAX@Z=C:\Windows\System32\rtmpal.?getSelfSignedCert@rtnet@@YAPEAUX509Cert@1@PEBUX509CertName@1@_J1W4HashAlgorithm@spl@@PEAX@Z
  ?globalThreadPoolTransport2@auf@@YA?AV?$IntrusivePtr@VThreadPoolTransport@auf@@@1@W4ThreadPoolPriority@spl@@@Z=C:\Windows\System32\rtmpal.?globalThreadPoolTransport2@auf@@YA?AV?$IntrusivePtr@VThreadPoolTransport@auf@@@1@W4ThreadPoolPriority@spl@@@Z
  ?highPrecisionTimestamp@spl@@YA_KXZ=C:\Windows\System32\rtmpal.?highPrecisionTimestamp@spl@@YA_KXZ
  ?inc@RefCounter@auf@@QEAAKXZ=C:\Windows\System32\rtmpal.?inc@RefCounter@auf@@QEAAKXZ
  ?initInternal@auf@@YA_NPEAUAufInitTag@1@PEBDI_K@Z=C:\Windows\System32\rtmpal.?initInternal@auf@@YA_NPEAUAufInitTag@1@PEBDI_K@Z
  ?instantiateLogComponent@internal@auf@@YAPEAVLogComponent@2@PEBD@Z=C:\Windows\System32\rtmpal.?instantiateLogComponent@internal@auf@@YAPEAVLogComponent@2@PEBD@Z
  ?intrusive_ptr_add_ref@auf@@YAXPEBVIReferenceCountable@1@@Z=C:\Windows\System32\rtmpal.?intrusive_ptr_add_ref@auf@@YAXPEBVIReferenceCountable@1@@Z
  ?intrusive_ptr_release@auf@@YAXPEBVIReferenceCountable@1@@Z=C:\Windows\System32\rtmpal.?intrusive_ptr_release@auf@@YAXPEBVIReferenceCountable@1@@Z
  ?io@StreamSocket@rtnet@@QEAA?AV?$IntrusivePtr@VISocketIO@rtnet@@@auf@@XZ=C:\Windows\System32\rtmpal.?io@StreamSocket@rtnet@@QEAA?AV?$IntrusivePtr@VISocketIO@rtnet@@@auf@@XZ
  ?isGood@Event@auf@@QEBA_NXZ=C:\Windows\System32\rtmpal.?isGood@Event@auf@@QEBA_NXZ
  ?isGood@LockfreeQueue@auf@@QEBA_NXZ=C:\Windows\System32\rtmpal.?isGood@LockfreeQueue@auf@@QEBA_NXZ
  ?isGood@LockfreeStackPool@auf@@QEBA_NXZ=C:\Windows\System32\rtmpal.?isGood@LockfreeStackPool@auf@@QEBA_NXZ
  ?isGood@MutexCore@internal@auf@@QEBA_NXZ=C:\Windows\System32\rtmpal.?isGood@MutexCore@internal@auf@@QEBA_NXZ
  ?isGood@ThreadRef@auf@@QEBA_NXZ=C:\Windows\System32\rtmpal.?isGood@ThreadRef@auf@@QEBA_NXZ
  ?localAddress@StreamSocket@rtnet@@QEAA?AV?$IntrusivePtr@VAddress@rtnet@@@auf@@XZ=C:\Windows\System32\rtmpal.?localAddress@StreamSocket@rtnet@@QEAA?AV?$IntrusivePtr@VAddress@rtnet@@@auf@@XZ
  ?localTime@spl@@YAHAEBUHidingSystemTime@1@PEAUtm@@@Z=C:\Windows\System32\rtmpal.?localTime@spl@@YAHAEBUHidingSystemTime@1@PEAUtm@@@Z
  ?localTimestamp@spl@@YA?AUHidingSystemTime@1@XZ=C:\Windows\System32\rtmpal.?localTimestamp@spl@@YA?AUHidingSystemTime@1@XZ
  ?lock@MutexCore@internal@auf@@QEAAXXZ=C:\Windows\System32\rtmpal.?lock@MutexCore@internal@auf@@QEAAXXZ
  ?lockedByCurrentThread@MutexCore@internal@auf@@QEBA_NXZ=C:\Windows\System32\rtmpal.?lockedByCurrentThread@MutexCore@internal@auf@@QEBA_NXZ
  ?lockfreeStackPoolDeallocate@auf@@YAXPEAX@Z=C:\Windows\System32\rtmpal.?lockfreeStackPoolDeallocate@auf@@YAXPEAX@Z
  ?log@LogComponent@auf@@QEAAXPEBXIIAEBVLogArgs@2@@Z=C:\Windows\System32\rtmpal.?log@LogComponent@auf@@QEAAXPEBXIIAEBVLogArgs@2@@Z
  ?log@LogComponent@auf@@QEAAXPEBXIIPEBDAEBVLogArgs@2@@Z=C:\Windows\System32\rtmpal.?log@LogComponent@auf@@QEAAXPEBXIIPEBDAEBVLogArgs@2@@Z
  ?logBackTraceInfo@spl@@YAXXZ=C:\Windows\System32\rtmpal.?logBackTraceInfo@spl@@YAXXZ
  ?logFlush@auf@@YAXXZ=C:\Windows\System32\rtmpal.?logFlush@auf@@YAXXZ
  ?logvln@auf@@YAX_NPEBDPEAD@Z=C:\Windows\System32\rtmpal.?logvln@auf@@YAX_NPEBDPEAD@Z
  ?make@ProxyInfo@rtnet@@SA?AV?$IntrusivePtr@VProxyInfo@rtnet@@@auf@@W4ProxyProtocol@2@PEBDI11@Z=C:\Windows\System32\rtmpal.?make@ProxyInfo@rtnet@@SA?AV?$IntrusivePtr@VProxyInfo@rtnet@@@auf@@W4ProxyProtocol@2@PEBDI11@Z
  ?memFree@spl@@YAXPEAX@Z=C:\Windows\System32\rtmpal.?memFree@spl@@YAXPEAX@Z
  ?memMalloc@spl@@YAPEAX_K@Z=C:\Windows\System32\rtmpal.?memMalloc@spl@@YAPEAX_K@Z
  ?memcpy_s@spl@@YAHPEAX_KPEBX1@Z=C:\Windows\System32\rtmpal.?memcpy_s@spl@@YAHPEAX_KPEBX1@Z
  ?memmove_s@spl@@YAHPEAX_KPEBX1@Z=C:\Windows\System32\rtmpal.?memmove_s@spl@@YAHPEAX_KPEBX1@Z
  ?memset_s@spl@@YAHPECX_KH1@Z=C:\Windows\System32\rtmpal.?memset_s@spl@@YAHPECX_KH1@Z
  ?msFromHp@spl@@YA_K_J@Z=C:\Windows\System32\rtmpal.?msFromHp@spl@@YA_K_J@Z
  ?options@StreamSocket@rtnet@@QEBA?AV?$IntrusivePtr@VStreamSocketOptions@rtnet@@@auf@@XZ=C:\Windows\System32\rtmpal.?options@StreamSocket@rtnet@@QEBA?AV?$IntrusivePtr@VStreamSocketOptions@rtnet@@@auf@@XZ
  ?pathAppendComponent@spl@@YA_NAEAVPath@1@PEBD1@Z=C:\Windows\System32\rtmpal.?pathAppendComponent@spl@@YA_NAEAVPath@1@PEBD1@Z
  ?pathFromFilename@spl@@YA_NAEAVPath@1@PEBD@Z=C:\Windows\System32\rtmpal.?pathFromFilename@spl@@YA_NAEAVPath@1@PEBD@Z
  ?pathInitFromLocation@spl@@YA?AW4FileError@1@AEAVPath@1@AEBUPathLocation@1@@Z=C:\Windows\System32\rtmpal.?pathInitFromLocation@spl@@YA?AW4FileError@1@AEAVPath@1@AEBUPathLocation@1@@Z
  ?pathStringValue@spl@@YAPEBDAEBVPath@1@@Z=C:\Windows\System32\rtmpal.?pathStringValue@spl@@YAPEBDAEBVPath@1@@Z
  ?peerAddress@StreamSocket@rtnet@@QEAA?AV?$IntrusivePtr@VAddress@rtnet@@@auf@@XZ=C:\Windows\System32\rtmpal.?peerAddress@StreamSocket@rtnet@@QEAA?AV?$IntrusivePtr@VAddress@rtnet@@@auf@@XZ
  ?port@Address@rtnet@@QEBAHXZ=C:\Windows\System32\rtmpal.?port@Address@rtnet@@QEBAHXZ
  ?post@Event@auf@@QEAAXXZ=C:\Windows\System32\rtmpal.?post@Event@auf@@QEAAXXZ
  ?prefixLength@InterfaceAddress@rtnet@@QEBA_KXZ=C:\Windows\System32\rtmpal.?prefixLength@InterfaceAddress@rtnet@@QEBA_KXZ
  ?raise@Flag@auf@@QEAA_NXZ=C:\Windows\System32\rtmpal.?raise@Flag@auf@@QEAA_NXZ
  ?randomBytes@auf@@YA_NPEAX_K@Z=C:\Windows\System32\rtmpal.?randomBytes@auf@@YA_NPEAX_K@Z
  ?randomUInt@XorshiftRNG@auf@@QEAAIXZ=C:\Windows\System32\rtmpal.?randomUInt@XorshiftRNG@auf@@QEAAIXZ
  ?release@Flag@auf@@QEAAXXZ=C:\Windows\System32\rtmpal.?release@Flag@auf@@QEAAXXZ
  ?setDone@ThreadRef@auf@@QEAAX_N@Z=C:\Windows\System32\rtmpal.?setDone@ThreadRef@auf@@QEAAX_N@Z
  ?setLogComponentDescription@internal@auf@@YAPEBDPEBD0@Z=C:\Windows\System32\rtmpal.?setLogComponentDescription@internal@auf@@YAPEBDPEBD0@Z
  ?setLogComponentSafe@internal@auf@@YA_NPEBD_N@Z=C:\Windows\System32\rtmpal.?setLogComponentSafe@internal@auf@@YA_NPEBD_N@Z
  ?setNoDelayEnabled@StreamSocketOptions@rtnet@@QEAAX_N@Z=C:\Windows\System32\rtmpal.?setNoDelayEnabled@StreamSocketOptions@rtnet@@QEAAX_N@Z
  ?setOptions@StreamSocket@rtnet@@QEAA_NAEBV?$IntrusivePtr@VStreamSocketOptions@rtnet@@@auf@@@Z=C:\Windows\System32\rtmpal.?setOptions@StreamSocket@rtnet@@QEAA_NAEBV?$IntrusivePtr@VStreamSocketOptions@rtnet@@@auf@@@Z
  ?setPortSpecification@SocketConnectOptions@rtnet@@QEAAXAEBV?$shared_ptr@VPortSpecification@rtnet@@@std@@@Z=C:\Windows\System32\rtmpal.?setPortSpecification@SocketConnectOptions@rtnet@@QEAAXAEBV?$shared_ptr@VPortSpecification@rtnet@@@std@@@Z
  ?setProxy@SocketConnectOptions@rtnet@@QEAAXW4ProxyPolicy@2@AEBV?$IntrusivePtr@VProxyInfo@rtnet@@@auf@@@Z=C:\Windows\System32\rtmpal.?setProxy@SocketConnectOptions@rtnet@@QEAAXW4ProxyPolicy@2@AEBV?$IntrusivePtr@VProxyInfo@rtnet@@@auf@@@Z
  ?setQualityOfServiceDSCP@SocketOptions@rtnet@@QEAAXI@Z=C:\Windows\System32\rtmpal.?setQualityOfServiceDSCP@SocketOptions@rtnet@@QEAAXI@Z
  ?setTlsCertificateVerification@SocketOptions@rtnet@@QEAAX_N@Z=C:\Windows\System32\rtmpal.?setTlsCertificateVerification@SocketOptions@rtnet@@QEAAX_N@Z
  ?size@SimpleBuffer@rtnet@@QEBA_KXZ=C:\Windows\System32\rtmpal.?size@SimpleBuffer@rtnet@@QEBA_KXZ
  ?sleep@spl@@YAX_K@Z=C:\Windows\System32\rtmpal.?sleep@spl@@YAX_K@Z
  ?snprintf_s@spl@@YAHPEAD_KPEBDZZ=C:\Windows\System32\rtmpal.?snprintf_s@spl@@YAHPEAD_KPEBDZZ
  ?startImp@auf@@YAXPEAUSplOpaqueUpperLayerThread@@PEAUVarBase@spl@@@Z=C:\Windows\System32\rtmpal.?startImp@auf@@YAXPEAUSplOpaqueUpperLayerThread@@PEAUVarBase@spl@@@Z
  ?startTlsAsync@StreamSocket@rtnet@@QEAAXPEBDPEAUAsyncTag@auf@@@Z=C:\Windows\System32\rtmpal.?startTlsAsync@StreamSocket@rtnet@@QEAAXPEBDPEAUAsyncTag@auf@@@Z
  ?stop@ThreadRef@auf@@QEAA_NV?$duration@_JU?$ratio@$00$0PECEA@@std@@@chrono@std@@PEA_J@Z=C:\Windows\System32\rtmpal.?stop@ThreadRef@auf@@QEAA_NV?$duration@_JU?$ratio@$00$0PECEA@@std@@@chrono@std@@PEA_J@Z
  ?stopInternal@auf@@YAXPEAUAufInitTag@1@PEBD@Z=C:\Windows\System32\rtmpal.?stopInternal@auf@@YAXPEAUAufInitTag@1@PEBD@Z
  ?strandId@ThreadPoolTransport@auf@@QEBA_KXZ=C:\Windows\System32\rtmpal.?strandId@ThreadPoolTransport@auf@@QEBA_KXZ
  ?strcat_s@spl@@YAHPEAD_KPEBD@Z=C:\Windows\System32\rtmpal.?strcat_s@spl@@YAHPEAD_KPEBD@Z
  ?strcpy_s@spl@@YAHPEAD_KPEBD@Z=C:\Windows\System32\rtmpal.?strcpy_s@spl@@YAHPEAD_KPEBD@Z
  ?strlcpy@spl@@YA_KPEADPEBD_K@Z=C:\Windows\System32\rtmpal.?strlcpy@spl@@YA_KPEADPEBD_K@Z
  ?strnlen_s@spl@@YA_KPEBD_K@Z=C:\Windows\System32\rtmpal.?strnlen_s@spl@@YA_KPEBD_K@Z
  ?symbolFromAddress@priv@spl@@YA_NPEBXPEAD_K@Z=C:\Windows\System32\rtmpal.?symbolFromAddress@priv@spl@@YA_NPEBXPEAD_K@Z
  ?sysInfoCPUInfo@spl@@YAXIAEAUCPUInfo@1@@Z=C:\Windows\System32\rtmpal.?sysInfoCPUInfo@spl@@YAXIAEAUCPUInfo@1@@Z
  ?thread@pal@msrtc@@YA?AV0std@@$$QEAV?$function@$$A6AXXZ@3@@Z=C:\Windows\System32\rtmpal.?thread@pal@msrtc@@YA?AV0std@@$$QEAV?$function@$$A6AXXZ@3@@Z
  ?tlsBufAlloc@rtnet@@YA_NPEAUTlsBuf@1@K@Z=C:\Windows\System32\rtmpal.?tlsBufAlloc@rtnet@@YA_NPEAUTlsBuf@1@K@Z
  ?tlsBufFree@rtnet@@YAXPEAUTlsBuf@1@@Z=C:\Windows\System32\rtmpal.?tlsBufFree@rtnet@@YAXPEAUTlsBuf@1@@Z
  ?tlsBufInit@rtnet@@YAXPEAUTlsBuf@1@@Z=C:\Windows\System32\rtmpal.?tlsBufInit@rtnet@@YAXPEAUTlsBuf@1@@Z
  ?tlsGetPeerCert@rtnet@@YAPEAUX509Cert@1@PEAUTlsSession@1@@Z=C:\Windows\System32\rtmpal.?tlsGetPeerCert@rtnet@@YAPEAUX509Cert@1@PEAUTlsSession@1@@Z
  ?unlock@MutexCore@internal@auf@@QEAAXXZ=C:\Windows\System32\rtmpal.?unlock@MutexCore@internal@auf@@QEAAXXZ
  ?utcHpTimestamp@spl@@YA_KXZ=C:\Windows\System32\rtmpal.?utcHpTimestamp@spl@@YA_KXZ
  ?utcTimestamp@spl@@YA_JXZ=C:\Windows\System32\rtmpal.?utcTimestamp@spl@@YA_JXZ
  ?vsnprintf_s@spl@@YAHPEAD_KPEBD0@Z=C:\Windows\System32\rtmpal.?vsnprintf_s@spl@@YAHPEAD_KPEBD0@Z
  ?wait@Event@auf@@QEAA_NV?$duration@_JU?$ratio@$00$0PECEA@@std@@@chrono@std@@@Z=C:\Windows\System32\rtmpal.?wait@Event@auf@@QEAA_NV?$duration@_JU?$ratio@$00$0PECEA@@std@@@chrono@std@@@Z
  ?wait@Event@auf@@QEAA_N_K@Z=C:\Windows\System32\rtmpal.?wait@Event@auf@@QEAA_N_K@Z
  ?wait@Flag@auf@@QEAA_NV?$duration@_JU?$ratio@$00$0PECEA@@std@@@chrono@std@@@Z=C:\Windows\System32\rtmpal.?wait@Flag@auf@@QEAA_NV?$duration@_JU?$ratio@$00$0PECEA@@std@@@chrono@std@@@Z
  ?weak_intrusive_ptr_add_ref@auf@@YAXPEAVWeakAuxiliary@1@@Z=C:\Windows\System32\rtmpal.?weak_intrusive_ptr_add_ref@auf@@YAXPEAVWeakAuxiliary@1@@Z
  ?weak_intrusive_ptr_create@auf@@YAPEAVWeakAuxiliary@1@PEBVIReferenceCountable@1@@Z=C:\Windows\System32\rtmpal.?weak_intrusive_ptr_create@auf@@YAPEAVWeakAuxiliary@1@PEBVIReferenceCountable@1@@Z
  ?weak_intrusive_ptr_release@auf@@YAXPEAVWeakAuxiliary@1@@Z=C:\Windows\System32\rtmpal.?weak_intrusive_ptr_release@auf@@YAXPEAVWeakAuxiliary@1@@Z
  ?x509NameDestroy@rtnet@@YAXPEAUX509CertName@1@@Z=C:\Windows\System32\rtmpal.?x509NameDestroy@rtnet@@YAXPEAUX509CertName@1@@Z
  ?x509NameEncode@rtnet@@YAPEAUX509CertName@1@PEBD@Z=C:\Windows\System32\rtmpal.?x509NameEncode@rtnet@@YAPEAUX509CertName@1@PEBD@Z
  AcquireCredentialsHandleW=C:\Windows\System32\rtmpal.AcquireCredentialsHandleW
  AcquireSRWLockExclusive=C:\Windows\System32\rtmpal.AcquireSRWLockExclusive
  CreateFileA=C:\Windows\System32\rtmpal.CreateFileA
  CreateFileW=C:\Windows\System32\rtmpal.CreateFileW
  DecodePointer=C:\Windows\System32\rtmpal.DecodePointer
  DeleteSecurityContext=C:\Windows\System32\rtmpal.DeleteSecurityContext
  DisableThreadLibraryCalls=C:\Windows\System32\rtmpal.DisableThreadLibraryCalls
  EnableTrace=C:\Windows\System32\rtmpal.EnableTrace
  EncodePointer=C:\Windows\System32\rtmpal.EncodePointer
  EnumerateSecurityPackagesW=C:\Windows\System32\rtmpal.EnumerateSecurityPackagesW
  EventRegister=C:\Windows\System32\rtmpal.EventRegister
  EventUnregister=C:\Windows\System32\rtmpal.EventUnregister
  EventWrite=C:\Windows\System32\rtmpal.EventWrite
  FreeAddrInfoW=C:\Windows\System32\rtmpal.FreeAddrInfoW
  FreeContextBuffer=C:\Windows\System32\rtmpal.FreeContextBuffer
  FreeCredentialsHandle=C:\Windows\System32\rtmpal.FreeCredentialsHandle
  GetAddrInfoW=C:\Windows\System32\rtmpal.GetAddrInfoW
  GetLastError=C:\Windows\System32\rtmpal.GetLastError
  GetSystemInfo=C:\Windows\System32\rtmpal.GetSystemInfo
  GetTempPathW=C:\Windows\System32\rtmpal.GetTempPathW
  GetTraceEnableFlags=C:\Windows\System32\rtmpal.GetTraceEnableFlags
  GetTraceEnableLevel=C:\Windows\System32\rtmpal.GetTraceEnableLevel
  GetTraceLoggerHandle=C:\Windows\System32\rtmpal.GetTraceLoggerHandle
  GetVersionExW=C:\Windows\System32\rtmpal.GetVersionExW
  InitializeSListHead=C:\Windows\System32\rtmpal.InitializeSListHead
  InitializeSecurityContextW=C:\Windows\System32\rtmpal.InitializeSecurityContextW
  InterlockedPopEntrySList=C:\Windows\System32\rtmpal.InterlockedPopEntrySList
  InterlockedPushEntrySList=C:\Windows\System32\rtmpal.InterlockedPushEntrySList
  IsDebuggerPresent=C:\Windows\System32\rtmpal.IsDebuggerPresent
  MultiByteToWideChar=C:\Windows\System32\rtmpal.MultiByteToWideChar
  OutputDebugStringA=C:\Windows\System32\rtmpal.OutputDebugStringA
  OutputDebugStringW=C:\Windows\System32\rtmpal.OutputDebugStringW
  QueryPerformanceCounter=C:\Windows\System32\rtmpal.QueryPerformanceCounter
  QueryPerformanceFrequency=C:\Windows\System32\rtmpal.QueryPerformanceFrequency
  RaiseException=C:\Windows\System32\rtmpal.RaiseException
  RegCloseKey=C:\Windows\System32\rtmpal.RegCloseKey
  RegCreateKeyExA=C:\Windows\System32\rtmpal.RegCreateKeyExA
  RegCreateKeyExW=C:\Windows\System32\rtmpal.RegCreateKeyExW
  RegDeleteKeyW=C:\Windows\System32\rtmpal.RegDeleteKeyW
  RegEnumKeyExW=C:\Windows\System32\rtmpal.RegEnumKeyExW
  RegOpenKeyExA=C:\Windows\System32\rtmpal.RegOpenKeyExA
  RegOpenKeyExW=C:\Windows\System32\rtmpal.RegOpenKeyExW
  RegQueryValueExA=C:\Windows\System32\rtmpal.RegQueryValueExA
  RegQueryValueExW=C:\Windows\System32\rtmpal.RegQueryValueExW
  RegSetValueExA=C:\Windows\System32\rtmpal.RegSetValueExA
  RegSetValueExW=C:\Windows\System32\rtmpal.RegSetValueExW
  RegisterTraceGuidsW=C:\Windows\System32\rtmpal.RegisterTraceGuidsW
  ReleaseSRWLockExclusive=C:\Windows\System32\rtmpal.ReleaseSRWLockExclusive
  RtcPalAccept=C:\Windows\System32\rtmpal.RtcPalAccept
  RtcPalAcquireSlimLock=C:\Windows\System32\rtmpal.RtcPalAcquireSlimLock
  RtcPalAesEncrypt=C:\Windows\System32\rtmpal.RtcPalAesEncrypt
  RtcPalAllocAlignedMemoryWithTag=C:\Windows\System32\rtmpal.RtcPalAllocAlignedMemoryWithTag
  RtcPalAllocMemoryWithTag=C:\Windows\System32\rtmpal.RtcPalAllocMemoryWithTag
  RtcPalAllocateWorkItem=C:\Windows\System32\rtmpal.RtcPalAllocateWorkItem
  RtcPalBaseCleanup=C:\Windows\System32\rtmpal.RtcPalBaseCleanup
  RtcPalBaseStartup=C:\Windows\System32\rtmpal.RtcPalBaseStartup
  RtcPalBind=C:\Windows\System32\rtmpal.RtcPalBind
  RtcPalCleanup=C:\Windows\System32\rtmpal.RtcPalCleanup
  RtcPalClearAssertRecords=C:\Windows\System32\rtmpal.RtcPalClearAssertRecords
  RtcPalCloseSocket=C:\Windows\System32\rtmpal.RtcPalCloseSocket
  RtcPalCloseSocketIOCP=C:\Windows\System32\rtmpal.RtcPalCloseSocketIOCP
  RtcPalCloseWaitableHandle=C:\Windows\System32\rtmpal.RtcPalCloseWaitableHandle
  RtcPalCoWaitForAnyObject=C:\Windows\System32\rtmpal.RtcPalCoWaitForAnyObject
  RtcPalConnect=C:\Windows\System32\rtmpal.RtcPalConnect
  RtcPalConnectToHostname=C:\Windows\System32\rtmpal.RtcPalConnectToHostname
  RtcPalCreateCallContext=C:\Windows\System32\rtmpal.RtcPalCreateCallContext
  RtcPalCreateEvent=C:\Windows\System32\rtmpal.RtcPalCreateEvent
  RtcPalCreateSemaphore=C:\Windows\System32\rtmpal.RtcPalCreateSemaphore
  RtcPalCreateSocket=C:\Windows\System32\rtmpal.RtcPalCreateSocket
  RtcPalCreateSocketIOCP=C:\Windows\System32\rtmpal.RtcPalCreateSocketIOCP
  RtcPalCreateThread=C:\Windows\System32\rtmpal.RtcPalCreateThread
  RtcPalCryptCleanup=C:\Windows\System32\rtmpal.RtcPalCryptCleanup
  RtcPalCryptGenRandom=C:\Windows\System32\rtmpal.RtcPalCryptGenRandom
  RtcPalCryptHMACSHA1Create=C:\Windows\System32\rtmpal.RtcPalCryptHMACSHA1Create
  RtcPalCryptHMACSHA1CreateKey=C:\Windows\System32\rtmpal.RtcPalCryptHMACSHA1CreateKey
  RtcPalCryptHMACSHA1Destroy=C:\Windows\System32\rtmpal.RtcPalCryptHMACSHA1Destroy
  RtcPalCryptHMACSHA1DestroyKey=C:\Windows\System32\rtmpal.RtcPalCryptHMACSHA1DestroyKey
  RtcPalCryptHMACSHA1DupeContext=C:\Windows\System32\rtmpal.RtcPalCryptHMACSHA1DupeContext
  RtcPalCryptHMACSHA1Final=C:\Windows\System32\rtmpal.RtcPalCryptHMACSHA1Final
  RtcPalCryptHMACSHA1Update=C:\Windows\System32\rtmpal.RtcPalCryptHMACSHA1Update
  RtcPalCryptHMACSHA256Create=C:\Windows\System32\rtmpal.RtcPalCryptHMACSHA256Create
  RtcPalCryptHMACSHA256CreateKey=C:\Windows\System32\rtmpal.RtcPalCryptHMACSHA256CreateKey
  RtcPalCryptHMACSHA256Destroy=C:\Windows\System32\rtmpal.RtcPalCryptHMACSHA256Destroy
  RtcPalCryptHMACSHA256DestroyKey=C:\Windows\System32\rtmpal.RtcPalCryptHMACSHA256DestroyKey
  RtcPalCryptHMACSHA256DupeContext=C:\Windows\System32\rtmpal.RtcPalCryptHMACSHA256DupeContext
  RtcPalCryptHMACSHA256Final=C:\Windows\System32\rtmpal.RtcPalCryptHMACSHA256Final
  RtcPalCryptHMACSHA256Update=C:\Windows\System32\rtmpal.RtcPalCryptHMACSHA256Update
  RtcPalCryptMD5Create=C:\Windows\System32\rtmpal.RtcPalCryptMD5Create
  RtcPalCryptMD5Destroy=C:\Windows\System32\rtmpal.RtcPalCryptMD5Destroy
  RtcPalCryptMD5Final=C:\Windows\System32\rtmpal.RtcPalCryptMD5Final
  RtcPalCryptMD5Update=C:\Windows\System32\rtmpal.RtcPalCryptMD5Update
  RtcPalCryptStartup=C:\Windows\System32\rtmpal.RtcPalCryptStartup
  RtcPalDeinitTracing=C:\Windows\System32\rtmpal.RtcPalDeinitTracing
  RtcPalDeleteSlimLock=C:\Windows\System32\rtmpal.RtcPalDeleteSlimLock
  RtcPalDestroyAesKey=C:\Windows\System32\rtmpal.RtcPalDestroyAesKey
  RtcPalDeviceAudioGetGlitchInfo=C:\Windows\System32\rtmpal.RtcPalDeviceAudioGetGlitchInfo
  RtcPalDeviceAudioGetMetrics=C:\Windows\System32\rtmpal.RtcPalDeviceAudioGetMetrics
  RtcPalDeviceAudioGetProcessingFeatures=C:\Windows\System32\rtmpal.RtcPalDeviceAudioGetProcessingFeatures
  RtcPalDeviceAudioGetQueuedBytes=C:\Windows\System32\rtmpal.RtcPalDeviceAudioGetQueuedBytes
  RtcPalDeviceAudioGetSupportedProcessingCapacity=C:\Windows\System32\rtmpal.RtcPalDeviceAudioGetSupportedProcessingCapacity
  RtcPalDeviceAudioLockBuffer=C:\Windows\System32\rtmpal.RtcPalDeviceAudioLockBuffer
  RtcPalDeviceAudioReset=C:\Windows\System32\rtmpal.RtcPalDeviceAudioReset
  RtcPalDeviceAudioSetActiveEndpoint=C:\Windows\System32\rtmpal.RtcPalDeviceAudioSetActiveEndpoint
  RtcPalDeviceAudioSetProcessingFeatures=C:\Windows\System32\rtmpal.RtcPalDeviceAudioSetProcessingFeatures
  RtcPalDeviceAudioStart=C:\Windows\System32\rtmpal.RtcPalDeviceAudioStart
  RtcPalDeviceAudioStop=C:\Windows\System32\rtmpal.RtcPalDeviceAudioStop
  RtcPalDeviceAudioUnlockBuffer=C:\Windows\System32\rtmpal.RtcPalDeviceAudioUnlockBuffer
  RtcPalDeviceErrorCodeFromHResult=C:\Windows\System32\rtmpal.RtcPalDeviceErrorCodeFromHResult
  RtcPalDeviceIsErrorCodeRecoverable=C:\Windows\System32\rtmpal.RtcPalDeviceIsErrorCodeRecoverable
  RtcPalDevicePlatformClose=C:\Windows\System32\rtmpal.RtcPalDevicePlatformClose
  RtcPalDevicePlatformCloseDevice=C:\Windows\System32\rtmpal.RtcPalDevicePlatformCloseDevice
  RtcPalDevicePlatformCloseHIDContext=C:\Windows\System32\rtmpal.RtcPalDevicePlatformCloseHIDContext
  RtcPalDevicePlatformCompareDeviceId=C:\Windows\System32\rtmpal.RtcPalDevicePlatformCompareDeviceId
  RtcPalDevicePlatformCreateDeviceId=C:\Windows\System32\rtmpal.RtcPalDevicePlatformCreateDeviceId
  RtcPalDevicePlatformDeviceRegisterNotification=C:\Windows\System32\rtmpal.RtcPalDevicePlatformDeviceRegisterNotification
  RtcPalDevicePlatformDisposeDeviceId=C:\Windows\System32\rtmpal.RtcPalDevicePlatformDisposeDeviceId
  RtcPalDevicePlatformDuplicateDeviceId=C:\Windows\System32\rtmpal.RtcPalDevicePlatformDuplicateDeviceId
  RtcPalDevicePlatformEnableAudio=C:\Windows\System32\rtmpal.RtcPalDevicePlatformEnableAudio
  RtcPalDevicePlatformEnumDevices=C:\Windows\System32\rtmpal.RtcPalDevicePlatformEnumDevices
  RtcPalDevicePlatformGetAudioCertifiedListId=C:\Windows\System32\rtmpal.RtcPalDevicePlatformGetAudioCertifiedListId
  RtcPalDevicePlatformGetAutoBoostControlEnabled=C:\Windows\System32\rtmpal.RtcPalDevicePlatformGetAutoBoostControlEnabled
  RtcPalDevicePlatformGetDeviceList=C:\Windows\System32\rtmpal.RtcPalDevicePlatformGetDeviceList
  RtcPalDevicePlatformGetHIDInformation=C:\Windows\System32\rtmpal.RtcPalDevicePlatformGetHIDInformation
  RtcPalDevicePlatformGetMediaExtension=C:\Windows\System32\rtmpal.RtcPalDevicePlatformGetMediaExtension
  RtcPalDevicePlatformGetVolumeInfo=C:\Windows\System32\rtmpal.RtcPalDevicePlatformGetVolumeInfo
  RtcPalDevicePlatformGetVolumeInfoByDeviceHandle=C:\Windows\System32\rtmpal.RtcPalDevicePlatformGetVolumeInfoByDeviceHandle
  RtcPalDevicePlatformIsSamePhysicalDevice=C:\Windows\System32\rtmpal.RtcPalDevicePlatformIsSamePhysicalDevice
  RtcPalDevicePlatformOpen=C:\Windows\System32\rtmpal.RtcPalDevicePlatformOpen
  RtcPalDevicePlatformOpenAudioDevice=C:\Windows\System32\rtmpal.RtcPalDevicePlatformOpenAudioDevice
  RtcPalDevicePlatformOpenAudioLoopbackDevice=C:\Windows\System32\rtmpal.RtcPalDevicePlatformOpenAudioLoopbackDevice
  RtcPalDevicePlatformOpenHIDContext=C:\Windows\System32\rtmpal.RtcPalDevicePlatformOpenHIDContext
  RtcPalDevicePlatformRegisterNotification=C:\Windows\System32\rtmpal.RtcPalDevicePlatformRegisterNotification
  RtcPalDevicePlatformSetAutoBoostControlEnabled=C:\Windows\System32\rtmpal.RtcPalDevicePlatformSetAutoBoostControlEnabled
  RtcPalDevicePlatformSetHIDInformation=C:\Windows\System32\rtmpal.RtcPalDevicePlatformSetHIDInformation
  RtcPalDevicePlatformSetState=C:\Windows\System32\rtmpal.RtcPalDevicePlatformSetState
  RtcPalDevicePlatformSetVolumeInfo=C:\Windows\System32\rtmpal.RtcPalDevicePlatformSetVolumeInfo
  RtcPalDevicePlatformUnregisterNotification=C:\Windows\System32\rtmpal.RtcPalDevicePlatformUnregisterNotification
  RtcPalEnableCallContextTracingControl=C:\Windows\System32\rtmpal.RtcPalEnableCallContextTracingControl
  RtcPalEnableEtwTracing=C:\Windows\System32\rtmpal.RtcPalEnableEtwTracing
  RtcPalEnableRDTSCTime=C:\Windows\System32\rtmpal.RtcPalEnableRDTSCTime
  RtcPalEnableTracing=C:\Windows\System32\rtmpal.RtcPalEnableTracing
  RtcPalFlushTracing=C:\Windows\System32\rtmpal.RtcPalFlushTracing
  RtcPalFreeIfAddrs=C:\Windows\System32\rtmpal.RtcPalFreeIfAddrs
  RtcPalFreeMemoryWithTag=C:\Windows\System32\rtmpal.RtcPalFreeMemoryWithTag
  RtcPalFreeWorkItem=C:\Windows\System32\rtmpal.RtcPalFreeWorkItem
  RtcPalGetADSPConfig=C:\Windows\System32\rtmpal.RtcPalGetADSPConfig
  RtcPalGetADSPLogFolder=C:\Windows\System32\rtmpal.RtcPalGetADSPLogFolder
  RtcPalGetAllEcsSettings=C:\Windows\System32\rtmpal.RtcPalGetAllEcsSettings
  RtcPalGetAssertRecords=C:\Windows\System32\rtmpal.RtcPalGetAssertRecords
  RtcPalGetBestSourceAddress=C:\Windows\System32\rtmpal.RtcPalGetBestSourceAddress
  RtcPalGetComputerNameW=C:\Windows\System32\rtmpal.RtcPalGetComputerNameW
  RtcPalGetDataConvSignature=C:\Windows\System32\rtmpal.RtcPalGetDataConvSignature
  RtcPalGetEcsSetting=C:\Windows\System32\rtmpal.RtcPalGetEcsSetting
  RtcPalGetExitCodeThread=C:\Windows\System32\rtmpal.RtcPalGetExitCodeThread
  RtcPalGetFipsComplianceMode=C:\Windows\System32\rtmpal.RtcPalGetFipsComplianceMode
  RtcPalGetHostCName=C:\Windows\System32\rtmpal.RtcPalGetHostCName
  RtcPalGetIfAddrs=C:\Windows\System32\rtmpal.RtcPalGetIfAddrs
  RtcPalGetLastError=C:\Windows\System32\rtmpal.RtcPalGetLastError
  RtcPalGetLocalStateFolderW=C:\Windows\System32\rtmpal.RtcPalGetLocalStateFolderW
  RtcPalGetMachineInfo=C:\Windows\System32\rtmpal.RtcPalGetMachineInfo
  RtcPalGetOSName=C:\Windows\System32\rtmpal.RtcPalGetOSName
  RtcPalGetPeerName=C:\Windows\System32\rtmpal.RtcPalGetPeerName
  RtcPalGetPlatformProfile=C:\Windows\System32\rtmpal.RtcPalGetPlatformProfile
  RtcPalGetPrivateMemoryUsageInMB=C:\Windows\System32\rtmpal.RtcPalGetPrivateMemoryUsageInMB
  RtcPalGetSockName=C:\Windows\System32\rtmpal.RtcPalGetSockName
  RtcPalGetSocketIOCPQueuedCompletionStatus=C:\Windows\System32\rtmpal.RtcPalGetSocketIOCPQueuedCompletionStatus
  RtcPalGetSystemConfigurationInfo=C:\Windows\System32\rtmpal.RtcPalGetSystemConfigurationInfo
  RtcPalGetSystemMetricsTemplate=C:\Windows\System32\rtmpal.RtcPalGetSystemMetricsTemplate
  RtcPalGetTimeDouble=C:\Windows\System32\rtmpal.RtcPalGetTimeDouble
  RtcPalGetTimeLongIn100ns=C:\Windows\System32\rtmpal.RtcPalGetTimeLongIn100ns
  RtcPalGetTimeLongIn100nsFast=C:\Windows\System32\rtmpal.RtcPalGetTimeLongIn100nsFast
  RtcPalGetTracingPath=C:\Windows\System32\rtmpal.RtcPalGetTracingPath
  RtcPalGetUserName=C:\Windows\System32\rtmpal.RtcPalGetUserName
  RtcPalGetWinSATVideoEncodeScore=C:\Windows\System32\rtmpal.RtcPalGetWinSATVideoEncodeScore
  RtcPalInitCollectSystemMetrics=C:\Windows\System32\rtmpal.RtcPalInitCollectSystemMetrics
  RtcPalInitThreadAttr=C:\Windows\System32\rtmpal.RtcPalInitThreadAttr
  RtcPalInitTracing=C:\Windows\System32\rtmpal.RtcPalInitTracing
  RtcPalInitializeCriticalSection=C:\Windows\System32\rtmpal.RtcPalInitializeCriticalSection
  RtcPalInitializeCriticalSectionAndSpinCount=C:\Windows\System32\rtmpal.RtcPalInitializeCriticalSectionAndSpinCount
  RtcPalInitializeSlimLock=C:\Windows\System32\rtmpal.RtcPalInitializeSlimLock
  RtcPalIsAssertTraceEnabled=C:\Windows\System32\rtmpal.RtcPalIsAssertTraceEnabled
  RtcPalIsAutomaticProxyTraversalSupported=C:\Windows\System32\rtmpal.RtcPalIsAutomaticProxyTraversalSupported
  RtcPalIsCallContextTracingControlEnabled=C:\Windows\System32\rtmpal.RtcPalIsCallContextTracingControlEnabled
  RtcPalIsEtwTracingEnabled=C:\Windows\System32\rtmpal.RtcPalIsEtwTracingEnabled
  RtcPalIsLaptop=C:\Windows\System32\rtmpal.RtcPalIsLaptop
  RtcPalIsTracingEnabled=C:\Windows\System32\rtmpal.RtcPalIsTracingEnabled
  RtcPalListen=C:\Windows\System32\rtmpal.RtcPalListen
  RtcPalLoadLibrary=C:\Windows\System32\rtmpal.RtcPalLoadLibrary
  RtcPalLoadSystem32Library=C:\Windows\System32\rtmpal.RtcPalLoadSystem32Library
  RtcPalMFHasDXGI=C:\Windows\System32\rtmpal.RtcPalMFHasDXGI
  RtcPalMFHasSourceReader=C:\Windows\System32\rtmpal.RtcPalMFHasSourceReader
  RtcPalNetAddressToStringA=C:\Windows\System32\rtmpal.RtcPalNetAddressToStringA
  RtcPalNetAddressToStringW=C:\Windows\System32\rtmpal.RtcPalNetAddressToStringW
  RtcPalNetCleanup=C:\Windows\System32\rtmpal.RtcPalNetCleanup
  RtcPalNetStartup=C:\Windows\System32\rtmpal.RtcPalNetStartup
  RtcPalNetStringToIPAddressA=C:\Windows\System32\rtmpal.RtcPalNetStringToIPAddressA
  RtcPalNetStringToIPAddressW=C:\Windows\System32\rtmpal.RtcPalNetStringToIPAddressW
  RtcPalNetStringToIPv4AddressA=C:\Windows\System32\rtmpal.RtcPalNetStringToIPv4AddressA
  RtcPalNetStringToIPv4AddressW=C:\Windows\System32\rtmpal.RtcPalNetStringToIPv4AddressW
  RtcPalNetStringToIPv6AddressA=C:\Windows\System32\rtmpal.RtcPalNetStringToIPv6AddressA
  RtcPalNetStringToIPv6AddressW=C:\Windows\System32\rtmpal.RtcPalNetStringToIPv6AddressW
  RtcPalPerfCounterToNanoseconds=C:\Windows\System32\rtmpal.RtcPalPerfCounterToNanoseconds
  RtcPalPerfCounterToSeconds=C:\Windows\System32\rtmpal.RtcPalPerfCounterToSeconds
  RtcPalPopulateNetworkInterfaceIdForTraceLoggingEvent=C:\Windows\System32\rtmpal.RtcPalPopulateNetworkInterfaceIdForTraceLoggingEvent
  RtcPalPostSocketIOCPQueuedCompletionStatus=C:\Windows\System32\rtmpal.RtcPalPostSocketIOCPQueuedCompletionStatus
  RtcPalQueryPerformanceCounter=C:\Windows\System32\rtmpal.RtcPalQueryPerformanceCounter
  RtcPalQueueWorkItem=C:\Windows\System32\rtmpal.RtcPalQueueWorkItem
  RtcPalRecv=C:\Windows\System32\rtmpal.RtcPalRecv
  RtcPalRecvFrom=C:\Windows\System32\rtmpal.RtcPalRecvFrom
  RtcPalRefreshMemoryTrackerCallStack=C:\Windows\System32\rtmpal.RtcPalRefreshMemoryTrackerCallStack
  RtcPalRegCloseKey=C:\Windows\System32\rtmpal.RtcPalRegCloseKey
  RtcPalRegCreateKeyExA=C:\Windows\System32\rtmpal.RtcPalRegCreateKeyExA
  RtcPalRegCreateKeyExW=C:\Windows\System32\rtmpal.RtcPalRegCreateKeyExW
  RtcPalRegDeleteKeyW=C:\Windows\System32\rtmpal.RtcPalRegDeleteKeyW
  RtcPalRegOpenKeyExA=C:\Windows\System32\rtmpal.RtcPalRegOpenKeyExA
  RtcPalRegOpenKeyExW=C:\Windows\System32\rtmpal.RtcPalRegOpenKeyExW
  RtcPalRegQueryValueExA=C:\Windows\System32\rtmpal.RtcPalRegQueryValueExA
  RtcPalRegQueryValueExW=C:\Windows\System32\rtmpal.RtcPalRegQueryValueExW
  RtcPalRegSetValueExA=C:\Windows\System32\rtmpal.RtcPalRegSetValueExA
  RtcPalRegSetValueExW=C:\Windows\System32\rtmpal.RtcPalRegSetValueExW
  RtcPalRegisterSocket=C:\Windows\System32\rtmpal.RtcPalRegisterSocket
  RtcPalRegisterTraceGuids=C:\Windows\System32\rtmpal.RtcPalRegisterTraceGuids
  RtcPalReleaseSemaphore=C:\Windows\System32\rtmpal.RtcPalReleaseSemaphore
  RtcPalReleaseSlimLock=C:\Windows\System32\rtmpal.RtcPalReleaseSlimLock
  RtcPalReportAssert=C:\Windows\System32\rtmpal.RtcPalReportAssert
  RtcPalResetAllEcsSettings=C:\Windows\System32\rtmpal.RtcPalResetAllEcsSettings
  RtcPalResetEvent=C:\Windows\System32\rtmpal.RtcPalResetEvent
  RtcPalSecureZeroMemory=C:\Windows\System32\rtmpal.RtcPalSecureZeroMemory
  RtcPalSend=C:\Windows\System32\rtmpal.RtcPalSend
  RtcPalSendTo=C:\Windows\System32\rtmpal.RtcPalSendTo
  RtcPalSetAesKey=C:\Windows\System32\rtmpal.RtcPalSetAesKey
  RtcPalSetEcsSetting=C:\Windows\System32\rtmpal.RtcPalSetEcsSetting
  RtcPalSetEcsSettingById=C:\Windows\System32\rtmpal.RtcPalSetEcsSettingById
  RtcPalSetEvent=C:\Windows\System32\rtmpal.RtcPalSetEvent
  RtcPalSetLastError=C:\Windows\System32\rtmpal.RtcPalSetLastError
  RtcPalSetLogPath=C:\Windows\System32\rtmpal.RtcPalSetLogPath
  RtcPalSetPlatformProfile=C:\Windows\System32\rtmpal.RtcPalSetPlatformProfile
  RtcPalSetSchedulerPolicy=C:\Windows\System32\rtmpal.RtcPalSetSchedulerPolicy
  RtcPalSocketEnableLowLatency=C:\Windows\System32\rtmpal.RtcPalSocketEnableLowLatency
  RtcPalSocketSetBroadcast=C:\Windows\System32\rtmpal.RtcPalSocketSetBroadcast
  RtcPalSocketSetLinger=C:\Windows\System32\rtmpal.RtcPalSocketSetLinger
  RtcPalSocketSetNonBlockingMode=C:\Windows\System32\rtmpal.RtcPalSocketSetNonBlockingMode
  RtcPalSocketSetQoSDSCP=C:\Windows\System32\rtmpal.RtcPalSocketSetQoSDSCP
  RtcPalSocketSetRecvBufSize=C:\Windows\System32\rtmpal.RtcPalSocketSetRecvBufSize
  RtcPalSocketSetSendBufSize=C:\Windows\System32\rtmpal.RtcPalSocketSetSendBufSize
  RtcPalSocketSetTcpNoDelay=C:\Windows\System32\rtmpal.RtcPalSocketSetTcpNoDelay
  RtcPalStartCollectSystemMetrics=C:\Windows\System32\rtmpal.RtcPalStartCollectSystemMetrics
  RtcPalStartup=C:\Windows\System32\rtmpal.RtcPalStartup
  RtcPalStopCollectSystemMetrics=C:\Windows\System32\rtmpal.RtcPalStopCollectSystemMetrics
  RtcPalTaskQueueCreate=C:\Windows\System32\rtmpal.RtcPalTaskQueueCreate
  RtcPalTaskQueueDequeue=C:\Windows\System32\rtmpal.RtcPalTaskQueueDequeue
  RtcPalTaskQueueDestroy=C:\Windows\System32\rtmpal.RtcPalTaskQueueDestroy
  RtcPalTaskQueueEnqueue=C:\Windows\System32\rtmpal.RtcPalTaskQueueEnqueue
  RtcPalTraceCondIfTrue=C:\Windows\System32\rtmpal.RtcPalTraceCondIfTrue
  RtcPalTraceLoggingWrite=C:\Windows\System32\rtmpal.RtcPalTraceLoggingWrite
  RtcPalTraceRt=C:\Windows\System32\rtmpal.RtcPalTraceRt
  RtcPalTryAcquireSlimLock=C:\Windows\System32\rtmpal.RtcPalTryAcquireSlimLock
  RtcPalUninitCollectSystemMetrics=C:\Windows\System32\rtmpal.RtcPalUninitCollectSystemMetrics
  RtcPalWaitAndCancelPendingCallback=C:\Windows\System32\rtmpal.RtcPalWaitAndCancelPendingCallback
  RtcPalWaitForAllThreads=C:\Windows\System32\rtmpal.RtcPalWaitForAllThreads
  RtcPalWaitForAnyObject=C:\Windows\System32\rtmpal.RtcPalWaitForAnyObject
  RtcPalWaitForSingleObject=C:\Windows\System32\rtmpal.RtcPalWaitForSingleObject
  RtcPalWlanEnterMediaStreamingMode=C:\Windows\System32\rtmpal.RtcPalWlanEnterMediaStreamingMode
  RtcPalWlanLeaveMediaStreamingMode=C:\Windows\System32\rtmpal.RtcPalWlanLeaveMediaStreamingMode
  SetLastError=C:\Windows\System32\rtmpal.SetLastError
  TraceMessage=C:\Windows\System32\rtmpal.TraceMessage
  UnregisterTraceGuids=C:\Windows\System32\rtmpal.UnregisterTraceGuids
  WideCharToMultiByte=C:\Windows\System32\rtmpal.WideCharToMultiByte
  __imp_?PL_TEMP_DIR@spl@@3UPathLocation@1@A=C:\Windows\System32\rtmpal.__imp_?PL_TEMP_DIR@spl@@3UPathLocation@1@A
  aufLogHookInstall=C:\Windows\System32\rtmpal.aufLogHookInstall
  aufLogHookRemove=C:\Windows\System32\rtmpal.aufLogHookRemove
  auf_internal_log=C:\Windows\System32\rtmpal.auf_internal_log
  auf_internal_log_obfuscated=C:\Windows\System32\rtmpal.auf_internal_log_obfuscated
  auf_logcomponent_isenabled=C:\Windows\System32\rtmpal.auf_logcomponent_isenabled
  g_aufLogChannel=C:\Windows\System32\rtmpal.g_aufLogChannel
  g_aufLogNumHooks=C:\Windows\System32\rtmpal.g_aufLogNumHooks
  lstrcmpW=C:\Windows\System32\rtmpal.lstrcmpW
  lstrcmpiW=C:\Windows\System32\rtmpal.lstrcmpiW
  lstrlenA=C:\Windows\System32\rtmpal.lstrlenA
  lstrlenW=C:\Windows\System32\rtmpal.lstrlenW
  rtcpal_freeaddrinfo=C:\Windows\System32\rtmpal.rtcpal_freeaddrinfo
  rtcpal_getaddrinfo=C:\Windows\System32\rtmpal.rtcpal_getaddrinfo
  rtcpal_inet_addr=C:\Windows\System32\rtmpal.rtcpal_inet_addr
  rtcpal_inet_ntoa=C:\Windows\System32\rtmpal.rtcpal_inet_ntoa
  rtcpal_recv=C:\Windows\System32\rtmpal.rtcpal_recv
  rtcpal_recvfrom=C:\Windows\System32\rtmpal.rtcpal_recvfrom
  rtcpal_send=C:\Windows\System32\rtmpal.rtcpal_send
  rtcpal_sendto=C:\Windows\System32\rtmpal.rtcpal_sendto
  spl_pii_OmitS=C:\Windows\System32\rtmpal.spl_pii_OmitS
  spl_pii_OmitW=C:\Windows\System32\rtmpal.spl_pii_OmitW
  spl_pii_UserIdW=C:\Windows\System32\rtmpal.spl_pii_UserIdW
  threadCurrentId=C:\Windows\System32\rtmpal.threadCurrentId
  threadYield=C:\Windows\System32\rtmpal.threadYield
