EXPORTS
  ??0?$CSimpleArray@PEAGV?$CSimpleArrayEqualHelper@PEAG@ATL@@@ATL@@QEAA@AEBV01@@Z=C:\Windows\System32\spwizeng.??0?$CSimpleArray@PEAGV?$CSimpleArrayEqualHelper@PEAG@ATL@@@ATL@@QEAA@AEBV01@@Z
  ??0?$CSimpleArray@PEAGV?$CSimpleArrayEqualHelper@PEAG@ATL@@@ATL@@QEAA@XZ=C:\Windows\System32\spwizeng.??0?$CSimpleArray@PEAGV?$CSimpleArrayEqualHelper@PEAG@ATL@@@ATL@@QEAA@XZ
  ??0?$CSimpleArray@PEAUIResourceModuleEvent@@V?$CSimpleArrayEqualHelper@PEAUIResourceModuleEvent@@@ATL@@@ATL@@QEAA@AEBV01@@Z=C:\Windows\System32\spwizeng.??0?$CSimpleArray@PEAUIResourceModuleEvent@@V?$CSimpleArrayEqualHelper@PEAUIResourceModuleEvent@@@ATL@@@ATL@@QEAA@AEBV01@@Z
  ??0?$CSimpleArray@PEAUIResourceModuleEvent@@V?$CSimpleArrayEqualHelper@PEAUIResourceModuleEvent@@@ATL@@@ATL@@QEAA@XZ=C:\Windows\System32\spwizeng.??0?$CSimpleArray@PEAUIResourceModuleEvent@@V?$CSimpleArrayEqualHelper@PEAUIResourceModuleEvent@@@ATL@@@ATL@@QEAA@XZ
  ??0?$CSimpleArray@PEAUKEYBOARD@@V?$CSimpleArrayEqualHelper@PEAUKEYBOARD@@@ATL@@@ATL@@QEAA@AEBV01@@Z=C:\Windows\System32\spwizeng.??0?$CSimpleArray@PEAUKEYBOARD@@V?$CSimpleArrayEqualHelper@PEAUKEYBOARD@@@ATL@@@ATL@@QEAA@AEBV01@@Z
  ??0?$CSimpleArray@PEAUKEYBOARD@@V?$CSimpleArrayEqualHelper@PEAUKEYBOARD@@@ATL@@@ATL@@QEAA@XZ=C:\Windows\System32\spwizeng.??0?$CSimpleArray@PEAUKEYBOARD@@V?$CSimpleArrayEqualHelper@PEAUKEYBOARD@@@ATL@@@ATL@@QEAA@XZ
  ??0?$CSimpleArray@PEAULANGUAGE@@V?$CSimpleArrayEqualHelper@PEAULANGUAGE@@@ATL@@@ATL@@QEAA@AEBV01@@Z=C:\Windows\System32\spwizeng.??0?$CSimpleArray@PEAULANGUAGE@@V?$CSimpleArrayEqualHelper@PEAULANGUAGE@@@ATL@@@ATL@@QEAA@AEBV01@@Z
  ??0?$CSimpleArray@PEAULANGUAGE@@V?$CSimpleArrayEqualHelper@PEAULANGUAGE@@@ATL@@@ATL@@QEAA@XZ=C:\Windows\System32\spwizeng.??0?$CSimpleArray@PEAULANGUAGE@@V?$CSimpleArrayEqualHelper@PEAULANGUAGE@@@ATL@@@ATL@@QEAA@XZ
  ??0?$CSimpleArray@PEAULOCALE@@V?$CSimpleArrayEqualHelper@PEAULOCALE@@@ATL@@@ATL@@QEAA@AEBV01@@Z=C:\Windows\System32\spwizeng.??0?$CSimpleArray@PEAULOCALE@@V?$CSimpleArrayEqualHelper@PEAULOCALE@@@ATL@@@ATL@@QEAA@AEBV01@@Z
  ??0?$CSimpleArray@PEAULOCALE@@V?$CSimpleArrayEqualHelper@PEAULOCALE@@@ATL@@@ATL@@QEAA@XZ=C:\Windows\System32\spwizeng.??0?$CSimpleArray@PEAULOCALE@@V?$CSimpleArrayEqualHelper@PEAULOCALE@@@ATL@@@ATL@@QEAA@XZ
  ??0?$CSimpleStringT@G$0A@@ATL@@QEAA@AEBV01@@Z=C:\Windows\System32\spwizeng.??0?$CSimpleStringT@G$0A@@ATL@@QEAA@AEBV01@@Z
  ??0?$CSimpleStringT@G$0A@@ATL@@QEAA@AEBV?$CSimpleStringT@G$00@1@@Z=C:\Windows\System32\spwizeng.??0?$CSimpleStringT@G$0A@@ATL@@QEAA@AEBV?$CSimpleStringT@G$00@1@@Z
  ??0?$CSimpleStringT@G$0A@@ATL@@QEAA@PEAUIAtlStringMgr@1@@Z=C:\Windows\System32\spwizeng.??0?$CSimpleStringT@G$0A@@ATL@@QEAA@PEAUIAtlStringMgr@1@@Z
  ??0?$CSimpleStringT@G$0A@@ATL@@QEAA@PEBGHPEAUIAtlStringMgr@1@@Z=C:\Windows\System32\spwizeng.??0?$CSimpleStringT@G$0A@@ATL@@QEAA@PEBGHPEAUIAtlStringMgr@1@@Z
  ??0?$CSimpleStringT@G$0A@@ATL@@QEAA@PEBGPEAUIAtlStringMgr@1@@Z=C:\Windows\System32\spwizeng.??0?$CSimpleStringT@G$0A@@ATL@@QEAA@PEBGPEAUIAtlStringMgr@1@@Z
  ??0?$CStringT@GV?$StrTraitATL@GV?$ChTraitsCRT@G@ATL@@@ATL@@@ATL@@QEAA@AEBUtagVARIANT@@@Z=C:\Windows\System32\spwizeng.??0?$CStringT@GV?$StrTraitATL@GV?$ChTraitsCRT@G@ATL@@@ATL@@@ATL@@QEAA@AEBUtagVARIANT@@@Z
  ??0?$CStringT@GV?$StrTraitATL@GV?$ChTraitsCRT@G@ATL@@@ATL@@@ATL@@QEAA@AEBUtagVARIANT@@PEAUIAtlStringMgr@1@@Z=C:\Windows\System32\spwizeng.??0?$CStringT@GV?$StrTraitATL@GV?$ChTraitsCRT@G@ATL@@@ATL@@@ATL@@QEAA@AEBUtagVARIANT@@PEAUIAtlStringMgr@1@@Z
  ??0?$CStringT@GV?$StrTraitATL@GV?$ChTraitsCRT@G@ATL@@@ATL@@@ATL@@QEAA@AEBV01@@Z=C:\Windows\System32\spwizeng.??0?$CStringT@GV?$StrTraitATL@GV?$ChTraitsCRT@G@ATL@@@ATL@@@ATL@@QEAA@AEBV01@@Z
  ??0?$CStringT@GV?$StrTraitATL@GV?$ChTraitsCRT@G@ATL@@@ATL@@@ATL@@QEAA@DH@Z=C:\Windows\System32\spwizeng.??0?$CStringT@GV?$StrTraitATL@GV?$ChTraitsCRT@G@ATL@@@ATL@@@ATL@@QEAA@DH@Z
  ??0?$CStringT@GV?$StrTraitATL@GV?$ChTraitsCRT@G@ATL@@@ATL@@@ATL@@QEAA@GH@Z=C:\Windows\System32\spwizeng.??0?$CStringT@GV?$StrTraitATL@GV?$ChTraitsCRT@G@ATL@@@ATL@@@ATL@@QEAA@GH@Z
  ??0?$CStringT@GV?$StrTraitATL@GV?$ChTraitsCRT@G@ATL@@@ATL@@@ATL@@QEAA@PEAUIAtlStringMgr@1@@Z=C:\Windows\System32\spwizeng.??0?$CStringT@GV?$StrTraitATL@GV?$ChTraitsCRT@G@ATL@@@ATL@@@ATL@@QEAA@PEAUIAtlStringMgr@1@@Z
  ??0?$CStringT@GV?$StrTraitATL@GV?$ChTraitsCRT@G@ATL@@@ATL@@@ATL@@QEAA@PEBD@Z=C:\Windows\System32\spwizeng.??0?$CStringT@GV?$StrTraitATL@GV?$ChTraitsCRT@G@ATL@@@ATL@@@ATL@@QEAA@PEBD@Z
  ??0?$CStringT@GV?$StrTraitATL@GV?$ChTraitsCRT@G@ATL@@@ATL@@@ATL@@QEAA@PEBDH@Z=C:\Windows\System32\spwizeng.??0?$CStringT@GV?$StrTraitATL@GV?$ChTraitsCRT@G@ATL@@@ATL@@@ATL@@QEAA@PEBDH@Z
  ??0?$CStringT@GV?$StrTraitATL@GV?$ChTraitsCRT@G@ATL@@@ATL@@@ATL@@QEAA@PEBDHPEAUIAtlStringMgr@1@@Z=C:\Windows\System32\spwizeng.??0?$CStringT@GV?$StrTraitATL@GV?$ChTraitsCRT@G@ATL@@@ATL@@@ATL@@QEAA@PEBDHPEAUIAtlStringMgr@1@@Z
  ??0?$CStringT@GV?$StrTraitATL@GV?$ChTraitsCRT@G@ATL@@@ATL@@@ATL@@QEAA@PEBDPEAUIAtlStringMgr@1@@Z=C:\Windows\System32\spwizeng.??0?$CStringT@GV?$StrTraitATL@GV?$ChTraitsCRT@G@ATL@@@ATL@@@ATL@@QEAA@PEBDPEAUIAtlStringMgr@1@@Z
  ??0?$CStringT@GV?$StrTraitATL@GV?$ChTraitsCRT@G@ATL@@@ATL@@@ATL@@QEAA@PEBE@Z=C:\Windows\System32\spwizeng.??0?$CStringT@GV?$StrTraitATL@GV?$ChTraitsCRT@G@ATL@@@ATL@@@ATL@@QEAA@PEBE@Z
  ??0?$CStringT@GV?$StrTraitATL@GV?$ChTraitsCRT@G@ATL@@@ATL@@@ATL@@QEAA@PEBEPEAUIAtlStringMgr@1@@Z=C:\Windows\System32\spwizeng.??0?$CStringT@GV?$StrTraitATL@GV?$ChTraitsCRT@G@ATL@@@ATL@@@ATL@@QEAA@PEBEPEAUIAtlStringMgr@1@@Z
  ??0?$CStringT@GV?$StrTraitATL@GV?$ChTraitsCRT@G@ATL@@@ATL@@@ATL@@QEAA@PEBG@Z=C:\Windows\System32\spwizeng.??0?$CStringT@GV?$StrTraitATL@GV?$ChTraitsCRT@G@ATL@@@ATL@@@ATL@@QEAA@PEBG@Z
  ??0?$CStringT@GV?$StrTraitATL@GV?$ChTraitsCRT@G@ATL@@@ATL@@@ATL@@QEAA@PEBGH@Z=C:\Windows\System32\spwizeng.??0?$CStringT@GV?$StrTraitATL@GV?$ChTraitsCRT@G@ATL@@@ATL@@@ATL@@QEAA@PEBGH@Z
  ??0?$CStringT@GV?$StrTraitATL@GV?$ChTraitsCRT@G@ATL@@@ATL@@@ATL@@QEAA@PEBGHPEAUIAtlStringMgr@1@@Z=C:\Windows\System32\spwizeng.??0?$CStringT@GV?$StrTraitATL@GV?$ChTraitsCRT@G@ATL@@@ATL@@@ATL@@QEAA@PEBGHPEAUIAtlStringMgr@1@@Z
  ??0?$CStringT@GV?$StrTraitATL@GV?$ChTraitsCRT@G@ATL@@@ATL@@@ATL@@QEAA@PEBGPEAUIAtlStringMgr@1@@Z=C:\Windows\System32\spwizeng.??0?$CStringT@GV?$StrTraitATL@GV?$ChTraitsCRT@G@ATL@@@ATL@@@ATL@@QEAA@PEBGPEAUIAtlStringMgr@1@@Z
  ??0?$CStringT@GV?$StrTraitATL@GV?$ChTraitsCRT@G@ATL@@@ATL@@@ATL@@QEAA@XZ=C:\Windows\System32\spwizeng.??0?$CStringT@GV?$StrTraitATL@GV?$ChTraitsCRT@G@ATL@@@ATL@@@ATL@@QEAA@XZ
  ??0AppWindow@@QEAA@AEBV0@@Z=C:\Windows\System32\spwizeng.??0AppWindow@@QEAA@AEBV0@@Z
  ??0AppWindow@@QEAA@PEAVWizardUI@@I@Z=C:\Windows\System32\spwizeng.??0AppWindow@@QEAA@PEAVWizardUI@@I@Z
  ??0BranchWizStrategy@@QEAA@$$QEAV0@@Z=C:\Windows\System32\spwizeng.??0BranchWizStrategy@@QEAA@$$QEAV0@@Z
  ??0BranchWizStrategy@@QEAA@AEBV0@@Z=C:\Windows\System32\spwizeng.??0BranchWizStrategy@@QEAA@AEBV0@@Z
  ??0BranchWizStrategy@@QEAA@PEAVWizardEx@@@Z=C:\Windows\System32\spwizeng.??0BranchWizStrategy@@QEAA@PEAVWizardEx@@@Z
  ??0CAnimation@@QEAA@AEBV0@@Z=C:\Windows\System32\spwizeng.??0CAnimation@@QEAA@AEBV0@@Z
  ??0CAnimation@@QEAA@XZ=C:\Windows\System32\spwizeng.??0CAnimation@@QEAA@XZ
  ??0CAnimationControl@@QEAA@AEBV0@@Z=C:\Windows\System32\spwizeng.??0CAnimationControl@@QEAA@AEBV0@@Z
  ??0CAnimationControl@@QEAA@XZ=C:\Windows\System32\spwizeng.??0CAnimationControl@@QEAA@XZ
  ??0CAttachDataDlg@@QEAA@AEBV0@@Z=C:\Windows\System32\spwizeng.??0CAttachDataDlg@@QEAA@AEBV0@@Z
  ??0CAttachDataDlg@@QEAA@PEAUHINSTANCE__@@0@Z=C:\Windows\System32\spwizeng.??0CAttachDataDlg@@QEAA@PEAUHINSTANCE__@@0@Z
  ??0CCritSec@@QEAA@AEBV0@@Z=C:\Windows\System32\spwizeng.??0CCritSec@@QEAA@AEBV0@@Z
  ??0CCritSec@@QEAA@XZ=C:\Windows\System32\spwizeng.??0CCritSec@@QEAA@XZ
  ??0CCtlText@@QEAA@AEBV0@@Z=C:\Windows\System32\spwizeng.??0CCtlText@@QEAA@AEBV0@@Z
  ??0CCtlText@@QEAA@XZ=C:\Windows\System32\spwizeng.??0CCtlText@@QEAA@XZ
  ??0CCursor@@AEAA@XZ=C:\Windows\System32\spwizeng.??0CCursor@@AEAA@XZ
  ??0CCursor@@QEAA@AEBV0@@Z=C:\Windows\System32\spwizeng.??0CCursor@@QEAA@AEBV0@@Z
  ??0CCustomButtonEx@@AEAA@XZ=C:\Windows\System32\spwizeng.??0CCustomButtonEx@@AEAA@XZ
  ??0CCustomButtonEx@@QEAA@AEBV0@@Z=C:\Windows\System32\spwizeng.??0CCustomButtonEx@@QEAA@AEBV0@@Z
  ??0CCustomGraphicEx@@QEAA@AEBV0@@Z=C:\Windows\System32\spwizeng.??0CCustomGraphicEx@@QEAA@AEBV0@@Z
  ??0CCustomGraphicEx@@QEAA@XZ=C:\Windows\System32\spwizeng.??0CCustomGraphicEx@@QEAA@XZ
  ??0CDIB@@QEAA@XZ=C:\Windows\System32\spwizeng.??0CDIB@@QEAA@XZ
  ??0CDrawBackground@@QEAA@AEBV0@@Z=C:\Windows\System32\spwizeng.??0CDrawBackground@@QEAA@AEBV0@@Z
  ??0CDrawBackground@@QEAA@XZ=C:\Windows\System32\spwizeng.??0CDrawBackground@@QEAA@XZ
  ??0CDrawItem@@QEAA@AEBV0@@Z=C:\Windows\System32\spwizeng.??0CDrawItem@@QEAA@AEBV0@@Z
  ??0CDrawItem@@QEAA@XZ=C:\Windows\System32\spwizeng.??0CDrawItem@@QEAA@XZ
  ??0CDrawItemComposite@@QEAA@AEBV0@@Z=C:\Windows\System32\spwizeng.??0CDrawItemComposite@@QEAA@AEBV0@@Z
  ??0CDrawItemComposite@@QEAA@XZ=C:\Windows\System32\spwizeng.??0CDrawItemComposite@@QEAA@XZ
  ??0CGenericNavWindow@@QEAA@AEBV0@@Z=C:\Windows\System32\spwizeng.??0CGenericNavWindow@@QEAA@AEBV0@@Z
  ??0CGenericNavWindow@@QEAA@PEAVAppWindow@@@Z=C:\Windows\System32\spwizeng.??0CGenericNavWindow@@QEAA@PEAVAppWindow@@@Z
  ??0CHighContrast@@AEAA@XZ=C:\Windows\System32\spwizeng.??0CHighContrast@@AEAA@XZ
  ??0CHighContrast@@QEAA@AEBV0@@Z=C:\Windows\System32\spwizeng.??0CHighContrast@@QEAA@AEBV0@@Z
  ??0CResourceModule@@QEAA@AEBV0@@Z=C:\Windows\System32\spwizeng.??0CResourceModule@@QEAA@AEBV0@@Z
  ??0CResourceModule@@QEAA@PEAUHINSTANCE__@@@Z=C:\Windows\System32\spwizeng.??0CResourceModule@@QEAA@PEAUHINSTANCE__@@@Z
  ??0CResourceModule@@QEAA@PEAUHINSTANCE__@@PEBG@Z=C:\Windows\System32\spwizeng.??0CResourceModule@@QEAA@PEAUHINSTANCE__@@PEBG@Z
  ??0CResourceModule@@QEAA@PEBG@Z=C:\Windows\System32\spwizeng.??0CResourceModule@@QEAA@PEBG@Z
  ??0CRichEditControl@@QEAA@XZ=C:\Windows\System32\spwizeng.??0CRichEditControl@@QEAA@XZ
  ??0CScreenDIB@@QEAA@$$QEAV0@@Z=C:\Windows\System32\spwizeng.??0CScreenDIB@@QEAA@$$QEAV0@@Z
  ??0CScreenDIB@@QEAA@AEBV0@@Z=C:\Windows\System32\spwizeng.??0CScreenDIB@@QEAA@AEBV0@@Z
  ??0CScreenDIB@@QEAA@XZ=C:\Windows\System32\spwizeng.??0CScreenDIB@@QEAA@XZ
  ??0CScreenText@@QEAA@AEBV0@@Z=C:\Windows\System32\spwizeng.??0CScreenText@@QEAA@AEBV0@@Z
  ??0CScreenText@@QEAA@XZ=C:\Windows\System32\spwizeng.??0CScreenText@@QEAA@XZ
  ??0CWndObj@@QEAA@AEBV0@@Z=C:\Windows\System32\spwizeng.??0CWndObj@@QEAA@AEBV0@@Z
  ??0CWndObj@@QEAA@XZ=C:\Windows\System32\spwizeng.??0CWndObj@@QEAA@XZ
  ??0ChoiceWizStrategy@@QEAA@$$QEAV0@@Z=C:\Windows\System32\spwizeng.??0ChoiceWizStrategy@@QEAA@$$QEAV0@@Z
  ??0ChoiceWizStrategy@@QEAA@AEBV0@@Z=C:\Windows\System32\spwizeng.??0ChoiceWizStrategy@@QEAA@AEBV0@@Z
  ??0ChoiceWizStrategy@@QEAA@PEAVWizardEx@@@Z=C:\Windows\System32\spwizeng.??0ChoiceWizStrategy@@QEAA@PEAVWizardEx@@@Z
  ??0ICreateNavbarWnd@@QEAA@AEBV0@@Z=C:\Windows\System32\spwizeng.??0ICreateNavbarWnd@@QEAA@AEBV0@@Z
  ??0ICreateNavbarWnd@@QEAA@XZ=C:\Windows\System32\spwizeng.??0ICreateNavbarWnd@@QEAA@XZ
  ??0ICreateProgressWnd@@QEAA@AEBV0@@Z=C:\Windows\System32\spwizeng.??0ICreateProgressWnd@@QEAA@AEBV0@@Z
  ??0ICreateProgressWnd@@QEAA@XZ=C:\Windows\System32\spwizeng.??0ICreateProgressWnd@@QEAA@XZ
  ??0IResourceModuleEvent@@QEAA@$$QEAU0@@Z=C:\Windows\System32\spwizeng.??0IResourceModuleEvent@@QEAA@$$QEAU0@@Z
  ??0IResourceModuleEvent@@QEAA@AEBU0@@Z=C:\Windows\System32\spwizeng.??0IResourceModuleEvent@@QEAA@AEBU0@@Z
  ??0IResourceModuleEvent@@QEAA@XZ=C:\Windows\System32\spwizeng.??0IResourceModuleEvent@@QEAA@XZ
  ??0LanguageNeutralSelectionDialogBase@@QEAA@AEBV0@@Z=C:\Windows\System32\spwizeng.??0LanguageNeutralSelectionDialogBase@@QEAA@AEBV0@@Z
  ??0LanguageNeutralSelectionDialogBase@@QEAA@XZ=C:\Windows\System32\spwizeng.??0LanguageNeutralSelectionDialogBase@@QEAA@XZ
  ??0LanguageSelectionDialogBase@@QEAA@AEBV0@@Z=C:\Windows\System32\spwizeng.??0LanguageSelectionDialogBase@@QEAA@AEBV0@@Z
  ??0LanguageSelectionDialogBase@@QEAA@XZ=C:\Windows\System32\spwizeng.??0LanguageSelectionDialogBase@@QEAA@XZ
  ??0MyString@@QEAA@XZ=C:\Windows\System32\spwizeng.??0MyString@@QEAA@XZ
  ??0NavWindow@@QEAA@AEBV0@@Z=C:\Windows\System32\spwizeng.??0NavWindow@@QEAA@AEBV0@@Z
  ??0NavWindow@@QEAA@PEAVAppWindow@@@Z=C:\Windows\System32\spwizeng.??0NavWindow@@QEAA@PEAVAppWindow@@@Z
  ??0NavigationStack@@QEAA@AEBV0@@Z=C:\Windows\System32\spwizeng.??0NavigationStack@@QEAA@AEBV0@@Z
  ??0NavigationStack@@QEAA@XZ=C:\Windows\System32\spwizeng.??0NavigationStack@@QEAA@XZ
  ??0Navigator@@AEAA@XZ=C:\Windows\System32\spwizeng.??0Navigator@@AEAA@XZ
  ??0Navigator@@QEAA@AEBV0@@Z=C:\Windows\System32\spwizeng.??0Navigator@@QEAA@AEBV0@@Z
  ??0PIDStringView@@QEAA@AEBV0@@Z=C:\Windows\System32\spwizeng.??0PIDStringView@@QEAA@AEBV0@@Z
  ??0PIDStringView@@QEAA@XZ=C:\Windows\System32\spwizeng.??0PIDStringView@@QEAA@XZ
  ??0PageContainer@@QEAA@AEBV0@@Z=C:\Windows\System32\spwizeng.??0PageContainer@@QEAA@AEBV0@@Z
  ??0PageContainer@@QEAA@XZ=C:\Windows\System32\spwizeng.??0PageContainer@@QEAA@XZ
  ??0ProtoPageDimensions@@QEAA@USimpleRect@@USimpleSize@@HH11MM@Z=C:\Windows\System32\spwizeng.??0ProtoPageDimensions@@QEAA@USimpleRect@@USimpleSize@@HH11MM@Z
  ??0ProtoPageDimensions@@QEAA@XZ=C:\Windows\System32\spwizeng.??0ProtoPageDimensions@@QEAA@XZ
  ??0ProtoPageList@@QEAA@AEBV0@@Z=C:\Windows\System32\spwizeng.??0ProtoPageList@@QEAA@AEBV0@@Z
  ??0ProtoPageList@@QEAA@PEAVWizardDesciption@@KKKHPEAVICreateProgressWnd@@HPEAUtagSIZE@@PEAVICreateNavbarWnd@@UProtoPageDimensions@@KKH@Z=C:\Windows\System32\spwizeng.??0ProtoPageList@@QEAA@PEAVWizardDesciption@@KKKHPEAVICreateProgressWnd@@HPEAUtagSIZE@@PEAVICreateNavbarWnd@@UProtoPageDimensions@@KKH@Z
  ??0ProtoPageList@@QEAA@XZ=C:\Windows\System32\spwizeng.??0ProtoPageList@@QEAA@XZ
  ??0ScrWindow@@QEAA@AEBV0@@Z=C:\Windows\System32\spwizeng.??0ScrWindow@@QEAA@AEBV0@@Z
  ??0ScrWindow@@QEAA@PEAVWizardUI@@I@Z=C:\Windows\System32\spwizeng.??0ScrWindow@@QEAA@PEAVWizardUI@@I@Z
  ??0SimpleDialogBase@@QEAA@$$QEAV0@@Z=C:\Windows\System32\spwizeng.??0SimpleDialogBase@@QEAA@$$QEAV0@@Z
  ??0SimpleDialogBase@@QEAA@AEBV0@@Z=C:\Windows\System32\spwizeng.??0SimpleDialogBase@@QEAA@AEBV0@@Z
  ??0SimpleDialogBase@@QEAA@XZ=C:\Windows\System32\spwizeng.??0SimpleDialogBase@@QEAA@XZ
  ??0SimpleRect@@QEAA@HHHH@Z=C:\Windows\System32\spwizeng.??0SimpleRect@@QEAA@HHHH@Z
  ??0SimpleRect@@QEAA@XZ=C:\Windows\System32\spwizeng.??0SimpleRect@@QEAA@XZ
  ??0SimpleSize@@QEAA@HH@Z=C:\Windows\System32\spwizeng.??0SimpleSize@@QEAA@HH@Z
  ??0SimpleSize@@QEAA@XZ=C:\Windows\System32\spwizeng.??0SimpleSize@@QEAA@XZ
  ??0SimpleWizStrategy@@QEAA@$$QEAV0@@Z=C:\Windows\System32\spwizeng.??0SimpleWizStrategy@@QEAA@$$QEAV0@@Z
  ??0SimpleWizStrategy@@QEAA@AEBV0@@Z=C:\Windows\System32\spwizeng.??0SimpleWizStrategy@@QEAA@AEBV0@@Z
  ??0SimpleWizStrategy@@QEAA@PEAVWizardEx@@@Z=C:\Windows\System32\spwizeng.??0SimpleWizStrategy@@QEAA@PEAVWizardEx@@@Z
  ??0SummaryWizStrategy@@QEAA@$$QEAV0@@Z=C:\Windows\System32\spwizeng.??0SummaryWizStrategy@@QEAA@$$QEAV0@@Z
  ??0SummaryWizStrategy@@QEAA@AEBV0@@Z=C:\Windows\System32\spwizeng.??0SummaryWizStrategy@@QEAA@AEBV0@@Z
  ??0SummaryWizStrategy@@QEAA@PEAVWizardEx@@@Z=C:\Windows\System32\spwizeng.??0SummaryWizStrategy@@QEAA@PEAVWizardEx@@@Z
  ??0VariationWizStrategy@@QEAA@$$QEAV0@@Z=C:\Windows\System32\spwizeng.??0VariationWizStrategy@@QEAA@$$QEAV0@@Z
  ??0VariationWizStrategy@@QEAA@AEBV0@@Z=C:\Windows\System32\spwizeng.??0VariationWizStrategy@@QEAA@AEBV0@@Z
  ??0VariationWizStrategy@@QEAA@PEAVWizardEx@@AEBV?$CSimpleMap@HHV?$CSimpleMapEqualHelper@HH@ATL@@@ATL@@H@Z=C:\Windows\System32\spwizeng.??0VariationWizStrategy@@QEAA@PEAVWizardEx@@AEBV?$CSimpleMap@HHV?$CSimpleMapEqualHelper@HH@ATL@@@ATL@@H@Z
  ??0Win32Navigator@@AEAA@XZ=C:\Windows\System32\spwizeng.??0Win32Navigator@@AEAA@XZ
  ??0Win32Navigator@@QEAA@AEBV0@@Z=C:\Windows\System32\spwizeng.??0Win32Navigator@@QEAA@AEBV0@@Z
  ??0Wiz_Node@@QEAA@AEBV0@@Z=C:\Windows\System32\spwizeng.??0Wiz_Node@@QEAA@AEBV0@@Z
  ??0Wiz_Node@@QEAA@I@Z=C:\Windows\System32\spwizeng.??0Wiz_Node@@QEAA@I@Z
  ??0WizardBranch@@QEAA@$$QEAV0@@Z=C:\Windows\System32\spwizeng.??0WizardBranch@@QEAA@$$QEAV0@@Z
  ??0WizardBranch@@QEAA@AEBV0@@Z=C:\Windows\System32\spwizeng.??0WizardBranch@@QEAA@AEBV0@@Z
  ??0WizardBranch@@QEAA@IPEAPEAVWiz_Node@@@Z=C:\Windows\System32\spwizeng.??0WizardBranch@@QEAA@IPEAPEAVWiz_Node@@@Z
  ??0WizardCollection@@QEAA@$$QEAV0@@Z=C:\Windows\System32\spwizeng.??0WizardCollection@@QEAA@$$QEAV0@@Z
  ??0WizardCollection@@QEAA@AEBV0@@Z=C:\Windows\System32\spwizeng.??0WizardCollection@@QEAA@AEBV0@@Z
  ??0WizardCollection@@QEAA@IIPEAPEAVWiz_Node@@@Z=C:\Windows\System32\spwizeng.??0WizardCollection@@QEAA@IIPEAPEAVWiz_Node@@@Z
  ??0WizardDesciption@@QEAA@$$QEAV0@@Z=C:\Windows\System32\spwizeng.??0WizardDesciption@@QEAA@$$QEAV0@@Z
  ??0WizardDesciption@@QEAA@AEBV0@@Z=C:\Windows\System32\spwizeng.??0WizardDesciption@@QEAA@AEBV0@@Z
  ??0WizardDesciption@@QEAA@IPEAPEAVWiz_Node@@@Z=C:\Windows\System32\spwizeng.??0WizardDesciption@@QEAA@IPEAPEAVWiz_Node@@@Z
  ??0WizardDialogPost@@QEAA@$$QEAV0@@Z=C:\Windows\System32\spwizeng.??0WizardDialogPost@@QEAA@$$QEAV0@@Z
  ??0WizardDialogPost@@QEAA@AEBV0@@Z=C:\Windows\System32\spwizeng.??0WizardDialogPost@@QEAA@AEBV0@@Z
  ??0WizardDialogPost@@QEAA@XZ=C:\Windows\System32\spwizeng.??0WizardDialogPost@@QEAA@XZ
  ??0WizardDialogPre@@QEAA@$$QEAV0@@Z=C:\Windows\System32\spwizeng.??0WizardDialogPre@@QEAA@$$QEAV0@@Z
  ??0WizardDialogPre@@QEAA@AEBV0@@Z=C:\Windows\System32\spwizeng.??0WizardDialogPre@@QEAA@AEBV0@@Z
  ??0WizardDialogPre@@QEAA@XZ=C:\Windows\System32\spwizeng.??0WizardDialogPre@@QEAA@XZ
  ??0WizardEx@@QEAA@AEBV0@@Z=C:\Windows\System32\spwizeng.??0WizardEx@@QEAA@AEBV0@@Z
  ??0WizardEx@@QEAA@XZ=C:\Windows\System32\spwizeng.??0WizardEx@@QEAA@XZ
  ??0WizardHandler@@QEAA@$$QEAV0@@Z=C:\Windows\System32\spwizeng.??0WizardHandler@@QEAA@$$QEAV0@@Z
  ??0WizardHandler@@QEAA@AEBV0@@Z=C:\Windows\System32\spwizeng.??0WizardHandler@@QEAA@AEBV0@@Z
  ??0WizardHandler@@QEAA@XZ=C:\Windows\System32\spwizeng.??0WizardHandler@@QEAA@XZ
  ??0WizardNode@@QEAA@AEBV0@@Z=C:\Windows\System32\spwizeng.??0WizardNode@@QEAA@AEBV0@@Z
  ??0WizardNode@@QEAA@IIPEAVWizardEx@@PEAVWizardUI@@@Z=C:\Windows\System32\spwizeng.??0WizardNode@@QEAA@IIPEAVWizardEx@@PEAVWizardUI@@@Z
  ??0WizardNode@@QEAA@XZ=C:\Windows\System32\spwizeng.??0WizardNode@@QEAA@XZ
  ??0WizardPage@@QEAA@AEBV0@@Z=C:\Windows\System32\spwizeng.??0WizardPage@@QEAA@AEBV0@@Z
  ??0WizardPage@@QEAA@IIPEAVWizardEx@@PEAVWizardUI@@@Z=C:\Windows\System32\spwizeng.??0WizardPage@@QEAA@IIPEAVWizardEx@@PEAVWizardUI@@@Z
  ??0WizardRoot@@QEAA@AEBV0@@Z=C:\Windows\System32\spwizeng.??0WizardRoot@@QEAA@AEBV0@@Z
  ??0WizardRoot@@QEAA@XZ=C:\Windows\System32\spwizeng.??0WizardRoot@@QEAA@XZ
  ??0WizardStrategy@@QEAA@AEBV0@@Z=C:\Windows\System32\spwizeng.??0WizardStrategy@@QEAA@AEBV0@@Z
  ??0WizardStrategy@@QEAA@PEAVWizardEx@@@Z=C:\Windows\System32\spwizeng.??0WizardStrategy@@QEAA@PEAVWizardEx@@@Z
  ??0WizardSummary@@QEAA@$$QEAV0@@Z=C:\Windows\System32\spwizeng.??0WizardSummary@@QEAA@$$QEAV0@@Z
  ??0WizardSummary@@QEAA@AEBV0@@Z=C:\Windows\System32\spwizeng.??0WizardSummary@@QEAA@AEBV0@@Z
  ??0WizardSummary@@QEAA@IPEAPEAVWiz_Node@@@Z=C:\Windows\System32\spwizeng.??0WizardSummary@@QEAA@IPEAPEAVWiz_Node@@@Z
  ??0WizardUI@@QEAA@XZ=C:\Windows\System32\spwizeng.??0WizardUI@@QEAA@XZ
  ??0WizardVariation@@QEAA@AEBV0@@Z=C:\Windows\System32\spwizeng.??0WizardVariation@@QEAA@AEBV0@@Z
  ??0WizardVariation@@QEAA@IPEAPEAVWiz_Node@@AEBV?$CSimpleMap@HHV?$CSimpleMapEqualHelper@HH@ATL@@@ATL@@PEBG@Z=C:\Windows\System32\spwizeng.??0WizardVariation@@QEAA@IPEAPEAVWiz_Node@@AEBV?$CSimpleMap@HHV?$CSimpleMapEqualHelper@HH@ATL@@@ATL@@PEBG@Z
  ??0Wizard_PageDesciption@@QEAA@AEBV0@@Z=C:\Windows\System32\spwizeng.??0Wizard_PageDesciption@@QEAA@AEBV0@@Z
  ??0Wizard_PageDesciption@@QEAA@KPEBG0KP6APEAVWizardRoot@@PEAVWizardPage@@@ZK@Z=C:\Windows\System32\spwizeng.??0Wizard_PageDesciption@@QEAA@KPEBG0KP6APEAVWizardRoot@@PEAVWizardPage@@@ZK@Z
  ??1?$CSimpleArray@PEAGV?$CSimpleArrayEqualHelper@PEAG@ATL@@@ATL@@QEAA@XZ=C:\Windows\System32\spwizeng.??1?$CSimpleArray@PEAGV?$CSimpleArrayEqualHelper@PEAG@ATL@@@ATL@@QEAA@XZ
  ??1?$CSimpleArray@PEAUIResourceModuleEvent@@V?$CSimpleArrayEqualHelper@PEAUIResourceModuleEvent@@@ATL@@@ATL@@QEAA@XZ=C:\Windows\System32\spwizeng.??1?$CSimpleArray@PEAUIResourceModuleEvent@@V?$CSimpleArrayEqualHelper@PEAUIResourceModuleEvent@@@ATL@@@ATL@@QEAA@XZ
  ??1?$CSimpleArray@PEAUKEYBOARD@@V?$CSimpleArrayEqualHelper@PEAUKEYBOARD@@@ATL@@@ATL@@QEAA@XZ=C:\Windows\System32\spwizeng.??1?$CSimpleArray@PEAUKEYBOARD@@V?$CSimpleArrayEqualHelper@PEAUKEYBOARD@@@ATL@@@ATL@@QEAA@XZ
  ??1?$CSimpleArray@PEAULANGUAGE@@V?$CSimpleArrayEqualHelper@PEAULANGUAGE@@@ATL@@@ATL@@QEAA@XZ=C:\Windows\System32\spwizeng.??1?$CSimpleArray@PEAULANGUAGE@@V?$CSimpleArrayEqualHelper@PEAULANGUAGE@@@ATL@@@ATL@@QEAA@XZ
  ??1?$CSimpleArray@PEAULOCALE@@V?$CSimpleArrayEqualHelper@PEAULOCALE@@@ATL@@@ATL@@QEAA@XZ=C:\Windows\System32\spwizeng.??1?$CSimpleArray@PEAULOCALE@@V?$CSimpleArrayEqualHelper@PEAULOCALE@@@ATL@@@ATL@@QEAA@XZ
  ??1?$CSimpleStringT@G$0A@@ATL@@QEAA@XZ=C:\Windows\System32\spwizeng.??1?$CSimpleStringT@G$0A@@ATL@@QEAA@XZ
  ??1?$CStringT@GV?$StrTraitATL@GV?$ChTraitsCRT@G@ATL@@@ATL@@@ATL@@QEAA@XZ=C:\Windows\System32\spwizeng.??1?$CStringT@GV?$StrTraitATL@GV?$ChTraitsCRT@G@ATL@@@ATL@@@ATL@@QEAA@XZ
  ??1AppWindow@@UEAA@XZ=C:\Windows\System32\spwizeng.??1AppWindow@@UEAA@XZ
  ??1BranchWizStrategy@@UEAA@XZ=C:\Windows\System32\spwizeng.??1BranchWizStrategy@@UEAA@XZ
  ??1CAnimation@@UEAA@XZ=C:\Windows\System32\spwizeng.??1CAnimation@@UEAA@XZ
  ??1CAnimationControl@@UEAA@XZ=C:\Windows\System32\spwizeng.??1CAnimationControl@@UEAA@XZ
  ??1CAttachDataDlg@@QEAA@XZ=C:\Windows\System32\spwizeng.??1CAttachDataDlg@@QEAA@XZ
  ??1CCritSec@@UEAA@XZ=C:\Windows\System32\spwizeng.??1CCritSec@@UEAA@XZ
  ??1CCtlText@@UEAA@XZ=C:\Windows\System32\spwizeng.??1CCtlText@@UEAA@XZ
  ??1CCursor@@EEAA@XZ=C:\Windows\System32\spwizeng.??1CCursor@@EEAA@XZ
  ??1CCustomButtonEx@@EEAA@XZ=C:\Windows\System32\spwizeng.??1CCustomButtonEx@@EEAA@XZ
  ??1CCustomGraphicEx@@UEAA@XZ=C:\Windows\System32\spwizeng.??1CCustomGraphicEx@@UEAA@XZ
  ??1CDIB@@QEAA@XZ=C:\Windows\System32\spwizeng.??1CDIB@@QEAA@XZ
  ??1CDrawBackground@@UEAA@XZ=C:\Windows\System32\spwizeng.??1CDrawBackground@@UEAA@XZ
  ??1CDrawItem@@UEAA@XZ=C:\Windows\System32\spwizeng.??1CDrawItem@@UEAA@XZ
  ??1CDrawItemComposite@@UEAA@XZ=C:\Windows\System32\spwizeng.??1CDrawItemComposite@@UEAA@XZ
  ??1CGenericNavWindow@@UEAA@XZ=C:\Windows\System32\spwizeng.??1CGenericNavWindow@@UEAA@XZ
  ??1CHighContrast@@EEAA@XZ=C:\Windows\System32\spwizeng.??1CHighContrast@@EEAA@XZ
  ??1CResourceModule@@QEAA@XZ=C:\Windows\System32\spwizeng.??1CResourceModule@@QEAA@XZ
  ??1CScreenDIB@@UEAA@XZ=C:\Windows\System32\spwizeng.??1CScreenDIB@@UEAA@XZ
  ??1CScreenText@@UEAA@XZ=C:\Windows\System32\spwizeng.??1CScreenText@@UEAA@XZ
  ??1CWndObj@@UEAA@XZ=C:\Windows\System32\spwizeng.??1CWndObj@@UEAA@XZ
  ??1ChoiceWizStrategy@@UEAA@XZ=C:\Windows\System32\spwizeng.??1ChoiceWizStrategy@@UEAA@XZ
  ??1ICreateNavbarWnd@@UEAA@XZ=C:\Windows\System32\spwizeng.??1ICreateNavbarWnd@@UEAA@XZ
  ??1ICreateProgressWnd@@UEAA@XZ=C:\Windows\System32\spwizeng.??1ICreateProgressWnd@@UEAA@XZ
  ??1LanguageNeutralSelectionDialogBase@@QEAA@XZ=C:\Windows\System32\spwizeng.??1LanguageNeutralSelectionDialogBase@@QEAA@XZ
  ??1LanguageSelectionDialogBase@@QEAA@XZ=C:\Windows\System32\spwizeng.??1LanguageSelectionDialogBase@@QEAA@XZ
  ??1NavWindow@@UEAA@XZ=C:\Windows\System32\spwizeng.??1NavWindow@@UEAA@XZ
  ??1NavigationStack@@UEAA@XZ=C:\Windows\System32\spwizeng.??1NavigationStack@@UEAA@XZ
  ??1Navigator@@EEAA@XZ=C:\Windows\System32\spwizeng.??1Navigator@@EEAA@XZ
  ??1PIDStringView@@UEAA@XZ=C:\Windows\System32\spwizeng.??1PIDStringView@@UEAA@XZ
  ??1PageContainer@@UEAA@XZ=C:\Windows\System32\spwizeng.??1PageContainer@@UEAA@XZ
  ??1ScrWindow@@UEAA@XZ=C:\Windows\System32\spwizeng.??1ScrWindow@@UEAA@XZ
  ??1SimpleWizStrategy@@UEAA@XZ=C:\Windows\System32\spwizeng.??1SimpleWizStrategy@@UEAA@XZ
  ??1SummaryWizStrategy@@UEAA@XZ=C:\Windows\System32\spwizeng.??1SummaryWizStrategy@@UEAA@XZ
  ??1VariationWizStrategy@@UEAA@XZ=C:\Windows\System32\spwizeng.??1VariationWizStrategy@@UEAA@XZ
  ??1Win32Navigator@@EEAA@XZ=C:\Windows\System32\spwizeng.??1Win32Navigator@@EEAA@XZ
  ??1Wiz_Node@@UEAA@XZ=C:\Windows\System32\spwizeng.??1Wiz_Node@@UEAA@XZ
  ??1WizardBranch@@UEAA@XZ=C:\Windows\System32\spwizeng.??1WizardBranch@@UEAA@XZ
  ??1WizardCollection@@UEAA@XZ=C:\Windows\System32\spwizeng.??1WizardCollection@@UEAA@XZ
  ??1WizardDesciption@@UEAA@XZ=C:\Windows\System32\spwizeng.??1WizardDesciption@@UEAA@XZ
  ??1WizardEx@@UEAA@XZ=C:\Windows\System32\spwizeng.??1WizardEx@@UEAA@XZ
  ??1WizardNode@@UEAA@XZ=C:\Windows\System32\spwizeng.??1WizardNode@@UEAA@XZ
  ??1WizardPage@@UEAA@XZ=C:\Windows\System32\spwizeng.??1WizardPage@@UEAA@XZ
  ??1WizardRoot@@UEAA@XZ=C:\Windows\System32\spwizeng.??1WizardRoot@@UEAA@XZ
  ??1WizardStrategy@@UEAA@XZ=C:\Windows\System32\spwizeng.??1WizardStrategy@@UEAA@XZ
  ??1WizardSummary@@UEAA@XZ=C:\Windows\System32\spwizeng.??1WizardSummary@@UEAA@XZ
  ??1WizardUI@@QEAA@XZ=C:\Windows\System32\spwizeng.??1WizardUI@@QEAA@XZ
  ??1WizardVariation@@UEAA@XZ=C:\Windows\System32\spwizeng.??1WizardVariation@@UEAA@XZ
  ??1Wizard_PageDesciption@@UEAA@XZ=C:\Windows\System32\spwizeng.??1Wizard_PageDesciption@@UEAA@XZ
  ??4?$CSimpleArray@PEAGV?$CSimpleArrayEqualHelper@PEAG@ATL@@@ATL@@QEAAAEAV01@AEBV01@@Z=C:\Windows\System32\spwizeng.??4?$CSimpleArray@PEAGV?$CSimpleArrayEqualHelper@PEAG@ATL@@@ATL@@QEAAAEAV01@AEBV01@@Z
  ??4?$CSimpleArray@PEAUIResourceModuleEvent@@V?$CSimpleArrayEqualHelper@PEAUIResourceModuleEvent@@@ATL@@@ATL@@QEAAAEAV01@AEBV01@@Z=C:\Windows\System32\spwizeng.??4?$CSimpleArray@PEAUIResourceModuleEvent@@V?$CSimpleArrayEqualHelper@PEAUIResourceModuleEvent@@@ATL@@@ATL@@QEAAAEAV01@AEBV01@@Z
  ??4?$CSimpleArray@PEAUKEYBOARD@@V?$CSimpleArrayEqualHelper@PEAUKEYBOARD@@@ATL@@@ATL@@QEAAAEAV01@AEBV01@@Z=C:\Windows\System32\spwizeng.??4?$CSimpleArray@PEAUKEYBOARD@@V?$CSimpleArrayEqualHelper@PEAUKEYBOARD@@@ATL@@@ATL@@QEAAAEAV01@AEBV01@@Z
  ??4?$CSimpleArray@PEAULANGUAGE@@V?$CSimpleArrayEqualHelper@PEAULANGUAGE@@@ATL@@@ATL@@QEAAAEAV01@AEBV01@@Z=C:\Windows\System32\spwizeng.??4?$CSimpleArray@PEAULANGUAGE@@V?$CSimpleArrayEqualHelper@PEAULANGUAGE@@@ATL@@@ATL@@QEAAAEAV01@AEBV01@@Z
  ??4?$CSimpleArray@PEAULOCALE@@V?$CSimpleArrayEqualHelper@PEAULOCALE@@@ATL@@@ATL@@QEAAAEAV01@AEBV01@@Z=C:\Windows\System32\spwizeng.??4?$CSimpleArray@PEAULOCALE@@V?$CSimpleArrayEqualHelper@PEAULOCALE@@@ATL@@@ATL@@QEAAAEAV01@AEBV01@@Z
  ??4?$CSimpleStringT@G$0A@@ATL@@QEAAAEAV01@AEBV01@@Z=C:\Windows\System32\spwizeng.??4?$CSimpleStringT@G$0A@@ATL@@QEAAAEAV01@AEBV01@@Z
  ??4?$CSimpleStringT@G$0A@@ATL@@QEAAAEAV01@AEBV?$CSimpleStringT@G$00@1@@Z=C:\Windows\System32\spwizeng.??4?$CSimpleStringT@G$0A@@ATL@@QEAAAEAV01@AEBV?$CSimpleStringT@G$00@1@@Z
  ??4?$CSimpleStringT@G$0A@@ATL@@QEAAAEAV01@PEBG@Z=C:\Windows\System32\spwizeng.??4?$CSimpleStringT@G$0A@@ATL@@QEAAAEAV01@PEBG@Z
  ??4?$CStringT@GV?$StrTraitATL@GV?$ChTraitsCRT@G@ATL@@@ATL@@@ATL@@QEAAAEAV01@AEBUtagVARIANT@@@Z=C:\Windows\System32\spwizeng.??4?$CStringT@GV?$StrTraitATL@GV?$ChTraitsCRT@G@ATL@@@ATL@@@ATL@@QEAAAEAV01@AEBUtagVARIANT@@@Z
  ??4?$CStringT@GV?$StrTraitATL@GV?$ChTraitsCRT@G@ATL@@@ATL@@@ATL@@QEAAAEAV01@AEBV01@@Z=C:\Windows\System32\spwizeng.??4?$CStringT@GV?$StrTraitATL@GV?$ChTraitsCRT@G@ATL@@@ATL@@@ATL@@QEAAAEAV01@AEBV01@@Z
  ??4?$CStringT@GV?$StrTraitATL@GV?$ChTraitsCRT@G@ATL@@@ATL@@@ATL@@QEAAAEAV01@D@Z=C:\Windows\System32\spwizeng.??4?$CStringT@GV?$StrTraitATL@GV?$ChTraitsCRT@G@ATL@@@ATL@@@ATL@@QEAAAEAV01@D@Z
  ??4?$CStringT@GV?$StrTraitATL@GV?$ChTraitsCRT@G@ATL@@@ATL@@@ATL@@QEAAAEAV01@G@Z=C:\Windows\System32\spwizeng.??4?$CStringT@GV?$StrTraitATL@GV?$ChTraitsCRT@G@ATL@@@ATL@@@ATL@@QEAAAEAV01@G@Z
  ??4?$CStringT@GV?$StrTraitATL@GV?$ChTraitsCRT@G@ATL@@@ATL@@@ATL@@QEAAAEAV01@PEBD@Z=C:\Windows\System32\spwizeng.??4?$CStringT@GV?$StrTraitATL@GV?$ChTraitsCRT@G@ATL@@@ATL@@@ATL@@QEAAAEAV01@PEBD@Z
  ??4?$CStringT@GV?$StrTraitATL@GV?$ChTraitsCRT@G@ATL@@@ATL@@@ATL@@QEAAAEAV01@PEBE@Z=C:\Windows\System32\spwizeng.??4?$CStringT@GV?$StrTraitATL@GV?$ChTraitsCRT@G@ATL@@@ATL@@@ATL@@QEAAAEAV01@PEBE@Z
  ??4?$CStringT@GV?$StrTraitATL@GV?$ChTraitsCRT@G@ATL@@@ATL@@@ATL@@QEAAAEAV01@PEBG@Z=C:\Windows\System32\spwizeng.??4?$CStringT@GV?$StrTraitATL@GV?$ChTraitsCRT@G@ATL@@@ATL@@@ATL@@QEAAAEAV01@PEBG@Z
  ??4AppWindow@@QEAAAEAV0@AEBV0@@Z=C:\Windows\System32\spwizeng.??4AppWindow@@QEAAAEAV0@AEBV0@@Z
  ??4BranchWizStrategy@@QEAAAEAV0@$$QEAV0@@Z=C:\Windows\System32\spwizeng.??4BranchWizStrategy@@QEAAAEAV0@$$QEAV0@@Z
  ??4BranchWizStrategy@@QEAAAEAV0@AEBV0@@Z=C:\Windows\System32\spwizeng.??4BranchWizStrategy@@QEAAAEAV0@AEBV0@@Z
  ??4CAnimation@@QEAAAEAV0@AEBV0@@Z=C:\Windows\System32\spwizeng.??4CAnimation@@QEAAAEAV0@AEBV0@@Z
  ??4CAnimationControl@@QEAAAEAV0@AEBV0@@Z=C:\Windows\System32\spwizeng.??4CAnimationControl@@QEAAAEAV0@AEBV0@@Z
  ??4CAttachDataDlg@@QEAAAEAV0@AEBV0@@Z=C:\Windows\System32\spwizeng.??4CAttachDataDlg@@QEAAAEAV0@AEBV0@@Z
  ??4CCritSec@@QEAAAEAV0@AEBV0@@Z=C:\Windows\System32\spwizeng.??4CCritSec@@QEAAAEAV0@AEBV0@@Z
  ??4CCtlText@@QEAAAEAV0@AEBV0@@Z=C:\Windows\System32\spwizeng.??4CCtlText@@QEAAAEAV0@AEBV0@@Z
  ??4CCursor@@QEAAAEAV0@AEBV0@@Z=C:\Windows\System32\spwizeng.??4CCursor@@QEAAAEAV0@AEBV0@@Z
  ??4CCustomButtonEx@@QEAAAEAV0@AEBV0@@Z=C:\Windows\System32\spwizeng.??4CCustomButtonEx@@QEAAAEAV0@AEBV0@@Z
  ??4CCustomGraphicEx@@QEAAAEAV0@AEBV0@@Z=C:\Windows\System32\spwizeng.??4CCustomGraphicEx@@QEAAAEAV0@AEBV0@@Z
  ??4CDIB@@QEAAAEAV0@AEBV0@@Z=C:\Windows\System32\spwizeng.??4CDIB@@QEAAAEAV0@AEBV0@@Z
  ??4CDrawBackground@@QEAAAEAV0@AEBV0@@Z=C:\Windows\System32\spwizeng.??4CDrawBackground@@QEAAAEAV0@AEBV0@@Z
  ??4CDrawItem@@QEAAAEAV0@AEBV0@@Z=C:\Windows\System32\spwizeng.??4CDrawItem@@QEAAAEAV0@AEBV0@@Z
  ??4CDrawItemComposite@@QEAAAEAV0@AEBV0@@Z=C:\Windows\System32\spwizeng.??4CDrawItemComposite@@QEAAAEAV0@AEBV0@@Z
  ??4CGenericNavWindow@@QEAAAEAV0@AEBV0@@Z=C:\Windows\System32\spwizeng.??4CGenericNavWindow@@QEAAAEAV0@AEBV0@@Z
  ??4CHighContrast@@QEAAAEAV0@AEBV0@@Z=C:\Windows\System32\spwizeng.??4CHighContrast@@QEAAAEAV0@AEBV0@@Z
  ??4CResourceModule@@QEAAAEAV0@AEBV0@@Z=C:\Windows\System32\spwizeng.??4CResourceModule@@QEAAAEAV0@AEBV0@@Z
  ??4CResourceModuleFactory@@QEAAAEAV0@$$QEAV0@@Z=C:\Windows\System32\spwizeng.??4CResourceModuleFactory@@QEAAAEAV0@$$QEAV0@@Z
  ??4CResourceModuleFactory@@QEAAAEAV0@AEBV0@@Z=C:\Windows\System32\spwizeng.??4CResourceModuleFactory@@QEAAAEAV0@AEBV0@@Z
  ??4CRichEditControl@@QEAAAEAV0@$$QEAV0@@Z=C:\Windows\System32\spwizeng.??4CRichEditControl@@QEAAAEAV0@$$QEAV0@@Z
  ??4CRichEditControl@@QEAAAEAV0@AEBV0@@Z=C:\Windows\System32\spwizeng.??4CRichEditControl@@QEAAAEAV0@AEBV0@@Z
  ??4CScreenDIB@@QEAAAEAV0@$$QEAV0@@Z=C:\Windows\System32\spwizeng.??4CScreenDIB@@QEAAAEAV0@$$QEAV0@@Z
  ??4CScreenDIB@@QEAAAEAV0@AEBV0@@Z=C:\Windows\System32\spwizeng.??4CScreenDIB@@QEAAAEAV0@AEBV0@@Z
  ??4CScreenText@@QEAAAEAV0@AEBV0@@Z=C:\Windows\System32\spwizeng.??4CScreenText@@QEAAAEAV0@AEBV0@@Z
  ??4CWndObj@@QEAAAEAV0@AEBV0@@Z=C:\Windows\System32\spwizeng.??4CWndObj@@QEAAAEAV0@AEBV0@@Z
  ??4ChoiceWizStrategy@@QEAAAEAV0@$$QEAV0@@Z=C:\Windows\System32\spwizeng.??4ChoiceWizStrategy@@QEAAAEAV0@$$QEAV0@@Z
  ??4ChoiceWizStrategy@@QEAAAEAV0@AEBV0@@Z=C:\Windows\System32\spwizeng.??4ChoiceWizStrategy@@QEAAAEAV0@AEBV0@@Z
  ??4ICreateNavbarWnd@@QEAAAEAV0@AEBV0@@Z=C:\Windows\System32\spwizeng.??4ICreateNavbarWnd@@QEAAAEAV0@AEBV0@@Z
  ??4ICreateProgressWnd@@QEAAAEAV0@AEBV0@@Z=C:\Windows\System32\spwizeng.??4ICreateProgressWnd@@QEAAAEAV0@AEBV0@@Z
  ??4IResourceModuleEvent@@QEAAAEAU0@$$QEAU0@@Z=C:\Windows\System32\spwizeng.??4IResourceModuleEvent@@QEAAAEAU0@$$QEAU0@@Z
  ??4IResourceModuleEvent@@QEAAAEAU0@AEBU0@@Z=C:\Windows\System32\spwizeng.??4IResourceModuleEvent@@QEAAAEAU0@AEBU0@@Z
  ??4LanguageNeutralSelectionDialogBase@@QEAAAEAV0@AEBV0@@Z=C:\Windows\System32\spwizeng.??4LanguageNeutralSelectionDialogBase@@QEAAAEAV0@AEBV0@@Z
  ??4LanguageSelectionDialogBase@@QEAAAEAV0@AEBV0@@Z=C:\Windows\System32\spwizeng.??4LanguageSelectionDialogBase@@QEAAAEAV0@AEBV0@@Z
  ??4MyString@@QEAAAEAV0@$$QEAV0@@Z=C:\Windows\System32\spwizeng.??4MyString@@QEAAAEAV0@$$QEAV0@@Z
  ??4MyString@@QEAAAEAV0@AEBV0@@Z=C:\Windows\System32\spwizeng.??4MyString@@QEAAAEAV0@AEBV0@@Z
  ??4NavWindow@@QEAAAEAV0@AEBV0@@Z=C:\Windows\System32\spwizeng.??4NavWindow@@QEAAAEAV0@AEBV0@@Z
  ??4NavigationStack@@QEAAAEAV0@AEBV0@@Z=C:\Windows\System32\spwizeng.??4NavigationStack@@QEAAAEAV0@AEBV0@@Z
  ??4Navigator@@QEAAAEAV0@AEBV0@@Z=C:\Windows\System32\spwizeng.??4Navigator@@QEAAAEAV0@AEBV0@@Z
  ??4PIDStringView@@QEAAAEAV0@AEBV0@@Z=C:\Windows\System32\spwizeng.??4PIDStringView@@QEAAAEAV0@AEBV0@@Z
  ??4PageContainer@@QEAAAEAV0@AEBV0@@Z=C:\Windows\System32\spwizeng.??4PageContainer@@QEAAAEAV0@AEBV0@@Z
  ??4PageDef@@QEAAAEAU0@$$QEAU0@@Z=C:\Windows\System32\spwizeng.??4PageDef@@QEAAAEAU0@$$QEAU0@@Z
  ??4PageDef@@QEAAAEAU0@AEBU0@@Z=C:\Windows\System32\spwizeng.??4PageDef@@QEAAAEAU0@AEBU0@@Z
  ??4ProgressCreateStruct@@QEAAAEAU0@$$QEAU0@@Z=C:\Windows\System32\spwizeng.??4ProgressCreateStruct@@QEAAAEAU0@$$QEAU0@@Z
  ??4ProgressCreateStruct@@QEAAAEAU0@AEBU0@@Z=C:\Windows\System32\spwizeng.??4ProgressCreateStruct@@QEAAAEAU0@AEBU0@@Z
  ??4ProtoPageDimensions@@QEAAAEAU0@$$QEAU0@@Z=C:\Windows\System32\spwizeng.??4ProtoPageDimensions@@QEAAAEAU0@$$QEAU0@@Z
  ??4ProtoPageDimensions@@QEAAAEAU0@AEBU0@@Z=C:\Windows\System32\spwizeng.??4ProtoPageDimensions@@QEAAAEAU0@AEBU0@@Z
  ??4ProtoPageList@@QEAAAEAV0@AEBV0@@Z=C:\Windows\System32\spwizeng.??4ProtoPageList@@QEAAAEAV0@AEBV0@@Z
  ??4ScrWindow@@QEAAAEAV0@AEBV0@@Z=C:\Windows\System32\spwizeng.??4ScrWindow@@QEAAAEAV0@AEBV0@@Z
  ??4SimpleDialogBase@@QEAAAEAV0@$$QEAV0@@Z=C:\Windows\System32\spwizeng.??4SimpleDialogBase@@QEAAAEAV0@$$QEAV0@@Z
  ??4SimpleDialogBase@@QEAAAEAV0@AEBV0@@Z=C:\Windows\System32\spwizeng.??4SimpleDialogBase@@QEAAAEAV0@AEBV0@@Z
  ??4SimpleRect@@QEAAAEAU0@$$QEAU0@@Z=C:\Windows\System32\spwizeng.??4SimpleRect@@QEAAAEAU0@$$QEAU0@@Z
  ??4SimpleRect@@QEAAAEAU0@AEBU0@@Z=C:\Windows\System32\spwizeng.??4SimpleRect@@QEAAAEAU0@AEBU0@@Z
  ??4SimpleSize@@QEAAAEAU0@$$QEAU0@@Z=C:\Windows\System32\spwizeng.??4SimpleSize@@QEAAAEAU0@$$QEAU0@@Z
  ??4SimpleSize@@QEAAAEAU0@AEBU0@@Z=C:\Windows\System32\spwizeng.??4SimpleSize@@QEAAAEAU0@AEBU0@@Z
  ??4SimpleWizStrategy@@QEAAAEAV0@$$QEAV0@@Z=C:\Windows\System32\spwizeng.??4SimpleWizStrategy@@QEAAAEAV0@$$QEAV0@@Z
  ??4SimpleWizStrategy@@QEAAAEAV0@AEBV0@@Z=C:\Windows\System32\spwizeng.??4SimpleWizStrategy@@QEAAAEAV0@AEBV0@@Z
  ??4SummaryWizStrategy@@QEAAAEAV0@$$QEAV0@@Z=C:\Windows\System32\spwizeng.??4SummaryWizStrategy@@QEAAAEAV0@$$QEAV0@@Z
  ??4SummaryWizStrategy@@QEAAAEAV0@AEBV0@@Z=C:\Windows\System32\spwizeng.??4SummaryWizStrategy@@QEAAAEAV0@AEBV0@@Z
  ??4Win32Navigator@@QEAAAEAV0@AEBV0@@Z=C:\Windows\System32\spwizeng.??4Win32Navigator@@QEAAAEAV0@AEBV0@@Z
  ??4Wiz_Node@@QEAAAEAV0@AEBV0@@Z=C:\Windows\System32\spwizeng.??4Wiz_Node@@QEAAAEAV0@AEBV0@@Z
  ??4WizardBranch@@QEAAAEAV0@$$QEAV0@@Z=C:\Windows\System32\spwizeng.??4WizardBranch@@QEAAAEAV0@$$QEAV0@@Z
  ??4WizardBranch@@QEAAAEAV0@AEBV0@@Z=C:\Windows\System32\spwizeng.??4WizardBranch@@QEAAAEAV0@AEBV0@@Z
  ??4WizardCollection@@QEAAAEAV0@$$QEAV0@@Z=C:\Windows\System32\spwizeng.??4WizardCollection@@QEAAAEAV0@$$QEAV0@@Z
  ??4WizardCollection@@QEAAAEAV0@AEBV0@@Z=C:\Windows\System32\spwizeng.??4WizardCollection@@QEAAAEAV0@AEBV0@@Z
  ??4WizardDesciption@@QEAAAEAV0@$$QEAV0@@Z=C:\Windows\System32\spwizeng.??4WizardDesciption@@QEAAAEAV0@$$QEAV0@@Z
  ??4WizardDesciption@@QEAAAEAV0@AEBV0@@Z=C:\Windows\System32\spwizeng.??4WizardDesciption@@QEAAAEAV0@AEBV0@@Z
  ??4WizardDialogPost@@QEAAAEAV0@$$QEAV0@@Z=C:\Windows\System32\spwizeng.??4WizardDialogPost@@QEAAAEAV0@$$QEAV0@@Z
  ??4WizardDialogPost@@QEAAAEAV0@AEBV0@@Z=C:\Windows\System32\spwizeng.??4WizardDialogPost@@QEAAAEAV0@AEBV0@@Z
  ??4WizardDialogPre@@QEAAAEAV0@$$QEAV0@@Z=C:\Windows\System32\spwizeng.??4WizardDialogPre@@QEAAAEAV0@$$QEAV0@@Z
  ??4WizardDialogPre@@QEAAAEAV0@AEBV0@@Z=C:\Windows\System32\spwizeng.??4WizardDialogPre@@QEAAAEAV0@AEBV0@@Z
  ??4WizardEx@@QEAAAEAV0@AEBV0@@Z=C:\Windows\System32\spwizeng.??4WizardEx@@QEAAAEAV0@AEBV0@@Z
  ??4WizardHandler@@QEAAAEAV0@$$QEAV0@@Z=C:\Windows\System32\spwizeng.??4WizardHandler@@QEAAAEAV0@$$QEAV0@@Z
  ??4WizardHandler@@QEAAAEAV0@AEBV0@@Z=C:\Windows\System32\spwizeng.??4WizardHandler@@QEAAAEAV0@AEBV0@@Z
  ??4WizardNode@@QEAAAEAV0@AEBV0@@Z=C:\Windows\System32\spwizeng.??4WizardNode@@QEAAAEAV0@AEBV0@@Z
  ??4WizardPage@@QEAAAEAV0@AEBV0@@Z=C:\Windows\System32\spwizeng.??4WizardPage@@QEAAAEAV0@AEBV0@@Z
  ??4WizardRoot@@QEAAAEAV0@AEBV0@@Z=C:\Windows\System32\spwizeng.??4WizardRoot@@QEAAAEAV0@AEBV0@@Z
  ??4WizardStrategy@@QEAAAEAV0@AEBV0@@Z=C:\Windows\System32\spwizeng.??4WizardStrategy@@QEAAAEAV0@AEBV0@@Z
  ??4WizardSummary@@QEAAAEAV0@$$QEAV0@@Z=C:\Windows\System32\spwizeng.??4WizardSummary@@QEAAAEAV0@$$QEAV0@@Z
  ??4WizardSummary@@QEAAAEAV0@AEBV0@@Z=C:\Windows\System32\spwizeng.??4WizardSummary@@QEAAAEAV0@AEBV0@@Z
  ??4WizardUI@@QEAAAEAV0@AEBV0@@Z=C:\Windows\System32\spwizeng.??4WizardUI@@QEAAAEAV0@AEBV0@@Z
  ??4Wizard_PageDesciption@@QEAAAEAV0@AEBV0@@Z=C:\Windows\System32\spwizeng.??4Wizard_PageDesciption@@QEAAAEAV0@AEBV0@@Z
  ??A?$CSimpleArray@PEAGV?$CSimpleArrayEqualHelper@PEAG@ATL@@@ATL@@QEAAAEAPEAGH@Z=C:\Windows\System32\spwizeng.??A?$CSimpleArray@PEAGV?$CSimpleArrayEqualHelper@PEAG@ATL@@@ATL@@QEAAAEAPEAGH@Z
  ??A?$CSimpleArray@PEAGV?$CSimpleArrayEqualHelper@PEAG@ATL@@@ATL@@QEBAAEBQEAGH@Z=C:\Windows\System32\spwizeng.??A?$CSimpleArray@PEAGV?$CSimpleArrayEqualHelper@PEAG@ATL@@@ATL@@QEBAAEBQEAGH@Z
  ??A?$CSimpleArray@PEAUIResourceModuleEvent@@V?$CSimpleArrayEqualHelper@PEAUIResourceModuleEvent@@@ATL@@@ATL@@QEAAAEAPEAUIResourceModuleEvent@@H@Z=C:\Windows\System32\spwizeng.??A?$CSimpleArray@PEAUIResourceModuleEvent@@V?$CSimpleArrayEqualHelper@PEAUIResourceModuleEvent@@@ATL@@@ATL@@QEAAAEAPEAUIResourceModuleEvent@@H@Z
  ??A?$CSimpleArray@PEAUIResourceModuleEvent@@V?$CSimpleArrayEqualHelper@PEAUIResourceModuleEvent@@@ATL@@@ATL@@QEBAAEBQEAUIResourceModuleEvent@@H@Z=C:\Windows\System32\spwizeng.??A?$CSimpleArray@PEAUIResourceModuleEvent@@V?$CSimpleArrayEqualHelper@PEAUIResourceModuleEvent@@@ATL@@@ATL@@QEBAAEBQEAUIResourceModuleEvent@@H@Z
  ??A?$CSimpleArray@PEAUKEYBOARD@@V?$CSimpleArrayEqualHelper@PEAUKEYBOARD@@@ATL@@@ATL@@QEAAAEAPEAUKEYBOARD@@H@Z=C:\Windows\System32\spwizeng.??A?$CSimpleArray@PEAUKEYBOARD@@V?$CSimpleArrayEqualHelper@PEAUKEYBOARD@@@ATL@@@ATL@@QEAAAEAPEAUKEYBOARD@@H@Z
  ??A?$CSimpleArray@PEAUKEYBOARD@@V?$CSimpleArrayEqualHelper@PEAUKEYBOARD@@@ATL@@@ATL@@QEBAAEBQEAUKEYBOARD@@H@Z=C:\Windows\System32\spwizeng.??A?$CSimpleArray@PEAUKEYBOARD@@V?$CSimpleArrayEqualHelper@PEAUKEYBOARD@@@ATL@@@ATL@@QEBAAEBQEAUKEYBOARD@@H@Z
  ??A?$CSimpleArray@PEAULANGUAGE@@V?$CSimpleArrayEqualHelper@PEAULANGUAGE@@@ATL@@@ATL@@QEAAAEAPEAULANGUAGE@@H@Z=C:\Windows\System32\spwizeng.??A?$CSimpleArray@PEAULANGUAGE@@V?$CSimpleArrayEqualHelper@PEAULANGUAGE@@@ATL@@@ATL@@QEAAAEAPEAULANGUAGE@@H@Z
  ??A?$CSimpleArray@PEAULANGUAGE@@V?$CSimpleArrayEqualHelper@PEAULANGUAGE@@@ATL@@@ATL@@QEBAAEBQEAULANGUAGE@@H@Z=C:\Windows\System32\spwizeng.??A?$CSimpleArray@PEAULANGUAGE@@V?$CSimpleArrayEqualHelper@PEAULANGUAGE@@@ATL@@@ATL@@QEBAAEBQEAULANGUAGE@@H@Z
  ??A?$CSimpleArray@PEAULOCALE@@V?$CSimpleArrayEqualHelper@PEAULOCALE@@@ATL@@@ATL@@QEAAAEAPEAULOCALE@@H@Z=C:\Windows\System32\spwizeng.??A?$CSimpleArray@PEAULOCALE@@V?$CSimpleArrayEqualHelper@PEAULOCALE@@@ATL@@@ATL@@QEAAAEAPEAULOCALE@@H@Z
  ??A?$CSimpleArray@PEAULOCALE@@V?$CSimpleArrayEqualHelper@PEAULOCALE@@@ATL@@@ATL@@QEBAAEBQEAULOCALE@@H@Z=C:\Windows\System32\spwizeng.??A?$CSimpleArray@PEAULOCALE@@V?$CSimpleArrayEqualHelper@PEAULOCALE@@@ATL@@@ATL@@QEBAAEBQEAULOCALE@@H@Z
  ??A?$CSimpleStringT@G$0A@@ATL@@QEBAGH@Z=C:\Windows\System32\spwizeng.??A?$CSimpleStringT@G$0A@@ATL@@QEBAGH@Z
  ??B?$CSimpleStringT@G$0A@@ATL@@QEAAAEAV?$CSimpleStringT@G$00@1@XZ=C:\Windows\System32\spwizeng.??B?$CSimpleStringT@G$0A@@ATL@@QEAAAEAV?$CSimpleStringT@G$00@1@XZ
  ??B?$CSimpleStringT@G$0A@@ATL@@QEBAPEBGXZ=C:\Windows\System32\spwizeng.??B?$CSimpleStringT@G$0A@@ATL@@QEBAPEBGXZ
  ??B?$CStringT@GV?$StrTraitATL@GV?$ChTraitsCRT@G@ATL@@@ATL@@@ATL@@QEAAAEAV?$CSimpleStringT@G$00@1@XZ=C:\Windows\System32\spwizeng.??B?$CStringT@GV?$StrTraitATL@GV?$ChTraitsCRT@G@ATL@@@ATL@@@ATL@@QEAAAEAV?$CSimpleStringT@G$00@1@XZ
  ??Y?$CSimpleStringT@G$0A@@ATL@@QEAAAEAV01@AEBV01@@Z=C:\Windows\System32\spwizeng.??Y?$CSimpleStringT@G$0A@@ATL@@QEAAAEAV01@AEBV01@@Z
  ??Y?$CSimpleStringT@G$0A@@ATL@@QEAAAEAV01@D@Z=C:\Windows\System32\spwizeng.??Y?$CSimpleStringT@G$0A@@ATL@@QEAAAEAV01@D@Z
  ??Y?$CSimpleStringT@G$0A@@ATL@@QEAAAEAV01@E@Z=C:\Windows\System32\spwizeng.??Y?$CSimpleStringT@G$0A@@ATL@@QEAAAEAV01@E@Z
  ??Y?$CSimpleStringT@G$0A@@ATL@@QEAAAEAV01@G@Z=C:\Windows\System32\spwizeng.??Y?$CSimpleStringT@G$0A@@ATL@@QEAAAEAV01@G@Z
  ??Y?$CSimpleStringT@G$0A@@ATL@@QEAAAEAV01@PEBG@Z=C:\Windows\System32\spwizeng.??Y?$CSimpleStringT@G$0A@@ATL@@QEAAAEAV01@PEBG@Z
  ??Y?$CStringT@GV?$StrTraitATL@GV?$ChTraitsCRT@G@ATL@@@ATL@@@ATL@@QEAAAEAV01@AEBUtagVARIANT@@@Z=C:\Windows\System32\spwizeng.??Y?$CStringT@GV?$StrTraitATL@GV?$ChTraitsCRT@G@ATL@@@ATL@@@ATL@@QEAAAEAV01@AEBUtagVARIANT@@@Z
  ??Y?$CStringT@GV?$StrTraitATL@GV?$ChTraitsCRT@G@ATL@@@ATL@@@ATL@@QEAAAEAV01@AEBV?$CSimpleStringT@G$0A@@1@@Z=C:\Windows\System32\spwizeng.??Y?$CStringT@GV?$StrTraitATL@GV?$ChTraitsCRT@G@ATL@@@ATL@@@ATL@@QEAAAEAV01@AEBV?$CSimpleStringT@G$0A@@1@@Z
  ??Y?$CStringT@GV?$StrTraitATL@GV?$ChTraitsCRT@G@ATL@@@ATL@@@ATL@@QEAAAEAV01@D@Z=C:\Windows\System32\spwizeng.??Y?$CStringT@GV?$StrTraitATL@GV?$ChTraitsCRT@G@ATL@@@ATL@@@ATL@@QEAAAEAV01@D@Z
  ??Y?$CStringT@GV?$StrTraitATL@GV?$ChTraitsCRT@G@ATL@@@ATL@@@ATL@@QEAAAEAV01@E@Z=C:\Windows\System32\spwizeng.??Y?$CStringT@GV?$StrTraitATL@GV?$ChTraitsCRT@G@ATL@@@ATL@@@ATL@@QEAAAEAV01@E@Z
  ??Y?$CStringT@GV?$StrTraitATL@GV?$ChTraitsCRT@G@ATL@@@ATL@@@ATL@@QEAAAEAV01@G@Z=C:\Windows\System32\spwizeng.??Y?$CStringT@GV?$StrTraitATL@GV?$ChTraitsCRT@G@ATL@@@ATL@@@ATL@@QEAAAEAV01@G@Z
  ??Y?$CStringT@GV?$StrTraitATL@GV?$ChTraitsCRT@G@ATL@@@ATL@@@ATL@@QEAAAEAV01@PEBD@Z=C:\Windows\System32\spwizeng.??Y?$CStringT@GV?$StrTraitATL@GV?$ChTraitsCRT@G@ATL@@@ATL@@@ATL@@QEAAAEAV01@PEBD@Z
  ??Y?$CStringT@GV?$StrTraitATL@GV?$ChTraitsCRT@G@ATL@@@ATL@@@ATL@@QEAAAEAV01@PEBG@Z=C:\Windows\System32\spwizeng.??Y?$CStringT@GV?$StrTraitATL@GV?$ChTraitsCRT@G@ATL@@@ATL@@@ATL@@QEAAAEAV01@PEBG@Z
  ??_7AppWindow@@6BIWndObj@@@=C:\Windows\System32\spwizeng.??_7AppWindow@@6BIWndObj@@@
  ??_7AppWindow@@6BIWndProp@@@=C:\Windows\System32\spwizeng.??_7AppWindow@@6BIWndProp@@@
  ??_7BranchWizStrategy@@6B@=C:\Windows\System32\spwizeng.??_7BranchWizStrategy@@6B@
  ??_7CAnimation@@6B@=C:\Windows\System32\spwizeng.??_7CAnimation@@6B@
  ??_7CAnimationControl@@6B@=C:\Windows\System32\spwizeng.??_7CAnimationControl@@6B@
  ??_7CAttachDataDlg@@6B@=C:\Windows\System32\spwizeng.??_7CAttachDataDlg@@6B@
  ??_7CCritSec@@6B@=C:\Windows\System32\spwizeng.??_7CCritSec@@6B@
  ??_7CCtlText@@6B@=C:\Windows\System32\spwizeng.??_7CCtlText@@6B@
  ??_7CCursor@@6B@=C:\Windows\System32\spwizeng.??_7CCursor@@6B@
  ??_7CCustomButtonEx@@6B@=C:\Windows\System32\spwizeng.??_7CCustomButtonEx@@6B@
  ??_7CCustomGraphicEx@@6B@=C:\Windows\System32\spwizeng.??_7CCustomGraphicEx@@6B@
  ??_7CDrawBackground@@6B@=C:\Windows\System32\spwizeng.??_7CDrawBackground@@6B@
  ??_7CDrawItem@@6B@=C:\Windows\System32\spwizeng.??_7CDrawItem@@6B@
  ??_7CDrawItemComposite@@6B@=C:\Windows\System32\spwizeng.??_7CDrawItemComposite@@6B@
  ??_7CGenericNavWindow@@6B@=C:\Windows\System32\spwizeng.??_7CGenericNavWindow@@6B@
  ??_7CHighContrast@@6B@=C:\Windows\System32\spwizeng.??_7CHighContrast@@6B@
  ??_7CScreenDIB@@6B@=C:\Windows\System32\spwizeng.??_7CScreenDIB@@6B@
  ??_7CScreenText@@6B@=C:\Windows\System32\spwizeng.??_7CScreenText@@6B@
  ??_7CWndObj@@6BIWndObj@@@=C:\Windows\System32\spwizeng.??_7CWndObj@@6BIWndObj@@@
  ??_7CWndObj@@6BIWndProp@@@=C:\Windows\System32\spwizeng.??_7CWndObj@@6BIWndProp@@@
  ??_7ChoiceWizStrategy@@6B@=C:\Windows\System32\spwizeng.??_7ChoiceWizStrategy@@6B@
  ??_7ICreateNavbarWnd@@6B@=C:\Windows\System32\spwizeng.??_7ICreateNavbarWnd@@6B@
  ??_7ICreateProgressWnd@@6B@=C:\Windows\System32\spwizeng.??_7ICreateProgressWnd@@6B@
  ??_7IResourceModuleEvent@@6B@=C:\Windows\System32\spwizeng.??_7IResourceModuleEvent@@6B@
  ??_7LanguageNeutralSelectionDialogBase@@6B@=C:\Windows\System32\spwizeng.??_7LanguageNeutralSelectionDialogBase@@6B@
  ??_7LanguageSelectionDialogBase@@6B@=C:\Windows\System32\spwizeng.??_7LanguageSelectionDialogBase@@6B@
  ??_7NavWindow@@6B@=C:\Windows\System32\spwizeng.??_7NavWindow@@6B@
  ??_7NavigationStack@@6B@=C:\Windows\System32\spwizeng.??_7NavigationStack@@6B@
  ??_7Navigator@@6B@=C:\Windows\System32\spwizeng.??_7Navigator@@6B@
  ??_7PIDStringView@@6B@=C:\Windows\System32\spwizeng.??_7PIDStringView@@6B@
  ??_7PageContainer@@6B@=C:\Windows\System32\spwizeng.??_7PageContainer@@6B@
  ??_7ScrWindow@@6BIWndObj@@@=C:\Windows\System32\spwizeng.??_7ScrWindow@@6BIWndObj@@@
  ??_7ScrWindow@@6BIWndProp@@@=C:\Windows\System32\spwizeng.??_7ScrWindow@@6BIWndProp@@@
  ??_7SimpleDialogBase@@6B@=C:\Windows\System32\spwizeng.??_7SimpleDialogBase@@6B@
  ??_7SimpleWizStrategy@@6B@=C:\Windows\System32\spwizeng.??_7SimpleWizStrategy@@6B@
  ??_7SummaryWizStrategy@@6B@=C:\Windows\System32\spwizeng.??_7SummaryWizStrategy@@6B@
  ??_7VariationWizStrategy@@6B@=C:\Windows\System32\spwizeng.??_7VariationWizStrategy@@6B@
  ??_7Win32Navigator@@6B@=C:\Windows\System32\spwizeng.??_7Win32Navigator@@6B@
  ??_7Wiz_Node@@6B@=C:\Windows\System32\spwizeng.??_7Wiz_Node@@6B@
  ??_7WizardBranch@@6B@=C:\Windows\System32\spwizeng.??_7WizardBranch@@6B@
  ??_7WizardCollection@@6B@=C:\Windows\System32\spwizeng.??_7WizardCollection@@6B@
  ??_7WizardDesciption@@6B@=C:\Windows\System32\spwizeng.??_7WizardDesciption@@6B@
  ??_7WizardDialogPost@@6B@=C:\Windows\System32\spwizeng.??_7WizardDialogPost@@6B@
  ??_7WizardDialogPre@@6B@=C:\Windows\System32\spwizeng.??_7WizardDialogPre@@6B@
  ??_7WizardEx@@6BINavigationNode@@@=C:\Windows\System32\spwizeng.??_7WizardEx@@6BINavigationNode@@@
  ??_7WizardEx@@6BWizardNode@@@=C:\Windows\System32\spwizeng.??_7WizardEx@@6BWizardNode@@@
  ??_7WizardHandler@@6B@=C:\Windows\System32\spwizeng.??_7WizardHandler@@6B@
  ??_7WizardNode@@6B@=C:\Windows\System32\spwizeng.??_7WizardNode@@6B@
  ??_7WizardPage@@6B@=C:\Windows\System32\spwizeng.??_7WizardPage@@6B@
  ??_7WizardRoot@@6B@=C:\Windows\System32\spwizeng.??_7WizardRoot@@6B@
  ??_7WizardStrategy@@6B@=C:\Windows\System32\spwizeng.??_7WizardStrategy@@6B@
  ??_7WizardSummary@@6B@=C:\Windows\System32\spwizeng.??_7WizardSummary@@6B@
  ??_7WizardVariation@@6B@=C:\Windows\System32\spwizeng.??_7WizardVariation@@6B@
  ??_7Wizard_PageDesciption@@6B@=C:\Windows\System32\spwizeng.??_7Wizard_PageDesciption@@6B@
  ?Add@?$CSimpleArray@PEAGV?$CSimpleArrayEqualHelper@PEAG@ATL@@@ATL@@QEAAHAEBQEAG@Z=C:\Windows\System32\spwizeng.?Add@?$CSimpleArray@PEAGV?$CSimpleArrayEqualHelper@PEAG@ATL@@@ATL@@QEAAHAEBQEAG@Z
  ?Add@?$CSimpleArray@PEAUIResourceModuleEvent@@V?$CSimpleArrayEqualHelper@PEAUIResourceModuleEvent@@@ATL@@@ATL@@QEAAHAEBQEAUIResourceModuleEvent@@@Z=C:\Windows\System32\spwizeng.?Add@?$CSimpleArray@PEAUIResourceModuleEvent@@V?$CSimpleArrayEqualHelper@PEAUIResourceModuleEvent@@@ATL@@@ATL@@QEAAHAEBQEAUIResourceModuleEvent@@@Z
  ?Add@?$CSimpleArray@PEAUKEYBOARD@@V?$CSimpleArrayEqualHelper@PEAUKEYBOARD@@@ATL@@@ATL@@QEAAHAEBQEAUKEYBOARD@@@Z=C:\Windows\System32\spwizeng.?Add@?$CSimpleArray@PEAUKEYBOARD@@V?$CSimpleArrayEqualHelper@PEAUKEYBOARD@@@ATL@@@ATL@@QEAAHAEBQEAUKEYBOARD@@@Z
  ?Add@?$CSimpleArray@PEAULANGUAGE@@V?$CSimpleArrayEqualHelper@PEAULANGUAGE@@@ATL@@@ATL@@QEAAHAEBQEAULANGUAGE@@@Z=C:\Windows\System32\spwizeng.?Add@?$CSimpleArray@PEAULANGUAGE@@V?$CSimpleArrayEqualHelper@PEAULANGUAGE@@@ATL@@@ATL@@QEAAHAEBQEAULANGUAGE@@@Z
  ?Add@?$CSimpleArray@PEAULOCALE@@V?$CSimpleArrayEqualHelper@PEAULOCALE@@@ATL@@@ATL@@QEAAHAEBQEAULOCALE@@@Z=C:\Windows\System32\spwizeng.?Add@?$CSimpleArray@PEAULOCALE@@V?$CSimpleArrayEqualHelper@PEAULOCALE@@@ATL@@@ATL@@QEAAHAEBQEAULOCALE@@@Z
  ?AddItem@CDrawItemComposite@@QEAAXPEAVCDrawItem@@@Z=C:\Windows\System32\spwizeng.?AddItem@CDrawItemComposite@@QEAAXPEAVCDrawItem@@@Z
  ?AddPage@PageContainer@@QEAAXPEAVWizardPage@@@Z=C:\Windows\System32\spwizeng.?AddPage@PageContainer@@QEAAXPEAVWizardPage@@@Z
  ?AddPage@WizardUI@@QEAAHPEAVWizardPage@@@Z=C:\Windows\System32\spwizeng.?AddPage@WizardUI@@QEAAHPEAVWizardPage@@@Z
  ?AddRef@CWndObj@@UEAAKXZ=C:\Windows\System32\spwizeng.?AddRef@CWndObj@@UEAAKXZ
  ?AllocSysString@?$CStringT@GV?$StrTraitATL@GV?$ChTraitsCRT@G@ATL@@@ATL@@@ATL@@QEBAPEAGXZ=C:\Windows\System32\spwizeng.?AllocSysString@?$CStringT@GV?$StrTraitATL@GV?$ChTraitsCRT@G@ATL@@@ATL@@@ATL@@QEBAPEAGXZ
  ?Append@?$CSimpleStringT@G$0A@@ATL@@QEAAXAEBV12@@Z=C:\Windows\System32\spwizeng.?Append@?$CSimpleStringT@G$0A@@ATL@@QEAAXAEBV12@@Z
  ?Append@?$CSimpleStringT@G$0A@@ATL@@QEAAXPEBG@Z=C:\Windows\System32\spwizeng.?Append@?$CSimpleStringT@G$0A@@ATL@@QEAAXPEBG@Z
  ?Append@?$CSimpleStringT@G$0A@@ATL@@QEAAXPEBGH@Z=C:\Windows\System32\spwizeng.?Append@?$CSimpleStringT@G$0A@@ATL@@QEAAXPEBGH@Z
  ?AppendChar@?$CSimpleStringT@G$0A@@ATL@@QEAAXG@Z=C:\Windows\System32\spwizeng.?AppendChar@?$CSimpleStringT@G$0A@@ATL@@QEAAXG@Z
  ?AppendFormat@?$CStringT@GV?$StrTraitATL@GV?$ChTraitsCRT@G@ATL@@@ATL@@@ATL@@QEAAXIZZ=C:\Windows\System32\spwizeng.?AppendFormat@?$CStringT@GV?$StrTraitATL@GV?$ChTraitsCRT@G@ATL@@@ATL@@@ATL@@QEAAXIZZ
  ?AppendFormat@?$CStringT@GV?$StrTraitATL@GV?$ChTraitsCRT@G@ATL@@@ATL@@@ATL@@QEAAXPEBGZZ=C:\Windows\System32\spwizeng.?AppendFormat@?$CStringT@GV?$StrTraitATL@GV?$ChTraitsCRT@G@ATL@@@ATL@@@ATL@@QEAAXPEBGZZ
  ?AppendFormatV@?$CStringT@GV?$StrTraitATL@GV?$ChTraitsCRT@G@ATL@@@ATL@@@ATL@@QEAAXPEBGPEAD@Z=C:\Windows\System32\spwizeng.?AppendFormatV@?$CStringT@GV?$StrTraitATL@GV?$ChTraitsCRT@G@ATL@@@ATL@@@ATL@@QEAAXPEBGPEAD@Z
  ?Attach@?$CSimpleStringT@G$0A@@ATL@@AEAAXPEAUCStringData@2@@Z=C:\Windows\System32\spwizeng.?Attach@?$CSimpleStringT@G$0A@@ATL@@AEAAXPEAUCStringData@2@@Z
  ?Back@Navigator@@UEAAPEAVWizardPage@@PEAVWizardNode@@@Z=C:\Windows\System32\spwizeng.?Back@Navigator@@UEAAPEAVWizardPage@@PEAVWizardNode@@@Z
  ?Back@WizardEx@@UEAAPEAVWizardPage@@PEAVWizardNode@@@Z=C:\Windows\System32\spwizeng.?Back@WizardEx@@UEAAPEAVWizardPage@@PEAVWizardNode@@@Z
  ?BlendNormal32@CDIB@@CAXPEAV1@0@Z=C:\Windows\System32\spwizeng.?BlendNormal32@CDIB@@CAXPEAV1@0@Z
  ?ButtonContinue@WizardHandler@@QEAAPEAVCCustomButtonEx@@XZ=C:\Windows\System32\spwizeng.?ButtonContinue@WizardHandler@@QEAAPEAVCCustomButtonEx@@XZ
  ?ButtonContinue@WizardRoot@@QEAAAEAPEAVCCustomButtonEx@@XZ=C:\Windows\System32\spwizeng.?ButtonContinue@WizardRoot@@QEAAAEAPEAVCCustomButtonEx@@XZ
  ?ButtonFinish@WizardHandler@@QEAAPEAVCCustomButtonEx@@XZ=C:\Windows\System32\spwizeng.?ButtonFinish@WizardHandler@@QEAAPEAVCCustomButtonEx@@XZ
  ?ButtonFinish@WizardRoot@@QEAAAEAPEAVCCustomButtonEx@@XZ=C:\Windows\System32\spwizeng.?ButtonFinish@WizardRoot@@QEAAAEAPEAVCCustomButtonEx@@XZ
  ?CStringExpandEnvironmentStrings@@YA?AV?$CStringT@GV?$StrTraitATL@GV?$ChTraitsCRT@G@ATL@@@ATL@@@ATL@@V12@@Z=C:\Windows\System32\spwizeng.?CStringExpandEnvironmentStrings@@YA?AV?$CStringT@GV?$StrTraitATL@GV?$ChTraitsCRT@G@ATL@@@ATL@@@ATL@@V12@@Z
  ?CStringGetModuleFileName@@YA?AV?$CStringT@GV?$StrTraitATL@GV?$ChTraitsCRT@G@ATL@@@ATL@@@ATL@@PEAUHINSTANCE__@@@Z=C:\Windows\System32\spwizeng.?CStringGetModuleFileName@@YA?AV?$CStringT@GV?$StrTraitATL@GV?$ChTraitsCRT@G@ATL@@@ATL@@@ATL@@PEAUHINSTANCE__@@@Z
  ?CStringGetPrivateProfileString@@YA?AV?$CStringT@GV?$StrTraitATL@GV?$ChTraitsCRT@G@ATL@@@ATL@@@ATL@@PEBG000@Z=C:\Windows\System32\spwizeng.?CStringGetPrivateProfileString@@YA?AV?$CStringT@GV?$StrTraitATL@GV?$ChTraitsCRT@G@ATL@@@ATL@@@ATL@@PEBG000@Z
  ?CStringGetWindowText@@YA?AV?$CStringT@GV?$StrTraitATL@GV?$ChTraitsCRT@G@ATL@@@ATL@@@ATL@@PEAUHWND__@@@Z=C:\Windows\System32\spwizeng.?CStringGetWindowText@@YA?AV?$CStringT@GV?$StrTraitATL@GV?$ChTraitsCRT@G@ATL@@@ATL@@@ATL@@PEAUHWND__@@@Z
  ?CStringGetWindowsDirectory@@YA?AV?$CStringT@GV?$StrTraitATL@GV?$ChTraitsCRT@G@ATL@@@ATL@@@ATL@@XZ=C:\Windows\System32\spwizeng.?CStringGetWindowsDirectory@@YA?AV?$CStringT@GV?$StrTraitATL@GV?$ChTraitsCRT@G@ATL@@@ATL@@@ATL@@XZ
  ?CalcAppSize@WizardUI@@AEAAXXZ=C:\Windows\System32\spwizeng.?CalcAppSize@WizardUI@@AEAAXXZ
  ?CanPageBeActivated@LanguageNeutralSelectionDialogBase@@UEAAHW4Direction@@PEAH@Z=C:\Windows\System32\spwizeng.?CanPageBeActivated@LanguageNeutralSelectionDialogBase@@UEAAHW4Direction@@PEAH@Z
  ?CanPageBeActivated@LanguageSelectionDialogBase@@UEAAHW4Direction@@PEAH@Z=C:\Windows\System32\spwizeng.?CanPageBeActivated@LanguageSelectionDialogBase@@UEAAHW4Direction@@PEAH@Z
  ?CanPageBeActivated@WizardHandler@@EEAAHW4Direction@@PEAH@Z=C:\Windows\System32\spwizeng.?CanPageBeActivated@WizardHandler@@EEAAHW4Direction@@PEAH@Z
  ?CanPageBeActivated@WizardRoot@@UEAAHW4Direction@@PEAH@Z=C:\Windows\System32\spwizeng.?CanPageBeActivated@WizardRoot@@UEAAHW4Direction@@PEAH@Z
  ?CanPageBeActivatedWrapper@WizardHandler@@QEAAHW4Direction@@PEAH@Z=C:\Windows\System32\spwizeng.?CanPageBeActivatedWrapper@WizardHandler@@QEAAHW4Direction@@PEAH@Z
  ?Cancel@Navigator@@UEAAPEAVWizardPage@@XZ=C:\Windows\System32\spwizeng.?Cancel@Navigator@@UEAAPEAVWizardPage@@XZ
  ?CenterApp@WizardUI@@AEAAXPEAUHWND__@@UtagRECT@@@Z=C:\Windows\System32\spwizeng.?CenterApp@WizardUI@@AEAAXPEAUHWND__@@UtagRECT@@@Z
  ?ChangeUiLanguage@CResourceModule@@SAHPEBG@Z=C:\Windows\System32\spwizeng.?ChangeUiLanguage@CResourceModule@@SAHPEBG@Z
  ?CharToOemA@?$CStringT@GV?$StrTraitATL@GV?$ChTraitsCRT@G@ATL@@@ATL@@@ATL@@QEAAXXZ=C:\Windows\System32\spwizeng.?CharToOemA@?$CStringT@GV?$StrTraitATL@GV?$ChTraitsCRT@G@ATL@@@ATL@@@ATL@@QEAAXXZ
  ?CheckImplicitLoad@?$CStringT@GV?$StrTraitATL@GV?$ChTraitsCRT@G@ATL@@@ATL@@@ATL@@AEAA_NPEBX@Z=C:\Windows\System32\spwizeng.?CheckImplicitLoad@?$CStringT@GV?$StrTraitATL@GV?$ChTraitsCRT@G@ATL@@@ATL@@@ATL@@AEAA_NPEBX@Z
  ?ClearCursorWait@CCursor@@QEAAXXZ=C:\Windows\System32\spwizeng.?ClearCursorWait@CCursor@@QEAAXXZ
  ?ClearString@MyString@@QEAAXXZ=C:\Windows\System32\spwizeng.?ClearString@MyString@@QEAAXXZ
  ?ClearString@PIDStringView@@QEAAXXZ=C:\Windows\System32\spwizeng.?ClearString@PIDStringView@@QEAAXXZ
  ?CloneData@?$CSimpleStringT@G$0A@@ATL@@CAPEAUCStringData@2@PEAU32@@Z=C:\Windows\System32\spwizeng.?CloneData@?$CSimpleStringT@G$0A@@ATL@@CAPEAUCStringData@2@PEAU32@@Z
  ?Collate@?$CStringT@GV?$StrTraitATL@GV?$ChTraitsCRT@G@ATL@@@ATL@@@ATL@@QEBAHPEBG@Z=C:\Windows\System32\spwizeng.?Collate@?$CStringT@GV?$StrTraitATL@GV?$ChTraitsCRT@G@ATL@@@ATL@@@ATL@@QEBAHPEBG@Z
  ?CollateNoCase@?$CStringT@GV?$StrTraitATL@GV?$ChTraitsCRT@G@ATL@@@ATL@@@ATL@@QEBAHPEBG@Z=C:\Windows\System32\spwizeng.?CollateNoCase@?$CStringT@GV?$StrTraitATL@GV?$ChTraitsCRT@G@ATL@@@ATL@@@ATL@@QEBAHPEBG@Z
  ?CommandHandled@WizardRoot@@QEAAAEAHXZ=C:\Windows\System32\spwizeng.?CommandHandled@WizardRoot@@QEAAAEAHXZ
  ?Compare@?$CStringT@GV?$StrTraitATL@GV?$ChTraitsCRT@G@ATL@@@ATL@@@ATL@@QEBAHPEBG@Z=C:\Windows\System32\spwizeng.?Compare@?$CStringT@GV?$StrTraitATL@GV?$ChTraitsCRT@G@ATL@@@ATL@@@ATL@@QEBAHPEBG@Z
  ?CompareNoCase@?$CStringT@GV?$StrTraitATL@GV?$ChTraitsCRT@G@ATL@@@ATL@@@ATL@@QEBAHPEBG@Z=C:\Windows\System32\spwizeng.?CompareNoCase@?$CStringT@GV?$StrTraitATL@GV?$ChTraitsCRT@G@ATL@@@ATL@@@ATL@@QEBAHPEBG@Z
  ?ComposeOffscreen@CDrawItem@@UEAAXPEAUHWND__@@@Z=C:\Windows\System32\spwizeng.?ComposeOffscreen@CDrawItem@@UEAAXPEAUHWND__@@@Z
  ?ComposeOffscreen@CDrawItemComposite@@UEAAXPEAUHWND__@@@Z=C:\Windows\System32\spwizeng.?ComposeOffscreen@CDrawItemComposite@@UEAAXPEAUHWND__@@@Z
  ?ComposeOffscreen@CScreenText@@UEAAXPEAUHWND__@@@Z=C:\Windows\System32\spwizeng.?ComposeOffscreen@CScreenText@@UEAAXPEAUHWND__@@@Z
  ?Concatenate@?$CSimpleStringT@G$0A@@ATL@@KAXAEAV12@PEBGH1H@Z=C:\Windows\System32\spwizeng.?Concatenate@?$CSimpleStringT@G$0A@@ATL@@KAXAEAV12@PEBGH1H@Z
  ?Construct@?$CStringT@GV?$StrTraitATL@GV?$ChTraitsCRT@G@ATL@@@ATL@@@ATL@@SAXPEAV12@@Z=C:\Windows\System32\spwizeng.?Construct@?$CStringT@GV?$StrTraitATL@GV?$ChTraitsCRT@G@ATL@@@ATL@@@ATL@@SAXPEAV12@@Z
  ?ConvertColorKeyToAlpha@CDIB@@QEAAXXZ=C:\Windows\System32\spwizeng.?ConvertColorKeyToAlpha@CDIB@@QEAAXXZ
  ?CopyChars@?$CSimpleStringT@G$0A@@ATL@@SAXPEAGPEBGH@Z=C:\Windows\System32\spwizeng.?CopyChars@?$CSimpleStringT@G$0A@@ATL@@SAXPEAGPEBGH@Z
  ?CopyChars@?$CSimpleStringT@G$0A@@ATL@@SAXPEAG_KPEBGH@Z=C:\Windows\System32\spwizeng.?CopyChars@?$CSimpleStringT@G$0A@@ATL@@SAXPEAG_KPEBGH@Z
  ?CopyCharsOverlapped@?$CSimpleStringT@G$0A@@ATL@@SAXPEAGPEBGH@Z=C:\Windows\System32\spwizeng.?CopyCharsOverlapped@?$CSimpleStringT@G$0A@@ATL@@SAXPEAGPEBGH@Z
  ?CopyCharsOverlapped@?$CSimpleStringT@G$0A@@ATL@@SAXPEAG_KPEBGH@Z=C:\Windows\System32\spwizeng.?CopyCharsOverlapped@?$CSimpleStringT@G$0A@@ATL@@SAXPEAG_KPEBGH@Z
  ?Create@CCustomButtonEx@@SAPEAV1@PEAUHINSTANCE__@@0PEAUHWND__@@@Z=C:\Windows\System32\spwizeng.?Create@CCustomButtonEx@@SAPEAV1@PEAUHINSTANCE__@@0PEAUHWND__@@@Z
  ?Create@CCustomButtonEx@@SAPEAV1@PEAUHINSTANCE__@@0PEAUHWND__@@I@Z=C:\Windows\System32\spwizeng.?Create@CCustomButtonEx@@SAPEAV1@PEAUHINSTANCE__@@0PEAUHWND__@@I@Z
  ?Create@CCustomButtonEx@@SAPEAV1@PEAUHINSTANCE__@@0PEAUHWND__@@IPEAUHDC__@@1@Z=C:\Windows\System32\spwizeng.?Create@CCustomButtonEx@@SAPEAV1@PEAUHINSTANCE__@@0PEAUHWND__@@IPEAUHDC__@@1@Z
  ?Create@CCustomButtonEx@@SAPEAV1@PEAUHINSTANCE__@@0PEAUHWND__@@PEAUHDC__@@1@Z=C:\Windows\System32\spwizeng.?Create@CCustomButtonEx@@SAPEAV1@PEAUHINSTANCE__@@0PEAUHWND__@@PEAUHDC__@@1@Z
  ?CreateAppWindow@WizardUI@@AEAAXXZ=C:\Windows\System32\spwizeng.?CreateAppWindow@WizardUI@@AEAAXXZ
  ?CreateEx@CCustomButtonEx@@SAPEAV1@PEAUHINSTANCE__@@0PEAUHWND__@@IQEAU_Button_Data@@PEAUHDC__@@1@Z=C:\Windows\System32\spwizeng.?CreateEx@CCustomButtonEx@@SAPEAV1@PEAUHINSTANCE__@@0PEAUHWND__@@IQEAU_Button_Data@@PEAUHDC__@@1@Z
  ?CreateEx@CCustomButtonEx@@SAPEAV1@PEAUHINSTANCE__@@0PEAUHWND__@@QEAU_Button_Data@@PEAUHDC__@@1@Z=C:\Windows\System32\spwizeng.?CreateEx@CCustomButtonEx@@SAPEAV1@PEAUHINSTANCE__@@0PEAUHWND__@@QEAU_Button_Data@@PEAUHDC__@@1@Z
  ?CreateFromHwnd@CDIB@@QEAAHPEAUHWND__@@@Z=C:\Windows\System32\spwizeng.?CreateFromHwnd@CDIB@@QEAAHPEAUHWND__@@@Z
  ?CreateIndirect@CCustomButtonEx@@SAPEAV1@PEAUHINSTANCE__@@0PEAUHWND__@@IQEAU_Button_Data@@@Z=C:\Windows\System32\spwizeng.?CreateIndirect@CCustomButtonEx@@SAPEAV1@PEAUHINSTANCE__@@0PEAUHWND__@@IQEAU_Button_Data@@@Z
  ?CreateIndirect@CCustomButtonEx@@SAPEAV1@PEAUHINSTANCE__@@0PEAUHWND__@@QEAU_Button_Data@@@Z=C:\Windows\System32\spwizeng.?CreateIndirect@CCustomButtonEx@@SAPEAV1@PEAUHINSTANCE__@@0PEAUHWND__@@QEAU_Button_Data@@@Z
  ?CreateNavWindow@WizardUI@@AEAAHXZ=C:\Windows\System32\spwizeng.?CreateNavWindow@WizardUI@@AEAAHXZ
  ?CreateNode@WizardBranch@@UEAAPEAVWizardNode@@IPEAVWizardEx@@PEAVWizardUI@@@Z=C:\Windows\System32\spwizeng.?CreateNode@WizardBranch@@UEAAPEAVWizardNode@@IPEAVWizardEx@@PEAVWizardUI@@@Z
  ?CreateNode@WizardDesciption@@UEAAPEAVWizardNode@@IPEAVWizardEx@@PEAVWizardUI@@@Z=C:\Windows\System32\spwizeng.?CreateNode@WizardDesciption@@UEAAPEAVWizardNode@@IPEAVWizardEx@@PEAVWizardUI@@@Z
  ?CreateNode@WizardSummary@@UEAAPEAVWizardNode@@IPEAVWizardEx@@PEAVWizardUI@@@Z=C:\Windows\System32\spwizeng.?CreateNode@WizardSummary@@UEAAPEAVWizardNode@@IPEAVWizardEx@@PEAVWizardUI@@@Z
  ?CreateNode@WizardVariation@@UEAAPEAVWizardNode@@IPEAVWizardEx@@PEAVWizardUI@@@Z=C:\Windows\System32\spwizeng.?CreateNode@WizardVariation@@UEAAPEAVWizardNode@@IPEAVWizardEx@@PEAVWizardUI@@@Z
  ?CreateNode@Wizard_PageDesciption@@UEAAPEAVWizardNode@@IPEAVWizardEx@@PEAVWizardUI@@@Z=C:\Windows\System32\spwizeng.?CreateNode@Wizard_PageDesciption@@UEAAPEAVWizardNode@@IPEAVWizardEx@@PEAVWizardUI@@@Z
  ?CreateNodeHelper@WizardCollection@@QEAAPEAVWizardEx@@IPEAV2@PEAVWizardUI@@@Z=C:\Windows\System32\spwizeng.?CreateNodeHelper@WizardCollection@@QEAAPEAVWizardEx@@IPEAV2@PEAVWizardUI@@@Z
  ?CreateProgressWindow@WizardUI@@AEAAHXZ=C:\Windows\System32\spwizeng.?CreateProgressWindow@WizardUI@@AEAAHXZ
  ?CreatePropertySheet@WizardUI@@AEAAXXZ=C:\Windows\System32\spwizeng.?CreatePropertySheet@WizardUI@@AEAAXXZ
  ?CreateScrWindow@WizardUI@@AEAAXXZ=C:\Windows\System32\spwizeng.?CreateScrWindow@WizardUI@@AEAAXXZ
  ?CreateWindows@WizardUI@@AEAAXXZ=C:\Windows\System32\spwizeng.?CreateWindows@WizardUI@@AEAAXXZ
  ?Delete@?$CStringT@GV?$StrTraitATL@GV?$ChTraitsCRT@G@ATL@@@ATL@@@ATL@@QEAAHHH@Z=C:\Windows\System32\spwizeng.?Delete@?$CStringT@GV?$StrTraitATL@GV?$ChTraitsCRT@G@ATL@@@ATL@@@ATL@@QEAAHHH@Z
  ?DeleteBackground@WizardUI@@CAXXZ=C:\Windows\System32\spwizeng.?DeleteBackground@WizardUI@@CAXXZ
  ?Destroy@CCustomButtonEx@@SAXPEAV1@@Z=C:\Windows\System32\spwizeng.?Destroy@CCustomButtonEx@@SAXPEAV1@@Z
  ?DestroyAllStandardButtons@WizardRoot@@QEAAXXZ=C:\Windows\System32\spwizeng.?DestroyAllStandardButtons@WizardRoot@@QEAAXXZ
  ?DestroyAppWindow@WizardUI@@AEAAXXZ=C:\Windows\System32\spwizeng.?DestroyAppWindow@WizardUI@@AEAAXXZ
  ?DestroyDialog@CAttachDataDlg@@QEAAXI_K_J@Z=C:\Windows\System32\spwizeng.?DestroyDialog@CAttachDataDlg@@QEAAXI_K_J@Z
  ?DestroyDialog@CGenericNavWindow@@AEAAXXZ=C:\Windows\System32\spwizeng.?DestroyDialog@CGenericNavWindow@@AEAAXXZ
  ?DestroyNavWindow@WizardUI@@AEAAXXZ=C:\Windows\System32\spwizeng.?DestroyNavWindow@WizardUI@@AEAAXXZ
  ?DestroyProgressWindow@WizardUI@@AEAAXXZ=C:\Windows\System32\spwizeng.?DestroyProgressWindow@WizardUI@@AEAAXXZ
  ?DestroyPropertySheet@WizardUI@@AEAAXXZ=C:\Windows\System32\spwizeng.?DestroyPropertySheet@WizardUI@@AEAAXXZ
  ?DestroyScrWindow@WizardUI@@AEAAXXZ=C:\Windows\System32\spwizeng.?DestroyScrWindow@WizardUI@@AEAAXXZ
  ?DestroyStandardButton@WizardRoot@@QEAAXPEAVCCustomButtonEx@@@Z=C:\Windows\System32\spwizeng.?DestroyStandardButton@WizardRoot@@QEAAXPEAVCCustomButtonEx@@@Z
  ?DestroyWindows@WizardUI@@AEAAXXZ=C:\Windows\System32\spwizeng.?DestroyWindows@WizardUI@@AEAAXXZ
  ?DibHeight@CDIB@@QEBAJXZ=C:\Windows\System32\spwizeng.?DibHeight@CDIB@@QEBAJXZ
  ?DibWidth@CDIB@@QEBAJXZ=C:\Windows\System32\spwizeng.?DibWidth@CDIB@@QEBAJXZ
  ?DoCancel@Win32Navigator@@UEAAXXZ=C:\Windows\System32\spwizeng.?DoCancel@Win32Navigator@@UEAAXXZ
  ?DoGoToPageIndex@Win32Navigator@@UEAAXH@Z=C:\Windows\System32\spwizeng.?DoGoToPageIndex@Win32Navigator@@UEAAXH@Z
  ?Draw@CAnimation@@UEAAHPEAUHDC__@@@Z=C:\Windows\System32\spwizeng.?Draw@CAnimation@@UEAAHPEAUHDC__@@@Z
  ?Draw@CDIB@@QEAAHPEAUHDC__@@HH@Z=C:\Windows\System32\spwizeng.?Draw@CDIB@@QEAAHPEAUHDC__@@HH@Z
  ?Draw@CDIB@@QEAAHPEAUHDC__@@HHUtagRECT@@@Z=C:\Windows\System32\spwizeng.?Draw@CDIB@@QEAAHPEAUHDC__@@HHUtagRECT@@@Z
  ?Draw@CDrawBackground@@UEAAHPEAUHDC__@@@Z=C:\Windows\System32\spwizeng.?Draw@CDrawBackground@@UEAAHPEAUHDC__@@@Z
  ?Draw@CDrawItem@@QEAAHPEAUHWND__@@@Z=C:\Windows\System32\spwizeng.?Draw@CDrawItem@@QEAAHPEAUHWND__@@@Z
  ?Draw@CDrawItem@@QEAAHXZ=C:\Windows\System32\spwizeng.?Draw@CDrawItem@@QEAAHXZ
  ?Draw@CDrawItemComposite@@UEAAHPEAUHDC__@@@Z=C:\Windows\System32\spwizeng.?Draw@CDrawItemComposite@@UEAAHPEAUHDC__@@@Z
  ?Draw@CScreenDIB@@UEAAHPEAUHDC__@@@Z=C:\Windows\System32\spwizeng.?Draw@CScreenDIB@@UEAAHPEAUHDC__@@@Z
  ?Draw@CScreenText@@UEAAHPEAUHDC__@@@Z=C:\Windows\System32\spwizeng.?Draw@CScreenText@@UEAAHPEAUHDC__@@@Z
  ?DrawAlphaBlended@CDIB@@AEAAHPEAUHDC__@@HHUtagRECT@@@Z=C:\Windows\System32\spwizeng.?DrawAlphaBlended@CDIB@@AEAAHPEAUHDC__@@HHUtagRECT@@@Z
  ?DrawColorKey@CDIB@@AEAAHPEAUHDC__@@HHUtagRECT@@@Z=C:\Windows\System32\spwizeng.?DrawColorKey@CDIB@@AEAAHPEAUHDC__@@HHUtagRECT@@@Z
  ?DrawCore@CDIB@@AEAAHPEAUHDC__@@HHUtagRECT@@H@Z=C:\Windows\System32\spwizeng.?DrawCore@CDIB@@AEAAHPEAUHDC__@@HHUtagRECT@@H@Z
  ?DrawLVItem@LanguageNeutralSelectionDialogBase@@AEAA_JPEAUtagNMLVCUSTOMDRAW@@@Z=C:\Windows\System32\spwizeng.?DrawLVItem@LanguageNeutralSelectionDialogBase@@AEAA_JPEAUtagNMLVCUSTOMDRAW@@@Z
  ?DrawOpaque@CDIB@@QEAAHPEAUHDC__@@HH@Z=C:\Windows\System32\spwizeng.?DrawOpaque@CDIB@@QEAAHPEAUHDC__@@HH@Z
  ?DrawOpaque@CDIB@@QEAAHPEAUHDC__@@HHUtagRECT@@@Z=C:\Windows\System32\spwizeng.?DrawOpaque@CDIB@@QEAAHPEAUHDC__@@HHUtagRECT@@@Z
  ?DumpToFile@CDIB@@QEAAHPEBG@Z=C:\Windows\System32\spwizeng.?DumpToFile@CDIB@@QEAAHPEBG@Z
  ?EditStreamCallbackAnsi@CRichEditControl@@CAK_KPEAEJPEAJ@Z=C:\Windows\System32\spwizeng.?EditStreamCallbackAnsi@CRichEditControl@@CAK_KPEAEJPEAJ@Z
  ?EditStreamCallbackUnicode@CRichEditControl@@CAK_KPEAEJPEAJ@Z=C:\Windows\System32\spwizeng.?EditStreamCallbackUnicode@CRichEditControl@@CAK_KPEAEJPEAJ@Z
  ?Empty@?$CSimpleStringT@G$0A@@ATL@@QEAAXXZ=C:\Windows\System32\spwizeng.?Empty@?$CSimpleStringT@G$0A@@ATL@@QEAAXXZ
  ?EnableInput@WizardUI@@QEAAXH@Z=C:\Windows\System32\spwizeng.?EnableInput@WizardUI@@QEAAXH@Z
  ?EndUI@WizardUI@@QEAAHXZ=C:\Windows\System32\spwizeng.?EndUI@WizardUI@@QEAAHXZ
  ?Enter@CCritSec@@UEAAXXZ=C:\Windows\System32\spwizeng.?Enter@CCritSec@@UEAAXXZ
  ?EnteringTrackedWnd@CCursor@@QEAAHPEAUHWND__@@@Z=C:\Windows\System32\spwizeng.?EnteringTrackedWnd@CCursor@@QEAAHPEAUHWND__@@@Z
  ?Find@?$CSimpleArray@PEAGV?$CSimpleArrayEqualHelper@PEAG@ATL@@@ATL@@QEBAHAEBQEAG@Z=C:\Windows\System32\spwizeng.?Find@?$CSimpleArray@PEAGV?$CSimpleArrayEqualHelper@PEAG@ATL@@@ATL@@QEBAHAEBQEAG@Z
  ?Find@?$CSimpleArray@PEAUIResourceModuleEvent@@V?$CSimpleArrayEqualHelper@PEAUIResourceModuleEvent@@@ATL@@@ATL@@QEBAHAEBQEAUIResourceModuleEvent@@@Z=C:\Windows\System32\spwizeng.?Find@?$CSimpleArray@PEAUIResourceModuleEvent@@V?$CSimpleArrayEqualHelper@PEAUIResourceModuleEvent@@@ATL@@@ATL@@QEBAHAEBQEAUIResourceModuleEvent@@@Z
  ?Find@?$CSimpleArray@PEAUKEYBOARD@@V?$CSimpleArrayEqualHelper@PEAUKEYBOARD@@@ATL@@@ATL@@QEBAHAEBQEAUKEYBOARD@@@Z=C:\Windows\System32\spwizeng.?Find@?$CSimpleArray@PEAUKEYBOARD@@V?$CSimpleArrayEqualHelper@PEAUKEYBOARD@@@ATL@@@ATL@@QEBAHAEBQEAUKEYBOARD@@@Z
  ?Find@?$CSimpleArray@PEAULANGUAGE@@V?$CSimpleArrayEqualHelper@PEAULANGUAGE@@@ATL@@@ATL@@QEBAHAEBQEAULANGUAGE@@@Z=C:\Windows\System32\spwizeng.?Find@?$CSimpleArray@PEAULANGUAGE@@V?$CSimpleArrayEqualHelper@PEAULANGUAGE@@@ATL@@@ATL@@QEBAHAEBQEAULANGUAGE@@@Z
  ?Find@?$CSimpleArray@PEAULOCALE@@V?$CSimpleArrayEqualHelper@PEAULOCALE@@@ATL@@@ATL@@QEBAHAEBQEAULOCALE@@@Z=C:\Windows\System32\spwizeng.?Find@?$CSimpleArray@PEAULOCALE@@V?$CSimpleArrayEqualHelper@PEAULOCALE@@@ATL@@@ATL@@QEBAHAEBQEAULOCALE@@@Z
  ?Find@?$CStringT@GV?$StrTraitATL@GV?$ChTraitsCRT@G@ATL@@@ATL@@@ATL@@QEBAHGH@Z=C:\Windows\System32\spwizeng.?Find@?$CStringT@GV?$StrTraitATL@GV?$ChTraitsCRT@G@ATL@@@ATL@@@ATL@@QEBAHGH@Z
  ?Find@?$CStringT@GV?$StrTraitATL@GV?$ChTraitsCRT@G@ATL@@@ATL@@@ATL@@QEBAHPEBGH@Z=C:\Windows\System32\spwizeng.?Find@?$CStringT@GV?$StrTraitATL@GV?$ChTraitsCRT@G@ATL@@@ATL@@@ATL@@QEBAHPEBGH@Z
  ?FindOneOf@?$CStringT@GV?$StrTraitATL@GV?$ChTraitsCRT@G@ATL@@@ATL@@@ATL@@QEBAHPEBG@Z=C:\Windows\System32\spwizeng.?FindOneOf@?$CStringT@GV?$StrTraitATL@GV?$ChTraitsCRT@G@ATL@@@ATL@@@ATL@@QEBAHPEBG@Z
  ?FirstVisit@WizardHandler@@EEAAXXZ=C:\Windows\System32\spwizeng.?FirstVisit@WizardHandler@@EEAAXXZ
  ?Fork@?$CSimpleStringT@G$0A@@ATL@@AEAAXH@Z=C:\Windows\System32\spwizeng.?Fork@?$CSimpleStringT@G$0A@@ATL@@AEAAXH@Z
  ?Format@?$CStringT@GV?$StrTraitATL@GV?$ChTraitsCRT@G@ATL@@@ATL@@@ATL@@QEAAXIZZ=C:\Windows\System32\spwizeng.?Format@?$CStringT@GV?$StrTraitATL@GV?$ChTraitsCRT@G@ATL@@@ATL@@@ATL@@QEAAXIZZ
  ?Format@?$CStringT@GV?$StrTraitATL@GV?$ChTraitsCRT@G@ATL@@@ATL@@@ATL@@QEAAXPEBGZZ=C:\Windows\System32\spwizeng.?Format@?$CStringT@GV?$StrTraitATL@GV?$ChTraitsCRT@G@ATL@@@ATL@@@ATL@@QEAAXPEBGZZ
  ?FormatMessageV@?$CStringT@GV?$StrTraitATL@GV?$ChTraitsCRT@G@ATL@@@ATL@@@ATL@@QEAAXPEBGPEAPEAD@Z=C:\Windows\System32\spwizeng.?FormatMessageV@?$CStringT@GV?$StrTraitATL@GV?$ChTraitsCRT@G@ATL@@@ATL@@@ATL@@QEAAXPEBGPEAPEAD@Z
  ?FormatMessageW@?$CStringT@GV?$StrTraitATL@GV?$ChTraitsCRT@G@ATL@@@ATL@@@ATL@@QEAAXIZZ=C:\Windows\System32\spwizeng.?FormatMessageW@?$CStringT@GV?$StrTraitATL@GV?$ChTraitsCRT@G@ATL@@@ATL@@@ATL@@QEAAXIZZ
  ?FormatMessageW@?$CStringT@GV?$StrTraitATL@GV?$ChTraitsCRT@G@ATL@@@ATL@@@ATL@@QEAAXPEBGZZ=C:\Windows\System32\spwizeng.?FormatMessageW@?$CStringT@GV?$StrTraitATL@GV?$ChTraitsCRT@G@ATL@@@ATL@@@ATL@@QEAAXPEBGZZ
  ?FormatV@?$CStringT@GV?$StrTraitATL@GV?$ChTraitsCRT@G@ATL@@@ATL@@@ATL@@QEAAXPEBGPEAD@Z=C:\Windows\System32\spwizeng.?FormatV@?$CStringT@GV?$StrTraitATL@GV?$ChTraitsCRT@G@ATL@@@ATL@@@ATL@@QEAAXPEBGPEAD@Z
  ?FreeExtra@?$CSimpleStringT@G$0A@@ATL@@QEAAXXZ=C:\Windows\System32\spwizeng.?FreeExtra@?$CSimpleStringT@G$0A@@ATL@@QEAAXXZ
  ?FreeInstance@CCursor@@SAXXZ=C:\Windows\System32\spwizeng.?FreeInstance@CCursor@@SAXXZ
  ?FreeInstance@CHighContrast@@SAXXZ=C:\Windows\System32\spwizeng.?FreeInstance@CHighContrast@@SAXXZ
  ?FreeInstance@Navigator@@SAXXZ=C:\Windows\System32\spwizeng.?FreeInstance@Navigator@@SAXXZ
  ?FreeInstance@Win32Navigator@@SAXXZ=C:\Windows\System32\spwizeng.?FreeInstance@Win32Navigator@@SAXXZ
  ?GetAllocLength@?$CSimpleStringT@G$0A@@ATL@@QEBAHXZ=C:\Windows\System32\spwizeng.?GetAllocLength@?$CSimpleStringT@G$0A@@ATL@@QEBAHXZ
  ?GetAllowMirror@CDIB@@QEAAHXZ=C:\Windows\System32\spwizeng.?GetAllowMirror@CDIB@@QEAAHXZ
  ?GetAppBitmap@WizardUI@@SAGXZ=C:\Windows\System32\spwizeng.?GetAppBitmap@WizardUI@@SAGXZ
  ?GetAppDib@AppWindow@@QEAAPEAVCDIB@@XZ=C:\Windows\System32\spwizeng.?GetAppDib@AppWindow@@QEAAPEAVCDIB@@XZ
  ?GetAppDimensions@WizardUI@@SAPEAUProtoPageDimensions@@XZ=C:\Windows\System32\spwizeng.?GetAppDimensions@WizardUI@@SAPEAUProtoPageDimensions@@XZ
  ?GetAppHWnd@WizardUI@@QEAAPEAUHWND__@@XZ=C:\Windows\System32\spwizeng.?GetAppHWnd@WizardUI@@QEAAPEAUHWND__@@XZ
  ?GetAppImage@AppWindow@@QEAAPEAUHDC__@@XZ=C:\Windows\System32\spwizeng.?GetAppImage@AppWindow@@QEAAPEAUHDC__@@XZ
  ?GetAppRect@AppWindow@@QEAAXPEAUtagRECT@@@Z=C:\Windows\System32\spwizeng.?GetAppRect@AppWindow@@QEAAXPEAUtagRECT@@@Z
  ?GetAppWindow@WizardUI@@QEAAPEAVAppWindow@@XZ=C:\Windows\System32\spwizeng.?GetAppWindow@WizardUI@@QEAAPEAVAppWindow@@XZ
  ?GetAppWindowInBackgroundBitmap@ProtoPageDimensions@@QEAA?AUSimpleRect@@XZ=C:\Windows\System32\spwizeng.?GetAppWindowInBackgroundBitmap@ProtoPageDimensions@@QEAA?AUSimpleRect@@XZ
  ?GetAppWindowOffset@ProtoPageDimensions@@QEAA?AUSimpleSize@@XZ=C:\Windows\System32\spwizeng.?GetAppWindowOffset@ProtoPageDimensions@@QEAA?AUSimpleSize@@XZ
  ?GetAppWindowSize@ProtoPageDimensions@@QEAA?AUSimpleSize@@XZ=C:\Windows\System32\spwizeng.?GetAppWindowSize@ProtoPageDimensions@@QEAA?AUSimpleSize@@XZ
  ?GetAt@?$CSimpleStringT@G$0A@@ATL@@QEBAGH@Z=C:\Windows\System32\spwizeng.?GetAt@?$CSimpleStringT@G$0A@@ATL@@QEBAGH@Z
  ?GetBitsPerPixel@CDIB@@QEAAIXZ=C:\Windows\System32\spwizeng.?GetBitsPerPixel@CDIB@@QEAAIXZ
  ?GetBkBrush@CHighContrast@@QEAAPEAUHBRUSH__@@PEAU2@@Z=C:\Windows\System32\spwizeng.?GetBkBrush@CHighContrast@@QEAAPEAUHBRUSH__@@PEAU2@@Z
  ?GetBkColor@CHighContrast@@QEAAKK@Z=C:\Windows\System32\spwizeng.?GetBkColor@CHighContrast@@QEAAKK@Z
  ?GetBottomMargin@ProtoPageDimensions@@QEAAHXZ=C:\Windows\System32\spwizeng.?GetBottomMargin@ProtoPageDimensions@@QEAAHXZ
  ?GetBuffer@?$CSimpleStringT@G$0A@@ATL@@QEAAPEAGH@Z=C:\Windows\System32\spwizeng.?GetBuffer@?$CSimpleStringT@G$0A@@ATL@@QEAAPEAGH@Z
  ?GetBuffer@?$CSimpleStringT@G$0A@@ATL@@QEAAPEAGXZ=C:\Windows\System32\spwizeng.?GetBuffer@?$CSimpleStringT@G$0A@@ATL@@QEAAPEAGXZ
  ?GetBufferSetLength@?$CSimpleStringT@G$0A@@ATL@@QEAAPEAGH@Z=C:\Windows\System32\spwizeng.?GetBufferSetLength@?$CSimpleStringT@G$0A@@ATL@@QEAAPEAGH@Z
  ?GetButtons@WizardPage@@QEAAKXZ=C:\Windows\System32\spwizeng.?GetButtons@WizardPage@@QEAAKXZ
  ?GetButtons@Wizard_PageDesciption@@QEAAKXZ=C:\Windows\System32\spwizeng.?GetButtons@Wizard_PageDesciption@@QEAAKXZ
  ?GetCancelNoShow@WizardUI@@QEAAHXZ=C:\Windows\System32\spwizeng.?GetCancelNoShow@WizardUI@@QEAAHXZ
  ?GetCancelPage@WizardUI@@QEAAPEAVWizardPage@@XZ=C:\Windows\System32\spwizeng.?GetCancelPage@WizardUI@@QEAAPEAVWizardPage@@XZ
  ?GetCanceled@WizardUI@@QEAAHXZ=C:\Windows\System32\spwizeng.?GetCanceled@WizardUI@@QEAAHXZ
  ?GetContainerHwnd@PageContainer@@QEAAPEAUHWND__@@XZ=C:\Windows\System32\spwizeng.?GetContainerHwnd@PageContainer@@QEAAPEAUHWND__@@XZ
  ?GetCreateWizardDialog@Wizard_PageDesciption@@QEAAQ6APEAVWizardRoot@@PEAVWizardPage@@@ZXZ=C:\Windows\System32\spwizeng.?GetCreateWizardDialog@Wizard_PageDesciption@@QEAAQ6APEAVWizardRoot@@PEAVWizardPage@@@ZXZ
  ?GetCurrentPage@WizardUI@@QEAAPEAVWizardPage@@XZ=C:\Windows\System32\spwizeng.?GetCurrentPage@WizardUI@@QEAAPEAVWizardPage@@XZ
  ?GetCurrentPageHwnd@PageContainer@@QEAAPEAUHWND__@@XZ=C:\Windows\System32\spwizeng.?GetCurrentPageHwnd@PageContainer@@QEAAPEAUHWND__@@XZ
  ?GetCurrentPageIndex@PageContainer@@QEAAHXZ=C:\Windows\System32\spwizeng.?GetCurrentPageIndex@PageContainer@@QEAAHXZ
  ?GetCurrentVariation@WizardVariation@@MEAAXXZ=C:\Windows\System32\spwizeng.?GetCurrentVariation@WizardVariation@@MEAAXXZ
  ?GetData@?$CSimpleArray@PEAGV?$CSimpleArrayEqualHelper@PEAG@ATL@@@ATL@@QEBAPEAPEAGXZ=C:\Windows\System32\spwizeng.?GetData@?$CSimpleArray@PEAGV?$CSimpleArrayEqualHelper@PEAG@ATL@@@ATL@@QEBAPEAPEAGXZ
  ?GetData@?$CSimpleArray@PEAUIResourceModuleEvent@@V?$CSimpleArrayEqualHelper@PEAUIResourceModuleEvent@@@ATL@@@ATL@@QEBAPEAPEAUIResourceModuleEvent@@XZ=C:\Windows\System32\spwizeng.?GetData@?$CSimpleArray@PEAUIResourceModuleEvent@@V?$CSimpleArrayEqualHelper@PEAUIResourceModuleEvent@@@ATL@@@ATL@@QEBAPEAPEAUIResourceModuleEvent@@XZ
  ?GetData@?$CSimpleArray@PEAUKEYBOARD@@V?$CSimpleArrayEqualHelper@PEAUKEYBOARD@@@ATL@@@ATL@@QEBAPEAPEAUKEYBOARD@@XZ=C:\Windows\System32\spwizeng.?GetData@?$CSimpleArray@PEAUKEYBOARD@@V?$CSimpleArrayEqualHelper@PEAUKEYBOARD@@@ATL@@@ATL@@QEBAPEAPEAUKEYBOARD@@XZ
  ?GetData@?$CSimpleArray@PEAULANGUAGE@@V?$CSimpleArrayEqualHelper@PEAULANGUAGE@@@ATL@@@ATL@@QEBAPEAPEAULANGUAGE@@XZ=C:\Windows\System32\spwizeng.?GetData@?$CSimpleArray@PEAULANGUAGE@@V?$CSimpleArrayEqualHelper@PEAULANGUAGE@@@ATL@@@ATL@@QEBAPEAPEAULANGUAGE@@XZ
  ?GetData@?$CSimpleArray@PEAULOCALE@@V?$CSimpleArrayEqualHelper@PEAULOCALE@@@ATL@@@ATL@@QEBAPEAPEAULOCALE@@XZ=C:\Windows\System32\spwizeng.?GetData@?$CSimpleArray@PEAULOCALE@@V?$CSimpleArrayEqualHelper@PEAULOCALE@@@ATL@@@ATL@@QEBAPEAPEAULOCALE@@XZ
  ?GetData@?$CSimpleStringT@G$0A@@ATL@@AEBAPEAUCStringData@2@XZ=C:\Windows\System32\spwizeng.?GetData@?$CSimpleStringT@G$0A@@ATL@@AEBAPEAUCStringData@2@XZ
  ?GetData@WizardPage@@QEAAPEAXXZ=C:\Windows\System32\spwizeng.?GetData@WizardPage@@QEAAPEAXXZ
  ?GetDialog@WizardPage@@QEAAPEAVWizardRoot@@XZ=C:\Windows\System32\spwizeng.?GetDialog@WizardPage@@QEAAPEAVWizardRoot@@XZ
  ?GetDib@CScreenDIB@@QEAAAEBVCDIB@@XZ=C:\Windows\System32\spwizeng.?GetDib@CScreenDIB@@QEAAAEBVCDIB@@XZ
  ?GetElement@NavigationStack@@QEAAPEAVWizardNode@@H@Z=C:\Windows\System32\spwizeng.?GetElement@NavigationStack@@QEAAPEAVWizardNode@@H@Z
  ?GetEnvironmentVariableW@?$CStringT@GV?$StrTraitATL@GV?$ChTraitsCRT@G@ATL@@@ATL@@@ATL@@QEAAHPEBG@Z=C:\Windows\System32\spwizeng.?GetEnvironmentVariableW@?$CStringT@GV?$StrTraitATL@GV?$ChTraitsCRT@G@ATL@@@ATL@@@ATL@@QEAAHPEBG@Z
  ?GetFirstPage@WizardEx@@QEAAPEAVWizardPage@@XZ=C:\Windows\System32\spwizeng.?GetFirstPage@WizardEx@@QEAAPEAVWizardPage@@XZ
  ?GetFontCharSet@WizardUI@@QEAAKXZ=C:\Windows\System32\spwizeng.?GetFontCharSet@WizardUI@@QEAAKXZ
  ?GetFontName@WizardUI@@QEAAPEBGXZ=C:\Windows\System32\spwizeng.?GetFontName@WizardUI@@QEAAPEBGXZ
  ?GetFontSize@WizardUI@@QEAAIXZ=C:\Windows\System32\spwizeng.?GetFontSize@WizardUI@@QEAAIXZ
  ?GetHWnd@WizardPage@@QEAAPEAUHWND__@@XZ=C:\Windows\System32\spwizeng.?GetHWnd@WizardPage@@QEAAPEAUHWND__@@XZ
  ?GetHdc@CDIB@@QEBAPEAUHDC__@@XZ=C:\Windows\System32\spwizeng.?GetHdc@CDIB@@QEBAPEAUHDC__@@XZ
  ?GetIndex@WizardNode@@QEAAIXZ=C:\Windows\System32\spwizeng.?GetIndex@WizardNode@@QEAAIXZ
  ?GetInstance@CCursor@@SAPEAV1@XZ=C:\Windows\System32\spwizeng.?GetInstance@CCursor@@SAPEAV1@XZ
  ?GetInstance@CHighContrast@@SAPEAV1@XZ=C:\Windows\System32\spwizeng.?GetInstance@CHighContrast@@SAPEAV1@XZ
  ?GetLength@?$CSimpleStringT@G$0A@@ATL@@QEBAHXZ=C:\Windows\System32\spwizeng.?GetLength@?$CSimpleStringT@G$0A@@ATL@@QEBAHXZ
  ?GetManager@?$CSimpleStringT@G$0A@@ATL@@QEBAPEAUIAtlStringMgr@2@XZ=C:\Windows\System32\spwizeng.?GetManager@?$CSimpleStringT@G$0A@@ATL@@QEBAPEAUIAtlStringMgr@2@XZ
  ?GetManager@?$CStringT@GV?$StrTraitATL@GV?$ChTraitsCRT@G@ATL@@@ATL@@@ATL@@QEBAPEAUIAtlStringMgr@2@XZ=C:\Windows\System32\spwizeng.?GetManager@?$CStringT@GV?$StrTraitATL@GV?$ChTraitsCRT@G@ATL@@@ATL@@@ATL@@QEBAPEAUIAtlStringMgr@2@XZ
  ?GetMaxCount@WizardEx@@QEAAIXZ=C:\Windows\System32\spwizeng.?GetMaxCount@WizardEx@@QEAAIXZ
  ?GetMaxPageIndex@PageContainer@@QEAAHXZ=C:\Windows\System32\spwizeng.?GetMaxPageIndex@PageContainer@@QEAAHXZ
  ?GetNavBarHeight@ProtoPageDimensions@@QEAAHXZ=C:\Windows\System32\spwizeng.?GetNavBarHeight@ProtoPageDimensions@@QEAAHXZ
  ?GetNavHWnd@WizardUI@@QEAAPEAUHWND__@@XZ=C:\Windows\System32\spwizeng.?GetNavHWnd@WizardUI@@QEAAPEAUHWND__@@XZ
  ?GetNavRect@AppWindow@@QEAAXPEAUtagRECT@@@Z=C:\Windows\System32\spwizeng.?GetNavRect@AppWindow@@QEAAXPEAUtagRECT@@@Z
  ?GetPage@WizardEx@@UEAAPEAVWizardPage@@XZ=C:\Windows\System32\spwizeng.?GetPage@WizardEx@@UEAAPEAVWizardPage@@XZ
  ?GetPage@WizardPage@@UEAAPEAV1@XZ=C:\Windows\System32\spwizeng.?GetPage@WizardPage@@UEAAPEAV1@XZ
  ?GetPageContainer@WizardUI@@QEAAPEAVPageContainer@@XZ=C:\Windows\System32\spwizeng.?GetPageContainer@WizardUI@@QEAAPEAVPageContainer@@XZ
  ?GetPageHandler@WizardRoot@@UEAAPEAVWizardHandler@@XZ=C:\Windows\System32\spwizeng.?GetPageHandler@WizardRoot@@UEAAPEAVWizardHandler@@XZ
  ?GetPageHwndFromPageIndex@PageContainer@@QEAAPEAUHWND__@@H@Z=C:\Windows\System32\spwizeng.?GetPageHwndFromPageIndex@PageContainer@@QEAAPEAUHWND__@@H@Z
  ?GetPageIndex@WizardEx@@QEAAIXZ=C:\Windows\System32\spwizeng.?GetPageIndex@WizardEx@@QEAAIXZ
  ?GetPageIndex@WizardNode@@QEAAIXZ=C:\Windows\System32\spwizeng.?GetPageIndex@WizardNode@@QEAAIXZ
  ?GetPageList@WizardEx@@QEAAPEAPEAVWizardNode@@XZ=C:\Windows\System32\spwizeng.?GetPageList@WizardEx@@QEAAPEAPEAVWizardNode@@XZ
  ?GetPageListItem@WizardEx@@QEAAPEAVWizardNode@@H@Z=C:\Windows\System32\spwizeng.?GetPageListItem@WizardEx@@QEAAPEAVWizardNode@@H@Z
  ?GetPageName@WizardRoot@@QEAA?AV?$CStringT@GV?$StrTraitATL@GV?$ChTraitsCRT@G@ATL@@@ATL@@@ATL@@XZ=C:\Windows\System32\spwizeng.?GetPageName@WizardRoot@@QEAA?AV?$CStringT@GV?$StrTraitATL@GV?$ChTraitsCRT@G@ATL@@@ATL@@@ATL@@XZ
  ?GetParent@WizardNode@@QEAAPEAVWizardEx@@XZ=C:\Windows\System32\spwizeng.?GetParent@WizardNode@@QEAAPEAVWizardEx@@XZ
  ?GetPidStr@PIDStringView@@QEAAPEBGXZ=C:\Windows\System32\spwizeng.?GetPidStr@PIDStringView@@QEAAPEBGXZ
  ?GetResourceInstance@CResourceModule@@QEAAPEAUHINSTANCE__@@XZ=C:\Windows\System32\spwizeng.?GetResourceInstance@CResourceModule@@QEAAPEAUHINSTANCE__@@XZ
  ?GetResourceInstance@CResourceModuleFactory@@QEAAPEAUHINSTANCE__@@XZ=C:\Windows\System32\spwizeng.?GetResourceInstance@CResourceModuleFactory@@QEAAPEAUHINSTANCE__@@XZ
  ?GetResourceInstanceLoc@WizardPage@@QEAAPEAUHINSTANCE__@@XZ=C:\Windows\System32\spwizeng.?GetResourceInstanceLoc@WizardPage@@QEAAPEAUHINSTANCE__@@XZ
  ?GetResourceInstanceLoc@WizardUI@@QEAAPEAUHINSTANCE__@@XZ=C:\Windows\System32\spwizeng.?GetResourceInstanceLoc@WizardUI@@QEAAPEAUHINSTANCE__@@XZ
  ?GetResourceInstanceNonLoc@WizardPage@@QEAAPEAUHINSTANCE__@@XZ=C:\Windows\System32\spwizeng.?GetResourceInstanceNonLoc@WizardPage@@QEAAPEAUHINSTANCE__@@XZ
  ?GetResourceInstanceNonLoc@WizardUI@@QEAAPEAUHINSTANCE__@@XZ=C:\Windows\System32\spwizeng.?GetResourceInstanceNonLoc@WizardUI@@QEAAPEAUHINSTANCE__@@XZ
  ?GetResourceLocName@Wizard_PageDesciption@@QEAAPEBGXZ=C:\Windows\System32\spwizeng.?GetResourceLocName@Wizard_PageDesciption@@QEAAPEBGXZ
  ?GetResourceModule@CResourceModuleFactory@@QEAAPEAVCResourceModule@@XZ=C:\Windows\System32\spwizeng.?GetResourceModule@CResourceModuleFactory@@QEAAPEAVCResourceModule@@XZ
  ?GetResourceNonLocName@Wizard_PageDesciption@@QEAAPEBGXZ=C:\Windows\System32\spwizeng.?GetResourceNonLocName@Wizard_PageDesciption@@QEAAPEBGXZ
  ?GetResourceStringLoc@WizardPage@@QEAAPEBGXZ=C:\Windows\System32\spwizeng.?GetResourceStringLoc@WizardPage@@QEAAPEBGXZ
  ?GetRoot@WizardHandler@@QEAAPEAVWizardRoot@@XZ=C:\Windows\System32\spwizeng.?GetRoot@WizardHandler@@QEAAPEAVWizardRoot@@XZ
  ?GetScaledBackgroundBitmapSize@ProtoPageDimensions@@QEAA?AUSimpleSize@@XZ=C:\Windows\System32\spwizeng.?GetScaledBackgroundBitmapSize@ProtoPageDimensions@@QEAA?AUSimpleSize@@XZ
  ?GetScalingFactor@ProtoPageDimensions@@QEAAXAEAM@Z=C:\Windows\System32\spwizeng.?GetScalingFactor@ProtoPageDimensions@@QEAAXAEAM@Z
  ?GetScrHWnd@WizardUI@@QEAAPEAUHWND__@@XZ=C:\Windows\System32\spwizeng.?GetScrHWnd@WizardUI@@QEAAPEAUHWND__@@XZ
  ?GetScrImage@ScrWindow@@QEAAPEAUHDC__@@XZ=C:\Windows\System32\spwizeng.?GetScrImage@ScrWindow@@QEAAPEAUHDC__@@XZ
  ?GetScrRect@ScrWindow@@QEAAXPEAUtagRECT@@@Z=C:\Windows\System32\spwizeng.?GetScrRect@ScrWindow@@QEAAXPEAUtagRECT@@@Z
  ?GetScrWindow@WizardUI@@QEAAPEAVScrWindow@@XZ=C:\Windows\System32\spwizeng.?GetScrWindow@WizardUI@@QEAAPEAVScrWindow@@XZ
  ?GetScreenBitmap@WizardUI@@SAGXZ=C:\Windows\System32\spwizeng.?GetScreenBitmap@WizardUI@@SAGXZ
  ?GetScreenBitmapSize@ProtoPageDimensions@@QEAA?AUSimpleSize@@XZ=C:\Windows\System32\spwizeng.?GetScreenBitmapSize@ProtoPageDimensions@@QEAA?AUSimpleSize@@XZ
  ?GetSelectedLanguage@LanguageSelectionDialogBase@@AEAA?AV?$CStringT@GV?$StrTraitATL@GV?$ChTraitsCRT@G@ATL@@@ATL@@@ATL@@XZ=C:\Windows\System32\spwizeng.?GetSelectedLanguage@LanguageSelectionDialogBase@@AEAA?AV?$CStringT@GV?$StrTraitATL@GV?$ChTraitsCRT@G@ATL@@@ATL@@@ATL@@XZ
  ?GetSelectedLocale@LanguageSelectionDialogBase@@AEAA?AV?$CStringT@GV?$StrTraitATL@GV?$ChTraitsCRT@G@ATL@@@ATL@@@ATL@@XZ=C:\Windows\System32\spwizeng.?GetSelectedLocale@LanguageSelectionDialogBase@@AEAA?AV?$CStringT@GV?$StrTraitATL@GV?$ChTraitsCRT@G@ATL@@@ATL@@@ATL@@XZ
  ?GetShowScreenWindow@WizardUI@@QEAAHXZ=C:\Windows\System32\spwizeng.?GetShowScreenWindow@WizardUI@@QEAAHXZ
  ?GetSize@?$CSimpleArray@PEAGV?$CSimpleArrayEqualHelper@PEAG@ATL@@@ATL@@QEBAHXZ=C:\Windows\System32\spwizeng.?GetSize@?$CSimpleArray@PEAGV?$CSimpleArrayEqualHelper@PEAG@ATL@@@ATL@@QEBAHXZ
  ?GetSize@?$CSimpleArray@PEAUIResourceModuleEvent@@V?$CSimpleArrayEqualHelper@PEAUIResourceModuleEvent@@@ATL@@@ATL@@QEBAHXZ=C:\Windows\System32\spwizeng.?GetSize@?$CSimpleArray@PEAUIResourceModuleEvent@@V?$CSimpleArrayEqualHelper@PEAUIResourceModuleEvent@@@ATL@@@ATL@@QEBAHXZ
  ?GetSize@?$CSimpleArray@PEAUKEYBOARD@@V?$CSimpleArrayEqualHelper@PEAUKEYBOARD@@@ATL@@@ATL@@QEBAHXZ=C:\Windows\System32\spwizeng.?GetSize@?$CSimpleArray@PEAUKEYBOARD@@V?$CSimpleArrayEqualHelper@PEAUKEYBOARD@@@ATL@@@ATL@@QEBAHXZ
  ?GetSize@?$CSimpleArray@PEAULANGUAGE@@V?$CSimpleArrayEqualHelper@PEAULANGUAGE@@@ATL@@@ATL@@QEBAHXZ=C:\Windows\System32\spwizeng.?GetSize@?$CSimpleArray@PEAULANGUAGE@@V?$CSimpleArrayEqualHelper@PEAULANGUAGE@@@ATL@@@ATL@@QEBAHXZ
  ?GetSize@?$CSimpleArray@PEAULOCALE@@V?$CSimpleArrayEqualHelper@PEAULOCALE@@@ATL@@@ATL@@QEBAHXZ=C:\Windows\System32\spwizeng.?GetSize@?$CSimpleArray@PEAULOCALE@@V?$CSimpleArrayEqualHelper@PEAULOCALE@@@ATL@@@ATL@@QEBAHXZ
  ?GetSize@NavigationStack@@QEAAHXZ=C:\Windows\System32\spwizeng.?GetSize@NavigationStack@@QEAAHXZ
  ?GetStrategy@WizardEx@@QEAAPEAVWizardStrategy@@XZ=C:\Windows\System32\spwizeng.?GetStrategy@WizardEx@@QEAAPEAVWizardStrategy@@XZ
  ?GetString@?$CSimpleStringT@G$0A@@ATL@@QEBAPEBGXZ=C:\Windows\System32\spwizeng.?GetString@?$CSimpleStringT@G$0A@@ATL@@QEBAPEBGXZ
  ?GetString@MyString@@QEAAPEBGXZ=C:\Windows\System32\spwizeng.?GetString@MyString@@QEAAPEBGXZ
  ?GetTemplate@WizardPage@@QEAAKXZ=C:\Windows\System32\spwizeng.?GetTemplate@WizardPage@@QEAAKXZ
  ?GetTemplate@Wizard_PageDesciption@@QEAAKXZ=C:\Windows\System32\spwizeng.?GetTemplate@Wizard_PageDesciption@@QEAAKXZ
  ?GetTextColor@CHighContrast@@QEAAKK@Z=C:\Windows\System32\spwizeng.?GetTextColor@CHighContrast@@QEAAKK@Z
  ?GetTitle@WizardPage@@QEAAKXZ=C:\Windows\System32\spwizeng.?GetTitle@WizardPage@@QEAAKXZ
  ?GetTitle@Wizard_PageDesciption@@QEAAKXZ=C:\Windows\System32\spwizeng.?GetTitle@Wizard_PageDesciption@@QEAAKXZ
  ?GetTop@NavigationStack@@QEAAPEAVWizardNode@@XZ=C:\Windows\System32\spwizeng.?GetTop@NavigationStack@@QEAAPEAVWizardNode@@XZ
  ?GetTransparentColor@CDIB@@QEAAKXZ=C:\Windows\System32\spwizeng.?GetTransparentColor@CDIB@@QEAAKXZ
  ?GetType@WizardNode@@QEAAIXZ=C:\Windows\System32\spwizeng.?GetType@WizardNode@@QEAAIXZ
  ?GetUiMutex@WizardUI@@QEAAPEAXXZ=C:\Windows\System32\spwizeng.?GetUiMutex@WizardUI@@QEAAPEAXXZ
  ?GetUserSelectedHideOOBELang@WizardUI@@QEAAPEAGXZ=C:\Windows\System32\spwizeng.?GetUserSelectedHideOOBELang@WizardUI@@QEAAPEAGXZ
  ?GetUserSelectedKeyboardType@WizardUI@@QEAAPEAGXZ=C:\Windows\System32\spwizeng.?GetUserSelectedKeyboardType@WizardUI@@QEAAPEAGXZ
  ?GetUserSelectedLDId@WizardUI@@QEAAPEAGXZ=C:\Windows\System32\spwizeng.?GetUserSelectedLDId@WizardUI@@QEAAPEAGXZ
  ?GetUserSelectedLocale@WizardUI@@QEAAPEAGXZ=C:\Windows\System32\spwizeng.?GetUserSelectedLocale@WizardUI@@QEAAPEAGXZ
  ?GetUserSelectedTargetLanguage@WizardUI@@QEAAPEAGXZ=C:\Windows\System32\spwizeng.?GetUserSelectedTargetLanguage@WizardUI@@QEAAPEAGXZ
  ?GetUserSelectedUILanguage@WizardUI@@QEAAPEAGXZ=C:\Windows\System32\spwizeng.?GetUserSelectedUILanguage@WizardUI@@QEAAPEAGXZ
  ?GetWindowProc@WizardPage@@QEAAP6A_JPEAUHWND__@@I_K_J@ZXZ=C:\Windows\System32\spwizeng.?GetWindowProc@WizardPage@@QEAAP6A_JPEAUHWND__@@I_K_J@ZXZ
  ?GetWindowProc@WizardRoot@@UEAAP6A_JPEAUHWND__@@I_K_J@ZXZ=C:\Windows\System32\spwizeng.?GetWindowProc@WizardRoot@@UEAAP6A_JPEAUHWND__@@I_K_J@ZXZ
  ?GetWizNodeType@Wiz_Node@@QEAAIXZ=C:\Windows\System32\spwizeng.?GetWizNodeType@Wiz_Node@@QEAAIXZ
  ?GetWizUI@WizardNode@@QEAAPEAVWizardUI@@XZ=C:\Windows\System32\spwizeng.?GetWizUI@WizardNode@@QEAAPEAVWizardUI@@XZ
  ?GetWizUI@WizardUI@@SAPEAV1@XZ=C:\Windows\System32\spwizeng.?GetWizUI@WizardUI@@SAPEAV1@XZ
  ?GetWizardPageWithIndex@PageContainer@@QEAAPEAVWizardPage@@H@Z=C:\Windows\System32\spwizeng.?GetWizardPageWithIndex@PageContainer@@QEAAPEAVWizardPage@@H@Z
  ?GetWizardPageWithPageIndex@WizardUI@@QEAAPEAVWizardPage@@H@Z=C:\Windows\System32\spwizeng.?GetWizardPageWithPageIndex@WizardUI@@QEAAPEAVWizardPage@@H@Z
  ?GetWizardRect@AppWindow@@QEAAXPEAUtagRECT@@@Z=C:\Windows\System32\spwizeng.?GetWizardRect@AppWindow@@QEAAXPEAUtagRECT@@@Z
  ?HdcBackground@WizardUI@@SAPEAUHDC__@@XZ=C:\Windows\System32\spwizeng.?HdcBackground@WizardUI@@SAPEAUHDC__@@XZ
  ?Hdlg@CAttachDataDlg@@QEAAPEAUHWND__@@XZ=C:\Windows\System32\spwizeng.?Hdlg@CAttachDataDlg@@QEAAPEAUHWND__@@XZ
  ?Hdlg@CGenericNavWindow@@QEAAAEAPEAUHWND__@@XZ=C:\Windows\System32\spwizeng.?Hdlg@CGenericNavWindow@@QEAAAEAPEAUHWND__@@XZ
  ?Hdlg@WizardHandler@@QEAAPEAUHWND__@@XZ=C:\Windows\System32\spwizeng.?Hdlg@WizardHandler@@QEAAPEAUHWND__@@XZ
  ?Hdlg@WizardRoot@@QEAAAEAPEAUHWND__@@XZ=C:\Windows\System32\spwizeng.?Hdlg@WizardRoot@@QEAAAEAPEAUHWND__@@XZ
  ?Hide@CWndObj@@UEAAXXZ=C:\Windows\System32\spwizeng.?Hide@CWndObj@@UEAAXXZ
  ?HideSplashScreen@WizardUI@@AEAAXXZ=C:\Windows\System32\spwizeng.?HideSplashScreen@WizardUI@@AEAAXXZ
  ?HwndBackground@WizardUI@@SAPEAUHWND__@@XZ=C:\Windows\System32\spwizeng.?HwndBackground@WizardUI@@SAPEAUHWND__@@XZ
  ?HwndProgress@WizardUI@@SAPEAUHWND__@@XZ=C:\Windows\System32\spwizeng.?HwndProgress@WizardUI@@SAPEAUHWND__@@XZ
  ?Init@AppWindow@@QEAAHIII@Z=C:\Windows\System32\spwizeng.?Init@AppWindow@@QEAAHIII@Z
  ?Init@CAnimationControl@@QEAAHPEAUHWND__@@IPEAUHINSTANCE__@@IKHH@Z=C:\Windows\System32\spwizeng.?Init@CAnimationControl@@QEAAHPEAUHWND__@@IPEAUHINSTANCE__@@IKHH@Z
  ?Init@CCtlText@@QEAAHPEAUHWND__@@I@Z=C:\Windows\System32\spwizeng.?Init@CCtlText@@QEAAHPEAUHWND__@@I@Z
  ?Init@CCustomGraphicEx@@QEAAHPEAUHWND__@@I@Z=C:\Windows\System32\spwizeng.?Init@CCustomGraphicEx@@QEAAHPEAUHWND__@@I@Z
  ?Init@CResourceModuleFactory@@QEAAXPEAUHINSTANCE__@@@Z=C:\Windows\System32\spwizeng.?Init@CResourceModuleFactory@@QEAAXPEAUHINSTANCE__@@@Z
  ?Init@CResourceModuleFactory@@QEAAXPEAUHINSTANCE__@@PEBG@Z=C:\Windows\System32\spwizeng.?Init@CResourceModuleFactory@@QEAAXPEAUHINSTANCE__@@PEBG@Z
  ?Init@CScreenText@@QEAAHXZ=C:\Windows\System32\spwizeng.?Init@CScreenText@@QEAAHXZ
  ?Init@CWndObj@@UEAAHPEAUIWndObj@@@Z=C:\Windows\System32\spwizeng.?Init@CWndObj@@UEAAHPEAUIWndObj@@@Z
  ?Init@ProtoPageDimensions@@QEAAHXZ=C:\Windows\System32\spwizeng.?Init@ProtoPageDimensions@@QEAAHXZ
  ?Init@ScrWindow@@QEAAHI@Z=C:\Windows\System32\spwizeng.?Init@ScrWindow@@QEAAHI@Z
  ?Init@WizardHandler@@QEAAXPEAVWizardRoot@@@Z=C:\Windows\System32\spwizeng.?Init@WizardHandler@@QEAAXPEAVWizardRoot@@@Z
  ?InitAllStandardButtons@WizardRoot@@QEAAXXZ=C:\Windows\System32\spwizeng.?InitAllStandardButtons@WizardRoot@@QEAAXXZ
  ?InitButtons@CGenericNavWindow@@MEAAXXZ=C:\Windows\System32\spwizeng.?InitButtons@CGenericNavWindow@@MEAAXXZ
  ?InitDialog@CAttachDataDlg@@SAXPEAUHWND__@@I_K_J@Z=C:\Windows\System32\spwizeng.?InitDialog@CAttachDataDlg@@SAXPEAUHWND__@@I_K_J@Z
  ?InitDialog@CGenericNavWindow@@AEAAXPEAUHWND__@@@Z=C:\Windows\System32\spwizeng.?InitDialog@CGenericNavWindow@@AEAAXPEAUHWND__@@@Z
  ?InitFonts@WizardUI@@AEAAHPEAUHINSTANCE__@@@Z=C:\Windows\System32\spwizeng.?InitFonts@WizardUI@@AEAAHPEAUHINSTANCE__@@@Z
  ?InitLangNeutralLV@LanguageNeutralSelectionDialogBase@@AEAAXXZ=C:\Windows\System32\spwizeng.?InitLangNeutralLV@LanguageNeutralSelectionDialogBase@@AEAAXXZ
  ?InitPage@WizardHandler@@UEAAXXZ=C:\Windows\System32\spwizeng.?InitPage@WizardHandler@@UEAAXXZ
  ?InitStandardButton@WizardRoot@@QEAAPEAVCCustomButtonEx@@I@Z=C:\Windows\System32\spwizeng.?InitStandardButton@WizardRoot@@QEAAPEAVCCustomButtonEx@@I@Z
  ?InitSurface@CGenericNavWindow@@AEAAXXZ=C:\Windows\System32\spwizeng.?InitSurface@CGenericNavWindow@@AEAAXXZ
  ?Initialize@CHighContrast@@QEAAHXZ=C:\Windows\System32\spwizeng.?Initialize@CHighContrast@@QEAAHXZ
  ?Initialize@CRichEditControl@@QEAAXPEAUHWND__@@PEBG@Z=C:\Windows\System32\spwizeng.?Initialize@CRichEditControl@@QEAAXPEAUHWND__@@PEBG@Z
  ?Initialize@WizardPage@@QEAAXKKKPEAVWizardRoot@@PEBG1@Z=C:\Windows\System32\spwizeng.?Initialize@WizardPage@@QEAAXKKKPEAVWizardRoot@@PEBG1@Z
  ?Initialize@WizardUI@@QEAAHPEAVCResourceModule@@0@Z=C:\Windows\System32\spwizeng.?Initialize@WizardUI@@QEAAHPEAVCResourceModule@@0@Z
  ?InitializeWithMsftEdit@CRichEditControl@@QEAAXPEAUHWND__@@@Z=C:\Windows\System32\spwizeng.?InitializeWithMsftEdit@CRichEditControl@@QEAAXPEAUHWND__@@@Z
  ?Insert@?$CStringT@GV?$StrTraitATL@GV?$ChTraitsCRT@G@ATL@@@ATL@@@ATL@@QEAAHHG@Z=C:\Windows\System32\spwizeng.?Insert@?$CStringT@GV?$StrTraitATL@GV?$ChTraitsCRT@G@ATL@@@ATL@@@ATL@@QEAAHHG@Z
  ?Insert@?$CStringT@GV?$StrTraitATL@GV?$ChTraitsCRT@G@ATL@@@ATL@@@ATL@@QEAAHHPEBG@Z=C:\Windows\System32\spwizeng.?Insert@?$CStringT@GV?$StrTraitATL@GV?$ChTraitsCRT@G@ATL@@@ATL@@@ATL@@QEAAHHPEBG@Z
  ?InsertChar@MyString@@QEAAHHG@Z=C:\Windows\System32\spwizeng.?InsertChar@MyString@@QEAAHHG@Z
  ?InsertString@MyString@@QEAAHHPEBG@Z=C:\Windows\System32\spwizeng.?InsertString@MyString@@QEAAHHPEBG@Z
  ?InsertString@PIDStringView@@QEAAHHPEBG@Z=C:\Windows\System32\spwizeng.?InsertString@PIDStringView@@QEAAHHPEBG@Z
  ?InstallFont@WizardUI@@AEAAHPEAUHINSTANCE__@@@Z=C:\Windows\System32\spwizeng.?InstallFont@WizardUI@@AEAAHPEAUHINSTANCE__@@@Z
  ?InternalSetAtIndex@?$CSimpleArray@PEAGV?$CSimpleArrayEqualHelper@PEAG@ATL@@@ATL@@QEAAXHAEBQEAG@Z=C:\Windows\System32\spwizeng.?InternalSetAtIndex@?$CSimpleArray@PEAGV?$CSimpleArrayEqualHelper@PEAG@ATL@@@ATL@@QEAAXHAEBQEAG@Z
  ?InternalSetAtIndex@?$CSimpleArray@PEAUIResourceModuleEvent@@V?$CSimpleArrayEqualHelper@PEAUIResourceModuleEvent@@@ATL@@@ATL@@QEAAXHAEBQEAUIResourceModuleEvent@@@Z=C:\Windows\System32\spwizeng.?InternalSetAtIndex@?$CSimpleArray@PEAUIResourceModuleEvent@@V?$CSimpleArrayEqualHelper@PEAUIResourceModuleEvent@@@ATL@@@ATL@@QEAAXHAEBQEAUIResourceModuleEvent@@@Z
  ?InternalSetAtIndex@?$CSimpleArray@PEAUKEYBOARD@@V?$CSimpleArrayEqualHelper@PEAUKEYBOARD@@@ATL@@@ATL@@QEAAXHAEBQEAUKEYBOARD@@@Z=C:\Windows\System32\spwizeng.?InternalSetAtIndex@?$CSimpleArray@PEAUKEYBOARD@@V?$CSimpleArrayEqualHelper@PEAUKEYBOARD@@@ATL@@@ATL@@QEAAXHAEBQEAUKEYBOARD@@@Z
  ?InternalSetAtIndex@?$CSimpleArray@PEAULANGUAGE@@V?$CSimpleArrayEqualHelper@PEAULANGUAGE@@@ATL@@@ATL@@QEAAXHAEBQEAULANGUAGE@@@Z=C:\Windows\System32\spwizeng.?InternalSetAtIndex@?$CSimpleArray@PEAULANGUAGE@@V?$CSimpleArrayEqualHelper@PEAULANGUAGE@@@ATL@@@ATL@@QEAAXHAEBQEAULANGUAGE@@@Z
  ?InternalSetAtIndex@?$CSimpleArray@PEAULOCALE@@V?$CSimpleArrayEqualHelper@PEAULOCALE@@@ATL@@@ATL@@QEAAXHAEBQEAULOCALE@@@Z=C:\Windows\System32\spwizeng.?InternalSetAtIndex@?$CSimpleArray@PEAULOCALE@@V?$CSimpleArrayEqualHelper@PEAULOCALE@@@ATL@@@ATL@@QEAAXHAEBQEAULOCALE@@@Z
  ?IsAppMirrored@AppWindow@@QEAAHXZ=C:\Windows\System32\spwizeng.?IsAppMirrored@AppWindow@@QEAAHXZ
  ?IsCancelRequest@WizardUI@@AEAAHPEAUtagMSG@@@Z=C:\Windows\System32\spwizeng.?IsCancelRequest@WizardUI@@AEAAHPEAUtagMSG@@@Z
  ?IsControlKeys@WizardUI@@AEAAHPEAUHWND__@@PEAUtagMSG@@@Z=C:\Windows\System32\spwizeng.?IsControlKeys@WizardUI@@AEAAHPEAUHWND__@@PEAUtagMSG@@@Z
  ?IsDPIScalingRequired@@YAHXZ=C:\Windows\System32\spwizeng.?IsDPIScalingRequired@@YAHXZ
  ?IsDialogMessageW@PageContainer@@QEAAHPEAUtagMSG@@@Z=C:\Windows\System32\spwizeng.?IsDialogMessageW@PageContainer@@QEAAHPEAUtagMSG@@@Z
  ?IsDlgMsg@CWndObj@@UEAAHPEAUtagMSG@@@Z=C:\Windows\System32\spwizeng.?IsDlgMsg@CWndObj@@UEAAHPEAUtagMSG@@@Z
  ?IsEmpty@?$CSimpleStringT@G$0A@@ATL@@QEBA_NXZ=C:\Windows\System32\spwizeng.?IsEmpty@?$CSimpleStringT@G$0A@@ATL@@QEBA_NXZ
  ?IsFunctionKeys@WizardUI@@AEAAHPEAUHWND__@@PEAUtagMSG@@@Z=C:\Windows\System32\spwizeng.?IsFunctionKeys@WizardUI@@AEAAHPEAUHWND__@@PEAUtagMSG@@@Z
  ?IsHighContrast@CHighContrast@@QEAAHXZ=C:\Windows\System32\spwizeng.?IsHighContrast@CHighContrast@@QEAAHXZ
  ?IsInitialized@CDIB@@QEAAHXZ=C:\Windows\System32\spwizeng.?IsInitialized@CDIB@@QEAAHXZ
  ?IsInitialized@ProtoPageDimensions@@QEAAHXZ=C:\Windows\System32\spwizeng.?IsInitialized@ProtoPageDimensions@@QEAAHXZ
  ?IsLanguageSelectionUiShown@LanguageSelectionDialogBase@@SAHXZ=C:\Windows\System32\spwizeng.?IsLanguageSelectionUiShown@LanguageSelectionDialogBase@@SAHXZ
  ?IsMinimizeRequest@WizardUI@@AEAAHPEAUtagMSG@@@Z=C:\Windows\System32\spwizeng.?IsMinimizeRequest@WizardUI@@AEAAHPEAUtagMSG@@@Z
  ?IsStandardSizing@ProtoPageDimensions@@QEAAHXZ=C:\Windows\System32\spwizeng.?IsStandardSizing@ProtoPageDimensions@@QEAAHXZ
  ?IsWDS@LanguageNeutralSelectionDialogBase@@UEAAHXZ=C:\Windows\System32\spwizeng.?IsWDS@LanguageNeutralSelectionDialogBase@@UEAAHXZ
  ?IsWDS@LanguageSelectionDialogBase@@UEAAHXZ=C:\Windows\System32\spwizeng.?IsWDS@LanguageSelectionDialogBase@@UEAAHXZ
  ?KillActive@WizardHandler@@UEAAXAEAH@Z=C:\Windows\System32\spwizeng.?KillActive@WizardHandler@@UEAAXAEAH@Z
  ?KillActive@WizardRoot@@UEAAXXZ=C:\Windows\System32\spwizeng.?KillActive@WizardRoot@@UEAAXXZ
  ?LangNeutralLVSubProc@LanguageNeutralSelectionDialogBase@@CA_JPEAUHWND__@@I_K_J@Z=C:\Windows\System32\spwizeng.?LangNeutralLVSubProc@LanguageNeutralSelectionDialogBase@@CA_JPEAUHWND__@@I_K_J@Z
  ?Leave@CCritSec@@UEAAXXZ=C:\Windows\System32\spwizeng.?Leave@CCritSec@@UEAAXXZ
  ?LeavingTrackedWnd@CCursor@@QEAAHPEAUHWND__@@@Z=C:\Windows\System32\spwizeng.?LeavingTrackedWnd@CCursor@@QEAAHPEAUHWND__@@@Z
  ?Left@?$CStringT@GV?$StrTraitATL@GV?$ChTraitsCRT@G@ATL@@@ATL@@@ATL@@QEBA?AV12@H@Z=C:\Windows\System32\spwizeng.?Left@?$CStringT@GV?$StrTraitATL@GV?$ChTraitsCRT@G@ATL@@@ATL@@@ATL@@QEBA?AV12@H@Z
  ?Load32FromOther@CDIB@@AEAAHPEAV1@@Z=C:\Windows\System32\spwizeng.?Load32FromOther@CDIB@@AEAAHPEAV1@@Z
  ?Load@CAnimation@@QEAAHPEAUHINSTANCE__@@IKHJJ@Z=C:\Windows\System32\spwizeng.?Load@CAnimation@@QEAAHPEAUHINSTANCE__@@IKHJJ@Z
  ?Load@CDIB@@QEAAHPEAUHINSTANCE__@@IKH@Z=C:\Windows\System32\spwizeng.?Load@CDIB@@QEAAHPEAUHINSTANCE__@@IKH@Z
  ?Load@CDrawBackground@@QEAAHPEAUHWND__@@PEAUHDC__@@0@Z=C:\Windows\System32\spwizeng.?Load@CDrawBackground@@QEAAHPEAUHWND__@@PEAUHDC__@@0@Z
  ?Load@CScreenDIB@@QEAAHPEAUHINSTANCE__@@IK@Z=C:\Windows\System32\spwizeng.?Load@CScreenDIB@@QEAAHPEAUHINSTANCE__@@IK@Z
  ?LoadBackground@AppWindow@@QEAAXXZ=C:\Windows\System32\spwizeng.?LoadBackground@AppWindow@@QEAAXXZ
  ?LoadBitmapW@CHighContrast@@QEAAPEAUHBITMAP__@@PEAUHINSTANCE__@@IHHI@Z=C:\Windows\System32\spwizeng.?LoadBitmapW@CHighContrast@@QEAAPEAUHBITMAP__@@PEAUHINSTANCE__@@IHHI@Z
  ?LoadFontInfo@WizardUI@@AEAAXXZ=C:\Windows\System32\spwizeng.?LoadFontInfo@WizardUI@@AEAAXXZ
  ?LoadLibraryW@CResourceModule@@AEAAXXZ=C:\Windows\System32\spwizeng.?LoadLibraryW@CResourceModule@@AEAAXXZ
  ?LoadScaled@CDIB@@QEAAHPEAUHINSTANCE__@@IJJKH@Z=C:\Windows\System32\spwizeng.?LoadScaled@CDIB@@QEAAHPEAUHINSTANCE__@@IJJKH@Z
  ?LoadScaledByDPI@CDIB@@QEAAHPEAUHINSTANCE__@@IKH@Z=C:\Windows\System32\spwizeng.?LoadScaledByDPI@CDIB@@QEAAHPEAUHINSTANCE__@@IKH@Z
  ?LoadScaledFromOther@CDIB@@QEAAHPEAV1@JJH@Z=C:\Windows\System32\spwizeng.?LoadScaledFromOther@CDIB@@QEAAHPEAV1@JJH@Z
  ?LoadStringResources@LanguageSelectionDialogBase@@QEAAXXZ=C:\Windows\System32\spwizeng.?LoadStringResources@LanguageSelectionDialogBase@@QEAAXXZ
  ?LoadStringW@?$CStringT@GV?$StrTraitATL@GV?$ChTraitsCRT@G@ATL@@@ATL@@@ATL@@QEAAHI@Z=C:\Windows\System32\spwizeng.?LoadStringW@?$CStringT@GV?$StrTraitATL@GV?$ChTraitsCRT@G@ATL@@@ATL@@@ATL@@QEAAHI@Z
  ?LoadStringW@?$CStringT@GV?$StrTraitATL@GV?$ChTraitsCRT@G@ATL@@@ATL@@@ATL@@QEAAHPEAUHINSTANCE__@@I@Z=C:\Windows\System32\spwizeng.?LoadStringW@?$CStringT@GV?$StrTraitATL@GV?$ChTraitsCRT@G@ATL@@@ATL@@@ATL@@QEAAHPEAUHINSTANCE__@@I@Z
  ?LoadStringW@?$CStringT@GV?$StrTraitATL@GV?$ChTraitsCRT@G@ATL@@@ATL@@@ATL@@QEAAHPEAUHINSTANCE__@@IG@Z=C:\Windows\System32\spwizeng.?LoadStringW@?$CStringT@GV?$StrTraitATL@GV?$ChTraitsCRT@G@ATL@@@ATL@@@ATL@@QEAAHPEAUHINSTANCE__@@IG@Z
  ?LockBuffer@?$CSimpleStringT@G$0A@@ATL@@QEAAPEAGXZ=C:\Windows\System32\spwizeng.?LockBuffer@?$CSimpleStringT@G$0A@@ATL@@QEAAPEAGXZ
  ?MakeFullyOpaque@CDIB@@AEAAXXZ=C:\Windows\System32\spwizeng.?MakeFullyOpaque@CDIB@@AEAAXXZ
  ?MakeLower@?$CStringT@GV?$StrTraitATL@GV?$ChTraitsCRT@G@ATL@@@ATL@@@ATL@@QEAAAEAV12@XZ=C:\Windows\System32\spwizeng.?MakeLower@?$CStringT@GV?$StrTraitATL@GV?$ChTraitsCRT@G@ATL@@@ATL@@@ATL@@QEAAAEAV12@XZ
  ?MakeReverse@?$CStringT@GV?$StrTraitATL@GV?$ChTraitsCRT@G@ATL@@@ATL@@@ATL@@QEAAAEAV12@XZ=C:\Windows\System32\spwizeng.?MakeReverse@?$CStringT@GV?$StrTraitATL@GV?$ChTraitsCRT@G@ATL@@@ATL@@@ATL@@QEAAAEAV12@XZ
  ?MakeUpper@?$CStringT@GV?$StrTraitATL@GV?$ChTraitsCRT@G@ATL@@@ATL@@@ATL@@QEAAAEAV12@XZ=C:\Windows\System32\spwizeng.?MakeUpper@?$CStringT@GV?$StrTraitATL@GV?$ChTraitsCRT@G@ATL@@@ATL@@@ATL@@QEAAAEAV12@XZ
  ?MessageBoxFromMessage@@YAHPEAUHINSTANCE__@@PEAUHWND__@@III@Z=C:\Windows\System32\spwizeng.?MessageBoxFromMessage@@YAHPEAUHINSTANCE__@@PEAUHWND__@@III@Z
  ?MessageBoxFromMessage@@YAHPEAUHINSTANCE__@@PEAUHWND__@@PEBGII@Z=C:\Windows\System32\spwizeng.?MessageBoxFromMessage@@YAHPEAUHINSTANCE__@@PEAUHWND__@@PEBGII@Z
  ?MessageBoxFromMessageWithTimeout@@YAHPEAUHINSTANCE__@@PEAUHWND__@@IIIIH@Z=C:\Windows\System32\spwizeng.?MessageBoxFromMessageWithTimeout@@YAHPEAUHINSTANCE__@@PEAUHWND__@@IIIIH@Z
  ?MessageBoxFromMessageWithTimeout@@YAHPEAUHINSTANCE__@@PEAUHWND__@@PEBGIIIH@Z=C:\Windows\System32\spwizeng.?MessageBoxFromMessageWithTimeout@@YAHPEAUHINSTANCE__@@PEAUHWND__@@PEBGIIIH@Z
  ?MessagePump@WizardUI@@AEAAXXZ=C:\Windows\System32\spwizeng.?MessagePump@WizardUI@@AEAAXXZ
  ?Mid@?$CStringT@GV?$StrTraitATL@GV?$ChTraitsCRT@G@ATL@@@ATL@@@ATL@@QEBA?AV12@H@Z=C:\Windows\System32\spwizeng.?Mid@?$CStringT@GV?$StrTraitATL@GV?$ChTraitsCRT@G@ATL@@@ATL@@@ATL@@QEBA?AV12@H@Z
  ?Mid@?$CStringT@GV?$StrTraitATL@GV?$ChTraitsCRT@G@ATL@@@ATL@@@ATL@@QEBA?AV12@HH@Z=C:\Windows\System32\spwizeng.?Mid@?$CStringT@GV?$StrTraitATL@GV?$ChTraitsCRT@G@ATL@@@ATL@@@ATL@@QEBA?AV12@HH@Z
  ?MirrorImage@CDIB@@QEAAXXZ=C:\Windows\System32\spwizeng.?MirrorImage@CDIB@@QEAAXXZ
  ?Move@CWndObj@@UEAAXPEAUtagPOINT@@@Z=C:\Windows\System32\spwizeng.?Move@CWndObj@@UEAAXPEAUtagPOINT@@@Z
  ?MyPropSheet_GetWizButtons@WizardRoot@@QEAAKXZ=C:\Windows\System32\spwizeng.?MyPropSheet_GetWizButtons@WizardRoot@@QEAAKXZ
  ?MyPropSheet_SetWizButtons@WizardRoot@@QEAAXK@Z=C:\Windows\System32\spwizeng.?MyPropSheet_SetWizButtons@WizardRoot@@QEAAXK@Z
  ?NeedToRedrawNavWindow@WizardUI@@AEAAHXZ=C:\Windows\System32\spwizeng.?NeedToRedrawNavWindow@WizardUI@@AEAAHXZ
  ?Next@Navigator@@UEAAPEAVWizardPage@@HPEAVWizardNode@@@Z=C:\Windows\System32\spwizeng.?Next@Navigator@@UEAAPEAVWizardPage@@HPEAVWizardNode@@@Z
  ?Next@Navigator@@UEAAPEAVWizardPage@@PEAVWizardNode@@@Z=C:\Windows\System32\spwizeng.?Next@Navigator@@UEAAPEAVWizardPage@@PEAVWizardNode@@@Z
  ?Next@WizardEx@@UEAAPEAVWizardPage@@HPEAVWizardNode@@@Z=C:\Windows\System32\spwizeng.?Next@WizardEx@@UEAAPEAVWizardPage@@HPEAVWizardNode@@@Z
  ?Next@WizardEx@@UEAAPEAVWizardPage@@PEAVWizardNode@@@Z=C:\Windows\System32\spwizeng.?Next@WizardEx@@UEAAPEAVWizardPage@@PEAVWizardNode@@@Z
  ?NextPage@BranchWizStrategy@@UEAAPEAVWizardPage@@HPEAVWizardNode@@@Z=C:\Windows\System32\spwizeng.?NextPage@BranchWizStrategy@@UEAAPEAVWizardPage@@HPEAVWizardNode@@@Z
  ?NextPage@SimpleWizStrategy@@UEAAPEAVWizardPage@@HPEAVWizardNode@@@Z=C:\Windows\System32\spwizeng.?NextPage@SimpleWizStrategy@@UEAAPEAVWizardPage@@HPEAVWizardNode@@@Z
  ?NextPage@SummaryWizStrategy@@UEAAPEAVWizardPage@@HPEAVWizardNode@@@Z=C:\Windows\System32\spwizeng.?NextPage@SummaryWizStrategy@@UEAAPEAVWizardPage@@HPEAVWizardNode@@@Z
  ?NextPage@VariationWizStrategy@@UEAAPEAVWizardPage@@HPEAVWizardNode@@@Z=C:\Windows\System32\spwizeng.?NextPage@VariationWizStrategy@@UEAAPEAVWizardPage@@HPEAVWizardNode@@@Z
  ?NextPageHelper@ChoiceWizStrategy@@IEAAPEAVWizardPage@@HPEAVWizardNode@@@Z=C:\Windows\System32\spwizeng.?NextPageHelper@ChoiceWizStrategy@@IEAAPEAVWizardPage@@HPEAVWizardNode@@@Z
  ?NotifyWizBack@WizardHandler@@UEAAHAEAH@Z=C:\Windows\System32\spwizeng.?NotifyWizBack@WizardHandler@@UEAAHAEAH@Z
  ?NotifyWizBack@WizardRoot@@UEAAHXZ=C:\Windows\System32\spwizeng.?NotifyWizBack@WizardRoot@@UEAAHXZ
  ?NotifyWizCancel@WizardHandler@@UEAAHAEAH@Z=C:\Windows\System32\spwizeng.?NotifyWizCancel@WizardHandler@@UEAAHAEAH@Z
  ?NotifyWizCancel@WizardRoot@@UEAAHXZ=C:\Windows\System32\spwizeng.?NotifyWizCancel@WizardRoot@@UEAAHXZ
  ?NotifyWizFinish@WizardHandler@@UEAAHAEAH@Z=C:\Windows\System32\spwizeng.?NotifyWizFinish@WizardHandler@@UEAAHAEAH@Z
  ?NotifyWizFinish@WizardRoot@@UEAAHXZ=C:\Windows\System32\spwizeng.?NotifyWizFinish@WizardRoot@@UEAAHXZ
  ?NotifyWizNext@WizardHandler@@UEAAHAEAH@Z=C:\Windows\System32\spwizeng.?NotifyWizNext@WizardHandler@@UEAAHAEAH@Z
  ?NotifyWizNext@WizardRoot@@UEAAHXZ=C:\Windows\System32\spwizeng.?NotifyWizNext@WizardRoot@@UEAAHXZ
  ?OemToCharA@?$CStringT@GV?$StrTraitATL@GV?$ChTraitsCRT@G@ATL@@@ATL@@@ATL@@QEAAXXZ=C:\Windows\System32\spwizeng.?OemToCharA@?$CStringT@GV?$StrTraitATL@GV?$ChTraitsCRT@G@ATL@@@ATL@@@ATL@@QEAAXXZ
  ?OnActivate@AppWindow@@MEAA_J_K_J@Z=C:\Windows\System32\spwizeng.?OnActivate@AppWindow@@MEAA_J_K_J@Z
  ?OnActivate@CWndObj@@MEAA_J_K_J@Z=C:\Windows\System32\spwizeng.?OnActivate@CWndObj@@MEAA_J_K_J@Z
  ?OnActivate@ScrWindow@@MEAA_J_K_J@Z=C:\Windows\System32\spwizeng.?OnActivate@ScrWindow@@MEAA_J_K_J@Z
  ?OnActivateApp@CWndObj@@MEAA_J_K_J@Z=C:\Windows\System32\spwizeng.?OnActivateApp@CWndObj@@MEAA_J_K_J@Z
  ?OnApp@CWndObj@@MEAA_JI_K_J@Z=C:\Windows\System32\spwizeng.?OnApp@CWndObj@@MEAA_JI_K_J@Z
  ?OnAskCBFormatName@CWndObj@@MEAA_J_K_J@Z=C:\Windows\System32\spwizeng.?OnAskCBFormatName@CWndObj@@MEAA_J_K_J@Z
  ?OnBack@AppWindow@@MEAA_JI_K_J@Z=C:\Windows\System32\spwizeng.?OnBack@AppWindow@@MEAA_JI_K_J@Z
  ?OnBack@CGenericNavWindow@@QEAA_JGGPEAUHWND__@@AEAH@Z=C:\Windows\System32\spwizeng.?OnBack@CGenericNavWindow@@QEAA_JGGPEAUHWND__@@AEAH@Z
  ?OnCancel@AppWindow@@MEAA_JI_K_J@Z=C:\Windows\System32\spwizeng.?OnCancel@AppWindow@@MEAA_JI_K_J@Z
  ?OnCancel@CGenericNavWindow@@QEAA_JGGPEAUHWND__@@AEAH@Z=C:\Windows\System32\spwizeng.?OnCancel@CGenericNavWindow@@QEAA_JGGPEAUHWND__@@AEAH@Z
  ?OnCancelJournal@CWndObj@@MEAA_J_K_J@Z=C:\Windows\System32\spwizeng.?OnCancelJournal@CWndObj@@MEAA_J_K_J@Z
  ?OnCancelMode@CWndObj@@MEAA_J_K_J@Z=C:\Windows\System32\spwizeng.?OnCancelMode@CWndObj@@MEAA_J_K_J@Z
  ?OnCaptureChanged@CWndObj@@MEAA_J_K_J@Z=C:\Windows\System32\spwizeng.?OnCaptureChanged@CWndObj@@MEAA_J_K_J@Z
  ?OnChangeCBChain@CWndObj@@MEAA_J_K_J@Z=C:\Windows\System32\spwizeng.?OnChangeCBChain@CWndObj@@MEAA_J_K_J@Z
  ?OnChar@CWndObj@@MEAA_J_K_J@Z=C:\Windows\System32\spwizeng.?OnChar@CWndObj@@MEAA_J_K_J@Z
  ?OnCharToItem@CWndObj@@MEAA_J_K_J@Z=C:\Windows\System32\spwizeng.?OnCharToItem@CWndObj@@MEAA_J_K_J@Z
  ?OnChildActivate@CWndObj@@MEAA_J_K_J@Z=C:\Windows\System32\spwizeng.?OnChildActivate@CWndObj@@MEAA_J_K_J@Z
  ?OnClose@AppWindow@@MEAA_J_K_J@Z=C:\Windows\System32\spwizeng.?OnClose@AppWindow@@MEAA_J_K_J@Z
  ?OnClose@CWndObj@@MEAA_J_K_J@Z=C:\Windows\System32\spwizeng.?OnClose@CWndObj@@MEAA_J_K_J@Z
  ?OnClose@ScrWindow@@MEAA_J_K_J@Z=C:\Windows\System32\spwizeng.?OnClose@ScrWindow@@MEAA_J_K_J@Z
  ?OnCommand@AppWindow@@MEAA_J_K_J@Z=C:\Windows\System32\spwizeng.?OnCommand@AppWindow@@MEAA_J_K_J@Z
  ?OnCommand@CWndObj@@MEAA_J_K_J@Z=C:\Windows\System32\spwizeng.?OnCommand@CWndObj@@MEAA_J_K_J@Z
  ?OnCommand@ScrWindow@@MEAA_J_K_J@Z=C:\Windows\System32\spwizeng.?OnCommand@ScrWindow@@MEAA_J_K_J@Z
  ?OnCommandBack@WizardDialogPost@@QEAA_JGGPEAUHWND__@@AEAH@Z=C:\Windows\System32\spwizeng.?OnCommandBack@WizardDialogPost@@QEAA_JGGPEAUHWND__@@AEAH@Z
  ?OnCommandCancel@WizardDialogPost@@QEAA_JGGPEAUHWND__@@AEAH@Z=C:\Windows\System32\spwizeng.?OnCommandCancel@WizardDialogPost@@QEAA_JGGPEAUHWND__@@AEAH@Z
  ?OnCommandContinue@LanguageSelectionDialogBase@@QEAA_JGGPEAUHWND__@@AEAH@Z=C:\Windows\System32\spwizeng.?OnCommandContinue@LanguageSelectionDialogBase@@QEAA_JGGPEAUHWND__@@AEAH@Z
  ?OnCommandContinue@WizardDialogPost@@QEAA_JGGPEAUHWND__@@AEAH@Z=C:\Windows\System32\spwizeng.?OnCommandContinue@WizardDialogPost@@QEAA_JGGPEAUHWND__@@AEAH@Z
  ?OnCommandFinish@WizardDialogPost@@QEAA_JGGPEAUHWND__@@AEAH@Z=C:\Windows\System32\spwizeng.?OnCommandFinish@WizardDialogPost@@QEAA_JGGPEAUHWND__@@AEAH@Z
  ?OnCompacting@CWndObj@@MEAA_J_K_J@Z=C:\Windows\System32\spwizeng.?OnCompacting@CWndObj@@MEAA_J_K_J@Z
  ?OnCompareItem@CWndObj@@MEAA_J_K_J@Z=C:\Windows\System32\spwizeng.?OnCompareItem@CWndObj@@MEAA_J_K_J@Z
  ?OnContextMenu@CWndObj@@MEAA_J_K_J@Z=C:\Windows\System32\spwizeng.?OnContextMenu@CWndObj@@MEAA_J_K_J@Z
  ?OnCopyData@CWndObj@@MEAA_J_K_J@Z=C:\Windows\System32\spwizeng.?OnCopyData@CWndObj@@MEAA_J_K_J@Z
  ?OnCreate@AppWindow@@MEAA_J_K_J@Z=C:\Windows\System32\spwizeng.?OnCreate@AppWindow@@MEAA_J_K_J@Z
  ?OnCreate@CWndObj@@MEAA_J_K_J@Z=C:\Windows\System32\spwizeng.?OnCreate@CWndObj@@MEAA_J_K_J@Z
  ?OnCreate@ScrWindow@@MEAA_J_K_J@Z=C:\Windows\System32\spwizeng.?OnCreate@ScrWindow@@MEAA_J_K_J@Z
  ?OnCtlColor@CGenericNavWindow@@QEAA_JI_K_JAEAH@Z=C:\Windows\System32\spwizeng.?OnCtlColor@CGenericNavWindow@@QEAA_JI_K_JAEAH@Z
  ?OnCtlColorBtn@CWndObj@@MEAA_J_K_J@Z=C:\Windows\System32\spwizeng.?OnCtlColorBtn@CWndObj@@MEAA_J_K_J@Z
  ?OnCtlColorDlg@CWndObj@@MEAA_J_K_J@Z=C:\Windows\System32\spwizeng.?OnCtlColorDlg@CWndObj@@MEAA_J_K_J@Z
  ?OnCtlColorEdit@CWndObj@@MEAA_J_K_J@Z=C:\Windows\System32\spwizeng.?OnCtlColorEdit@CWndObj@@MEAA_J_K_J@Z
  ?OnCtlColorListbox@CWndObj@@MEAA_J_K_J@Z=C:\Windows\System32\spwizeng.?OnCtlColorListbox@CWndObj@@MEAA_J_K_J@Z
  ?OnCtlColorMsgbox@CWndObj@@MEAA_J_K_J@Z=C:\Windows\System32\spwizeng.?OnCtlColorMsgbox@CWndObj@@MEAA_J_K_J@Z
  ?OnCtlColorScrollbar@CWndObj@@MEAA_J_K_J@Z=C:\Windows\System32\spwizeng.?OnCtlColorScrollbar@CWndObj@@MEAA_J_K_J@Z
  ?OnCtlColorStatic@CWndObj@@MEAA_J_K_J@Z=C:\Windows\System32\spwizeng.?OnCtlColorStatic@CWndObj@@MEAA_J_K_J@Z
  ?OnCtlColorStatic@SimpleDialogBase@@QEAA_JI_K_JAEAH@Z=C:\Windows\System32\spwizeng.?OnCtlColorStatic@SimpleDialogBase@@QEAA_JI_K_JAEAH@Z
  ?OnCtlColorStatic@WizardDialogPost@@QEAA_JI_K_JAEAH@Z=C:\Windows\System32\spwizeng.?OnCtlColorStatic@WizardDialogPost@@QEAA_JI_K_JAEAH@Z
  ?OnCustomDraw@LanguageNeutralSelectionDialogBase@@QEAA_JHPEAUtagNMHDR@@AEAH@Z=C:\Windows\System32\spwizeng.?OnCustomDraw@LanguageNeutralSelectionDialogBase@@QEAA_JHPEAUtagNMHDR@@AEAH@Z
  ?OnDeadChar@CWndObj@@MEAA_J_K_J@Z=C:\Windows\System32\spwizeng.?OnDeadChar@CWndObj@@MEAA_J_K_J@Z
  ?OnDeleteItem@CWndObj@@MEAA_J_K_J@Z=C:\Windows\System32\spwizeng.?OnDeleteItem@CWndObj@@MEAA_J_K_J@Z
  ?OnDestroy@AppWindow@@MEAA_J_K_J@Z=C:\Windows\System32\spwizeng.?OnDestroy@AppWindow@@MEAA_J_K_J@Z
  ?OnDestroy@CGenericNavWindow@@QEAA_JI_K_JAEAH@Z=C:\Windows\System32\spwizeng.?OnDestroy@CGenericNavWindow@@QEAA_JI_K_JAEAH@Z
  ?OnDestroy@CWndObj@@MEAA_J_K_J@Z=C:\Windows\System32\spwizeng.?OnDestroy@CWndObj@@MEAA_J_K_J@Z
  ?OnDestroy@ScrWindow@@MEAA_J_K_J@Z=C:\Windows\System32\spwizeng.?OnDestroy@ScrWindow@@MEAA_J_K_J@Z
  ?OnDestroy@WizardDialogPre@@QEAA_JI_K_JAEAH@Z=C:\Windows\System32\spwizeng.?OnDestroy@WizardDialogPre@@QEAA_JI_K_JAEAH@Z
  ?OnDestroyClipboard@CWndObj@@MEAA_J_K_J@Z=C:\Windows\System32\spwizeng.?OnDestroyClipboard@CWndObj@@MEAA_J_K_J@Z
  ?OnDeviceChange@AppWindow@@MEAA_J_K_J@Z=C:\Windows\System32\spwizeng.?OnDeviceChange@AppWindow@@MEAA_J_K_J@Z
  ?OnDeviceChange@CWndObj@@MEAA_J_K_J@Z=C:\Windows\System32\spwizeng.?OnDeviceChange@CWndObj@@MEAA_J_K_J@Z
  ?OnDeviceChange@ScrWindow@@MEAA_J_K_J@Z=C:\Windows\System32\spwizeng.?OnDeviceChange@ScrWindow@@MEAA_J_K_J@Z
  ?OnDevmodeChange@CWndObj@@MEAA_J_K_J@Z=C:\Windows\System32\spwizeng.?OnDevmodeChange@CWndObj@@MEAA_J_K_J@Z
  ?OnDisplayChange@CGenericNavWindow@@QEAA_JI_K_JAEAH@Z=C:\Windows\System32\spwizeng.?OnDisplayChange@CGenericNavWindow@@QEAA_JI_K_JAEAH@Z
  ?OnDisplayChange@CWndObj@@MEAA_J_K_J@Z=C:\Windows\System32\spwizeng.?OnDisplayChange@CWndObj@@MEAA_J_K_J@Z
  ?OnDisplayChange@ScrWindow@@MEAA_J_K_J@Z=C:\Windows\System32\spwizeng.?OnDisplayChange@ScrWindow@@MEAA_J_K_J@Z
  ?OnDrawClipboard@CWndObj@@MEAA_J_K_J@Z=C:\Windows\System32\spwizeng.?OnDrawClipboard@CWndObj@@MEAA_J_K_J@Z
  ?OnDrawItem@CGenericNavWindow@@QEAA_JI_K_JAEAH@Z=C:\Windows\System32\spwizeng.?OnDrawItem@CGenericNavWindow@@QEAA_JI_K_JAEAH@Z
  ?OnDrawItem@CWndObj@@MEAA_J_K_J@Z=C:\Windows\System32\spwizeng.?OnDrawItem@CWndObj@@MEAA_J_K_J@Z
  ?OnDrawItem@WizardDialogPre@@QEAA_JI_K_JAEAH@Z=C:\Windows\System32\spwizeng.?OnDrawItem@WizardDialogPre@@QEAA_JI_K_JAEAH@Z
  ?OnDropFiles@CWndObj@@MEAA_J_K_J@Z=C:\Windows\System32\spwizeng.?OnDropFiles@CWndObj@@MEAA_J_K_J@Z
  ?OnEnable@CWndObj@@MEAA_J_K_J@Z=C:\Windows\System32\spwizeng.?OnEnable@CWndObj@@MEAA_J_K_J@Z
  ?OnEndSession@CWndObj@@MEAA_J_K_J@Z=C:\Windows\System32\spwizeng.?OnEndSession@CWndObj@@MEAA_J_K_J@Z
  ?OnEnterIdle@CWndObj@@MEAA_J_K_J@Z=C:\Windows\System32\spwizeng.?OnEnterIdle@CWndObj@@MEAA_J_K_J@Z
  ?OnEnterMenuLoop@CWndObj@@MEAA_J_K_J@Z=C:\Windows\System32\spwizeng.?OnEnterMenuLoop@CWndObj@@MEAA_J_K_J@Z
  ?OnEnterSizeMove@CWndObj@@MEAA_J_K_J@Z=C:\Windows\System32\spwizeng.?OnEnterSizeMove@CWndObj@@MEAA_J_K_J@Z
  ?OnEraseBkGnd@AppWindow@@MEAA_J_K_J@Z=C:\Windows\System32\spwizeng.?OnEraseBkGnd@AppWindow@@MEAA_J_K_J@Z
  ?OnEraseBkGnd@CWndObj@@MEAA_J_K_J@Z=C:\Windows\System32\spwizeng.?OnEraseBkGnd@CWndObj@@MEAA_J_K_J@Z
  ?OnEraseBkGnd@ScrWindow@@MEAA_J_K_J@Z=C:\Windows\System32\spwizeng.?OnEraseBkGnd@ScrWindow@@MEAA_J_K_J@Z
  ?OnEraseBkGnd@WizardDialogPre@@QEAA_JI_K_JAEAH@Z=C:\Windows\System32\spwizeng.?OnEraseBkGnd@WizardDialogPre@@QEAA_JI_K_JAEAH@Z
  ?OnExitMenuLoop@CWndObj@@MEAA_J_K_J@Z=C:\Windows\System32\spwizeng.?OnExitMenuLoop@CWndObj@@MEAA_J_K_J@Z
  ?OnExitSizeMove@CWndObj@@MEAA_J_K_J@Z=C:\Windows\System32\spwizeng.?OnExitSizeMove@CWndObj@@MEAA_J_K_J@Z
  ?OnFontChange@CWndObj@@MEAA_J_K_J@Z=C:\Windows\System32\spwizeng.?OnFontChange@CWndObj@@MEAA_J_K_J@Z
  ?OnGetButtons@AppWindow@@MEAA_JI_K_J@Z=C:\Windows\System32\spwizeng.?OnGetButtons@AppWindow@@MEAA_JI_K_J@Z
  ?OnGetButtons@CGenericNavWindow@@QEAA_JI_K_JAEAH@Z=C:\Windows\System32\spwizeng.?OnGetButtons@CGenericNavWindow@@QEAA_JI_K_JAEAH@Z
  ?OnGetDefID@AppWindow@@MEAA_JI_K_J@Z=C:\Windows\System32\spwizeng.?OnGetDefID@AppWindow@@MEAA_JI_K_J@Z
  ?OnGetDlgCode@CWndObj@@MEAA_J_K_J@Z=C:\Windows\System32\spwizeng.?OnGetDlgCode@CWndObj@@MEAA_J_K_J@Z
  ?OnGetIcon@CWndObj@@MEAA_J_K_J@Z=C:\Windows\System32\spwizeng.?OnGetIcon@CWndObj@@MEAA_J_K_J@Z
  ?OnGetMinMaxInfo@CWndObj@@MEAA_J_K_J@Z=C:\Windows\System32\spwizeng.?OnGetMinMaxInfo@CWndObj@@MEAA_J_K_J@Z
  ?OnGetText@CWndObj@@MEAA_J_K_J@Z=C:\Windows\System32\spwizeng.?OnGetText@CWndObj@@MEAA_J_K_J@Z
  ?OnGetTextLength@CWndObj@@MEAA_J_K_J@Z=C:\Windows\System32\spwizeng.?OnGetTextLength@CWndObj@@MEAA_J_K_J@Z
  ?OnHScroll@CWndObj@@MEAA_J_K_J@Z=C:\Windows\System32\spwizeng.?OnHScroll@CWndObj@@MEAA_J_K_J@Z
  ?OnHelp@CWndObj@@MEAA_J_K_J@Z=C:\Windows\System32\spwizeng.?OnHelp@CWndObj@@MEAA_J_K_J@Z
  ?OnHotKey@CWndObj@@MEAA_J_K_J@Z=C:\Windows\System32\spwizeng.?OnHotKey@CWndObj@@MEAA_J_K_J@Z
  ?OnInitDialog@CGenericNavWindow@@QEAA_JI_K_JAEAH@Z=C:\Windows\System32\spwizeng.?OnInitDialog@CGenericNavWindow@@QEAA_JI_K_JAEAH@Z
  ?OnInitDialog@CWndObj@@MEAA_J_K_J@Z=C:\Windows\System32\spwizeng.?OnInitDialog@CWndObj@@MEAA_J_K_J@Z
  ?OnInitDialog@LanguageNeutralSelectionDialogBase@@QEAA_JI_K_JAEAH@Z=C:\Windows\System32\spwizeng.?OnInitDialog@LanguageNeutralSelectionDialogBase@@QEAA_JI_K_JAEAH@Z
  ?OnInitDialog@LanguageSelectionDialogBase@@QEAA_JI_K_JAEAH@Z=C:\Windows\System32\spwizeng.?OnInitDialog@LanguageSelectionDialogBase@@QEAA_JI_K_JAEAH@Z
  ?OnInitDialog@WizardDialogPre@@QEAA_JI_K_JAEAH@Z=C:\Windows\System32\spwizeng.?OnInitDialog@WizardDialogPre@@QEAA_JI_K_JAEAH@Z
  ?OnKeyDown@CWndObj@@MEAA_J_K_J@Z=C:\Windows\System32\spwizeng.?OnKeyDown@CWndObj@@MEAA_J_K_J@Z
  ?OnKeyUp@CWndObj@@MEAA_J_K_J@Z=C:\Windows\System32\spwizeng.?OnKeyUp@CWndObj@@MEAA_J_K_J@Z
  ?OnKeyUp@LanguageNeutralSelectionDialogBase@@QEAA_JI_K_JAEAH@Z=C:\Windows\System32\spwizeng.?OnKeyUp@LanguageNeutralSelectionDialogBase@@QEAA_JI_K_JAEAH@Z
  ?OnKillFocus@CWndObj@@MEAA_J_K_J@Z=C:\Windows\System32\spwizeng.?OnKillFocus@CWndObj@@MEAA_J_K_J@Z
  ?OnLButtonDblClk@CWndObj@@MEAA_J_K_J@Z=C:\Windows\System32\spwizeng.?OnLButtonDblClk@CWndObj@@MEAA_J_K_J@Z
  ?OnLButtonDown@CWndObj@@MEAA_J_K_J@Z=C:\Windows\System32\spwizeng.?OnLButtonDown@CWndObj@@MEAA_J_K_J@Z
  ?OnLButtonUp@CWndObj@@MEAA_J_K_J@Z=C:\Windows\System32\spwizeng.?OnLButtonUp@CWndObj@@MEAA_J_K_J@Z
  ?OnLanguageChange@LanguageSelectionDialogBase@@QEAA_JGGPEAUHWND__@@AEAH@Z=C:\Windows\System32\spwizeng.?OnLanguageChange@LanguageSelectionDialogBase@@QEAA_JGGPEAUHWND__@@AEAH@Z
  ?OnLanguageSelect@LanguageNeutralSelectionDialogBase@@QEAA_JHPEAUtagNMHDR@@AEAH@Z=C:\Windows\System32\spwizeng.?OnLanguageSelect@LanguageNeutralSelectionDialogBase@@QEAA_JHPEAUtagNMHDR@@AEAH@Z
  ?OnLocaleChange@LanguageSelectionDialogBase@@QEAA_JGGPEAUHWND__@@AEAH@Z=C:\Windows\System32\spwizeng.?OnLocaleChange@LanguageSelectionDialogBase@@QEAA_JGGPEAUHWND__@@AEAH@Z
  ?OnMeasureItem@CWndObj@@MEAA_J_K_J@Z=C:\Windows\System32\spwizeng.?OnMeasureItem@CWndObj@@MEAA_J_K_J@Z
  ?OnMenuChar@CWndObj@@MEAA_J_K_J@Z=C:\Windows\System32\spwizeng.?OnMenuChar@CWndObj@@MEAA_J_K_J@Z
  ?OnMenuSelect@CWndObj@@MEAA_J_K_J@Z=C:\Windows\System32\spwizeng.?OnMenuSelect@CWndObj@@MEAA_J_K_J@Z
  ?OnMouseActivate@CWndObj@@MEAA_J_K_J@Z=C:\Windows\System32\spwizeng.?OnMouseActivate@CWndObj@@MEAA_J_K_J@Z
  ?OnMouseLeave@CWndObj@@MEAA_J_K_J@Z=C:\Windows\System32\spwizeng.?OnMouseLeave@CWndObj@@MEAA_J_K_J@Z
  ?OnMouseMove@CWndObj@@MEAA_J_K_J@Z=C:\Windows\System32\spwizeng.?OnMouseMove@CWndObj@@MEAA_J_K_J@Z
  ?OnMouseOver@LanguageNeutralSelectionDialogBase@@QEAA_JHPEAUtagNMHDR@@AEAH@Z=C:\Windows\System32\spwizeng.?OnMouseOver@LanguageNeutralSelectionDialogBase@@QEAA_JHPEAUtagNMHDR@@AEAH@Z
  ?OnMove@CWndObj@@MEAA_J_K_J@Z=C:\Windows\System32\spwizeng.?OnMove@CWndObj@@MEAA_J_K_J@Z
  ?OnMoving@CWndObj@@MEAA_J_K_J@Z=C:\Windows\System32\spwizeng.?OnMoving@CWndObj@@MEAA_J_K_J@Z
  ?OnNCCalcSize@CWndObj@@MEAA_J_K_J@Z=C:\Windows\System32\spwizeng.?OnNCCalcSize@CWndObj@@MEAA_J_K_J@Z
  ?OnNCCreate@CWndObj@@MEAA_J_K_J@Z=C:\Windows\System32\spwizeng.?OnNCCreate@CWndObj@@MEAA_J_K_J@Z
  ?OnNCDestroy@CWndObj@@MEAA_J_K_J@Z=C:\Windows\System32\spwizeng.?OnNCDestroy@CWndObj@@MEAA_J_K_J@Z
  ?OnNCHitTest@CWndObj@@MEAA_J_K_J@Z=C:\Windows\System32\spwizeng.?OnNCHitTest@CWndObj@@MEAA_J_K_J@Z
  ?OnNCPaint@CWndObj@@MEAA_J_K_J@Z=C:\Windows\System32\spwizeng.?OnNCPaint@CWndObj@@MEAA_J_K_J@Z
  ?OnNotify@CWndObj@@MEAA_J_K_J@Z=C:\Windows\System32\spwizeng.?OnNotify@CWndObj@@MEAA_J_K_J@Z
  ?OnNull@CWndObj@@MEAA_J_K_J@Z=C:\Windows\System32\spwizeng.?OnNull@CWndObj@@MEAA_J_K_J@Z
  ?OnPaint@AppWindow@@MEAA_J_K_J@Z=C:\Windows\System32\spwizeng.?OnPaint@AppWindow@@MEAA_J_K_J@Z
  ?OnPaint@CGenericNavWindow@@QEAA_JI_K_JAEAH@Z=C:\Windows\System32\spwizeng.?OnPaint@CGenericNavWindow@@QEAA_JI_K_JAEAH@Z
  ?OnPaint@CWndObj@@MEAA_J_K_J@Z=C:\Windows\System32\spwizeng.?OnPaint@CWndObj@@MEAA_J_K_J@Z
  ?OnPaint@ScrWindow@@MEAA_J_K_J@Z=C:\Windows\System32\spwizeng.?OnPaint@ScrWindow@@MEAA_J_K_J@Z
  ?OnPaintClipboard@CWndObj@@MEAA_J_K_J@Z=C:\Windows\System32\spwizeng.?OnPaintClipboard@CWndObj@@MEAA_J_K_J@Z
  ?OnParentNotify@CWndObj@@MEAA_J_K_J@Z=C:\Windows\System32\spwizeng.?OnParentNotify@CWndObj@@MEAA_J_K_J@Z
  ?OnPower@CWndObj@@MEAA_J_K_J@Z=C:\Windows\System32\spwizeng.?OnPower@CWndObj@@MEAA_J_K_J@Z
  ?OnPowerBroadcast@CWndObj@@MEAA_J_K_J@Z=C:\Windows\System32\spwizeng.?OnPowerBroadcast@CWndObj@@MEAA_J_K_J@Z
  ?OnQueryEndSession@CWndObj@@MEAA_J_K_J@Z=C:\Windows\System32\spwizeng.?OnQueryEndSession@CWndObj@@MEAA_J_K_J@Z
  ?OnQueryOpen@CWndObj@@MEAA_J_K_J@Z=C:\Windows\System32\spwizeng.?OnQueryOpen@CWndObj@@MEAA_J_K_J@Z
  ?OnQuit@CWndObj@@MEAA_J_K_J@Z=C:\Windows\System32\spwizeng.?OnQuit@CWndObj@@MEAA_J_K_J@Z
  ?OnRButtonDblClk@CWndObj@@MEAA_J_K_J@Z=C:\Windows\System32\spwizeng.?OnRButtonDblClk@CWndObj@@MEAA_J_K_J@Z
  ?OnRButtonDown@CWndObj@@MEAA_J_K_J@Z=C:\Windows\System32\spwizeng.?OnRButtonDown@CWndObj@@MEAA_J_K_J@Z
  ?OnRButtonUp@CWndObj@@MEAA_J_K_J@Z=C:\Windows\System32\spwizeng.?OnRButtonUp@CWndObj@@MEAA_J_K_J@Z
  ?OnRegistered@AppWindow@@MEAA_JI_K_J@Z=C:\Windows\System32\spwizeng.?OnRegistered@AppWindow@@MEAA_JI_K_J@Z
  ?OnRegistered@CWndObj@@MEAA_JI_K_J@Z=C:\Windows\System32\spwizeng.?OnRegistered@CWndObj@@MEAA_JI_K_J@Z
  ?OnRegistered@ScrWindow@@MEAA_JI_K_J@Z=C:\Windows\System32\spwizeng.?OnRegistered@ScrWindow@@MEAA_JI_K_J@Z
  ?OnRenderAllFormats@CWndObj@@MEAA_J_K_J@Z=C:\Windows\System32\spwizeng.?OnRenderAllFormats@CWndObj@@MEAA_J_K_J@Z
  ?OnRenderFormat@CWndObj@@MEAA_J_K_J@Z=C:\Windows\System32\spwizeng.?OnRenderFormat@CWndObj@@MEAA_J_K_J@Z
  ?OnResourceChanged@LanguageSelectionDialogBase@@UEAAXAEAH@Z=C:\Windows\System32\spwizeng.?OnResourceChanged@LanguageSelectionDialogBase@@UEAAXAEAH@Z
  ?OnResourceChanged@WizardHandler@@UEAAXAEAH@Z=C:\Windows\System32\spwizeng.?OnResourceChanged@WizardHandler@@UEAAXAEAH@Z
  ?OnResourceChanged@WizardRoot@@UEAAXXZ=C:\Windows\System32\spwizeng.?OnResourceChanged@WizardRoot@@UEAAXXZ
  ?OnSetBitmap@AppWindow@@MEAA_JI_K_J@Z=C:\Windows\System32\spwizeng.?OnSetBitmap@AppWindow@@MEAA_JI_K_J@Z
  ?OnSetBitmap@CGenericNavWindow@@QEAA_JI_K_JAEAH@Z=C:\Windows\System32\spwizeng.?OnSetBitmap@CGenericNavWindow@@QEAA_JI_K_JAEAH@Z
  ?OnSetButtons@AppWindow@@MEAA_JI_K_J@Z=C:\Windows\System32\spwizeng.?OnSetButtons@AppWindow@@MEAA_JI_K_J@Z
  ?OnSetButtons@CGenericNavWindow@@QEAA_JI_K_JAEAH@Z=C:\Windows\System32\spwizeng.?OnSetButtons@CGenericNavWindow@@QEAA_JI_K_JAEAH@Z
  ?OnSetCaption@AppWindow@@MEAA_JI_K_J@Z=C:\Windows\System32\spwizeng.?OnSetCaption@AppWindow@@MEAA_JI_K_J@Z
  ?OnSetCaption@CGenericNavWindow@@QEAA_JI_K_JAEAH@Z=C:\Windows\System32\spwizeng.?OnSetCaption@CGenericNavWindow@@QEAA_JI_K_JAEAH@Z
  ?OnSetCursor@AppWindow@@MEAA_J_K_J@Z=C:\Windows\System32\spwizeng.?OnSetCursor@AppWindow@@MEAA_J_K_J@Z
  ?OnSetCursor@CWndObj@@MEAA_J_K_J@Z=C:\Windows\System32\spwizeng.?OnSetCursor@CWndObj@@MEAA_J_K_J@Z
  ?OnSetCursor@ScrWindow@@MEAA_J_K_J@Z=C:\Windows\System32\spwizeng.?OnSetCursor@ScrWindow@@MEAA_J_K_J@Z
  ?OnSetFocus@CWndObj@@MEAA_J_K_J@Z=C:\Windows\System32\spwizeng.?OnSetFocus@CWndObj@@MEAA_J_K_J@Z
  ?OnSetRedraw@CWndObj@@MEAA_J_K_J@Z=C:\Windows\System32\spwizeng.?OnSetRedraw@CWndObj@@MEAA_J_K_J@Z
  ?OnSetText@CWndObj@@MEAA_J_K_J@Z=C:\Windows\System32\spwizeng.?OnSetText@CWndObj@@MEAA_J_K_J@Z
  ?OnSettingChange@CWndObj@@MEAA_J_K_J@Z=C:\Windows\System32\spwizeng.?OnSettingChange@CWndObj@@MEAA_J_K_J@Z
  ?OnShowWindow@CWndObj@@MEAA_J_K_J@Z=C:\Windows\System32\spwizeng.?OnShowWindow@CWndObj@@MEAA_J_K_J@Z
  ?OnSize@CWndObj@@MEAA_J_K_J@Z=C:\Windows\System32\spwizeng.?OnSize@CWndObj@@MEAA_J_K_J@Z
  ?OnSizeClipboard@CWndObj@@MEAA_J_K_J@Z=C:\Windows\System32\spwizeng.?OnSizeClipboard@CWndObj@@MEAA_J_K_J@Z
  ?OnSizing@CWndObj@@MEAA_J_K_J@Z=C:\Windows\System32\spwizeng.?OnSizing@CWndObj@@MEAA_J_K_J@Z
  ?OnSysChar@CWndObj@@MEAA_J_K_J@Z=C:\Windows\System32\spwizeng.?OnSysChar@CWndObj@@MEAA_J_K_J@Z
  ?OnSysColorChange@CWndObj@@MEAA_J_K_J@Z=C:\Windows\System32\spwizeng.?OnSysColorChange@CWndObj@@MEAA_J_K_J@Z
  ?OnSysCommand@CWndObj@@MEAA_J_K_J@Z=C:\Windows\System32\spwizeng.?OnSysCommand@CWndObj@@MEAA_J_K_J@Z
  ?OnTimer@CWndObj@@MEAA_J_K_J@Z=C:\Windows\System32\spwizeng.?OnTimer@CWndObj@@MEAA_J_K_J@Z
  ?OnUser@AppWindow@@MEAA_JI_K_J@Z=C:\Windows\System32\spwizeng.?OnUser@AppWindow@@MEAA_JI_K_J@Z
  ?OnUser@CWndObj@@MEAA_JI_K_J@Z=C:\Windows\System32\spwizeng.?OnUser@CWndObj@@MEAA_JI_K_J@Z
  ?OnUser@ScrWindow@@MEAA_JI_K_J@Z=C:\Windows\System32\spwizeng.?OnUser@ScrWindow@@MEAA_JI_K_J@Z
  ?OnVScroll@CWndObj@@MEAA_J_K_J@Z=C:\Windows\System32\spwizeng.?OnVScroll@CWndObj@@MEAA_J_K_J@Z
  ?OnVScrollClipboard@CWndObj@@MEAA_J_K_J@Z=C:\Windows\System32\spwizeng.?OnVScrollClipboard@CWndObj@@MEAA_J_K_J@Z
  ?OnWindowPosChanged@CWndObj@@MEAA_J_K_J@Z=C:\Windows\System32\spwizeng.?OnWindowPosChanged@CWndObj@@MEAA_J_K_J@Z
  ?OnWindowPosChanging@CWndObj@@MEAA_J_K_J@Z=C:\Windows\System32\spwizeng.?OnWindowPosChanging@CWndObj@@MEAA_J_K_J@Z
  ?OnWmxClose@AppWindow@@MEAA_JI_K_J@Z=C:\Windows\System32\spwizeng.?OnWmxClose@AppWindow@@MEAA_JI_K_J@Z
  ?OnWmxClose@ScrWindow@@MEAA_JI_K_J@Z=C:\Windows\System32\spwizeng.?OnWmxClose@ScrWindow@@MEAA_JI_K_J@Z
  ?PageData@WizardHandler@@QEAAPEAVWizardPage@@XZ=C:\Windows\System32\spwizeng.?PageData@WizardHandler@@QEAAPEAVWizardPage@@XZ
  ?PageData@WizardRoot@@QEAAAEAPEAVWizardPage@@XZ=C:\Windows\System32\spwizeng.?PageData@WizardRoot@@QEAAAEAPEAVWizardPage@@XZ
  ?Pop@NavigationStack@@QEAAPEAVWizardNode@@XZ=C:\Windows\System32\spwizeng.?Pop@NavigationStack@@QEAAPEAVWizardNode@@XZ
  ?PopulateKeyboardList@LanguageSelectionDialogBase@@AEAAIXZ=C:\Windows\System32\spwizeng.?PopulateKeyboardList@LanguageSelectionDialogBase@@AEAAIXZ
  ?PopulateLanguageList@LanguageSelectionDialogBase@@AEAAIXZ=C:\Windows\System32\spwizeng.?PopulateLanguageList@LanguageSelectionDialogBase@@AEAAIXZ
  ?PopulateLayeredDriverList@LanguageSelectionDialogBase@@AEAAIXZ=C:\Windows\System32\spwizeng.?PopulateLayeredDriverList@LanguageSelectionDialogBase@@AEAAIXZ
  ?PopulateLocaleList@LanguageSelectionDialogBase@@AEAAHXZ=C:\Windows\System32\spwizeng.?PopulateLocaleList@LanguageSelectionDialogBase@@AEAAHXZ
  ?Post@CWndObj@@UEAAHI_K_J@Z=C:\Windows\System32\spwizeng.?Post@CWndObj@@UEAAHI_K_J@Z
  ?Preallocate@?$CSimpleStringT@G$0A@@ATL@@QEAAXH@Z=C:\Windows\System32\spwizeng.?Preallocate@?$CSimpleStringT@G$0A@@ATL@@QEAAXH@Z
  ?PrepareWrite2@?$CSimpleStringT@G$0A@@ATL@@AEAAXH@Z=C:\Windows\System32\spwizeng.?PrepareWrite2@?$CSimpleStringT@G$0A@@ATL@@AEAAXH@Z
  ?PrepareWrite@?$CSimpleStringT@G$0A@@ATL@@AEAAPEAGH@Z=C:\Windows\System32\spwizeng.?PrepareWrite@?$CSimpleStringT@G$0A@@ATL@@AEAAPEAGH@Z
  ?ProcessLanguageSelection@LanguageSelectionDialogBase@@UEAAHAEAH@Z=C:\Windows\System32\spwizeng.?ProcessLanguageSelection@LanguageSelectionDialogBase@@UEAAHAEAH@Z
  ?ProcessSelectedLanguage@LanguageNeutralSelectionDialogBase@@AEAAXXZ=C:\Windows\System32\spwizeng.?ProcessSelectedLanguage@LanguageNeutralSelectionDialogBase@@AEAAXXZ
  ?ProcessWindowMessage@CAttachDataDlg@@UEAAHPEAUHWND__@@I_K_JAEA_JK@Z=C:\Windows\System32\spwizeng.?ProcessWindowMessage@CAttachDataDlg@@UEAAHPEAUHWND__@@I_K_JAEA_JK@Z
  ?ProcessWindowMessage@CGenericNavWindow@@UEAAHPEAUHWND__@@I_K_JAEA_JK@Z=C:\Windows\System32\spwizeng.?ProcessWindowMessage@CGenericNavWindow@@UEAAHPEAUHWND__@@I_K_JAEA_JK@Z
  ?ProcessWindowMessage@LanguageNeutralSelectionDialogBase@@UEAAHPEAUHWND__@@I_K_JAEA_JK@Z=C:\Windows\System32\spwizeng.?ProcessWindowMessage@LanguageNeutralSelectionDialogBase@@UEAAHPEAUHWND__@@I_K_JAEA_JK@Z
  ?ProcessWindowMessage@LanguageSelectionDialogBase@@UEAAHPEAUHWND__@@I_K_JAEA_JK@Z=C:\Windows\System32\spwizeng.?ProcessWindowMessage@LanguageSelectionDialogBase@@UEAAHPEAUHWND__@@I_K_JAEA_JK@Z
  ?ProcessWindowMessage@SimpleDialogBase@@UEAAHPEAUHWND__@@I_K_JAEA_JK@Z=C:\Windows\System32\spwizeng.?ProcessWindowMessage@SimpleDialogBase@@UEAAHPEAUHWND__@@I_K_JAEA_JK@Z
  ?ProcessWindowMessage@WizardDialogPost@@UEAAHPEAUHWND__@@I_K_JAEA_JK@Z=C:\Windows\System32\spwizeng.?ProcessWindowMessage@WizardDialogPost@@UEAAHPEAUHWND__@@I_K_JAEA_JK@Z
  ?ProcessWindowMessage@WizardDialogPre@@UEAAHPEAUHWND__@@I_K_JAEA_JK@Z=C:\Windows\System32\spwizeng.?ProcessWindowMessage@WizardDialogPre@@UEAAHPEAUHWND__@@I_K_JAEA_JK@Z
  ?PseudoToScreenCoordinate@ProtoPageDimensions@@QEAAXAEAH0@Z=C:\Windows\System32\spwizeng.?PseudoToScreenCoordinate@ProtoPageDimensions@@QEAAXAEAH0@Z
  ?Pulse@CAnimation@@QEAAXXZ=C:\Windows\System32\spwizeng.?Pulse@CAnimation@@QEAAXXZ
  ?PumpMessage@WizardUI@@AEAAXUtagMSG@@@Z=C:\Windows\System32\spwizeng.?PumpMessage@WizardUI@@AEAAXUtagMSG@@@Z
  ?Push@NavigationStack@@QEAAHPEAVWizardNode@@@Z=C:\Windows\System32\spwizeng.?Push@NavigationStack@@QEAAHPEAVWizardNode@@@Z
  ?QueryInterface@CWndObj@@UEAAJAEBU_GUID@@PEAPEAX@Z=C:\Windows\System32\spwizeng.?QueryInterface@CWndObj@@UEAAJAEBU_GUID@@PEAPEAX@Z
  ?ReadSelectedKeyboardType@LanguageSelectionDialogBase@@AEAAXXZ=C:\Windows\System32\spwizeng.?ReadSelectedKeyboardType@LanguageSelectionDialogBase@@AEAAXXZ
  ?ReadSelectedLanguage@LanguageSelectionDialogBase@@AEAAXXZ=C:\Windows\System32\spwizeng.?ReadSelectedLanguage@LanguageSelectionDialogBase@@AEAAXXZ
  ?ReadSelectedLayeredDriver@LanguageSelectionDialogBase@@AEAAXXZ=C:\Windows\System32\spwizeng.?ReadSelectedLayeredDriver@LanguageSelectionDialogBase@@AEAAXXZ
  ?ReadSelectedLocale@LanguageSelectionDialogBase@@AEAAXXZ=C:\Windows\System32\spwizeng.?ReadSelectedLocale@LanguageSelectionDialogBase@@AEAAXXZ
  ?Reallocate@?$CSimpleStringT@G$0A@@ATL@@AEAAXH@Z=C:\Windows\System32\spwizeng.?Reallocate@?$CSimpleStringT@G$0A@@ATL@@AEAAXH@Z
  ?RectDest@CGenericNavWindow@@QEAAAEAUtagRECT@@XZ=C:\Windows\System32\spwizeng.?RectDest@CGenericNavWindow@@QEAAAEAUtagRECT@@XZ
  ?Refresh@CDrawItem@@QEAAHXZ=C:\Windows\System32\spwizeng.?Refresh@CDrawItem@@QEAAHXZ
  ?RegisterObserver@CResourceModule@@QEAAHPEAUIResourceModuleEvent@@@Z=C:\Windows\System32\spwizeng.?RegisterObserver@CResourceModule@@QEAAHPEAUIResourceModuleEvent@@@Z
  ?ReinstantiatePages@PageContainer@@QEAAXXZ=C:\Windows\System32\spwizeng.?ReinstantiatePages@PageContainer@@QEAAXXZ
  ?Release@CWndObj@@UEAAKXZ=C:\Windows\System32\spwizeng.?Release@CWndObj@@UEAAKXZ
  ?ReleaseBuffer@?$CSimpleStringT@G$0A@@ATL@@QEAAXH@Z=C:\Windows\System32\spwizeng.?ReleaseBuffer@?$CSimpleStringT@G$0A@@ATL@@QEAAXH@Z
  ?ReleaseBufferSetLength@?$CSimpleStringT@G$0A@@ATL@@QEAAXH@Z=C:\Windows\System32\spwizeng.?ReleaseBufferSetLength@?$CSimpleStringT@G$0A@@ATL@@QEAAXH@Z
  ?Reload@WizardRoot@@QEAAXXZ=C:\Windows\System32\spwizeng.?Reload@WizardRoot@@QEAAXXZ
  ?ReloadAllStandardButtons@WizardRoot@@QEAAXXZ=C:\Windows\System32\spwizeng.?ReloadAllStandardButtons@WizardRoot@@QEAAXXZ
  ?ReloadCaptions@CCustomButtonEx@@QEAAXPEAUHINSTANCE__@@@Z=C:\Windows\System32\spwizeng.?ReloadCaptions@CCustomButtonEx@@QEAAXPEAUHINSTANCE__@@@Z
  ?Remove@?$CSimpleArray@PEAGV?$CSimpleArrayEqualHelper@PEAG@ATL@@@ATL@@QEAAHAEBQEAG@Z=C:\Windows\System32\spwizeng.?Remove@?$CSimpleArray@PEAGV?$CSimpleArrayEqualHelper@PEAG@ATL@@@ATL@@QEAAHAEBQEAG@Z
  ?Remove@?$CSimpleArray@PEAUIResourceModuleEvent@@V?$CSimpleArrayEqualHelper@PEAUIResourceModuleEvent@@@ATL@@@ATL@@QEAAHAEBQEAUIResourceModuleEvent@@@Z=C:\Windows\System32\spwizeng.?Remove@?$CSimpleArray@PEAUIResourceModuleEvent@@V?$CSimpleArrayEqualHelper@PEAUIResourceModuleEvent@@@ATL@@@ATL@@QEAAHAEBQEAUIResourceModuleEvent@@@Z
  ?Remove@?$CSimpleArray@PEAUKEYBOARD@@V?$CSimpleArrayEqualHelper@PEAUKEYBOARD@@@ATL@@@ATL@@QEAAHAEBQEAUKEYBOARD@@@Z=C:\Windows\System32\spwizeng.?Remove@?$CSimpleArray@PEAUKEYBOARD@@V?$CSimpleArrayEqualHelper@PEAUKEYBOARD@@@ATL@@@ATL@@QEAAHAEBQEAUKEYBOARD@@@Z
  ?Remove@?$CSimpleArray@PEAULANGUAGE@@V?$CSimpleArrayEqualHelper@PEAULANGUAGE@@@ATL@@@ATL@@QEAAHAEBQEAULANGUAGE@@@Z=C:\Windows\System32\spwizeng.?Remove@?$CSimpleArray@PEAULANGUAGE@@V?$CSimpleArrayEqualHelper@PEAULANGUAGE@@@ATL@@@ATL@@QEAAHAEBQEAULANGUAGE@@@Z
  ?Remove@?$CSimpleArray@PEAULOCALE@@V?$CSimpleArrayEqualHelper@PEAULOCALE@@@ATL@@@ATL@@QEAAHAEBQEAULOCALE@@@Z=C:\Windows\System32\spwizeng.?Remove@?$CSimpleArray@PEAULOCALE@@V?$CSimpleArrayEqualHelper@PEAULOCALE@@@ATL@@@ATL@@QEAAHAEBQEAULOCALE@@@Z
  ?Remove@?$CStringT@GV?$StrTraitATL@GV?$ChTraitsCRT@G@ATL@@@ATL@@@ATL@@QEAAHG@Z=C:\Windows\System32\spwizeng.?Remove@?$CStringT@GV?$StrTraitATL@GV?$ChTraitsCRT@G@ATL@@@ATL@@@ATL@@QEAAHG@Z
  ?RemoveAll@?$CSimpleArray@PEAGV?$CSimpleArrayEqualHelper@PEAG@ATL@@@ATL@@QEAAXXZ=C:\Windows\System32\spwizeng.?RemoveAll@?$CSimpleArray@PEAGV?$CSimpleArrayEqualHelper@PEAG@ATL@@@ATL@@QEAAXXZ
  ?RemoveAll@?$CSimpleArray@PEAUIResourceModuleEvent@@V?$CSimpleArrayEqualHelper@PEAUIResourceModuleEvent@@@ATL@@@ATL@@QEAAXXZ=C:\Windows\System32\spwizeng.?RemoveAll@?$CSimpleArray@PEAUIResourceModuleEvent@@V?$CSimpleArrayEqualHelper@PEAUIResourceModuleEvent@@@ATL@@@ATL@@QEAAXXZ
  ?RemoveAll@?$CSimpleArray@PEAUKEYBOARD@@V?$CSimpleArrayEqualHelper@PEAUKEYBOARD@@@ATL@@@ATL@@QEAAXXZ=C:\Windows\System32\spwizeng.?RemoveAll@?$CSimpleArray@PEAUKEYBOARD@@V?$CSimpleArrayEqualHelper@PEAUKEYBOARD@@@ATL@@@ATL@@QEAAXXZ
  ?RemoveAll@?$CSimpleArray@PEAULANGUAGE@@V?$CSimpleArrayEqualHelper@PEAULANGUAGE@@@ATL@@@ATL@@QEAAXXZ=C:\Windows\System32\spwizeng.?RemoveAll@?$CSimpleArray@PEAULANGUAGE@@V?$CSimpleArrayEqualHelper@PEAULANGUAGE@@@ATL@@@ATL@@QEAAXXZ
  ?RemoveAll@?$CSimpleArray@PEAULOCALE@@V?$CSimpleArrayEqualHelper@PEAULOCALE@@@ATL@@@ATL@@QEAAXXZ=C:\Windows\System32\spwizeng.?RemoveAll@?$CSimpleArray@PEAULOCALE@@V?$CSimpleArrayEqualHelper@PEAULOCALE@@@ATL@@@ATL@@QEAAXXZ
  ?RemoveAt@?$CSimpleArray@PEAGV?$CSimpleArrayEqualHelper@PEAG@ATL@@@ATL@@QEAAHH@Z=C:\Windows\System32\spwizeng.?RemoveAt@?$CSimpleArray@PEAGV?$CSimpleArrayEqualHelper@PEAG@ATL@@@ATL@@QEAAHH@Z
  ?RemoveAt@?$CSimpleArray@PEAUIResourceModuleEvent@@V?$CSimpleArrayEqualHelper@PEAUIResourceModuleEvent@@@ATL@@@ATL@@QEAAHH@Z=C:\Windows\System32\spwizeng.?RemoveAt@?$CSimpleArray@PEAUIResourceModuleEvent@@V?$CSimpleArrayEqualHelper@PEAUIResourceModuleEvent@@@ATL@@@ATL@@QEAAHH@Z
  ?RemoveAt@?$CSimpleArray@PEAUKEYBOARD@@V?$CSimpleArrayEqualHelper@PEAUKEYBOARD@@@ATL@@@ATL@@QEAAHH@Z=C:\Windows\System32\spwizeng.?RemoveAt@?$CSimpleArray@PEAUKEYBOARD@@V?$CSimpleArrayEqualHelper@PEAUKEYBOARD@@@ATL@@@ATL@@QEAAHH@Z
  ?RemoveAt@?$CSimpleArray@PEAULANGUAGE@@V?$CSimpleArrayEqualHelper@PEAULANGUAGE@@@ATL@@@ATL@@QEAAHH@Z=C:\Windows\System32\spwizeng.?RemoveAt@?$CSimpleArray@PEAULANGUAGE@@V?$CSimpleArrayEqualHelper@PEAULANGUAGE@@@ATL@@@ATL@@QEAAHH@Z
  ?RemoveAt@?$CSimpleArray@PEAULOCALE@@V?$CSimpleArrayEqualHelper@PEAULOCALE@@@ATL@@@ATL@@QEAAHH@Z=C:\Windows\System32\spwizeng.?RemoveAt@?$CSimpleArray@PEAULOCALE@@V?$CSimpleArrayEqualHelper@PEAULOCALE@@@ATL@@@ATL@@QEAAHH@Z
  ?RemoveChar@MyString@@QEAAHH@Z=C:\Windows\System32\spwizeng.?RemoveChar@MyString@@QEAAHH@Z
  ?RemoveFonts@WizardUI@@AEAAXXZ=C:\Windows\System32\spwizeng.?RemoveFonts@WizardUI@@AEAAXXZ
  ?RemoveString@MyString@@QEAAHHH@Z=C:\Windows\System32\spwizeng.?RemoveString@MyString@@QEAAHHH@Z
  ?RemoveString@PIDStringView@@QEAAHHHH@Z=C:\Windows\System32\spwizeng.?RemoveString@PIDStringView@@QEAAHHHH@Z
  ?Replace@?$CStringT@GV?$StrTraitATL@GV?$ChTraitsCRT@G@ATL@@@ATL@@@ATL@@QEAAHGG@Z=C:\Windows\System32\spwizeng.?Replace@?$CStringT@GV?$StrTraitATL@GV?$ChTraitsCRT@G@ATL@@@ATL@@@ATL@@QEAAHGG@Z
  ?Replace@?$CStringT@GV?$StrTraitATL@GV?$ChTraitsCRT@G@ATL@@@ATL@@@ATL@@QEAAHPEBG0@Z=C:\Windows\System32\spwizeng.?Replace@?$CStringT@GV?$StrTraitATL@GV?$ChTraitsCRT@G@ATL@@@ATL@@@ATL@@QEAAHPEBG0@Z
  ?ReplaceString@PIDStringView@@QEAAHHHPEBG@Z=C:\Windows\System32\spwizeng.?ReplaceString@PIDStringView@@QEAAHHHPEBG@Z
  ?RepositionAllWindows@WizardUI@@QEAAX_K_J@Z=C:\Windows\System32\spwizeng.?RepositionAllWindows@WizardUI@@QEAAX_K_J@Z
  ?RepositionAppWindow@WizardUI@@AEAAXXZ=C:\Windows\System32\spwizeng.?RepositionAppWindow@WizardUI@@AEAAXXZ
  ?RepositionNavWindow@WizardUI@@AEAAX_K_J@Z=C:\Windows\System32\spwizeng.?RepositionNavWindow@WizardUI@@AEAAX_K_J@Z
  ?RepositionProgressWindow@WizardUI@@AEAAX_K_J@Z=C:\Windows\System32\spwizeng.?RepositionProgressWindow@WizardUI@@AEAAX_K_J@Z
  ?RequestCancel@Win32Navigator@@UEAAXXZ=C:\Windows\System32\spwizeng.?RequestCancel@Win32Navigator@@UEAAXXZ
  ?RequestFinish@Win32Navigator@@UEAAXXZ=C:\Windows\System32\spwizeng.?RequestFinish@Win32Navigator@@UEAAXXZ
  ?RequestGoBack@Win32Navigator@@UEAAXXZ=C:\Windows\System32\spwizeng.?RequestGoBack@Win32Navigator@@UEAAXXZ
  ?RequestGoNext@Win32Navigator@@UEAAXH@Z=C:\Windows\System32\spwizeng.?RequestGoNext@Win32Navigator@@UEAAXH@Z
  ?RequestGoNext@Win32Navigator@@UEAAXXZ=C:\Windows\System32\spwizeng.?RequestGoNext@Win32Navigator@@UEAAXXZ
  ?Reset@PageContainer@@QEAAHH@Z=C:\Windows\System32\spwizeng.?Reset@PageContainer@@QEAAHH@Z
  ?Reset@WizardEx@@UEAAHXZ=C:\Windows\System32\spwizeng.?Reset@WizardEx@@UEAAHXZ
  ?Reset@WizardPage@@UEAAHXZ=C:\Windows\System32\spwizeng.?Reset@WizardPage@@UEAAHXZ
  ?ResetLanguage@AppWindow@@QEAAHXZ=C:\Windows\System32\spwizeng.?ResetLanguage@AppWindow@@QEAAHXZ
  ?ResetLanguage@CResourceModule@@QEAAHXZ=C:\Windows\System32\spwizeng.?ResetLanguage@CResourceModule@@QEAAHXZ
  ?ResetLanguage@CResourceModuleFactory@@QEAAHXZ=C:\Windows\System32\spwizeng.?ResetLanguage@CResourceModuleFactory@@QEAAHXZ
  ?ResetLanguage@WizardUI@@QEAAHPEBG@Z=C:\Windows\System32\spwizeng.?ResetLanguage@WizardUI@@QEAAHPEBG@Z
  ?ResetWizUI@WizardUI@@CAXXZ=C:\Windows\System32\spwizeng.?ResetWizUI@WizardUI@@CAXXZ
  ?Resize@CDIB@@QEAAHJJ@Z=C:\Windows\System32\spwizeng.?Resize@CDIB@@QEAAHJJ@Z
  ?ReverseFind@?$CStringT@GV?$StrTraitATL@GV?$ChTraitsCRT@G@ATL@@@ATL@@@ATL@@QEBAHG@Z=C:\Windows\System32\spwizeng.?ReverseFind@?$CStringT@GV?$StrTraitATL@GV?$ChTraitsCRT@G@ATL@@@ATL@@@ATL@@QEBAHG@Z
  ?Right@?$CStringT@GV?$StrTraitATL@GV?$ChTraitsCRT@G@ATL@@@ATL@@@ATL@@QEBA?AV12@H@Z=C:\Windows\System32\spwizeng.?Right@?$CStringT@GV?$StrTraitATL@GV?$ChTraitsCRT@G@ATL@@@ATL@@@ATL@@QEBA?AV12@H@Z
  ?ScreenToPseudoCoordinate@ProtoPageDimensions@@QEAAXAEAH0@Z=C:\Windows\System32\spwizeng.?ScreenToPseudoCoordinate@ProtoPageDimensions@@QEAAXAEAH0@Z
  ?Send@CWndObj@@UEAAHI_K_J@Z=C:\Windows\System32\spwizeng.?Send@CWndObj@@UEAAHI_K_J@Z
  ?SetActive@SimpleDialogBase@@UEAAXAEAH@Z=C:\Windows\System32\spwizeng.?SetActive@SimpleDialogBase@@UEAAXAEAH@Z
  ?SetActive@WizardDialogPost@@UEAAXAEAH@Z=C:\Windows\System32\spwizeng.?SetActive@WizardDialogPost@@UEAAXAEAH@Z
  ?SetActive@WizardDialogPre@@UEAAXAEAH@Z=C:\Windows\System32\spwizeng.?SetActive@WizardDialogPre@@UEAAXAEAH@Z
  ?SetActive@WizardHandler@@UEAAXAEAH@Z=C:\Windows\System32\spwizeng.?SetActive@WizardHandler@@UEAAXAEAH@Z
  ?SetActive@WizardRoot@@UEAAXXZ=C:\Windows\System32\spwizeng.?SetActive@WizardRoot@@UEAAXXZ
  ?SetActiveAppWnd@AppWindow@@QEAAXPEAUHWND__@@@Z=C:\Windows\System32\spwizeng.?SetActiveAppWnd@AppWindow@@QEAAXPEAUHWND__@@@Z
  ?SetAllowMirror@CAnimation@@QEAAXH@Z=C:\Windows\System32\spwizeng.?SetAllowMirror@CAnimation@@QEAAXH@Z
  ?SetAllowMirror@CAnimationControl@@QEAAXH@Z=C:\Windows\System32\spwizeng.?SetAllowMirror@CAnimationControl@@QEAAXH@Z
  ?SetAllowMirror@CDIB@@QEAAXH@Z=C:\Windows\System32\spwizeng.?SetAllowMirror@CDIB@@QEAAXH@Z
  ?SetAppHWnd@WizardUI@@QEAAXPEAUHWND__@@@Z=C:\Windows\System32\spwizeng.?SetAppHWnd@WizardUI@@QEAAXPEAUHWND__@@@Z
  ?SetAppWindow@WizardUI@@QEAAXPEAVAppWindow@@@Z=C:\Windows\System32\spwizeng.?SetAppWindow@WizardUI@@QEAAXPEAVAppWindow@@@Z
  ?SetAt@?$CSimpleStringT@G$0A@@ATL@@QEAAXHG@Z=C:\Windows\System32\spwizeng.?SetAt@?$CSimpleStringT@G$0A@@ATL@@QEAAXHG@Z
  ?SetAtIndex@?$CSimpleArray@PEAGV?$CSimpleArrayEqualHelper@PEAG@ATL@@@ATL@@QEAAHHAEBQEAG@Z=C:\Windows\System32\spwizeng.?SetAtIndex@?$CSimpleArray@PEAGV?$CSimpleArrayEqualHelper@PEAG@ATL@@@ATL@@QEAAHHAEBQEAG@Z
  ?SetAtIndex@?$CSimpleArray@PEAUIResourceModuleEvent@@V?$CSimpleArrayEqualHelper@PEAUIResourceModuleEvent@@@ATL@@@ATL@@QEAAHHAEBQEAUIResourceModuleEvent@@@Z=C:\Windows\System32\spwizeng.?SetAtIndex@?$CSimpleArray@PEAUIResourceModuleEvent@@V?$CSimpleArrayEqualHelper@PEAUIResourceModuleEvent@@@ATL@@@ATL@@QEAAHHAEBQEAUIResourceModuleEvent@@@Z
  ?SetAtIndex@?$CSimpleArray@PEAUKEYBOARD@@V?$CSimpleArrayEqualHelper@PEAUKEYBOARD@@@ATL@@@ATL@@QEAAHHAEBQEAUKEYBOARD@@@Z=C:\Windows\System32\spwizeng.?SetAtIndex@?$CSimpleArray@PEAUKEYBOARD@@V?$CSimpleArrayEqualHelper@PEAUKEYBOARD@@@ATL@@@ATL@@QEAAHHAEBQEAUKEYBOARD@@@Z
  ?SetAtIndex@?$CSimpleArray@PEAULANGUAGE@@V?$CSimpleArrayEqualHelper@PEAULANGUAGE@@@ATL@@@ATL@@QEAAHHAEBQEAULANGUAGE@@@Z=C:\Windows\System32\spwizeng.?SetAtIndex@?$CSimpleArray@PEAULANGUAGE@@V?$CSimpleArrayEqualHelper@PEAULANGUAGE@@@ATL@@@ATL@@QEAAHHAEBQEAULANGUAGE@@@Z
  ?SetAtIndex@?$CSimpleArray@PEAULOCALE@@V?$CSimpleArrayEqualHelper@PEAULOCALE@@@ATL@@@ATL@@QEAAHHAEBQEAULOCALE@@@Z=C:\Windows\System32\spwizeng.?SetAtIndex@?$CSimpleArray@PEAULOCALE@@V?$CSimpleArrayEqualHelper@PEAULOCALE@@@ATL@@@ATL@@QEAAHHAEBQEAULOCALE@@@Z
  ?SetBackGroundColor@CRichEditControl@@QEAAXK@Z=C:\Windows\System32\spwizeng.?SetBackGroundColor@CRichEditControl@@QEAAXK@Z
  ?SetBackgroundHDC@CCustomButtonEx@@QEAAXPEAUHDC__@@@Z=C:\Windows\System32\spwizeng.?SetBackgroundHDC@CCustomButtonEx@@QEAAXPEAUHDC__@@@Z
  ?SetCancelNoShow@WizardUI@@QEAAXH@Z=C:\Windows\System32\spwizeng.?SetCancelNoShow@WizardUI@@QEAAXH@Z
  ?SetCanceled@WizardUI@@QEAAXH@Z=C:\Windows\System32\spwizeng.?SetCanceled@WizardUI@@QEAAXH@Z
  ?SetColor@CScreenText@@QEAAHK@Z=C:\Windows\System32\spwizeng.?SetColor@CScreenText@@QEAAHK@Z
  ?SetCurrentPage@PageContainer@@QEAAXH@Z=C:\Windows\System32\spwizeng.?SetCurrentPage@PageContainer@@QEAAXH@Z
  ?SetCursorState@CCursor@@QEAAXI@Z=C:\Windows\System32\spwizeng.?SetCursorState@CCursor@@QEAAXI@Z
  ?SetCursorStateForButton@CCursor@@QEAAXI@Z=C:\Windows\System32\spwizeng.?SetCursorStateForButton@CCursor@@QEAAXI@Z
  ?SetCursorWait@CCursor@@QEAAXXZ=C:\Windows\System32\spwizeng.?SetCursorWait@CCursor@@QEAAXXZ
  ?SetData@WizardPage@@QEAAXPEAX@Z=C:\Windows\System32\spwizeng.?SetData@WizardPage@@QEAAXPEAX@Z
  ?SetFirstPage@Win32Navigator@@UEAAXPEAVWizardPage@@@Z=C:\Windows\System32\spwizeng.?SetFirstPage@Win32Navigator@@UEAAXPEAVWizardPage@@@Z
  ?SetFont@CScreenText@@QEAAHPEAUHFONT__@@@Z=C:\Windows\System32\spwizeng.?SetFont@CScreenText@@QEAAHPEAUHFONT__@@@Z
  ?SetFontSize@PageContainer@@QEAAXH@Z=C:\Windows\System32\spwizeng.?SetFontSize@PageContainer@@QEAAXH@Z
  ?SetFontSize@WizardUI@@QEAAXI@Z=C:\Windows\System32\spwizeng.?SetFontSize@WizardUI@@QEAAXI@Z
  ?SetGraphic@CCustomGraphicEx@@QEAAHPEAVCDrawItem@@@Z=C:\Windows\System32\spwizeng.?SetGraphic@CCustomGraphicEx@@QEAAHPEAVCDrawItem@@@Z
  ?SetHWnd@WizardPage@@QEAAXPEAUHWND__@@@Z=C:\Windows\System32\spwizeng.?SetHWnd@WizardPage@@QEAAXPEAUHWND__@@@Z
  ?SetHdcDest@CDrawItem@@QEAAXPEAUHDC__@@@Z=C:\Windows\System32\spwizeng.?SetHdcDest@CDrawItem@@QEAAXPEAUHDC__@@@Z
  ?SetHwndDest@CDrawItem@@QEAAXPEAUHWND__@@@Z=C:\Windows\System32\spwizeng.?SetHwndDest@CDrawItem@@QEAAXPEAUHWND__@@@Z
  ?SetIndex@WizardNode@@QEAAXI@Z=C:\Windows\System32\spwizeng.?SetIndex@WizardNode@@QEAAXI@Z
  ?SetLanguageString@WizardUI@@AEAAJPEAPEAGPEAG@Z=C:\Windows\System32\spwizeng.?SetLanguageString@WizardUI@@AEAAJPEAPEAGPEAG@Z
  ?SetLength@?$CSimpleStringT@G$0A@@ATL@@AEAAXH@Z=C:\Windows\System32\spwizeng.?SetLength@?$CSimpleStringT@G$0A@@ATL@@AEAAXH@Z
  ?SetManager@?$CSimpleStringT@G$0A@@ATL@@QEAAXPEAUIAtlStringMgr@2@@Z=C:\Windows\System32\spwizeng.?SetManager@?$CSimpleStringT@G$0A@@ATL@@QEAAXPEAUIAtlStringMgr@2@@Z
  ?SetMaxCount@WizardEx@@QEAAXI@Z=C:\Windows\System32\spwizeng.?SetMaxCount@WizardEx@@QEAAXI@Z
  ?SetMdi@CWndObj@@UEAAXPEAUIWndObj@@@Z=C:\Windows\System32\spwizeng.?SetMdi@CWndObj@@UEAAXPEAUIWndObj@@@Z
  ?SetNavHWnd@WizardUI@@QEAAXPEAUHWND__@@@Z=C:\Windows\System32\spwizeng.?SetNavHWnd@WizardUI@@QEAAXPEAUHWND__@@@Z
  ?SetPageIndex@WizardNode@@QEAAXI@Z=C:\Windows\System32\spwizeng.?SetPageIndex@WizardNode@@QEAAXI@Z
  ?SetPageList@WizardEx@@QEAAXPEAPEAVWizardNode@@@Z=C:\Windows\System32\spwizeng.?SetPageList@WizardEx@@QEAAXPEAPEAVWizardNode@@@Z
  ?SetPageListItem@WizardEx@@QEAAXHPEAVWizardNode@@@Z=C:\Windows\System32\spwizeng.?SetPageListItem@WizardEx@@QEAAXHPEAVWizardNode@@@Z
  ?SetParent@WizardNode@@QEAAXPEAVWizardEx@@@Z=C:\Windows\System32\spwizeng.?SetParent@WizardNode@@QEAAXPEAVWizardEx@@@Z
  ?SetPosition@CDrawItem@@QEAAXKK@Z=C:\Windows\System32\spwizeng.?SetPosition@CDrawItem@@QEAAXKK@Z
  ?SetRichTextAnsi@CRichEditControl@@QEAAXPEBDPEAK@Z=C:\Windows\System32\spwizeng.?SetRichTextAnsi@CRichEditControl@@QEAAXPEBDPEAK@Z
  ?SetScrWindow@WizardUI@@QEAAXPEAVScrWindow@@@Z=C:\Windows\System32\spwizeng.?SetScrWindow@WizardUI@@QEAAXPEAVScrWindow@@@Z
  ?SetStrategy@WizardEx@@QEAAXPEAVWizardStrategy@@@Z=C:\Windows\System32\spwizeng.?SetStrategy@WizardEx@@QEAAXPEAVWizardStrategy@@@Z
  ?SetString@?$CSimpleStringT@G$0A@@ATL@@QEAAXPEBG@Z=C:\Windows\System32\spwizeng.?SetString@?$CSimpleStringT@G$0A@@ATL@@QEAAXPEBG@Z
  ?SetString@?$CSimpleStringT@G$0A@@ATL@@QEAAXPEBGH@Z=C:\Windows\System32\spwizeng.?SetString@?$CSimpleStringT@G$0A@@ATL@@QEAAXPEBGH@Z
  ?SetSysString@?$CStringT@GV?$StrTraitATL@GV?$ChTraitsCRT@G@ATL@@@ATL@@@ATL@@QEBAPEAGPEAPEAG@Z=C:\Windows\System32\spwizeng.?SetSysString@?$CStringT@GV?$StrTraitATL@GV?$ChTraitsCRT@G@ATL@@@ATL@@@ATL@@QEBAPEAGPEAPEAG@Z
  ?SetText@CCtlText@@QEAAXPEAUHWND__@@PEAUHFONT__@@KPEBG@Z=C:\Windows\System32\spwizeng.?SetText@CCtlText@@QEAAXPEAUHWND__@@PEAUHFONT__@@KPEBG@Z
  ?SetText@CRichEditControl@@QEAAXPEBG@Z=C:\Windows\System32\spwizeng.?SetText@CRichEditControl@@QEAAXPEBG@Z
  ?SetText@CScreenText@@QEAAHPEAUHWND__@@PEBG@Z=C:\Windows\System32\spwizeng.?SetText@CScreenText@@QEAAHPEAUHWND__@@PEBG@Z
  ?SetTextColor@CRichEditControl@@QEAAXK@Z=C:\Windows\System32\spwizeng.?SetTextColor@CRichEditControl@@QEAAXK@Z
  ?SetTextMode@CRichEditControl@@QEAAXI@Z=C:\Windows\System32\spwizeng.?SetTextMode@CRichEditControl@@QEAAXI@Z
  ?SetTextNoFormat@CRichEditControl@@QEAAXPEBG@Z=C:\Windows\System32\spwizeng.?SetTextNoFormat@CRichEditControl@@QEAAXPEBG@Z
  ?SetTextStyle@WizardRoot@@QEAAHHMHHH@Z=C:\Windows\System32\spwizeng.?SetTextStyle@WizardRoot@@QEAAHHMHHH@Z
  ?SetTransparentColor@CAnimation@@QEAAXK@Z=C:\Windows\System32\spwizeng.?SetTransparentColor@CAnimation@@QEAAXK@Z
  ?SetTransparentColor@CAnimationControl@@QEAAXK@Z=C:\Windows\System32\spwizeng.?SetTransparentColor@CAnimationControl@@QEAAXK@Z
  ?SetTransparentColor@CDIB@@QEAAXK@Z=C:\Windows\System32\spwizeng.?SetTransparentColor@CDIB@@QEAAXK@Z
  ?SetType@WizardNode@@QEAAXI@Z=C:\Windows\System32\spwizeng.?SetType@WizardNode@@QEAAXI@Z
  ?SetUserSelectedHideOOBELang@WizardUI@@QEAAJPEAG@Z=C:\Windows\System32\spwizeng.?SetUserSelectedHideOOBELang@WizardUI@@QEAAJPEAG@Z
  ?SetUserSelectedKeyboardType@WizardUI@@QEAAJPEAG@Z=C:\Windows\System32\spwizeng.?SetUserSelectedKeyboardType@WizardUI@@QEAAJPEAG@Z
  ?SetUserSelectedLDId@WizardUI@@QEAAJPEAG@Z=C:\Windows\System32\spwizeng.?SetUserSelectedLDId@WizardUI@@QEAAJPEAG@Z
  ?SetUserSelectedLocale@WizardUI@@QEAAJPEAG@Z=C:\Windows\System32\spwizeng.?SetUserSelectedLocale@WizardUI@@QEAAJPEAG@Z
  ?SetUserSelectedTargetLanguage@WizardUI@@QEAAJPEAG@Z=C:\Windows\System32\spwizeng.?SetUserSelectedTargetLanguage@WizardUI@@QEAAJPEAG@Z
  ?SetUserSelectedUILanguage@WizardUI@@QEAAJPEAG@Z=C:\Windows\System32\spwizeng.?SetUserSelectedUILanguage@WizardUI@@QEAAJPEAG@Z
  ?SetWizUI@WizardNode@@QEAAXPEAVWizardUI@@@Z=C:\Windows\System32\spwizeng.?SetWizUI@WizardNode@@QEAAXPEAVWizardUI@@@Z
  ?SetWizUI@WizardUI@@CAXPEAV1@@Z=C:\Windows\System32\spwizeng.?SetWizUI@WizardUI@@CAXPEAV1@@Z
  ?Show@CWndObj@@UEAAXK@Z=C:\Windows\System32\spwizeng.?Show@CWndObj@@UEAAXK@Z
  ?Show@CWndObj@@UEAAXXZ=C:\Windows\System32\spwizeng.?Show@CWndObj@@UEAAXXZ
  ?ShowError@LanguageSelectionDialogBase@@AEAAHPEAUHINSTANCE__@@K@Z=C:\Windows\System32\spwizeng.?ShowError@LanguageSelectionDialogBase@@AEAAHPEAUHINSTANCE__@@K@Z
  ?ShowLanguageNeutralSelectionUI@LanguageNeutralSelectionDialogBase@@UEAAHXZ=C:\Windows\System32\spwizeng.?ShowLanguageNeutralSelectionUI@LanguageNeutralSelectionDialogBase@@UEAAHXZ
  ?ShowLanguageSelectionUI@LanguageSelectionDialogBase@@UEAAHXZ=C:\Windows\System32\spwizeng.?ShowLanguageSelectionUI@LanguageSelectionDialogBase@@UEAAHXZ
  ?ShowReadMoreWnd@@YAHPEAUHINSTANCE__@@PEAUHWND__@@IPEBGI@Z=C:\Windows\System32\spwizeng.?ShowReadMoreWnd@@YAHPEAUHINSTANCE__@@PEAUHWND__@@IPEBGI@Z
  ?ShowReadMoreWnd@@YAXPEAUHINSTANCE__@@PEAUHWND__@@III@Z=C:\Windows\System32\spwizeng.?ShowReadMoreWnd@@YAXPEAUHINSTANCE__@@PEAUHWND__@@III@Z
  ?ShowScreenWindow@WizardUI@@QEAAXH@Z=C:\Windows\System32\spwizeng.?ShowScreenWindow@WizardUI@@QEAAXH@Z
  ?ShowUI@PageContainer@@QEAAXPEAUHWND__@@PEAVWizardPage@@@Z=C:\Windows\System32\spwizeng.?ShowUI@PageContainer@@QEAAXPEAUHWND__@@PEAVWizardPage@@@Z
  ?ShowWindow@PageContainer@@QEAAXH@Z=C:\Windows\System32\spwizeng.?ShowWindow@PageContainer@@QEAAXH@Z
  ?ShowWindows@WizardUI@@AEAAXXZ=C:\Windows\System32\spwizeng.?ShowWindows@WizardUI@@AEAAXXZ
  ?Size@CWndObj@@UEAAXPEAUtagSIZE@@@Z=C:\Windows\System32\spwizeng.?Size@CWndObj@@UEAAXPEAUtagSIZE@@@Z
  ?SleepMessageSafe@WizardUI@@QEAAXK@Z=C:\Windows\System32\spwizeng.?SleepMessageSafe@WizardUI@@QEAAXK@Z
  ?SpanExcluding@?$CStringT@GV?$StrTraitATL@GV?$ChTraitsCRT@G@ATL@@@ATL@@@ATL@@QEBA?AV12@PEBG@Z=C:\Windows\System32\spwizeng.?SpanExcluding@?$CStringT@GV?$StrTraitATL@GV?$ChTraitsCRT@G@ATL@@@ATL@@@ATL@@QEBA?AV12@PEBG@Z
  ?SpanIncluding@?$CStringT@GV?$StrTraitATL@GV?$ChTraitsCRT@G@ATL@@@ATL@@@ATL@@QEBA?AV12@PEBG@Z=C:\Windows\System32\spwizeng.?SpanIncluding@?$CStringT@GV?$StrTraitATL@GV?$ChTraitsCRT@G@ATL@@@ATL@@@ATL@@QEBA?AV12@PEBG@Z
  ?Stack@WizardUI@@QEAAPEAVNavigationStack@@XZ=C:\Windows\System32\spwizeng.?Stack@WizardUI@@QEAAPEAVNavigationStack@@XZ
  ?Start@CAnimation@@QEAAHXZ=C:\Windows\System32\spwizeng.?Start@CAnimation@@QEAAHXZ
  ?StartUI@WizardUI@@QEAAHPEBVProtoPageList@@@Z=C:\Windows\System32\spwizeng.?StartUI@WizardUI@@QEAAHPEBVProtoPageList@@@Z
  ?Stop@CAnimation@@QEAAHXZ=C:\Windows\System32\spwizeng.?Stop@CAnimation@@QEAAHXZ
  ?StorageWidthBytes@CDIB@@AEBAKXZ=C:\Windows\System32\spwizeng.?StorageWidthBytes@CDIB@@AEBAKXZ
  ?StringLength@?$CSimpleStringT@G$0A@@ATL@@SAHPEBD@Z=C:\Windows\System32\spwizeng.?StringLength@?$CSimpleStringT@G$0A@@ATL@@SAHPEBD@Z
  ?StringLength@?$CSimpleStringT@G$0A@@ATL@@SAHPEBG@Z=C:\Windows\System32\spwizeng.?StringLength@?$CSimpleStringT@G$0A@@ATL@@SAHPEBG@Z
  ?TearDown@PageContainer@@QEAAXXZ=C:\Windows\System32\spwizeng.?TearDown@PageContainer@@QEAAXXZ
  ?TestHighcontrast@CHighContrast@@QEAAXH@Z=C:\Windows\System32\spwizeng.?TestHighcontrast@CHighContrast@@QEAAXH@Z
  ?TextFitsInWindow@@YAJPEAUHWND__@@V?$CStringT@GV?$StrTraitATL@GV?$ChTraitsCRT@G@ATL@@@ATL@@@ATL@@@Z=C:\Windows\System32\spwizeng.?TextFitsInWindow@@YAJPEAUHWND__@@V?$CStringT@GV?$StrTraitATL@GV?$ChTraitsCRT@G@ATL@@@ATL@@@ATL@@@Z
  ?ThrowMemoryException@?$CSimpleStringT@G$0A@@ATL@@KAXXZ=C:\Windows\System32\spwizeng.?ThrowMemoryException@?$CSimpleStringT@G$0A@@ATL@@KAXXZ
  ?Tokenize@?$CStringT@GV?$StrTraitATL@GV?$ChTraitsCRT@G@ATL@@@ATL@@@ATL@@QEBA?AV12@PEBGAEAH@Z=C:\Windows\System32\spwizeng.?Tokenize@?$CStringT@GV?$StrTraitATL@GV?$ChTraitsCRT@G@ATL@@@ATL@@@ATL@@QEBA?AV12@PEBGAEAH@Z
  ?Trim@?$CStringT@GV?$StrTraitATL@GV?$ChTraitsCRT@G@ATL@@@ATL@@@ATL@@QEAAAEAV12@G@Z=C:\Windows\System32\spwizeng.?Trim@?$CStringT@GV?$StrTraitATL@GV?$ChTraitsCRT@G@ATL@@@ATL@@@ATL@@QEAAAEAV12@G@Z
  ?Trim@?$CStringT@GV?$StrTraitATL@GV?$ChTraitsCRT@G@ATL@@@ATL@@@ATL@@QEAAAEAV12@PEBG@Z=C:\Windows\System32\spwizeng.?Trim@?$CStringT@GV?$StrTraitATL@GV?$ChTraitsCRT@G@ATL@@@ATL@@@ATL@@QEAAAEAV12@PEBG@Z
  ?Trim@?$CStringT@GV?$StrTraitATL@GV?$ChTraitsCRT@G@ATL@@@ATL@@@ATL@@QEAAAEAV12@XZ=C:\Windows\System32\spwizeng.?Trim@?$CStringT@GV?$StrTraitATL@GV?$ChTraitsCRT@G@ATL@@@ATL@@@ATL@@QEAAAEAV12@XZ
  ?TrimLeft@?$CStringT@GV?$StrTraitATL@GV?$ChTraitsCRT@G@ATL@@@ATL@@@ATL@@QEAAAEAV12@G@Z=C:\Windows\System32\spwizeng.?TrimLeft@?$CStringT@GV?$StrTraitATL@GV?$ChTraitsCRT@G@ATL@@@ATL@@@ATL@@QEAAAEAV12@G@Z
  ?TrimLeft@?$CStringT@GV?$StrTraitATL@GV?$ChTraitsCRT@G@ATL@@@ATL@@@ATL@@QEAAAEAV12@PEBG@Z=C:\Windows\System32\spwizeng.?TrimLeft@?$CStringT@GV?$StrTraitATL@GV?$ChTraitsCRT@G@ATL@@@ATL@@@ATL@@QEAAAEAV12@PEBG@Z
  ?TrimLeft@?$CStringT@GV?$StrTraitATL@GV?$ChTraitsCRT@G@ATL@@@ATL@@@ATL@@QEAAAEAV12@XZ=C:\Windows\System32\spwizeng.?TrimLeft@?$CStringT@GV?$StrTraitATL@GV?$ChTraitsCRT@G@ATL@@@ATL@@@ATL@@QEAAAEAV12@XZ
  ?TrimRight@?$CStringT@GV?$StrTraitATL@GV?$ChTraitsCRT@G@ATL@@@ATL@@@ATL@@QEAAAEAV12@G@Z=C:\Windows\System32\spwizeng.?TrimRight@?$CStringT@GV?$StrTraitATL@GV?$ChTraitsCRT@G@ATL@@@ATL@@@ATL@@QEAAAEAV12@G@Z
  ?TrimRight@?$CStringT@GV?$StrTraitATL@GV?$ChTraitsCRT@G@ATL@@@ATL@@@ATL@@QEAAAEAV12@PEBG@Z=C:\Windows\System32\spwizeng.?TrimRight@?$CStringT@GV?$StrTraitATL@GV?$ChTraitsCRT@G@ATL@@@ATL@@@ATL@@QEAAAEAV12@PEBG@Z
  ?TrimRight@?$CStringT@GV?$StrTraitATL@GV?$ChTraitsCRT@G@ATL@@@ATL@@@ATL@@QEAAAEAV12@XZ=C:\Windows\System32\spwizeng.?TrimRight@?$CStringT@GV?$StrTraitATL@GV?$ChTraitsCRT@G@ATL@@@ATL@@@ATL@@QEAAAEAV12@XZ
  ?Truncate@?$CSimpleStringT@G$0A@@ATL@@QEAAXH@Z=C:\Windows\System32\spwizeng.?Truncate@?$CSimpleStringT@G$0A@@ATL@@QEAAXH@Z
  ?Uninit@CResourceModuleFactory@@QEAAXXZ=C:\Windows\System32\spwizeng.?Uninit@CResourceModuleFactory@@QEAAXXZ
  ?Unload@CDIB@@QEAAXXZ=C:\Windows\System32\spwizeng.?Unload@CDIB@@QEAAXXZ
  ?UnlockBuffer@?$CSimpleStringT@G$0A@@ATL@@QEAAXXZ=C:\Windows\System32\spwizeng.?UnlockBuffer@?$CSimpleStringT@G$0A@@ATL@@QEAAXXZ
  ?UnregisterObserver@CResourceModule@@QEAAHPEAUIResourceModuleEvent@@@Z=C:\Windows\System32\spwizeng.?UnregisterObserver@CResourceModule@@QEAAHPEAUIResourceModuleEvent@@@Z
  ?Update@CWndObj@@UEAAXXZ=C:\Windows\System32\spwizeng.?Update@CWndObj@@UEAAXXZ
  ?WMFree@CWndObj@@QEAAXXZ=C:\Windows\System32\spwizeng.?WMFree@CWndObj@@QEAAXXZ
  ?WMHandler@CWndObj@@QEAA_JI_K_J@Z=C:\Windows\System32\spwizeng.?WMHandler@CWndObj@@QEAA_JI_K_J@Z
  ?WMInit@CWndObj@@QEAAXPEAUHWND__@@@Z=C:\Windows\System32\spwizeng.?WMInit@CWndObj@@QEAAXPEAUHWND__@@@Z
  ?WaitForMultipleObjectsMessageSafe@WizardUI@@QEAAKKPEBQEAXHK@Z=C:\Windows\System32\spwizeng.?WaitForMultipleObjectsMessageSafe@WizardUI@@QEAAKKPEBQEAXHK@Z
  ?WaitForMultipleObjectsMessageSafeEx@WizardUI@@QEAAKKPEBQEAXHKH@Z=C:\Windows\System32\spwizeng.?WaitForMultipleObjectsMessageSafeEx@WizardUI@@QEAAKKPEBQEAXHKH@Z
  ?WaitForSingleObjectMessageSafe@WizardUI@@QEAAKPEAXK@Z=C:\Windows\System32\spwizeng.?WaitForSingleObjectMessageSafe@WizardUI@@QEAAKPEAXK@Z
  ?WaitForSingleObjectMessageSafeEx@WizardUI@@QEAAKPEAXKH@Z=C:\Windows\System32\spwizeng.?WaitForSingleObjectMessageSafeEx@WizardUI@@QEAAKPEAXKH@Z
  ?WaitForUIEnd@WizardUI@@QEAAHXZ=C:\Windows\System32\spwizeng.?WaitForUIEnd@WizardUI@@QEAAHXZ
  ?WindowProc@CAttachDataDlg@@SA_JPEAUHWND__@@I_K_J@Z=C:\Windows\System32\spwizeng.?WindowProc@CAttachDataDlg@@SA_JPEAUHWND__@@I_K_J@Z
  ?WindowProc@CGenericNavWindow@@SA_JPEAUHWND__@@I_K_J@Z=C:\Windows\System32\spwizeng.?WindowProc@CGenericNavWindow@@SA_JPEAUHWND__@@I_K_J@Z
  ?WizardThreadProc@WizardUI@@CAKPEAX@Z=C:\Windows\System32\spwizeng.?WizardThreadProc@WizardUI@@CAKPEAX@Z
  ?add_WexStyle@CWndObj@@UEAAX_K@Z=C:\Windows\System32\spwizeng.?add_WexStyle@CWndObj@@UEAAX_K@Z
  ?add_WndStyle@CWndObj@@UEAAX_K@Z=C:\Windows\System32\spwizeng.?add_WndStyle@CWndObj@@UEAAX_K@Z
  ?bLangUiShown@LanguageSelectionDialogBase@@0HA=C:\Windows\System32\spwizeng.?bLangUiShown@LanguageSelectionDialogBase@@0HA
  ?bWeAllocatedInstance@Navigator@@0HA=C:\Windows\System32\spwizeng.?bWeAllocatedInstance@Navigator@@0HA
  ?clr_WexStyle@CWndObj@@UEAAX_K@Z=C:\Windows\System32\spwizeng.?clr_WexStyle@CWndObj@@UEAAX_K@Z
  ?clr_WndStyle@CWndObj@@UEAAX_K@Z=C:\Windows\System32\spwizeng.?clr_WndStyle@CWndObj@@UEAAX_K@Z
  ?getInstance@Navigator@@SAPEAUINavigator@@XZ=C:\Windows\System32\spwizeng.?getInstance@Navigator@@SAPEAUINavigator@@XZ
  ?getInstance@Win32Navigator@@SAPEAV1@XZ=C:\Windows\System32\spwizeng.?getInstance@Win32Navigator@@SAPEAV1@XZ
  ?get_Alpha@CWndObj@@UEAAKXZ=C:\Windows\System32\spwizeng.?get_Alpha@CWndObj@@UEAAKXZ
  ?get_BackColor@CWndObj@@UEAAKXZ=C:\Windows\System32\spwizeng.?get_BackColor@CWndObj@@UEAAKXZ
  ?get_Class@CWndObj@@UEAAPEBGXZ=C:\Windows\System32\spwizeng.?get_Class@CWndObj@@UEAAPEBGXZ
  ?get_ClsStyle@CWndObj@@UEAA_KXZ=C:\Windows\System32\spwizeng.?get_ClsStyle@CWndObj@@UEAA_KXZ
  ?get_Cursor@CWndObj@@UEAAPEAUHICON__@@XZ=C:\Windows\System32\spwizeng.?get_Cursor@CWndObj@@UEAAPEAUHICON__@@XZ
  ?get_Icon@CWndObj@@UEAAPEAUHICON__@@XZ=C:\Windows\System32\spwizeng.?get_Icon@CWndObj@@UEAAPEAUHICON__@@XZ
  ?get_Instance@CWndObj@@UEAAPEAUHINSTANCE__@@XZ=C:\Windows\System32\spwizeng.?get_Instance@CWndObj@@UEAAPEAUHINSTANCE__@@XZ
  ?get_Menu@CWndObj@@UEAAPEAUHMENU__@@XZ=C:\Windows\System32\spwizeng.?get_Menu@CWndObj@@UEAAPEAUHMENU__@@XZ
  ?get_Parent@CWndObj@@UEAAPEAUHWND__@@XZ=C:\Windows\System32\spwizeng.?get_Parent@CWndObj@@UEAAPEAUHWND__@@XZ
  ?get_Position@CWndObj@@UEAAPEAUtagPOINT@@XZ=C:\Windows\System32\spwizeng.?get_Position@CWndObj@@UEAAPEAUtagPOINT@@XZ
  ?get_Size@CWndObj@@UEAAPEAUtagSIZE@@XZ=C:\Windows\System32\spwizeng.?get_Size@CWndObj@@UEAAPEAUtagSIZE@@XZ
  ?get_TextColor@CWndObj@@UEAAKXZ=C:\Windows\System32\spwizeng.?get_TextColor@CWndObj@@UEAAKXZ
  ?get_Title@CWndObj@@UEAAPEBGXZ=C:\Windows\System32\spwizeng.?get_Title@CWndObj@@UEAAPEBGXZ
  ?get_WexStyle@CWndObj@@UEAA_KXZ=C:\Windows\System32\spwizeng.?get_WexStyle@CWndObj@@UEAA_KXZ
  ?get_WndID@CWndObj@@UEAA_KXZ=C:\Windows\System32\spwizeng.?get_WndID@CWndObj@@UEAA_KXZ
  ?get_WndStyle@CWndObj@@UEAA_KXZ=C:\Windows\System32\spwizeng.?get_WndStyle@CWndObj@@UEAA_KXZ
  ?get_hWnd@CWndObj@@UEAAPEAUHWND__@@XZ=C:\Windows\System32\spwizeng.?get_hWnd@CWndObj@@UEAAPEAUHWND__@@XZ
  ?instance@Navigator@@0PEAUINavigator@@EA=C:\Windows\System32\spwizeng.?instance@Navigator@@0PEAUINavigator@@EA
  ?m_CurrentVariation@VariationWizStrategy@@1HA=C:\Windows\System32\spwizeng.?m_CurrentVariation@VariationWizStrategy@@1HA
  ?m_CurrentVariation@WizardVariation@@0HA=C:\Windows\System32\spwizeng.?m_CurrentVariation@WizardVariation@@0HA
  ?m_hcInstance@CHighContrast@@0PEAV1@EA=C:\Windows\System32\spwizeng.?m_hcInstance@CHighContrast@@0PEAV1@EA
  ?m_instance@Win32Navigator@@0PEAV1@EA=C:\Windows\System32\spwizeng.?m_instance@Win32Navigator@@0PEAV1@EA
  ?s_OldLangNeutralLVProc@LanguageNeutralSelectionDialogBase@@0P6A_JPEAUHWND__@@I_K_J@ZEA=C:\Windows\System32\spwizeng.?s_OldLangNeutralLVProc@LanguageNeutralSelectionDialogBase@@0P6A_JPEAUHWND__@@I_K_J@ZEA
  ?s_hbmpScreenBackgroundOld@WizardUI@@0PEAUHBITMAP__@@EA=C:\Windows\System32\spwizeng.?s_hbmpScreenBackgroundOld@WizardUI@@0PEAUHBITMAP__@@EA
  ?s_hdcScreenBackground@WizardUI@@0PEAUHDC__@@EA=C:\Windows\System32\spwizeng.?s_hdcScreenBackground@WizardUI@@0PEAUHDC__@@EA
  ?s_lInitialized@CCursor@@0JA=C:\Windows\System32\spwizeng.?s_lInitialized@CCursor@@0JA
  ?s_pCursor@CCursor@@0PEAV1@EA=C:\Windows\System32\spwizeng.?s_pCursor@CCursor@@0PEAV1@EA
  ?s_pWizardUI@WizardUI@@0PEAV1@EA=C:\Windows\System32\spwizeng.?s_pWizardUI@WizardUI@@0PEAV1@EA
  ?s_szUiLanguage@CResourceModule@@0PEAGEA=C:\Windows\System32\spwizeng.?s_szUiLanguage@CResourceModule@@0PEAGEA
  ?setInstance@Navigator@@SAXPEAUINavigator@@@Z=C:\Windows\System32\spwizeng.?setInstance@Navigator@@SAXPEAUINavigator@@@Z
  ?set_Alpha@CWndObj@@UEAAXK@Z=C:\Windows\System32\spwizeng.?set_Alpha@CWndObj@@UEAAXK@Z
  ?set_BackColor@CWndObj@@UEAAXK@Z=C:\Windows\System32\spwizeng.?set_BackColor@CWndObj@@UEAAXK@Z
  ?set_Class@CWndObj@@UEAAXPEBG@Z=C:\Windows\System32\spwizeng.?set_Class@CWndObj@@UEAAXPEBG@Z
  ?set_ClsStyle@CWndObj@@UEAAX_K@Z=C:\Windows\System32\spwizeng.?set_ClsStyle@CWndObj@@UEAAX_K@Z
  ?set_Cursor@CWndObj@@UEAAXPEAUHICON__@@@Z=C:\Windows\System32\spwizeng.?set_Cursor@CWndObj@@UEAAXPEAUHICON__@@@Z
  ?set_Icon@CWndObj@@UEAAXPEAUHICON__@@@Z=C:\Windows\System32\spwizeng.?set_Icon@CWndObj@@UEAAXPEAUHICON__@@@Z
  ?set_Instance@CWndObj@@UEAAXPEAUHINSTANCE__@@@Z=C:\Windows\System32\spwizeng.?set_Instance@CWndObj@@UEAAXPEAUHINSTANCE__@@@Z
  ?set_Menu@CWndObj@@UEAAXPEAUHMENU__@@@Z=C:\Windows\System32\spwizeng.?set_Menu@CWndObj@@UEAAXPEAUHMENU__@@@Z
  ?set_Parent@CWndObj@@UEAAXPEAUHWND__@@@Z=C:\Windows\System32\spwizeng.?set_Parent@CWndObj@@UEAAXPEAUHWND__@@@Z
  ?set_Position@CWndObj@@UEAAXPEAUtagPOINT@@@Z=C:\Windows\System32\spwizeng.?set_Position@CWndObj@@UEAAXPEAUtagPOINT@@@Z
  ?set_Size@CWndObj@@UEAAXPEAUtagSIZE@@@Z=C:\Windows\System32\spwizeng.?set_Size@CWndObj@@UEAAXPEAUtagSIZE@@@Z
  ?set_Template@CWndObj@@UEAAXK@Z=C:\Windows\System32\spwizeng.?set_Template@CWndObj@@UEAAXK@Z
  ?set_TextColor@CWndObj@@UEAAXK@Z=C:\Windows\System32\spwizeng.?set_TextColor@CWndObj@@UEAAXK@Z
  ?set_Title@CWndObj@@UEAAXPEBG@Z=C:\Windows\System32\spwizeng.?set_Title@CWndObj@@UEAAXPEBG@Z
  ?set_Type@CWndObj@@UEAAXK@Z=C:\Windows\System32\spwizeng.?set_Type@CWndObj@@UEAAXK@Z
  ?set_WexStyle@CWndObj@@UEAAX_K@Z=C:\Windows\System32\spwizeng.?set_WexStyle@CWndObj@@UEAAX_K@Z
  ?set_WndID@CWndObj@@UEAAX_K@Z=C:\Windows\System32\spwizeng.?set_WndID@CWndObj@@UEAAX_K@Z
  ?set_WndStyle@CWndObj@@UEAAX_K@Z=C:\Windows\System32\spwizeng.?set_WndStyle@CWndObj@@UEAAX_K@Z
  ?v_Chk@CAnimationControl@@AEAAHK@Z=C:\Windows\System32\spwizeng.?v_Chk@CAnimationControl@@AEAAHK@Z
  ?v_Chk@CCtlText@@AEAAHK@Z=C:\Windows\System32\spwizeng.?v_Chk@CCtlText@@AEAAHK@Z
  ?v_Chk@CWndObj@@AEAAHK@Z=C:\Windows\System32\spwizeng.?v_Chk@CWndObj@@AEAAHK@Z
  ?v_Chk@NavigationStack@@AEAAHK@Z=C:\Windows\System32\spwizeng.?v_Chk@NavigationStack@@AEAAHK@Z
  ?v_Chk@PageContainer@@AEAAHK@Z=C:\Windows\System32\spwizeng.?v_Chk@PageContainer@@AEAAHK@Z
  ?v_ChkStack@NavigationStack@@AEAAHXZ=C:\Windows\System32\spwizeng.?v_ChkStack@NavigationStack@@AEAAHXZ
  ?v_Clr@CAnimationControl@@AEAAXK@Z=C:\Windows\System32\spwizeng.?v_Clr@CAnimationControl@@AEAAXK@Z
  ?v_Clr@CCtlText@@AEAAXK@Z=C:\Windows\System32\spwizeng.?v_Clr@CCtlText@@AEAAXK@Z
  ?v_Clr@CWndObj@@AEAAXK@Z=C:\Windows\System32\spwizeng.?v_Clr@CWndObj@@AEAAXK@Z
  ?v_Clr@NavigationStack@@AEAAXK@Z=C:\Windows\System32\spwizeng.?v_Clr@NavigationStack@@AEAAXK@Z
  ?v_Clr@PageContainer@@AEAAXK@Z=C:\Windows\System32\spwizeng.?v_Clr@PageContainer@@AEAAXK@Z
  ?v_ClrProps@CWndObj@@AEAAXXZ=C:\Windows\System32\spwizeng.?v_ClrProps@CWndObj@@AEAAXXZ
  ?v_CreatePage@PageContainer@@AEAAXHH@Z=C:\Windows\System32\spwizeng.?v_CreatePage@PageContainer@@AEAAXHH@Z
  ?v_DefWndProc@CWndObj@@AEAA_JI_K_J@Z=C:\Windows\System32\spwizeng.?v_DefWndProc@CWndObj@@AEAA_JI_K_J@Z
  ?v_DestroyAllCachedPages@PageContainer@@AEAAXXZ=C:\Windows\System32\spwizeng.?v_DestroyAllCachedPages@PageContainer@@AEAAXXZ
  ?v_DlgCreate@CWndObj@@AEAAHXZ=C:\Windows\System32\spwizeng.?v_DlgCreate@CWndObj@@AEAAHXZ
  ?v_DoPageChange@Win32Navigator@@AEAAXW4Direction@@PEAVWizardPage@@@Z=C:\Windows\System32\spwizeng.?v_DoPageChange@Win32Navigator@@AEAAXW4Direction@@PEAVWizardPage@@@Z
  ?v_GetHCBkColor@CHighContrast@@AEAAKXZ=C:\Windows\System32\spwizeng.?v_GetHCBkColor@CHighContrast@@AEAAKXZ
  ?v_InitSurface@AppWindow@@AEAAXI@Z=C:\Windows\System32\spwizeng.?v_InitSurface@AppWindow@@AEAAXI@Z
  ?v_InitSurface@ScrWindow@@AEAAXXZ=C:\Windows\System32\spwizeng.?v_InitSurface@ScrWindow@@AEAAXXZ
  ?v_IsRtf@CRichEditControl@@AEAAHXZ=C:\Windows\System32\spwizeng.?v_IsRtf@CRichEditControl@@AEAAHXZ
  ?v_IsValid@PIDStringView@@AEAAHG@Z=C:\Windows\System32\spwizeng.?v_IsValid@PIDStringView@@AEAAHG@Z
  ?v_LoadLibrary@CResourceModule@@AEAAPEAUHINSTANCE__@@PEBG0@Z=C:\Windows\System32\spwizeng.?v_LoadLibrary@CResourceModule@@AEAAPEAUHINSTANCE__@@PEBG0@Z
  ?v_MakePidString@PIDStringView@@AEAAHXZ=C:\Windows\System32\spwizeng.?v_MakePidString@PIDStringView@@AEAAHXZ
  ?v_MakeValidString@PIDStringView@@AEAA?AV?$CStringT@GV?$StrTraitATL@GV?$ChTraitsCRT@G@ATL@@@ATL@@@ATL@@PEBG@Z=C:\Windows\System32\spwizeng.?v_MakeValidString@PIDStringView@@AEAA?AV?$CStringT@GV?$StrTraitATL@GV?$ChTraitsCRT@G@ATL@@@ATL@@@ATL@@PEBG@Z
  ?v_NotifyObservers@CResourceModule@@AEAAXXZ=C:\Windows\System32\spwizeng.?v_NotifyObservers@CResourceModule@@AEAAXXZ
  ?v_Register@CWndObj@@AEAAHXZ=C:\Windows\System32\spwizeng.?v_Register@CWndObj@@AEAAHXZ
  ?v_ReleaseResource@CResourceModule@@AEAAXPEAUHINSTANCE__@@@Z=C:\Windows\System32\spwizeng.?v_ReleaseResource@CResourceModule@@AEAAXPEAUHINSTANCE__@@@Z
  ?v_Set@CAnimationControl@@AEAAXK@Z=C:\Windows\System32\spwizeng.?v_Set@CAnimationControl@@AEAAXK@Z
  ?v_Set@CCtlText@@AEAAXK@Z=C:\Windows\System32\spwizeng.?v_Set@CCtlText@@AEAAXK@Z
  ?v_Set@CWndObj@@AEAAXK@Z=C:\Windows\System32\spwizeng.?v_Set@CWndObj@@AEAAXK@Z
  ?v_Set@NavigationStack@@AEAAXK@Z=C:\Windows\System32\spwizeng.?v_Set@NavigationStack@@AEAAXK@Z
  ?v_Set@PageContainer@@AEAAXK@Z=C:\Windows\System32\spwizeng.?v_Set@PageContainer@@AEAAXK@Z
  ?v_SetCurrentPageInternal@PageContainer@@AEAAXHH@Z=C:\Windows\System32\spwizeng.?v_SetCurrentPageInternal@PageContainer@@AEAAXHH@Z
  ?v_SetWindowTitle@AppWindow@@AEAAXXZ=C:\Windows\System32\spwizeng.?v_SetWindowTitle@AppWindow@@AEAAXXZ
  ?v_SetWindowTitle@ScrWindow@@AEAAXXZ=C:\Windows\System32\spwizeng.?v_SetWindowTitle@ScrWindow@@AEAAXXZ
  ?v_Unload@CDrawBackground@@AEAAXXZ=C:\Windows\System32\spwizeng.?v_Unload@CDrawBackground@@AEAAXXZ
  ?v_Unregister@CWndObj@@AEAAHXZ=C:\Windows\System32\spwizeng.?v_Unregister@CWndObj@@AEAAHXZ
  ?v_WndCreate@CWndObj@@AEAAHXZ=C:\Windows\System32\spwizeng.?v_WndCreate@CWndObj@@AEAAHXZ
  CenterRelativeToWindow=C:\Windows\System32\spwizeng.CenterRelativeToWindow
  CreateMirroredIcon=C:\Windows\System32\spwizeng.CreateMirroredIcon
  CreateModifiedFont=C:\Windows\System32\spwizeng.CreateModifiedFont
  FormatVarMessage=C:\Windows\System32\spwizeng.FormatVarMessage
  GetHwndFont=C:\Windows\System32\spwizeng.GetHwndFont
  GetHwndLogFont=C:\Windows\System32\spwizeng.GetHwndLogFont
  LoadHtmlResource=C:\Windows\System32\spwizeng.LoadHtmlResource
  MoveControl=C:\Windows\System32\spwizeng.MoveControl
  MyDynamicSetWindowText=C:\Windows\System32\spwizeng.MyDynamicSetWindowText
  MySetWindowText=C:\Windows\System32\spwizeng.MySetWindowText
  PaintWindowRegion=C:\Windows\System32\spwizeng.PaintWindowRegion
  SPWE_CloseCurrentMessageBox=C:\Windows\System32\spwizeng.SPWE_CloseCurrentMessageBox
  SPWE_MessageBox=C:\Windows\System32\spwizeng.SPWE_MessageBox
  SetControlFonts=C:\Windows\System32\spwizeng.SetControlFonts
  SetDlgItemTextFromResID=C:\Windows\System32\spwizeng.SetDlgItemTextFromResID
  ShowMigrationReport=C:\Windows\System32\spwizeng.ShowMigrationReport
  ShowReadMoreWndHtml=C:\Windows\System32\spwizeng.ShowReadMoreWndHtml
  ShowReadMoreWndHtmlFromResource=C:\Windows\System32\spwizeng.ShowReadMoreWndHtmlFromResource
  SpwLoadBitmap=C:\Windows\System32\spwizeng.SpwLoadBitmap
  StretchControlToWindow=C:\Windows\System32\spwizeng.StretchControlToWindow
  dlgProc=C:\Windows\System32\spwizeng.dlgProc
  utlGetCtlRect=C:\Windows\System32\spwizeng.utlGetCtlRect
  wndProc=C:\Windows\System32\spwizeng.wndProc
