EXPORTS
  ??0?$CSimpleArray@PEAUACTION@@V?$CSimpleArrayEqualHelper@PEAUACTION@@@ATL@@@ATL@@QEAA@AEBV01@@Z=C:\Windows\System32\Tabbtn.??0?$CSimpleArray@PEAUACTION@@V?$CSimpleArrayEqualHelper@PEAUACTION@@@ATL@@@ATL@@QEAA@AEBV01@@Z
  ??0?$CSimpleArray@PEAUACTION@@V?$CSimpleArrayEqualHelper@PEAUACTION@@@ATL@@@ATL@@QEAA@XZ=C:\Windows\System32\Tabbtn.??0?$CSimpleArray@PEAUACTION@@V?$CSimpleArrayEqualHelper@PEAUACTION@@@ATL@@@ATL@@QEAA@XZ
  ??0?$CSimpleArray@PEAVCButtonAction@@V?$CSimpleArrayEqualHelper@PEAVCButtonAction@@@ATL@@@ATL@@QEAA@AEBV01@@Z=C:\Windows\System32\Tabbtn.??0?$CSimpleArray@PEAVCButtonAction@@V?$CSimpleArrayEqualHelper@PEAVCButtonAction@@@ATL@@@ATL@@QEAA@AEBV01@@Z
  ??0?$CSimpleArray@PEAVCButtonAction@@V?$CSimpleArrayEqualHelper@PEAVCButtonAction@@@ATL@@@ATL@@QEAA@XZ=C:\Windows\System32\Tabbtn.??0?$CSimpleArray@PEAVCButtonAction@@V?$CSimpleArrayEqualHelper@PEAVCButtonAction@@@ATL@@@ATL@@QEAA@XZ
  ??0?$CSimpleArray@PEAVCButtonSetting@@V?$CSimpleArrayEqualHelper@PEAVCButtonSetting@@@ATL@@@ATL@@QEAA@AEBV01@@Z=C:\Windows\System32\Tabbtn.??0?$CSimpleArray@PEAVCButtonSetting@@V?$CSimpleArrayEqualHelper@PEAVCButtonSetting@@@ATL@@@ATL@@QEAA@AEBV01@@Z
  ??0?$CSimpleArray@PEAVCButtonSetting@@V?$CSimpleArrayEqualHelper@PEAVCButtonSetting@@@ATL@@@ATL@@QEAA@XZ=C:\Windows\System32\Tabbtn.??0?$CSimpleArray@PEAVCButtonSetting@@V?$CSimpleArrayEqualHelper@PEAVCButtonSetting@@@ATL@@@ATL@@QEAA@XZ
  ??0?$CSimpleArray@PEAVCOrientation@@V?$CSimpleArrayEqualHelper@PEAVCOrientation@@@ATL@@@ATL@@QEAA@AEBV01@@Z=C:\Windows\System32\Tabbtn.??0?$CSimpleArray@PEAVCOrientation@@V?$CSimpleArrayEqualHelper@PEAVCOrientation@@@ATL@@@ATL@@QEAA@AEBV01@@Z
  ??0?$CSimpleArray@PEAVCOrientation@@V?$CSimpleArrayEqualHelper@PEAVCOrientation@@@ATL@@@ATL@@QEAA@XZ=C:\Windows\System32\Tabbtn.??0?$CSimpleArray@PEAVCOrientation@@V?$CSimpleArrayEqualHelper@PEAVCOrientation@@@ATL@@@ATL@@QEAA@XZ
  ??0?$CSimpleMap@KPEAVCButtonImages@@V?$CSimpleMapEqualHelper@KPEAVCButtonImages@@@ATL@@@ATL@@QEAA@XZ=C:\Windows\System32\Tabbtn.??0?$CSimpleMap@KPEAVCButtonImages@@V?$CSimpleMapEqualHelper@KPEAVCButtonImages@@@ATL@@@ATL@@QEAA@XZ
  ??0CActions@@QEAA@AEBV0@@Z=C:\Windows\System32\Tabbtn.??0CActions@@QEAA@AEBV0@@Z
  ??0CActions@@QEAA@XZ=C:\Windows\System32\Tabbtn.??0CActions@@QEAA@XZ
  ??0CButtonAction@@QEAA@W4BUTTONACTION_TYPE@@@Z=C:\Windows\System32\Tabbtn.??0CButtonAction@@QEAA@W4BUTTONACTION_TYPE@@@Z
  ??0CButtonConfig@@QEAA@AEBV0@@Z=C:\Windows\System32\Tabbtn.??0CButtonConfig@@QEAA@AEBV0@@Z
  ??0CButtonConfig@@QEAA@XZ=C:\Windows\System32\Tabbtn.??0CButtonConfig@@QEAA@XZ
  ??0CButtonMonitor@@QEAA@AEBV0@@Z=C:\Windows\System32\Tabbtn.??0CButtonMonitor@@QEAA@AEBV0@@Z
  ??0CButtonMonitor@@QEAA@XZ=C:\Windows\System32\Tabbtn.??0CButtonMonitor@@QEAA@XZ
  ??0CButtonSetting@@QEAA@AEBV0@@Z=C:\Windows\System32\Tabbtn.??0CButtonSetting@@QEAA@AEBV0@@Z
  ??0CButtonSetting@@QEAA@XZ=C:\Windows\System32\Tabbtn.??0CButtonSetting@@QEAA@XZ
  ??0CButtonSettings@@QEAA@AEBV0@@Z=C:\Windows\System32\Tabbtn.??0CButtonSettings@@QEAA@AEBV0@@Z
  ??0CButtonSettings@@QEAA@XZ=C:\Windows\System32\Tabbtn.??0CButtonSettings@@QEAA@XZ
  ??0CFunctionNotification@@QEAA@XZ=C:\Windows\System32\Tabbtn.??0CFunctionNotification@@QEAA@XZ
  ??0CHidButton@@QEAA@PEAUHWND__@@II@Z=C:\Windows\System32\Tabbtn.??0CHidButton@@QEAA@PEAUHWND__@@II@Z
  ??0COrientation@@QEAA@XZ=C:\Windows\System32\Tabbtn.??0COrientation@@QEAA@XZ
  ??1?$CSimpleArray@PEAUACTION@@V?$CSimpleArrayEqualHelper@PEAUACTION@@@ATL@@@ATL@@QEAA@XZ=C:\Windows\System32\Tabbtn.??1?$CSimpleArray@PEAUACTION@@V?$CSimpleArrayEqualHelper@PEAUACTION@@@ATL@@@ATL@@QEAA@XZ
  ??1?$CSimpleArray@PEAVCButtonAction@@V?$CSimpleArrayEqualHelper@PEAVCButtonAction@@@ATL@@@ATL@@QEAA@XZ=C:\Windows\System32\Tabbtn.??1?$CSimpleArray@PEAVCButtonAction@@V?$CSimpleArrayEqualHelper@PEAVCButtonAction@@@ATL@@@ATL@@QEAA@XZ
  ??1?$CSimpleArray@PEAVCButtonSetting@@V?$CSimpleArrayEqualHelper@PEAVCButtonSetting@@@ATL@@@ATL@@QEAA@XZ=C:\Windows\System32\Tabbtn.??1?$CSimpleArray@PEAVCButtonSetting@@V?$CSimpleArrayEqualHelper@PEAVCButtonSetting@@@ATL@@@ATL@@QEAA@XZ
  ??1?$CSimpleArray@PEAVCOrientation@@V?$CSimpleArrayEqualHelper@PEAVCOrientation@@@ATL@@@ATL@@QEAA@XZ=C:\Windows\System32\Tabbtn.??1?$CSimpleArray@PEAVCOrientation@@V?$CSimpleArrayEqualHelper@PEAVCOrientation@@@ATL@@@ATL@@QEAA@XZ
  ??1?$CSimpleMap@KPEAVCButtonImages@@V?$CSimpleMapEqualHelper@KPEAVCButtonImages@@@ATL@@@ATL@@QEAA@XZ=C:\Windows\System32\Tabbtn.??1?$CSimpleMap@KPEAVCButtonImages@@V?$CSimpleMapEqualHelper@KPEAVCButtonImages@@@ATL@@@ATL@@QEAA@XZ
  ??1CActions@@QEAA@XZ=C:\Windows\System32\Tabbtn.??1CActions@@QEAA@XZ
  ??1CButtonAction@@QEAA@XZ=C:\Windows\System32\Tabbtn.??1CButtonAction@@QEAA@XZ
  ??1CButtonConfig@@QEAA@XZ=C:\Windows\System32\Tabbtn.??1CButtonConfig@@QEAA@XZ
  ??1CButtonMonitor@@QEAA@XZ=C:\Windows\System32\Tabbtn.??1CButtonMonitor@@QEAA@XZ
  ??1CButtonSetting@@QEAA@XZ=C:\Windows\System32\Tabbtn.??1CButtonSetting@@QEAA@XZ
  ??1CButtonSettings@@QEAA@XZ=C:\Windows\System32\Tabbtn.??1CButtonSettings@@QEAA@XZ
  ??1CFunctionNotification@@QEAA@XZ=C:\Windows\System32\Tabbtn.??1CFunctionNotification@@QEAA@XZ
  ??1CHidButton@@QEAA@XZ=C:\Windows\System32\Tabbtn.??1CHidButton@@QEAA@XZ
  ??1COrientation@@QEAA@XZ=C:\Windows\System32\Tabbtn.??1COrientation@@QEAA@XZ
  ??4?$CSimpleArray@PEAUACTION@@V?$CSimpleArrayEqualHelper@PEAUACTION@@@ATL@@@ATL@@QEAAAEAV01@AEBV01@@Z=C:\Windows\System32\Tabbtn.??4?$CSimpleArray@PEAUACTION@@V?$CSimpleArrayEqualHelper@PEAUACTION@@@ATL@@@ATL@@QEAAAEAV01@AEBV01@@Z
  ??4?$CSimpleArray@PEAVCButtonAction@@V?$CSimpleArrayEqualHelper@PEAVCButtonAction@@@ATL@@@ATL@@QEAAAEAV01@AEBV01@@Z=C:\Windows\System32\Tabbtn.??4?$CSimpleArray@PEAVCButtonAction@@V?$CSimpleArrayEqualHelper@PEAVCButtonAction@@@ATL@@@ATL@@QEAAAEAV01@AEBV01@@Z
  ??4?$CSimpleArray@PEAVCButtonSetting@@V?$CSimpleArrayEqualHelper@PEAVCButtonSetting@@@ATL@@@ATL@@QEAAAEAV01@AEBV01@@Z=C:\Windows\System32\Tabbtn.??4?$CSimpleArray@PEAVCButtonSetting@@V?$CSimpleArrayEqualHelper@PEAVCButtonSetting@@@ATL@@@ATL@@QEAAAEAV01@AEBV01@@Z
  ??4?$CSimpleArray@PEAVCOrientation@@V?$CSimpleArrayEqualHelper@PEAVCOrientation@@@ATL@@@ATL@@QEAAAEAV01@AEBV01@@Z=C:\Windows\System32\Tabbtn.??4?$CSimpleArray@PEAVCOrientation@@V?$CSimpleArrayEqualHelper@PEAVCOrientation@@@ATL@@@ATL@@QEAAAEAV01@AEBV01@@Z
  ??4?$CSimpleMap@KPEAVCButtonImages@@V?$CSimpleMapEqualHelper@KPEAVCButtonImages@@@ATL@@@ATL@@QEAAAEAV01@AEBV01@@Z=C:\Windows\System32\Tabbtn.??4?$CSimpleMap@KPEAVCButtonImages@@V?$CSimpleMapEqualHelper@KPEAVCButtonImages@@@ATL@@@ATL@@QEAAAEAV01@AEBV01@@Z
  ??4CActions@@QEAAAEAV0@AEBV0@@Z=C:\Windows\System32\Tabbtn.??4CActions@@QEAAAEAV0@AEBV0@@Z
  ??4CButtonAction@@QEAAAEAV0@AEBV0@@Z=C:\Windows\System32\Tabbtn.??4CButtonAction@@QEAAAEAV0@AEBV0@@Z
  ??4CButtonConfig@@QEAAAEAV0@AEBV0@@Z=C:\Windows\System32\Tabbtn.??4CButtonConfig@@QEAAAEAV0@AEBV0@@Z
  ??4CButtonMonitor@@QEAAAEAV0@AEBV0@@Z=C:\Windows\System32\Tabbtn.??4CButtonMonitor@@QEAAAEAV0@AEBV0@@Z
  ??4CButtonSetting@@QEAAAEAV0@AEBV0@@Z=C:\Windows\System32\Tabbtn.??4CButtonSetting@@QEAAAEAV0@AEBV0@@Z
  ??4CButtonSettings@@QEAAAEAV0@AEBV0@@Z=C:\Windows\System32\Tabbtn.??4CButtonSettings@@QEAAAEAV0@AEBV0@@Z
  ??4CFunctionNotification@@QEAAAEAV0@AEBV0@@Z=C:\Windows\System32\Tabbtn.??4CFunctionNotification@@QEAAAEAV0@AEBV0@@Z
  ??4CHidButton@@QEAAAEAV0@AEBV0@@Z=C:\Windows\System32\Tabbtn.??4CHidButton@@QEAAAEAV0@AEBV0@@Z
  ??4COrientation@@QEAAAEAV0@AEBV0@@Z=C:\Windows\System32\Tabbtn.??4COrientation@@QEAAAEAV0@AEBV0@@Z
  ??A?$CSimpleArray@PEAUACTION@@V?$CSimpleArrayEqualHelper@PEAUACTION@@@ATL@@@ATL@@QEAAAEAPEAUACTION@@H@Z=C:\Windows\System32\Tabbtn.??A?$CSimpleArray@PEAUACTION@@V?$CSimpleArrayEqualHelper@PEAUACTION@@@ATL@@@ATL@@QEAAAEAPEAUACTION@@H@Z
  ??A?$CSimpleArray@PEAUACTION@@V?$CSimpleArrayEqualHelper@PEAUACTION@@@ATL@@@ATL@@QEBAAEBQEAUACTION@@H@Z=C:\Windows\System32\Tabbtn.??A?$CSimpleArray@PEAUACTION@@V?$CSimpleArrayEqualHelper@PEAUACTION@@@ATL@@@ATL@@QEBAAEBQEAUACTION@@H@Z
  ??A?$CSimpleArray@PEAVCButtonAction@@V?$CSimpleArrayEqualHelper@PEAVCButtonAction@@@ATL@@@ATL@@QEAAAEAPEAVCButtonAction@@H@Z=C:\Windows\System32\Tabbtn.??A?$CSimpleArray@PEAVCButtonAction@@V?$CSimpleArrayEqualHelper@PEAVCButtonAction@@@ATL@@@ATL@@QEAAAEAPEAVCButtonAction@@H@Z
  ??A?$CSimpleArray@PEAVCButtonAction@@V?$CSimpleArrayEqualHelper@PEAVCButtonAction@@@ATL@@@ATL@@QEBAAEBQEAVCButtonAction@@H@Z=C:\Windows\System32\Tabbtn.??A?$CSimpleArray@PEAVCButtonAction@@V?$CSimpleArrayEqualHelper@PEAVCButtonAction@@@ATL@@@ATL@@QEBAAEBQEAVCButtonAction@@H@Z
  ??A?$CSimpleArray@PEAVCButtonSetting@@V?$CSimpleArrayEqualHelper@PEAVCButtonSetting@@@ATL@@@ATL@@QEAAAEAPEAVCButtonSetting@@H@Z=C:\Windows\System32\Tabbtn.??A?$CSimpleArray@PEAVCButtonSetting@@V?$CSimpleArrayEqualHelper@PEAVCButtonSetting@@@ATL@@@ATL@@QEAAAEAPEAVCButtonSetting@@H@Z
  ??A?$CSimpleArray@PEAVCButtonSetting@@V?$CSimpleArrayEqualHelper@PEAVCButtonSetting@@@ATL@@@ATL@@QEBAAEBQEAVCButtonSetting@@H@Z=C:\Windows\System32\Tabbtn.??A?$CSimpleArray@PEAVCButtonSetting@@V?$CSimpleArrayEqualHelper@PEAVCButtonSetting@@@ATL@@@ATL@@QEBAAEBQEAVCButtonSetting@@H@Z
  ??A?$CSimpleArray@PEAVCOrientation@@V?$CSimpleArrayEqualHelper@PEAVCOrientation@@@ATL@@@ATL@@QEAAAEAPEAVCOrientation@@H@Z=C:\Windows\System32\Tabbtn.??A?$CSimpleArray@PEAVCOrientation@@V?$CSimpleArrayEqualHelper@PEAVCOrientation@@@ATL@@@ATL@@QEAAAEAPEAVCOrientation@@H@Z
  ??A?$CSimpleArray@PEAVCOrientation@@V?$CSimpleArrayEqualHelper@PEAVCOrientation@@@ATL@@@ATL@@QEBAAEBQEAVCOrientation@@H@Z=C:\Windows\System32\Tabbtn.??A?$CSimpleArray@PEAVCOrientation@@V?$CSimpleArrayEqualHelper@PEAVCOrientation@@@ATL@@@ATL@@QEBAAEBQEAVCOrientation@@H@Z
  ?Add@?$CSimpleArray@PEAUACTION@@V?$CSimpleArrayEqualHelper@PEAUACTION@@@ATL@@@ATL@@QEAAHAEBQEAUACTION@@@Z=C:\Windows\System32\Tabbtn.?Add@?$CSimpleArray@PEAUACTION@@V?$CSimpleArrayEqualHelper@PEAUACTION@@@ATL@@@ATL@@QEAAHAEBQEAUACTION@@@Z
  ?Add@?$CSimpleArray@PEAVCButtonAction@@V?$CSimpleArrayEqualHelper@PEAVCButtonAction@@@ATL@@@ATL@@QEAAHAEBQEAVCButtonAction@@@Z=C:\Windows\System32\Tabbtn.?Add@?$CSimpleArray@PEAVCButtonAction@@V?$CSimpleArrayEqualHelper@PEAVCButtonAction@@@ATL@@@ATL@@QEAAHAEBQEAVCButtonAction@@@Z
  ?Add@?$CSimpleArray@PEAVCButtonSetting@@V?$CSimpleArrayEqualHelper@PEAVCButtonSetting@@@ATL@@@ATL@@QEAAHAEBQEAVCButtonSetting@@@Z=C:\Windows\System32\Tabbtn.?Add@?$CSimpleArray@PEAVCButtonSetting@@V?$CSimpleArrayEqualHelper@PEAVCButtonSetting@@@ATL@@@ATL@@QEAAHAEBQEAVCButtonSetting@@@Z
  ?Add@?$CSimpleArray@PEAVCOrientation@@V?$CSimpleArrayEqualHelper@PEAVCOrientation@@@ATL@@@ATL@@QEAAHAEBQEAVCOrientation@@@Z=C:\Windows\System32\Tabbtn.?Add@?$CSimpleArray@PEAVCOrientation@@V?$CSimpleArrayEqualHelper@PEAVCOrientation@@@ATL@@@ATL@@QEAAHAEBQEAVCOrientation@@@Z
  ?Add@?$CSimpleMap@KPEAVCButtonImages@@V?$CSimpleMapEqualHelper@KPEAVCButtonImages@@@ATL@@@ATL@@QEAAHAEBKAEBQEAVCButtonImages@@@Z=C:\Windows\System32\Tabbtn.?Add@?$CSimpleMap@KPEAVCButtonImages@@V?$CSimpleMapEqualHelper@KPEAVCButtonImages@@@ATL@@@ATL@@QEAAHAEBKAEBQEAVCButtonImages@@@Z
  ?CanRepeat@CButtonAction@@QEBAHXZ=C:\Windows\System32\Tabbtn.?CanRepeat@CButtonAction@@QEBAHXZ
  ?Clone@CButtonAction@@QEBAJPEAPEAV1@@Z=C:\Windows\System32\Tabbtn.?Clone@CButtonAction@@QEBAJPEAPEAV1@@Z
  ?CreateExtendedActionObject@CButtonMonitor@@SAJPEAPEAUIUnknown@@@Z=C:\Windows\System32\Tabbtn.?CreateExtendedActionObject@CButtonMonitor@@SAJPEAPEAUIUnknown@@@Z
  ?CreateTrayWindow@CFunctionNotification@@AEAAJXZ=C:\Windows\System32\Tabbtn.?CreateTrayWindow@CFunctionNotification@@AEAAJXZ
  ?DispatchHidBtnEvents@CHidButton@@QEAAJPEAUHRAWINPUT__@@@Z=C:\Windows\System32\Tabbtn.?DispatchHidBtnEvents@CHidButton@@QEAAJPEAUHRAWINPUT__@@@Z
  ?DoBuiltInAction@CButtonMonitor@@AEAAJPEAVCButtonAction@@HH@Z=C:\Windows\System32\Tabbtn.?DoBuiltInAction@CButtonMonitor@@AEAAJPEAVCButtonAction@@HH@Z
  ?DoButtonAction@CButtonMonitor@@AEAAJPEAVCButtonAction@@KHH@Z=C:\Windows\System32\Tabbtn.?DoButtonAction@CButtonMonitor@@AEAAJPEAVCButtonAction@@KHH@Z
  ?ExecuteObject@CButtonMonitor@@AEAAJPEBG0@Z=C:\Windows\System32\Tabbtn.?ExecuteObject@CButtonMonitor@@AEAAJPEBG0@Z
  ?Find@?$CSimpleArray@PEAUACTION@@V?$CSimpleArrayEqualHelper@PEAUACTION@@@ATL@@@ATL@@QEBAHAEBQEAUACTION@@@Z=C:\Windows\System32\Tabbtn.?Find@?$CSimpleArray@PEAUACTION@@V?$CSimpleArrayEqualHelper@PEAUACTION@@@ATL@@@ATL@@QEBAHAEBQEAUACTION@@@Z
  ?Find@?$CSimpleArray@PEAVCButtonAction@@V?$CSimpleArrayEqualHelper@PEAVCButtonAction@@@ATL@@@ATL@@QEBAHAEBQEAVCButtonAction@@@Z=C:\Windows\System32\Tabbtn.?Find@?$CSimpleArray@PEAVCButtonAction@@V?$CSimpleArrayEqualHelper@PEAVCButtonAction@@@ATL@@@ATL@@QEBAHAEBQEAVCButtonAction@@@Z
  ?Find@?$CSimpleArray@PEAVCButtonSetting@@V?$CSimpleArrayEqualHelper@PEAVCButtonSetting@@@ATL@@@ATL@@QEBAHAEBQEAVCButtonSetting@@@Z=C:\Windows\System32\Tabbtn.?Find@?$CSimpleArray@PEAVCButtonSetting@@V?$CSimpleArrayEqualHelper@PEAVCButtonSetting@@@ATL@@@ATL@@QEBAHAEBQEAVCButtonSetting@@@Z
  ?Find@?$CSimpleArray@PEAVCOrientation@@V?$CSimpleArrayEqualHelper@PEAVCOrientation@@@ATL@@@ATL@@QEBAHAEBQEAVCOrientation@@@Z=C:\Windows\System32\Tabbtn.?Find@?$CSimpleArray@PEAVCOrientation@@V?$CSimpleArrayEqualHelper@PEAVCOrientation@@@ATL@@@ATL@@QEBAHAEBQEAVCOrientation@@@Z
  ?FindActionById@CActions@@QEAAPEAUACTION@@K@Z=C:\Windows\System32\Tabbtn.?FindActionById@CActions@@QEAAPEAUACTION@@K@Z
  ?FindDeviceByHandle@CHidButton@@QEAAPEAU_hidbtndev@@PEAX@Z=C:\Windows\System32\Tabbtn.?FindDeviceByHandle@CHidButton@@QEAAPEAU_hidbtndev@@PEAX@Z
  ?FindKey@?$CSimpleMap@KPEAVCButtonImages@@V?$CSimpleMapEqualHelper@KPEAVCButtonImages@@@ATL@@@ATL@@QEBAHAEBK@Z=C:\Windows\System32\Tabbtn.?FindKey@?$CSimpleMap@KPEAVCButtonImages@@V?$CSimpleMapEqualHelper@KPEAVCButtonImages@@@ATL@@@ATL@@QEBAHAEBK@Z
  ?FindUsage@CHidButton@@AEAAHPEAU_USAGE_AND_PAGE@@KGG@Z=C:\Windows\System32\Tabbtn.?FindUsage@CHidButton@@AEAAHPEAU_USAGE_AND_PAGE@@KGG@Z
  ?FindVal@?$CSimpleMap@KPEAVCButtonImages@@V?$CSimpleMapEqualHelper@KPEAVCButtonImages@@@ATL@@@ATL@@QEBAHAEBQEAVCButtonImages@@@Z=C:\Windows\System32\Tabbtn.?FindVal@?$CSimpleMap@KPEAVCButtonImages@@V?$CSimpleMapEqualHelper@KPEAVCButtonImages@@@ATL@@@ATL@@QEBAHAEBQEAVCButtonImages@@@Z
  ?FreeData@CButtonAction@@QEAAXXZ=C:\Windows\System32\Tabbtn.?FreeData@CButtonAction@@QEAAXXZ
  ?GetActionAt@CActions@@QEAAPEAUACTION@@H@Z=C:\Windows\System32\Tabbtn.?GetActionAt@CActions@@QEAAPEAUACTION@@H@Z
  ?GetActionFromOrientation@CButtonSetting@@QEAAJKPEAPEAVCButtonAction@@00@Z=C:\Windows\System32\Tabbtn.?GetActionFromOrientation@CButtonSetting@@QEAAJKPEAPEAVCButtonAction@@00@Z
  ?GetAllowedActions@CButtonSetting@@QEAAPEBGXZ=C:\Windows\System32\Tabbtn.?GetAllowedActions@CButtonSetting@@QEAAPEBGXZ
  ?GetButtonActionType@CButtonAction@@QEBA?BW4BUTTONACTION_TYPE@@XZ=C:\Windows\System32\Tabbtn.?GetButtonActionType@CButtonAction@@QEBA?BW4BUTTONACTION_TYPE@@XZ
  ?GetButtonConfig@CButtonMonitor@@QEAAPEAVCButtonConfig@@XZ=C:\Windows\System32\Tabbtn.?GetButtonConfig@CButtonMonitor@@QEAAPEAVCButtonConfig@@XZ
  ?GetButtonCount@CButtonSettings@@QEBAHXZ=C:\Windows\System32\Tabbtn.?GetButtonCount@CButtonSettings@@QEBAHXZ
  ?GetButtonFromId@CButtonSettings@@QEAAJKPEAPEAVCButtonSetting@@@Z=C:\Windows\System32\Tabbtn.?GetButtonFromId@CButtonSettings@@QEAAJKPEAPEAVCButtonSetting@@@Z
  ?GetButtonIdFromIndex@CButtonSettings@@QEAAKK@Z=C:\Windows\System32\Tabbtn.?GetButtonIdFromIndex@CButtonSettings@@QEAAKK@Z
  ?GetButtonIds@CButtonSettings@@QEBAJPEAKH@Z=C:\Windows\System32\Tabbtn.?GetButtonIds@CButtonSettings@@QEBAJPEAKH@Z
  ?GetButtonName@CButtonSetting@@QEAAPEBGXZ=C:\Windows\System32\Tabbtn.?GetButtonName@CButtonSetting@@QEAAPEBGXZ
  ?GetButtonName@CButtonSettings@@QEBAPEBGH@Z=C:\Windows\System32\Tabbtn.?GetButtonName@CButtonSettings@@QEBAPEBGH@Z
  ?GetCount@CActions@@QEAAHXZ=C:\Windows\System32\Tabbtn.?GetCount@CActions@@QEAAHXZ
  ?GetCurrentDisplayOrientation@CButtonConfig@@QEAAKXZ=C:\Windows\System32\Tabbtn.?GetCurrentDisplayOrientation@CButtonConfig@@QEAAKXZ
  ?GetData@?$CSimpleArray@PEAUACTION@@V?$CSimpleArrayEqualHelper@PEAUACTION@@@ATL@@@ATL@@QEBAPEAPEAUACTION@@XZ=C:\Windows\System32\Tabbtn.?GetData@?$CSimpleArray@PEAUACTION@@V?$CSimpleArrayEqualHelper@PEAUACTION@@@ATL@@@ATL@@QEBAPEAPEAUACTION@@XZ
  ?GetData@?$CSimpleArray@PEAVCButtonAction@@V?$CSimpleArrayEqualHelper@PEAVCButtonAction@@@ATL@@@ATL@@QEBAPEAPEAVCButtonAction@@XZ=C:\Windows\System32\Tabbtn.?GetData@?$CSimpleArray@PEAVCButtonAction@@V?$CSimpleArrayEqualHelper@PEAVCButtonAction@@@ATL@@@ATL@@QEBAPEAPEAVCButtonAction@@XZ
  ?GetData@?$CSimpleArray@PEAVCButtonSetting@@V?$CSimpleArrayEqualHelper@PEAVCButtonSetting@@@ATL@@@ATL@@QEBAPEAPEAVCButtonSetting@@XZ=C:\Windows\System32\Tabbtn.?GetData@?$CSimpleArray@PEAVCButtonSetting@@V?$CSimpleArrayEqualHelper@PEAVCButtonSetting@@@ATL@@@ATL@@QEBAPEAPEAVCButtonSetting@@XZ
  ?GetData@?$CSimpleArray@PEAVCOrientation@@V?$CSimpleArrayEqualHelper@PEAVCOrientation@@@ATL@@@ATL@@QEBAPEAPEAVCOrientation@@XZ=C:\Windows\System32\Tabbtn.?GetData@?$CSimpleArray@PEAVCOrientation@@V?$CSimpleArrayEqualHelper@PEAVCOrientation@@@ATL@@@ATL@@QEBAPEAPEAVCOrientation@@XZ
  ?GetData@CButtonAction@@QEBAQEAEXZ=C:\Windows\System32\Tabbtn.?GetData@CButtonAction@@QEBAQEAEXZ
  ?GetDataDWORD@CButtonAction@@QEBA?BKXZ=C:\Windows\System32\Tabbtn.?GetDataDWORD@CButtonAction@@QEBA?BKXZ
  ?GetDefSeq@COrientation@@QEAAKXZ=C:\Windows\System32\Tabbtn.?GetDefSeq@COrientation@@QEAAKXZ
  ?GetDescription@COrientation@@QEAAPEBGXZ=C:\Windows\System32\Tabbtn.?GetDescription@COrientation@@QEAAPEBGXZ
  ?GetDetailImage@CButtonSettings@@QEAAPEAUHBITMAP__@@KK@Z=C:\Windows\System32\Tabbtn.?GetDetailImage@CButtonSettings@@QEAAPEAUHBITMAP__@@KK@Z
  ?GetDisallowedActions@CButtonSetting@@QEAAPEBGXZ=C:\Windows\System32\Tabbtn.?GetDisallowedActions@CButtonSetting@@QEAAPEBGXZ
  ?GetDisplayOrientationName@CButtonConfig@@QEAAPEBGK@Z=C:\Windows\System32\Tabbtn.?GetDisplayOrientationName@CButtonConfig@@QEAAPEBGK@Z
  ?GetFlags@CButtonSetting@@QEAAKXZ=C:\Windows\System32\Tabbtn.?GetFlags@CButtonSetting@@QEAAKXZ
  ?GetFnKeyButtonId@CButtonSettings@@QEAAKXZ=C:\Windows\System32\Tabbtn.?GetFnKeyButtonId@CButtonSettings@@QEAAKXZ
  ?GetHidBtnUsages@CHidButton@@AEAAHPEAU_hidbtndev@@PEAUtagRAWINPUT@@GGPEAU_USAGE_AND_PAGE@@PEAK@Z=C:\Windows\System32\Tabbtn.?GetHidBtnUsages@CHidButton@@AEAAHPEAU_hidbtndev@@PEAUtagRAWINPUT@@GGPEAU_USAGE_AND_PAGE@@PEAK@Z
  ?GetId@CButtonAction@@QEBAKXZ=C:\Windows\System32\Tabbtn.?GetId@CButtonAction@@QEBAKXZ
  ?GetId@CButtonSetting@@QEAAKXZ=C:\Windows\System32\Tabbtn.?GetId@CButtonSetting@@QEAAKXZ
  ?GetKeyAt@?$CSimpleMap@KPEAVCButtonImages@@V?$CSimpleMapEqualHelper@KPEAVCButtonImages@@@ATL@@@ATL@@QEBAAEAKH@Z=C:\Windows\System32\Tabbtn.?GetKeyAt@?$CSimpleMap@KPEAVCButtonImages@@V?$CSimpleMapEqualHelper@KPEAVCButtonImages@@@ATL@@@ATL@@QEBAAEAKH@Z
  ?GetKeyName@COrientation@@QEAAPEBGXZ=C:\Windows\System32\Tabbtn.?GetKeyName@COrientation@@QEAAPEBGXZ
  ?GetLocationImage@CButtonSettings@@QEAAPEAUHBITMAP__@@KK@Z=C:\Windows\System32\Tabbtn.?GetLocationImage@CButtonSettings@@QEAAPEAUHBITMAP__@@KK@Z
  ?GetMode@COrientation@@QEAAKXZ=C:\Windows\System32\Tabbtn.?GetMode@COrientation@@QEAAKXZ
  ?GetOrientSeq@CButtonConfig@@QEBAKI@Z=C:\Windows\System32\Tabbtn.?GetOrientSeq@CButtonConfig@@QEBAKI@Z
  ?GetOrientSeqCount@CButtonConfig@@QEBAKXZ=C:\Windows\System32\Tabbtn.?GetOrientSeqCount@CButtonConfig@@QEBAKXZ
  ?GetOrientationMode@CButtonAction@@QEBAKXZ=C:\Windows\System32\Tabbtn.?GetOrientationMode@CButtonAction@@QEBAKXZ
  ?GetRegType@CButtonAction@@QEBAKXZ=C:\Windows\System32\Tabbtn.?GetRegType@CButtonAction@@QEBAKXZ
  ?GetSize@?$CSimpleArray@PEAUACTION@@V?$CSimpleArrayEqualHelper@PEAUACTION@@@ATL@@@ATL@@QEBAHXZ=C:\Windows\System32\Tabbtn.?GetSize@?$CSimpleArray@PEAUACTION@@V?$CSimpleArrayEqualHelper@PEAUACTION@@@ATL@@@ATL@@QEBAHXZ
  ?GetSize@?$CSimpleArray@PEAVCButtonAction@@V?$CSimpleArrayEqualHelper@PEAVCButtonAction@@@ATL@@@ATL@@QEBAHXZ=C:\Windows\System32\Tabbtn.?GetSize@?$CSimpleArray@PEAVCButtonAction@@V?$CSimpleArrayEqualHelper@PEAVCButtonAction@@@ATL@@@ATL@@QEBAHXZ
  ?GetSize@?$CSimpleArray@PEAVCButtonSetting@@V?$CSimpleArrayEqualHelper@PEAVCButtonSetting@@@ATL@@@ATL@@QEBAHXZ=C:\Windows\System32\Tabbtn.?GetSize@?$CSimpleArray@PEAVCButtonSetting@@V?$CSimpleArrayEqualHelper@PEAVCButtonSetting@@@ATL@@@ATL@@QEBAHXZ
  ?GetSize@?$CSimpleArray@PEAVCOrientation@@V?$CSimpleArrayEqualHelper@PEAVCOrientation@@@ATL@@@ATL@@QEBAHXZ=C:\Windows\System32\Tabbtn.?GetSize@?$CSimpleArray@PEAVCOrientation@@V?$CSimpleArrayEqualHelper@PEAVCOrientation@@@ATL@@@ATL@@QEBAHXZ
  ?GetSize@?$CSimpleMap@KPEAVCButtonImages@@V?$CSimpleMapEqualHelper@KPEAVCButtonImages@@@ATL@@@ATL@@QEBAHXZ=C:\Windows\System32\Tabbtn.?GetSize@?$CSimpleMap@KPEAVCButtonImages@@V?$CSimpleMapEqualHelper@KPEAVCButtonImages@@@ATL@@@ATL@@QEBAHXZ
  ?GetSize@CButtonAction@@QEBAKXZ=C:\Windows\System32\Tabbtn.?GetSize@CButtonAction@@QEBAKXZ
  ?GetValueAt@?$CSimpleMap@KPEAVCButtonImages@@V?$CSimpleMapEqualHelper@KPEAVCButtonImages@@@ATL@@@ATL@@QEBAAEAPEAVCButtonImages@@H@Z=C:\Windows\System32\Tabbtn.?GetValueAt@?$CSimpleMap@KPEAVCButtonImages@@V?$CSimpleMapEqualHelper@KPEAVCButtonImages@@@ATL@@@ATL@@QEBAAEAPEAVCButtonImages@@H@Z
  ?Hide@CFunctionNotification@@QEAAJXZ=C:\Windows\System32\Tabbtn.?Hide@CFunctionNotification@@QEAAJXZ
  ?InSession0@CButtonMonitor@@AEAAHXZ=C:\Windows\System32\Tabbtn.?InSession0@CButtonMonitor@@AEAAHXZ
  ?Init@CActions@@QEAAJXZ=C:\Windows\System32\Tabbtn.?Init@CActions@@QEAAJXZ
  ?Init@CButtonConfig@@QEAAJH@Z=C:\Windows\System32\Tabbtn.?Init@CButtonConfig@@QEAAJH@Z
  ?Init@CButtonMonitor@@QEAAJPEAUHWND__@@@Z=C:\Windows\System32\Tabbtn.?Init@CButtonMonitor@@QEAAJPEAUHWND__@@@Z
  ?Init@COrientation@@QEAAJPEAUHKEY__@@@Z=C:\Windows\System32\Tabbtn.?Init@COrientation@@QEAAJPEAUHKEY__@@@Z
  ?InternalSetAtIndex@?$CSimpleArray@PEAUACTION@@V?$CSimpleArrayEqualHelper@PEAUACTION@@@ATL@@@ATL@@QEAAXHAEBQEAUACTION@@@Z=C:\Windows\System32\Tabbtn.?InternalSetAtIndex@?$CSimpleArray@PEAUACTION@@V?$CSimpleArrayEqualHelper@PEAUACTION@@@ATL@@@ATL@@QEAAXHAEBQEAUACTION@@@Z
  ?InternalSetAtIndex@?$CSimpleArray@PEAVCButtonAction@@V?$CSimpleArrayEqualHelper@PEAVCButtonAction@@@ATL@@@ATL@@QEAAXHAEBQEAVCButtonAction@@@Z=C:\Windows\System32\Tabbtn.?InternalSetAtIndex@?$CSimpleArray@PEAVCButtonAction@@V?$CSimpleArrayEqualHelper@PEAVCButtonAction@@@ATL@@@ATL@@QEAAXHAEBQEAVCButtonAction@@@Z
  ?InternalSetAtIndex@?$CSimpleArray@PEAVCButtonSetting@@V?$CSimpleArrayEqualHelper@PEAVCButtonSetting@@@ATL@@@ATL@@QEAAXHAEBQEAVCButtonSetting@@@Z=C:\Windows\System32\Tabbtn.?InternalSetAtIndex@?$CSimpleArray@PEAVCButtonSetting@@V?$CSimpleArrayEqualHelper@PEAVCButtonSetting@@@ATL@@@ATL@@QEAAXHAEBQEAVCButtonSetting@@@Z
  ?InternalSetAtIndex@?$CSimpleArray@PEAVCOrientation@@V?$CSimpleArrayEqualHelper@PEAVCOrientation@@@ATL@@@ATL@@QEAAXHAEBQEAVCOrientation@@@Z=C:\Windows\System32\Tabbtn.?InternalSetAtIndex@?$CSimpleArray@PEAVCOrientation@@V?$CSimpleArrayEqualHelper@PEAVCOrientation@@@ATL@@@ATL@@QEAAXHAEBQEAVCOrientation@@@Z
  ?InternalSetAtIndex@?$CSimpleMap@KPEAVCButtonImages@@V?$CSimpleMapEqualHelper@KPEAVCButtonImages@@@ATL@@@ATL@@QEAAXHAEBKAEBQEAVCButtonImages@@@Z=C:\Windows\System32\Tabbtn.?InternalSetAtIndex@?$CSimpleMap@KPEAVCButtonImages@@V?$CSimpleMapEqualHelper@KPEAVCButtonImages@@@ATL@@@ATL@@QEAAXHAEBKAEBQEAVCButtonImages@@@Z
  ?IsActionRepeatable@CButtonAction@@SAHK@Z=C:\Windows\System32\Tabbtn.?IsActionRepeatable@CButtonAction@@SAHK@Z
  ?IsActionUnsupported@CButtonMonitor@@SAHK@Z=C:\Windows\System32\Tabbtn.?IsActionUnsupported@CButtonMonitor@@SAHK@Z
  ?IsSameAction@CButtonAction@@QEBAHPEBV1@@Z=C:\Windows\System32\Tabbtn.?IsSameAction@CButtonAction@@QEBAHPEBV1@@Z
  ?LoadImageDLL@CButtonSettings@@AEAAHXZ=C:\Windows\System32\Tabbtn.?LoadImageDLL@CButtonSettings@@AEAAHXZ
  ?LoadSettings@CButtonConfig@@QEAAJXZ=C:\Windows\System32\Tabbtn.?LoadSettings@CButtonConfig@@QEAAJXZ
  ?Lookup@?$CSimpleMap@KPEAVCButtonImages@@V?$CSimpleMapEqualHelper@KPEAVCButtonImages@@@ATL@@@ATL@@QEBAPEAVCButtonImages@@AEBK@Z=C:\Windows\System32\Tabbtn.?Lookup@?$CSimpleMap@KPEAVCButtonImages@@V?$CSimpleMapEqualHelper@KPEAVCButtonImages@@@ATL@@@ATL@@QEBAPEAVCButtonImages@@AEBK@Z
  ?MakeAllUserActionsEqual@CButtonSetting@@QEAAJK@Z=C:\Windows\System32\Tabbtn.?MakeAllUserActionsEqual@CButtonSetting@@QEAAJK@Z
  ?NotifyFnMode@CButtonMonitor@@AEAAJH@Z=C:\Windows\System32\Tabbtn.?NotifyFnMode@CButtonMonitor@@AEAAJH@Z
  ?OnActionAppCommand@CButtonMonitor@@AEAAJPEAVCButtonAction@@HH@Z=C:\Windows\System32\Tabbtn.?OnActionAppCommand@CButtonMonitor@@AEAAJPEAVCButtonAction@@HH@Z
  ?OnActionContextMenu@CButtonMonitor@@AEAAJPEAVCButtonAction@@HH@Z=C:\Windows\System32\Tabbtn.?OnActionContextMenu@CButtonMonitor@@AEAAJPEAVCButtonAction@@HH@Z
  ?OnActionDisplayOff@CButtonMonitor@@AEAAJPEAVCButtonAction@@HH@Z=C:\Windows\System32\Tabbtn.?OnActionDisplayOff@CButtonMonitor@@AEAAJPEAVCButtonAction@@HH@Z
  ?OnActionLaunchApp@CButtonMonitor@@AEAAJPEAVCButtonAction@@HH@Z=C:\Windows\System32\Tabbtn.?OnActionLaunchApp@CButtonMonitor@@AEAAJPEAVCButtonAction@@HH@Z
  ?OnActionMouseWheel@CButtonMonitor@@AEAAJPEAVCButtonAction@@HH@Z=C:\Windows\System32\Tabbtn.?OnActionMouseWheel@CButtonMonitor@@AEAAJPEAVCButtonAction@@HH@Z
  ?OnActionSendKey@CButtonMonitor@@AEAAJPEAVCButtonAction@@HH@Z=C:\Windows\System32\Tabbtn.?OnActionSendKey@CButtonMonitor@@AEAAJPEAVCButtonAction@@HH@Z
  ?OnActionSetOrientation@CButtonMonitor@@AEAAJPEAVCButtonAction@@HH@Z=C:\Windows\System32\Tabbtn.?OnActionSetOrientation@CButtonMonitor@@AEAAJPEAVCButtonAction@@HH@Z
  ?OnActionUnknown@CButtonMonitor@@AEAAJPEAVCButtonAction@@HH@Z=C:\Windows\System32\Tabbtn.?OnActionUnknown@CButtonMonitor@@AEAAJPEAVCButtonAction@@HH@Z
  ?OnActionWindowsFlip3d@CButtonMonitor@@AEAAJPEAVCButtonAction@@HH@Z=C:\Windows\System32\Tabbtn.?OnActionWindowsFlip3d@CButtonMonitor@@AEAAJPEAVCButtonAction@@HH@Z
  ?OnActionWindowsFlip@CButtonMonitor@@AEAAJPEAVCButtonAction@@HH@Z=C:\Windows\System32\Tabbtn.?OnActionWindowsFlip@CButtonMonitor@@AEAAJPEAVCButtonAction@@HH@Z
  ?OnButtonDown@CButtonMonitor@@AEAAX_K_J@Z=C:\Windows\System32\Tabbtn.?OnButtonDown@CButtonMonitor@@AEAAX_K_J@Z
  ?OnButtonUp@CButtonMonitor@@AEAAX_K_J@Z=C:\Windows\System32\Tabbtn.?OnButtonUp@CButtonMonitor@@AEAAX_K_J@Z
  ?OnDisplayChange@CButtonMonitor@@AEAAX_K_J@Z=C:\Windows\System32\Tabbtn.?OnDisplayChange@CButtonMonitor@@AEAAX_K_J@Z
  ?OnFnKeyTimer@CButtonMonitor@@AEAAXXZ=C:\Windows\System32\Tabbtn.?OnFnKeyTimer@CButtonMonitor@@AEAAXXZ
  ?OnHoldTimer@CButtonMonitor@@AEAAXXZ=C:\Windows\System32\Tabbtn.?OnHoldTimer@CButtonMonitor@@AEAAXXZ
  ?OnInput@CButtonMonitor@@AEAAX_K_J@Z=C:\Windows\System32\Tabbtn.?OnInput@CButtonMonitor@@AEAAX_K_J@Z
  ?OnMessage@CButtonMonitor@@QEAAXI_K_J@Z=C:\Windows\System32\Tabbtn.?OnMessage@CButtonMonitor@@QEAAXI_K_J@Z
  ?OnRepeatTimer@CButtonMonitor@@AEAAXXZ=C:\Windows\System32\Tabbtn.?OnRepeatTimer@CButtonMonitor@@AEAAXXZ
  ?OnSettingChange@CButtonMonitor@@AEAAX_K_J@Z=C:\Windows\System32\Tabbtn.?OnSettingChange@CButtonMonitor@@AEAAX_K_J@Z
  ?OnTimer@CButtonMonitor@@AEAAX_K_J@Z=C:\Windows\System32\Tabbtn.?OnTimer@CButtonMonitor@@AEAAX_K_J@Z
  ?ProcessAction@CButtonMonitor@@AEAAJKH@Z=C:\Windows\System32\Tabbtn.?ProcessAction@CButtonMonitor@@AEAAJKH@Z
  ?ProcessEvent@CButtonMonitor@@AEAAJKH@Z=C:\Windows\System32\Tabbtn.?ProcessEvent@CButtonMonitor@@AEAAJKH@Z
  ?RegReadActions@CButtonConfig@@QEAAXPEAUHKEY__@@PEAVCButtonSetting@@H@Z=C:\Windows\System32\Tabbtn.?RegReadActions@CButtonConfig@@QEAAXPEAUHKEY__@@PEAVCButtonSetting@@H@Z
  ?RegReadAndAllocate@CButtonConfig@@SAJPEAUHKEY__@@PEBGPEAKPEAPEAE2@Z=C:\Windows\System32\Tabbtn.?RegReadAndAllocate@CButtonConfig@@SAJPEAUHKEY__@@PEBGPEAKPEAPEAE2@Z
  ?RegReadButtonSetting@CButtonConfig@@QEAAJPEAUHKEY__@@HH@Z=C:\Windows\System32\Tabbtn.?RegReadButtonSetting@CButtonConfig@@QEAAJPEAUHKEY__@@HH@Z
  ?RegReadButtonsSettings@CButtonConfig@@QEAAJXZ=C:\Windows\System32\Tabbtn.?RegReadButtonsSettings@CButtonConfig@@QEAAJXZ
  ?RegReadDisplayOrientations@CButtonConfig@@QEAAJXZ=C:\Windows\System32\Tabbtn.?RegReadDisplayOrientations@CButtonConfig@@QEAAJXZ
  ?RegReadOrientationSeq@CButtonConfig@@QEAAJXZ=C:\Windows\System32\Tabbtn.?RegReadOrientationSeq@CButtonConfig@@QEAAJXZ
  ?RegisterButtonDevices@CButtonMonitor@@QEAAJXZ=C:\Windows\System32\Tabbtn.?RegisterButtonDevices@CButtonMonitor@@QEAAJXZ
  ?RegisterForPopups@CButtonMonitor@@AEAAJXZ=C:\Windows\System32\Tabbtn.?RegisterForPopups@CButtonMonitor@@AEAAJXZ
  ?RegisterHidBtnDevice@CHidButton@@QEAAPEAU_hidbtndev@@PEAXPEAK@Z=C:\Windows\System32\Tabbtn.?RegisterHidBtnDevice@CHidButton@@QEAAPEAU_hidbtndev@@PEAXPEAK@Z
  ?ReleaseDownButtons@CButtonMonitor@@AEAAJXZ=C:\Windows\System32\Tabbtn.?ReleaseDownButtons@CButtonMonitor@@AEAAJXZ
  ?ReleaseRepeatOrHoldButton@CButtonMonitor@@AEAAJXZ=C:\Windows\System32\Tabbtn.?ReleaseRepeatOrHoldButton@CButtonMonitor@@AEAAJXZ
  ?Remove@?$CSimpleArray@PEAUACTION@@V?$CSimpleArrayEqualHelper@PEAUACTION@@@ATL@@@ATL@@QEAAHAEBQEAUACTION@@@Z=C:\Windows\System32\Tabbtn.?Remove@?$CSimpleArray@PEAUACTION@@V?$CSimpleArrayEqualHelper@PEAUACTION@@@ATL@@@ATL@@QEAAHAEBQEAUACTION@@@Z
  ?Remove@?$CSimpleArray@PEAVCButtonAction@@V?$CSimpleArrayEqualHelper@PEAVCButtonAction@@@ATL@@@ATL@@QEAAHAEBQEAVCButtonAction@@@Z=C:\Windows\System32\Tabbtn.?Remove@?$CSimpleArray@PEAVCButtonAction@@V?$CSimpleArrayEqualHelper@PEAVCButtonAction@@@ATL@@@ATL@@QEAAHAEBQEAVCButtonAction@@@Z
  ?Remove@?$CSimpleArray@PEAVCButtonSetting@@V?$CSimpleArrayEqualHelper@PEAVCButtonSetting@@@ATL@@@ATL@@QEAAHAEBQEAVCButtonSetting@@@Z=C:\Windows\System32\Tabbtn.?Remove@?$CSimpleArray@PEAVCButtonSetting@@V?$CSimpleArrayEqualHelper@PEAVCButtonSetting@@@ATL@@@ATL@@QEAAHAEBQEAVCButtonSetting@@@Z
  ?Remove@?$CSimpleArray@PEAVCOrientation@@V?$CSimpleArrayEqualHelper@PEAVCOrientation@@@ATL@@@ATL@@QEAAHAEBQEAVCOrientation@@@Z=C:\Windows\System32\Tabbtn.?Remove@?$CSimpleArray@PEAVCOrientation@@V?$CSimpleArrayEqualHelper@PEAVCOrientation@@@ATL@@@ATL@@QEAAHAEBQEAVCOrientation@@@Z
  ?Remove@?$CSimpleMap@KPEAVCButtonImages@@V?$CSimpleMapEqualHelper@KPEAVCButtonImages@@@ATL@@@ATL@@QEAAHAEBK@Z=C:\Windows\System32\Tabbtn.?Remove@?$CSimpleMap@KPEAVCButtonImages@@V?$CSimpleMapEqualHelper@KPEAVCButtonImages@@@ATL@@@ATL@@QEAAHAEBK@Z
  ?RemoveAll@?$CSimpleArray@PEAUACTION@@V?$CSimpleArrayEqualHelper@PEAUACTION@@@ATL@@@ATL@@QEAAXXZ=C:\Windows\System32\Tabbtn.?RemoveAll@?$CSimpleArray@PEAUACTION@@V?$CSimpleArrayEqualHelper@PEAUACTION@@@ATL@@@ATL@@QEAAXXZ
  ?RemoveAll@?$CSimpleArray@PEAVCButtonAction@@V?$CSimpleArrayEqualHelper@PEAVCButtonAction@@@ATL@@@ATL@@QEAAXXZ=C:\Windows\System32\Tabbtn.?RemoveAll@?$CSimpleArray@PEAVCButtonAction@@V?$CSimpleArrayEqualHelper@PEAVCButtonAction@@@ATL@@@ATL@@QEAAXXZ
  ?RemoveAll@?$CSimpleArray@PEAVCButtonSetting@@V?$CSimpleArrayEqualHelper@PEAVCButtonSetting@@@ATL@@@ATL@@QEAAXXZ=C:\Windows\System32\Tabbtn.?RemoveAll@?$CSimpleArray@PEAVCButtonSetting@@V?$CSimpleArrayEqualHelper@PEAVCButtonSetting@@@ATL@@@ATL@@QEAAXXZ
  ?RemoveAll@?$CSimpleArray@PEAVCOrientation@@V?$CSimpleArrayEqualHelper@PEAVCOrientation@@@ATL@@@ATL@@QEAAXXZ=C:\Windows\System32\Tabbtn.?RemoveAll@?$CSimpleArray@PEAVCOrientation@@V?$CSimpleArrayEqualHelper@PEAVCOrientation@@@ATL@@@ATL@@QEAAXXZ
  ?RemoveAll@?$CSimpleMap@KPEAVCButtonImages@@V?$CSimpleMapEqualHelper@KPEAVCButtonImages@@@ATL@@@ATL@@QEAAXXZ=C:\Windows\System32\Tabbtn.?RemoveAll@?$CSimpleMap@KPEAVCButtonImages@@V?$CSimpleMapEqualHelper@KPEAVCButtonImages@@@ATL@@@ATL@@QEAAXXZ
  ?RemoveAt@?$CSimpleArray@PEAUACTION@@V?$CSimpleArrayEqualHelper@PEAUACTION@@@ATL@@@ATL@@QEAAHH@Z=C:\Windows\System32\Tabbtn.?RemoveAt@?$CSimpleArray@PEAUACTION@@V?$CSimpleArrayEqualHelper@PEAUACTION@@@ATL@@@ATL@@QEAAHH@Z
  ?RemoveAt@?$CSimpleArray@PEAVCButtonAction@@V?$CSimpleArrayEqualHelper@PEAVCButtonAction@@@ATL@@@ATL@@QEAAHH@Z=C:\Windows\System32\Tabbtn.?RemoveAt@?$CSimpleArray@PEAVCButtonAction@@V?$CSimpleArrayEqualHelper@PEAVCButtonAction@@@ATL@@@ATL@@QEAAHH@Z
  ?RemoveAt@?$CSimpleArray@PEAVCButtonSetting@@V?$CSimpleArrayEqualHelper@PEAVCButtonSetting@@@ATL@@@ATL@@QEAAHH@Z=C:\Windows\System32\Tabbtn.?RemoveAt@?$CSimpleArray@PEAVCButtonSetting@@V?$CSimpleArrayEqualHelper@PEAVCButtonSetting@@@ATL@@@ATL@@QEAAHH@Z
  ?RemoveAt@?$CSimpleArray@PEAVCOrientation@@V?$CSimpleArrayEqualHelper@PEAVCOrientation@@@ATL@@@ATL@@QEAAHH@Z=C:\Windows\System32\Tabbtn.?RemoveAt@?$CSimpleArray@PEAVCOrientation@@V?$CSimpleArrayEqualHelper@PEAVCOrientation@@@ATL@@@ATL@@QEAAHH@Z
  ?RemoveAt@?$CSimpleMap@KPEAVCButtonImages@@V?$CSimpleMapEqualHelper@KPEAVCButtonImages@@@ATL@@@ATL@@QEAAHH@Z=C:\Windows\System32\Tabbtn.?RemoveAt@?$CSimpleMap@KPEAVCButtonImages@@V?$CSimpleMapEqualHelper@KPEAVCButtonImages@@@ATL@@@ATL@@QEAAHH@Z
  ?ResetDeprecatedAction@CButtonConfig@@AEAAXPEAVCButtonAction@@@Z=C:\Windows\System32\Tabbtn.?ResetDeprecatedAction@CButtonConfig@@AEAAXPEAVCButtonAction@@@Z
  ?ReverseLookup@?$CSimpleMap@KPEAVCButtonImages@@V?$CSimpleMapEqualHelper@KPEAVCButtonImages@@@ATL@@@ATL@@QEBAKAEBQEAVCButtonImages@@@Z=C:\Windows\System32\Tabbtn.?ReverseLookup@?$CSimpleMap@KPEAVCButtonImages@@V?$CSimpleMapEqualHelper@KPEAVCButtonImages@@@ATL@@@ATL@@QEBAKAEBQEAVCButtonImages@@@Z
  ?SaveSettings@CButtonConfig@@QEAAJXZ=C:\Windows\System32\Tabbtn.?SaveSettings@CButtonConfig@@QEAAJXZ
  ?SendAppCommand@CButtonMonitor@@AEAAJG@Z=C:\Windows\System32\Tabbtn.?SendAppCommand@CButtonMonitor@@AEAAJG@Z
  ?SendModKeys@CButtonMonitor@@CAXEH@Z=C:\Windows\System32\Tabbtn.?SendModKeys@CButtonMonitor@@CAXEH@Z
  ?SendVKey@CButtonMonitor@@CAXEEH@Z=C:\Windows\System32\Tabbtn.?SendVKey@CButtonMonitor@@CAXEEH@Z
  ?Set@CButtonAction@@QEAAJPEBV1@@Z=C:\Windows\System32\Tabbtn.?Set@CButtonAction@@QEAAJPEBV1@@Z
  ?SetAt@?$CSimpleMap@KPEAVCButtonImages@@V?$CSimpleMapEqualHelper@KPEAVCButtonImages@@@ATL@@@ATL@@QEAAHAEBKAEBQEAVCButtonImages@@@Z=C:\Windows\System32\Tabbtn.?SetAt@?$CSimpleMap@KPEAVCButtonImages@@V?$CSimpleMapEqualHelper@KPEAVCButtonImages@@@ATL@@@ATL@@QEAAHAEBKAEBQEAVCButtonImages@@@Z
  ?SetAtIndex@?$CSimpleArray@PEAUACTION@@V?$CSimpleArrayEqualHelper@PEAUACTION@@@ATL@@@ATL@@QEAAHHAEBQEAUACTION@@@Z=C:\Windows\System32\Tabbtn.?SetAtIndex@?$CSimpleArray@PEAUACTION@@V?$CSimpleArrayEqualHelper@PEAUACTION@@@ATL@@@ATL@@QEAAHHAEBQEAUACTION@@@Z
  ?SetAtIndex@?$CSimpleArray@PEAVCButtonAction@@V?$CSimpleArrayEqualHelper@PEAVCButtonAction@@@ATL@@@ATL@@QEAAHHAEBQEAVCButtonAction@@@Z=C:\Windows\System32\Tabbtn.?SetAtIndex@?$CSimpleArray@PEAVCButtonAction@@V?$CSimpleArrayEqualHelper@PEAVCButtonAction@@@ATL@@@ATL@@QEAAHHAEBQEAVCButtonAction@@@Z
  ?SetAtIndex@?$CSimpleArray@PEAVCButtonSetting@@V?$CSimpleArrayEqualHelper@PEAVCButtonSetting@@@ATL@@@ATL@@QEAAHHAEBQEAVCButtonSetting@@@Z=C:\Windows\System32\Tabbtn.?SetAtIndex@?$CSimpleArray@PEAVCButtonSetting@@V?$CSimpleArrayEqualHelper@PEAVCButtonSetting@@@ATL@@@ATL@@QEAAHHAEBQEAVCButtonSetting@@@Z
  ?SetAtIndex@?$CSimpleArray@PEAVCOrientation@@V?$CSimpleArrayEqualHelper@PEAVCOrientation@@@ATL@@@ATL@@QEAAHHAEBQEAVCOrientation@@@Z=C:\Windows\System32\Tabbtn.?SetAtIndex@?$CSimpleArray@PEAVCOrientation@@V?$CSimpleArrayEqualHelper@PEAVCOrientation@@@ATL@@@ATL@@QEAAHHAEBQEAVCOrientation@@@Z
  ?SetAtIndex@?$CSimpleMap@KPEAVCButtonImages@@V?$CSimpleMapEqualHelper@KPEAVCButtonImages@@@ATL@@@ATL@@QEAAHHAEBKAEBQEAVCButtonImages@@@Z=C:\Windows\System32\Tabbtn.?SetAtIndex@?$CSimpleMap@KPEAVCButtonImages@@V?$CSimpleMapEqualHelper@KPEAVCButtonImages@@@ATL@@@ATL@@QEAAHHAEBKAEBQEAVCButtonImages@@@Z
  ?SetData@CButtonAction@@QEAAJQEAEK@Z=C:\Windows\System32\Tabbtn.?SetData@CButtonAction@@QEAAJQEAEK@Z
  ?SetDataDWORD@CButtonAction@@QEAAJK@Z=C:\Windows\System32\Tabbtn.?SetDataDWORD@CButtonAction@@QEAAJK@Z
  ?SetDisplayOrientation@CButtonMonitor@@AEAAJH@Z=C:\Windows\System32\Tabbtn.?SetDisplayOrientation@CButtonMonitor@@AEAAJH@Z
  ?SetDisplayPower@CButtonMonitor@@AEAAXH@Z=C:\Windows\System32\Tabbtn.?SetDisplayPower@CButtonMonitor@@AEAAXH@Z
  ?SetId@CButtonAction@@QEAAXK@Z=C:\Windows\System32\Tabbtn.?SetId@CButtonAction@@QEAAXK@Z
  ?ShouldButtonShowUI@CButtonSettings@@QEBAHH@Z=C:\Windows\System32\Tabbtn.?ShouldButtonShowUI@CButtonSettings@@QEBAHH@Z
  ?ShouldSendEscapeForBack@CButtonMonitor@@AEAAHXZ=C:\Windows\System32\Tabbtn.?ShouldSendEscapeForBack@CButtonMonitor@@AEAAHXZ
  ?Show@CFunctionNotification@@QEAAJXZ=C:\Windows\System32\Tabbtn.?Show@CFunctionNotification@@QEAAJXZ
  ?ShowWindowSwitchWindow@CButtonMonitor@@CAJXZ=C:\Windows\System32\Tabbtn.?ShowWindowSwitchWindow@CButtonMonitor@@CAJXZ
  ?UnregisterButtonDevices@CButtonMonitor@@QEAAJXZ=C:\Windows\System32\Tabbtn.?UnregisterButtonDevices@CButtonMonitor@@QEAAJXZ
  ?UnregisterHidBtnDevice@CHidButton@@QEAAHPEAU_hidbtndev@@PEAK@Z=C:\Windows\System32\Tabbtn.?UnregisterHidBtnDevice@CHidButton@@QEAAHPEAU_hidbtndev@@PEAK@Z
  ?UpdateButtonRates@CButtonConfig@@QEAAJXZ=C:\Windows\System32\Tabbtn.?UpdateButtonRates@CButtonConfig@@QEAAJXZ
  ?UpdateCurrentDisplayOrientation@CButtonConfig@@QEAAXXZ=C:\Windows\System32\Tabbtn.?UpdateCurrentDisplayOrientation@CButtonConfig@@QEAAXXZ
  ?WinEventProc@CButtonMonitor@@SAXPEAUHWINEVENTHOOK__@@KPEAUHWND__@@JJKK@Z=C:\Windows\System32\Tabbtn.?WinEventProc@CButtonMonitor@@SAXPEAUHWINEVENTHOOK__@@KPEAUHWND__@@JJKK@Z
  ?WindowProc@CFunctionNotification@@SA_JPEAUHWND__@@I_K_J@Z=C:\Windows\System32\Tabbtn.?WindowProc@CFunctionNotification@@SA_JPEAUHWND__@@I_K_J@Z
  ?sm_dwPopupCount@CButtonMonitor@@2KA=C:\Windows\System32\Tabbtn.?sm_dwPopupCount@CButtonMonitor@@2KA
  HandleTabletButtonMessages=C:\Windows\System32\Tabbtn.HandleTabletButtonMessages
  InitializeTabletButtons=C:\Windows\System32\Tabbtn.InitializeTabletButtons
  UninitializeTabletButtons=C:\Windows\System32\Tabbtn.UninitializeTabletButtons
