EXPORTS
  ??0REGISTRY@@QEAA@XZ=C:\Windows\System32\ureg.??0REGISTRY@@QEAA@XZ
  ??0REGISTRY_KEY_INFO@@QEAA@XZ=C:\Windows\System32\ureg.??0REGISTRY_KEY_INFO@@QEAA@XZ
  ??0REGISTRY_VALUE_ENTRY@@QEAA@XZ=C:\Windows\System32\ureg.??0REGISTRY_VALUE_ENTRY@@QEAA@XZ
  ??1REGISTRY@@UEAA@XZ=C:\Windows\System32\ureg.??1REGISTRY@@UEAA@XZ
  ??1REGISTRY_KEY_INFO@@UEAA@XZ=C:\Windows\System32\ureg.??1REGISTRY_KEY_INFO@@UEAA@XZ
  ??1REGISTRY_VALUE_ENTRY@@UEAA@XZ=C:\Windows\System32\ureg.??1REGISTRY_VALUE_ENTRY@@UEAA@XZ
  ?AddValueEntry@REGISTRY@@QEAAEW4_PREDEFINED_KEY@@PEAVREGISTRY_KEY_INFO@@PEBVREGISTRY_VALUE_ENTRY@@EPEAK@Z=C:\Windows\System32\ureg.?AddValueEntry@REGISTRY@@QEAAEW4_PREDEFINED_KEY@@PEAVREGISTRY_KEY_INFO@@PEBVREGISTRY_VALUE_ENTRY@@EPEAK@Z
  ?CreateKey@REGISTRY@@QEAAEW4_PREDEFINED_KEY@@PEAVREGISTRY_KEY_INFO@@1PEAKE@Z=C:\Windows\System32\ureg.?CreateKey@REGISTRY@@QEAAEW4_PREDEFINED_KEY@@PEAVREGISTRY_KEY_INFO@@1PEAKE@Z
  ?DeleteKey@REGISTRY@@QEAAEW4_PREDEFINED_KEY@@PEAVREGISTRY_KEY_INFO@@PEBVWSTRING@@PEAK@Z=C:\Windows\System32\ureg.?DeleteKey@REGISTRY@@QEAAEW4_PREDEFINED_KEY@@PEAVREGISTRY_KEY_INFO@@PEBVWSTRING@@PEAK@Z
  ?DeleteValueEntry@REGISTRY@@QEAAEW4_PREDEFINED_KEY@@PEAVREGISTRY_KEY_INFO@@PEBVWSTRING@@PEAK@Z=C:\Windows\System32\ureg.?DeleteValueEntry@REGISTRY@@QEAAEW4_PREDEFINED_KEY@@PEAVREGISTRY_KEY_INFO@@PEBVWSTRING@@PEAK@Z
  ?DoesKeyExist@REGISTRY@@QEAAEW4_PREDEFINED_KEY@@PEBVWSTRING@@1PEAK@Z=C:\Windows\System32\ureg.?DoesKeyExist@REGISTRY@@QEAAEW4_PREDEFINED_KEY@@PEBVWSTRING@@1PEAK@Z
  ?DoesValueExist@REGISTRY@@QEAAEW4_PREDEFINED_KEY@@PEBVWSTRING@@11PEAK@Z=C:\Windows\System32\ureg.?DoesValueExist@REGISTRY@@QEAAEW4_PREDEFINED_KEY@@PEBVWSTRING@@11PEAK@Z
  ?EnableRootNotification@REGISTRY@@QEAAEW4_PREDEFINED_KEY@@PEAXKE@Z=C:\Windows\System32\ureg.?EnableRootNotification@REGISTRY@@QEAAEW4_PREDEFINED_KEY@@PEAXKE@Z
  ?Initialize@REGISTRY@@QEAAEPEBVWSTRING@@PEAK@Z=C:\Windows\System32\ureg.?Initialize@REGISTRY@@QEAAEPEBVWSTRING@@PEAK@Z
  ?Initialize@REGISTRY_KEY_INFO@@QEAAEPEBVWSTRING@@0K0PEAU_SECURITY_ATTRIBUTES@@@Z=C:\Windows\System32\ureg.?Initialize@REGISTRY_KEY_INFO@@QEAAEPEBVWSTRING@@0K0PEAU_SECURITY_ATTRIBUTES@@@Z
  ?Initialize@REGISTRY_VALUE_ENTRY@@QEAAEPEBVWSTRING@@KW4_REG_TYPE@@PEBEK@Z=C:\Windows\System32\ureg.?Initialize@REGISTRY_VALUE_ENTRY@@QEAAEPEBVWSTRING@@KW4_REG_TYPE@@PEBEK@Z
  ?IsAccessAllowed@REGISTRY@@QEAAEW4_PREDEFINED_KEY@@PEAVREGISTRY_KEY_INFO@@KPEAK@Z=C:\Windows\System32\ureg.?IsAccessAllowed@REGISTRY@@QEAAEW4_PREDEFINED_KEY@@PEAVREGISTRY_KEY_INFO@@KPEAK@Z
  ?LoadHive@REGISTRY@@QEAAEW4_PREDEFINED_KEY@@PEAVREGISTRY_KEY_INFO@@PEBVWSTRING@@PEAK@Z=C:\Windows\System32\ureg.?LoadHive@REGISTRY@@QEAAEW4_PREDEFINED_KEY@@PEAVREGISTRY_KEY_INFO@@PEBVWSTRING@@PEAK@Z
  ?QueryKeyInfo@REGISTRY@@QEAAEW4_PREDEFINED_KEY@@PEBVWSTRING@@1PEAVREGISTRY_KEY_INFO@@PEAK@Z=C:\Windows\System32\ureg.?QueryKeyInfo@REGISTRY@@QEAAEW4_PREDEFINED_KEY@@PEBVWSTRING@@1PEAVREGISTRY_KEY_INFO@@PEAK@Z
  ?QueryKeySecurity@REGISTRY@@QEAAEW4_PREDEFINED_KEY@@PEBVREGISTRY_KEY_INFO@@KPEAPEAXPEAK@Z=C:\Windows\System32\ureg.?QueryKeySecurity@REGISTRY@@QEAAEW4_PREDEFINED_KEY@@PEBVREGISTRY_KEY_INFO@@KPEAPEAXPEAK@Z
  ?QuerySubKeysInfo@REGISTRY@@QEAAEW4_PREDEFINED_KEY@@PEBVWSTRING@@1PEAVARRAY@@PEAK@Z=C:\Windows\System32\ureg.?QuerySubKeysInfo@REGISTRY@@QEAAEW4_PREDEFINED_KEY@@PEBVWSTRING@@1PEAVARRAY@@PEAK@Z
  ?QueryValues@REGISTRY@@QEAAEW4_PREDEFINED_KEY@@PEBVWSTRING@@1PEAVARRAY@@PEAK@Z=C:\Windows\System32\ureg.?QueryValues@REGISTRY@@QEAAEW4_PREDEFINED_KEY@@PEBVWSTRING@@1PEAVARRAY@@PEAK@Z
  ?RestoreKeyFromFile@REGISTRY@@QEAAEW4_PREDEFINED_KEY@@PEAVREGISTRY_KEY_INFO@@PEBVWSTRING@@EPEAK@Z=C:\Windows\System32\ureg.?RestoreKeyFromFile@REGISTRY@@QEAAEW4_PREDEFINED_KEY@@PEAVREGISTRY_KEY_INFO@@PEBVWSTRING@@EPEAK@Z
  ?SaveKeyToFile@REGISTRY@@QEAAEW4_PREDEFINED_KEY@@PEAVREGISTRY_KEY_INFO@@PEBVWSTRING@@PEAK@Z=C:\Windows\System32\ureg.?SaveKeyToFile@REGISTRY@@QEAAEW4_PREDEFINED_KEY@@PEAVREGISTRY_KEY_INFO@@PEBVWSTRING@@PEAK@Z
  ?SetKeySecurity@REGISTRY@@QEAAEW4_PREDEFINED_KEY@@PEAVREGISTRY_KEY_INFO@@KPEAXPEAKE@Z=C:\Windows\System32\ureg.?SetKeySecurity@REGISTRY@@QEAAEW4_PREDEFINED_KEY@@PEAVREGISTRY_KEY_INFO@@KPEAXPEAKE@Z
  ?UnLoadHive@REGISTRY@@QEAAEW4_PREDEFINED_KEY@@PEAVREGISTRY_KEY_INFO@@PEAK@Z=C:\Windows\System32\ureg.?UnLoadHive@REGISTRY@@QEAAEW4_PREDEFINED_KEY@@PEAVREGISTRY_KEY_INFO@@PEAK@Z
  ?UpdateKeyInfo@REGISTRY@@QEAAEW4_PREDEFINED_KEY@@PEAVREGISTRY_KEY_INFO@@PEAK@Z=C:\Windows\System32\ureg.?UpdateKeyInfo@REGISTRY@@QEAAEW4_PREDEFINED_KEY@@PEAVREGISTRY_KEY_INFO@@PEAK@Z
