EXPORTS
  ??0CalculateSize@Comms@@QEAA@_N0@Z=C:\Windows\System32\UserDataPlatformHelperUtil.??0CalculateSize@Comms@@QEAA@_N0@Z
  ??0Deserializer@Comms@@QEAA@PEBE0_N1@Z=C:\Windows\System32\UserDataPlatformHelperUtil.??0Deserializer@Comms@@QEAA@PEBE0_N1@Z
  ??0RpcClient@Comms@@QEAA@XZ=C:\Windows\System32\UserDataPlatformHelperUtil.??0RpcClient@Comms@@QEAA@XZ
  ??0SecureRpcClient@Comms@@QEAA@XZ=C:\Windows\System32\UserDataPlatformHelperUtil.??0SecureRpcClient@Comms@@QEAA@XZ
  ??0SerializeBuffer@Comms@@QEAA@AEBVCalculateSize@1@_N1@Z=C:\Windows\System32\UserDataPlatformHelperUtil.??0SerializeBuffer@Comms@@QEAA@AEBVCalculateSize@1@_N1@Z
  ??1Deserializer@Comms@@QEAA@XZ=C:\Windows\System32\UserDataPlatformHelperUtil.??1Deserializer@Comms@@QEAA@XZ
  ??1RpcClient@Comms@@QEAA@XZ=C:\Windows\System32\UserDataPlatformHelperUtil.??1RpcClient@Comms@@QEAA@XZ
  ??1SecureRpcClient@Comms@@UEAA@XZ=C:\Windows\System32\UserDataPlatformHelperUtil.??1SecureRpcClient@Comms@@UEAA@XZ
  ?CopyBytesIn@CalculateSize@Comms@@UEAAXPEBX_KAEBVtype_info@@@Z=C:\Windows\System32\UserDataPlatformHelperUtil.?CopyBytesIn@CalculateSize@Comms@@UEAAXPEBX_KAEBVtype_info@@@Z
  ?CopyBytesIn@SerializeBuffer@Comms@@UEAAXPEBX_KAEBVtype_info@@@Z=C:\Windows\System32\UserDataPlatformHelperUtil.?CopyBytesIn@SerializeBuffer@Comms@@UEAAXPEBX_KAEBVtype_info@@@Z
  ?CopyBytesOut@Deserializer@Comms@@QEAA_NPEAX_KAEBVtype_info@@@Z=C:\Windows\System32\UserDataPlatformHelperUtil.?CopyBytesOut@Deserializer@Comms@@QEAA_NPEAX_KAEBVtype_info@@@Z
  ?DeserializeObject@Comms@@YA_NAEAVDeserializer@1@AEAPEAD@Z=C:\Windows\System32\UserDataPlatformHelperUtil.?DeserializeObject@Comms@@YA_NAEAVDeserializer@1@AEAPEAD@Z
  ?DeserializeObject@Comms@@YA_NAEAVDeserializer@1@AEAPEAG@Z=C:\Windows\System32\UserDataPlatformHelperUtil.?DeserializeObject@Comms@@YA_NAEAVDeserializer@1@AEAPEAG@Z
  ?DeserializeObject@Comms@@YA_NAEAVDeserializer@1@AEAPEBD@Z=C:\Windows\System32\UserDataPlatformHelperUtil.?DeserializeObject@Comms@@YA_NAEAVDeserializer@1@AEAPEBD@Z
  ?DeserializeObject@Comms@@YA_NAEAVDeserializer@1@AEAPEBG@Z=C:\Windows\System32\UserDataPlatformHelperUtil.?DeserializeObject@Comms@@YA_NAEAVDeserializer@1@AEAPEBG@Z
  ?DeserializeObject@Comms@@YA_NAEAVDeserializer@1@AEAV?$basic_string@GU?$char_traits@G@utl@@V?$allocator@G@2@@utl@@@Z=C:\Windows\System32\UserDataPlatformHelperUtil.?DeserializeObject@Comms@@YA_NAEAVDeserializer@1@AEAV?$basic_string@GU?$char_traits@G@utl@@V?$allocator@G@2@@utl@@@Z
  ?DeserializeObject@Comms@@YA_NAEAVDeserializer@1@AEAV?$vector@EV?$allocator@E@utl@@@utl@@@Z=C:\Windows\System32\UserDataPlatformHelperUtil.?DeserializeObject@Comms@@YA_NAEAVDeserializer@1@AEAV?$vector@EV?$allocator@E@utl@@@utl@@@Z
  ?DeserializeObject@Comms@@YA_NAEAVDeserializer@1@AEAVNullType@detail@1@@Z=C:\Windows\System32\UserDataPlatformHelperUtil.?DeserializeObject@Comms@@YA_NAEAVDeserializer@1@AEAVNullType@detail@1@@Z
  ?DeserializeObject@Comms@@YA_NAEAVDeserializer@1@AEBVNullType@detail@1@@Z=C:\Windows\System32\UserDataPlatformHelperUtil.?DeserializeObject@Comms@@YA_NAEAVDeserializer@1@AEBVNullType@detail@1@@Z
  ?GetBuffer@Deserializer@Comms@@QEAAPEAX_K@Z=C:\Windows\System32\UserDataPlatformHelperUtil.?GetBuffer@Deserializer@Comms@@QEAAPEAX_K@Z
  ?GetBuffer@SerializeBuffer@Comms@@QEAAXAEAV?$vector@EV?$allocator@E@utl@@@utl@@@Z=C:\Windows\System32\UserDataPlatformHelperUtil.?GetBuffer@SerializeBuffer@Comms@@QEAAXAEAV?$vector@EV?$allocator@E@utl@@@utl@@@Z
  ?GetBuffer@SerializeBuffer@Comms@@QEBAPEBV?$vector@EV?$allocator@E@utl@@@utl@@XZ=C:\Windows\System32\UserDataPlatformHelperUtil.?GetBuffer@SerializeBuffer@Comms@@QEBAPEBV?$vector@EV?$allocator@E@utl@@@utl@@XZ
  ?GetTotal@CalculateSize@Comms@@QEBA_KXZ=C:\Windows\System32\UserDataPlatformHelperUtil.?GetTotal@CalculateSize@Comms@@QEBA_KXZ
  ?Initialize@SerializeBuffer@Comms@@QEAA_NXZ=C:\Windows\System32\UserDataPlatformHelperUtil.?Initialize@SerializeBuffer@Comms@@QEAA_NXZ
  ?InitializeBinding@RpcClient@Comms@@QEAAJPEBGAEAPEAX@Z=C:\Windows\System32\UserDataPlatformHelperUtil.?InitializeBinding@RpcClient@Comms@@QEAAJPEBGAEAPEAX@Z
  ?ReleaseBuffer@Deserializer@Comms@@QEAAXPEBX@Z=C:\Windows\System32\UserDataPlatformHelperUtil.?ReleaseBuffer@Deserializer@Comms@@QEAAXPEBX@Z
  ?SerializeObject@Comms@@YAXAEAVSerializeBase@1@AEBV?$basic_string@GU?$char_traits@G@utl@@V?$allocator@G@2@@utl@@@Z=C:\Windows\System32\UserDataPlatformHelperUtil.?SerializeObject@Comms@@YAXAEAVSerializeBase@1@AEBV?$basic_string@GU?$char_traits@G@utl@@V?$allocator@G@2@@utl@@@Z
  ?SerializeObject@Comms@@YAXAEAVSerializeBase@1@AEBV?$vector@EV?$allocator@E@utl@@@utl@@@Z=C:\Windows\System32\UserDataPlatformHelperUtil.?SerializeObject@Comms@@YAXAEAVSerializeBase@1@AEBV?$vector@EV?$allocator@E@utl@@@utl@@@Z
  ?SerializeObject@Comms@@YAXAEAVSerializeBase@1@AEBVNullType@detail@1@@Z=C:\Windows\System32\UserDataPlatformHelperUtil.?SerializeObject@Comms@@YAXAEAVSerializeBase@1@AEBVNullType@detail@1@@Z
  ?SerializeObject@Comms@@YAXAEAVSerializeBase@1@PEBD@Z=C:\Windows\System32\UserDataPlatformHelperUtil.?SerializeObject@Comms@@YAXAEAVSerializeBase@1@PEBD@Z
  ?SerializeObject@Comms@@YAXAEAVSerializeBase@1@PEBG@Z=C:\Windows\System32\UserDataPlatformHelperUtil.?SerializeObject@Comms@@YAXAEAVSerializeBase@1@PEBG@Z
  ?_InitializeSecureRpcBinding@SecureRpcClient@Comms@@IEAAJPEBG0@Z=C:\Windows\System32\UserDataPlatformHelperUtil.?_InitializeSecureRpcBinding@SecureRpcClient@Comms@@IEAAJPEBG0@Z
  ConvertHtmlStringToPlainTextStringOneCore=C:\Windows\System32\UserDataPlatformHelperUtil.ConvertHtmlStringToPlainTextStringOneCore
  ConvertPlainTextStringToHtmlStringOneCore=C:\Windows\System32\UserDataPlatformHelperUtil.ConvertPlainTextStringToHtmlStringOneCore
  CreateKnownFolderPath=C:\Windows\System32\UserDataPlatformHelperUtil.CreateKnownFolderPath
  DefaultMakeHresultFromJetError=C:\Windows\System32\UserDataPlatformHelperUtil.DefaultMakeHresultFromJetError
  DllCanUnloadNow=C:\Windows\System32\UserDataPlatformHelperUtil.DllCanUnloadNow
  DllGetClassObject=C:\Windows\System32\UserDataPlatformHelperUtil.DllGetClassObject
  FreeEnumColumn=C:\Windows\System32\UserDataPlatformHelperUtil.FreeEnumColumn
  GenerateUserModeServiceName=C:\Windows\System32\UserDataPlatformHelperUtil.GenerateUserModeServiceName
  GetCalendarColors=C:\Windows\System32\UserDataPlatformHelperUtil.GetCalendarColors
  GetCombinedTransientObjectSecurityDescriptor=C:\Windows\System32\UserDataPlatformHelperUtil.GetCombinedTransientObjectSecurityDescriptor
  GetContentTypeFromFilePath=C:\Windows\System32\UserDataPlatformHelperUtil.GetContentTypeFromFilePath
  GetFileExtensionFromContentType=C:\Windows\System32\UserDataPlatformHelperUtil.GetFileExtensionFromContentType
  GetNextNewCalendarColor=C:\Windows\System32\UserDataPlatformHelperUtil.GetNextNewCalendarColor
  GetQueryProcessHandle=C:\Windows\System32\UserDataPlatformHelperUtil.GetQueryProcessHandle
  GetRpcClientThreadToken=C:\Windows\System32\UserDataPlatformHelperUtil.GetRpcClientThreadToken
  GetSupportedImageFileExtensions=C:\Windows\System32\UserDataPlatformHelperUtil.GetSupportedImageFileExtensions
  GetTempFileNameWithExt=C:\Windows\System32\UserDataPlatformHelperUtil.GetTempFileNameWithExt
  GetThreadIOPriority=C:\Windows\System32\UserDataPlatformHelperUtil.GetThreadIOPriority
  GetUserContextFromHandle=C:\Windows\System32\UserDataPlatformHelperUtil.GetUserContextFromHandle
  GetUserTokenFromContext=C:\Windows\System32\UserDataPlatformHelperUtil.GetUserTokenFromContext
  IsActiveDebugger=C:\Windows\System32\UserDataPlatformHelperUtil.IsActiveDebugger
  IsCommsSystemService=C:\Windows\System32\UserDataPlatformHelperUtil.IsCommsSystemService
  IsImageExtension=C:\Windows\System32\UserDataPlatformHelperUtil.IsImageExtension
  JetReallocMethod=C:\Windows\System32\UserDataPlatformHelperUtil.JetReallocMethod
  PrependHtmlOneCore=C:\Windows\System32\UserDataPlatformHelperUtil.PrependHtmlOneCore
  ResizeImageBySizeInMemory=C:\Windows\System32\UserDataPlatformHelperUtil.ResizeImageBySizeInMemory
  ResizeImageBySizeToStream=C:\Windows\System32\UserDataPlatformHelperUtil.ResizeImageBySizeToStream
  RunServicesInProc=C:\Windows\System32\UserDataPlatformHelperUtil.RunServicesInProc
  SetCommsServiceJetGlobalSystemParameters=C:\Windows\System32\UserDataPlatformHelperUtil.SetCommsServiceJetGlobalSystemParameters
  SetPoolThreadBasePriority=C:\Windows\System32\UserDataPlatformHelperUtil.SetPoolThreadBasePriority
  SetThreadIOPriority=C:\Windows\System32\UserDataPlatformHelperUtil.SetThreadIOPriority
  StartAndWaitForService=C:\Windows\System32\UserDataPlatformHelperUtil.StartAndWaitForService
  StartAndWaitForServiceForUser=C:\Windows\System32\UserDataPlatformHelperUtil.StartAndWaitForServiceForUser
  StopAndWaitForFullyNamedService=C:\Windows\System32\UserDataPlatformHelperUtil.StopAndWaitForFullyNamedService
  StopAndWaitForService=C:\Windows\System32\UserDataPlatformHelperUtil.StopAndWaitForService
  UT_UninitializeTrident=C:\Windows\System32\UserDataPlatformHelperUtil.UT_UninitializeTrident
