EXPORTS
  ??0CVssJetWriter@@QEAA@XZ=C:\Windows\System32\vssapi.??0CVssJetWriter@@QEAA@XZ
  ??0CVssWriter@@QEAA@XZ=C:\Windows\System32\vssapi.??0CVssWriter@@QEAA@XZ
  ??1CVssJetWriter@@UEAA@XZ=C:\Windows\System32\vssapi.??1CVssJetWriter@@UEAA@XZ
  ??1CVssWriter@@UEAA@XZ=C:\Windows\System32\vssapi.??1CVssWriter@@UEAA@XZ
  ?AreComponentsSelected@CVssJetWriter@@IEBA_NXZ=C:\Windows\System32\vssapi.?AreComponentsSelected@CVssJetWriter@@IEBA_NXZ
  ?AreComponentsSelected@CVssWriter@@IEBA_NXZ=C:\Windows\System32\vssapi.?AreComponentsSelected@CVssWriter@@IEBA_NXZ
  ?CreateVssBackupComponents@@YAJPEAPEAVIVssBackupComponents@@@Z=C:\Windows\System32\vssapi.?CreateVssBackupComponents@@YAJPEAPEAVIVssBackupComponents@@@Z
  ?CreateVssExamineWriterMetadata@@YAJPEAGPEAPEAVIVssExamineWriterMetadata@@@Z=C:\Windows\System32\vssapi.?CreateVssExamineWriterMetadata@@YAJPEAGPEAPEAVIVssExamineWriterMetadata@@@Z
  ?GetBackupType@CVssJetWriter@@IEBA?AW4_VSS_BACKUP_TYPE@@XZ=C:\Windows\System32\vssapi.?GetBackupType@CVssJetWriter@@IEBA?AW4_VSS_BACKUP_TYPE@@XZ
  ?GetBackupType@CVssWriter@@IEBA?AW4_VSS_BACKUP_TYPE@@XZ=C:\Windows\System32\vssapi.?GetBackupType@CVssWriter@@IEBA?AW4_VSS_BACKUP_TYPE@@XZ
  ?GetContext@CVssJetWriter@@IEBAJXZ=C:\Windows\System32\vssapi.?GetContext@CVssJetWriter@@IEBAJXZ
  ?GetContext@CVssWriter@@IEBAJXZ=C:\Windows\System32\vssapi.?GetContext@CVssWriter@@IEBAJXZ
  ?GetCurrentLevel@CVssJetWriter@@IEBA?AW4_VSS_APPLICATION_LEVEL@@XZ=C:\Windows\System32\vssapi.?GetCurrentLevel@CVssJetWriter@@IEBA?AW4_VSS_APPLICATION_LEVEL@@XZ
  ?GetCurrentLevel@CVssWriter@@IEBA?AW4_VSS_APPLICATION_LEVEL@@XZ=C:\Windows\System32\vssapi.?GetCurrentLevel@CVssWriter@@IEBA?AW4_VSS_APPLICATION_LEVEL@@XZ
  ?GetCurrentSnapshotSetId@CVssJetWriter@@IEBA?AU_GUID@@XZ=C:\Windows\System32\vssapi.?GetCurrentSnapshotSetId@CVssJetWriter@@IEBA?AU_GUID@@XZ
  ?GetCurrentSnapshotSetId@CVssWriter@@IEBA?AU_GUID@@XZ=C:\Windows\System32\vssapi.?GetCurrentSnapshotSetId@CVssWriter@@IEBA?AU_GUID@@XZ
  ?GetCurrentVolumeArray@CVssJetWriter@@IEBAPEAPEBGXZ=C:\Windows\System32\vssapi.?GetCurrentVolumeArray@CVssJetWriter@@IEBAPEAPEBGXZ
  ?GetCurrentVolumeArray@CVssWriter@@IEBAPEAPEBGXZ=C:\Windows\System32\vssapi.?GetCurrentVolumeArray@CVssWriter@@IEBAPEAPEBGXZ
  ?GetCurrentVolumeCount@CVssJetWriter@@IEBAIXZ=C:\Windows\System32\vssapi.?GetCurrentVolumeCount@CVssJetWriter@@IEBAIXZ
  ?GetCurrentVolumeCount@CVssWriter@@IEBAIXZ=C:\Windows\System32\vssapi.?GetCurrentVolumeCount@CVssWriter@@IEBAIXZ
  ?GetRestoreType@CVssJetWriter@@IEBA?AW4_VSS_RESTORE_TYPE@@XZ=C:\Windows\System32\vssapi.?GetRestoreType@CVssJetWriter@@IEBA?AW4_VSS_RESTORE_TYPE@@XZ
  ?GetRestoreType@CVssWriter@@IEBA?AW4_VSS_RESTORE_TYPE@@XZ=C:\Windows\System32\vssapi.?GetRestoreType@CVssWriter@@IEBA?AW4_VSS_RESTORE_TYPE@@XZ
  ?GetSnapshotDeviceName@CVssJetWriter@@IEBAJPEBGPEAPEBG@Z=C:\Windows\System32\vssapi.?GetSnapshotDeviceName@CVssJetWriter@@IEBAJPEBGPEAPEBG@Z
  ?GetSnapshotDeviceName@CVssWriter@@IEBAJPEBGPEAPEBG@Z=C:\Windows\System32\vssapi.?GetSnapshotDeviceName@CVssWriter@@IEBAJPEBGPEAPEBG@Z
  ?Initialize@CVssJetWriter@@QEAAJU_GUID@@PEBG_N211K@Z=C:\Windows\System32\vssapi.?Initialize@CVssJetWriter@@QEAAJU_GUID@@PEBG_N211K@Z
  ?Initialize@CVssWriter@@QEAAJU_GUID@@PEBGW4VSS_USAGE_TYPE@@W4VSS_SOURCE_TYPE@@W4_VSS_APPLICATION_LEVEL@@KW4VSS_ALTERNATE_WRITER_STATE@@_N1@Z=C:\Windows\System32\vssapi.?Initialize@CVssWriter@@QEAAJU_GUID@@PEBGW4VSS_USAGE_TYPE@@W4VSS_SOURCE_TYPE@@W4_VSS_APPLICATION_LEVEL@@KW4VSS_ALTERNATE_WRITER_STATE@@_N1@Z
  ?InstallAlternateWriter@CVssWriter@@QEAAJU_GUID@@0@Z=C:\Windows\System32\vssapi.?InstallAlternateWriter@CVssWriter@@QEAAJU_GUID@@0@Z
  ?IsBootableSystemStateBackedUp@CVssJetWriter@@IEBA_NXZ=C:\Windows\System32\vssapi.?IsBootableSystemStateBackedUp@CVssJetWriter@@IEBA_NXZ
  ?IsBootableSystemStateBackedUp@CVssWriter@@IEBA_NXZ=C:\Windows\System32\vssapi.?IsBootableSystemStateBackedUp@CVssWriter@@IEBA_NXZ
  ?IsPartialFileSupportEnabled@CVssJetWriter@@IEBA_NXZ=C:\Windows\System32\vssapi.?IsPartialFileSupportEnabled@CVssJetWriter@@IEBA_NXZ
  ?IsPartialFileSupportEnabled@CVssWriter@@IEBA_NXZ=C:\Windows\System32\vssapi.?IsPartialFileSupportEnabled@CVssWriter@@IEBA_NXZ
  ?IsPathAffected@CVssJetWriter@@IEBA_NPEBG@Z=C:\Windows\System32\vssapi.?IsPathAffected@CVssJetWriter@@IEBA_NPEBG@Z
  ?IsPathAffected@CVssWriter@@IEBA_NPEBG@Z=C:\Windows\System32\vssapi.?IsPathAffected@CVssWriter@@IEBA_NPEBG@Z
  ?OnAbortBegin@CVssJetWriter@@UEAAXXZ=C:\Windows\System32\vssapi.?OnAbortBegin@CVssJetWriter@@UEAAXXZ
  ?OnAbortEnd@CVssJetWriter@@UEAAXXZ=C:\Windows\System32\vssapi.?OnAbortEnd@CVssJetWriter@@UEAAXXZ
  ?OnBackOffIOOnVolume@CVssWriter@@UEAA_NPEAGU_GUID@@1@Z=C:\Windows\System32\vssapi.?OnBackOffIOOnVolume@CVssWriter@@UEAA_NPEAGU_GUID@@1@Z
  ?OnBackupComplete@CVssWriter@@UEAA_NPEAVIVssWriterComponents@@@Z=C:\Windows\System32\vssapi.?OnBackupComplete@CVssWriter@@UEAA_NPEAVIVssWriterComponents@@@Z
  ?OnBackupCompleteBegin@CVssJetWriter@@UEAA_NPEAVIVssWriterComponents@@@Z=C:\Windows\System32\vssapi.?OnBackupCompleteBegin@CVssJetWriter@@UEAA_NPEAVIVssWriterComponents@@@Z
  ?OnBackupCompleteEnd@CVssJetWriter@@UEAA_NPEAVIVssWriterComponents@@_N@Z=C:\Windows\System32\vssapi.?OnBackupCompleteEnd@CVssJetWriter@@UEAA_NPEAVIVssWriterComponents@@_N@Z
  ?OnBackupShutdown@CVssWriter@@UEAA_NU_GUID@@@Z=C:\Windows\System32\vssapi.?OnBackupShutdown@CVssWriter@@UEAA_NU_GUID@@@Z
  ?OnContinueIOOnVolume@CVssWriter@@UEAA_NPEAGU_GUID@@1@Z=C:\Windows\System32\vssapi.?OnContinueIOOnVolume@CVssWriter@@UEAA_NPEAGU_GUID@@1@Z
  ?OnFreezeBegin@CVssJetWriter@@UEAA_NXZ=C:\Windows\System32\vssapi.?OnFreezeBegin@CVssJetWriter@@UEAA_NXZ
  ?OnFreezeEnd@CVssJetWriter@@UEAA_N_N@Z=C:\Windows\System32\vssapi.?OnFreezeEnd@CVssJetWriter@@UEAA_N_N@Z
  ?OnIdentify@CVssJetWriter@@UEAA_NPEAVIVssCreateWriterMetadata@@@Z=C:\Windows\System32\vssapi.?OnIdentify@CVssJetWriter@@UEAA_NPEAVIVssCreateWriterMetadata@@@Z
  ?OnIdentify@CVssWriter@@UEAA_NPEAVIVssCreateWriterMetadata@@@Z=C:\Windows\System32\vssapi.?OnIdentify@CVssWriter@@UEAA_NPEAVIVssCreateWriterMetadata@@@Z
  ?OnPostRestore@CVssWriter@@UEAA_NPEAVIVssWriterComponents@@@Z=C:\Windows\System32\vssapi.?OnPostRestore@CVssWriter@@UEAA_NPEAVIVssWriterComponents@@@Z
  ?OnPostRestoreBegin@CVssJetWriter@@UEAA_NPEAVIVssWriterComponents@@@Z=C:\Windows\System32\vssapi.?OnPostRestoreBegin@CVssJetWriter@@UEAA_NPEAVIVssWriterComponents@@@Z
  ?OnPostRestoreEnd@CVssJetWriter@@UEAA_NPEAVIVssWriterComponents@@_N@Z=C:\Windows\System32\vssapi.?OnPostRestoreEnd@CVssJetWriter@@UEAA_NPEAVIVssWriterComponents@@_N@Z
  ?OnPostSnapshot@CVssJetWriter@@UEAA_NPEAVIVssWriterComponents@@@Z=C:\Windows\System32\vssapi.?OnPostSnapshot@CVssJetWriter@@UEAA_NPEAVIVssWriterComponents@@@Z
  ?OnPostSnapshot@CVssWriter@@UEAA_NPEAVIVssWriterComponents@@@Z=C:\Windows\System32\vssapi.?OnPostSnapshot@CVssWriter@@UEAA_NPEAVIVssWriterComponents@@@Z
  ?OnPreRestore@CVssWriter@@UEAA_NPEAVIVssWriterComponents@@@Z=C:\Windows\System32\vssapi.?OnPreRestore@CVssWriter@@UEAA_NPEAVIVssWriterComponents@@@Z
  ?OnPreRestoreBegin@CVssJetWriter@@UEAA_NPEAVIVssWriterComponents@@@Z=C:\Windows\System32\vssapi.?OnPreRestoreBegin@CVssJetWriter@@UEAA_NPEAVIVssWriterComponents@@@Z
  ?OnPreRestoreEnd@CVssJetWriter@@UEAA_NPEAVIVssWriterComponents@@_N@Z=C:\Windows\System32\vssapi.?OnPreRestoreEnd@CVssJetWriter@@UEAA_NPEAVIVssWriterComponents@@_N@Z
  ?OnPrepareBackup@CVssWriter@@UEAA_NPEAVIVssWriterComponents@@@Z=C:\Windows\System32\vssapi.?OnPrepareBackup@CVssWriter@@UEAA_NPEAVIVssWriterComponents@@@Z
  ?OnPrepareBackupBegin@CVssJetWriter@@UEAA_NPEAVIVssWriterComponents@@@Z=C:\Windows\System32\vssapi.?OnPrepareBackupBegin@CVssJetWriter@@UEAA_NPEAVIVssWriterComponents@@@Z
  ?OnPrepareBackupEnd@CVssJetWriter@@UEAA_NPEAVIVssWriterComponents@@_N@Z=C:\Windows\System32\vssapi.?OnPrepareBackupEnd@CVssJetWriter@@UEAA_NPEAVIVssWriterComponents@@_N@Z
  ?OnPrepareSnapshotBegin@CVssJetWriter@@UEAA_NXZ=C:\Windows\System32\vssapi.?OnPrepareSnapshotBegin@CVssJetWriter@@UEAA_NXZ
  ?OnPrepareSnapshotEnd@CVssJetWriter@@UEAA_N_N@Z=C:\Windows\System32\vssapi.?OnPrepareSnapshotEnd@CVssJetWriter@@UEAA_N_N@Z
  ?OnThawBegin@CVssJetWriter@@UEAA_NXZ=C:\Windows\System32\vssapi.?OnThawBegin@CVssJetWriter@@UEAA_NXZ
  ?OnThawEnd@CVssJetWriter@@UEAA_N_N@Z=C:\Windows\System32\vssapi.?OnThawEnd@CVssJetWriter@@UEAA_N_N@Z
  ?OnVSSApplicationStartup@CVssWriter@@UEAA_NXZ=C:\Windows\System32\vssapi.?OnVSSApplicationStartup@CVssWriter@@UEAA_NXZ
  ?OnVSSShutdown@CVssWriter@@UEAA_NXZ=C:\Windows\System32\vssapi.?OnVSSShutdown@CVssWriter@@UEAA_NXZ
  ?SetWriterFailure@CVssJetWriter@@IEAAJJ@Z=C:\Windows\System32\vssapi.?SetWriterFailure@CVssJetWriter@@IEAAJJ@Z
  ?SetWriterFailure@CVssWriter@@IEAAJJ@Z=C:\Windows\System32\vssapi.?SetWriterFailure@CVssWriter@@IEAAJJ@Z
  ?Subscribe@CVssWriter@@QEAAJK@Z=C:\Windows\System32\vssapi.?Subscribe@CVssWriter@@QEAAJK@Z
  ?Uninitialize@CVssJetWriter@@QEAAXXZ=C:\Windows\System32\vssapi.?Uninitialize@CVssJetWriter@@QEAAXXZ
  ?Unsubscribe@CVssWriter@@QEAAJXZ=C:\Windows\System32\vssapi.?Unsubscribe@CVssWriter@@QEAAJXZ
  CreateVssBackupComponentsInternal=C:\Windows\System32\vssapi.CreateVssBackupComponentsInternal
  CreateVssExamineWriterMetadataInternal=C:\Windows\System32\vssapi.CreateVssExamineWriterMetadataInternal
  CreateVssExpressWriterInternal=C:\Windows\System32\vssapi.CreateVssExpressWriterInternal
  CreateVssSnapshotSetDescription=C:\Windows\System32\vssapi.CreateVssSnapshotSetDescription
  CreateWriter=C:\Windows\System32\vssapi.CreateWriter
  CreateWriterEx=C:\Windows\System32\vssapi.CreateWriterEx
  DllCanUnloadNow=C:\Windows\System32\vssapi.DllCanUnloadNow
  DllGetClassObject=C:\Windows\System32\vssapi.DllGetClassObject
  GetProviderMgmtInterface=C:\Windows\System32\vssapi.GetProviderMgmtInterface
  GetProviderMgmtInterfaceInternal=C:\Windows\System32\vssapi.GetProviderMgmtInterfaceInternal
  IsVolumeSnapshotted=C:\Windows\System32\vssapi.IsVolumeSnapshotted
  IsVolumeSnapshottedInternal=C:\Windows\System32\vssapi.IsVolumeSnapshottedInternal
  LoadVssSnapshotSetDescription=C:\Windows\System32\vssapi.LoadVssSnapshotSetDescription
  ShouldBlockRevert=C:\Windows\System32\vssapi.ShouldBlockRevert
  ShouldBlockRevertInternal=C:\Windows\System32\vssapi.ShouldBlockRevertInternal
  VssFreeSnapshotProperties=C:\Windows\System32\vssapi.VssFreeSnapshotProperties
  VssFreeSnapshotPropertiesInternal=C:\Windows\System32\vssapi.VssFreeSnapshotPropertiesInternal
